---
triple:          'arm64-apple-darwin'
binary-path:     '/Users/teddy/code/zero_to_production/newsletter_server/target/debug/build/typenum-905471de2a95c189/build_script_main-905471de2a95c189'
relocations:
  - { offset: 0x1E, size: 0x8, addend: 0x0, symName: __RINvMs0_NtCs9f3LFPSIp77_4core3fmtNtB6_9Arguments6new_v1Kj1_KBS_ECs5UlKWfykTNt_17build_script_main, symObjAddr: 0x0, symBinAddr: 0x100003B34, symSize: 0x50 }
  - { offset: 0x44D, size: 0x8, addend: 0x0, symName: __RNvNtNtNtNtCs27l1GJC5rMQ_3std3sys3pal4unix2fs23debug_assert_fd_is_openCs5UlKWfykTNt_17build_script_main, symObjAddr: 0x18E0, symBinAddr: 0x100005414, symSize: 0xC8 }
  - { offset: 0x869, size: 0x8, addend: 0x0, symName: __RNvNvMs1_NtNtCs9f3LFPSIp77_4core3ptr8non_nullINtB7_7NonNullpE13new_unchecked18precondition_checkCs5UlKWfykTNt_17build_script_main, symObjAddr: 0x19A8, symBinAddr: 0x1000054DC, symSize: 0x40 }
  - { offset: 0xA31, size: 0x8, addend: 0x0, symName: __RINvNtCs9f3LFPSIp77_4core3ptr13drop_in_placeDNtNtB4_5error5ErrorEL_ECs5UlKWfykTNt_17build_script_main, symObjAddr: 0x194, symBinAddr: 0x100003CC8, symSize: 0x48 }
  - { offset: 0xA60, size: 0x8, addend: 0x0, symName: __RINvNtCs9f3LFPSIp77_4core3ptr13drop_in_placeDNtNtB4_5error5ErrorNtNtB4_6marker4SendNtB12_4SyncEL_ECs5UlKWfykTNt_17build_script_main, symObjAddr: 0x1DC, symBinAddr: 0x100003D10, symSize: 0x48 }
  - { offset: 0xA8F, size: 0x8, addend: 0x0, symName: __RINvNtCs9f3LFPSIp77_4core3ptr13drop_in_placeINtNtB4_6result6ResultuNtNtNtCs27l1GJC5rMQ_3std2io5error5ErrorEECs5UlKWfykTNt_17build_script_main, symObjAddr: 0x224, symBinAddr: 0x100003D58, symSize: 0x44 }
  - { offset: 0xABE, size: 0x8, addend: 0x0, symName: __RINvNtCs9f3LFPSIp77_4core3ptr13drop_in_placeINtNtCsdze8u8oDPro_5alloc3vec3VecNtNtBL_6string6StringEECs5UlKWfykTNt_17build_script_main, symObjAddr: 0x268, symBinAddr: 0x100003D9C, symSize: 0x5C }
  - { offset: 0xAED, size: 0x8, addend: 0x0, symName: __RINvNtCs9f3LFPSIp77_4core3ptr13drop_in_placeINtNtCsdze8u8oDPro_5alloc3vec3VechEECs5UlKWfykTNt_17build_script_main, symObjAddr: 0x2C4, symBinAddr: 0x100003DF8, symSize: 0x5C }
  - { offset: 0xB1C, size: 0x8, addend: 0x0, symName: __RINvNtCs9f3LFPSIp77_4core3ptr13drop_in_placeINtNtCsdze8u8oDPro_5alloc5boxed3BoxDNtNtB4_5error5ErrorEL_EECs5UlKWfykTNt_17build_script_main, symObjAddr: 0x320, symBinAddr: 0x100003E54, symSize: 0x80 }
  - { offset: 0xB4B, size: 0x8, addend: 0x0, symName: __RINvNtCs9f3LFPSIp77_4core3ptr13drop_in_placeINtNtCsdze8u8oDPro_5alloc5boxed3BoxDNtNtB4_5error5ErrorNtNtB4_6marker4SendNtB1B_4SyncEL_EECs5UlKWfykTNt_17build_script_main, symObjAddr: 0x3A0, symBinAddr: 0x100003ED4, symSize: 0x80 }
  - { offset: 0xB7A, size: 0x8, addend: 0x0, symName: __RINvNtCs9f3LFPSIp77_4core3ptr13drop_in_placeINtNtCsdze8u8oDPro_5alloc5boxed3BoxNtCs5UlKWfykTNt_17build_script_main8UIntCodeEEB1h_, symObjAddr: 0x420, symBinAddr: 0x100003F54, symSize: 0x60 }
  - { offset: 0xBA9, size: 0x8, addend: 0x0, symName: __RINvNtCs9f3LFPSIp77_4core3ptr13drop_in_placeINtNtCsdze8u8oDPro_5alloc5boxed3BoxNtNtNtCs27l1GJC5rMQ_3std2io5error6CustomEECs5UlKWfykTNt_17build_script_main, symObjAddr: 0x480, symBinAddr: 0x100003FB4, symSize: 0x60 }
  - { offset: 0xBD8, size: 0x8, addend: 0x0, symName: __RINvNtCs9f3LFPSIp77_4core3ptr13drop_in_placeINtNtCsdze8u8oDPro_5alloc7raw_vec6RawVecNtNtBL_6string6StringEECs5UlKWfykTNt_17build_script_main, symObjAddr: 0x4E0, symBinAddr: 0x100004014, symSize: 0x24 }
  - { offset: 0xC07, size: 0x8, addend: 0x0, symName: __RINvNtCs9f3LFPSIp77_4core3ptr13drop_in_placeINtNtCsdze8u8oDPro_5alloc7raw_vec6RawVechEECs5UlKWfykTNt_17build_script_main, symObjAddr: 0x504, symBinAddr: 0x100004038, symSize: 0x24 }
  - { offset: 0xC36, size: 0x8, addend: 0x0, symName: __RINvNtCs9f3LFPSIp77_4core3ptr13drop_in_placeINtNtNtCs27l1GJC5rMQ_3std2io5error9ErrorDataINtNtCsdze8u8oDPro_5alloc5boxed3BoxNtBJ_6CustomEEECs5UlKWfykTNt_17build_script_main, symObjAddr: 0x528, symBinAddr: 0x10000405C, symSize: 0x48 }
  - { offset: 0xC65, size: 0x8, addend: 0x0, symName: __RINvNtCs9f3LFPSIp77_4core3ptr13drop_in_placeINtNtNtNtCs27l1GJC5rMQ_3std2io8buffered9bufwriter9BufWriterRNtNtBP_2fs4FileEECs5UlKWfykTNt_17build_script_main, symObjAddr: 0x570, symBinAddr: 0x1000040A4, symSize: 0x5C }
  - { offset: 0xC94, size: 0x8, addend: 0x0, symName: __RINvNtCs9f3LFPSIp77_4core3ptr13drop_in_placeINtNvNtNtCs27l1GJC5rMQ_3std2io5Write9write_fmt7AdapterINtNtNtBN_8buffered9bufwriter9BufWriterRNtNtBP_2fs4FileEEECs5UlKWfykTNt_17build_script_main, symObjAddr: 0x5CC, symBinAddr: 0x100004100, symSize: 0x24 }
  - { offset: 0xCC3, size: 0x8, addend: 0x0, symName: __RINvNtCs9f3LFPSIp77_4core3ptr13drop_in_placeINtNvNtNtCs27l1GJC5rMQ_3std2io5Write9write_fmt7AdapterNtNtBP_2fs4FileEECs5UlKWfykTNt_17build_script_main, symObjAddr: 0x5F0, symBinAddr: 0x100004124, symSize: 0x24 }
  - { offset: 0xCF2, size: 0x8, addend: 0x0, symName: __RINvNtCs9f3LFPSIp77_4core3ptr13drop_in_placeINtNvNtNtCs27l1GJC5rMQ_3std2io5Write9write_fmt7AdapterNtNtNtNtNtBP_3sys3pal4unix5stdio6StderrEECs5UlKWfykTNt_17build_script_main, symObjAddr: 0x614, symBinAddr: 0x100004148, symSize: 0x24 }
  - { offset: 0xD21, size: 0x8, addend: 0x0, symName: __RINvNtCs9f3LFPSIp77_4core3ptr13drop_in_placeNCINvMsi_NtCsdze8u8oDPro_5alloc3vecINtBP_3VecNtNtBR_6string6StringE14extend_trustedINtNtNtNtB4_4iter8adapters3map3MapINtNtNtB4_5slice4iter4IterNtNtCs5UlKWfykTNt_17build_script_main2op2OpENCNvB31_14write_op_macros5_0EE0EB33_, symObjAddr: 0x638, symBinAddr: 0x10000416C, symSize: 0x24 }
  - { offset: 0xD50, size: 0x8, addend: 0x0, symName: __RINvNtCs9f3LFPSIp77_4core3ptr13drop_in_placeNCINvNtCs27l1GJC5rMQ_3std2rt10lang_startuE0ECs5UlKWfykTNt_17build_script_main, symObjAddr: 0x65C, symBinAddr: 0x100004190, symSize: 0x10 }
  - { offset: 0xD7F, size: 0x8, addend: 0x0, symName: __RINvNtCs9f3LFPSIp77_4core3ptr13drop_in_placeNCINvNtNtNtB4_4iter8adapters3map8map_foldRNtNtCs5UlKWfykTNt_17build_script_main2op2OpNtNtCsdze8u8oDPro_5alloc6string6StringuNCNvB1o_14write_op_macros5_0NCINvNvNtNtNtBP_6traits8iterator8Iterator8for_each4callB23_NCINvMsi_NtB27_3vecINtB4e_3VecB23_E14extend_trustedINtBL_3MapINtNtNtB4_5slice4iter4IterB1m_EB2G_EE0E0E0EB1q_, symObjAddr: 0x66C, symBinAddr: 0x1000041A0, symSize: 0x24 }
  - { offset: 0xDAE, size: 0x8, addend: 0x0, symName: __RINvNtCs9f3LFPSIp77_4core3ptr13drop_in_placeNCINvNvNtNtNtNtB4_4iter6traits8iterator8Iterator8for_each4callNtNtCsdze8u8oDPro_5alloc6string6StringNCINvMsi_NtB1K_3vecINtB2r_3VecB1G_E14extend_trustedINtNtNtBT_8adapters3map3MapINtNtNtB4_5slice4iter4IterNtNtCs5UlKWfykTNt_17build_script_main2op2OpENCNvB40_14write_op_macros5_0EE0E0EB42_, symObjAddr: 0x690, symBinAddr: 0x1000041C4, symSize: 0x24 }
  - { offset: 0xDDD, size: 0x8, addend: 0x0, symName: __RINvNtCs9f3LFPSIp77_4core3ptr13drop_in_placeNtCs5UlKWfykTNt_17build_script_main7IntCodeEBI_, symObjAddr: 0x6B4, symBinAddr: 0x1000041E8, symSize: 0x64 }
  - { offset: 0xE0C, size: 0x8, addend: 0x0, symName: __RINvNtCs9f3LFPSIp77_4core3ptr13drop_in_placeNtCs5UlKWfykTNt_17build_script_main8UIntCodeEBI_, symObjAddr: 0x718, symBinAddr: 0x10000424C, symSize: 0x64 }
  - { offset: 0xE3B, size: 0x8, addend: 0x0, symName: __RINvNtCs9f3LFPSIp77_4core3ptr13drop_in_placeNtNtCs27l1GJC5rMQ_3std2fs4FileECs5UlKWfykTNt_17build_script_main, symObjAddr: 0x77C, symBinAddr: 0x1000042B0, symSize: 0x24 }
  - { offset: 0xE6A, size: 0x8, addend: 0x0, symName: __RINvNtCs9f3LFPSIp77_4core3ptr13drop_in_placeNtNtCs27l1GJC5rMQ_3std3env8VarErrorECs5UlKWfykTNt_17build_script_main, symObjAddr: 0x7A0, symBinAddr: 0x1000042D4, symSize: 0x48 }
  - { offset: 0xE99, size: 0x8, addend: 0x0, symName: __RINvNtCs9f3LFPSIp77_4core3ptr13drop_in_placeNtNtCs27l1GJC5rMQ_3std4path7PathBufECs5UlKWfykTNt_17build_script_main, symObjAddr: 0x7E8, symBinAddr: 0x10000431C, symSize: 0x24 }
  - { offset: 0xEC8, size: 0x8, addend: 0x0, symName: __RINvNtCs9f3LFPSIp77_4core3ptr13drop_in_placeNtNtCsdze8u8oDPro_5alloc6string6StringECs5UlKWfykTNt_17build_script_main, symObjAddr: 0x80C, symBinAddr: 0x100004340, symSize: 0x24 }
  - { offset: 0xEF7, size: 0x8, addend: 0x0, symName: __RINvNtCs9f3LFPSIp77_4core3ptr13drop_in_placeNtNtNtCs27l1GJC5rMQ_3std2io5error5ErrorECs5UlKWfykTNt_17build_script_main, symObjAddr: 0x830, symBinAddr: 0x100004364, symSize: 0x24 }
  - { offset: 0xF26, size: 0x8, addend: 0x0, symName: __RINvNtCs9f3LFPSIp77_4core3ptr13drop_in_placeNtNtNtCs27l1GJC5rMQ_3std2io5error6CustomECs5UlKWfykTNt_17build_script_main, symObjAddr: 0x854, symBinAddr: 0x100004388, symSize: 0x24 }
  - { offset: 0xF55, size: 0x8, addend: 0x0, symName: __RINvNtCs9f3LFPSIp77_4core3ptr13drop_in_placeNtNtNtCs27l1GJC5rMQ_3std3ffi6os_str8OsStringECs5UlKWfykTNt_17build_script_main, symObjAddr: 0x878, symBinAddr: 0x1000043AC, symSize: 0x24 }
  - { offset: 0xF84, size: 0x8, addend: 0x0, symName: __RINvNtCs9f3LFPSIp77_4core3ptr13drop_in_placeNtNtNtCsdze8u8oDPro_5alloc3vec15set_len_on_drop12SetLenOnDropECs5UlKWfykTNt_17build_script_main, symObjAddr: 0x89C, symBinAddr: 0x1000043D0, symSize: 0x24 }
  - { offset: 0xFB3, size: 0x8, addend: 0x0, symName: __RINvNtCs9f3LFPSIp77_4core3ptr13drop_in_placeNtNtNtNtCs27l1GJC5rMQ_3std2io5error14repr_bitpacked4ReprECs5UlKWfykTNt_17build_script_main, symObjAddr: 0x8C0, symBinAddr: 0x1000043F4, symSize: 0x24 }
  - { offset: 0xFE2, size: 0x8, addend: 0x0, symName: __RINvNtCs9f3LFPSIp77_4core3ptr13drop_in_placeNtNtNtNtCs27l1GJC5rMQ_3std2os2fd5owned7OwnedFdECs5UlKWfykTNt_17build_script_main, symObjAddr: 0x8E4, symBinAddr: 0x100004418, symSize: 0x24 }
  - { offset: 0x1011, size: 0x8, addend: 0x0, symName: __RINvNtCs9f3LFPSIp77_4core3ptr13drop_in_placeNtNtNtNtCs27l1GJC5rMQ_3std3sys6os_str5bytes3BufECs5UlKWfykTNt_17build_script_main, symObjAddr: 0x908, symBinAddr: 0x10000443C, symSize: 0x24 }
  - { offset: 0x1040, size: 0x8, addend: 0x0, symName: __RINvNtCs9f3LFPSIp77_4core3ptr13drop_in_placeNtNtNtNtNtCs27l1GJC5rMQ_3std3sys3pal4unix2fd8FileDescECs5UlKWfykTNt_17build_script_main, symObjAddr: 0x92C, symBinAddr: 0x100004460, symSize: 0x24 }
  - { offset: 0x106F, size: 0x8, addend: 0x0, symName: __RINvNtCs9f3LFPSIp77_4core3ptr13drop_in_placeNtNtNtNtNtCs27l1GJC5rMQ_3std3sys3pal4unix2fs4FileECs5UlKWfykTNt_17build_script_main, symObjAddr: 0x950, symBinAddr: 0x100004484, symSize: 0x24 }
  - { offset: 0x109E, size: 0x8, addend: 0x0, symName: __RINvNtCs9f3LFPSIp77_4core3ptr13drop_in_placeNtNvMs_NtNtNtCs27l1GJC5rMQ_3std2io8buffered9bufwriterINtBN_9BufWriterpE9flush_buf8BufGuardECs5UlKWfykTNt_17build_script_main, symObjAddr: 0x974, symBinAddr: 0x1000044A8, symSize: 0x24 }
  - { offset: 0x10CD, size: 0x8, addend: 0x0, symName: __RINvNtCs9f3LFPSIp77_4core3ptr13drop_in_placeRNtNtNtCs27l1GJC5rMQ_3std3ffi6os_str8OsStringECs5UlKWfykTNt_17build_script_main, symObjAddr: 0x998, symBinAddr: 0x1000044CC, symSize: 0x10 }
  - { offset: 0x10FC, size: 0x8, addend: 0x0, symName: __RINvNtCs9f3LFPSIp77_4core3ptr13drop_in_placeSNtNtCsdze8u8oDPro_5alloc6string6StringECs5UlKWfykTNt_17build_script_main, symObjAddr: 0x9A8, symBinAddr: 0x1000044DC, symSize: 0xC4 }
  - { offset: 0x181A, size: 0x8, addend: 0x0, symName: __RNvXsR_NtCs9f3LFPSIp77_4core3fmtReNtB5_7Display3fmtCs5UlKWfykTNt_17build_script_main, symObjAddr: 0x22B8, symBinAddr: 0x100005DEC, symSize: 0x3C }
  - { offset: 0x188F, size: 0x8, addend: 0x0, symName: __RNvXs13_NtNtCs9f3LFPSIp77_4core3cmp5implsyNtB8_3Ord3cmpCs5UlKWfykTNt_17build_script_main, symObjAddr: 0x19E8, symBinAddr: 0x10000551C, symSize: 0x38 }
  - { offset: 0x18D2, size: 0x8, addend: 0x0, symName: __RNvXs1f_NtNtCs9f3LFPSIp77_4core3cmp5implsxNtB8_3Ord3cmpCs5UlKWfykTNt_17build_script_main, symObjAddr: 0x1B40, symBinAddr: 0x100005674, symSize: 0x38 }
  - { offset: 0x19A6, size: 0x8, addend: 0x0, symName: __RNvYNtNtCs5UlKWfykTNt_17build_script_main2op6OpTypeNtNtCs9f3LFPSIp77_4core3cmp9PartialEq2neB6_, symObjAddr: 0x23EC, symBinAddr: 0x100005F20, symSize: 0x30 }
  - { offset: 0x2524, size: 0x8, addend: 0x0, symName: __RINvXs2U_NtNtCs9f3LFPSIp77_4core5slice4iterINtB7_4IterNtNtCs5UlKWfykTNt_17build_script_main2op2OpENtNtNtNtBb_4iter6traits8iterator8Iterator4findQNCNvBS_14write_op_macro0EBU_, symObjAddr: 0xA6C, symBinAddr: 0x1000045A0, symSize: 0xB4 }
  - { offset: 0x2589, size: 0x8, addend: 0x0, symName: __RINvXs2U_NtNtCs9f3LFPSIp77_4core5slice4iterINtB7_4IterNtNtCs5UlKWfykTNt_17build_script_main2op2OpENtNtNtNtBb_4iter6traits8iterator8Iterator4findQNCNvBS_14write_op_macros2_0EBU_, symObjAddr: 0xB20, symBinAddr: 0x100004654, symSize: 0xB4 }
  - { offset: 0x25EE, size: 0x8, addend: 0x0, symName: __RINvXs2U_NtNtCs9f3LFPSIp77_4core5slice4iterINtB7_4IterNtNtCs5UlKWfykTNt_17build_script_main2op2OpENtNtNtNtBb_4iter6traits8iterator8Iterator4findQNCNvBS_14write_op_macros3_0EBU_, symObjAddr: 0xBD4, symBinAddr: 0x100004708, symSize: 0xB4 }
  - { offset: 0x2653, size: 0x8, addend: 0x0, symName: __RINvXs2U_NtNtCs9f3LFPSIp77_4core5slice4iterINtB7_4IterNtNtCs5UlKWfykTNt_17build_script_main2op2OpENtNtNtNtBb_4iter6traits8iterator8Iterator4findQNCNvBS_14write_op_macros4_0EBU_, symObjAddr: 0xC88, symBinAddr: 0x1000047BC, symSize: 0xB4 }
  - { offset: 0x26B8, size: 0x8, addend: 0x0, symName: __RINvXs2U_NtNtCs9f3LFPSIp77_4core5slice4iterINtB7_4IterNtNtCs5UlKWfykTNt_17build_script_main2op2OpENtNtNtNtBb_4iter6traits8iterator8Iterator4findQNCNvBS_14write_op_macros_0EBU_, symObjAddr: 0xD3C, symBinAddr: 0x100004870, symSize: 0xB4 }
  - { offset: 0x271D, size: 0x8, addend: 0x0, symName: __RINvXs2U_NtNtCs9f3LFPSIp77_4core5slice4iterINtB7_4IterNtNtCs5UlKWfykTNt_17build_script_main2op2OpENtNtNtNtBb_4iter6traits8iterator8Iterator4folduNCINvNtNtB1E_8adapters3map8map_foldRBQ_NtNtCsdze8u8oDPro_5alloc6string6StringuNCNvBS_14write_op_macros5_0NCINvNvB1y_8for_each4callB2W_NCINvMsi_NtB30_3vecINtB4C_3VecB2W_E14extend_trustedINtB2o_3MapBF_B3z_EE0E0E0EBU_, symObjAddr: 0xDF0, symBinAddr: 0x100004924, symSize: 0x200 }
  - { offset: 0x28FF, size: 0x8, addend: 0x0, symName: __RNvXs2U_NtNtCs9f3LFPSIp77_4core5slice4iterINtB6_4IterNtNtCs5UlKWfykTNt_17build_script_main2op2OpENtNtNtNtBa_4iter6traits8iterator8Iterator4nextBT_, symObjAddr: 0x1B78, symBinAddr: 0x1000056AC, symSize: 0xCC }
  - { offset: 0x2A60, size: 0x8, addend: 0x0, symName: __RNvXs2U_NtNtCs9f3LFPSIp77_4core5slice4iterINtB6_4IterNtNtCs5UlKWfykTNt_17build_script_main2op2OpENtNtNtNtBa_4iter6traits8iterator8Iterator9size_hintBT_, symObjAddr: 0x1C44, symBinAddr: 0x100005778, symSize: 0xC0 }
  - { offset: 0x2B45, size: 0x8, addend: 0x0, symName: __RNvXs2U_NtNtCs9f3LFPSIp77_4core5slice4iterINtB6_4IterNtNtCsdze8u8oDPro_5alloc6string6StringENtNtNtNtBa_4iter6traits8iterator8Iterator4nextCs5UlKWfykTNt_17build_script_main, symObjAddr: 0x1D04, symBinAddr: 0x100005838, symSize: 0xCC }
  - { offset: 0x2DD1, size: 0x8, addend: 0x0, symName: __RNvMNtCs9f3LFPSIp77_4core5sliceSNtNtCs5UlKWfykTNt_17build_script_main2op2Op4iterBy_, symObjAddr: 0x165C, symBinAddr: 0x100005190, symSize: 0x28 }
  - { offset: 0x2E90, size: 0x8, addend: 0x0, symName: __RNvXs5_NtNtCs9f3LFPSIp77_4core5slice5indexINtNtNtB9_3ops5range9RangeFromjEINtB5_10SliceIndexShE5indexCs5UlKWfykTNt_17build_script_main, symObjAddr: 0x2064, symBinAddr: 0x100005B98, symSize: 0x90 }
  - { offset: 0x31EC, size: 0x8, addend: 0x0, symName: __RINvYINtNtNtCs9f3LFPSIp77_4core3ops5range5RangemENtNtNtNtBa_4iter6traits8iterator8Iterator3mapyNCNvCs5UlKWfykTNt_17build_script_main5uints0EB1z_, symObjAddr: 0xFF0, symBinAddr: 0x100004B24, symSize: 0x14 }
  - { offset: 0x3244, size: 0x8, addend: 0x0, symName: __RINvYINtNtNtCs9f3LFPSIp77_4core3ops5range5RangemENtNtNtNtBa_4iter6traits8iterator8Iterator3mapyNCNvCs5UlKWfykTNt_17build_script_main5uintss_0EB1z_, symObjAddr: 0x1004, symBinAddr: 0x100004B38, symSize: 0x14 }
  - { offset: 0x329C, size: 0x8, addend: 0x0, symName: __RINvYINtNtNtCs9f3LFPSIp77_4core3ops5range5RangexENtNtNtNtBa_4iter6traits8iterator8Iterator3mapINtNtNtBR_8adapters3zip3ZipINtNtB1z_5cycle5CycleB3_EB3_ENCNvNtCs5UlKWfykTNt_17build_script_main5tests11build_testss_0EB2u_, symObjAddr: 0x1018, symBinAddr: 0x100004B4C, symSize: 0x28 }
  - { offset: 0x3341, size: 0x8, addend: 0x0, symName: __RINvYINtNtNtCs9f3LFPSIp77_4core3ops5range5RangexENtNtNtNtBa_4iter6traits8iterator8Iterator8flat_mapINtNtNtBR_8adapters3zip3ZipINtNtB1E_5cycle5CycleB3_EB3_ENCNvNtCs5UlKWfykTNt_17build_script_main5tests11build_testss_0EB2z_, symObjAddr: 0x1040, symBinAddr: 0x100004B74, symSize: 0xB8 }
  - { offset: 0x341B, size: 0x8, addend: 0x0, symName: __RINvYINtNtNtCs9f3LFPSIp77_4core3ops5range5RangeyENtNtNtNtBa_4iter6traits8iterator8Iterator3mapINtNtNtBR_8adapters3zip3ZipINtNtB1z_5cycle5CycleB3_EB3_ENCNvNtCs5UlKWfykTNt_17build_script_main5tests11build_tests0EB2u_, symObjAddr: 0x10F8, symBinAddr: 0x100004C2C, symSize: 0x28 }
  - { offset: 0x3499, size: 0x8, addend: 0x0, symName: __RINvYINtNtNtCs9f3LFPSIp77_4core3ops5range5RangeyENtNtNtNtBa_4iter6traits8iterator8Iterator5chainINtNtNtBR_8adapters3map3MapIB4_mENCNvCs5UlKWfykTNt_17build_script_main5uints0EEB27_, symObjAddr: 0x1120, symBinAddr: 0x100004C54, symSize: 0xD0 }
  - { offset: 0x3535, size: 0x8, addend: 0x0, symName: __RINvYINtNtNtCs9f3LFPSIp77_4core3ops5range5RangeyENtNtNtNtBa_4iter6traits8iterator8Iterator8flat_mapINtNtNtBR_8adapters3zip3ZipINtNtB1E_5cycle5CycleB3_EB3_ENCNvNtCs5UlKWfykTNt_17build_script_main5tests11build_tests0EB2z_, symObjAddr: 0x11F0, symBinAddr: 0x100004D24, symSize: 0xB8 }
  - { offset: 0x360F, size: 0x8, addend: 0x0, symName: __RINvYINtNtNtCs9f3LFPSIp77_4core5slice4iter4IterNtNtCs5UlKWfykTNt_17build_script_main2op2OpENtNtNtNtBa_4iter6traits8iterator8Iterator3mapNtNtCsdze8u8oDPro_5alloc6string6StringNCNvBL_14write_op_macros5_0EBN_, symObjAddr: 0x12A8, symBinAddr: 0x100004DDC, symSize: 0x1C }
  - { offset: 0x3667, size: 0x8, addend: 0x0, symName: __RINvYINtNtNtCs9f3LFPSIp77_4core5slice4iter4IterNtNtCs5UlKWfykTNt_17build_script_main2op2OpENtNtNtNtBa_4iter6traits8iterator8Iterator6filterNCNvBL_14write_op_macro0EBN_, symObjAddr: 0x12C4, symBinAddr: 0x100004DF8, symSize: 0x1C }
  - { offset: 0x36B6, size: 0x8, addend: 0x0, symName: __RINvYINtNtNtCs9f3LFPSIp77_4core5slice4iter4IterNtNtCs5UlKWfykTNt_17build_script_main2op2OpENtNtNtNtBa_4iter6traits8iterator8Iterator6filterNCNvBL_14write_op_macros0_0EBN_, symObjAddr: 0x12E0, symBinAddr: 0x100004E14, symSize: 0x1C }
  - { offset: 0x3705, size: 0x8, addend: 0x0, symName: __RINvYINtNtNtCs9f3LFPSIp77_4core5slice4iter4IterNtNtCs5UlKWfykTNt_17build_script_main2op2OpENtNtNtNtBa_4iter6traits8iterator8Iterator6filterNCNvBL_14write_op_macros2_0EBN_, symObjAddr: 0x12FC, symBinAddr: 0x100004E30, symSize: 0x1C }
  - { offset: 0x3754, size: 0x8, addend: 0x0, symName: __RINvYINtNtNtCs9f3LFPSIp77_4core5slice4iter4IterNtNtCs5UlKWfykTNt_17build_script_main2op2OpENtNtNtNtBa_4iter6traits8iterator8Iterator6filterNCNvBL_14write_op_macros3_0EBN_, symObjAddr: 0x1318, symBinAddr: 0x100004E4C, symSize: 0x1C }
  - { offset: 0x37A3, size: 0x8, addend: 0x0, symName: __RINvYINtNtNtCs9f3LFPSIp77_4core5slice4iter4IterNtNtCs5UlKWfykTNt_17build_script_main2op2OpENtNtNtNtBa_4iter6traits8iterator8Iterator6filterNCNvBL_14write_op_macros4_0EBN_, symObjAddr: 0x1334, symBinAddr: 0x100004E68, symSize: 0x1C }
  - { offset: 0x37F2, size: 0x8, addend: 0x0, symName: __RINvYINtNtNtCs9f3LFPSIp77_4core5slice4iter4IterNtNtCs5UlKWfykTNt_17build_script_main2op2OpENtNtNtNtBa_4iter6traits8iterator8Iterator6filterNCNvBL_14write_op_macros_0EBN_, symObjAddr: 0x1350, symBinAddr: 0x100004E84, symSize: 0x1C }
  - { offset: 0x3841, size: 0x8, addend: 0x0, symName: __RINvYINtNtNtCs9f3LFPSIp77_4core5slice4iter4IterNtNtCs5UlKWfykTNt_17build_script_main2op2OpENtNtNtNtBa_4iter6traits8iterator8Iterator8try_folduNCINvNtNtB1x_8adapters6filter15filter_try_foldRBJ_uINtNtNtBa_3ops12control_flow11ControlFlowB30_ENCNvBL_14write_op_macros0_0NCINvNvB1r_4find5checkB30_QNCB3R_s1_0E0E0B35_EBN_, symObjAddr: 0x136C, symBinAddr: 0x100004EA0, symSize: 0x148 }
  - { offset: 0x38FB, size: 0x8, addend: 0x0, symName: __RINvYINtNtNtCs9f3LFPSIp77_4core5slice4iter4IterNtNtCsdze8u8oDPro_5alloc6string6StringENtNtNtNtBa_4iter6traits8iterator8Iterator8try_foldjNCINvNtNtB1s_8adapters3map12map_try_foldRBJ_jjINtNtBa_6option6OptionjENCNCINvNtBN_3str17join_generic_copyehBJ_E00NvMs9_NtBa_3numj11checked_addE0B2V_ECs5UlKWfykTNt_17build_script_main, symObjAddr: 0x14B4, symBinAddr: 0x100004FE8, symSize: 0x180 }
  - { offset: 0x39B6, size: 0x8, addend: 0x0, symName: __RNvYINtNtNtCs9f3LFPSIp77_4core3ops5range5RangexENtNtNtNtB9_4iter6traits8iterator8Iterator5cycleCs5UlKWfykTNt_17build_script_main, symObjAddr: 0x2358, symBinAddr: 0x100005E8C, symSize: 0x24 }
  - { offset: 0x39ED, size: 0x8, addend: 0x0, symName: __RNvYINtNtNtCs9f3LFPSIp77_4core3ops5range5RangeyENtNtNtNtB9_4iter6traits8iterator8Iterator5cycleCs5UlKWfykTNt_17build_script_main, symObjAddr: 0x237C, symBinAddr: 0x100005EB0, symSize: 0x24 }
  - { offset: 0x3A6E, size: 0x8, addend: 0x0, symName: __RNvXs_NtNtNtCs9f3LFPSIp77_4core4iter6traits7collectINtNtNtBa_3ops5range5RangexENtB4_12IntoIterator9into_iterCs5UlKWfykTNt_17build_script_main, symObjAddr: 0x22F4, symBinAddr: 0x100005E28, symSize: 0x14 }
  - { offset: 0x3AA5, size: 0x8, addend: 0x0, symName: __RNvXs_NtNtNtCs9f3LFPSIp77_4core4iter6traits7collectINtNtNtBa_3ops5range5RangeyENtB4_12IntoIterator9into_iterCs5UlKWfykTNt_17build_script_main, symObjAddr: 0x2308, symBinAddr: 0x100005E3C, symSize: 0x14 }
  - { offset: 0x3ADC, size: 0x8, addend: 0x0, symName: __RNvXs_NtNtNtCs9f3LFPSIp77_4core4iter6traits7collectINtNtNtBa_5slice4iter4IterNtNtCs5UlKWfykTNt_17build_script_main2op2OpENtB4_12IntoIterator9into_iterB1h_, symObjAddr: 0x231C, symBinAddr: 0x100005E50, symSize: 0x1C }
  - { offset: 0x421C, size: 0x8, addend: 0x0, symName: __RNvXs3_NtNtCs9f3LFPSIp77_4core4iter5rangeINtNtNtB9_3ops5range5RangemENtB5_17RangeIteratorImpl9spec_nextCs5UlKWfykTNt_17build_script_main, symObjAddr: 0x1E28, symBinAddr: 0x10000595C, symSize: 0x90 }
  - { offset: 0x4296, size: 0x8, addend: 0x0, symName: __RNvXs3_NtNtCs9f3LFPSIp77_4core4iter5rangeINtNtNtB9_3ops5range5RangexENtB5_17RangeIteratorImpl9spec_nextCs5UlKWfykTNt_17build_script_main, symObjAddr: 0x1EB8, symBinAddr: 0x1000059EC, symSize: 0x94 }
  - { offset: 0x4311, size: 0x8, addend: 0x0, symName: __RNvXs3_NtNtCs9f3LFPSIp77_4core4iter5rangeINtNtNtB9_3ops5range5RangeyENtB5_17RangeIteratorImpl9spec_nextCs5UlKWfykTNt_17build_script_main, symObjAddr: 0x1F4C, symBinAddr: 0x100005A80, symSize: 0x94 }
  - { offset: 0x4392, size: 0x8, addend: 0x0, symName: __RNvXs4_NtNtCs9f3LFPSIp77_4core4iter5rangeINtNtNtB9_3ops5range5RangemENtNtNtB7_6traits8iterator8Iterator4nextCs5UlKWfykTNt_17build_script_main, symObjAddr: 0x1FF8, symBinAddr: 0x100005B2C, symSize: 0x24 }
  - { offset: 0x43C9, size: 0x8, addend: 0x0, symName: __RNvXs4_NtNtCs9f3LFPSIp77_4core4iter5rangeINtNtNtB9_3ops5range5RangexENtNtNtB7_6traits8iterator8Iterator4nextCs5UlKWfykTNt_17build_script_main, symObjAddr: 0x201C, symBinAddr: 0x100005B50, symSize: 0x24 }
  - { offset: 0x4400, size: 0x8, addend: 0x0, symName: __RNvXs4_NtNtCs9f3LFPSIp77_4core4iter5rangeINtNtNtB9_3ops5range5RangeyENtNtNtB7_6traits8iterator8Iterator4nextCs5UlKWfykTNt_17build_script_main, symObjAddr: 0x2040, symBinAddr: 0x100005B74, symSize: 0x24 }
  - { offset: 0x443D, size: 0x8, addend: 0x0, symName: __RNvXsB_NtNtCs9f3LFPSIp77_4core4iter5rangemNtB5_4Step17forward_uncheckedCs5UlKWfykTNt_17build_script_main, symObjAddr: 0x2174, symBinAddr: 0x100005CA8, symSize: 0x54 }
  - { offset: 0x44A2, size: 0x8, addend: 0x0, symName: __RNvXsD_NtNtCs9f3LFPSIp77_4core4iter5rangeyNtB5_4Step17forward_uncheckedCs5UlKWfykTNt_17build_script_main, symObjAddr: 0x21C8, symBinAddr: 0x100005CFC, symSize: 0x4C }
  - { offset: 0x4507, size: 0x8, addend: 0x0, symName: __RNvXsE_NtNtCs9f3LFPSIp77_4core4iter5rangexNtB5_4Step17forward_uncheckedCs5UlKWfykTNt_17build_script_main, symObjAddr: 0x2214, symBinAddr: 0x100005D48, symSize: 0xA4 }
  - { offset: 0x46F6, size: 0x8, addend: 0x0, symName: __RNvXsA_NtNtCs9f3LFPSIp77_4core3ops5rangeINtB5_5RangexENtNtB9_5clone5Clone5cloneCs5UlKWfykTNt_17build_script_main, symObjAddr: 0x20F4, symBinAddr: 0x100005C28, symSize: 0x40 }
  - { offset: 0x4765, size: 0x8, addend: 0x0, symName: __RNvXsA_NtNtCs9f3LFPSIp77_4core3ops5rangeINtB5_5RangeyENtNtB9_5clone5Clone5cloneCs5UlKWfykTNt_17build_script_main, symObjAddr: 0x2134, symBinAddr: 0x100005C68, symSize: 0x40 }
  - { offset: 0x47E8, size: 0x8, addend: 0x0, symName: __RNSNvYNCINvNtCs27l1GJC5rMQ_3std2rt10lang_startuE0INtNtNtCs9f3LFPSIp77_4core3ops8function6FnOnceuE9call_once6vtableCs5UlKWfykTNt_17build_script_main, symObjAddr: 0x1634, symBinAddr: 0x100005168, symSize: 0x28 }
  - { offset: 0x482C, size: 0x8, addend: 0x0, symName: __RNvYFEuINtNtNtCs9f3LFPSIp77_4core3ops8function6FnOnceuE9call_onceCs5UlKWfykTNt_17build_script_main, symObjAddr: 0x2338, symBinAddr: 0x100005E6C, symSize: 0x20 }
  - { offset: 0x486C, size: 0x8, addend: 0x0, symName: __RNvYNCINvNtCs27l1GJC5rMQ_3std2rt10lang_startuE0INtNtNtCs9f3LFPSIp77_4core3ops8function6FnOnceuE9call_onceCs5UlKWfykTNt_17build_script_main, symObjAddr: 0x23A0, symBinAddr: 0x100005ED4, symSize: 0x4C }
  - { offset: 0x48B0, size: 0x8, addend: 0x0, symName: __RNvYNvYINtNtNtCs9f3LFPSIp77_4core3ops5range5RangeyENtNtNtNtBc_4iter6traits8iterator8Iterator4nextINtNtBa_8function6FnOnceTQB5_EE9call_onceCs5UlKWfykTNt_17build_script_main, symObjAddr: 0x2504, symBinAddr: 0x100006038, symSize: 0x24 }
  - { offset: 0x48F4, size: 0x8, addend: 0x0, symName: __RNvYNvYINtNtNtNtCs9f3LFPSIp77_4core4iter8adapters3zip3ZipINtNtBa_5cycle5CycleINtNtNtBe_3ops5range5RangexEEB1d_ENtNtNtBc_6traits8iterator8Iterator4nextINtNtB1i_8function6FnOnceTQB5_EE9call_onceCs5UlKWfykTNt_17build_script_main, symObjAddr: 0x2528, symBinAddr: 0x10000605C, symSize: 0x24 }
  - { offset: 0x4938, size: 0x8, addend: 0x0, symName: __RNvYNvYINtNtNtNtCs9f3LFPSIp77_4core4iter8adapters3zip3ZipINtNtBa_5cycle5CycleINtNtNtBe_3ops5range5RangeyEEB1d_ENtNtNtBc_6traits8iterator8Iterator4nextINtNtB1i_8function6FnOnceTQB5_EE9call_onceCs5UlKWfykTNt_17build_script_main, symObjAddr: 0x254C, symBinAddr: 0x100006080, symSize: 0x24 }
  - { offset: 0x497C, size: 0x8, addend: 0x0, symName: __RNvYNvYINtNtNtNtCs9f3LFPSIp77_4core4iter8adapters5chain5ChainINtNtNtBe_3ops5range5RangeyEINtNtBa_3map3MapIBY_mENCNvCs5UlKWfykTNt_17build_script_main5uints0EENtNtNtBc_6traits8iterator8Iterator4nextINtNtB12_8function6FnOnceTQB5_EE9call_onceB1P_, symObjAddr: 0x2570, symBinAddr: 0x1000060A4, symSize: 0x24 }
  - { offset: 0x49C0, size: 0x8, addend: 0x0, symName: __RNvYNvYeNtNtCsdze8u8oDPro_5alloc6borrow7ToOwned8to_ownedINtNtNtCs9f3LFPSIp77_4core3ops8function6FnOnceTReEE9call_onceCs5UlKWfykTNt_17build_script_main, symObjAddr: 0x2594, symBinAddr: 0x1000060C8, symSize: 0x2C }
  - { offset: 0x4A04, size: 0x8, addend: 0x0, symName: __RNvYNvYxNtNtCs9f3LFPSIp77_4core3cmp3Ord3cmpINtNtNtBa_3ops8function6FnOnceTRxB1a_EE9call_onceCs5UlKWfykTNt_17build_script_main, symObjAddr: 0x25C0, symBinAddr: 0x1000060F4, symSize: 0x2C }
  - { offset: 0x4A48, size: 0x8, addend: 0x0, symName: __RNvYNvYyNtNtCs9f3LFPSIp77_4core3cmp3Ord3cmpINtNtNtBa_3ops8function6FnOnceTRyB1a_EE9call_onceCs5UlKWfykTNt_17build_script_main, symObjAddr: 0x25EC, symBinAddr: 0x100006120, symSize: 0x2C }
  - { offset: 0x4A97, size: 0x8, addend: 0x0, symName: __RNvXs1_NtNtNtCs9f3LFPSIp77_4core3ops8function5implsQNCNvNtCs5UlKWfykTNt_17build_script_main2op14write_op_macro0INtB7_5FnMutTRRNtBS_2OpEE8call_mutBU_, symObjAddr: 0x1A20, symBinAddr: 0x100005554, symSize: 0x30 }
  - { offset: 0x4AE6, size: 0x8, addend: 0x0, symName: __RNvXs1_NtNtNtCs9f3LFPSIp77_4core3ops8function5implsQNCNvNtCs5UlKWfykTNt_17build_script_main2op14write_op_macros1_0INtB7_5FnMutTRRNtBS_2OpEE8call_mutBU_, symObjAddr: 0x1A50, symBinAddr: 0x100005584, symSize: 0x30 }
  - { offset: 0x4B35, size: 0x8, addend: 0x0, symName: __RNvXs1_NtNtNtCs9f3LFPSIp77_4core3ops8function5implsQNCNvNtCs5UlKWfykTNt_17build_script_main2op14write_op_macros2_0INtB7_5FnMutTRRNtBS_2OpEE8call_mutBU_, symObjAddr: 0x1A80, symBinAddr: 0x1000055B4, symSize: 0x30 }
  - { offset: 0x4B84, size: 0x8, addend: 0x0, symName: __RNvXs1_NtNtNtCs9f3LFPSIp77_4core3ops8function5implsQNCNvNtCs5UlKWfykTNt_17build_script_main2op14write_op_macros3_0INtB7_5FnMutTRRNtBS_2OpEE8call_mutBU_, symObjAddr: 0x1AB0, symBinAddr: 0x1000055E4, symSize: 0x30 }
  - { offset: 0x4BD3, size: 0x8, addend: 0x0, symName: __RNvXs1_NtNtNtCs9f3LFPSIp77_4core3ops8function5implsQNCNvNtCs5UlKWfykTNt_17build_script_main2op14write_op_macros4_0INtB7_5FnMutTRRNtBS_2OpEE8call_mutBU_, symObjAddr: 0x1AE0, symBinAddr: 0x100005614, symSize: 0x30 }
  - { offset: 0x4C22, size: 0x8, addend: 0x0, symName: __RNvXs1_NtNtNtCs9f3LFPSIp77_4core3ops8function5implsQNCNvNtCs5UlKWfykTNt_17build_script_main2op14write_op_macros_0INtB7_5FnMutTRRNtBS_2OpEE8call_mutBU_, symObjAddr: 0x1B10, symBinAddr: 0x100005644, symSize: 0x30 }
  - { offset: 0x4C77, size: 0x8, addend: 0x0, symName: __RNvXs2_NtNtNtCs9f3LFPSIp77_4core3ops8function5implsQNCNvCs5UlKWfykTNt_17build_script_main5uints0INtB7_6FnOnceTmEE9call_onceBS_, symObjAddr: 0x1DD0, symBinAddr: 0x100005904, symSize: 0x2C }
  - { offset: 0x4CC6, size: 0x8, addend: 0x0, symName: __RNvXs2_NtNtNtCs9f3LFPSIp77_4core3ops8function5implsQNCNvCs5UlKWfykTNt_17build_script_main5uintss_0INtB7_6FnOnceTmEE9call_onceBS_, symObjAddr: 0x1DFC, symBinAddr: 0x100005930, symSize: 0x2C }
  - { offset: 0x4D1C, size: 0x8, addend: 0x0, symName: __RNvYNvMs9_NtCs9f3LFPSIp77_4core3numj11checked_addINtNtNtBa_3ops8function5FnMutTjjEE8call_mutCs5UlKWfykTNt_17build_script_main, symObjAddr: 0x24D4, symBinAddr: 0x100006008, symSize: 0x30 }
  - { offset: 0x4E6A, size: 0x8, addend: 0x0, symName: __RNvXs4_NtNtCs9f3LFPSIp77_4core3str6traitsNtNtNtB9_3ops5range9RangeFullINtNtNtB9_5slice5index10SliceIndexeE5indexCs5UlKWfykTNt_17build_script_main, symObjAddr: 0x1FE0, symBinAddr: 0x100005B14, symSize: 0x18 }
  - { offset: 0x4F09, size: 0x8, addend: 0x0, symName: __RNvYNtNtCs5UlKWfykTNt_17build_script_main2op6OpTypeNtNtCs9f3LFPSIp77_4core5clone5Clone10clone_fromB6_, symObjAddr: 0x241C, symBinAddr: 0x100005F50, symSize: 0x48 }
  - { offset: 0x4FC6, size: 0x8, addend: 0x0, symName: __RNvYNtNtNtCs27l1GJC5rMQ_3std2io5error5ErrorNtNtCs9f3LFPSIp77_4core5error5Error7provideCs5UlKWfykTNt_17build_script_main, symObjAddr: 0x2464, symBinAddr: 0x100005F98, symSize: 0x18 }
  - { offset: 0x5005, size: 0x8, addend: 0x0, symName: __RNvYNtNtNtCs27l1GJC5rMQ_3std2io5error5ErrorNtNtCs9f3LFPSIp77_4core5error5Error7type_idCs5UlKWfykTNt_17build_script_main, symObjAddr: 0x247C, symBinAddr: 0x100005FB0, symSize: 0x58 }
  - { offset: 0x545A, size: 0x8, addend: 0x0, symName: __RNvNtCs5UlKWfykTNt_17build_script_main2op14write_op_macro, symObjAddr: 0x2618, symBinAddr: 0x10000614C, symSize: 0x222C }
  - { offset: 0x61B5, size: 0x8, addend: 0x0, symName: __RNCNvNtCs5UlKWfykTNt_17build_script_main2op14write_op_macro0B5_, symObjAddr: 0x4844, symBinAddr: 0x100008378, symSize: 0x48 }
  - { offset: 0x61EE, size: 0x8, addend: 0x0, symName: __RNCNvNtCs5UlKWfykTNt_17build_script_main2op14write_op_macros_0B5_, symObjAddr: 0x488C, symBinAddr: 0x1000083C0, symSize: 0x48 }
  - { offset: 0x6227, size: 0x8, addend: 0x0, symName: __RNCNvNtCs5UlKWfykTNt_17build_script_main2op14write_op_macros0_0B5_, symObjAddr: 0x48D4, symBinAddr: 0x100008408, symSize: 0x48 }
  - { offset: 0x6260, size: 0x8, addend: 0x0, symName: __RNCNvNtCs5UlKWfykTNt_17build_script_main2op14write_op_macros1_0B5_, symObjAddr: 0x491C, symBinAddr: 0x100008450, symSize: 0x48 }
  - { offset: 0x62A0, size: 0x8, addend: 0x0, symName: __RNCNvNtCs5UlKWfykTNt_17build_script_main2op14write_op_macros2_0B5_, symObjAddr: 0x4964, symBinAddr: 0x100008498, symSize: 0x48 }
  - { offset: 0x62D9, size: 0x8, addend: 0x0, symName: __RNCNvNtCs5UlKWfykTNt_17build_script_main2op14write_op_macros3_0B5_, symObjAddr: 0x49AC, symBinAddr: 0x1000084E0, symSize: 0x38 }
  - { offset: 0x6312, size: 0x8, addend: 0x0, symName: __RNCNvNtCs5UlKWfykTNt_17build_script_main2op14write_op_macros4_0B5_, symObjAddr: 0x49E4, symBinAddr: 0x100008518, symSize: 0x38 }
  - { offset: 0x634B, size: 0x8, addend: 0x0, symName: __RNCNvNtCs5UlKWfykTNt_17build_script_main2op14write_op_macros5_0B5_, symObjAddr: 0x6124, symBinAddr: 0x100009C58, symSize: 0xA8 }
  - { offset: 0x644C, size: 0x8, addend: 0x0, symName: __RNvXNtCs5UlKWfykTNt_17build_script_main2opNtB2_6OpTypeNtNtCs9f3LFPSIp77_4core3fmt5Debug3fmtB4_, symObjAddr: 0x6048, symBinAddr: 0x100009B7C, symSize: 0x74 }
  - { offset: 0x648C, size: 0x8, addend: 0x0, symName: __RNvXs0_NtCs5UlKWfykTNt_17build_script_main2opNtB5_6OpTypeNtNtCs9f3LFPSIp77_4core5clone5Clone5cloneB7_, symObjAddr: 0x60BC, symBinAddr: 0x100009BF0, symSize: 0x1C }
  - { offset: 0x64BE, size: 0x8, addend: 0x0, symName: __RNvXs1_NtCs5UlKWfykTNt_17build_script_main2opNtB5_6OpTypeNtNtCs9f3LFPSIp77_4core3cmp2Eq27assert_receiver_is_total_eqB7_, symObjAddr: 0x60D8, symBinAddr: 0x100009C0C, symSize: 0x10 }
  - { offset: 0x64EC, size: 0x8, addend: 0x0, symName: __RNvXs3_NtCs5UlKWfykTNt_17build_script_main2opNtB5_6OpTypeNtNtCs9f3LFPSIp77_4core3cmp9PartialEq2eqB7_, symObjAddr: 0x60E8, symBinAddr: 0x100009C1C, symSize: 0x3C }
  - { offset: 0x65A0, size: 0x8, addend: 0x0, symName: __RNCNvCs5UlKWfykTNt_17build_script_main5uints0B3_, symObjAddr: 0x52A0, symBinAddr: 0x100008DD4, symSize: 0x3C }
  - { offset: 0x65D6, size: 0x8, addend: 0x0, symName: __RNCNvCs5UlKWfykTNt_17build_script_main5uintss_0B3_, symObjAddr: 0x52DC, symBinAddr: 0x100008E10, symSize: 0x3C }
  - { offset: 0x668B, size: 0x8, addend: 0x0, symName: __RNvXCs5UlKWfykTNt_17build_script_mainNtB2_8UIntCodeNtNtCs9f3LFPSIp77_4core3fmt7Display3fmt, symObjAddr: 0x4A1C, symBinAddr: 0x100008550, symSize: 0x1B8 }
  - { offset: 0x67C3, size: 0x8, addend: 0x0, symName: __RNvXs_Cs5UlKWfykTNt_17build_script_mainNtB4_7IntCodeNtNtCs9f3LFPSIp77_4core3fmt7Display3fmt, symObjAddr: 0x4BD4, symBinAddr: 0x100008708, symSize: 0x1B8 }
  - { offset: 0x68F6, size: 0x8, addend: 0x0, symName: __RNvCs5UlKWfykTNt_17build_script_main8gen_uint, symObjAddr: 0x4D8C, symBinAddr: 0x1000088C0, symSize: 0x294 }
  - { offset: 0x6988, size: 0x8, addend: 0x0, symName: __RNvCs5UlKWfykTNt_17build_script_main7gen_int, symObjAddr: 0x5020, symBinAddr: 0x100008B54, symSize: 0x1A8 }
  - { offset: 0x69EE, size: 0x8, addend: 0x0, symName: __RNvCs5UlKWfykTNt_17build_script_main6no_std, symObjAddr: 0x51C8, symBinAddr: 0x100008CFC, symSize: 0x14 }
  - { offset: 0x6A07, size: 0x8, addend: 0x0, symName: __RNvCs5UlKWfykTNt_17build_script_main25force_unix_path_separator, symObjAddr: 0x51DC, symBinAddr: 0x100008D10, symSize: 0x14 }
  - { offset: 0x6A20, size: 0x8, addend: 0x0, symName: __RNvCs5UlKWfykTNt_17build_script_main5uints, symObjAddr: 0x51F0, symBinAddr: 0x100008D24, symSize: 0xB0 }
  - { offset: 0x6A66, size: 0x8, addend: 0x0, symName: __RNvCs5UlKWfykTNt_17build_script_main4main, symObjAddr: 0x5318, symBinAddr: 0x100008E4C, symSize: 0xD30 }
  - { offset: 0x7217, size: 0x8, addend: 0x0, symName: __RINvMs0_NtCs9f3LFPSIp77_4core3fmtNtB6_9Arguments6new_v1Kj1_KBS_ECs5UlKWfykTNt_17build_script_main, symObjAddr: 0x0, symBinAddr: 0x100003B34, symSize: 0x50 }
  - { offset: 0x7263, size: 0x8, addend: 0x0, symName: __RINvMs0_NtCs9f3LFPSIp77_4core3fmtNtB6_9Arguments6new_v1Kj2_Kj1_ECs5UlKWfykTNt_17build_script_main, symObjAddr: 0x50, symBinAddr: 0x100003B84, symSize: 0x54 }
  - { offset: 0x72C9, size: 0x8, addend: 0x0, symName: __RINvMs0_NtCs9f3LFPSIp77_4core3fmtNtB6_9Arguments6new_v1Kj3_Kj2_ECs5UlKWfykTNt_17build_script_main, symObjAddr: 0xA4, symBinAddr: 0x100003BD8, symSize: 0x54 }
  - { offset: 0x732F, size: 0x8, addend: 0x0, symName: __RINvMs0_NtCs9f3LFPSIp77_4core3fmtNtB6_9Arguments6new_v1Kj5_Kj4_ECs5UlKWfykTNt_17build_script_main, symObjAddr: 0xF8, symBinAddr: 0x100003C2C, symSize: 0x54 }
  - { offset: 0x7361, size: 0x8, addend: 0x0, symName: __RINvMs0_NtCs9f3LFPSIp77_4core3fmtNtB6_9Arguments9new_constKj1_ECs5UlKWfykTNt_17build_script_main, symObjAddr: 0x14C, symBinAddr: 0x100003C80, symSize: 0x48 }
  - { offset: 0x75CD, size: 0x8, addend: 0x0, symName: __RNvMs0_NtCs9f3LFPSIp77_4core3fmtNtB5_9Arguments16new_v1_formattedCs5UlKWfykTNt_17build_script_main, symObjAddr: 0x1684, symBinAddr: 0x1000051B8, symSize: 0x58 }
  - { offset: 0x76BD, size: 0x8, addend: 0x0, symName: __RNvMs4_NtNtCs9f3LFPSIp77_4core5slice4iterINtB5_4IterNtNtCs5UlKWfykTNt_17build_script_main2op2OpE3newBS_, symObjAddr: 0x16DC, symBinAddr: 0x100005210, symSize: 0x58 }
  - { offset: 0x7845, size: 0x8, addend: 0x0, symName: __RNvMs7_NtCs9f3LFPSIp77_4core3fmtNtB5_9Formatter9write_fmtCs5UlKWfykTNt_17build_script_main, symObjAddr: 0x1734, symBinAddr: 0x100005268, symSize: 0x1AC }
  - { offset: 0x8720, size: 0x8, addend: 0x0, symName: __RINvMsZ_NtCs27l1GJC5rMQ_3std4pathNtB6_4Path3newNtNtCsdze8u8oDPro_5alloc6string6StringECs5UlKWfykTNt_17build_script_main, symObjAddr: 0x0, symBinAddr: 0x100009D38, symSize: 0x24 }
  - { offset: 0x892E, size: 0x8, addend: 0x0, symName: __RINvNtNtCs27l1GJC5rMQ_3std3sys9backtrace28___rust_begin_short_backtraceFEuuECs5UlKWfykTNt_17build_script_main, symObjAddr: 0x258, symBinAddr: 0x100009F90, symSize: 0x24 }
  - { offset: 0x8DA2, size: 0x8, addend: 0x0, symName: __RNvYNtNtNtNtNtCs27l1GJC5rMQ_3std3sys3pal4unix5stdio6StderrNtNtBc_2io5Write9write_allCs5UlKWfykTNt_17build_script_main, symObjAddr: 0x2C2C, symBinAddr: 0x10000C964, symSize: 0x288 }
  - { offset: 0x8F94, size: 0x8, addend: 0x0, symName: __RNvYNtNtNtNtNtCs27l1GJC5rMQ_3std3sys3pal4unix5stdio6StderrNtNtBc_2io5Write9write_fmtCs5UlKWfykTNt_17build_script_main, symObjAddr: 0x2EB4, symBinAddr: 0x10000CBEC, symSize: 0x128 }
  - { offset: 0x90F9, size: 0x8, addend: 0x0, symName: __RNvXs1a_NtCs27l1GJC5rMQ_3std4pathNtB6_4PathINtNtCs9f3LFPSIp77_4core7convert5AsRefBv_E6as_refCs5UlKWfykTNt_17build_script_main, symObjAddr: 0x1DE0, symBinAddr: 0x10000BB18, symSize: 0x18 }
  - { offset: 0x912D, size: 0x8, addend: 0x0, symName: __RNvXs1e_NtCs27l1GJC5rMQ_3std4patheINtNtCs9f3LFPSIp77_4core7convert5AsRefNtB6_4PathE6as_refCs5UlKWfykTNt_17build_script_main, symObjAddr: 0x1DF8, symBinAddr: 0x10000BB30, symSize: 0x30 }
  - { offset: 0x921B, size: 0x8, addend: 0x0, symName: __RNvXs1g_NtCs27l1GJC5rMQ_3std4pathNtB6_7PathBufINtNtCs9f3LFPSIp77_4core7convert5AsRefNtB6_4PathE6as_refCs5UlKWfykTNt_17build_script_main, symObjAddr: 0x1E28, symBinAddr: 0x10000BB60, symSize: 0x34 }
  - { offset: 0x95CC, size: 0x8, addend: 0x0, symName: __RNCINvMsi_NtCsdze8u8oDPro_5alloc3vecINtB8_3VecNtNtBa_6string6StringE14extend_trustedINtNtNtNtCs9f3LFPSIp77_4core4iter8adapters3map3MapINtNtNtB1t_5slice4iter4IterNtNtCs5UlKWfykTNt_17build_script_main2op2OpENCNvB2B_14write_op_macros5_0EE0B2D_, symObjAddr: 0x8C0, symBinAddr: 0x10000A5F8, symSize: 0x6C }
  - { offset: 0x96C4, size: 0x8, addend: 0x0, symName: __RINvXsd_NtCsdze8u8oDPro_5alloc3vecINtB6_3VecNtNtB8_6string6StringEINtNtNtNtCs9f3LFPSIp77_4core4iter6traits7collect12FromIteratorBG_E9from_iterINtNtNtB19_8adapters3map3MapINtNtNtB1b_5slice4iter4IterNtNtCs5UlKWfykTNt_17build_script_main2op2OpENCNvB3b_14write_op_macros5_0EEB3d_, symObjAddr: 0x5F0, symBinAddr: 0x10000A328, symSize: 0x38 }
  - { offset: 0x970F, size: 0x8, addend: 0x0, symName: __RNvXNtNtCsdze8u8oDPro_5alloc3vec14spec_from_iterINtB4_3VecNtNtB6_6string6StringEINtB2_12SpecFromIterBU_INtNtNtNtCs9f3LFPSIp77_4core4iter8adapters3map3MapINtNtNtB1M_5slice4iter4IterNtNtCs5UlKWfykTNt_17build_script_main2op2OpENCNvB2U_14write_op_macros5_0EE9from_iterB2W_, symObjAddr: 0x1B20, symBinAddr: 0x10000B858, symSize: 0x2C }
  - { offset: 0x9754, size: 0x8, addend: 0x0, symName: __RNvXs6_NtCsdze8u8oDPro_5alloc3vecINtB5_3VecNtNtB7_6string6StringENtNtNtCs9f3LFPSIp77_4core3ops5deref5Deref5derefCs5UlKWfykTNt_17build_script_main, symObjAddr: 0x1F84, symBinAddr: 0x10000BCBC, symSize: 0x24 }
  - { offset: 0x979F, size: 0x8, addend: 0x0, symName: __RNvXs_NtNtCsdze8u8oDPro_5alloc3vec11spec_extendINtB6_3VecNtNtB8_6string6StringEINtB4_10SpecExtendBT_INtNtNtNtCs9f3LFPSIp77_4core4iter8adapters3map3MapINtNtNtB1J_5slice4iter4IterNtNtCs5UlKWfykTNt_17build_script_main2op2OpENCNvB2R_14write_op_macros5_0EE11spec_extendB2T_, symObjAddr: 0x22F8, symBinAddr: 0x10000C030, symSize: 0x34 }
  - { offset: 0x97FC, size: 0x8, addend: 0x0, symName: __RNvXs_NtNtCsdze8u8oDPro_5alloc3vec21spec_from_iter_nestedINtB6_3VecNtNtB8_6string6StringEINtB4_18SpecFromIterNestedB13_INtNtNtNtCs9f3LFPSIp77_4core4iter8adapters3map3MapINtNtNtB22_5slice4iter4IterNtNtCs5UlKWfykTNt_17build_script_main2op2OpENCNvB3a_14write_op_macros5_0EE9from_iterB3c_, symObjAddr: 0x232C, symBinAddr: 0x10000C064, symSize: 0x160 }
  - { offset: 0x98D9, size: 0x8, addend: 0x0, symName: __RNvXsn_NtCsdze8u8oDPro_5alloc3vecINtB5_3VecNtNtB7_6string6StringENtNtNtCs9f3LFPSIp77_4core3ops4drop4Drop4dropCs5UlKWfykTNt_17build_script_main, symObjAddr: 0x2768, symBinAddr: 0x10000C4A0, symSize: 0x50 }
  - { offset: 0x9CC8, size: 0x8, addend: 0x0, symName: __RNvXs2_NtCsdze8u8oDPro_5alloc7raw_vecINtB5_6RawVecNtNtB7_6string6StringENtNtNtCs9f3LFPSIp77_4core3ops4drop4Drop4dropCs5UlKWfykTNt_17build_script_main, symObjAddr: 0x1F50, symBinAddr: 0x10000BC88, symSize: 0x34 }
  - { offset: 0x9D7B, size: 0x8, addend: 0x0, symName: __RNvXs1i_NtCsdze8u8oDPro_5alloc5boxedINtB6_3BoxDNtNtCs9f3LFPSIp77_4core5error5ErrorEL_EINtNtBN_7convert4FromNtNtCs27l1GJC5rMQ_3std3env8VarErrorE4fromCs5UlKWfykTNt_17build_script_main, symObjAddr: 0x1E5C, symBinAddr: 0x10000BB94, symSize: 0x80 }
  - { offset: 0x9DD2, size: 0x8, addend: 0x0, symName: __RNvXs1i_NtCsdze8u8oDPro_5alloc5boxedINtB6_3BoxDNtNtCs9f3LFPSIp77_4core5error5ErrorEL_EINtNtBN_7convert4FromNtNtNtCs27l1GJC5rMQ_3std2io5error5ErrorE4fromCs5UlKWfykTNt_17build_script_main, symObjAddr: 0x1EDC, symBinAddr: 0x10000BC14, symSize: 0x74 }
  - { offset: 0x9E2D, size: 0x8, addend: 0x0, symName: __RNvXs6_NtCsdze8u8oDPro_5alloc5boxedINtB5_3BoxDNtNtCs9f3LFPSIp77_4core5error5ErrorEL_ENtNtNtBM_3ops4drop4Drop4dropCs5UlKWfykTNt_17build_script_main, symObjAddr: 0x1FA8, symBinAddr: 0x10000BCE0, symSize: 0xC4 }
  - { offset: 0x9FAB, size: 0x8, addend: 0x0, symName: __RNvXs6_NtCsdze8u8oDPro_5alloc5boxedINtB5_3BoxDNtNtCs9f3LFPSIp77_4core5error5ErrorNtNtBM_6marker4SendNtB1j_4SyncEL_ENtNtNtBM_3ops4drop4Drop4dropCs5UlKWfykTNt_17build_script_main, symObjAddr: 0x206C, symBinAddr: 0x10000BDA4, symSize: 0xC4 }
  - { offset: 0xA129, size: 0x8, addend: 0x0, symName: __RNvXs6_NtCsdze8u8oDPro_5alloc5boxedINtB5_3BoxNtCs5UlKWfykTNt_17build_script_main8UIntCodeENtNtNtCs9f3LFPSIp77_4core3ops4drop4Drop4dropBJ_, symObjAddr: 0x2130, symBinAddr: 0x10000BE68, symSize: 0xB0 }
  - { offset: 0xA2A7, size: 0x8, addend: 0x0, symName: __RNvXs6_NtCsdze8u8oDPro_5alloc5boxedINtB5_3BoxNtNtNtCs27l1GJC5rMQ_3std2io5error6CustomENtNtNtCs9f3LFPSIp77_4core3ops4drop4Drop4dropCs5UlKWfykTNt_17build_script_main, symObjAddr: 0x21E0, symBinAddr: 0x10000BF18, symSize: 0xB0 }
  - { offset: 0xA42B, size: 0x8, addend: 0x0, symName: __RNvXsx_NtCsdze8u8oDPro_5alloc5boxedINtB5_3BoxNtCs5UlKWfykTNt_17build_script_main8UIntCodeENtNtCs9f3LFPSIp77_4core3fmt7Display3fmtBJ_, symObjAddr: 0x2998, symBinAddr: 0x10000C6D0, symSize: 0x30 }
  - { offset: 0xA480, size: 0x8, addend: 0x0, symName: __RNvXsy_NtCsdze8u8oDPro_5alloc5boxedINtB5_3BoxDNtNtCs9f3LFPSIp77_4core5error5ErrorEL_ENtNtBM_3fmt5Debug3fmtCs5UlKWfykTNt_17build_script_main, symObjAddr: 0x2BF0, symBinAddr: 0x10000C928, symSize: 0x3C }
  - { offset: 0xAEA9, size: 0x8, addend: 0x0, symName: __RNvNvMNtNtCs9f3LFPSIp77_4core3ptr9const_ptrPp7sub_ptr18precondition_checkCs5UlKWfykTNt_17build_script_main, symObjAddr: 0x1440, symBinAddr: 0x10000B178, symSize: 0x40 }
  - { offset: 0xB295, size: 0x8, addend: 0x0, symName: __RNvXso_NtCs9f3LFPSIp77_4core6resultINtB5_6ResultNtNtCs27l1GJC5rMQ_3std2fs4FileNtNtNtBO_2io5error5ErrorENtNtNtB7_3ops9try_trait3Try6branchCs5UlKWfykTNt_17build_script_main, symObjAddr: 0x27B8, symBinAddr: 0x10000C4F0, symSize: 0x64 }
  - { offset: 0xB311, size: 0x8, addend: 0x0, symName: __RNvXso_NtCs9f3LFPSIp77_4core6resultINtB5_6ResultNtNtCsdze8u8oDPro_5alloc6string6StringNtNtCs27l1GJC5rMQ_3std3env8VarErrorENtNtNtB7_3ops9try_trait3Try6branchCs5UlKWfykTNt_17build_script_main, symObjAddr: 0x281C, symBinAddr: 0x10000C554, symSize: 0x94 }
  - { offset: 0xB38E, size: 0x8, addend: 0x0, symName: __RNvXso_NtCs9f3LFPSIp77_4core6resultINtB5_6ResultuNtNtNtCs27l1GJC5rMQ_3std2io5error5ErrorENtNtNtB7_3ops9try_trait3Try6branchCs5UlKWfykTNt_17build_script_main, symObjAddr: 0x28B0, symBinAddr: 0x10000C5E8, symSize: 0x48 }
  - { offset: 0xB40F, size: 0x8, addend: 0x0, symName: __RNvXsp_NtCs9f3LFPSIp77_4core6resultINtB5_6ResultuINtNtCsdze8u8oDPro_5alloc5boxed3BoxDNtNtB7_5error5ErrorEL_EEINtNtNtB7_3ops9try_trait12FromResidualIBy_NtNtB7_7convert10InfallibleNtNtCs27l1GJC5rMQ_3std3env8VarErrorEE13from_residualCs5UlKWfykTNt_17build_script_main, symObjAddr: 0x28F8, symBinAddr: 0x10000C630, symSize: 0x44 }
  - { offset: 0xB477, size: 0x8, addend: 0x0, symName: __RNvXsp_NtCs9f3LFPSIp77_4core6resultINtB5_6ResultuINtNtCsdze8u8oDPro_5alloc5boxed3BoxDNtNtB7_5error5ErrorEL_EEINtNtNtB7_3ops9try_trait12FromResidualIBy_NtNtB7_7convert10InfallibleNtNtNtCs27l1GJC5rMQ_3std2io5error5ErrorEE13from_residualCs5UlKWfykTNt_17build_script_main, symObjAddr: 0x293C, symBinAddr: 0x10000C674, symSize: 0x38 }
  - { offset: 0xB4DE, size: 0x8, addend: 0x0, symName: __RNvXsp_NtCs9f3LFPSIp77_4core6resultINtB5_6ResultuNtNtNtCs27l1GJC5rMQ_3std2io5error5ErrorEINtNtNtB7_3ops9try_trait12FromResidualIBy_NtNtB7_7convert10InfallibleBL_EE13from_residualCs5UlKWfykTNt_17build_script_main, symObjAddr: 0x2974, symBinAddr: 0x10000C6AC, symSize: 0x24 }
  - { offset: 0xB9E2, size: 0x8, addend: 0x0, symName: __RNvXsR_NtCs9f3LFPSIp77_4core3fmtRINtNtCsdze8u8oDPro_5alloc5boxed3BoxNtCs5UlKWfykTNt_17build_script_main8UIntCodeENtB5_7Display3fmtB16_, symObjAddr: 0x2290, symBinAddr: 0x10000BFC8, symSize: 0x30 }
  - { offset: 0xC81B, size: 0x8, addend: 0x0, symName: __RNCINvNtNtNtCs9f3LFPSIp77_4core4iter8adapters3map8map_foldRNtNtCs5UlKWfykTNt_17build_script_main2op2OpNtNtCsdze8u8oDPro_5alloc6string6StringuNCNvBX_14write_op_macros5_0NCINvNvNtNtNtB8_6traits8iterator8Iterator8for_each4callB1C_NCINvMsi_NtB1G_3vecINtB3M_3VecB1C_E14extend_trustedINtB4_3MapINtNtNtBa_5slice4iter4IterBV_EB2f_EE0E0E0BZ_, symObjAddr: 0x9D4, symBinAddr: 0x10000A70C, symSize: 0x8C }
  - { offset: 0xC8A5, size: 0x8, addend: 0x0, symName: __RINvXs0_NtNtNtCs9f3LFPSIp77_4core4iter8adapters3mapINtB6_3MapINtNtNtBc_5slice4iter4IterNtNtCs5UlKWfykTNt_17build_script_main2op2OpENCNvB1p_14write_op_macros5_0ENtNtNtBa_6traits8iterator8Iterator4folduNCINvNvB2y_8for_each4callNtNtCsdze8u8oDPro_5alloc6string6StringNCINvMsi_NtB3F_3vecINtB4m_3VecB3B_E14extend_trustedBN_E0E0EB1r_, symObjAddr: 0x5AC, symBinAddr: 0x10000A2E4, symSize: 0x44 }
  - { offset: 0xC93D, size: 0x8, addend: 0x0, symName: __RNvXs0_NtNtNtCs9f3LFPSIp77_4core4iter8adapters3mapINtB5_3MapINtNtNtBb_3ops5range5RangemENCNvCs5UlKWfykTNt_17build_script_main5uints0ENtNtNtB9_6traits8iterator8Iterator4nextB1s_, symObjAddr: 0x1B4C, symBinAddr: 0x10000B884, symSize: 0x7C }
  - { offset: 0xC9B7, size: 0x8, addend: 0x0, symName: __RNvXs0_NtNtNtCs9f3LFPSIp77_4core4iter8adapters3mapINtB5_3MapINtNtNtBb_3ops5range5RangemENCNvCs5UlKWfykTNt_17build_script_main5uintss_0ENtNtNtB9_6traits8iterator8Iterator4nextB1s_, symObjAddr: 0x1BC8, symBinAddr: 0x10000B900, symSize: 0x7C }
  - { offset: 0xCA31, size: 0x8, addend: 0x0, symName: __RNvXs0_NtNtNtCs9f3LFPSIp77_4core4iter8adapters3mapINtB5_3MapINtNtNtBb_3ops5range5RangexENCNvNtCs5UlKWfykTNt_17build_script_main5tests11build_testss_0ENtNtNtB9_6traits8iterator8Iterator4nextB1u_, symObjAddr: 0x1C44, symBinAddr: 0x10000B97C, symSize: 0x98 }
  - { offset: 0xCAB3, size: 0x8, addend: 0x0, symName: __RNvXs0_NtNtNtCs9f3LFPSIp77_4core4iter8adapters3mapINtB5_3MapINtNtNtBb_3ops5range5RangeyENCNvNtCs5UlKWfykTNt_17build_script_main5tests11build_tests0ENtNtNtB9_6traits8iterator8Iterator4nextB1u_, symObjAddr: 0x1CDC, symBinAddr: 0x10000BA14, symSize: 0x98 }
  - { offset: 0xCB35, size: 0x8, addend: 0x0, symName: __RNvXs0_NtNtNtCs9f3LFPSIp77_4core4iter8adapters3mapINtB5_3MapINtNtNtBb_5slice4iter4IterNtNtCs5UlKWfykTNt_17build_script_main2op2OpENCNvB1o_14write_op_macros5_0ENtNtNtB9_6traits8iterator8Iterator9size_hintB1q_, symObjAddr: 0x1D74, symBinAddr: 0x10000BAAC, symSize: 0x24 }
  - { offset: 0xCBB5, size: 0x8, addend: 0x0, symName: __RNCINvNtNtNtCs9f3LFPSIp77_4core4iter8adapters3map12map_try_foldRNtNtCsdze8u8oDPro_5alloc6string6StringjjINtNtBa_6option6OptionjENCNCINvNtB14_3str17join_generic_copyehB10_E00NvMs9_NtBa_3numj11checked_addE0Cs5UlKWfykTNt_17build_script_main, symObjAddr: 0x92C, symBinAddr: 0x10000A664, symSize: 0xA8 }
  - { offset: 0xCCE6, size: 0x8, addend: 0x0, symName: __RINvNtNtNtCs9f3LFPSIp77_4core4iter8adapters5chain17and_then_or_clearINtB2_5ChainINtNtNtB8_3ops5range5RangeyEINtNtB4_3map3MapIB1h_mENCNvCs5UlKWfykTNt_17build_script_main5uints0EEyNvYB14_NtNtNtB6_6traits8iterator8Iterator4nextEB29_, symObjAddr: 0x27C, symBinAddr: 0x100009FB4, symSize: 0xD0 }
  - { offset: 0xCE2B, size: 0x8, addend: 0x0, symName: __RINvNtNtNtCs9f3LFPSIp77_4core4iter8adapters5chain17and_then_or_clearINtNtNtB8_3ops5range5RangeyEyNvYB14_NtNtNtB6_6traits8iterator8Iterator4nextECs5UlKWfykTNt_17build_script_main, symObjAddr: 0x34C, symBinAddr: 0x10000A084, symSize: 0xC8 }
  - { offset: 0xCFD9, size: 0x8, addend: 0x0, symName: __RNCNvXs_NtNtNtCs9f3LFPSIp77_4core4iter8adapters5chainINtB6_5ChainIBQ_INtNtNtBc_3ops5range5RangeyEINtNtB8_3map3MapIB16_mENCNvCs5UlKWfykTNt_17build_script_main5uints0EEIB1y_B1N_NCB1W_s_0EENtNtNtBa_6traits8iterator8Iterator4next0B1Y_, symObjAddr: 0xA60, symBinAddr: 0x10000A798, symSize: 0x84 }
  - { offset: 0xD0AF, size: 0x8, addend: 0x0, symName: __RNCNvXs_NtNtNtCs9f3LFPSIp77_4core4iter8adapters5chainINtB6_5ChainINtNtNtBc_3ops5range5RangeyEINtNtB8_3map3MapIB12_mENCNvCs5UlKWfykTNt_17build_script_main5uints0EENtNtNtBa_6traits8iterator8Iterator4next0B1U_, symObjAddr: 0xAE4, symBinAddr: 0x10000A81C, symSize: 0x84 }
  - { offset: 0xD186, size: 0x8, addend: 0x0, symName: __RNvXs_NtNtNtCs9f3LFPSIp77_4core4iter8adapters5chainINtB4_5ChainIBO_INtNtNtBa_3ops5range5RangeyEINtNtB6_3map3MapIB14_mENCNvCs5UlKWfykTNt_17build_script_main5uints0EEIB1w_B1L_NCB1U_s_0EENtNtNtB8_6traits8iterator8Iterator4nextB1W_, symObjAddr: 0x2560, symBinAddr: 0x10000C298, symSize: 0x30 }
  - { offset: 0xD1C4, size: 0x8, addend: 0x0, symName: __RNvXs_NtNtNtCs9f3LFPSIp77_4core4iter8adapters5chainINtB4_5ChainINtNtNtBa_3ops5range5RangeyEINtNtB6_3map3MapIB10_mENCNvCs5UlKWfykTNt_17build_script_main5uints0EENtNtNtB8_6traits8iterator8Iterator4nextB1S_, symObjAddr: 0x2590, symBinAddr: 0x10000C2C8, symSize: 0x30 }
  - { offset: 0xD3AA, size: 0x8, addend: 0x0, symName: __RNvXs_NtNtNtCs9f3LFPSIp77_4core4iter8adapters5cycleINtB4_5CycleINtNtNtBa_3ops5range5RangexEENtNtNtB8_6traits8iterator8Iterator4nextCs5UlKWfykTNt_17build_script_main, symObjAddr: 0x25C0, symBinAddr: 0x10000C2F8, symSize: 0xD4 }
  - { offset: 0xD3FC, size: 0x8, addend: 0x0, symName: __RNvXs_NtNtNtCs9f3LFPSIp77_4core4iter8adapters5cycleINtB4_5CycleINtNtNtBa_3ops5range5RangeyEENtNtNtB8_6traits8iterator8Iterator4nextCs5UlKWfykTNt_17build_script_main, symObjAddr: 0x2694, symBinAddr: 0x10000C3CC, symSize: 0xD4 }
  - { offset: 0xD455, size: 0x8, addend: 0x0, symName: __RINvNtNtNtCs9f3LFPSIp77_4core4iter8adapters7flatten17and_then_or_clearINtNtB4_3zip3ZipINtNtB4_5cycle5CycleINtNtNtB8_3ops5range5RangexEEB1G_ETxxENvYB16_NtNtNtB6_6traits8iterator8Iterator4nextECs5UlKWfykTNt_17build_script_main, symObjAddr: 0x414, symBinAddr: 0x10000A14C, symSize: 0xCC }
  - { offset: 0xD59A, size: 0x8, addend: 0x0, symName: __RINvNtNtNtCs9f3LFPSIp77_4core4iter8adapters7flatten17and_then_or_clearINtNtB4_3zip3ZipINtNtB4_5cycle5CycleINtNtNtB8_3ops5range5RangeyEEB1G_ETyyENvYB16_NtNtNtB6_6traits8iterator8Iterator4nextECs5UlKWfykTNt_17build_script_main, symObjAddr: 0x4E0, symBinAddr: 0x10000A218, symSize: 0xCC }
  - { offset: 0xD6E4, size: 0x8, addend: 0x0, symName: __RNvXs1_NtNtNtCs9f3LFPSIp77_4core4iter8adapters7flattenINtB5_7FlatMapINtNtNtBb_3ops5range5RangexEINtNtB7_3zip3ZipINtNtB7_5cycle5CycleB14_EB14_ENCNvNtCs5UlKWfykTNt_17build_script_main5tests11build_testss_0ENtNtNtB9_6traits8iterator8Iterator4nextB2m_, symObjAddr: 0x1D98, symBinAddr: 0x10000BAD0, symSize: 0x24 }
  - { offset: 0xD72B, size: 0x8, addend: 0x0, symName: __RNvXs1_NtNtNtCs9f3LFPSIp77_4core4iter8adapters7flattenINtB5_7FlatMapINtNtNtBb_3ops5range5RangeyEINtNtB7_3zip3ZipINtNtB7_5cycle5CycleB14_EB14_ENCNvNtCs5UlKWfykTNt_17build_script_main5tests11build_tests0ENtNtNtB9_6traits8iterator8Iterator4nextB2m_, symObjAddr: 0x1DBC, symBinAddr: 0x10000BAF4, symSize: 0x24 }
  - { offset: 0xD778, size: 0x8, addend: 0x0, symName: __RNvXsx_NtNtNtCs9f3LFPSIp77_4core4iter8adapters7flattenINtB5_13FlattenCompatINtNtB7_3map3MapINtNtNtBb_3ops5range5RangexENCNvNtCs5UlKWfykTNt_17build_script_main5tests11build_testss_0EINtNtB7_3zip3ZipINtNtB7_5cycle5CycleB1r_EB1r_EENtNtNtB9_6traits8iterator8Iterator4nextB1Z_, symObjAddr: 0x29C8, symBinAddr: 0x10000C700, symSize: 0x114 }
  - { offset: 0xD814, size: 0x8, addend: 0x0, symName: __RNvXsx_NtNtNtCs9f3LFPSIp77_4core4iter8adapters7flattenINtB5_13FlattenCompatINtNtB7_3map3MapINtNtNtBb_3ops5range5RangeyENCNvNtCs5UlKWfykTNt_17build_script_main5tests11build_tests0EINtNtB7_3zip3ZipINtNtB7_5cycle5CycleB1r_EB1r_EENtNtNtB9_6traits8iterator8Iterator4nextB1Z_, symObjAddr: 0x2ADC, symBinAddr: 0x10000C814, symSize: 0x114 }
  - { offset: 0xDA81, size: 0x8, addend: 0x0, symName: __RINvYINtNtNtNtCs9f3LFPSIp77_4core4iter8adapters3map3MapINtNtNtBc_5slice4iter4IterNtNtCs5UlKWfykTNt_17build_script_main2op2OpENCNvB1j_14write_op_macros5_0ENtNtNtBa_6traits8iterator8Iterator7collectINtNtCsdze8u8oDPro_5alloc3vec3VecNtNtB3d_6string6StringEEB1l_, symObjAddr: 0x628, symBinAddr: 0x10000A360, symSize: 0x2C }
  - { offset: 0xDAC1, size: 0x8, addend: 0x0, symName: __RINvYINtNtNtNtCs9f3LFPSIp77_4core4iter8adapters3map3MapINtNtNtBc_5slice4iter4IterNtNtCs5UlKWfykTNt_17build_script_main2op2OpENCNvB1j_14write_op_macros5_0ENtNtNtBa_6traits8iterator8Iterator8for_eachNCINvMsi_NtCsdze8u8oDPro_5alloc3vecINtB3i_3VecNtNtB3k_6string6StringE14extend_trustedB3_E0EB1l_, symObjAddr: 0x654, symBinAddr: 0x10000A38C, symSize: 0x44 }
  - { offset: 0xDB2C, size: 0x8, addend: 0x0, symName: __RINvYINtNtNtNtCs9f3LFPSIp77_4core4iter8adapters5chain5ChainINtNtNtBc_3ops5range5RangeyEINtNtB8_3map3MapIBW_mENCNvCs5UlKWfykTNt_17build_script_main5uints0EENtNtNtBa_6traits8iterator8Iterator5chainIB1o_B1D_NCB1L_s_0EEB1N_, symObjAddr: 0x698, symBinAddr: 0x10000A3D0, symSize: 0xE0 }
  - { offset: 0xDBA2, size: 0x8, addend: 0x0, symName: __RINvYINtNtNtNtCs9f3LFPSIp77_4core4iter8adapters5cycle5CycleINtNtNtBc_3ops5range5RangexEENtNtNtBa_6traits8iterator8Iterator3zipBV_ECs5UlKWfykTNt_17build_script_main, symObjAddr: 0x778, symBinAddr: 0x10000A4B0, symSize: 0xA4 }
  - { offset: 0xDC18, size: 0x8, addend: 0x0, symName: __RINvYINtNtNtNtCs9f3LFPSIp77_4core4iter8adapters5cycle5CycleINtNtNtBc_3ops5range5RangeyEENtNtNtBa_6traits8iterator8Iterator3zipBV_ECs5UlKWfykTNt_17build_script_main, symObjAddr: 0x81C, symBinAddr: 0x10000A554, symSize: 0xA4 }
  - { offset: 0xDC9A, size: 0x8, addend: 0x0, symName: __RNvXs_NtNtNtCs9f3LFPSIp77_4core4iter6traits7collectINtNtNtB8_8adapters3map3MapINtNtNtBa_3ops5range5RangemENCNvCs5UlKWfykTNt_17build_script_main5uints0ENtB4_12IntoIterator9into_iterB1K_, symObjAddr: 0x248C, symBinAddr: 0x10000C1C4, symSize: 0x14 }
  - { offset: 0xDCD1, size: 0x8, addend: 0x0, symName: __RNvXs_NtNtNtCs9f3LFPSIp77_4core4iter6traits7collectINtNtNtB8_8adapters3map3MapINtNtNtBa_3ops5range5RangemENCNvCs5UlKWfykTNt_17build_script_main5uintss_0ENtB4_12IntoIterator9into_iterB1K_, symObjAddr: 0x24A0, symBinAddr: 0x10000C1D8, symSize: 0x14 }
  - { offset: 0xDD08, size: 0x8, addend: 0x0, symName: __RNvXs_NtNtNtCs9f3LFPSIp77_4core4iter6traits7collectINtNtNtB8_8adapters3map3MapINtNtNtBa_5slice4iter4IterNtNtCs5UlKWfykTNt_17build_script_main2op2OpENCNvB1G_14write_op_macros5_0ENtB4_12IntoIterator9into_iterB1I_, symObjAddr: 0x24B4, symBinAddr: 0x10000C1EC, symSize: 0x1C }
  - { offset: 0xDD3F, size: 0x8, addend: 0x0, symName: __RNvXs_NtNtNtCs9f3LFPSIp77_4core4iter6traits7collectINtNtNtB8_8adapters5chain5ChainIBO_INtNtNtBa_3ops5range5RangeyEINtNtBS_3map3MapIB1n_mENCNvCs5UlKWfykTNt_17build_script_main5uints0EEIB1P_B24_NCB2d_s_0EENtB4_12IntoIterator9into_iterB2f_, symObjAddr: 0x24D0, symBinAddr: 0x10000C208, symSize: 0x30 }
  - { offset: 0xDD77, size: 0x8, addend: 0x0, symName: __RNvXs_NtNtNtCs9f3LFPSIp77_4core4iter6traits7collectINtNtNtB8_8adapters7flatten7FlatMapINtNtNtBa_3ops5range5RangexEINtNtBS_3zip3ZipINtNtBS_5cycle5CycleB1m_EB1m_ENCNvNtCs5UlKWfykTNt_17build_script_main5tests11build_testss_0ENtB4_12IntoIterator9into_iterB2E_, symObjAddr: 0x2500, symBinAddr: 0x10000C238, symSize: 0x30 }
  - { offset: 0xDDAF, size: 0x8, addend: 0x0, symName: __RNvXs_NtNtNtCs9f3LFPSIp77_4core4iter6traits7collectINtNtNtB8_8adapters7flatten7FlatMapINtNtNtBa_3ops5range5RangeyEINtNtBS_3zip3ZipINtNtBS_5cycle5CycleB1m_EB1m_ENCNvNtCs5UlKWfykTNt_17build_script_main5tests11build_tests0ENtB4_12IntoIterator9into_iterB2E_, symObjAddr: 0x2530, symBinAddr: 0x10000C268, symSize: 0x30 }
  - { offset: 0xDE7F, size: 0x8, addend: 0x0, symName: __RNvMNtCs9f3LFPSIp77_4core5sliceSINtNtNtB4_3mem12maybe_uninit11MaybeUninithE15copy_from_sliceCs5UlKWfykTNt_17build_script_main, symObjAddr: 0xB68, symBinAddr: 0x10000A8A0, symSize: 0xA4 }
  - { offset: 0xDF4A, size: 0x8, addend: 0x0, symName: __RNvMNtCs9f3LFPSIp77_4core5sliceSINtNtNtB4_3mem12maybe_uninit11MaybeUninithE22split_at_mut_uncheckedCs5UlKWfykTNt_17build_script_main, symObjAddr: 0xC0C, symBinAddr: 0x10000A944, symSize: 0xE8 }
  - { offset: 0xE0D8, size: 0x8, addend: 0x0, symName: __RNvNvMNtCs9f3LFPSIp77_4core5sliceSp22split_at_mut_unchecked18precondition_checkCs5UlKWfykTNt_17build_script_main, symObjAddr: 0x1400, symBinAddr: 0x10000B138, symSize: 0x40 }
  - { offset: 0xE1DA, size: 0x8, addend: 0x0, symName: __RNvNvNtNtCs9f3LFPSIp77_4core5slice3raw14from_raw_parts18precondition_checkCs5UlKWfykTNt_17build_script_main, symObjAddr: 0x17A4, symBinAddr: 0x10000B4DC, symSize: 0x164 }
  - { offset: 0xE334, size: 0x8, addend: 0x0, symName: __RNvNvNtNtCs9f3LFPSIp77_4core5slice3raw18from_raw_parts_mut18precondition_checkCs5UlKWfykTNt_17build_script_main, symObjAddr: 0x1908, symBinAddr: 0x10000B640, symSize: 0x164 }
  - { offset: 0xE4D5, size: 0x8, addend: 0x0, symName: __RINvNtCs9f3LFPSIp77_4core10intrinsics23is_val_statically_knownbECs5UlKWfykTNt_17build_script_main, symObjAddr: 0x228, symBinAddr: 0x100009F60, symSize: 0x18 }
  - { offset: 0xE50C, size: 0x8, addend: 0x0, symName: __RINvNtCs9f3LFPSIp77_4core10intrinsics23is_val_statically_knownmECs5UlKWfykTNt_17build_script_main, symObjAddr: 0x240, symBinAddr: 0x100009F78, symSize: 0x18 }
  - { offset: 0xE5B9, size: 0x8, addend: 0x0, symName: __RNvNtCs9f3LFPSIp77_4core10intrinsics8unlikelyCs5UlKWfykTNt_17build_script_main, symObjAddr: 0x11D4, symBinAddr: 0x10000AF0C, symSize: 0x10 }
  - { offset: 0xE5EC, size: 0x8, addend: 0x0, symName: __RNvNvNtCs9f3LFPSIp77_4core10intrinsics19copy_nonoverlapping18precondition_checkCs5UlKWfykTNt_17build_script_main, symObjAddr: 0x1480, symBinAddr: 0x10000B1B8, symSize: 0x1EC }
  - { offset: 0xE87E, size: 0x8, addend: 0x0, symName: __RNvNvNtCs9f3LFPSIp77_4core4hint16assert_unchecked18precondition_checkCs5UlKWfykTNt_17build_script_main, symObjAddr: 0x166C, symBinAddr: 0x10000B3A4, symSize: 0x38 }
  - { offset: 0xE8AC, size: 0x8, addend: 0x0, symName: __RNvNvNtCs9f3LFPSIp77_4core4hint21unreachable_unchecked18precondition_checkCs5UlKWfykTNt_17build_script_main, symObjAddr: 0x16A4, symBinAddr: 0x10000B3DC, symSize: 0x1C }
  - { offset: 0xEC72, size: 0x8, addend: 0x0, symName: __RNvXNtNtCs9f3LFPSIp77_4core3ops12control_flowINtB2_11ControlFlowRNtNtCs5UlKWfykTNt_17build_script_main2op2OpENtNtB4_9try_trait3Try11from_outputB15_, symObjAddr: 0x1AC4, symBinAddr: 0x10000B7FC, symSize: 0x14 }
  - { offset: 0xECB0, size: 0x8, addend: 0x0, symName: __RNvXNtNtCs9f3LFPSIp77_4core3ops12control_flowINtB2_11ControlFlowRNtNtCs5UlKWfykTNt_17build_script_main2op2OpENtNtB4_9try_trait3Try6branchB15_, symObjAddr: 0x1AD8, symBinAddr: 0x10000B810, symSize: 0x48 }
  - { offset: 0xED2D, size: 0x8, addend: 0x0, symName: __RNvXs_NtNtCs9f3LFPSIp77_4core3ops12control_flowINtB4_11ControlFlowRNtNtCs5UlKWfykTNt_17build_script_main2op2OpEINtNtB6_9try_trait12FromResidualIBK_B12_NtNtB8_7convert10InfallibleEE13from_residualB17_, symObjAddr: 0x22D8, symBinAddr: 0x10000C010, symSize: 0x20 }
  - { offset: 0xF08F, size: 0x8, addend: 0x0, symName: __RNvXNtCs9f3LFPSIp77_4core7convertRNtNtCs27l1GJC5rMQ_3std4path4PathINtB2_5AsRefBw_E6as_refCs5UlKWfykTNt_17build_script_main, symObjAddr: 0x1A6C, symBinAddr: 0x10000B7A4, symSize: 0x30 }
  - { offset: 0xF0CF, size: 0x8, addend: 0x0, symName: __RNvXNtCs9f3LFPSIp77_4core7convertRNtNtCs27l1GJC5rMQ_3std4path7PathBufINtB2_5AsRefNtBy_4PathE6as_refCs5UlKWfykTNt_17build_script_main, symObjAddr: 0x1A9C, symBinAddr: 0x10000B7D4, symSize: 0x28 }
  - { offset: 0xF57A, size: 0x8, addend: 0x0, symName: __RNvNtNtCs9f3LFPSIp77_4core4char7methods15encode_utf8_rawCs5UlKWfykTNt_17build_script_main, symObjAddr: 0x11E4, symBinAddr: 0x10000AF1C, symSize: 0x21C }
  - { offset: 0xF76B, size: 0x8, addend: 0x0, symName: __RNvNvNtCs9f3LFPSIp77_4core9ub_checks17is_nonoverlapping7runtimeCs5UlKWfykTNt_17build_script_main, symObjAddr: 0x16C0, symBinAddr: 0x10000B3F8, symSize: 0xE4 }
  - { offset: 0xF9F8, size: 0x8, addend: 0x0, symName: __RNvXs_NtCs9f3LFPSIp77_4core3streINtNtB6_7convert5AsRefShE6as_refCs5UlKWfykTNt_17build_script_main, symObjAddr: 0x22C0, symBinAddr: 0x10000BFF8, symSize: 0x18 }
  - { offset: 0xFC48, size: 0x8, addend: 0x0, symName: __RINvMsZ_NtCs27l1GJC5rMQ_3std4pathNtB6_4Path3newNtNtCsdze8u8oDPro_5alloc6string6StringECs5UlKWfykTNt_17build_script_main, symObjAddr: 0x0, symBinAddr: 0x100009D38, symSize: 0x24 }
  - { offset: 0xFC74, size: 0x8, addend: 0x0, symName: __RINvMsZ_NtCs27l1GJC5rMQ_3std4pathNtB6_4Path4joinReECs5UlKWfykTNt_17build_script_main, symObjAddr: 0x24, symBinAddr: 0x100009D5C, symSize: 0x80 }
  - { offset: 0xFFAB, size: 0x8, addend: 0x0, symName: __RINvMsi_NtCsdze8u8oDPro_5alloc3vecINtB6_3VecNtNtB8_6string6StringE14extend_trustedINtNtNtNtCs9f3LFPSIp77_4core4iter8adapters3map3MapINtNtNtB1r_5slice4iter4IterNtNtCs5UlKWfykTNt_17build_script_main2op2OpENCNvB2z_14write_op_macros5_0EEB2B_, symObjAddr: 0xA4, symBinAddr: 0x100009DDC, symSize: 0x184 }
  - { offset: 0x10623, size: 0x8, addend: 0x0, symName: __RNvMNtNtNtCs9f3LFPSIp77_4core4iter8adapters5cycleINtB2_5CycleINtNtNtB8_3ops5range5RangexEE3newCs5UlKWfykTNt_17build_script_main, symObjAddr: 0xCF4, symBinAddr: 0x10000AA2C, symSize: 0x78 }
  - { offset: 0x1064E, size: 0x8, addend: 0x0, symName: __RNvMNtNtNtCs9f3LFPSIp77_4core4iter8adapters5cycleINtB2_5CycleINtNtNtB8_3ops5range5RangeyEE3newCs5UlKWfykTNt_17build_script_main, symObjAddr: 0xD6C, symBinAddr: 0x10000AAA4, symSize: 0x78 }
  - { offset: 0x10701, size: 0x8, addend: 0x0, symName: __RNvMs3_NtCsdze8u8oDPro_5alloc7raw_vecNtB5_11RawVecInner16with_capacity_inCs5UlKWfykTNt_17build_script_main, symObjAddr: 0xDE4, symBinAddr: 0x10000AB1C, symSize: 0xF8 }
  - { offset: 0x1093C, size: 0x8, addend: 0x0, symName: __RNvMs_NtCsdze8u8oDPro_5alloc3vecINtB4_3VecNtNtB6_6string6StringE7reserveCs5UlKWfykTNt_17build_script_main, symObjAddr: 0xEDC, symBinAddr: 0x10000AC14, symSize: 0xC4 }
  - { offset: 0x10B9A, size: 0x8, addend: 0x0, symName: __RNvMs_NtCsdze8u8oDPro_5alloc3vecINtB4_3VecNtNtB6_6string6StringE8as_sliceCs5UlKWfykTNt_17build_script_main, symObjAddr: 0xFA0, symBinAddr: 0x10000ACD8, symSize: 0x7C }
  - { offset: 0x10E19, size: 0x8, addend: 0x0, symName: __RNvMs_NtCsdze8u8oDPro_5alloc3vecINtB4_3VechE15append_elementsCs5UlKWfykTNt_17build_script_main, symObjAddr: 0x101C, symBinAddr: 0x10000AD54, symSize: 0xE4 }
  - { offset: 0x11115, size: 0x8, addend: 0x0, symName: __RNvMs_NtCsdze8u8oDPro_5alloc3vecINtB4_3VechE18spare_capacity_mutCs5UlKWfykTNt_17build_script_main, symObjAddr: 0x1100, symBinAddr: 0x10000AE38, symSize: 0xD4 }
  - { offset: 0x11E7C, size: 0x8, addend: 0x0, symName: __RINvMNtCs27l1GJC5rMQ_3std2fsNtB3_4File6createRNtNtB5_4path7PathBufECs5UlKWfykTNt_17build_script_main, symObjAddr: 0x0, symBinAddr: 0x10000CD14, symSize: 0xE8 }
  - { offset: 0x11F3B, size: 0x8, addend: 0x0, symName: __RNvXNvNtNtCs27l1GJC5rMQ_3std2io5Write9write_fmtINtB2_7AdapterINtNtNtB6_8buffered9bufwriter9BufWriterRNtNtB8_2fs4FileEENtNtCs9f3LFPSIp77_4core3fmt5Write9write_strCs5UlKWfykTNt_17build_script_main, symObjAddr: 0x1780, symBinAddr: 0x10000E344, symSize: 0xB8 }
  - { offset: 0x11F97, size: 0x8, addend: 0x0, symName: __RNvXNvNtNtCs27l1GJC5rMQ_3std2io5Write9write_fmtINtB2_7AdapterNtNtB8_2fs4FileENtNtCs9f3LFPSIp77_4core3fmt5Write9write_strCs5UlKWfykTNt_17build_script_main, symObjAddr: 0x1838, symBinAddr: 0x10000E3FC, symSize: 0xB8 }
  - { offset: 0x11FF3, size: 0x8, addend: 0x0, symName: __RNvXNvNtNtCs27l1GJC5rMQ_3std2io5Write9write_fmtINtB2_7AdapterNtNtNtNtNtB8_3sys3pal4unix5stdio6StderrENtNtCs9f3LFPSIp77_4core3fmt5Write9write_strCs5UlKWfykTNt_17build_script_main, symObjAddr: 0x18F0, symBinAddr: 0x10000E4B4, symSize: 0xB8 }
  - { offset: 0x12051, size: 0x8, addend: 0x0, symName: __RNvYINtNtNtNtCs27l1GJC5rMQ_3std2io8buffered9bufwriter9BufWriterRNtNtBb_2fs4FileENtB9_5Write9write_fmtCs5UlKWfykTNt_17build_script_main, symObjAddr: 0x28AC, symBinAddr: 0x10000F470, symSize: 0x128 }
  - { offset: 0x120FF, size: 0x8, addend: 0x0, symName: __RNvYNtNtCs27l1GJC5rMQ_3std2fs4FileNtNtB6_2io5Write9write_allCs5UlKWfykTNt_17build_script_main, symObjAddr: 0x2B90, symBinAddr: 0x10000F754, symSize: 0x288 }
  - { offset: 0x122F1, size: 0x8, addend: 0x0, symName: __RNvYNtNtCs27l1GJC5rMQ_3std2fs4FileNtNtB6_2io5Write9write_fmtCs5UlKWfykTNt_17build_script_main, symObjAddr: 0x2E18, symBinAddr: 0x10000F9DC, symSize: 0x128 }
  - { offset: 0x1239F, size: 0x8, addend: 0x0, symName: __RNvYRNtNtCs27l1GJC5rMQ_3std2fs4FileNtNtB7_2io5Write9write_allCs5UlKWfykTNt_17build_script_main, symObjAddr: 0x2FF8, symBinAddr: 0x10000FBBC, symSize: 0x288 }
  - { offset: 0x12766, size: 0x8, addend: 0x0, symName: __RNvXs4_NtNtNtCs27l1GJC5rMQ_3std2io8buffered9bufwriterINtB5_9BufWriterRNtNtBb_2fs4FileENtB9_5Write5flushCs5UlKWfykTNt_17build_script_main, symObjAddr: 0x1CB8, symBinAddr: 0x10000E87C, symSize: 0x64 }
  - { offset: 0x1282C, size: 0x8, addend: 0x0, symName: __RNvXs4_NtNtNtCs27l1GJC5rMQ_3std2io8buffered9bufwriterINtB5_9BufWriterRNtNtBb_2fs4FileENtB9_5Write9write_allCs5UlKWfykTNt_17build_script_main, symObjAddr: 0x1D1C, symBinAddr: 0x10000E8E0, symSize: 0xA8 }
  - { offset: 0x128FE, size: 0x8, addend: 0x0, symName: __RNvXs7_NtNtNtCs27l1GJC5rMQ_3std2io8buffered9bufwriterINtB5_9BufWriterRNtNtBb_2fs4FileENtNtNtCs9f3LFPSIp77_4core3ops4drop4Drop4dropCs5UlKWfykTNt_17build_script_main, symObjAddr: 0x1DFC, symBinAddr: 0x10000E9C0, symSize: 0x4C }
  - { offset: 0x12EF5, size: 0x8, addend: 0x0, symName: __RNvXs4_NtCs27l1GJC5rMQ_3std2fsRNtB5_4FileNtNtB7_2io5Write5flushCs5UlKWfykTNt_17build_script_main, symObjAddr: 0x1C98, symBinAddr: 0x10000E85C, symSize: 0x20 }
  - { offset: 0x13124, size: 0x8, addend: 0x0, symName: __RNvXs5_NtNtNtCs27l1GJC5rMQ_3std2os2fd5ownedNtB5_7OwnedFdNtNtNtCs9f3LFPSIp77_4core3ops4drop4Drop4dropCs5UlKWfykTNt_17build_script_main, symObjAddr: 0x1DC4, symBinAddr: 0x10000E988, symSize: 0x38 }
  - { offset: 0x131AD, size: 0x8, addend: 0x0, symName: __RNvXsU_NtNtCs27l1GJC5rMQ_3std3ffi6os_strNtNtCsdze8u8oDPro_5alloc6string6StringINtNtCs9f3LFPSIp77_4core7convert5AsRefNtB5_5OsStrE6as_refCs5UlKWfykTNt_17build_script_main, symObjAddr: 0x2078, symBinAddr: 0x10000EC3C, symSize: 0xA0 }
  - { offset: 0x13448, size: 0x8, addend: 0x0, symName: __RINvNtCs27l1GJC5rMQ_3std3env3varReECs5UlKWfykTNt_17build_script_main, symObjAddr: 0x3DC, symBinAddr: 0x10000D0F0, symSize: 0x68 }
  - { offset: 0x13482, size: 0x8, addend: 0x0, symName: __RNvXs3_NtCs27l1GJC5rMQ_3std3envNtB5_8VarErrorNtNtCs9f3LFPSIp77_4core5error5Error11descriptionCs5UlKWfykTNt_17build_script_main, symObjAddr: 0x1C34, symBinAddr: 0x10000E7F8, symSize: 0x64 }
  - { offset: 0x134B6, size: 0x8, addend: 0x0, symName: __RNvXsk_NtCs27l1GJC5rMQ_3std3envNtB5_8VarErrorNtNtCs9f3LFPSIp77_4core3fmt5Debug3fmtCs5UlKWfykTNt_17build_script_main, symObjAddr: 0x2778, symBinAddr: 0x10000F33C, symSize: 0xA0 }
  - { offset: 0x13701, size: 0x8, addend: 0x0, symName: __RNvXs_NtNtCsdze8u8oDPro_5alloc3vec15set_len_on_dropNtB4_12SetLenOnDropNtNtNtCs9f3LFPSIp77_4core3ops4drop4Drop4dropCs5UlKWfykTNt_17build_script_main, symObjAddr: 0x2168, symBinAddr: 0x10000ED2C, symSize: 0x20 }
  - { offset: 0x13986, size: 0x8, addend: 0x0, symName: __RNvXsj_NtCsdze8u8oDPro_5alloc6stringNtB5_6StringNtNtCs9f3LFPSIp77_4core3fmt7Display3fmtCs5UlKWfykTNt_17build_script_main, symObjAddr: 0x26E0, symBinAddr: 0x10000F2A4, symSize: 0x98 }
  - { offset: 0x13B65, size: 0x8, addend: 0x0, symName: __RNvXso_NtCsdze8u8oDPro_5alloc6stringNtB5_6StringINtNtNtCs9f3LFPSIp77_4core3ops5index5IndexNtNtBP_5range9RangeFullE5indexCs5UlKWfykTNt_17build_script_main, symObjAddr: 0x2818, symBinAddr: 0x10000F3DC, symSize: 0x94 }
  - { offset: 0x13D48, size: 0x8, addend: 0x0, symName: __RNCNvNtCsdze8u8oDPro_5alloc3fmt6format0Cs5UlKWfykTNt_17build_script_main, symObjAddr: 0x97C, symBinAddr: 0x10000D690, symSize: 0x48 }
  - { offset: 0x13D79, size: 0x8, addend: 0x0, symName: __RNvNtCsdze8u8oDPro_5alloc3fmt6formatCs5UlKWfykTNt_17build_script_main, symObjAddr: 0x14A8, symBinAddr: 0x10000E06C, symSize: 0xD4 }
  - { offset: 0x13DDF, size: 0x8, addend: 0x0, symName: __RINvMNtCsdze8u8oDPro_5alloc5sliceSNtNtB5_6string6String4joinReECs5UlKWfykTNt_17build_script_main, symObjAddr: 0x334, symBinAddr: 0x10000D048, symSize: 0x34 }
  - { offset: 0x13E39, size: 0x8, addend: 0x0, symName: __RINvXs_NtNtCsdze8u8oDPro_5alloc5slice4hackhNtB5_10ConvertVec6to_vecNtNtB9_5alloc6GlobalECs5UlKWfykTNt_17build_script_main, symObjAddr: 0x7E4, symBinAddr: 0x10000D4F8, symSize: 0xE8 }
  - { offset: 0x14071, size: 0x8, addend: 0x0, symName: __RNvXs0_NtCsdze8u8oDPro_5alloc3strNtNtB7_6string6StringINtNtCs9f3LFPSIp77_4core6borrow6BorroweE6borrowCs5UlKWfykTNt_17build_script_main, symObjAddr: 0x19A8, symBinAddr: 0x10000E56C, symSize: 0x2C }
  - { offset: 0x140A3, size: 0x8, addend: 0x0, symName: __RNvXs_NtCsdze8u8oDPro_5alloc3strSNtNtB6_6string6StringINtNtB6_5slice4JoinReE4joinCs5UlKWfykTNt_17build_script_main, symObjAddr: 0x2118, symBinAddr: 0x10000ECDC, symSize: 0x50 }
  - { offset: 0x14A9B, size: 0x8, addend: 0x0, symName: __RNvXs_NvNtNtCs9f3LFPSIp77_4core3fmt5Write9write_fmtQINtNvNtNtCs27l1GJC5rMQ_3std2io5Write9write_fmt7AdapterINtNtNtBV_8buffered9bufwriter9BufWriterRNtNtBX_2fs4FileEENtB4_12SpecWriteFmt14spec_write_fmtCs5UlKWfykTNt_17build_script_main, symObjAddr: 0x2230, symBinAddr: 0x10000EDF4, symSize: 0x190 }
  - { offset: 0x14B5F, size: 0x8, addend: 0x0, symName: __RNvXs_NvNtNtCs9f3LFPSIp77_4core3fmt5Write9write_fmtQINtNvNtNtCs27l1GJC5rMQ_3std2io5Write9write_fmt7AdapterNtNtBX_2fs4FileENtB4_12SpecWriteFmt14spec_write_fmtCs5UlKWfykTNt_17build_script_main, symObjAddr: 0x23C0, symBinAddr: 0x10000EF84, symSize: 0x190 }
  - { offset: 0x14C23, size: 0x8, addend: 0x0, symName: __RNvXs_NvNtNtCs9f3LFPSIp77_4core3fmt5Write9write_fmtQINtNvNtNtCs27l1GJC5rMQ_3std2io5Write9write_fmt7AdapterNtNtNtNtNtBX_3sys3pal4unix5stdio6StderrENtB4_12SpecWriteFmt14spec_write_fmtCs5UlKWfykTNt_17build_script_main, symObjAddr: 0x2550, symBinAddr: 0x10000F114, symSize: 0x190 }
  - { offset: 0x14CE9, size: 0x8, addend: 0x0, symName: __RNvYINtNvNtNtCs27l1GJC5rMQ_3std2io5Write9write_fmt7AdapterINtNtNtB9_8buffered9bufwriter9BufWriterRNtNtBb_2fs4FileEENtNtCs9f3LFPSIp77_4core3fmt5Write10write_charCs5UlKWfykTNt_17build_script_main, symObjAddr: 0x29D4, symBinAddr: 0x10000F598, symSize: 0x70 }
  - { offset: 0x14D51, size: 0x8, addend: 0x0, symName: __RNvYINtNvNtNtCs27l1GJC5rMQ_3std2io5Write9write_fmt7AdapterINtNtNtB9_8buffered9bufwriter9BufWriterRNtNtBb_2fs4FileEENtNtCs9f3LFPSIp77_4core3fmt5Write9write_fmtCs5UlKWfykTNt_17build_script_main, symObjAddr: 0x2A44, symBinAddr: 0x10000F608, symSize: 0x24 }
  - { offset: 0x14D95, size: 0x8, addend: 0x0, symName: __RNvYINtNvNtNtCs27l1GJC5rMQ_3std2io5Write9write_fmt7AdapterNtNtBb_2fs4FileENtNtCs9f3LFPSIp77_4core3fmt5Write10write_charCs5UlKWfykTNt_17build_script_main, symObjAddr: 0x2A68, symBinAddr: 0x10000F62C, symSize: 0x70 }
  - { offset: 0x14DFD, size: 0x8, addend: 0x0, symName: __RNvYINtNvNtNtCs27l1GJC5rMQ_3std2io5Write9write_fmt7AdapterNtNtBb_2fs4FileENtNtCs9f3LFPSIp77_4core3fmt5Write9write_fmtCs5UlKWfykTNt_17build_script_main, symObjAddr: 0x2AD8, symBinAddr: 0x10000F69C, symSize: 0x24 }
  - { offset: 0x14E41, size: 0x8, addend: 0x0, symName: __RNvYINtNvNtNtCs27l1GJC5rMQ_3std2io5Write9write_fmt7AdapterNtNtNtNtNtBb_3sys3pal4unix5stdio6StderrENtNtCs9f3LFPSIp77_4core3fmt5Write10write_charCs5UlKWfykTNt_17build_script_main, symObjAddr: 0x2AFC, symBinAddr: 0x10000F6C0, symSize: 0x70 }
  - { offset: 0x14EA9, size: 0x8, addend: 0x0, symName: __RNvYINtNvNtNtCs27l1GJC5rMQ_3std2io5Write9write_fmt7AdapterNtNtNtNtNtBb_3sys3pal4unix5stdio6StderrENtNtCs9f3LFPSIp77_4core3fmt5Write9write_fmtCs5UlKWfykTNt_17build_script_main, symObjAddr: 0x2B6C, symBinAddr: 0x10000F730, symSize: 0x24 }
  - { offset: 0x14F12, size: 0x8, addend: 0x0, symName: __RINvNtCs9f3LFPSIp77_4core3cmp3maxxECs5UlKWfykTNt_17build_script_main, symObjAddr: 0x444, symBinAddr: 0x10000D158, symSize: 0x24 }
  - { offset: 0x14F58, size: 0x8, addend: 0x0, symName: __RINvNtCs9f3LFPSIp77_4core3cmp3maxyECs5UlKWfykTNt_17build_script_main, symObjAddr: 0x468, symBinAddr: 0x10000D17C, symSize: 0x24 }
  - { offset: 0x14F9E, size: 0x8, addend: 0x0, symName: __RINvNtCs9f3LFPSIp77_4core3cmp3minxECs5UlKWfykTNt_17build_script_main, symObjAddr: 0x48C, symBinAddr: 0x10000D1A0, symSize: 0x24 }
  - { offset: 0x14FE4, size: 0x8, addend: 0x0, symName: __RINvNtCs9f3LFPSIp77_4core3cmp3minyECs5UlKWfykTNt_17build_script_main, symObjAddr: 0x4B0, symBinAddr: 0x10000D1C4, symSize: 0x24 }
  - { offset: 0x1502A, size: 0x8, addend: 0x0, symName: __RINvNtCs9f3LFPSIp77_4core3cmp6max_byxNvYxNtB2_3Ord3cmpECs5UlKWfykTNt_17build_script_main, symObjAddr: 0x4D4, symBinAddr: 0x10000D1E8, symSize: 0xC0 }
  - { offset: 0x15088, size: 0x8, addend: 0x0, symName: __RINvNtCs9f3LFPSIp77_4core3cmp6max_byyNvYyNtB2_3Ord3cmpECs5UlKWfykTNt_17build_script_main, symObjAddr: 0x594, symBinAddr: 0x10000D2A8, symSize: 0xC0 }
  - { offset: 0x150E6, size: 0x8, addend: 0x0, symName: __RINvNtCs9f3LFPSIp77_4core3cmp6min_byxNvYxNtB2_3Ord3cmpECs5UlKWfykTNt_17build_script_main, symObjAddr: 0x654, symBinAddr: 0x10000D368, symSize: 0xC8 }
  - { offset: 0x15144, size: 0x8, addend: 0x0, symName: __RINvNtCs9f3LFPSIp77_4core3cmp6min_byyNvYyNtB2_3Ord3cmpECs5UlKWfykTNt_17build_script_main, symObjAddr: 0x71C, symBinAddr: 0x10000D430, symSize: 0xC8 }
  - { offset: 0x151A7, size: 0x8, addend: 0x0, symName: __RNvXs9_NtCs9f3LFPSIp77_4core3cmpNtB5_8OrderingNtNtB7_3fmt5Debug3fmtCs5UlKWfykTNt_17build_script_main, symObjAddr: 0x1E48, symBinAddr: 0x10000EA0C, symSize: 0xA4 }
  - { offset: 0x151EA, size: 0x8, addend: 0x0, symName: __RNvYxNtNtCs9f3LFPSIp77_4core3cmp3Ord3maxCs5UlKWfykTNt_17build_script_main, symObjAddr: 0x3280, symBinAddr: 0x10000FE44, symSize: 0x24 }
  - { offset: 0x15230, size: 0x8, addend: 0x0, symName: __RNvYxNtNtCs9f3LFPSIp77_4core3cmp3Ord3minCs5UlKWfykTNt_17build_script_main, symObjAddr: 0x32A4, symBinAddr: 0x10000FE68, symSize: 0x24 }
  - { offset: 0x15276, size: 0x8, addend: 0x0, symName: __RNvYyNtNtCs9f3LFPSIp77_4core3cmp3Ord3maxCs5UlKWfykTNt_17build_script_main, symObjAddr: 0x32C8, symBinAddr: 0x10000FE8C, symSize: 0x24 }
  - { offset: 0x152BC, size: 0x8, addend: 0x0, symName: __RNvYyNtNtCs9f3LFPSIp77_4core3cmp3Ord3minCs5UlKWfykTNt_17build_script_main, symObjAddr: 0x32EC, symBinAddr: 0x10000FEB0, symSize: 0x24 }
  - { offset: 0x1570B, size: 0x8, addend: 0x0, symName: __RNvXsB_NtCs9f3LFPSIp77_4core6optionINtB5_6OptionjENtNtNtB7_3ops9try_trait3Try11from_outputCs5UlKWfykTNt_17build_script_main, symObjAddr: 0x1FF4, symBinAddr: 0x10000EBB8, symSize: 0x24 }
  - { offset: 0x15742, size: 0x8, addend: 0x0, symName: __RNvXsB_NtCs9f3LFPSIp77_4core6optionINtB5_6OptionjENtNtNtB7_3ops9try_trait3Try6branchCs5UlKWfykTNt_17build_script_main, symObjAddr: 0x2018, symBinAddr: 0x10000EBDC, symSize: 0x48 }
  - { offset: 0x158F0, size: 0x8, addend: 0x0, symName: __RNvXsC_NtCs9f3LFPSIp77_4core6optionINtB5_6OptionjEINtNtNtB7_3ops9try_trait12FromResidualIBy_NtNtB7_7convert10InfallibleEE13from_residualCs5UlKWfykTNt_17build_script_main, symObjAddr: 0x2060, symBinAddr: 0x10000EC24, symSize: 0x18 }
  - { offset: 0x15DFD, size: 0x8, addend: 0x0, symName: __RNvXs1_NtNtNtCs9f3LFPSIp77_4core4iter8adapters3zipINtB5_3ZipINtNtB7_5cycle5CycleINtNtNtBb_3ops5range5RangexEEB1g_EINtB5_7ZipImplBW_B1g_E3newCs5UlKWfykTNt_17build_script_main, symObjAddr: 0x19D4, symBinAddr: 0x10000E598, symSize: 0x38 }
  - { offset: 0x15E49, size: 0x8, addend: 0x0, symName: __RNvXs1_NtNtNtCs9f3LFPSIp77_4core4iter8adapters3zipINtB5_3ZipINtNtB7_5cycle5CycleINtNtNtBb_3ops5range5RangexEEB1g_EINtB5_7ZipImplBW_B1g_E4nextCs5UlKWfykTNt_17build_script_main, symObjAddr: 0x1A0C, symBinAddr: 0x10000E5D0, symSize: 0xF8 }
  - { offset: 0x15FA0, size: 0x8, addend: 0x0, symName: __RNvXs1_NtNtNtCs9f3LFPSIp77_4core4iter8adapters3zipINtB5_3ZipINtNtB7_5cycle5CycleINtNtNtBb_3ops5range5RangeyEEB1g_EINtB5_7ZipImplBW_B1g_E3newCs5UlKWfykTNt_17build_script_main, symObjAddr: 0x1B04, symBinAddr: 0x10000E6C8, symSize: 0x38 }
  - { offset: 0x15FEC, size: 0x8, addend: 0x0, symName: __RNvXs1_NtNtNtCs9f3LFPSIp77_4core4iter8adapters3zipINtB5_3ZipINtNtB7_5cycle5CycleINtNtNtBb_3ops5range5RangeyEEB1g_EINtB5_7ZipImplBW_B1g_E4nextCs5UlKWfykTNt_17build_script_main, symObjAddr: 0x1B3C, symBinAddr: 0x10000E700, symSize: 0xF8 }
  - { offset: 0x161F7, size: 0x8, addend: 0x0, symName: __RNvXs_NtNtNtCs9f3LFPSIp77_4core4iter8adapters3zipINtB4_3ZipINtNtB6_5cycle5CycleINtNtNtBa_3ops5range5RangexEEB1f_ENtNtNtB8_6traits8iterator8Iterator4nextCs5UlKWfykTNt_17build_script_main, symObjAddr: 0x21E8, symBinAddr: 0x10000EDAC, symSize: 0x24 }
  - { offset: 0x16235, size: 0x8, addend: 0x0, symName: __RNvXs_NtNtNtCs9f3LFPSIp77_4core4iter8adapters3zipINtB4_3ZipINtNtB6_5cycle5CycleINtNtNtBa_3ops5range5RangeyEEB1f_ENtNtNtB8_6traits8iterator8Iterator4nextCs5UlKWfykTNt_17build_script_main, symObjAddr: 0x220C, symBinAddr: 0x10000EDD0, symSize: 0x24 }
  - { offset: 0x162D9, size: 0x8, addend: 0x0, symName: __RNvXs9_NtNtNtCs9f3LFPSIp77_4core4iter8adapters4fuseINtB5_4FuseINtNtB7_3map3MapINtNtNtBb_3ops5range5RangexENCNvNtCs5UlKWfykTNt_17build_script_main5tests11build_testss_0EEINtB5_8FuseImplBY_E4nextB1M_, symObjAddr: 0x1EEC, symBinAddr: 0x10000EAB0, symSize: 0x84 }
  - { offset: 0x163AB, size: 0x8, addend: 0x0, symName: __RNvXs9_NtNtNtCs9f3LFPSIp77_4core4iter8adapters4fuseINtB5_4FuseINtNtB7_3map3MapINtNtNtBb_3ops5range5RangeyENCNvNtCs5UlKWfykTNt_17build_script_main5tests11build_tests0EEINtB5_8FuseImplBY_E4nextB1M_, symObjAddr: 0x1F70, symBinAddr: 0x10000EB34, symSize: 0x84 }
  - { offset: 0x164D5, size: 0x8, addend: 0x0, symName: __RNCINvNvNtNtNtNtCs9f3LFPSIp77_4core4iter6traits8iterator8Iterator4find5checkRNtNtCs5UlKWfykTNt_17build_script_main2op2OpQNCNvB1f_14write_op_macros1_0E0B1h_, symObjAddr: 0x8CC, symBinAddr: 0x10000D5E0, symSize: 0x74 }
  - { offset: 0x1653D, size: 0x8, addend: 0x0, symName: __RNCINvNvNtNtNtNtCs9f3LFPSIp77_4core4iter6traits8iterator8Iterator8for_each4callNtNtCsdze8u8oDPro_5alloc6string6StringNCINvMsi_NtB1j_3vecINtB20_3VecB1f_E14extend_trustedINtNtNtBc_8adapters3map3MapINtNtNtBe_5slice4iter4IterNtNtCs5UlKWfykTNt_17build_script_main2op2OpENCNvB3z_14write_op_macros5_0EE0E0B3B_, symObjAddr: 0x940, symBinAddr: 0x10000D654, symSize: 0x3C }
  - { offset: 0x165A4, size: 0x8, addend: 0x0, symName: __RNvXs_NtNtNtCs9f3LFPSIp77_4core4iter6traits7collectINtNtNtB8_8adapters3zip3ZipINtNtBS_5cycle5CycleINtNtNtBa_3ops5range5RangexEEB1y_ENtB4_12IntoIterator9into_iterCs5UlKWfykTNt_17build_script_main, symObjAddr: 0x2188, symBinAddr: 0x10000ED4C, symSize: 0x30 }
  - { offset: 0x165DC, size: 0x8, addend: 0x0, symName: __RNvXs_NtNtNtCs9f3LFPSIp77_4core4iter6traits7collectINtNtNtB8_8adapters3zip3ZipINtNtBS_5cycle5CycleINtNtNtBa_3ops5range5RangeyEEB1y_ENtB4_12IntoIterator9into_iterCs5UlKWfykTNt_17build_script_main, symObjAddr: 0x21B8, symBinAddr: 0x10000ED7C, symSize: 0x30 }
  - { offset: 0x16AB2, size: 0x8, addend: 0x0, symName: __RNvNvXs2_NtNtCs9f3LFPSIp77_4core5slice5indexINtNtNtBb_3ops5range5RangejEINtB7_10SliceIndexSpE13get_unchecked18precondition_checkCs5UlKWfykTNt_17build_script_main, symObjAddr: 0x1660, symBinAddr: 0x10000E224, symSize: 0x60 }
  - { offset: 0x16AFC, size: 0x8, addend: 0x0, symName: __RNvNvXs2_NtNtCs9f3LFPSIp77_4core5slice5indexINtNtNtBb_3ops5range5RangejEINtB7_10SliceIndexSpE17get_unchecked_mut18precondition_checkCs5UlKWfykTNt_17build_script_main, symObjAddr: 0x16C0, symBinAddr: 0x10000E284, symSize: 0x60 }
  - { offset: 0x16CD8, size: 0x8, addend: 0x0, symName: __RNvMs1_NtCs9f3LFPSIp77_4core3numx3absCs5UlKWfykTNt_17build_script_main, symObjAddr: 0xA84, symBinAddr: 0x10000D798, symSize: 0x6C }
  - { offset: 0x16D06, size: 0x8, addend: 0x0, symName: __RNvMs1_NtCs9f3LFPSIp77_4core3numx3powCs5UlKWfykTNt_17build_script_main, symObjAddr: 0xAF0, symBinAddr: 0x10000D804, symSize: 0x1FC }
  - { offset: 0x16D75, size: 0x8, addend: 0x0, symName: __RNvMs7_NtCs9f3LFPSIp77_4core3numy3powCs5UlKWfykTNt_17build_script_main, symObjAddr: 0xCEC, symBinAddr: 0x10000DA00, symSize: 0x1E8 }
  - { offset: 0x16E28, size: 0x8, addend: 0x0, symName: __RNvNvMs7_NtCs9f3LFPSIp77_4core3numy13unchecked_add18precondition_checkCs5UlKWfykTNt_17build_script_main, symObjAddr: 0x15C8, symBinAddr: 0x10000E18C, symSize: 0x4C }
  - { offset: 0x16E8B, size: 0x8, addend: 0x0, symName: __RNvMs9_NtCs9f3LFPSIp77_4core3numj11checked_addCs5UlKWfykTNt_17build_script_main, symObjAddr: 0xED4, symBinAddr: 0x10000DBE8, symSize: 0x78 }
  - { offset: 0x16F12, size: 0x8, addend: 0x0, symName: __RNvNvMs9_NtCs9f3LFPSIp77_4core3numj13unchecked_add18precondition_checkCs5UlKWfykTNt_17build_script_main, symObjAddr: 0x1614, symBinAddr: 0x10000E1D8, symSize: 0x4C }
  - { offset: 0x16FBE, size: 0x8, addend: 0x0, symName: __RNvNvMs6_NtCs9f3LFPSIp77_4core3numm13unchecked_add18precondition_checkCs5UlKWfykTNt_17build_script_main, symObjAddr: 0x157C, symBinAddr: 0x10000E140, symSize: 0x4C }
  - { offset: 0x17031, size: 0x8, addend: 0x0, symName: __RNvXNtCs9f3LFPSIp77_4core7convertReINtB2_5AsRefNtNtCs27l1GJC5rMQ_3std4path4PathE6as_refCs5UlKWfykTNt_17build_script_main, symObjAddr: 0x1720, symBinAddr: 0x10000E2E4, symSize: 0x30 }
  - { offset: 0x17071, size: 0x8, addend: 0x0, symName: __RNvXNtCs9f3LFPSIp77_4core7convertReINtB2_5AsRefNtNtNtCs27l1GJC5rMQ_3std3ffi6os_str5OsStrE6as_refCs5UlKWfykTNt_17build_script_main, symObjAddr: 0x1750, symBinAddr: 0x10000E314, symSize: 0x30 }
  - { offset: 0x17199, size: 0x8, addend: 0x0, symName: __RNvYNtNtCs27l1GJC5rMQ_3std3env8VarErrorNtNtCs9f3LFPSIp77_4core5error5Error5causeCs5UlKWfykTNt_17build_script_main, symObjAddr: 0x2F40, symBinAddr: 0x10000FB04, symSize: 0x24 }
  - { offset: 0x171CE, size: 0x8, addend: 0x0, symName: __RNvYNtNtCs27l1GJC5rMQ_3std3env8VarErrorNtNtCs9f3LFPSIp77_4core5error5Error6sourceCs5UlKWfykTNt_17build_script_main, symObjAddr: 0x2F64, symBinAddr: 0x10000FB28, symSize: 0x24 }
  - { offset: 0x17203, size: 0x8, addend: 0x0, symName: __RNvYNtNtCs27l1GJC5rMQ_3std3env8VarErrorNtNtCs9f3LFPSIp77_4core5error5Error7provideCs5UlKWfykTNt_17build_script_main, symObjAddr: 0x2F88, symBinAddr: 0x10000FB4C, symSize: 0x18 }
  - { offset: 0x17242, size: 0x8, addend: 0x0, symName: __RNvYNtNtCs27l1GJC5rMQ_3std3env8VarErrorNtNtCs9f3LFPSIp77_4core5error5Error7type_idCs5UlKWfykTNt_17build_script_main, symObjAddr: 0x2FA0, symBinAddr: 0x10000FB64, symSize: 0x58 }
  - { offset: 0x175FC, size: 0x8, addend: 0x0, symName: __RINvMNtCs27l1GJC5rMQ_3std2fsNtB3_4File6createRNtNtB5_4path7PathBufECs5UlKWfykTNt_17build_script_main, symObjAddr: 0x0, symBinAddr: 0x10000CD14, symSize: 0xE8 }
  - { offset: 0x17827, size: 0x8, addend: 0x0, symName: __RINvMNtCs9f3LFPSIp77_4core6optionINtB3_6OptionReE11map_or_elseNtNtCsdze8u8oDPro_5alloc6string6StringNCNvNtB12_3fmt6format0NvYeNtNtB12_6borrow7ToOwned8to_ownedECs5UlKWfykTNt_17build_script_main, symObjAddr: 0xE8, symBinAddr: 0x10000CDFC, symSize: 0xCC }
  - { offset: 0x178B7, size: 0x8, addend: 0x0, symName: __RINvMNtCs9f3LFPSIp77_4core6optionINtB3_6OptionyE7or_elseNCNvXs_NtNtNtB5_4iter8adapters5chainINtBZ_5ChainIB1t_INtNtNtB5_3ops5range5RangeyEINtNtB11_3map3MapIB1K_mENCNvCs5UlKWfykTNt_17build_script_main5uints0EEIB2c_B2s_NCB2B_s_0EENtNtNtB13_6traits8iterator8Iterator4next0EB2D_, symObjAddr: 0x1B4, symBinAddr: 0x10000CEC8, symSize: 0xC0 }
  - { offset: 0x17926, size: 0x8, addend: 0x0, symName: __RINvMNtCs9f3LFPSIp77_4core6optionINtB3_6OptionyE7or_elseNCNvXs_NtNtNtB5_4iter8adapters5chainINtBZ_5ChainINtNtNtB5_3ops5range5RangeyEINtNtB11_3map3MapIB1F_mENCNvCs5UlKWfykTNt_17build_script_main5uints0EENtNtNtB13_6traits8iterator8Iterator4next0EB2y_, symObjAddr: 0x274, symBinAddr: 0x10000CF88, symSize: 0xC0 }
  - { offset: 0x179BC, size: 0x8, addend: 0x0, symName: __RINvMsc_NtCs27l1GJC5rMQ_3std2fsNtB6_11OpenOptions4openRNtNtB8_4path4PathECs5UlKWfykTNt_17build_script_main, symObjAddr: 0x368, symBinAddr: 0x10000D07C, symSize: 0x74 }
  - { offset: 0x17C50, size: 0x8, addend: 0x0, symName: __RNvMNtNtNtCs27l1GJC5rMQ_3std2io8buffered9bufwriterINtB2_9BufWriterRNtNtB8_2fs4FileE13with_capacityCs5UlKWfykTNt_17build_script_main, symObjAddr: 0x9C4, symBinAddr: 0x10000D6D8, symSize: 0x90 }
  - { offset: 0x17CE2, size: 0x8, addend: 0x0, symName: __RNvMNtNtNtCs27l1GJC5rMQ_3std2io8buffered9bufwriterINtB2_9BufWriterRNtNtB8_2fs4FileE3newCs5UlKWfykTNt_17build_script_main, symObjAddr: 0xA54, symBinAddr: 0x10000D768, symSize: 0x30 }
  - { offset: 0x17E04, size: 0x8, addend: 0x0, symName: __RNvMs_NtNtNtCs27l1GJC5rMQ_3std2io8buffered9bufwriterINtB4_9BufWriterRNtNtBa_2fs4FileE14write_all_coldCs5UlKWfykTNt_17build_script_main, symObjAddr: 0xF4C, symBinAddr: 0x1000A7BD4, symSize: 0x150 }
  - { offset: 0x181B4, size: 0x8, addend: 0x0, symName: __RNvMs_NtNtNtCs27l1GJC5rMQ_3std2io8buffered9bufwriterINtB4_9BufWriterRNtNtBa_2fs4FileE25write_to_buffer_uncheckedCs5UlKWfykTNt_17build_script_main, symObjAddr: 0x109C, symBinAddr: 0x10000DC60, symSize: 0xF8 }
  - { offset: 0x185AE, size: 0x8, addend: 0x0, symName: __RNvMs_NtNtNtCs27l1GJC5rMQ_3std2io8buffered9bufwriterINtB4_9BufWriterRNtNtBa_2fs4FileE9flush_bufCs5UlKWfykTNt_17build_script_main, symObjAddr: 0x1194, symBinAddr: 0x10000DD58, symSize: 0x314 }
  - { offset: 0x1946B, size: 0x8, addend: 0x0, symName: __RINvNtCs27l1GJC5rMQ_3std2rt10lang_startuECs5UlKWfykTNt_17build_script_main, symObjAddr: 0x0, symBinAddr: 0x10000FED4, symSize: 0x6C }
  - { offset: 0x194A2, size: 0x8, addend: 0x0, symName: __RNCINvNtCs27l1GJC5rMQ_3std2rt10lang_startuE0Cs5UlKWfykTNt_17build_script_main, symObjAddr: 0x1C54, symBinAddr: 0x100011B28, symSize: 0x3C }
  - { offset: 0x19515, size: 0x8, addend: 0x0, symName: __RINvNtCs27l1GJC5rMQ_3std2rt10lang_startuECs5UlKWfykTNt_17build_script_main, symObjAddr: 0x0, symBinAddr: 0x10000FED4, symSize: 0x6C }
  - { offset: 0x1972B, size: 0x8, addend: 0x0, symName: __RNCNvXs1_NtNtNtCs27l1GJC5rMQ_3std2io5error14repr_bitpackedNtB7_4ReprNtNtNtCs9f3LFPSIp77_4core3ops4drop4Drop4drop0Cs5UlKWfykTNt_17build_script_main, symObjAddr: 0x1E38, symBinAddr: 0x100011D0C, symSize: 0x34 }
  - { offset: 0x197E0, size: 0x8, addend: 0x0, symName: __RNvXs1_NtNtNtCs27l1GJC5rMQ_3std2io5error14repr_bitpackedNtB5_4ReprNtNtNtCs9f3LFPSIp77_4core3ops4drop4Drop4dropCs5UlKWfykTNt_17build_script_main, symObjAddr: 0x2914, symBinAddr: 0x1000127E8, symSize: 0x38 }
  - { offset: 0x19809, size: 0x8, addend: 0x0, symName: __RINvNtNtNtCs27l1GJC5rMQ_3std2io5error14repr_bitpacked11decode_reprINtNtCsdze8u8oDPro_5alloc5boxed3BoxNtB4_6CustomENCNvXs1_B2_NtB2_4ReprNtNtNtCs9f3LFPSIp77_4core3ops4drop4Drop4drop0ECs5UlKWfykTNt_17build_script_main, symObjAddr: 0x1704, symBinAddr: 0x1000115D8, symSize: 0x234 }
  - { offset: 0x19AE3, size: 0x8, addend: 0x0, symName: __RNCNvMs0_NtNtNtCs27l1GJC5rMQ_3std2io5error14repr_bitpackedNtB7_4Repr4data0Cs5UlKWfykTNt_17build_script_main, symObjAddr: 0x1E24, symBinAddr: 0x100011CF8, symSize: 0x14 }
  - { offset: 0x19B1B, size: 0x8, addend: 0x0, symName: __RINvNtNtNtCs27l1GJC5rMQ_3std2io5error14repr_bitpacked11decode_reprRNtB4_6CustomNCNvMs0_B2_NtB2_4Repr4data0ECs5UlKWfykTNt_17build_script_main, symObjAddr: 0x1938, symBinAddr: 0x10001180C, symSize: 0x234 }
  - { offset: 0x19DE4, size: 0x8, addend: 0x0, symName: __RNvNtNtNtCs27l1GJC5rMQ_3std2io5error14repr_bitpacked14kind_from_primCs5UlKWfykTNt_17build_script_main, symObjAddr: 0x21D0, symBinAddr: 0x1000120A4, symSize: 0x608 }
  - { offset: 0x1A7BF, size: 0x8, addend: 0x0, symName: __RNvXsT_NtCs27l1GJC5rMQ_3std7processuNtB5_11Termination6reportCs5UlKWfykTNt_17build_script_main, symObjAddr: 0x2B90, symBinAddr: 0x100012A64, symSize: 0x10 }
  - { offset: 0x1A8C8, size: 0x8, addend: 0x0, symName: __RNvXs3_NtNtCs27l1GJC5rMQ_3std3ffi6os_strNtB5_8OsStringINtNtNtCs9f3LFPSIp77_4core3ops5index5IndexNtNtBV_5range9RangeFullE5indexCs5UlKWfykTNt_17build_script_main, symObjAddr: 0x2AD0, symBinAddr: 0x1000129A4, symSize: 0x90 }
  - { offset: 0x1AA66, size: 0x8, addend: 0x0, symName: __RNvXsT_NtNtCs27l1GJC5rMQ_3std3ffi6os_streINtNtCs9f3LFPSIp77_4core7convert5AsRefNtB5_5OsStrE6as_refCs5UlKWfykTNt_17build_script_main, symObjAddr: 0x2BA0, symBinAddr: 0x100012A74, symSize: 0x30 }
  - { offset: 0x1AD78, size: 0x8, addend: 0x0, symName: __RNvXsP_NtCs9f3LFPSIp77_4core3fmtRNtNtNtCs27l1GJC5rMQ_3std3ffi6os_str8OsStringNtB5_5Debug3fmtCs5UlKWfykTNt_17build_script_main, symObjAddr: 0x2B60, symBinAddr: 0x100012A34, symSize: 0x30 }
  - { offset: 0x1BB76, size: 0x8, addend: 0x0, symName: __RNvNvNtCs9f3LFPSIp77_4core3ptr13read_volatile18precondition_checkCs5UlKWfykTNt_17build_script_main, symObjAddr: 0x2828, symBinAddr: 0x1000126FC, symSize: 0xEC }
  - { offset: 0x1C866, size: 0x8, addend: 0x0, symName: __RNvXs2_NtNtNtCs9f3LFPSIp77_4core3ops8function5implsQNCINvNtCsdze8u8oDPro_5alloc3str17join_generic_copyehNtNtBV_6string6StringEs_0INtB7_6FnOnceTRB1E_EE9call_onceCs5UlKWfykTNt_17build_script_main, symObjAddr: 0x2AA4, symBinAddr: 0x100012978, symSize: 0x2C }
  - { offset: 0x1CEBD, size: 0x8, addend: 0x0, symName: __RINvXs1_NtNtNtCs9f3LFPSIp77_4core4iter8adapters6filterINtB6_6FilterINtNtNtBc_5slice4iter4IterNtNtCs5UlKWfykTNt_17build_script_main2op2OpENCNvB1v_14write_op_macros0_0ENtNtNtBa_6traits8iterator8Iterator8try_folduNCINvNvB2E_4find5checkRB1t_QNCB2d_s1_0E0INtNtNtBc_3ops12control_flow11ControlFlowB3I_EEB1x_, symObjAddr: 0x1B6C, symBinAddr: 0x100011A40, symSize: 0x3C }
  - { offset: 0x1CF32, size: 0x8, addend: 0x0, symName: __RNvXs1_NtNtNtCs9f3LFPSIp77_4core4iter8adapters6filterINtB5_6FilterIBQ_INtNtNtBb_5slice4iter4IterNtNtCs5UlKWfykTNt_17build_script_main2op2OpENCNvB1y_14write_op_macros0_0ENCB2g_s1_0ENtNtNtB9_6traits8iterator8Iterator4nextB1A_, symObjAddr: 0x294C, symBinAddr: 0x100012820, symSize: 0x2C }
  - { offset: 0x1CF70, size: 0x8, addend: 0x0, symName: __RNvXs1_NtNtNtCs9f3LFPSIp77_4core4iter8adapters6filterINtB5_6FilterINtNtNtBb_5slice4iter4IterNtNtCs5UlKWfykTNt_17build_script_main2op2OpENCNvB1u_14write_op_macro0ENtNtNtB9_6traits8iterator8Iterator4nextB1w_, symObjAddr: 0x2978, symBinAddr: 0x10001284C, symSize: 0x2C }
  - { offset: 0x1CFAE, size: 0x8, addend: 0x0, symName: __RNvXs1_NtNtNtCs9f3LFPSIp77_4core4iter8adapters6filterINtB5_6FilterINtNtNtBb_5slice4iter4IterNtNtCs5UlKWfykTNt_17build_script_main2op2OpENCNvB1u_14write_op_macros2_0ENtNtNtB9_6traits8iterator8Iterator4nextB1w_, symObjAddr: 0x29A4, symBinAddr: 0x100012878, symSize: 0x2C }
  - { offset: 0x1CFEC, size: 0x8, addend: 0x0, symName: __RNvXs1_NtNtNtCs9f3LFPSIp77_4core4iter8adapters6filterINtB5_6FilterINtNtNtBb_5slice4iter4IterNtNtCs5UlKWfykTNt_17build_script_main2op2OpENCNvB1u_14write_op_macros3_0ENtNtNtB9_6traits8iterator8Iterator4nextB1w_, symObjAddr: 0x29D0, symBinAddr: 0x1000128A4, symSize: 0x2C }
  - { offset: 0x1D02A, size: 0x8, addend: 0x0, symName: __RNvXs1_NtNtNtCs9f3LFPSIp77_4core4iter8adapters6filterINtB5_6FilterINtNtNtBb_5slice4iter4IterNtNtCs5UlKWfykTNt_17build_script_main2op2OpENCNvB1u_14write_op_macros4_0ENtNtNtB9_6traits8iterator8Iterator4nextB1w_, symObjAddr: 0x29FC, symBinAddr: 0x1000128D0, symSize: 0x2C }
  - { offset: 0x1D068, size: 0x8, addend: 0x0, symName: __RNvXs1_NtNtNtCs9f3LFPSIp77_4core4iter8adapters6filterINtB5_6FilterINtNtNtBb_5slice4iter4IterNtNtCs5UlKWfykTNt_17build_script_main2op2OpENCNvB1u_14write_op_macros_0ENtNtNtB9_6traits8iterator8Iterator4nextB1w_, symObjAddr: 0x2A28, symBinAddr: 0x1000128FC, symSize: 0x2C }
  - { offset: 0x1D13E, size: 0x8, addend: 0x0, symName: __RNCINvNtNtNtCs9f3LFPSIp77_4core4iter8adapters6filter15filter_try_foldRNtNtCs5UlKWfykTNt_17build_script_main2op2OpuINtNtNtBa_3ops12control_flow11ControlFlowB15_ENCNvB18_14write_op_macros0_0NCINvNvNtNtNtB8_6traits8iterator8Iterator4find5checkB15_QNCB2A_s1_0E0E0B1a_, symObjAddr: 0x1D10, symBinAddr: 0x100011BE4, symSize: 0xDC }
  - { offset: 0x1D362, size: 0x8, addend: 0x0, symName: __RINvYINtNtNtNtCs9f3LFPSIp77_4core4iter8adapters6filter6FilterINtNtNtBc_5slice4iter4IterNtNtCs5UlKWfykTNt_17build_script_main2op2OpENCNvB1p_14write_op_macros0_0ENtNtNtBa_6traits8iterator8Iterator4findQNCB27_s1_0EB1r_, symObjAddr: 0x1BA8, symBinAddr: 0x100011A7C, symSize: 0x7C }
  - { offset: 0x1D3DD, size: 0x8, addend: 0x0, symName: __RINvYINtNtNtNtCs9f3LFPSIp77_4core4iter8adapters6filter6FilterINtNtNtBc_5slice4iter4IterNtNtCs5UlKWfykTNt_17build_script_main2op2OpENCNvB1p_14write_op_macros0_0ENtNtNtBa_6traits8iterator8Iterator6filterNCB27_s1_0EB1r_, symObjAddr: 0x1C24, symBinAddr: 0x100011AF8, symSize: 0x30 }
  - { offset: 0x1D47D, size: 0x8, addend: 0x0, symName: __RNvXs_NtNtNtCs9f3LFPSIp77_4core4iter6traits7collectINtNtNtB8_8adapters6filter6FilterIBO_INtNtNtBa_5slice4iter4IterNtNtCs5UlKWfykTNt_17build_script_main2op2OpENCNvB1Q_14write_op_macros0_0ENCB2y_s1_0ENtB4_12IntoIterator9into_iterB1S_, symObjAddr: 0x2C5C, symBinAddr: 0x100012B30, symSize: 0x18 }
  - { offset: 0x1D4B4, size: 0x8, addend: 0x0, symName: __RNvXs_NtNtNtCs9f3LFPSIp77_4core4iter6traits7collectINtNtNtB8_8adapters6filter6FilterINtNtNtBa_5slice4iter4IterNtNtCs5UlKWfykTNt_17build_script_main2op2OpENCNvB1M_14write_op_macro0ENtB4_12IntoIterator9into_iterB1O_, symObjAddr: 0x2C74, symBinAddr: 0x100012B48, symSize: 0x1C }
  - { offset: 0x1D4EB, size: 0x8, addend: 0x0, symName: __RNvXs_NtNtNtCs9f3LFPSIp77_4core4iter6traits7collectINtNtNtB8_8adapters6filter6FilterINtNtNtBa_5slice4iter4IterNtNtCs5UlKWfykTNt_17build_script_main2op2OpENCNvB1M_14write_op_macros2_0ENtB4_12IntoIterator9into_iterB1O_, symObjAddr: 0x2C90, symBinAddr: 0x100012B64, symSize: 0x1C }
  - { offset: 0x1D522, size: 0x8, addend: 0x0, symName: __RNvXs_NtNtNtCs9f3LFPSIp77_4core4iter6traits7collectINtNtNtB8_8adapters6filter6FilterINtNtNtBa_5slice4iter4IterNtNtCs5UlKWfykTNt_17build_script_main2op2OpENCNvB1M_14write_op_macros3_0ENtB4_12IntoIterator9into_iterB1O_, symObjAddr: 0x2CAC, symBinAddr: 0x100012B80, symSize: 0x1C }
  - { offset: 0x1D559, size: 0x8, addend: 0x0, symName: __RNvXs_NtNtNtCs9f3LFPSIp77_4core4iter6traits7collectINtNtNtB8_8adapters6filter6FilterINtNtNtBa_5slice4iter4IterNtNtCs5UlKWfykTNt_17build_script_main2op2OpENCNvB1M_14write_op_macros4_0ENtB4_12IntoIterator9into_iterB1O_, symObjAddr: 0x2CC8, symBinAddr: 0x100012B9C, symSize: 0x1C }
  - { offset: 0x1D590, size: 0x8, addend: 0x0, symName: __RNvXs_NtNtNtCs9f3LFPSIp77_4core4iter6traits7collectINtNtNtB8_8adapters6filter6FilterINtNtNtBa_5slice4iter4IterNtNtCs5UlKWfykTNt_17build_script_main2op2OpENCNvB1M_14write_op_macros_0ENtB4_12IntoIterator9into_iterB1O_, symObjAddr: 0x2CE4, symBinAddr: 0x100012BB8, symSize: 0x1C }
  - { offset: 0x1D677, size: 0x8, addend: 0x0, symName: __RNvNvMNtNtCs9f3LFPSIp77_4core5alloc6layoutNtB4_6Layout25from_size_align_unchecked18precondition_checkCs5UlKWfykTNt_17build_script_main, symObjAddr: 0x27D8, symBinAddr: 0x1000126AC, symSize: 0x50 }
  - { offset: 0x1DC69, size: 0x8, addend: 0x0, symName: __RNvNtCsdze8u8oDPro_5alloc5alloc12alloc_zeroedCs5UlKWfykTNt_17build_script_main, symObjAddr: 0x2028, symBinAddr: 0x100011EFC, symSize: 0x80 }
  - { offset: 0x1DD36, size: 0x8, addend: 0x0, symName: __RNvXs_NtCsdze8u8oDPro_5alloc5allocNtB4_6GlobalNtNtCs9f3LFPSIp77_4core5alloc9Allocator10deallocateCs5UlKWfykTNt_17build_script_main, symObjAddr: 0x2BD0, symBinAddr: 0x100012AA4, symSize: 0x8C }
  - { offset: 0x1DE1B, size: 0x8, addend: 0x0, symName: __RNvNtCsdze8u8oDPro_5alloc5alloc15exchange_mallocCs5UlKWfykTNt_17build_script_main, symObjAddr: 0x20A8, symBinAddr: 0x100011F7C, symSize: 0xA8 }
  - { offset: 0x1DF2A, size: 0x8, addend: 0x0, symName: __RNvNtCsdze8u8oDPro_5alloc5alloc5allocCs5UlKWfykTNt_17build_script_main, symObjAddr: 0x2150, symBinAddr: 0x100012024, symSize: 0x80 }
  - { offset: 0x1E1E6, size: 0x8, addend: 0x0, symName: __RNCNCINvNtCsdze8u8oDPro_5alloc3str17join_generic_copyehNtNtB8_6string6StringE00Cs5UlKWfykTNt_17build_script_main, symObjAddr: 0x1DEC, symBinAddr: 0x100011CC0, symSize: 0x38 }
  - { offset: 0x1E23F, size: 0x8, addend: 0x0, symName: __RNCINvNtCsdze8u8oDPro_5alloc3str17join_generic_copyehNtNtB6_6string6StringEs_0Cs5UlKWfykTNt_17build_script_main, symObjAddr: 0x1C90, symBinAddr: 0x100011B64, symSize: 0x80 }
  - { offset: 0x1E30D, size: 0x8, addend: 0x0, symName: __RINvNtCsdze8u8oDPro_5alloc3str17join_generic_copyehNtNtB4_6string6StringECs5UlKWfykTNt_17build_script_main, symObjAddr: 0x6C, symBinAddr: 0x10000FF40, symSize: 0x1698 }
  - { offset: 0x1F8A9, size: 0x8, addend: 0x0, symName: __RNvXs2_NtCsdze8u8oDPro_5alloc3streNtNtB7_6borrow7ToOwned8to_ownedCs5UlKWfykTNt_17build_script_main, symObjAddr: 0x2A54, symBinAddr: 0x100012928, symSize: 0x50 }
  - { offset: 0x20608, size: 0x8, addend: 0x0, symName: __RNvMNtCsdze8u8oDPro_5alloc5allocNtB2_6Global10alloc_implCs5UlKWfykTNt_17build_script_main, symObjAddr: 0x1E6C, symBinAddr: 0x100011D40, symSize: 0x1BC }
  - { offset: 0x20DD8, size: 0x8, addend: 0x0, symName: __RNvXs2_NtNtNtCs9f3LFPSIp77_4core3ops8function5implsQNCNvNtCs5UlKWfykTNt_17build_script_main5tests11build_tests0INtB7_6FnOnceTyEE9call_onceBU_, symObjAddr: 0x0, symBinAddr: 0x100012BD4, symSize: 0x2C }
  - { offset: 0x2130F, size: 0x8, addend: 0x0, symName: __RNvXs2_NtNtNtCs9f3LFPSIp77_4core3ops8function5implsQNCNvNtCs5UlKWfykTNt_17build_script_main5tests11build_tests0INtB7_6FnOnceTyEE9call_onceBU_, symObjAddr: 0x0, symBinAddr: 0x100012BD4, symSize: 0x2C }
  - { offset: 0x2135E, size: 0x8, addend: 0x0, symName: __RNvXs2_NtNtNtCs9f3LFPSIp77_4core3ops8function5implsQNCNvNtCs5UlKWfykTNt_17build_script_main5tests11build_testss_0INtB7_6FnOnceTxEE9call_onceBU_, symObjAddr: 0x2C, symBinAddr: 0x100012C00, symSize: 0x2C }
  - { offset: 0x222DB, size: 0x8, addend: 0x0, symName: __RNvNtCs5UlKWfykTNt_17build_script_main5tests4gcdi, symObjAddr: 0x58, symBinAddr: 0x100012C2C, symSize: 0xEC }
  - { offset: 0x22332, size: 0x8, addend: 0x0, symName: __RNvNtCs5UlKWfykTNt_17build_script_main5tests4gcdu, symObjAddr: 0x144, symBinAddr: 0x100012D18, symSize: 0xA4 }
  - { offset: 0x22389, size: 0x8, addend: 0x0, symName: __RNvNtCs5UlKWfykTNt_17build_script_main5tests4sign, symObjAddr: 0x1E8, symBinAddr: 0x100012DBC, symSize: 0xB8 }
  - { offset: 0x223BA, size: 0x8, addend: 0x0, symName: __RNvXNtCs5UlKWfykTNt_17build_script_main5testsNtB2_8UIntTestNtNtCs9f3LFPSIp77_4core3fmt7Display3fmt, symObjAddr: 0x2A0, symBinAddr: 0x100012E74, symSize: 0x16A4 }
  - { offset: 0x23134, size: 0x8, addend: 0x0, symName: __RNvNtCs5UlKWfykTNt_17build_script_main5tests16uint_binary_test, symObjAddr: 0x1944, symBinAddr: 0x100014518, symSize: 0x5C }
  - { offset: 0x2318F, size: 0x8, addend: 0x0, symName: __RNvXs_NtCs5UlKWfykTNt_17build_script_main5testsNtB4_13IntBinaryTestNtNtCs9f3LFPSIp77_4core3fmt7Display3fmt, symObjAddr: 0x19A0, symBinAddr: 0x100014574, symSize: 0x12C8 }
  - { offset: 0x23D2A, size: 0x8, addend: 0x0, symName: __RNvNtCs5UlKWfykTNt_17build_script_main5tests15int_binary_test, symObjAddr: 0x2C68, symBinAddr: 0x10001583C, symSize: 0x48 }
  - { offset: 0x23D85, size: 0x8, addend: 0x0, symName: __RNvXs0_NtCs5UlKWfykTNt_17build_script_main5testsNtB5_12IntUnaryTestNtNtCs9f3LFPSIp77_4core3fmt7Display3fmt, symObjAddr: 0x2CB0, symBinAddr: 0x100015884, symSize: 0xD58 }
  - { offset: 0x245EA, size: 0x8, addend: 0x0, symName: __RNvNtCs5UlKWfykTNt_17build_script_main5tests14int_unary_test, symObjAddr: 0x3A08, symBinAddr: 0x1000165DC, symSize: 0x40 }
  - { offset: 0x24632, size: 0x8, addend: 0x0, symName: __RNvNtCs5UlKWfykTNt_17build_script_main5tests13uint_cmp_test, symObjAddr: 0x3A48, symBinAddr: 0x10001661C, symSize: 0x7A8 }
  - { offset: 0x24B4B, size: 0x8, addend: 0x0, symName: __RNvNtCs5UlKWfykTNt_17build_script_main5tests12int_cmp_test, symObjAddr: 0x41F0, symBinAddr: 0x100016DC4, symSize: 0xBAC }
  - { offset: 0x253A9, size: 0x8, addend: 0x0, symName: __RNvNtCs5UlKWfykTNt_17build_script_main5tests11build_tests, symObjAddr: 0x4D9C, symBinAddr: 0x100017970, symSize: 0x2E60 }
  - { offset: 0x263D8, size: 0x8, addend: 0x0, symName: __RNCNvNtCs5UlKWfykTNt_17build_script_main5tests11build_tests0B5_, symObjAddr: 0x7BFC, symBinAddr: 0x10001A7D0, symSize: 0xAC }
  - { offset: 0x26415, size: 0x8, addend: 0x0, symName: __RNCNvNtCs5UlKWfykTNt_17build_script_main5tests11build_testss_0B5_, symObjAddr: 0x7CA8, symBinAddr: 0x10001A87C, symSize: 0xE8 }
  - { offset: 0x26F86, size: 0x8, addend: 0x0, symName: ___llvm_profile_set_timestamp, symObjAddr: 0x0, symBinAddr: 0x10001A978, symSize: 0x28 }
  - { offset: 0x26F8E, size: 0x8, addend: 0x0, symName: ___llvm_profile_global_timestamp, symObjAddr: 0x130, symBinAddr: 0x100100618, symSize: 0x0 }
  - { offset: 0x26FA3, size: 0x8, addend: 0x0, symName: ___llvm_profile_global_timestamp, symObjAddr: 0x130, symBinAddr: 0x100100618, symSize: 0x0 }
  - { offset: 0x27028, size: 0x8, addend: 0x0, symName: ___llvm_profile_set_timestamp, symObjAddr: 0x0, symBinAddr: 0x10001A978, symSize: 0x28 }
  - { offset: 0x27030, size: 0x8, addend: 0x0, symName: ___llvm_profile_get_magic, symObjAddr: 0x28, symBinAddr: 0x10001A9A0, symSize: 0x14 }
  - { offset: 0x27053, size: 0x8, addend: 0x0, symName: ___llvm_profile_get_magic, symObjAddr: 0x28, symBinAddr: 0x10001A9A0, symSize: 0x14 }
  - { offset: 0x2705B, size: 0x8, addend: 0x0, symName: ___llvm_profile_set_dumped, symObjAddr: 0x3C, symBinAddr: 0x10001A9B4, symSize: 0x8 }
  - { offset: 0x27074, size: 0x8, addend: 0x0, symName: ___llvm_profile_set_dumped, symObjAddr: 0x3C, symBinAddr: 0x10001A9B4, symSize: 0x8 }
  - { offset: 0x2707C, size: 0x8, addend: 0x0, symName: ___llvm_profile_get_num_padding_bytes, symObjAddr: 0x44, symBinAddr: 0x10001A9BC, symSize: 0xC }
  - { offset: 0x27090, size: 0x8, addend: 0x0, symName: ___llvm_profile_get_num_padding_bytes, symObjAddr: 0x44, symBinAddr: 0x10001A9BC, symSize: 0xC }
  - { offset: 0x27098, size: 0x8, addend: 0x0, symName: ___llvm_profile_get_version, symObjAddr: 0x50, symBinAddr: 0x10001A9C8, symSize: 0xC }
  - { offset: 0x270C1, size: 0x8, addend: 0x0, symName: ___llvm_profile_get_version, symObjAddr: 0x50, symBinAddr: 0x10001A9C8, symSize: 0xC }
  - { offset: 0x270C9, size: 0x8, addend: 0x0, symName: ___llvm_profile_reset_counters, symObjAddr: 0x5C, symBinAddr: 0x10001A9D4, symSize: 0xD4 }
  - { offset: 0x270E8, size: 0x8, addend: 0x0, symName: ___llvm_profile_reset_counters, symObjAddr: 0x5C, symBinAddr: 0x10001A9D4, symSize: 0xD4 }
  - { offset: 0x270F0, size: 0x8, addend: 0x0, symName: ___llvm_profile_global_timestamp, symObjAddr: 0x130, symBinAddr: 0x100100618, symSize: 0x0 }
  - { offset: 0x27323, size: 0x8, addend: 0x0, symName: ___llvm_profile_is_continuous_mode_enabled, symObjAddr: 0x0, symBinAddr: 0x10001AAA8, symSize: 0x20 }
  - { offset: 0x27340, size: 0x8, addend: 0x0, symName: __MergedGlobals, symObjAddr: 0x3E20, symBinAddr: 0x1001077C8, symSize: 0x0 }
  - { offset: 0x27362, size: 0x8, addend: 0x0, symName: __MergedGlobals, symObjAddr: 0x3E20, symBinAddr: 0x1001077C8, symSize: 0x0 }
  - { offset: 0x27392, size: 0x8, addend: 0x0, symName: ___llvm_profile_is_continuous_mode_enabled, symObjAddr: 0x0, symBinAddr: 0x10001AAA8, symSize: 0x20 }
  - { offset: 0x2739A, size: 0x8, addend: 0x0, symName: ___llvm_profile_enable_continuous_mode, symObjAddr: 0x20, symBinAddr: 0x10001AAC8, symSize: 0x10 }
  - { offset: 0x273AA, size: 0x8, addend: 0x0, symName: ___llvm_profile_enable_continuous_mode, symObjAddr: 0x20, symBinAddr: 0x10001AAC8, symSize: 0x10 }
  - { offset: 0x273B2, size: 0x8, addend: 0x0, symName: ___llvm_profile_disable_continuous_mode, symObjAddr: 0x30, symBinAddr: 0x10001AAD8, symSize: 0xC }
  - { offset: 0x273C7, size: 0x8, addend: 0x0, symName: ___llvm_profile_disable_continuous_mode, symObjAddr: 0x30, symBinAddr: 0x10001AAD8, symSize: 0xC }
  - { offset: 0x273CF, size: 0x8, addend: 0x0, symName: ___llvm_profile_set_page_size, symObjAddr: 0x3C, symBinAddr: 0x10001AAE4, symSize: 0xC }
  - { offset: 0x273E4, size: 0x8, addend: 0x0, symName: ___llvm_profile_set_page_size, symObjAddr: 0x3C, symBinAddr: 0x10001AAE4, symSize: 0xC }
  - { offset: 0x273EC, size: 0x8, addend: 0x0, symName: ___llvm_profile_get_size_for_buffer, symObjAddr: 0x48, symBinAddr: 0x10001AAF0, symSize: 0xC4 }
  - { offset: 0x2740F, size: 0x8, addend: 0x0, symName: ___llvm_profile_get_size_for_buffer, symObjAddr: 0x48, symBinAddr: 0x10001AAF0, symSize: 0xC4 }
  - { offset: 0x27417, size: 0x8, addend: 0x0, symName: ___llvm_profile_get_size_for_buffer_internal, symObjAddr: 0x10C, symBinAddr: 0x10001ABB4, symSize: 0x1C0 }
  - { offset: 0x2787A, size: 0x8, addend: 0x0, symName: ___llvm_profile_get_size_for_buffer_internal, symObjAddr: 0x10C, symBinAddr: 0x10001ABB4, symSize: 0x1C0 }
  - { offset: 0x27882, size: 0x8, addend: 0x0, symName: ___llvm_profile_get_num_data, symObjAddr: 0x2CC, symBinAddr: 0x10001AD74, symSize: 0x10 }
  - { offset: 0x27C71, size: 0x8, addend: 0x0, symName: ___llvm_profile_get_num_data, symObjAddr: 0x2CC, symBinAddr: 0x10001AD74, symSize: 0x10 }
  - { offset: 0x27C79, size: 0x8, addend: 0x0, symName: ___llvm_profile_get_data_size, symObjAddr: 0x2DC, symBinAddr: 0x10001AD84, symSize: 0x10 }
  - { offset: 0x27CAA, size: 0x8, addend: 0x0, symName: ___llvm_profile_get_data_size, symObjAddr: 0x2DC, symBinAddr: 0x10001AD84, symSize: 0x10 }
  - { offset: 0x27CB2, size: 0x8, addend: 0x0, symName: ___llvm_profile_get_num_vtable, symObjAddr: 0x2EC, symBinAddr: 0x10001AD94, symSize: 0x18 }
  - { offset: 0x27CD6, size: 0x8, addend: 0x0, symName: ___llvm_profile_get_data_size, symObjAddr: 0x2DC, symBinAddr: 0x10001AD84, symSize: 0x10 }
  - { offset: 0x27D08, size: 0x8, addend: 0x0, symName: ___llvm_profile_get_num_vtable, symObjAddr: 0x2EC, symBinAddr: 0x10001AD94, symSize: 0x18 }
  - { offset: 0x27D10, size: 0x8, addend: 0x0, symName: ___llvm_profile_get_vtable_section_size, symObjAddr: 0x304, symBinAddr: 0x10001ADAC, symSize: 0x8 }
  - { offset: 0x27D62, size: 0x8, addend: 0x0, symName: ___llvm_profile_get_vtable_section_size, symObjAddr: 0x304, symBinAddr: 0x10001ADAC, symSize: 0x8 }
  - { offset: 0x27D6A, size: 0x8, addend: 0x0, symName: ___llvm_profile_counter_entry_size, symObjAddr: 0x30C, symBinAddr: 0x10001ADB4, symSize: 0x1C }
  - { offset: 0x27D8B, size: 0x8, addend: 0x0, symName: ___llvm_profile_counter_entry_size, symObjAddr: 0x30C, symBinAddr: 0x10001ADB4, symSize: 0x1C }
  - { offset: 0x27D93, size: 0x8, addend: 0x0, symName: ___llvm_profile_get_num_counters, symObjAddr: 0x328, symBinAddr: 0x10001ADD0, symSize: 0x48 }
  - { offset: 0x27DA3, size: 0x8, addend: 0x0, symName: ___llvm_profile_get_num_counters, symObjAddr: 0x328, symBinAddr: 0x10001ADD0, symSize: 0x48 }
  - { offset: 0x27DAB, size: 0x8, addend: 0x0, symName: ___llvm_profile_get_counters_size, symObjAddr: 0x370, symBinAddr: 0x10001AE18, symSize: 0x5C }
  - { offset: 0x27E10, size: 0x8, addend: 0x0, symName: ___llvm_profile_get_counters_size, symObjAddr: 0x370, symBinAddr: 0x10001AE18, symSize: 0x5C }
  - { offset: 0x27E18, size: 0x8, addend: 0x0, symName: ___llvm_profile_get_num_bitmap_bytes, symObjAddr: 0x3CC, symBinAddr: 0x10001AE74, symSize: 0x8 }
  - { offset: 0x27EBC, size: 0x8, addend: 0x0, symName: ___llvm_profile_get_num_bitmap_bytes, symObjAddr: 0x3CC, symBinAddr: 0x10001AE74, symSize: 0x8 }
  - { offset: 0x27EC4, size: 0x8, addend: 0x0, symName: ___llvm_profile_get_name_size, symObjAddr: 0x3D4, symBinAddr: 0x10001AE7C, symSize: 0x8 }
  - { offset: 0x27EE5, size: 0x8, addend: 0x0, symName: ___llvm_profile_get_name_size, symObjAddr: 0x3D4, symBinAddr: 0x10001AE7C, symSize: 0x8 }
  - { offset: 0x27EED, size: 0x8, addend: 0x0, symName: ___llvm_profile_get_padding_sizes_for_counters, symObjAddr: 0x3DC, symBinAddr: 0x10001AE84, symSize: 0x15C }
  - { offset: 0x27F0E, size: 0x8, addend: 0x0, symName: ___llvm_profile_get_padding_sizes_for_counters, symObjAddr: 0x3DC, symBinAddr: 0x10001AE84, symSize: 0x15C }
  - { offset: 0x27F16, size: 0x8, addend: 0x0, symName: _initBufferWriter, symObjAddr: 0x538, symBinAddr: 0x10001AFE0, symSize: 0x10 }
  - { offset: 0x2806A, size: 0x8, addend: 0x0, symName: _initBufferWriter, symObjAddr: 0x538, symBinAddr: 0x10001AFE0, symSize: 0x10 }
  - { offset: 0x28072, size: 0x8, addend: 0x0, symName: ___llvm_profile_write_buffer, symObjAddr: 0x548, symBinAddr: 0x10001AFF0, symSize: 0x30 }
  - { offset: 0x2816F, size: 0x8, addend: 0x0, symName: ___llvm_profile_write_buffer, symObjAddr: 0x548, symBinAddr: 0x10001AFF0, symSize: 0x30 }
  - { offset: 0x28177, size: 0x8, addend: 0x0, symName: ___llvm_profile_write_buffer_internal, symObjAddr: 0x578, symBinAddr: 0x10001B020, symSize: 0x40 }
  - { offset: 0x281D5, size: 0x8, addend: 0x0, symName: ___llvm_profile_write_buffer_internal, symObjAddr: 0x578, symBinAddr: 0x10001B020, symSize: 0x40 }
  - { offset: 0x282D9, size: 0x8, addend: 0x0, symName: _lprofCreateBufferIOInternal, symObjAddr: 0x0, symBinAddr: 0x10001B060, symSize: 0x74 }
  - { offset: 0x28304, size: 0x8, addend: 0x0, symName: ___llvm_profile_register_write_file_atexit, symObjAddr: 0xBF8, symBinAddr: 0x10001BC58, symSize: 0x44 }
  - { offset: 0x2830C, size: 0x8, addend: 0x0, symName: ___llvm_profile_set_filename, symObjAddr: 0xC3C, symBinAddr: 0x10001BC9C, symSize: 0x38 }
  - { offset: 0x28329, size: 0x8, addend: 0x0, symName: ___llvm_profile_register_write_file_atexit.HasBeenRegistered, symObjAddr: 0xA4E8, symBinAddr: 0x1001077D0, symSize: 0x0 }
  - { offset: 0x2834C, size: 0x8, addend: 0x0, symName: __MergedGlobals, symObjAddr: 0xA4F0, symBinAddr: 0x1001077D8, symSize: 0x0 }
  - { offset: 0x28468, size: 0x8, addend: 0x0, symName: __MergedGlobals, symObjAddr: 0xA4F0, symBinAddr: 0x1001077D8, symSize: 0x0 }
  - { offset: 0x28698, size: 0x8, addend: 0x0, symName: __MergedGlobals, symObjAddr: 0xA4F0, symBinAddr: 0x1001077D8, symSize: 0x0 }
  - { offset: 0x287CD, size: 0x8, addend: 0x0, symName: _lprofCreateBufferIOInternal, symObjAddr: 0x0, symBinAddr: 0x10001B060, symSize: 0x74 }
  - { offset: 0x287D5, size: 0x8, addend: 0x0, symName: ___llvm_profile_get_path_prefix, symObjAddr: 0x74, symBinAddr: 0x10001B0D4, symSize: 0x154 }
  - { offset: 0x2885A, size: 0x8, addend: 0x0, symName: ___llvm_profile_get_path_prefix, symObjAddr: 0x74, symBinAddr: 0x10001B0D4, symSize: 0x154 }
  - { offset: 0x28862, size: 0x8, addend: 0x0, symName: _getCurFilenameLength, symObjAddr: 0x1C8, symBinAddr: 0x10001B228, symSize: 0x108 }
  - { offset: 0x288CD, size: 0x8, addend: 0x0, symName: _getCurFilenameLength, symObjAddr: 0x1C8, symBinAddr: 0x10001B228, symSize: 0x108 }
  - { offset: 0x288D5, size: 0x8, addend: 0x0, symName: _getCurFilename, symObjAddr: 0x2D0, symBinAddr: 0x10001B330, symSize: 0x2B8 }
  - { offset: 0x28954, size: 0x8, addend: 0x0, symName: _getCurFilename, symObjAddr: 0x2D0, symBinAddr: 0x10001B330, symSize: 0x2B8 }
  - { offset: 0x2895C, size: 0x8, addend: 0x0, symName: ___llvm_profile_get_filename, symObjAddr: 0x588, symBinAddr: 0x10001B5E8, symSize: 0x88 }
  - { offset: 0x28A79, size: 0x8, addend: 0x0, symName: ___llvm_profile_get_filename, symObjAddr: 0x588, symBinAddr: 0x10001B5E8, symSize: 0x88 }
  - { offset: 0x28A81, size: 0x8, addend: 0x0, symName: ___llvm_profile_initialize_file, symObjAddr: 0x610, symBinAddr: 0x10001B670, symSize: 0x78 }
  - { offset: 0x28AE8, size: 0x8, addend: 0x0, symName: ___llvm_profile_initialize_file, symObjAddr: 0x610, symBinAddr: 0x10001B670, symSize: 0x78 }
  - { offset: 0x28AF0, size: 0x8, addend: 0x0, symName: _parseAndSetFilename, symObjAddr: 0x688, symBinAddr: 0x10001B6E8, symSize: 0x4B8 }
  - { offset: 0x28C21, size: 0x8, addend: 0x0, symName: _parseAndSetFilename, symObjAddr: 0x688, symBinAddr: 0x10001B6E8, symSize: 0x4B8 }
  - { offset: 0x28C29, size: 0x8, addend: 0x0, symName: ___llvm_profile_initialize, symObjAddr: 0xB40, symBinAddr: 0x10001BBA0, symSize: 0xB8 }
  - { offset: 0x28E08, size: 0x8, addend: 0x0, symName: ___llvm_profile_initialize, symObjAddr: 0xB40, symBinAddr: 0x10001BBA0, symSize: 0xB8 }
  - { offset: 0x28E10, size: 0x8, addend: 0x0, symName: ___llvm_profile_register_write_file_atexit, symObjAddr: 0xBF8, symBinAddr: 0x10001BC58, symSize: 0x44 }
  - { offset: 0x28E84, size: 0x8, addend: 0x0, symName: ___llvm_profile_set_filename, symObjAddr: 0xC3C, symBinAddr: 0x10001BC9C, symSize: 0x38 }
  - { offset: 0x28E8C, size: 0x8, addend: 0x0, symName: ___llvm_profile_write_file, symObjAddr: 0xC74, symBinAddr: 0x10001BCD4, symSize: 0x1B4 }
  - { offset: 0x28EB3, size: 0x8, addend: 0x0, symName: ___llvm_profile_write_file, symObjAddr: 0xC74, symBinAddr: 0x10001BCD4, symSize: 0x1B4 }
  - { offset: 0x28EBB, size: 0x8, addend: 0x0, symName: _writeFile, symObjAddr: 0xE28, symBinAddr: 0x10001BE88, symSize: 0x294 }
  - { offset: 0x2900A, size: 0x8, addend: 0x0, symName: _writeFile, symObjAddr: 0xE28, symBinAddr: 0x10001BE88, symSize: 0x294 }
  - { offset: 0x29012, size: 0x8, addend: 0x0, symName: ___llvm_profile_dump, symObjAddr: 0x10BC, symBinAddr: 0x10001C11C, symSize: 0x6C }
  - { offset: 0x29174, size: 0x8, addend: 0x0, symName: ___llvm_profile_dump, symObjAddr: 0x10BC, symBinAddr: 0x10001C11C, symSize: 0x6C }
  - { offset: 0x2917C, size: 0x8, addend: 0x0, symName: ___llvm_orderfile_write_file, symObjAddr: 0x1128, symBinAddr: 0x10001C188, symSize: 0x260 }
  - { offset: 0x29235, size: 0x8, addend: 0x0, symName: ___llvm_orderfile_write_file, symObjAddr: 0x1128, symBinAddr: 0x10001C188, symSize: 0x260 }
  - { offset: 0x2923D, size: 0x8, addend: 0x0, symName: ___llvm_orderfile_dump, symObjAddr: 0x1388, symBinAddr: 0x10001C3E8, symSize: 0x4 }
  - { offset: 0x29335, size: 0x8, addend: 0x0, symName: ___llvm_orderfile_dump, symObjAddr: 0x1388, symBinAddr: 0x10001C3E8, symSize: 0x4 }
  - { offset: 0x2933D, size: 0x8, addend: 0x0, symName: _writeFileWithoutReturn, symObjAddr: 0x138C, symBinAddr: 0x10001C3EC, symSize: 0x4 }
  - { offset: 0x29365, size: 0x8, addend: 0x0, symName: _writeFileWithoutReturn, symObjAddr: 0x138C, symBinAddr: 0x10001C3EC, symSize: 0x4 }
  - { offset: 0x2936D, size: 0x8, addend: 0x0, symName: ___llvm_profile_set_file_object, symObjAddr: 0x1390, symBinAddr: 0x10001C3F0, symSize: 0x1E4 }
  - { offset: 0x293B2, size: 0x8, addend: 0x0, symName: ___llvm_profile_set_file_object, symObjAddr: 0x1390, symBinAddr: 0x10001C3F0, symSize: 0x1E4 }
  - { offset: 0x293BA, size: 0x8, addend: 0x0, symName: _getProfileFileSizeForMerging, symObjAddr: 0x1574, symBinAddr: 0x10001C5D4, symSize: 0x110 }
  - { offset: 0x294D5, size: 0x8, addend: 0x0, symName: _getProfileFileSizeForMerging, symObjAddr: 0x1574, symBinAddr: 0x10001C5D4, symSize: 0x110 }
  - { offset: 0x294DD, size: 0x8, addend: 0x0, symName: _mmapProfileForMerging, symObjAddr: 0x1684, symBinAddr: 0x10001C6E4, symSize: 0xBC }
  - { offset: 0x29518, size: 0x8, addend: 0x0, symName: _mmapProfileForMerging, symObjAddr: 0x1684, symBinAddr: 0x10001C6E4, symSize: 0xBC }
  - { offset: 0x29520, size: 0x8, addend: 0x0, symName: _mmapForContinuousMode, symObjAddr: 0x1740, symBinAddr: 0x10001C7A0, symSize: 0x264 }
  - { offset: 0x2956B, size: 0x8, addend: 0x0, symName: _mmapForContinuousMode, symObjAddr: 0x1740, symBinAddr: 0x10001C7A0, symSize: 0x264 }
  - { offset: 0x29573, size: 0x8, addend: 0x0, symName: _fileWriter, symObjAddr: 0x19A4, symBinAddr: 0x10001CA04, symSize: 0x140 }
  - { offset: 0x29732, size: 0x8, addend: 0x0, symName: _fileWriter, symObjAddr: 0x19A4, symBinAddr: 0x10001CA04, symSize: 0x140 }
  - { offset: 0x2973A, size: 0x8, addend: 0x0, symName: _truncateCurrentFile, symObjAddr: 0x1AE4, symBinAddr: 0x10001CB44, symSize: 0xD8 }
  - { offset: 0x297F9, size: 0x8, addend: 0x0, symName: _truncateCurrentFile, symObjAddr: 0x1AE4, symBinAddr: 0x10001CB44, symSize: 0xD8 }
  - { offset: 0x29801, size: 0x8, addend: 0x0, symName: _initializeProfileForContinuousMode, symObjAddr: 0x1BBC, symBinAddr: 0x10001CC1C, symSize: 0x25C }
  - { offset: 0x29899, size: 0x8, addend: 0x0, symName: _initializeProfileForContinuousMode, symObjAddr: 0x1BBC, symBinAddr: 0x10001CC1C, symSize: 0x25C }
  - { offset: 0x298A1, size: 0x8, addend: 0x0, symName: _createProfileDir, symObjAddr: 0x1E18, symBinAddr: 0x10001CE78, symSize: 0xA4 }
  - { offset: 0x29A64, size: 0x8, addend: 0x0, symName: _createProfileDir, symObjAddr: 0x1E18, symBinAddr: 0x10001CE78, symSize: 0xA4 }
  - { offset: 0x29A6C, size: 0x8, addend: 0x0, symName: _parseAndSetFilename.cold.1, symObjAddr: 0x1EBC, symBinAddr: 0x1000A7D24, symSize: 0x24 }
  - { offset: 0x29AC5, size: 0x8, addend: 0x0, symName: _parseAndSetFilename.cold.1, symObjAddr: 0x1EBC, symBinAddr: 0x1000A7D24, symSize: 0x24 }
  - { offset: 0x29ACD, size: 0x8, addend: 0x0, symName: _parseAndSetFilename.cold.2, symObjAddr: 0x1EE0, symBinAddr: 0x1000A7D48, symSize: 0x24 }
  - { offset: 0x29AEF, size: 0x8, addend: 0x0, symName: _parseAndSetFilename.cold.2, symObjAddr: 0x1EE0, symBinAddr: 0x1000A7D48, symSize: 0x24 }
  - { offset: 0x29B09, size: 0x8, addend: 0x0, symName: _parseAndSetFilename.cold.2, symObjAddr: 0x1EE0, symBinAddr: 0x1000A7D48, symSize: 0x24 }
  - { offset: 0x29B19, size: 0x8, addend: 0x0, symName: _parseAndSetFilename.cold.2, symObjAddr: 0x1EE0, symBinAddr: 0x1000A7D48, symSize: 0x24 }
  - { offset: 0x29CDD, size: 0x8, addend: 0x0, symName: _lprofProfileDumped, symObjAddr: 0x0, symBinAddr: 0x10001CF1C, symSize: 0xC }
  - { offset: 0x29CFA, size: 0x8, addend: 0x0, symName: _ProfileDumped, symObjAddr: 0x4E0, symBinAddr: 0x1001078A8, symSize: 0x0 }
  - { offset: 0x29D0A, size: 0x8, addend: 0x0, symName: _lprofProfileDumped, symObjAddr: 0x0, symBinAddr: 0x10001CF1C, symSize: 0xC }
  - { offset: 0x29D12, size: 0x8, addend: 0x0, symName: _lprofSetProfileDumped, symObjAddr: 0xC, symBinAddr: 0x10001CF28, symSize: 0xC }
  - { offset: 0x29D2B, size: 0x8, addend: 0x0, symName: _lprofSetProfileDumped, symObjAddr: 0xC, symBinAddr: 0x10001CF28, symSize: 0xC }
  - { offset: 0x29D7D, size: 0x8, addend: 0x0, symName: _lprofGetLoadModuleSignature, symObjAddr: 0x0, symBinAddr: 0x10001CF34, symSize: 0xD0 }
  - { offset: 0x29DAA, size: 0x8, addend: 0x0, symName: _VPMergeHook, symBinAddr: 0x100107750, symSize: 0x0 }
  - { offset: 0x2A00E, size: 0x8, addend: 0x0, symName: _lprofGetLoadModuleSignature, symObjAddr: 0x0, symBinAddr: 0x10001CF34, symSize: 0xD0 }
  - { offset: 0x2A016, size: 0x8, addend: 0x0, symName: ___llvm_profile_check_compatibility, symObjAddr: 0xD0, symBinAddr: 0x10001D004, symSize: 0x1CC }
  - { offset: 0x2A085, size: 0x8, addend: 0x0, symName: ___llvm_profile_check_compatibility, symObjAddr: 0xD0, symBinAddr: 0x10001D004, symSize: 0x1CC }
  - { offset: 0x2A08D, size: 0x8, addend: 0x0, symName: ___llvm_profile_merge_from_buffer, symObjAddr: 0x29C, symBinAddr: 0x10001D1D0, symSize: 0x48C }
  - { offset: 0x2A165, size: 0x8, addend: 0x0, symName: ___llvm_profile_merge_from_buffer, symObjAddr: 0x29C, symBinAddr: 0x10001D1D0, symSize: 0x48C }
  - { offset: 0x2A3C9, size: 0x8, addend: 0x0, symName: _lprofMergeValueProfData, symObjAddr: 0x0, symBinAddr: 0x10001D65C, symSize: 0xF0 }
  - { offset: 0x2A3DA, size: 0x8, addend: 0x0, symName: _lprofMergeValueProfData, symObjAddr: 0x0, symBinAddr: 0x10001D65C, symSize: 0xF0 }
  - { offset: 0x2A6A5, size: 0x8, addend: 0x0, symName: ___llvm_profile_begin_data, symObjAddr: 0x0, symBinAddr: 0x10001D74C, symSize: 0xC }
  - { offset: 0x2A6C4, size: 0x8, addend: 0x0, symName: _CurrentVNode, symObjAddr: 0xC0, symBinAddr: 0x100100620, symSize: 0x0 }
  - { offset: 0x2A740, size: 0x8, addend: 0x0, symName: _EndVNode, symObjAddr: 0xC8, symBinAddr: 0x100100628, symSize: 0x0 }
  - { offset: 0x2A749, size: 0x8, addend: 0x0, symName: ___llvm_profile_begin_data, symObjAddr: 0x0, symBinAddr: 0x10001D74C, symSize: 0xC }
  - { offset: 0x2A751, size: 0x8, addend: 0x0, symName: ___llvm_profile_end_data, symObjAddr: 0xC, symBinAddr: 0x10001D758, symSize: 0xC }
  - { offset: 0x2A76A, size: 0x8, addend: 0x0, symName: ___llvm_profile_end_data, symObjAddr: 0xC, symBinAddr: 0x10001D758, symSize: 0xC }
  - { offset: 0x2A772, size: 0x8, addend: 0x0, symName: ___llvm_profile_begin_names, symObjAddr: 0x18, symBinAddr: 0x10001D764, symSize: 0xC }
  - { offset: 0x2A78B, size: 0x8, addend: 0x0, symName: ___llvm_profile_begin_names, symObjAddr: 0x18, symBinAddr: 0x10001D764, symSize: 0xC }
  - { offset: 0x2A793, size: 0x8, addend: 0x0, symName: ___llvm_profile_end_names, symObjAddr: 0x24, symBinAddr: 0x10001D770, symSize: 0xC }
  - { offset: 0x2A7AC, size: 0x8, addend: 0x0, symName: ___llvm_profile_end_names, symObjAddr: 0x24, symBinAddr: 0x10001D770, symSize: 0xC }
  - { offset: 0x2A7B4, size: 0x8, addend: 0x0, symName: ___llvm_profile_begin_counters, symObjAddr: 0x30, symBinAddr: 0x10001D77C, symSize: 0xC }
  - { offset: 0x2A7CD, size: 0x8, addend: 0x0, symName: ___llvm_profile_begin_counters, symObjAddr: 0x30, symBinAddr: 0x10001D77C, symSize: 0xC }
  - { offset: 0x2A7D5, size: 0x8, addend: 0x0, symName: ___llvm_profile_end_counters, symObjAddr: 0x3C, symBinAddr: 0x10001D788, symSize: 0xC }
  - { offset: 0x2A7EE, size: 0x8, addend: 0x0, symName: ___llvm_profile_end_counters, symObjAddr: 0x3C, symBinAddr: 0x10001D788, symSize: 0xC }
  - { offset: 0x2A7F6, size: 0x8, addend: 0x0, symName: ___llvm_profile_begin_bitmap, symObjAddr: 0x48, symBinAddr: 0x10001D794, symSize: 0xC }
  - { offset: 0x2A80F, size: 0x8, addend: 0x0, symName: ___llvm_profile_begin_bitmap, symObjAddr: 0x48, symBinAddr: 0x10001D794, symSize: 0xC }
  - { offset: 0x2A817, size: 0x8, addend: 0x0, symName: ___llvm_profile_end_bitmap, symObjAddr: 0x54, symBinAddr: 0x10001D7A0, symSize: 0xC }
  - { offset: 0x2A830, size: 0x8, addend: 0x0, symName: ___llvm_profile_end_bitmap, symObjAddr: 0x54, symBinAddr: 0x10001D7A0, symSize: 0xC }
  - { offset: 0x2A838, size: 0x8, addend: 0x0, symName: ___llvm_profile_begin_vtables, symObjAddr: 0x60, symBinAddr: 0x10001D7AC, symSize: 0xC }
  - { offset: 0x2A852, size: 0x8, addend: 0x0, symName: ___llvm_profile_begin_vtables, symObjAddr: 0x60, symBinAddr: 0x10001D7AC, symSize: 0xC }
  - { offset: 0x2A85A, size: 0x8, addend: 0x0, symName: ___llvm_profile_end_vtables, symObjAddr: 0x6C, symBinAddr: 0x10001D7B8, symSize: 0xC }
  - { offset: 0x2A873, size: 0x8, addend: 0x0, symName: ___llvm_profile_end_vtables, symObjAddr: 0x6C, symBinAddr: 0x10001D7B8, symSize: 0xC }
  - { offset: 0x2A87B, size: 0x8, addend: 0x0, symName: ___llvm_profile_begin_vtabnames, symObjAddr: 0x78, symBinAddr: 0x10001D7C4, symSize: 0xC }
  - { offset: 0x2A893, size: 0x8, addend: 0x0, symName: ___llvm_profile_begin_vtabnames, symObjAddr: 0x78, symBinAddr: 0x10001D7C4, symSize: 0xC }
  - { offset: 0x2A89B, size: 0x8, addend: 0x0, symName: ___llvm_profile_end_vtabnames, symObjAddr: 0x84, symBinAddr: 0x10001D7D0, symSize: 0xC }
  - { offset: 0x2A8B4, size: 0x8, addend: 0x0, symName: ___llvm_profile_end_vtabnames, symObjAddr: 0x84, symBinAddr: 0x10001D7D0, symSize: 0xC }
  - { offset: 0x2A8BC, size: 0x8, addend: 0x0, symName: ___llvm_profile_begin_orderfile, symObjAddr: 0x90, symBinAddr: 0x10001D7DC, symSize: 0xC }
  - { offset: 0x2A8D6, size: 0x8, addend: 0x0, symName: ___llvm_profile_begin_orderfile, symObjAddr: 0x90, symBinAddr: 0x10001D7DC, symSize: 0xC }
  - { offset: 0x2A8DE, size: 0x8, addend: 0x0, symName: ___llvm_profile_begin_vnodes, symObjAddr: 0x9C, symBinAddr: 0x10001D7E8, symSize: 0xC }
  - { offset: 0x2A8F7, size: 0x8, addend: 0x0, symName: ___llvm_profile_begin_vnodes, symObjAddr: 0x9C, symBinAddr: 0x10001D7E8, symSize: 0xC }
  - { offset: 0x2A8FF, size: 0x8, addend: 0x0, symName: ___llvm_profile_end_vnodes, symObjAddr: 0xA8, symBinAddr: 0x10001D7F4, symSize: 0xC }
  - { offset: 0x2A918, size: 0x8, addend: 0x0, symName: ___llvm_profile_end_vnodes, symObjAddr: 0xA8, symBinAddr: 0x10001D7F4, symSize: 0xC }
  - { offset: 0x2A920, size: 0x8, addend: 0x0, symName: ___llvm_write_binary_ids, symObjAddr: 0xB4, symBinAddr: 0x10001D800, symSize: 0x8 }
  - { offset: 0x2A938, size: 0x8, addend: 0x0, symName: ___llvm_write_binary_ids, symObjAddr: 0xB4, symBinAddr: 0x10001D800, symSize: 0x8 }
  - { offset: 0x2ABD7, size: 0x8, addend: 0x0, symName: ___llvm_profile_runtime, symObjAddr: 0x590, symBinAddr: 0x100107758, symSize: 0x0 }
  - { offset: 0x2AC0E, size: 0x8, addend: 0x0, symName: ___llvm_profile_recursive_mkdir, symObjAddr: 0x0, symBinAddr: 0x10001D820, symSize: 0x58 }
  - { offset: 0x2AC16, size: 0x8, addend: 0x0, symName: _lprofDirMode, symObjAddr: 0x5A8, symBinAddr: 0x100100630, symSize: 0x0 }
  - { offset: 0x2AC2D, size: 0x8, addend: 0x0, symName: _lprofDirMode, symObjAddr: 0x5A8, symBinAddr: 0x100100630, symSize: 0x0 }
  - { offset: 0x2AC6D, size: 0x8, addend: 0x0, symName: ___llvm_profile_recursive_mkdir, symObjAddr: 0x0, symBinAddr: 0x10001D820, symSize: 0x58 }
  - { offset: 0x2AC75, size: 0x8, addend: 0x0, symName: ___llvm_profile_get_dir_mode, symObjAddr: 0x58, symBinAddr: 0x10001D878, symSize: 0xC }
  - { offset: 0x2ACEB, size: 0x8, addend: 0x0, symName: ___llvm_profile_get_dir_mode, symObjAddr: 0x58, symBinAddr: 0x10001D878, symSize: 0xC }
  - { offset: 0x2ACF3, size: 0x8, addend: 0x0, symName: ___llvm_profile_set_dir_mode, symObjAddr: 0x64, symBinAddr: 0x10001D884, symSize: 0xC }
  - { offset: 0x2AD03, size: 0x8, addend: 0x0, symName: ___llvm_profile_set_dir_mode, symObjAddr: 0x64, symBinAddr: 0x10001D884, symSize: 0xC }
  - { offset: 0x2AD0B, size: 0x8, addend: 0x0, symName: _lprofGetHostName, symObjAddr: 0x70, symBinAddr: 0x10001D890, symSize: 0x80 }
  - { offset: 0x2AD2E, size: 0x8, addend: 0x0, symName: _lprofGetHostName, symObjAddr: 0x70, symBinAddr: 0x10001D890, symSize: 0x80 }
  - { offset: 0x2AD36, size: 0x8, addend: 0x0, symName: _lprofLockFd, symObjAddr: 0xF0, symBinAddr: 0x10001D910, symSize: 0x8C }
  - { offset: 0x2AD8B, size: 0x8, addend: 0x0, symName: _lprofLockFd, symObjAddr: 0xF0, symBinAddr: 0x10001D910, symSize: 0x8C }
  - { offset: 0x2AD93, size: 0x8, addend: 0x0, symName: _lprofUnlockFd, symObjAddr: 0x17C, symBinAddr: 0x10001D99C, symSize: 0x8C }
  - { offset: 0x2ADB5, size: 0x8, addend: 0x0, symName: _lprofUnlockFd, symObjAddr: 0x17C, symBinAddr: 0x10001D99C, symSize: 0x8C }
  - { offset: 0x2ADBD, size: 0x8, addend: 0x0, symName: _lprofLockFileHandle, symObjAddr: 0x208, symBinAddr: 0x10001DA28, symSize: 0x90 }
  - { offset: 0x2AEB7, size: 0x8, addend: 0x0, symName: _lprofLockFileHandle, symObjAddr: 0x208, symBinAddr: 0x10001DA28, symSize: 0x90 }
  - { offset: 0x2AEBF, size: 0x8, addend: 0x0, symName: _lprofUnlockFileHandle, symObjAddr: 0x298, symBinAddr: 0x10001DAB8, symSize: 0x90 }
  - { offset: 0x2AF45, size: 0x8, addend: 0x0, symName: _lprofUnlockFileHandle, symObjAddr: 0x298, symBinAddr: 0x10001DAB8, symSize: 0x90 }
  - { offset: 0x2AF4D, size: 0x8, addend: 0x0, symName: _lprofOpenFileEx, symObjAddr: 0x328, symBinAddr: 0x10001DB48, symSize: 0xD0 }
  - { offset: 0x2AFAD, size: 0x8, addend: 0x0, symName: _lprofOpenFileEx, symObjAddr: 0x328, symBinAddr: 0x10001DB48, symSize: 0xD0 }
  - { offset: 0x2AFB5, size: 0x8, addend: 0x0, symName: _lprofGetPathPrefix, symObjAddr: 0x3F8, symBinAddr: 0x10001DC18, symSize: 0x98 }
  - { offset: 0x2B024, size: 0x8, addend: 0x0, symName: _lprofGetPathPrefix, symObjAddr: 0x3F8, symBinAddr: 0x10001DC18, symSize: 0x98 }
  - { offset: 0x2B02C, size: 0x8, addend: 0x0, symName: _lprofApplyPathPrefix, symObjAddr: 0x490, symBinAddr: 0x10001DCB0, symSize: 0xA8 }
  - { offset: 0x2B086, size: 0x8, addend: 0x0, symName: _lprofApplyPathPrefix, symObjAddr: 0x490, symBinAddr: 0x10001DCB0, symSize: 0xA8 }
  - { offset: 0x2B08E, size: 0x8, addend: 0x0, symName: _lprofFindFirstDirSeparator, symObjAddr: 0x538, symBinAddr: 0x10001DD58, symSize: 0x8 }
  - { offset: 0x2B121, size: 0x8, addend: 0x0, symName: _lprofFindFirstDirSeparator, symObjAddr: 0x538, symBinAddr: 0x10001DD58, symSize: 0x8 }
  - { offset: 0x2B129, size: 0x8, addend: 0x0, symName: _lprofFindLastDirSeparator, symObjAddr: 0x540, symBinAddr: 0x10001DD60, symSize: 0x8 }
  - { offset: 0x2B15F, size: 0x8, addend: 0x0, symName: _lprofFindLastDirSeparator, symObjAddr: 0x540, symBinAddr: 0x10001DD60, symSize: 0x8 }
  - { offset: 0x2B167, size: 0x8, addend: 0x0, symName: _lprofSuspendSigKill, symObjAddr: 0x548, symBinAddr: 0x10001DD68, symSize: 0x8 }
  - { offset: 0x2B19E, size: 0x8, addend: 0x0, symName: _lprofSuspendSigKill, symObjAddr: 0x548, symBinAddr: 0x10001DD68, symSize: 0x8 }
  - { offset: 0x2B1A6, size: 0x8, addend: 0x0, symName: _lprofRestoreSigKill, symObjAddr: 0x550, symBinAddr: 0x10001DD70, symSize: 0x4 }
  - { offset: 0x2B1C0, size: 0x8, addend: 0x0, symName: _lprofRestoreSigKill, symObjAddr: 0x550, symBinAddr: 0x10001DD70, symSize: 0x4 }
  - { offset: 0x2B1C8, size: 0x8, addend: 0x0, symName: _lprofReleaseMemoryPagesToOS, symObjAddr: 0x554, symBinAddr: 0x10001DD74, symSize: 0x54 }
  - { offset: 0x2B23D, size: 0x8, addend: 0x0, symName: _lprofReleaseMemoryPagesToOS, symObjAddr: 0x554, symBinAddr: 0x10001DD74, symSize: 0x54 }
  - { offset: 0x2B245, size: 0x8, addend: 0x0, symName: _lprofDirMode, symObjAddr: 0x5A8, symBinAddr: 0x100100630, symSize: 0x0 }
  - { offset: 0x2B594, size: 0x8, addend: 0x0, symName: _getValueProfRecordHeaderSize, symObjAddr: 0x0, symBinAddr: 0x10001DDC8, symSize: 0xC }
  - { offset: 0x2B5B3, size: 0x8, addend: 0x0, symName: _VPMaxNumValsPerSite, symObjAddr: 0x1740, symBinAddr: 0x100100638, symSize: 0x0 }
  - { offset: 0x2B5EA, size: 0x8, addend: 0x0, symName: _lprofValueProfNodes, symObjAddr: 0x18C0, symBinAddr: 0x100101590, symSize: 0x0 }
  - { offset: 0x2B66D, size: 0x8, addend: 0x0, symName: __MergedGlobals, symObjAddr: 0xEF68, symBinAddr: 0x1001078D8, symSize: 0x0 }
  - { offset: 0x2B694, size: 0x8, addend: 0x0, symName: __MergedGlobals, symObjAddr: 0xEF68, symBinAddr: 0x1001078D8, symSize: 0x0 }
  - { offset: 0x2B6AB, size: 0x8, addend: 0x0, symName: __MergedGlobals, symObjAddr: 0xEF68, symBinAddr: 0x1001078D8, symSize: 0x0 }
  - { offset: 0x2B6CA, size: 0x8, addend: 0x0, symName: _TheVPDataReader, symObjAddr: 0x1748, symBinAddr: 0x100100640, symSize: 0x0 }
  - { offset: 0x2B96A, size: 0x8, addend: 0x0, symName: _RTRecord, symObjAddr: 0xEF40, symBinAddr: 0x1001078B0, symSize: 0x0 }
  - { offset: 0x2BB5E, size: 0x8, addend: 0x0, symName: _getValueProfRecordHeaderSize, symObjAddr: 0x0, symBinAddr: 0x10001DDC8, symSize: 0xC }
  - { offset: 0x2BB66, size: 0x8, addend: 0x0, symName: _getValueProfRecordSize, symObjAddr: 0xC, symBinAddr: 0x10001DDD4, symSize: 0x10 }
  - { offset: 0x2BBB3, size: 0x8, addend: 0x0, symName: _getValueProfRecordSize, symObjAddr: 0xC, symBinAddr: 0x10001DDD4, symSize: 0x10 }
  - { offset: 0x2BBBB, size: 0x8, addend: 0x0, symName: _getValueProfRecordValueData, symObjAddr: 0x1C, symBinAddr: 0x10001DDE4, symSize: 0x14 }
  - { offset: 0x2BBE0, size: 0x8, addend: 0x0, symName: _getValueProfRecordSize, symObjAddr: 0xC, symBinAddr: 0x10001DDD4, symSize: 0x10 }
  - { offset: 0x2BC07, size: 0x8, addend: 0x0, symName: _getValueProfRecordValueData, symObjAddr: 0x1C, symBinAddr: 0x10001DDE4, symSize: 0x14 }
  - { offset: 0x2BC0F, size: 0x8, addend: 0x0, symName: _getValueProfRecordNumValueData, symObjAddr: 0x30, symBinAddr: 0x10001DDF8, symSize: 0x184 }
  - { offset: 0x2BC53, size: 0x8, addend: 0x0, symName: _getValueProfRecordNumValueData, symObjAddr: 0x30, symBinAddr: 0x10001DDF8, symSize: 0x184 }
  - { offset: 0x2BC5B, size: 0x8, addend: 0x0, symName: _getValueProfRecordNext, symObjAddr: 0x1B4, symBinAddr: 0x10001DF7C, symSize: 0x1A4 }
  - { offset: 0x2BCE7, size: 0x8, addend: 0x0, symName: _getValueProfRecordNext, symObjAddr: 0x1B4, symBinAddr: 0x10001DF7C, symSize: 0x1A4 }
  - { offset: 0x2BCEF, size: 0x8, addend: 0x0, symName: _getFirstValueProfRecord, symObjAddr: 0x358, symBinAddr: 0x10001E120, symSize: 0x8 }
  - { offset: 0x2BD56, size: 0x8, addend: 0x0, symName: _getFirstValueProfRecord, symObjAddr: 0x358, symBinAddr: 0x10001E120, symSize: 0x8 }
  - { offset: 0x2BD5E, size: 0x8, addend: 0x0, symName: _getValueProfDataSize, symObjAddr: 0x360, symBinAddr: 0x10001E128, symSize: 0xEC }
  - { offset: 0x2BD78, size: 0x8, addend: 0x0, symName: _getValueProfDataSize, symObjAddr: 0x360, symBinAddr: 0x10001E128, symSize: 0xEC }
  - { offset: 0x2BD80, size: 0x8, addend: 0x0, symName: _serializeValueProfRecordFrom, symObjAddr: 0x44C, symBinAddr: 0x10001E214, symSize: 0x9C }
  - { offset: 0x2BE25, size: 0x8, addend: 0x0, symName: _serializeValueProfRecordFrom, symObjAddr: 0x44C, symBinAddr: 0x10001E214, symSize: 0x9C }
  - { offset: 0x2BE2D, size: 0x8, addend: 0x0, symName: _serializeValueProfDataFrom, symObjAddr: 0x4E8, symBinAddr: 0x10001E2B0, symSize: 0x5CC }
  - { offset: 0x2BFEF, size: 0x8, addend: 0x0, symName: _serializeValueProfDataFrom, symObjAddr: 0x4E8, symBinAddr: 0x10001E2B0, symSize: 0x5CC }
  - { offset: 0x2BFF7, size: 0x8, addend: 0x0, symName: _InstProfClzll, symObjAddr: 0xAB4, symBinAddr: 0x10001E87C, symSize: 0x8 }
  - { offset: 0x2C21A, size: 0x8, addend: 0x0, symName: _InstProfClzll, symObjAddr: 0xAB4, symBinAddr: 0x10001E87C, symSize: 0x8 }
  - { offset: 0x2C222, size: 0x8, addend: 0x0, symName: _InstProfPopcountll, symObjAddr: 0xABC, symBinAddr: 0x10001E884, symSize: 0x14 }
  - { offset: 0x2C23C, size: 0x8, addend: 0x0, symName: _InstProfPopcountll, symObjAddr: 0xABC, symBinAddr: 0x10001E884, symSize: 0x14 }
  - { offset: 0x2C244, size: 0x8, addend: 0x0, symName: _InstrProfGetRangeRepValue, symObjAddr: 0xAD0, symBinAddr: 0x10001E898, symSize: 0x48 }
  - { offset: 0x2C29A, size: 0x8, addend: 0x0, symName: _InstrProfGetRangeRepValue, symObjAddr: 0xAD0, symBinAddr: 0x10001E898, symSize: 0x48 }
  - { offset: 0x2C2A2, size: 0x8, addend: 0x0, symName: _InstrProfIsSingleValRange, symObjAddr: 0xB18, symBinAddr: 0x10001E8E0, symSize: 0x20 }
  - { offset: 0x2C300, size: 0x8, addend: 0x0, symName: _InstrProfIsSingleValRange, symObjAddr: 0xB18, symBinAddr: 0x10001E8E0, symSize: 0x20 }
  - { offset: 0x2C308, size: 0x8, addend: 0x0, symName: _lprofSetupValueProfiler, symObjAddr: 0xB38, symBinAddr: 0x10001E900, symSize: 0x64 }
  - { offset: 0x2C334, size: 0x8, addend: 0x0, symName: _lprofSetupValueProfiler, symObjAddr: 0xB38, symBinAddr: 0x10001E900, symSize: 0x64 }
  - { offset: 0x2C33C, size: 0x8, addend: 0x0, symName: _lprofSetMaxValsPerSite, symObjAddr: 0xB9C, symBinAddr: 0x10001E964, symSize: 0x18 }
  - { offset: 0x2C360, size: 0x8, addend: 0x0, symName: _lprofSetMaxValsPerSite, symObjAddr: 0xB9C, symBinAddr: 0x10001E964, symSize: 0x18 }
  - { offset: 0x2C368, size: 0x8, addend: 0x0, symName: ___llvm_profile_set_num_value_sites, symObjAddr: 0xBB4, symBinAddr: 0x10001E97C, symSize: 0xC }
  - { offset: 0x2C38B, size: 0x8, addend: 0x0, symName: ___llvm_profile_set_num_value_sites, symObjAddr: 0xBB4, symBinAddr: 0x10001E97C, symSize: 0xC }
  - { offset: 0x2C393, size: 0x8, addend: 0x0, symName: ___llvm_profile_iterate_data, symObjAddr: 0xBC0, symBinAddr: 0x10001E988, symSize: 0x8 }
  - { offset: 0x2C3D0, size: 0x8, addend: 0x0, symName: ___llvm_profile_iterate_data, symObjAddr: 0xBC0, symBinAddr: 0x10001E988, symSize: 0x8 }
  - { offset: 0x2C3D8, size: 0x8, addend: 0x0, symName: ___llvm_get_function_addr, symObjAddr: 0xBC8, symBinAddr: 0x10001E990, symSize: 0x8 }
  - { offset: 0x2C401, size: 0x8, addend: 0x0, symName: ___llvm_get_function_addr, symObjAddr: 0xBC8, symBinAddr: 0x10001E990, symSize: 0x8 }
  - { offset: 0x2C409, size: 0x8, addend: 0x0, symName: ___llvm_profile_instrument_target, symObjAddr: 0xBD0, symBinAddr: 0x10001E998, symSize: 0x260 }
  - { offset: 0x2C517, size: 0x8, addend: 0x0, symName: ___llvm_profile_instrument_target, symObjAddr: 0xBD0, symBinAddr: 0x10001E998, symSize: 0x260 }
  - { offset: 0x2C51F, size: 0x8, addend: 0x0, symName: ___llvm_profile_instrument_target_value, symObjAddr: 0xE30, symBinAddr: 0x10001EBF8, symSize: 0x290 }
  - { offset: 0x2C625, size: 0x8, addend: 0x0, symName: ___llvm_profile_instrument_target_value, symObjAddr: 0xE30, symBinAddr: 0x10001EBF8, symSize: 0x290 }
  - { offset: 0x2C62D, size: 0x8, addend: 0x0, symName: ___llvm_profile_instrument_memop, symObjAddr: 0x10C0, symBinAddr: 0x10001EE88, symSize: 0x48 }
  - { offset: 0x2C761, size: 0x8, addend: 0x0, symName: ___llvm_profile_instrument_memop, symObjAddr: 0x10C0, symBinAddr: 0x10001EE88, symSize: 0x48 }
  - { offset: 0x2C769, size: 0x8, addend: 0x0, symName: _lprofGetVPDataReader, symObjAddr: 0x1108, symBinAddr: 0x10001EED0, symSize: 0xC }
  - { offset: 0x2C81B, size: 0x8, addend: 0x0, symName: _lprofGetVPDataReader, symObjAddr: 0x1108, symBinAddr: 0x10001EED0, symSize: 0xC }
  - { offset: 0x2C823, size: 0x8, addend: 0x0, symName: _initializeValueProfRuntimeRecord, symObjAddr: 0x1114, symBinAddr: 0x10001EEDC, symSize: 0x210 }
  - { offset: 0x2C83D, size: 0x8, addend: 0x0, symName: _initializeValueProfRuntimeRecord, symObjAddr: 0x1114, symBinAddr: 0x10001EEDC, symSize: 0x210 }
  - { offset: 0x2C845, size: 0x8, addend: 0x0, symName: _getNumValueDataForSiteWrapper, symObjAddr: 0x1324, symBinAddr: 0x10001F0EC, symSize: 0x14 }
  - { offset: 0x2C955, size: 0x8, addend: 0x0, symName: _getNumValueDataForSiteWrapper, symObjAddr: 0x1324, symBinAddr: 0x10001F0EC, symSize: 0x14 }
  - { offset: 0x2C95D, size: 0x8, addend: 0x0, symName: _getValueProfDataSizeWrapper, symObjAddr: 0x1338, symBinAddr: 0x10001F100, symSize: 0xDC }
  - { offset: 0x2C99A, size: 0x8, addend: 0x0, symName: _getNumValueDataForSiteWrapper, symObjAddr: 0x1324, symBinAddr: 0x10001F0EC, symSize: 0x14 }
  - { offset: 0x2C9C0, size: 0x8, addend: 0x0, symName: _getValueProfDataSizeWrapper, symObjAddr: 0x1338, symBinAddr: 0x10001F100, symSize: 0xDC }
  - { offset: 0x2C9C8, size: 0x8, addend: 0x0, symName: _getNextNValueData, symObjAddr: 0x1414, symBinAddr: 0x10001F1DC, symSize: 0x44 }
  - { offset: 0x2CA5F, size: 0x8, addend: 0x0, symName: _getNextNValueData, symObjAddr: 0x1414, symBinAddr: 0x10001F1DC, symSize: 0x44 }
  - { offset: 0x2CA67, size: 0x8, addend: 0x0, symName: _getNumValueSitesRT, symObjAddr: 0x1458, symBinAddr: 0x10001F220, symSize: 0x10 }
  - { offset: 0x2CAF0, size: 0x8, addend: 0x0, symName: _getNumValueSitesRT, symObjAddr: 0x1458, symBinAddr: 0x10001F220, symSize: 0x10 }
  - { offset: 0x2CAF8, size: 0x8, addend: 0x0, symName: _getNumValueDataRT, symObjAddr: 0x1468, symBinAddr: 0x10001F230, symSize: 0x190 }
  - { offset: 0x2CB32, size: 0x8, addend: 0x0, symName: _getNumValueDataRT, symObjAddr: 0x1468, symBinAddr: 0x10001F230, symSize: 0x190 }
  - { offset: 0x2CB3A, size: 0x8, addend: 0x0, symName: ___llvm_profile_instrument_target.cold.1, symObjAddr: 0x15F8, symBinAddr: 0x1000A7D6C, symSize: 0x24 }
  - { offset: 0x2CBA4, size: 0x8, addend: 0x0, symName: ___llvm_profile_instrument_target.cold.1, symObjAddr: 0x15F8, symBinAddr: 0x1000A7D6C, symSize: 0x24 }
  - { offset: 0x2CBAC, size: 0x8, addend: 0x0, symName: ___llvm_profile_instrument_target_value.cold.1, symObjAddr: 0x161C, symBinAddr: 0x1000A7D90, symSize: 0x24 }
  - { offset: 0x2CBCD, size: 0x8, addend: 0x0, symName: ___llvm_profile_instrument_target_value.cold.1, symObjAddr: 0x161C, symBinAddr: 0x1000A7D90, symSize: 0x24 }
  - { offset: 0x2CBE5, size: 0x8, addend: 0x0, symName: ___llvm_profile_instrument_target_value.cold.1, symObjAddr: 0x161C, symBinAddr: 0x1000A7D90, symSize: 0x24 }
  - { offset: 0x2CBF4, size: 0x8, addend: 0x0, symName: ___llvm_profile_instrument_target_value.cold.1, symObjAddr: 0x161C, symBinAddr: 0x1000A7D90, symSize: 0x24 }
  - { offset: 0x2CC84, size: 0x8, addend: 0x0, symName: ___llvm_profile_raw_version, symObjAddr: 0x0, symBinAddr: 0x100100670, symSize: 0x0 }
  - { offset: 0x2CCC6, size: 0x8, addend: 0x0, symName: _lprofBufferWriter, symObjAddr: 0x0, symBinAddr: 0x10001F3C0, symSize: 0x6C }
  - { offset: 0x2CCE5, size: 0x8, addend: 0x0, symName: _FreeHook, symObjAddr: 0x4F30, symBinAddr: 0x100107760, symSize: 0x0 }
  - { offset: 0x2CD0B, size: 0x8, addend: 0x0, symName: _DynamicBufferIOBuffer, symObjAddr: 0x4F38, symBinAddr: 0x100107768, symSize: 0x0 }
  - { offset: 0x2CD39, size: 0x8, addend: 0x0, symName: _VPBufferSize, symObjAddr: 0x4F40, symBinAddr: 0x100107770, symSize: 0x0 }
  - { offset: 0x2CD60, size: 0x8, addend: 0x0, symName: __MergedGlobals, symObjAddr: 0x6F48, symBinAddr: 0x1001098E8, symSize: 0x0 }
  - { offset: 0x2CEAA, size: 0x8, addend: 0x0, symName: _BufferIOBuffer, symObjAddr: 0x4F48, symBinAddr: 0x1001078E8, symSize: 0x0 }
  - { offset: 0x2CED4, size: 0x8, addend: 0x0, symName: __MergedGlobals, symObjAddr: 0x6F48, symBinAddr: 0x1001098E8, symSize: 0x0 }
  - { offset: 0x2CF50, size: 0x8, addend: 0x0, symName: _lprofBufferWriter, symObjAddr: 0x0, symBinAddr: 0x10001F3C0, symSize: 0x6C }
  - { offset: 0x2CF58, size: 0x8, addend: 0x0, symName: _lprofCreateBufferIO, symObjAddr: 0x6C, symBinAddr: 0x10001F42C, symSize: 0x48 }
  - { offset: 0x2CFE0, size: 0x8, addend: 0x0, symName: _lprofCreateBufferIO, symObjAddr: 0x6C, symBinAddr: 0x10001F42C, symSize: 0x48 }
  - { offset: 0x2CFE8, size: 0x8, addend: 0x0, symName: _lprofDeleteBufferIO, symObjAddr: 0xB4, symBinAddr: 0x10001F474, symSize: 0x4C }
  - { offset: 0x2D03B, size: 0x8, addend: 0x0, symName: _lprofDeleteBufferIO, symObjAddr: 0xB4, symBinAddr: 0x10001F474, symSize: 0x4C }
  - { offset: 0x2D043, size: 0x8, addend: 0x0, symName: _lprofBufferIOWrite, symObjAddr: 0x100, symBinAddr: 0x10001F4C0, symSize: 0x134 }
  - { offset: 0x2D0E5, size: 0x8, addend: 0x0, symName: _lprofBufferIOWrite, symObjAddr: 0x100, symBinAddr: 0x10001F4C0, symSize: 0x134 }
  - { offset: 0x2D0ED, size: 0x8, addend: 0x0, symName: _lprofBufferIOFlush, symObjAddr: 0x234, symBinAddr: 0x10001F5F4, symSize: 0xC0 }
  - { offset: 0x2D1E2, size: 0x8, addend: 0x0, symName: _lprofBufferIOFlush, symObjAddr: 0x234, symBinAddr: 0x10001F5F4, symSize: 0xC0 }
  - { offset: 0x2D1EA, size: 0x8, addend: 0x0, symName: _lprofWriteData, symObjAddr: 0x2F4, symBinAddr: 0x10001F6B4, symSize: 0xD4 }
  - { offset: 0x2D213, size: 0x8, addend: 0x0, symName: _lprofWriteData, symObjAddr: 0x2F4, symBinAddr: 0x10001F6B4, symSize: 0xD4 }
  - { offset: 0x2D21B, size: 0x8, addend: 0x0, symName: _lprofWriteDataImpl, symObjAddr: 0x3C8, symBinAddr: 0x10001F788, symSize: 0x46C }
  - { offset: 0x2D63F, size: 0x8, addend: 0x0, symName: _lprofWriteDataImpl, symObjAddr: 0x3C8, symBinAddr: 0x10001F788, symSize: 0x46C }
  - { offset: 0x2D647, size: 0x8, addend: 0x0, symName: _lprofWriteOneBinaryId, symObjAddr: 0x834, symBinAddr: 0x10001FBF4, symSize: 0x8C }
  - { offset: 0x2D950, size: 0x8, addend: 0x0, symName: _lprofWriteOneBinaryId, symObjAddr: 0x834, symBinAddr: 0x10001FBF4, symSize: 0x8C }
  - { offset: 0x2D958, size: 0x8, addend: 0x0, symName: _writeOneValueProfData, symObjAddr: 0x8C0, symBinAddr: 0x10001FC80, symSize: 0x4A8 }
  - { offset: 0x2D9C4, size: 0x8, addend: 0x0, symName: _writeOneValueProfData, symObjAddr: 0x8C0, symBinAddr: 0x10001FC80, symSize: 0x4A8 }
  - { offset: 0x2DC94, size: 0x8, addend: 0x0, symName: '__ZN108_$LT$alloc..collections..btree..map..Iter$LT$K$C$V$GT$$u20$as$u20$core..iter..traits..iterator..Iterator$GT$4next17h72af6d586fb705daE', symObjAddr: 0x0, symBinAddr: 0x100020128, symSize: 0x13C }
  - { offset: 0x2E15D, size: 0x8, addend: 0x0, symName: '__ZN5alloc11collections5btree4node208Handle$LT$alloc..collections..btree..node..NodeRef$LT$alloc..collections..btree..node..marker..Mut$C$K$C$V$C$alloc..collections..btree..node..marker..Leaf$GT$$C$alloc..collections..btree..node..marker..KV$GT$5split17h83cb0d4b5dcc386eE', symObjAddr: 0xE474, symBinAddr: 0x10002E3D4, symSize: 0x1D8 }
  - { offset: 0x2E63A, size: 0x8, addend: 0x0, symName: '__ZN5alloc11collections5btree4node208Handle$LT$alloc..collections..btree..node..NodeRef$LT$alloc..collections..btree..node..marker..Mut$C$K$C$V$C$alloc..collections..btree..node..marker..Leaf$GT$$C$alloc..collections..btree..node..marker..KV$GT$5split17hc6f87347b433a116E', symObjAddr: 0xE64C, symBinAddr: 0x10002E5AC, symSize: 0x1CC }
  - { offset: 0x2EAEE, size: 0x8, addend: 0x0, symName: '__ZN5alloc11collections5btree4node212Handle$LT$alloc..collections..btree..node..NodeRef$LT$alloc..collections..btree..node..marker..Mut$C$K$C$V$C$alloc..collections..btree..node..marker..Internal$GT$$C$alloc..collections..btree..node..marker..KV$GT$5split17h2e83c4e5af9f09d0E', symObjAddr: 0xE818, symBinAddr: 0x10002E778, symSize: 0x2A8 }
  - { offset: 0x2F1EE, size: 0x8, addend: 0x0, symName: '__ZN5alloc11collections5btree4node212Handle$LT$alloc..collections..btree..node..NodeRef$LT$alloc..collections..btree..node..marker..Mut$C$K$C$V$C$alloc..collections..btree..node..marker..Internal$GT$$C$alloc..collections..btree..node..marker..KV$GT$5split17h99bf6663766894d1E', symObjAddr: 0xEAC0, symBinAddr: 0x10002EA20, symSize: 0x29C }
  - { offset: 0x2F8FD, size: 0x8, addend: 0x0, symName: '__ZN5alloc11collections5btree6remove259_$LT$impl$u20$alloc..collections..btree..node..Handle$LT$alloc..collections..btree..node..NodeRef$LT$alloc..collections..btree..node..marker..Mut$C$K$C$V$C$alloc..collections..btree..node..marker..Leaf$GT$$C$alloc..collections..btree..node..marker..KV$GT$$GT$14remove_leaf_kv17h5572f2f2101eea06E', symObjAddr: 0xF4E4, symBinAddr: 0x10002F444, symSize: 0x5B8 }
  - { offset: 0x305B5, size: 0x8, addend: 0x0, symName: '__ZN5alloc11collections5btree6remove259_$LT$impl$u20$alloc..collections..btree..node..Handle$LT$alloc..collections..btree..node..NodeRef$LT$alloc..collections..btree..node..marker..Mut$C$K$C$V$C$alloc..collections..btree..node..marker..Leaf$GT$$C$alloc..collections..btree..node..marker..KV$GT$$GT$14remove_leaf_kv17h621c038cfd960be5E', symObjAddr: 0xFA9C, symBinAddr: 0x10002F9FC, symSize: 0x5B8 }
  - { offset: 0x320CF, size: 0x8, addend: 0x0, symName: '__ZN5alloc11collections5btree4node29BalancingContext$LT$K$C$V$GT$15bulk_steal_left17h5ad73c5a1cd4fc61E', symObjAddr: 0xED5C, symBinAddr: 0x10002ECBC, symSize: 0x288 }
  - { offset: 0x32708, size: 0x8, addend: 0x0, symName: '__ZN5alloc11collections5btree4node29BalancingContext$LT$K$C$V$GT$16bulk_steal_right17hd17767b56be9ca08E', symObjAddr: 0xEFE4, symBinAddr: 0x10002EF44, symSize: 0x2A8 }
  - { offset: 0x32E26, size: 0x8, addend: 0x0, symName: '__ZN5alloc11collections5btree4node29BalancingContext$LT$K$C$V$GT$8do_merge17h9664da17306ee4f1E', symObjAddr: 0xF28C, symBinAddr: 0x10002F1EC, symSize: 0x258 }
  - { offset: 0x33602, size: 0x8, addend: 0x0, symName: '__ZN108_$LT$alloc..collections..btree..map..Iter$LT$K$C$V$GT$$u20$as$u20$core..iter..traits..iterator..Iterator$GT$4next17h72af6d586fb705daE', symObjAddr: 0x0, symBinAddr: 0x100020128, symSize: 0x13C }
  - { offset: 0x339BC, size: 0x8, addend: 0x0, symName: '__ZN5alloc11collections5btree3map25BTreeMap$LT$K$C$V$C$A$GT$6insert17h5a0071cde28f6078E', symObjAddr: 0xCA54, symBinAddr: 0x10002C9B4, symSize: 0x9BC }
  - { offset: 0x351AA, size: 0x8, addend: 0x0, symName: '__ZN5alloc11collections5btree3map25BTreeMap$LT$K$C$V$C$A$GT$6insert17h82fa5985676a7aa2E', symObjAddr: 0xD410, symBinAddr: 0x10002D370, symSize: 0x9F8 }
  - { offset: 0x36B1D, size: 0x8, addend: 0x0, symName: '__ZN5alloc11collections5btree3map25IntoIter$LT$K$C$V$C$A$GT$10dying_next17h12e3dcf500453660E', symObjAddr: 0xDE08, symBinAddr: 0x10002DD68, symSize: 0x224 }
  - { offset: 0x36F0C, size: 0x8, addend: 0x0, symName: '__ZN5alloc11collections5btree3map25IntoIter$LT$K$C$V$C$A$GT$10dying_next17h792957020d65e57cE', symObjAddr: 0xE02C, symBinAddr: 0x10002DF8C, symSize: 0x224 }
  - { offset: 0x372FB, size: 0x8, addend: 0x0, symName: '__ZN5alloc11collections5btree3map25IntoIter$LT$K$C$V$C$A$GT$10dying_next17hb31974b0eaedc10cE', symObjAddr: 0xE250, symBinAddr: 0x10002E1B0, symSize: 0x224 }
  - { offset: 0x376F0, size: 0x8, addend: 0x0, symName: '__ZN94_$LT$alloc..collections..btree..map..BTreeMap$LT$K$C$V$C$A$GT$$u20$as$u20$core..fmt..Debug$GT$3fmt17hc35a8022216a2258E', symObjAddr: 0x18980, symBinAddr: 0x1000387FC, symSize: 0xB8 }
  - { offset: 0x38A20, size: 0x8, addend: 0x0, symName: '__ZN5alloc7raw_vec19RawVec$LT$T$C$A$GT$8grow_one17h075c6c7443abaefeE', symObjAddr: 0x10450, symBinAddr: 0x1000303B0, symSize: 0xB4 }
  - { offset: 0x38BA2, size: 0x8, addend: 0x0, symName: '__ZN5alloc7raw_vec19RawVec$LT$T$C$A$GT$8grow_one17h166a1991bc1b1d4bE', symObjAddr: 0x10504, symBinAddr: 0x100030464, symSize: 0xB4 }
  - { offset: 0x38D24, size: 0x8, addend: 0x0, symName: '__ZN5alloc7raw_vec19RawVec$LT$T$C$A$GT$8grow_one17h16773fc118d04764E', symObjAddr: 0x105B8, symBinAddr: 0x100030518, symSize: 0xCC }
  - { offset: 0x38EA6, size: 0x8, addend: 0x0, symName: '__ZN5alloc7raw_vec19RawVec$LT$T$C$A$GT$8grow_one17h26d3c3e0c0035d3aE', symObjAddr: 0x10684, symBinAddr: 0x1000305E4, symSize: 0xB4 }
  - { offset: 0x39028, size: 0x8, addend: 0x0, symName: '__ZN5alloc7raw_vec19RawVec$LT$T$C$A$GT$8grow_one17h2dcc28b3ce16ceb9E', symObjAddr: 0x10738, symBinAddr: 0x100030698, symSize: 0xC8 }
  - { offset: 0x391AA, size: 0x8, addend: 0x0, symName: '__ZN5alloc7raw_vec19RawVec$LT$T$C$A$GT$8grow_one17h34433ccfa33c1548E', symObjAddr: 0x10800, symBinAddr: 0x100030760, symSize: 0xCC }
  - { offset: 0x3932C, size: 0x8, addend: 0x0, symName: '__ZN5alloc7raw_vec19RawVec$LT$T$C$A$GT$8grow_one17h39d85b90b601d05aE', symObjAddr: 0x108CC, symBinAddr: 0x10003082C, symSize: 0xC8 }
  - { offset: 0x394AE, size: 0x8, addend: 0x0, symName: '__ZN5alloc7raw_vec19RawVec$LT$T$C$A$GT$8grow_one17h3c721d352546eaf3E', symObjAddr: 0x10994, symBinAddr: 0x1000308F4, symSize: 0xCC }
  - { offset: 0x39630, size: 0x8, addend: 0x0, symName: '__ZN5alloc7raw_vec19RawVec$LT$T$C$A$GT$8grow_one17h586e05289c1bd44cE', symObjAddr: 0x10A60, symBinAddr: 0x1000309C0, symSize: 0xA0 }
  - { offset: 0x3975B, size: 0x8, addend: 0x0, symName: '__ZN5alloc7raw_vec19RawVec$LT$T$C$A$GT$8grow_one17h5f91a7a76a6c09aeE', symObjAddr: 0x10B00, symBinAddr: 0x100030A60, symSize: 0xCC }
  - { offset: 0x398DD, size: 0x8, addend: 0x0, symName: '__ZN5alloc7raw_vec19RawVec$LT$T$C$A$GT$8grow_one17h80e9c1852df717ecE', symObjAddr: 0x10BCC, symBinAddr: 0x100030B2C, symSize: 0xD4 }
  - { offset: 0x39A5F, size: 0x8, addend: 0x0, symName: '__ZN5alloc7raw_vec19RawVec$LT$T$C$A$GT$8grow_one17hc17bf94f7bc0544cE', symObjAddr: 0x10CA0, symBinAddr: 0x100030C00, symSize: 0xB4 }
  - { offset: 0x39BE1, size: 0x8, addend: 0x0, symName: '__ZN5alloc7raw_vec19RawVec$LT$T$C$A$GT$8grow_one17hc3a6727d65a81183E', symObjAddr: 0x10D54, symBinAddr: 0x100030CB4, symSize: 0xCC }
  - { offset: 0x39D63, size: 0x8, addend: 0x0, symName: '__ZN5alloc7raw_vec19RawVec$LT$T$C$A$GT$8grow_one17hf967a23dcc49c53fE', symObjAddr: 0x10E20, symBinAddr: 0x100030D80, symSize: 0xB4 }
  - { offset: 0x3AA0F, size: 0x8, addend: 0x0, symName: __ZN5alloc7raw_vec11finish_grow17h862ca5a250277ca2E, symObjAddr: 0x103C8, symBinAddr: 0x100030328, symSize: 0x88 }
  - { offset: 0x3AAA9, size: 0x8, addend: 0x0, symName: '__ZN5alloc7raw_vec20RawVecInner$LT$A$GT$7reserve21do_reserve_and_handle17h5bd7c8b81169b16eE', symObjAddr: 0x10ED4, symBinAddr: 0x1000A7F7C, symSize: 0xE4 }
  - { offset: 0x3C233, size: 0x8, addend: 0x0, symName: '__ZN65_$LT$alloc..vec..Vec$LT$T$C$A$GT$$u20$as$u20$core..fmt..Debug$GT$3fmt17h7c2ad0cf10328a44E', symObjAddr: 0x17C40, symBinAddr: 0x100037ABC, symSize: 0x74 }
  - { offset: 0x3C35F, size: 0x8, addend: 0x0, symName: '__ZN65_$LT$alloc..vec..Vec$LT$T$C$A$GT$$u20$as$u20$core..fmt..Debug$GT$3fmt17hc81b2c0dfcc69ebaE', symObjAddr: 0x17CB4, symBinAddr: 0x100037B30, symSize: 0x70 }
  - { offset: 0x3CB2D, size: 0x8, addend: 0x0, symName: '__ZN5alloc4sync16Arc$LT$T$C$A$GT$9drop_slow17h0aa5665700f36d09E', symObjAddr: 0x10054, symBinAddr: 0x10002FFB4, symSize: 0x44 }
  - { offset: 0x3CC2E, size: 0x8, addend: 0x0, symName: '__ZN5alloc4sync16Arc$LT$T$C$A$GT$9drop_slow17h387c17a8068f8b46E', symObjAddr: 0x10098, symBinAddr: 0x10002FFF8, symSize: 0x7C }
  - { offset: 0x3CE33, size: 0x8, addend: 0x0, symName: '__ZN5alloc4sync16Arc$LT$T$C$A$GT$9drop_slow17h8140ef5e91500a1cE', symObjAddr: 0x10114, symBinAddr: 0x100030074, symSize: 0xC4 }
  - { offset: 0x3D0DB, size: 0x8, addend: 0x0, symName: '__ZN5alloc4sync16Arc$LT$T$C$A$GT$9drop_slow17h838bbef7addedadcE', symObjAddr: 0x101D8, symBinAddr: 0x100030138, symSize: 0xC0 }
  - { offset: 0x3D261, size: 0x8, addend: 0x0, symName: '__ZN5alloc4sync16Arc$LT$T$C$A$GT$9drop_slow17hd93bb8d0d3f31befE', symObjAddr: 0x10298, symBinAddr: 0x1000301F8, symSize: 0xA0 }
  - { offset: 0x3D580, size: 0x8, addend: 0x0, symName: '__ZN5alloc4sync16Arc$LT$T$C$A$GT$9drop_slow17hf04d07aeddb693f2E', symObjAddr: 0x10338, symBinAddr: 0x100030298, symSize: 0x90 }
  - { offset: 0x3DD56, size: 0x8, addend: 0x0, symName: '__ZN64_$LT$alloc..ffi..c_str..NulError$u20$as$u20$core..fmt..Debug$GT$3fmt17h73df61ef3778c398E', symObjAddr: 0x17BF4, symBinAddr: 0x100037A70, symSize: 0x4C }
  - { offset: 0x3E503, size: 0x8, addend: 0x0, symName: '__ZN58_$LT$alloc..string..String$u20$as$u20$core..fmt..Debug$GT$3fmt17hdfa762a84976360aE', symObjAddr: 0xC86C, symBinAddr: 0x10002C7CC, symSize: 0x1C }
  - { offset: 0x3E5BE, size: 0x8, addend: 0x0, symName: '__ZN58_$LT$alloc..string..String$u20$as$u20$core..fmt..Write$GT$10write_char17hd93e9ff1698e117fE', symObjAddr: 0xC888, symBinAddr: 0x10002C7E8, symSize: 0x14C }
  - { offset: 0x3E823, size: 0x8, addend: 0x0, symName: '__ZN58_$LT$alloc..string..String$u20$as$u20$core..fmt..Write$GT$9write_str17h0e58f50c5cceb6ccE', symObjAddr: 0xC9D4, symBinAddr: 0x10002C934, symSize: 0x80 }
  - { offset: 0x3E97C, size: 0x8, addend: 0x0, symName: '__ZN60_$LT$alloc..string..String$u20$as$u20$core..fmt..Display$GT$3fmt17hb1770a38898258b9E', symObjAddr: 0x17BD8, symBinAddr: 0x100037A54, symSize: 0x1C }
  - { offset: 0x3EA8D, size: 0x8, addend: 0x0, symName: '__ZN66_$LT$alloc..borrow..Cow$LT$B$GT$$u20$as$u20$core..fmt..Display$GT$3fmt17h934f636a5b650a82E', symObjAddr: 0x17D24, symBinAddr: 0x100037BA0, symSize: 0x1C }
  - { offset: 0x3F986, size: 0x8, addend: 0x0, symName: '__ZN66_$LT$core..option..Option$LT$T$GT$$u20$as$u20$core..fmt..Debug$GT$3fmt17h0d22586c1d7cf264E', symObjAddr: 0x17D40, symBinAddr: 0x100037BBC, symSize: 0x60 }
  - { offset: 0x3F9A1, size: 0x8, addend: 0x0, symName: '__ZN66_$LT$core..option..Option$LT$T$GT$$u20$as$u20$core..fmt..Debug$GT$3fmt17h1d04b85820ad1c64E', symObjAddr: 0x17DA0, symBinAddr: 0x100037C1C, symSize: 0x5C }
  - { offset: 0x3F9BC, size: 0x8, addend: 0x0, symName: '__ZN66_$LT$core..option..Option$LT$T$GT$$u20$as$u20$core..fmt..Debug$GT$3fmt17h3070b5aff61757efE', symObjAddr: 0x17DFC, symBinAddr: 0x100037C78, symSize: 0x5C }
  - { offset: 0x3F9D7, size: 0x8, addend: 0x0, symName: '__ZN66_$LT$core..option..Option$LT$T$GT$$u20$as$u20$core..fmt..Debug$GT$3fmt17h508bebe52f9eac05E', symObjAddr: 0x17E58, symBinAddr: 0x100037CD4, symSize: 0x60 }
  - { offset: 0x3F9F2, size: 0x8, addend: 0x0, symName: '__ZN66_$LT$core..option..Option$LT$T$GT$$u20$as$u20$core..fmt..Debug$GT$3fmt17h5c0325d17553f2d8E', symObjAddr: 0x17EB8, symBinAddr: 0x100037D34, symSize: 0x60 }
  - { offset: 0x3FA0D, size: 0x8, addend: 0x0, symName: '__ZN66_$LT$core..option..Option$LT$T$GT$$u20$as$u20$core..fmt..Debug$GT$3fmt17h6cba7647c1409c4eE', symObjAddr: 0x17F18, symBinAddr: 0x100037D94, symSize: 0x60 }
  - { offset: 0x3FA28, size: 0x8, addend: 0x0, symName: '__ZN66_$LT$core..option..Option$LT$T$GT$$u20$as$u20$core..fmt..Debug$GT$3fmt17h6d1b1bba33696c84E', symObjAddr: 0x17F78, symBinAddr: 0x100037DF4, symSize: 0x5C }
  - { offset: 0x3FA43, size: 0x8, addend: 0x0, symName: '__ZN66_$LT$core..option..Option$LT$T$GT$$u20$as$u20$core..fmt..Debug$GT$3fmt17h98c512daf50572b8E', symObjAddr: 0x17FD4, symBinAddr: 0x100037E50, symSize: 0x60 }
  - { offset: 0x3FA5E, size: 0x8, addend: 0x0, symName: '__ZN66_$LT$core..option..Option$LT$T$GT$$u20$as$u20$core..fmt..Debug$GT$3fmt17hc0b8a09cde12bbabE', symObjAddr: 0x18034, symBinAddr: 0x100037EB0, symSize: 0x60 }
  - { offset: 0x40E7D, size: 0x8, addend: 0x0, symName: '__ZN4core3ptr100drop_in_place$LT$core..option..Option$LT$std..sys..pal..unix..process..process_common..Stdio$GT$$GT$17h390c4c4b36e9449aE', symObjAddr: 0x1888, symBinAddr: 0x1000219B0, symSize: 0x28 }
  - { offset: 0x40EE9, size: 0x8, addend: 0x0, symName: '__ZN4core3ptr101drop_in_place$LT$alloc..sync..Arc$LT$std..sync..mutex..Mutex$LT$alloc..vec..Vec$LT$u8$GT$$GT$$GT$$GT$17he47baf29b04fcdf3E', symObjAddr: 0x18B0, symBinAddr: 0x1000219D8, symSize: 0x30 }
  - { offset: 0x40FA8, size: 0x8, addend: 0x0, symName: '__ZN4core3ptr104drop_in_place$LT$alloc..vec..Vec$LT$$LP$usize$C$std..backtrace_rs..symbolize..gimli..Mapping$RP$$GT$$GT$17h3724f6026d57679bE', symObjAddr: 0x18E0, symBinAddr: 0x100021A08, symSize: 0xC4 }
  - { offset: 0x41164, size: 0x8, addend: 0x0, symName: '__ZN4core3ptr107drop_in_place$LT$alloc..vec..Vec$LT$$LP$std..ffi..os_str..OsString$C$std..ffi..os_str..OsString$RP$$GT$$GT$17hfc68f09190e14b8aE', symObjAddr: 0x19A4, symBinAddr: 0x100021ACC, symSize: 0x94 }
  - { offset: 0x413EB, size: 0x8, addend: 0x0, symName: '__ZN4core3ptr107drop_in_place$LT$core..option..Option$LT$std..sys..pal..unix..process..process_common..CStringArray$GT$$GT$17hc04f4be0667d32faE', symObjAddr: 0x1A38, symBinAddr: 0x100021B60, symSize: 0xAC }
  - { offset: 0x41634, size: 0x8, addend: 0x0, symName: '__ZN4core3ptr108drop_in_place$LT$alloc..collections..btree..map..BTreeMap$LT$u64$C$gimli..read..abbrev..Abbreviation$GT$$GT$17hdd51dbb9038dd43cE', symObjAddr: 0x1AE4, symBinAddr: 0x100021C0C, symSize: 0xB0 }
  - { offset: 0x417E7, size: 0x8, addend: 0x0, symName: '__ZN4core3ptr112drop_in_place$LT$$LP$std..ffi..os_str..OsString$C$core..option..Option$LT$std..ffi..os_str..OsString$GT$$RP$$GT$17h2ec7e858acbba68fE', symObjAddr: 0x1B94, symBinAddr: 0x100021CBC, symSize: 0x58 }
  - { offset: 0x4195C, size: 0x8, addend: 0x0, symName: '__ZN4core3ptr118drop_in_place$LT$$LT$std..backtrace..Backtrace$u20$as$u20$core..fmt..Display$GT$..fmt..$u7b$$u7b$closure$u7d$$u7d$$GT$17h29129ac2cd345645E', symObjAddr: 0x1BEC, symBinAddr: 0x100021D14, symSize: 0x40 }
  - { offset: 0x41A71, size: 0x8, addend: 0x0, symName: '__ZN4core3ptr123drop_in_place$LT$addr2line..Context$LT$gimli..read..endian_slice..EndianSlice$LT$gimli..endianity..LittleEndian$GT$$GT$$GT$17hda46d454f19ff930E', symObjAddr: 0x1C2C, symBinAddr: 0x100021D54, symSize: 0x120 }
  - { offset: 0x41D91, size: 0x8, addend: 0x0, symName: '__ZN4core3ptr123drop_in_place$LT$addr2line..ResUnit$LT$gimli..read..endian_slice..EndianSlice$LT$gimli..endianity..LittleEndian$GT$$GT$$GT$17h140d0dcd1acd9019E', symObjAddr: 0x1D4C, symBinAddr: 0x100021E74, symSize: 0xE4 }
  - { offset: 0x41F6B, size: 0x8, addend: 0x0, symName: '__ZN4core3ptr123drop_in_place$LT$addr2line..SupUnit$LT$gimli..read..endian_slice..EndianSlice$LT$gimli..endianity..LittleEndian$GT$$GT$$GT$17h8a819a68b5060ec8E', symObjAddr: 0x1E30, symBinAddr: 0x100021F58, symSize: 0x54 }
  - { offset: 0x42038, size: 0x8, addend: 0x0, symName: '__ZN4core3ptr124drop_in_place$LT$alloc..collections..btree..map..BTreeMap$LT$std..ffi..os_str..OsString$C$std..ffi..os_str..OsString$GT$$GT$17ha893cf0c42a9c308E', symObjAddr: 0x1E84, symBinAddr: 0x100021FAC, symSize: 0xC4 }
  - { offset: 0x4223F, size: 0x8, addend: 0x0, symName: '__ZN4core3ptr124drop_in_place$LT$alloc..collections..btree..map..IntoIter$LT$std..ffi..os_str..OsString$C$std..ffi..os_str..OsString$GT$$GT$17hbedd65009acb7ebfE', symObjAddr: 0x1F48, symBinAddr: 0x100022070, symSize: 0x94 }
  - { offset: 0x423F2, size: 0x8, addend: 0x0, symName: '__ZN4core3ptr127drop_in_place$LT$std..sync..poison..PoisonError$LT$std..sync..mutex..MutexGuard$LT$std..sync..barrier..BarrierState$GT$$GT$$GT$17hcab5faa07d09967aE', symObjAddr: 0x1FDC, symBinAddr: 0x100022104, symSize: 0x4C }
  - { offset: 0x4253E, size: 0x8, addend: 0x0, symName: '__ZN4core3ptr130drop_in_place$LT$gimli..read..dwarf..Dwarf$LT$gimli..read..endian_slice..EndianSlice$LT$gimli..endianity..LittleEndian$GT$$GT$$GT$17h7eb35384c5128c5bE', symObjAddr: 0x2028, symBinAddr: 0x100022150, symSize: 0x58 }
  - { offset: 0x425D4, size: 0x8, addend: 0x0, symName: '__ZN4core3ptr131drop_in_place$LT$alloc..boxed..Box$LT$dyn$u20$core..ops..function..FnOnce$LT$$LP$$RP$$GT$$u2b$Output$u20$$u3d$$u20$$LP$$RP$$GT$$GT$17h5d8ec31e29fde23dE', symObjAddr: 0x2080, symBinAddr: 0x1000221A8, symSize: 0x78 }
  - { offset: 0x426BF, size: 0x8, addend: 0x0, symName: '__ZN4core3ptr137drop_in_place$LT$gimli..read..dwarf..Unit$LT$gimli..read..endian_slice..EndianSlice$LT$gimli..endianity..LittleEndian$GT$$C$usize$GT$$GT$17h3d24796a2679cbf6E', symObjAddr: 0x20F8, symBinAddr: 0x100022220, symSize: 0x54 }
  - { offset: 0x42792, size: 0x8, addend: 0x0, symName: '__ZN4core3ptr144drop_in_place$LT$alloc..vec..Vec$LT$core..option..Option$LT$core..option..Option$LT$std..backtrace_rs..symbolize..gimli..Mapping$GT$$GT$$GT$$GT$17h0e8af9afa59793f6E', symObjAddr: 0x214C, symBinAddr: 0x100022274, symSize: 0x10C }
  - { offset: 0x42956, size: 0x8, addend: 0x0, symName: '__ZN4core3ptr146drop_in_place$LT$alloc..vec..Vec$LT$addr2line..ResUnit$LT$gimli..read..endian_slice..EndianSlice$LT$gimli..endianity..LittleEndian$GT$$GT$$GT$$GT$17hf181f44a2a3444f1E', symObjAddr: 0x2258, symBinAddr: 0x100022380, symSize: 0xC4 }
  - { offset: 0x42AE1, size: 0x8, addend: 0x0, symName: '__ZN4core3ptr146drop_in_place$LT$alloc..vec..Vec$LT$addr2line..SupUnit$LT$gimli..read..endian_slice..EndianSlice$LT$gimli..endianity..LittleEndian$GT$$GT$$GT$$GT$17hc91732f1d0903df2E', symObjAddr: 0x231C, symBinAddr: 0x100022444, symSize: 0xF4 }
  - { offset: 0x42D07, size: 0x8, addend: 0x0, symName: '__ZN4core3ptr152drop_in_place$LT$alloc..collections..btree..map..BTreeMap$LT$std..ffi..os_str..OsString$C$core..option..Option$LT$std..ffi..os_str..OsString$GT$$GT$$GT$17hb355194dd4ca3852E', symObjAddr: 0x2410, symBinAddr: 0x100022538, symSize: 0xD0 }
  - { offset: 0x42F2F, size: 0x8, addend: 0x0, symName: '__ZN4core3ptr158drop_in_place$LT$alloc..boxed..Box$LT$$u5b$addr2line..ResUnit$LT$gimli..read..endian_slice..EndianSlice$LT$gimli..endianity..LittleEndian$GT$$GT$$u5d$$GT$$GT$17h4bf939d7a7f1ac07E', symObjAddr: 0x24E0, symBinAddr: 0x100022608, symSize: 0xB4 }
  - { offset: 0x43028, size: 0x8, addend: 0x0, symName: '__ZN4core3ptr158drop_in_place$LT$alloc..boxed..Box$LT$$u5b$addr2line..SupUnit$LT$gimli..read..endian_slice..EndianSlice$LT$gimli..endianity..LittleEndian$GT$$GT$$u5d$$GT$$GT$17hcbd148f67d377a72E', symObjAddr: 0x2594, symBinAddr: 0x1000226BC, symSize: 0xE4 }
  - { offset: 0x431D8, size: 0x8, addend: 0x0, symName: '__ZN4core3ptr159drop_in_place$LT$alloc..sync..ArcInner$LT$gimli..read..dwarf..Dwarf$LT$gimli..read..endian_slice..EndianSlice$LT$gimli..endianity..LittleEndian$GT$$GT$$GT$$GT$17h350dc7a25fa01851E', symObjAddr: 0x2678, symBinAddr: 0x1000227A0, symSize: 0x58 }
  - { offset: 0x432ED, size: 0x8, addend: 0x0, symName: '__ZN4core3ptr174drop_in_place$LT$core..result..Result$LT$addr2line..FrameIter$LT$gimli..read..endian_slice..EndianSlice$LT$gimli..endianity..LittleEndian$GT$$GT$$C$gimli..read..Error$GT$$GT$17h20520c9c39e2d0f6E', symObjAddr: 0x26D0, symBinAddr: 0x1000227F8, symSize: 0x44 }
  - { offset: 0x43471, size: 0x8, addend: 0x0, symName: '__ZN4core3ptr181drop_in_place$LT$core..option..Option$LT$gimli..read..line..IncompleteLineProgram$LT$gimli..read..endian_slice..EndianSlice$LT$gimli..endianity..LittleEndian$GT$$C$usize$GT$$GT$$GT$17heefdf74aaf21e555E', symObjAddr: 0x2714, symBinAddr: 0x10002283C, symSize: 0x94 }
  - { offset: 0x43772, size: 0x8, addend: 0x0, symName: '__ZN4core3ptr184drop_in_place$LT$core..result..Result$LT$addr2line..function..Functions$LT$gimli..read..endian_slice..EndianSlice$LT$gimli..endianity..LittleEndian$GT$$GT$$C$gimli..read..Error$GT$$GT$17h8a8e7727ae990110E', symObjAddr: 0x27A8, symBinAddr: 0x1000228D0, symSize: 0xD8 }
  - { offset: 0x43A10, size: 0x8, addend: 0x0, symName: '__ZN4core3ptr205drop_in_place$LT$$LT$alloc..boxed..Box$LT$dyn$u20$core..error..Error$u2b$core..marker..Send$u2b$core..marker..Sync$GT$$u20$as$u20$core..convert..From$LT$alloc..string..String$GT$$GT$..from..StringError$GT$17h83ef85c47549147cE', symObjAddr: 0x2880, symBinAddr: 0x1000229A8, symSize: 0x28 }
  - { offset: 0x43AF3, size: 0x8, addend: 0x0, symName: '__ZN4core3ptr215drop_in_place$LT$std..sys..thread_local..native..lazy..State$LT$core..cell..Cell$LT$core..option..Option$LT$alloc..sync..Arc$LT$std..sync..mutex..Mutex$LT$alloc..vec..Vec$LT$u8$GT$$GT$$GT$$GT$$GT$$C$$LP$$RP$$GT$$GT$17h359053fe13b33dfcE', symObjAddr: 0x28A8, symBinAddr: 0x1000229D0, symSize: 0x40 }
  - { offset: 0x43BB5, size: 0x8, addend: 0x0, symName: '__ZN4core3ptr250drop_in_place$LT$$LP$gimli..read..UnitOffset$C$addr2line..lazy..LazyCell$LT$core..result..Result$LT$addr2line..function..Function$LT$gimli..read..endian_slice..EndianSlice$LT$gimli..endianity..LittleEndian$GT$$GT$$C$gimli..read..Error$GT$$GT$$RP$$GT$17h9a2b3fa9b348f67fE', symObjAddr: 0x28E8, symBinAddr: 0x100022A10, symSize: 0x64 }
  - { offset: 0x43BCC, size: 0x8, addend: 0x0, symName: '__ZN4core3ptr250drop_in_place$LT$$LP$gimli..read..UnitOffset$C$addr2line..lazy..LazyCell$LT$core..result..Result$LT$addr2line..function..Function$LT$gimli..read..endian_slice..EndianSlice$LT$gimli..endianity..LittleEndian$GT$$GT$$C$gimli..read..Error$GT$$GT$$RP$$GT$17h9a2b3fa9b348f67fE', symObjAddr: 0x28E8, symBinAddr: 0x100022A10, symSize: 0x64 }
  - { offset: 0x43BE1, size: 0x8, addend: 0x0, symName: '__ZN4core3ptr250drop_in_place$LT$$LP$gimli..read..UnitOffset$C$addr2line..lazy..LazyCell$LT$core..result..Result$LT$addr2line..function..Function$LT$gimli..read..endian_slice..EndianSlice$LT$gimli..endianity..LittleEndian$GT$$GT$$C$gimli..read..Error$GT$$GT$$RP$$GT$17h9a2b3fa9b348f67fE', symObjAddr: 0x28E8, symBinAddr: 0x100022A10, symSize: 0x64 }
  - { offset: 0x43BF6, size: 0x8, addend: 0x0, symName: '__ZN4core3ptr250drop_in_place$LT$$LP$gimli..read..UnitOffset$C$addr2line..lazy..LazyCell$LT$core..result..Result$LT$addr2line..function..Function$LT$gimli..read..endian_slice..EndianSlice$LT$gimli..endianity..LittleEndian$GT$$GT$$C$gimli..read..Error$GT$$GT$$RP$$GT$17h9a2b3fa9b348f67fE', symObjAddr: 0x28E8, symBinAddr: 0x100022A10, symSize: 0x64 }
  - { offset: 0x43D38, size: 0x8, addend: 0x0, symName: '__ZN4core3ptr273drop_in_place$LT$alloc..vec..Vec$LT$$LP$gimli..read..UnitOffset$C$addr2line..lazy..LazyCell$LT$core..result..Result$LT$addr2line..function..Function$LT$gimli..read..endian_slice..EndianSlice$LT$gimli..endianity..LittleEndian$GT$$GT$$C$gimli..read..Error$GT$$GT$$RP$$GT$$GT$17ha71c34fa9df1ee80E', symObjAddr: 0x294C, symBinAddr: 0x100022A74, symSize: 0xAC }
  - { offset: 0x43F67, size: 0x8, addend: 0x0, symName: '__ZN4core3ptr275drop_in_place$LT$gimli..read..line..LineRows$LT$gimli..read..endian_slice..EndianSlice$LT$gimli..endianity..LittleEndian$GT$$C$gimli..read..line..IncompleteLineProgram$LT$gimli..read..endian_slice..EndianSlice$LT$gimli..endianity..LittleEndian$GT$$C$usize$GT$$C$usize$GT$$GT$17hbb9d7d3d040ba386E', symObjAddr: 0x29F8, symBinAddr: 0x100022B20, symSize: 0x88 }
  - { offset: 0x441CE, size: 0x8, addend: 0x0, symName: '__ZN4core3ptr280drop_in_place$LT$$LT$alloc..collections..btree..map..IntoIter$LT$K$C$V$C$A$GT$$u20$as$u20$core..ops..drop..Drop$GT$..drop..DropGuard$LT$u64$C$core..result..Result$LT$alloc..sync..Arc$LT$gimli..read..abbrev..Abbreviations$GT$$C$gimli..read..Error$GT$$C$alloc..alloc..Global$GT$$GT$17h74b13c23f0977491E', symObjAddr: 0x2A80, symBinAddr: 0x100022BA8, symSize: 0x84 }
  - { offset: 0x44319, size: 0x8, addend: 0x0, symName: '__ZN4core3ptr285drop_in_place$LT$alloc..boxed..Box$LT$$u5b$$LP$gimli..read..UnitOffset$C$addr2line..lazy..LazyCell$LT$core..result..Result$LT$addr2line..function..Function$LT$gimli..read..endian_slice..EndianSlice$LT$gimli..endianity..LittleEndian$GT$$GT$$C$gimli..read..Error$GT$$GT$$RP$$u5d$$GT$$GT$17h4c0e5fff1642bc53E', symObjAddr: 0x2B04, symBinAddr: 0x100022C2C, symSize: 0x9C }
  - { offset: 0x44330, size: 0x8, addend: 0x0, symName: '__ZN4core3ptr285drop_in_place$LT$alloc..boxed..Box$LT$$u5b$$LP$gimli..read..UnitOffset$C$addr2line..lazy..LazyCell$LT$core..result..Result$LT$addr2line..function..Function$LT$gimli..read..endian_slice..EndianSlice$LT$gimli..endianity..LittleEndian$GT$$GT$$C$gimli..read..Error$GT$$GT$$RP$$u5d$$GT$$GT$17h4c0e5fff1642bc53E', symObjAddr: 0x2B04, symBinAddr: 0x100022C2C, symSize: 0x9C }
  - { offset: 0x44DC2, size: 0x8, addend: 0x0, symName: '__ZN4core3ptr37drop_in_place$LT$std..env..VarsOs$GT$17ha2a13263ce231697E', symObjAddr: 0x2BA0, symBinAddr: 0x100022CC8, symSize: 0xAC }
  - { offset: 0x450AB, size: 0x8, addend: 0x0, symName: '__ZN4core3ptr383drop_in_place$LT$core..result..Result$LT$core..option..Option$LT$alloc..boxed..Box$LT$$LP$alloc..sync..Arc$LT$gimli..read..dwarf..Dwarf$LT$gimli..read..endian_slice..EndianSlice$LT$gimli..endianity..LittleEndian$GT$$GT$$GT$$C$gimli..read..dwarf..Unit$LT$gimli..read..endian_slice..EndianSlice$LT$gimli..endianity..LittleEndian$GT$$C$usize$GT$$RP$$GT$$GT$$C$gimli..read..Error$GT$$GT$17h724d051af7e3a1c4E', symObjAddr: 0x2C4C, symBinAddr: 0x100022D74, symSize: 0xD4 }
  - { offset: 0x45296, size: 0x8, addend: 0x0, symName: '__ZN4core3ptr39drop_in_place$LT$std..path..PathBuf$GT$17h29ea4d3650142468E', symObjAddr: 0x2D20, symBinAddr: 0x100022E48, symSize: 0x28 }
  - { offset: 0x453A9, size: 0x8, addend: 0x0, symName: '__ZN4core3ptr40drop_in_place$LT$std..process..Child$GT$17ha28c2d8694893892E', symObjAddr: 0x2D48, symBinAddr: 0x100022E70, symSize: 0x54 }
  - { offset: 0x45563, size: 0x8, addend: 0x0, symName: '__ZN4core3ptr40drop_in_place$LT$std..thread..Thread$GT$17hf9ac34a9babe1e81E', symObjAddr: 0x2D9C, symBinAddr: 0x100022EC4, symSize: 0x30 }
  - { offset: 0x45632, size: 0x8, addend: 0x0, symName: '__ZN4core3ptr41drop_in_place$LT$std..panicking..Hook$GT$17h8ea2bbaad34def32E', symObjAddr: 0x2DCC, symBinAddr: 0x100022EF4, symSize: 0x7C }
  - { offset: 0x4572B, size: 0x8, addend: 0x0, symName: '__ZN4core3ptr42drop_in_place$LT$alloc..string..String$GT$17h61495ec7b922a046E', symObjAddr: 0x2E48, symBinAddr: 0x100022F70, symSize: 0x28 }
  - { offset: 0x45806, size: 0x8, addend: 0x0, symName: '__ZN4core3ptr42drop_in_place$LT$std..io..error..Error$GT$17h924dbebc5083d819E', symObjAddr: 0x2E70, symBinAddr: 0x100022F98, symSize: 0xAC }
  - { offset: 0x45A20, size: 0x8, addend: 0x0, symName: '__ZN4core3ptr44drop_in_place$LT$object..read..ObjectMap$GT$17h9f6d8c9bbe8676a4E', symObjAddr: 0x2F1C, symBinAddr: 0x100023044, symSize: 0x58 }
  - { offset: 0x45B79, size: 0x8, addend: 0x0, symName: '__ZN4core3ptr44drop_in_place$LT$std..backtrace..Capture$GT$17h4396dcd7c24d0d65E', symObjAddr: 0x2F74, symBinAddr: 0x10002309C, symSize: 0x6C }
  - { offset: 0x45C6E, size: 0x8, addend: 0x0, symName: '__ZN4core3ptr44drop_in_place$LT$std..thread..PanicGuard$GT$17h65c4bc54c991acbeE', symObjAddr: 0x2FE0, symBinAddr: 0x100023108, symSize: 0x44 }
  - { offset: 0x45CC2, size: 0x8, addend: 0x0, symName: '__ZN4core3ptr44drop_in_place$LT$std..thread..ThreadName$GT$17he9179243778e7ac8E', symObjAddr: 0x3024, symBinAddr: 0x10002314C, symSize: 0x3C }
  - { offset: 0x45D6F, size: 0x8, addend: 0x0, symName: '__ZN4core3ptr46drop_in_place$LT$alloc..vec..Vec$LT$u8$GT$$GT$17h13af7ebb5aaf6ccbE', symObjAddr: 0x3060, symBinAddr: 0x100023188, symSize: 0x28 }
  - { offset: 0x45DFC, size: 0x8, addend: 0x0, symName: '__ZN4core3ptr46drop_in_place$LT$std..io..stdio..StdinLock$GT$17h25432cf1b9b631dbE', symObjAddr: 0x3088, symBinAddr: 0x1000231B0, symSize: 0x54 }
  - { offset: 0x45E13, size: 0x8, addend: 0x0, symName: '__ZN4core3ptr46drop_in_place$LT$std..io..stdio..StdinLock$GT$17h25432cf1b9b631dbE', symObjAddr: 0x3088, symBinAddr: 0x1000231B0, symSize: 0x54 }
  - { offset: 0x45E28, size: 0x8, addend: 0x0, symName: '__ZN4core3ptr46drop_in_place$LT$std..io..stdio..StdinLock$GT$17h25432cf1b9b631dbE', symObjAddr: 0x3088, symBinAddr: 0x1000231B0, symSize: 0x54 }
  - { offset: 0x45F0C, size: 0x8, addend: 0x0, symName: '__ZN4core3ptr47drop_in_place$LT$alloc..ffi..c_str..CString$GT$17h6d50cff863a8567eE', symObjAddr: 0x30DC, symBinAddr: 0x100023204, symSize: 0x30 }
  - { offset: 0x45F8D, size: 0x8, addend: 0x0, symName: '__ZN4core3ptr47drop_in_place$LT$std..ffi..os_str..OsString$GT$17h3d977e70f01e62acE', symObjAddr: 0x310C, symBinAddr: 0x100023234, symSize: 0x28 }
  - { offset: 0x46028, size: 0x8, addend: 0x0, symName: '__ZN4core3ptr48drop_in_place$LT$alloc..ffi..c_str..NulError$GT$17h170c9316592988dfE', symObjAddr: 0x3134, symBinAddr: 0x10002325C, symSize: 0x28 }
  - { offset: 0x460BD, size: 0x8, addend: 0x0, symName: '__ZN4core3ptr49drop_in_place$LT$std..sys..pal..unix..os..Env$GT$17h6181626924e3fdd9E', symObjAddr: 0x315C, symBinAddr: 0x100023284, symSize: 0xAC }
  - { offset: 0x463E4, size: 0x8, addend: 0x0, symName: '__ZN4core3ptr51drop_in_place$LT$std..backtrace..BacktraceFrame$GT$17hbc2143e5e5b18343E', symObjAddr: 0x3208, symBinAddr: 0x100023330, symSize: 0xE4 }
  - { offset: 0x4669B, size: 0x8, addend: 0x0, symName: '__ZN4core3ptr52drop_in_place$LT$std..backtrace..BacktraceSymbol$GT$17h7d0f6a62cf2fd49aE', symObjAddr: 0x32EC, symBinAddr: 0x100023414, symSize: 0x90 }
  - { offset: 0x468A3, size: 0x8, addend: 0x0, symName: '__ZN4core3ptr52drop_in_place$LT$std..sys..pal..unix..args..Args$GT$17h3073c13bc92f9695E', symObjAddr: 0x337C, symBinAddr: 0x1000234A4, symSize: 0x98 }
  - { offset: 0x46AA9, size: 0x8, addend: 0x0, symName: '__ZN4core3ptr54drop_in_place$LT$std..sys..pal..unix..fd..FileDesc$GT$17hcab0674bd3465431E', symObjAddr: 0x3414, symBinAddr: 0x10002353C, symSize: 0x14 }
  - { offset: 0x46B13, size: 0x8, addend: 0x0, symName: '__ZN4core3ptr55drop_in_place$LT$gimli..read..abbrev..Abbreviations$GT$17he9582e6a4b4189b0E', symObjAddr: 0x3428, symBinAddr: 0x100023550, symSize: 0x84 }
  - { offset: 0x46CA4, size: 0x8, addend: 0x0, symName: '__ZN4core3ptr57drop_in_place$LT$std..sys_common..process..CommandEnv$GT$17ha6790f433a4385d0E', symObjAddr: 0x34AC, symBinAddr: 0x1000235D4, symSize: 0x10 }
  - { offset: 0x46CE9, size: 0x8, addend: 0x0, symName: '__ZN4core3ptr60drop_in_place$LT$gimli..read..abbrev..AbbreviationsCache$GT$17h9d0eba5c9dda23c4E', symObjAddr: 0x34BC, symBinAddr: 0x1000235E4, symSize: 0xCC }
  - { offset: 0x46E7D, size: 0x8, addend: 0x0, symName: '__ZN4core3ptr62drop_in_place$LT$std..sys..sync..rwlock..queue..PanicGuard$GT$17hce38602be2122707E', symObjAddr: 0x3588, symBinAddr: 0x1000236B0, symSize: 0x44 }
  - { offset: 0x46EDF, size: 0x8, addend: 0x0, symName: '__ZN4core3ptr65drop_in_place$LT$alloc..vec..Vec$LT$alloc..string..String$GT$$GT$17h2f36e88bfd8770e1E', symObjAddr: 0x35CC, symBinAddr: 0x1000236F4, symSize: 0x80 }
  - { offset: 0x47053, size: 0x8, addend: 0x0, symName: '__ZN4core3ptr65drop_in_place$LT$std..backtrace_rs..symbolize..gimli..Mapping$GT$17h31344005bd4b7e99E', symObjAddr: 0x364C, symBinAddr: 0x100023774, symSize: 0x70 }
  - { offset: 0x4710B, size: 0x8, addend: 0x0, symName: '__ZN4core3ptr67drop_in_place$LT$alloc..vec..Vec$LT$addr2line..LineSequence$GT$$GT$17heb663068d829c259E', symObjAddr: 0x36BC, symBinAddr: 0x1000237E4, symSize: 0x84 }
  - { offset: 0x47271, size: 0x8, addend: 0x0, symName: '__ZN4core3ptr68drop_in_place$LT$core..option..Option$LT$std..thread..Thread$GT$$GT$17h2b48afe567b2e886E', symObjAddr: 0x3740, symBinAddr: 0x100023868, symSize: 0x34 }
  - { offset: 0x4731D, size: 0x8, addend: 0x0, symName: '__ZN4core3ptr70drop_in_place$LT$alloc..vec..Vec$LT$alloc..ffi..c_str..CString$GT$$GT$17h3b9160088b32d04dE', symObjAddr: 0x3774, symBinAddr: 0x10002389C, symSize: 0x7C }
  - { offset: 0x47460, size: 0x8, addend: 0x0, symName: '__ZN4core3ptr70drop_in_place$LT$alloc..vec..Vec$LT$std..ffi..os_str..OsString$GT$$GT$17h524967ec3c4e93cbE', symObjAddr: 0x37F0, symBinAddr: 0x100023918, symSize: 0x80 }
  - { offset: 0x4763D, size: 0x8, addend: 0x0, symName: '__ZN4core3ptr70drop_in_place$LT$std..backtrace_rs..symbolize..gimli..stash..Stash$GT$17h849b9347acaa4f9dE', symObjAddr: 0x3870, symBinAddr: 0x100023998, symSize: 0xB8 }
  - { offset: 0x4791B, size: 0x8, addend: 0x0, symName: '__ZN4core3ptr71drop_in_place$LT$std..backtrace_rs..symbolize..gimli..macho..Object$GT$17he464dace0837fc07E', symObjAddr: 0x3928, symBinAddr: 0x100023A50, symSize: 0x15C }
  - { offset: 0x47C51, size: 0x8, addend: 0x0, symName: '__ZN4core3ptr71drop_in_place$LT$std..panicking..rust_panic_without_hook..RewrapBox$GT$17h308d01dbab3d6c7dE', symObjAddr: 0x3A84, symBinAddr: 0x100023BAC, symSize: 0x6C }
  - { offset: 0x47D4A, size: 0x8, addend: 0x0, symName: '__ZN4core3ptr71drop_in_place$LT$std..sync..rwlock..RwLockReadGuard$LT$$LP$$RP$$GT$$GT$17h33a87c778f6ff8acE', symObjAddr: 0x3AF0, symBinAddr: 0x100023C18, symSize: 0x44 }
  - { offset: 0x47DFC, size: 0x8, addend: 0x0, symName: '__ZN4core3ptr72drop_in_place$LT$core..option..Option$LT$object..read..ObjectMap$GT$$GT$17h15a58a385d75b662E', symObjAddr: 0x3B34, symBinAddr: 0x100023C5C, symSize: 0x64 }
  - { offset: 0x47F41, size: 0x8, addend: 0x0, symName: '__ZN4core3ptr73drop_in_place$LT$core..option..Option$LT$std..process..ChildStdin$GT$$GT$17h1c52abee359a693fE', symObjAddr: 0x3B98, symBinAddr: 0x100023CC0, symSize: 0x24 }
  - { offset: 0x47FC3, size: 0x8, addend: 0x0, symName: '__ZN4core3ptr75drop_in_place$LT$core..option..Option$LT$alloc..ffi..c_str..CString$GT$$GT$17h52c93e5af4b1ec14E', symObjAddr: 0x3BBC, symBinAddr: 0x100023CE4, symSize: 0x34 }
  - { offset: 0x4805A, size: 0x8, addend: 0x0, symName: '__ZN4core3ptr77drop_in_place$LT$alloc..boxed..Box$LT$$u5b$alloc..string..String$u5d$$GT$$GT$17hb20cef3002c71789E', symObjAddr: 0x3BF0, symBinAddr: 0x100023D18, symSize: 0x70 }
  - { offset: 0x48071, size: 0x8, addend: 0x0, symName: '__ZN4core3ptr77drop_in_place$LT$alloc..boxed..Box$LT$$u5b$alloc..string..String$u5d$$GT$$GT$17hb20cef3002c71789E', symObjAddr: 0x3BF0, symBinAddr: 0x100023D18, symSize: 0x70 }
  - { offset: 0x4817D, size: 0x8, addend: 0x0, symName: '__ZN4core3ptr77drop_in_place$LT$std..panicking..begin_panic_handler..FormatStringPayload$GT$17h6ebba54a748b8d0eE', symObjAddr: 0x3C60, symBinAddr: 0x100023D88, symSize: 0x34 }
  - { offset: 0x48247, size: 0x8, addend: 0x0, symName: '__ZN4core3ptr77drop_in_place$LT$std..sys..pal..unix..process..process_common..ChildPipes$GT$17hf391d66dbdcd733dE', symObjAddr: 0x3C94, symBinAddr: 0x100023DBC, symSize: 0x78 }
  - { offset: 0x48357, size: 0x8, addend: 0x0, symName: '__ZN4core3ptr77drop_in_place$LT$std..sys..pal..unix..process..process_common..StdioPipes$GT$17h184b157db316495bE', symObjAddr: 0x3D0C, symBinAddr: 0x100023E34, symSize: 0x54 }
  - { offset: 0x484B3, size: 0x8, addend: 0x0, symName: '__ZN4core3ptr78drop_in_place$LT$core..result..Result$LT$usize$C$std..io..error..Error$GT$$GT$17hbb84f5e706f52986E', symObjAddr: 0x3D60, symBinAddr: 0x100023E88, symSize: 0x24 }
  - { offset: 0x484C7, size: 0x8, addend: 0x0, symName: '__ZN4core3ptr79drop_in_place$LT$std..sys..pal..unix..process..process_common..CStringArray$GT$17h95c7f0f7786fc7e5E', symObjAddr: 0x3D84, symBinAddr: 0x100023EAC, symSize: 0x94 }
  - { offset: 0x486A6, size: 0x8, addend: 0x0, symName: '__ZN4core3ptr81drop_in_place$LT$core..result..Result$LT$$LP$$RP$$C$std..io..error..Error$GT$$GT$17hbb03115a4eeb66a9E', symObjAddr: 0x3E18, symBinAddr: 0x100023F40, symSize: 0x20 }
  - { offset: 0x486BA, size: 0x8, addend: 0x0, symName: '__ZN4core3ptr84drop_in_place$LT$$LP$std..ffi..os_str..OsString$C$std..ffi..os_str..OsString$RP$$GT$17h8d473b7a70bf8406E', symObjAddr: 0x3E38, symBinAddr: 0x100023F60, symSize: 0x4C }
  - { offset: 0x48815, size: 0x8, addend: 0x0, symName: '__ZN4core3ptr84drop_in_place$LT$alloc..sync..ArcInner$LT$gimli..read..abbrev..Abbreviations$GT$$GT$17h09919f3cea72f38fE', symObjAddr: 0x3E84, symBinAddr: 0x100023FAC, symSize: 0x84 }
  - { offset: 0x489ED, size: 0x8, addend: 0x0, symName: '__ZN4core3ptr86drop_in_place$LT$core..result..Result$LT$addr2line..Lines$C$gimli..read..Error$GT$$GT$17h696468a68b624ac5E', symObjAddr: 0x3F08, symBinAddr: 0x100024030, symSize: 0xE4 }
  - { offset: 0x48C4F, size: 0x8, addend: 0x0, symName: '__ZN4core3ptr87drop_in_place$LT$alloc..sync..ArcInner$LT$std..sys..pal..unix..fs..InnerReadDir$GT$$GT$17hfabe36cee593aef6E', symObjAddr: 0x3FEC, symBinAddr: 0x100024114, symSize: 0x60 }
  - { offset: 0x48E00, size: 0x8, addend: 0x0, symName: '__ZN4core3ptr87drop_in_place$LT$core..option..Option$LT$alloc..boxed..Box$LT$$u5b$u32$u5d$$GT$$GT$$GT$17hf51293850919e573E', symObjAddr: 0x404C, symBinAddr: 0x100024174, symSize: 0x34 }
  - { offset: 0x48EDC, size: 0x8, addend: 0x0, symName: '__ZN4core3ptr88drop_in_place$LT$alloc..vec..Vec$LT$std..backtrace_rs..symbolize..gimli..Library$GT$$GT$17hd7628073410dd88cE', symObjAddr: 0x4080, symBinAddr: 0x1000241A8, symSize: 0x98 }
  - { offset: 0x490D6, size: 0x8, addend: 0x0, symName: '__ZN4core3ptr88drop_in_place$LT$std..io..Write..write_fmt..Adapter$LT$alloc..vec..Vec$LT$u8$GT$$GT$$GT$17h0ba66fdde445a72aE', symObjAddr: 0x4118, symBinAddr: 0x100024240, symSize: 0x20 }
  - { offset: 0x4911C, size: 0x8, addend: 0x0, symName: '__ZN4core3ptr90drop_in_place$LT$std..io..buffered..bufwriter..BufWriter$LT$W$GT$..flush_buf..BufGuard$GT$17h754dc72f05aa7ca1E', symObjAddr: 0x4138, symBinAddr: 0x100024260, symSize: 0x60 }
  - { offset: 0x492C1, size: 0x8, addend: 0x0, symName: '__ZN4core3ptr91drop_in_place$LT$core..result..Result$LT$alloc..string..String$C$std..env..VarError$GT$$GT$17hbf7a65496cd0550fE', symObjAddr: 0x4198, symBinAddr: 0x1000242C0, symSize: 0x3C }
  - { offset: 0x4936E, size: 0x8, addend: 0x0, symName: '__ZN4core3ptr91drop_in_place$LT$core..result..Result$LT$std..path..PathBuf$C$std..io..error..Error$GT$$GT$17h737c67071e1fc1aeE', symObjAddr: 0x41D4, symBinAddr: 0x1000242FC, symSize: 0x40 }
  - { offset: 0x49443, size: 0x8, addend: 0x0, symName: '__ZN4core3ptr92drop_in_place$LT$alloc..boxed..Box$LT$std..sys..sync..mutex..pthread..AllocatedMutex$GT$$GT$17h9dd5aab7a942150fE', symObjAddr: 0x4214, symBinAddr: 0x10002433C, symSize: 0x2C }
  - { offset: 0x494E0, size: 0x8, addend: 0x0, symName: '__ZN4core3ptr95drop_in_place$LT$core..option..IntoIter$LT$std..backtrace_rs..symbolize..gimli..Library$GT$$GT$17h3a42cf7a46444decE', symObjAddr: 0x4240, symBinAddr: 0x100024368, symSize: 0x5C }
  - { offset: 0x494FE, size: 0x8, addend: 0x0, symName: '__ZN4core3ptr95drop_in_place$LT$core..option..IntoIter$LT$std..backtrace_rs..symbolize..gimli..Library$GT$$GT$17h3a42cf7a46444decE', symObjAddr: 0x4240, symBinAddr: 0x100024368, symSize: 0x5C }
  - { offset: 0x49513, size: 0x8, addend: 0x0, symName: '__ZN4core3ptr95drop_in_place$LT$core..option..IntoIter$LT$std..backtrace_rs..symbolize..gimli..Library$GT$$GT$17h3a42cf7a46444decE', symObjAddr: 0x4240, symBinAddr: 0x100024368, symSize: 0x5C }
  - { offset: 0x4967C, size: 0x8, addend: 0x0, symName: '__ZN4core3ptr95drop_in_place$LT$std..io..buffered..linewriter..LineWriter$LT$std..io..stdio..StdoutRaw$GT$$GT$17hd24c1063f9cfa17bE', symObjAddr: 0x429C, symBinAddr: 0x1000243C4, symSize: 0xF0 }
  - { offset: 0x4D3D9, size: 0x8, addend: 0x0, symName: __ZN4core5slice4sort6shared5pivot11median3_rec17h001c9adca1ce03d7E, symObjAddr: 0x4658, symBinAddr: 0x10002466C, symSize: 0xD0 }
  - { offset: 0x4D4D4, size: 0x8, addend: 0x0, symName: __ZN4core5slice4sort6shared5pivot11median3_rec17h37b7dffe14755907E, symObjAddr: 0x4728, symBinAddr: 0x10002473C, symSize: 0xCC }
  - { offset: 0x4D5CF, size: 0x8, addend: 0x0, symName: __ZN4core5slice4sort6shared5pivot11median3_rec17h3e2c744abf11ed91E, symObjAddr: 0x47F4, symBinAddr: 0x100024808, symSize: 0xD0 }
  - { offset: 0x4D6CA, size: 0x8, addend: 0x0, symName: __ZN4core5slice4sort6shared5pivot11median3_rec17h46f11f9d50e51431E, symObjAddr: 0x48C4, symBinAddr: 0x1000248D8, symSize: 0x134 }
  - { offset: 0x4D8F1, size: 0x8, addend: 0x0, symName: __ZN4core5slice4sort6shared5pivot11median3_rec17h5170fde408f06997E, symObjAddr: 0x49F8, symBinAddr: 0x100024A0C, symSize: 0x11C }
  - { offset: 0x4D9F0, size: 0x8, addend: 0x0, symName: __ZN4core5slice4sort6shared5pivot11median3_rec17h992825939e560474E, symObjAddr: 0x4B14, symBinAddr: 0x100024B28, symSize: 0xCC }
  - { offset: 0x4DB41, size: 0x8, addend: 0x0, symName: __ZN4core5slice4sort6shared5pivot11median3_rec17hd01de3caf36e971aE, symObjAddr: 0x4BE0, symBinAddr: 0x100024BF4, symSize: 0xD0 }
  - { offset: 0x4DC3C, size: 0x8, addend: 0x0, symName: __ZN4core5slice4sort6shared5pivot11median3_rec17hebd71e6e10af7f96E, symObjAddr: 0x4CB0, symBinAddr: 0x100024CC4, symSize: 0xCC }
  - { offset: 0x4DE0E, size: 0x8, addend: 0x0, symName: __ZN4core5slice4sort6shared9smallsort12sort4_stable17h500d0959a0c776afE, symObjAddr: 0x4D7C, symBinAddr: 0x100024D90, symSize: 0x1B4 }
  - { offset: 0x4DFB9, size: 0x8, addend: 0x0, symName: __ZN4core5slice4sort6shared9smallsort12sort4_stable17h575b1b9a90e5d5d6E, symObjAddr: 0x4F30, symBinAddr: 0x100024F44, symSize: 0x180 }
  - { offset: 0x4E3DB, size: 0x8, addend: 0x0, symName: __ZN4core5slice4sort6shared9smallsort12sort8_stable17hf52532f2ad9efec4E, symObjAddr: 0x50B0, symBinAddr: 0x1000250C4, symSize: 0x2B8 }
  - { offset: 0x4E964, size: 0x8, addend: 0x0, symName: __ZN4core5slice4sort6shared9smallsort18small_sort_general17h1b187870bc21ec9cE, symObjAddr: 0x5368, symBinAddr: 0x10002537C, symSize: 0x3E0 }
  - { offset: 0x4EEBF, size: 0x8, addend: 0x0, symName: __ZN4core5slice4sort6shared9smallsort18small_sort_general17hf99124f86d438951E, symObjAddr: 0x5748, symBinAddr: 0x10002575C, symSize: 0x490 }
  - { offset: 0x4F8AA, size: 0x8, addend: 0x0, symName: __ZN4core5slice4sort6stable14driftsort_main17h336c0b6e9b4b9d03E, symObjAddr: 0x5BD8, symBinAddr: 0x100025BEC, symSize: 0x14C }
  - { offset: 0x4FBE6, size: 0x8, addend: 0x0, symName: __ZN4core5slice4sort6stable14driftsort_main17h5acccd599c2d49beE, symObjAddr: 0x5D24, symBinAddr: 0x100025D38, symSize: 0x14C }
  - { offset: 0x4FF22, size: 0x8, addend: 0x0, symName: __ZN4core5slice4sort6stable14driftsort_main17h7c78856ad3a60825E, symObjAddr: 0x5E70, symBinAddr: 0x100025E84, symSize: 0x134 }
  - { offset: 0x50208, size: 0x8, addend: 0x0, symName: __ZN4core5slice4sort6stable14driftsort_main17h84941de99c019b23E, symObjAddr: 0x5FA4, symBinAddr: 0x100025FB8, symSize: 0x134 }
  - { offset: 0x5046C, size: 0x8, addend: 0x0, symName: __ZN4core5slice4sort6stable14driftsort_main17ha2d4c6ddba5a32c0E, symObjAddr: 0x60D8, symBinAddr: 0x1000260EC, symSize: 0x134 }
  - { offset: 0x50752, size: 0x8, addend: 0x0, symName: __ZN4core5slice4sort6stable14driftsort_main17hd36e3da279c0caf2E, symObjAddr: 0x620C, symBinAddr: 0x100026220, symSize: 0x134 }
  - { offset: 0x50C29, size: 0x8, addend: 0x0, symName: __ZN4core5slice4sort6stable5drift4sort17h0910c22a7aed7d80E, symObjAddr: 0x6340, symBinAddr: 0x100026354, symSize: 0x53C }
  - { offset: 0x5134C, size: 0x8, addend: 0x0, symName: __ZN4core5slice4sort6stable5drift4sort17h332562468c2be195E, symObjAddr: 0x687C, symBinAddr: 0x100026890, symSize: 0x618 }
  - { offset: 0x51A20, size: 0x8, addend: 0x0, symName: __ZN4core5slice4sort6stable5drift4sort17h71452eb72df08de3E, symObjAddr: 0x6E94, symBinAddr: 0x100026EA8, symSize: 0x6DC }
  - { offset: 0x52141, size: 0x8, addend: 0x0, symName: __ZN4core5slice4sort6stable5drift4sort17h783f7383454d67d0E, symObjAddr: 0x7570, symBinAddr: 0x100027584, symSize: 0x4DC }
  - { offset: 0x527DC, size: 0x8, addend: 0x0, symName: __ZN4core5slice4sort6stable5drift4sort17ha690b9c547494817E, symObjAddr: 0x7A4C, symBinAddr: 0x100027A60, symSize: 0x5A8 }
  - { offset: 0x52E9C, size: 0x8, addend: 0x0, symName: __ZN4core5slice4sort6stable5drift4sort17heeed68b538603972E, symObjAddr: 0x7FF4, symBinAddr: 0x100028008, symSize: 0x5B0 }
  - { offset: 0x53788, size: 0x8, addend: 0x0, symName: __ZN4core5slice4sort6stable9quicksort9quicksort17h07609bc7b46cc4c3E, symObjAddr: 0x85A4, symBinAddr: 0x1000285B8, symSize: 0x80C }
  - { offset: 0x5434F, size: 0x8, addend: 0x0, symName: __ZN4core5slice4sort6stable9quicksort9quicksort17h2208f4fd7ef38689E, symObjAddr: 0x8DB0, symBinAddr: 0x100028DC4, symSize: 0x730 }
  - { offset: 0x54A6B, size: 0x8, addend: 0x0, symName: __ZN4core5slice4sort6stable9quicksort9quicksort17h698d50eee9524539E, symObjAddr: 0x94E0, symBinAddr: 0x1000294F4, symSize: 0x7F0 }
  - { offset: 0x55632, size: 0x8, addend: 0x0, symName: __ZN4core5slice4sort6stable9quicksort9quicksort17h71557a9ccb20f345E, symObjAddr: 0x9CD0, symBinAddr: 0x100029CE4, symSize: 0x6BC }
  - { offset: 0x560B9, size: 0x8, addend: 0x0, symName: __ZN4core5slice4sort6stable9quicksort9quicksort17h7d18675e56ccfb08E, symObjAddr: 0xA38C, symBinAddr: 0x10002A3A0, symSize: 0x81C }
  - { offset: 0x57174, size: 0x8, addend: 0x0, symName: __ZN4core5slice4sort6stable9quicksort9quicksort17ha6ab4781e3122c0bE, symObjAddr: 0xABA8, symBinAddr: 0x10002ABBC, symSize: 0x6E4 }
  - { offset: 0x57C36, size: 0x8, addend: 0x0, symName: __ZN4core5slice4sort8unstable7ipnsort17h0c1df14bd3af3f85E, symObjAddr: 0xB28C, symBinAddr: 0x10002B2A0, symSize: 0x288 }
  - { offset: 0x57EC8, size: 0x8, addend: 0x0, symName: __ZN4core5slice4sort8unstable7ipnsort17h1f03437c860126fdE, symObjAddr: 0xB514, symBinAddr: 0x10002B528, symSize: 0x1E4 }
  - { offset: 0x57FEB, size: 0x8, addend: 0x0, symName: __ZN4core5slice4sort8unstable8heapsort8heapsort17h6c6484d3e7d22d28E, symObjAddr: 0xB6F8, symBinAddr: 0x10002B70C, symSize: 0x160 }
  - { offset: 0x582FD, size: 0x8, addend: 0x0, symName: __ZN4core5slice4sort8unstable8heapsort8heapsort17hc2e0562e52d73606E, symObjAddr: 0xB858, symBinAddr: 0x10002B86C, symSize: 0x10C }
  - { offset: 0x5858E, size: 0x8, addend: 0x0, symName: __ZN4core5slice4sort8unstable9quicksort9quicksort17h340ba531f4e54d1bE, symObjAddr: 0xB964, symBinAddr: 0x10002B978, symSize: 0x5B4 }
  - { offset: 0x591B9, size: 0x8, addend: 0x0, symName: __ZN4core5slice4sort8unstable9quicksort9quicksort17h91c5d9a2f27051c0E, symObjAddr: 0xBF18, symBinAddr: 0x10002BF2C, symSize: 0x440 }
  - { offset: 0x59BEA, size: 0x8, addend: 0x0, symName: '__ZN36_$LT$T$u20$as$u20$core..any..Any$GT$7type_id17h05f8617bbf325208E', symObjAddr: 0x13C, symBinAddr: 0x100020264, symSize: 0x30 }
  - { offset: 0x59C04, size: 0x8, addend: 0x0, symName: '__ZN36_$LT$T$u20$as$u20$core..any..Any$GT$7type_id17h691ab2dff0fbe812E', symObjAddr: 0x16C, symBinAddr: 0x100020294, symSize: 0x30 }
  - { offset: 0x59C1E, size: 0x8, addend: 0x0, symName: '__ZN36_$LT$T$u20$as$u20$core..any..Any$GT$7type_id17h9ca45d236155799cE', symObjAddr: 0x19C, symBinAddr: 0x1000202C4, symSize: 0x30 }
  - { offset: 0x59CBA, size: 0x8, addend: 0x0, symName: '__ZN41_$LT$bool$u20$as$u20$core..fmt..Debug$GT$3fmt17h9e9b2eff902fdd93E', symObjAddr: 0x1CC, symBinAddr: 0x1000202F4, symSize: 0x10 }
  - { offset: 0x59CDB, size: 0x8, addend: 0x0, symName: '__ZN42_$LT$$RF$T$u20$as$u20$core..fmt..Debug$GT$3fmt17h0c83902e8ea752acE', symObjAddr: 0x1DC, symBinAddr: 0x100020304, symSize: 0x58 }
  - { offset: 0x59D0C, size: 0x8, addend: 0x0, symName: '__ZN42_$LT$$RF$T$u20$as$u20$core..fmt..Debug$GT$3fmt17h177df7372056bd30E', symObjAddr: 0x234, symBinAddr: 0x10002035C, symSize: 0x30 }
  - { offset: 0x59D52, size: 0x8, addend: 0x0, symName: '__ZN42_$LT$$RF$T$u20$as$u20$core..fmt..Debug$GT$3fmt17h178dbf31caae2ffeE', symObjAddr: 0x264, symBinAddr: 0x10002038C, symSize: 0x78 }
  - { offset: 0x59E11, size: 0x8, addend: 0x0, symName: '__ZN42_$LT$$RF$T$u20$as$u20$core..fmt..Debug$GT$3fmt17h245b5f550df0d893E', symObjAddr: 0x2DC, symBinAddr: 0x100020404, symSize: 0xC8 }
  - { offset: 0x59E3B, size: 0x8, addend: 0x0, symName: '__ZN42_$LT$$RF$T$u20$as$u20$core..fmt..Debug$GT$3fmt17h2b4369e16ec214b1E', symObjAddr: 0x3A4, symBinAddr: 0x1000204CC, symSize: 0x74 }
  - { offset: 0x59F8B, size: 0x8, addend: 0x0, symName: '__ZN42_$LT$$RF$T$u20$as$u20$core..fmt..Debug$GT$3fmt17h2f7cb0653a474c6fE', symObjAddr: 0x418, symBinAddr: 0x100020540, symSize: 0x9C }
  - { offset: 0x5A035, size: 0x8, addend: 0x0, symName: '__ZN42_$LT$$RF$T$u20$as$u20$core..fmt..Debug$GT$3fmt17h3b4c7e82f91c2851E', symObjAddr: 0x4B4, symBinAddr: 0x1000205DC, symSize: 0x14 }
  - { offset: 0x5A050, size: 0x8, addend: 0x0, symName: '__ZN42_$LT$$RF$T$u20$as$u20$core..fmt..Debug$GT$3fmt17h3e34b492a7e96395E', symObjAddr: 0x4C8, symBinAddr: 0x1000205F0, symSize: 0x64 }
  - { offset: 0x5A081, size: 0x8, addend: 0x0, symName: '__ZN42_$LT$$RF$T$u20$as$u20$core..fmt..Debug$GT$3fmt17h46a456e504746f37E', symObjAddr: 0x52C, symBinAddr: 0x100020654, symSize: 0x14 }
  - { offset: 0x5A09C, size: 0x8, addend: 0x0, symName: '__ZN42_$LT$$RF$T$u20$as$u20$core..fmt..Debug$GT$3fmt17h6017eb553f555eeaE', symObjAddr: 0x540, symBinAddr: 0x100020668, symSize: 0x30 }
  - { offset: 0x5A0F0, size: 0x8, addend: 0x0, symName: '__ZN42_$LT$$RF$T$u20$as$u20$core..fmt..Debug$GT$3fmt17h6fe4a21a5a9dc639E', symObjAddr: 0x570, symBinAddr: 0x100020698, symSize: 0x1C }
  - { offset: 0x5A121, size: 0x8, addend: 0x0, symName: '__ZN42_$LT$$RF$T$u20$as$u20$core..fmt..Debug$GT$3fmt17h7483ad4d5a6f3c17E', symObjAddr: 0x58C, symBinAddr: 0x1000206B4, symSize: 0x44 }
  - { offset: 0x5A152, size: 0x8, addend: 0x0, symName: '__ZN42_$LT$$RF$T$u20$as$u20$core..fmt..Debug$GT$3fmt17h77a5695ac77f08b5E', symObjAddr: 0x5D0, symBinAddr: 0x1000206F8, symSize: 0x4C }
  - { offset: 0x5A1C1, size: 0x8, addend: 0x0, symName: '__ZN42_$LT$$RF$T$u20$as$u20$core..fmt..Debug$GT$3fmt17h85d76e334d46ea19E', symObjAddr: 0x61C, symBinAddr: 0x100020744, symSize: 0x1C }
  - { offset: 0x5A1F2, size: 0x8, addend: 0x0, symName: '__ZN42_$LT$$RF$T$u20$as$u20$core..fmt..Debug$GT$3fmt17h9393fbad5eb3bf13E', symObjAddr: 0x638, symBinAddr: 0x100020760, symSize: 0x1C }
  - { offset: 0x5A214, size: 0x8, addend: 0x0, symName: '__ZN42_$LT$$RF$T$u20$as$u20$core..fmt..Debug$GT$3fmt17h97369a355d5a0815E', symObjAddr: 0x654, symBinAddr: 0x10002077C, symSize: 0x74 }
  - { offset: 0x5A2D3, size: 0x8, addend: 0x0, symName: '__ZN42_$LT$$RF$T$u20$as$u20$core..fmt..Debug$GT$3fmt17h9b3910cf5098e39aE', symObjAddr: 0x6C8, symBinAddr: 0x1000207F0, symSize: 0x30 }
  - { offset: 0x5A319, size: 0x8, addend: 0x0, symName: '__ZN42_$LT$$RF$T$u20$as$u20$core..fmt..Debug$GT$3fmt17hab1bf34c3776e549E', symObjAddr: 0x6F8, symBinAddr: 0x100020820, symSize: 0x38 }
  - { offset: 0x5A34A, size: 0x8, addend: 0x0, symName: '__ZN42_$LT$$RF$T$u20$as$u20$core..fmt..Debug$GT$3fmt17hb5e58b4cf471debeE', symObjAddr: 0x730, symBinAddr: 0x100020858, symSize: 0x30 }
  - { offset: 0x5A390, size: 0x8, addend: 0x0, symName: '__ZN42_$LT$$RF$T$u20$as$u20$core..fmt..Debug$GT$3fmt17hba34b26fb7987f8bE', symObjAddr: 0x760, symBinAddr: 0x100020888, symSize: 0x64 }
  - { offset: 0x5A3C1, size: 0x8, addend: 0x0, symName: '__ZN42_$LT$$RF$T$u20$as$u20$core..fmt..Debug$GT$3fmt17hbd10464c890b4696E', symObjAddr: 0x7C4, symBinAddr: 0x1000208EC, symSize: 0x14 }
  - { offset: 0x5A3DC, size: 0x8, addend: 0x0, symName: '__ZN42_$LT$$RF$T$u20$as$u20$core..fmt..Debug$GT$3fmt17hbeb26db500e53543E', symObjAddr: 0x7D8, symBinAddr: 0x100020900, symSize: 0x1C }
  - { offset: 0x5A3F7, size: 0x8, addend: 0x0, symName: '__ZN42_$LT$$RF$T$u20$as$u20$core..fmt..Debug$GT$3fmt17hc36902adef03794fE', symObjAddr: 0x7F4, symBinAddr: 0x10002091C, symSize: 0x70 }
  - { offset: 0x5A428, size: 0x8, addend: 0x0, symName: '__ZN42_$LT$$RF$T$u20$as$u20$core..fmt..Debug$GT$3fmt17hc56882e380cb3f1cE', symObjAddr: 0x864, symBinAddr: 0x10002098C, symSize: 0x144 }
  - { offset: 0x5A467, size: 0x8, addend: 0x0, symName: '__ZN42_$LT$$RF$T$u20$as$u20$core..fmt..Debug$GT$3fmt17hd3ffafe468f6f39dE', symObjAddr: 0x9A8, symBinAddr: 0x100020AD0, symSize: 0x2C }
  - { offset: 0x5A4D9, size: 0x8, addend: 0x0, symName: '__ZN42_$LT$$RF$T$u20$as$u20$core..fmt..Debug$GT$3fmt17hd6fff32b815d6c00E', symObjAddr: 0x9D4, symBinAddr: 0x100020AFC, symSize: 0x74 }
  - { offset: 0x5A50A, size: 0x8, addend: 0x0, symName: '__ZN42_$LT$$RF$T$u20$as$u20$core..fmt..Debug$GT$3fmt17hd793938e439b1e01E', symObjAddr: 0xA48, symBinAddr: 0x100020B70, symSize: 0x38 }
  - { offset: 0x5A53B, size: 0x8, addend: 0x0, symName: '__ZN42_$LT$$RF$T$u20$as$u20$core..fmt..Debug$GT$3fmt17hd81565514df3c78bE', symObjAddr: 0xA80, symBinAddr: 0x100020BA8, symSize: 0x6C }
  - { offset: 0x5A56C, size: 0x8, addend: 0x0, symName: '__ZN42_$LT$$RF$T$u20$as$u20$core..fmt..Debug$GT$3fmt17hee44d9bace0a9d8dE', symObjAddr: 0xAEC, symBinAddr: 0x100020C14, symSize: 0x68 }
  - { offset: 0x5A59D, size: 0x8, addend: 0x0, symName: '__ZN42_$LT$$RF$T$u20$as$u20$core..fmt..Debug$GT$3fmt17hf09abca958d0012bE', symObjAddr: 0xB54, symBinAddr: 0x100020C7C, symSize: 0x2C }
  - { offset: 0x5A6D3, size: 0x8, addend: 0x0, symName: '__ZN42_$LT$$RF$T$u20$as$u20$core..fmt..Debug$GT$3fmt17hf8e4e8e01235cb62E', symObjAddr: 0xB80, symBinAddr: 0x100020CA8, symSize: 0x38 }
  - { offset: 0x5A704, size: 0x8, addend: 0x0, symName: '__ZN42_$LT$$RF$T$u20$as$u20$core..fmt..Debug$GT$3fmt17hf9f0136a72e97d04E', symObjAddr: 0xBB8, symBinAddr: 0x100020CE0, symSize: 0x20 }
  - { offset: 0x5A7ED, size: 0x8, addend: 0x0, symName: '__ZN4core3fmt3num52_$LT$impl$u20$core..fmt..Debug$u20$for$u20$usize$GT$3fmt17hbcf940b80966635eE', symObjAddr: 0xD58, symBinAddr: 0x100020E80, symSize: 0x2C }
  - { offset: 0x5A829, size: 0x8, addend: 0x0, symName: '__ZN4core3fmt3num50_$LT$impl$u20$core..fmt..Debug$u20$for$u20$i32$GT$3fmt17hd380ad7a4fef2800E', symObjAddr: 0xCA8, symBinAddr: 0x100020DD0, symSize: 0x2C }
  - { offset: 0x5A865, size: 0x8, addend: 0x0, symName: '__ZN4core3fmt3num50_$LT$impl$u20$core..fmt..Debug$u20$for$u20$u64$GT$3fmt17hcf93b17fc1abb0a9E', symObjAddr: 0xD2C, symBinAddr: 0x100020E54, symSize: 0x2C }
  - { offset: 0x5A8A1, size: 0x8, addend: 0x0, symName: '__ZN4core3fmt3num49_$LT$impl$u20$core..fmt..Debug$u20$for$u20$u8$GT$3fmt17hdc70f7e91b6e92feE', symObjAddr: 0xC7C, symBinAddr: 0x100020DA4, symSize: 0x2C }
  - { offset: 0x5A8DD, size: 0x8, addend: 0x0, symName: '__ZN4core3fmt3num50_$LT$impl$u20$core..fmt..Debug$u20$for$u20$u32$GT$3fmt17h20423420560f3e4aE', symObjAddr: 0xD00, symBinAddr: 0x100020E28, symSize: 0x2C }
  - { offset: 0x5A90C, size: 0x8, addend: 0x0, symName: '__ZN4core3fmt3num50_$LT$impl$u20$core..fmt..Debug$u20$for$u20$i64$GT$3fmt17hec167f918c8ef705E', symObjAddr: 0xCD4, symBinAddr: 0x100020DFC, symSize: 0x2C }
  - { offset: 0x5AA2C, size: 0x8, addend: 0x0, symName: '__ZN50_$LT$$LP$U$C$T$RP$$u20$as$u20$core..fmt..Debug$GT$3fmt17h98d36de4e34baa2eE', symObjAddr: 0xC420, symBinAddr: 0x10002C380, symSize: 0x74 }
  - { offset: 0x5AA5B, size: 0x8, addend: 0x0, symName: '__ZN45_$LT$$LP$$RP$$u20$as$u20$core..fmt..Debug$GT$3fmt17h51ca4bbc42111efeE', symObjAddr: 0xC5C, symBinAddr: 0x100020D84, symSize: 0x20 }
  - { offset: 0x5AA75, size: 0x8, addend: 0x0, symName: '__ZN44_$LT$$RF$T$u20$as$u20$core..fmt..Display$GT$3fmt17h78eac1383a7063d7E', symObjAddr: 0xBD8, symBinAddr: 0x100020D00, symSize: 0x1C }
  - { offset: 0x5AA90, size: 0x8, addend: 0x0, symName: '__ZN44_$LT$$RF$T$u20$as$u20$core..fmt..Display$GT$3fmt17hcf9db2113d250371E', symObjAddr: 0xBF4, symBinAddr: 0x100020D1C, symSize: 0x68 }
  - { offset: 0x5B0CA, size: 0x8, addend: 0x0, symName: __ZN4core3fmt5Write10write_char17h4f2ce982b115088dE, symObjAddr: 0xD84, symBinAddr: 0x100020EAC, symSize: 0x17C }
  - { offset: 0x5B254, size: 0x8, addend: 0x0, symName: __ZN4core3fmt5Write10write_char17h561dbab5b5c32ca3E, symObjAddr: 0xF00, symBinAddr: 0x100021028, symSize: 0x140 }
  - { offset: 0x5B2BA, size: 0x8, addend: 0x0, symName: __ZN4core3fmt5Write10write_char17h5faeed758c2200efE, symObjAddr: 0x1040, symBinAddr: 0x100021168, symSize: 0x128 }
  - { offset: 0x5B452, size: 0x8, addend: 0x0, symName: __ZN4core3fmt5Write10write_char17h902297fe9019c92dE, symObjAddr: 0x1168, symBinAddr: 0x100021290, symSize: 0x17C }
  - { offset: 0x5B5DC, size: 0x8, addend: 0x0, symName: __ZN4core3fmt5Write10write_char17hc47f3f15ef1db82aE, symObjAddr: 0x12E4, symBinAddr: 0x10002140C, symSize: 0x140 }
  - { offset: 0x5B69C, size: 0x8, addend: 0x0, symName: __ZN4core3fmt5Write9write_fmt17h273b6f5d029be9e0E, symObjAddr: 0x1424, symBinAddr: 0x10002154C, symSize: 0x1C }
  - { offset: 0x5B6CB, size: 0x8, addend: 0x0, symName: __ZN4core3fmt5Write9write_fmt17h4a87f4fec52c05fcE, symObjAddr: 0x1440, symBinAddr: 0x100021568, symSize: 0x1C }
  - { offset: 0x5B6FA, size: 0x8, addend: 0x0, symName: __ZN4core3fmt5Write9write_fmt17h710862463af65ce5E, symObjAddr: 0x145C, symBinAddr: 0x100021584, symSize: 0x1C }
  - { offset: 0x5B729, size: 0x8, addend: 0x0, symName: __ZN4core3fmt5Write9write_fmt17hb8ba3d0d23b58844E, symObjAddr: 0x1478, symBinAddr: 0x1000215A0, symSize: 0x1C }
  - { offset: 0x5B758, size: 0x8, addend: 0x0, symName: __ZN4core3fmt5Write9write_fmt17hc8a95e3c90fe4721E, symObjAddr: 0x1494, symBinAddr: 0x1000215BC, symSize: 0x1C }
  - { offset: 0x5B787, size: 0x8, addend: 0x0, symName: __ZN4core3fmt5Write9write_fmt17he65f057c4ddb1bf2E, symObjAddr: 0x14B0, symBinAddr: 0x1000215D8, symSize: 0x1C }
  - { offset: 0x5B7E4, size: 0x8, addend: 0x0, symName: '__ZN50_$LT$$BP$mut$u20$T$u20$as$u20$core..fmt..Debug$GT$3fmt17he21299819320e252E', symObjAddr: 0xC40C, symBinAddr: 0x10002C36C, symSize: 0x14 }
  - { offset: 0x5B831, size: 0x8, addend: 0x0, symName: '__ZN52_$LT$$RF$mut$u20$T$u20$as$u20$core..fmt..Display$GT$3fmt17h7c765da0058d0c3fE', symObjAddr: 0xC494, symBinAddr: 0x10002C3F4, symSize: 0x1C }
  - { offset: 0x5B866, size: 0x8, addend: 0x0, symName: '__ZN4core5array69_$LT$impl$u20$core..fmt..Debug$u20$for$u20$$u5b$T$u3b$$u20$N$u5d$$GT$3fmt17h82acd2cb7f141bddE', symObjAddr: 0x44A0, symBinAddr: 0x1000244B4, symSize: 0xFC }
  - { offset: 0x5BF5F, size: 0x8, addend: 0x0, symName: '__ZN73_$LT$core..num..nonzero..NonZero$LT$T$GT$$u20$as$u20$core..fmt..Debug$GT$3fmt17hddcefe0dccb396cdE', symObjAddr: 0x18488, symBinAddr: 0x100038304, symSize: 0x48 }
  - { offset: 0x5C5A9, size: 0x8, addend: 0x0, symName: '__ZN70_$LT$core..num..error..TryFromIntError$u20$as$u20$core..fmt..Debug$GT$3fmt17hd581645ad523dbd4E', symObjAddr: 0x1842C, symBinAddr: 0x1000382A8, symSize: 0x40 }
  - { offset: 0x5C5C9, size: 0x8, addend: 0x0, symName: '__ZN72_$LT$core..num..error..TryFromIntError$u20$as$u20$core..error..Error$GT$11description17h6516769c44e1ac39E', symObjAddr: 0x1846C, symBinAddr: 0x1000382E8, symSize: 0x1C }
  - { offset: 0x5C835, size: 0x8, addend: 0x0, symName: '__ZN55_$LT$$RF$str$u20$as$u20$core..str..pattern..Pattern$GT$15is_contained_in17h61deb4b8b00e9356E', symObjAddr: 0xC4B0, symBinAddr: 0x10002C410, symSize: 0x3BC }
  - { offset: 0x5CD19, size: 0x8, addend: 0x0, symName: __ZN4core5panic12PanicPayload6as_str17h7a58625bedad2dd7E, symObjAddr: 0x4644, symBinAddr: 0x100024658, symSize: 0x14 }
  - { offset: 0x5E5B3, size: 0x8, addend: 0x0, symName: __ZN4core3ops8function2Fn4call17h5a9d1a4a112cc64dE, symObjAddr: 0x14CC, symBinAddr: 0x1000215F4, symSize: 0x14 }
  - { offset: 0x5E5D3, size: 0x8, addend: 0x0, symName: __ZN4core3ops8function5FnMut8call_mut17h9b398cd5398202c3E, symObjAddr: 0x14E0, symBinAddr: 0x100021608, symSize: 0x14 }
  - { offset: 0x5E634, size: 0x8, addend: 0x0, symName: '__ZN4core3ops8function6FnOnce40call_once$u7b$$u7b$vtable.shim$u7d$$u7d$17h0eb852fd7c380454E', symObjAddr: 0x14F4, symBinAddr: 0x10002161C, symSize: 0x18 }
  - { offset: 0x5E685, size: 0x8, addend: 0x0, symName: '__ZN4core3ops8function6FnOnce40call_once$u7b$$u7b$vtable.shim$u7d$$u7d$17h1e3c31538c4557bcE', symObjAddr: 0x150C, symBinAddr: 0x100021634, symSize: 0x74 }
  - { offset: 0x5E7FE, size: 0x8, addend: 0x0, symName: '__ZN4core3ops8function6FnOnce40call_once$u7b$$u7b$vtable.shim$u7d$$u7d$17h2d847a7cd888d5d5E', symObjAddr: 0x1580, symBinAddr: 0x1000216A8, symSize: 0x18 }
  - { offset: 0x5E84F, size: 0x8, addend: 0x0, symName: '__ZN4core3ops8function6FnOnce40call_once$u7b$$u7b$vtable.shim$u7d$$u7d$17h3750d9ec770c10b1E', symObjAddr: 0x1598, symBinAddr: 0x1000216C0, symSize: 0xB0 }
  - { offset: 0x5E9A0, size: 0x8, addend: 0x0, symName: '__ZN4core3ops8function6FnOnce40call_once$u7b$$u7b$vtable.shim$u7d$$u7d$17h4dab06bdd193d52eE', symObjAddr: 0x1648, symBinAddr: 0x100021770, symSize: 0x14 }
  - { offset: 0x5E9DC, size: 0x8, addend: 0x0, symName: '__ZN4core3ops8function6FnOnce40call_once$u7b$$u7b$vtable.shim$u7d$$u7d$17h5e1873a29e148d92E', symObjAddr: 0x165C, symBinAddr: 0x100021784, symSize: 0x18 }
  - { offset: 0x5EA18, size: 0x8, addend: 0x0, symName: '__ZN4core3ops8function6FnOnce40call_once$u7b$$u7b$vtable.shim$u7d$$u7d$17h921122b90dd376f4E', symObjAddr: 0x1674, symBinAddr: 0x10002179C, symSize: 0x28 }
  - { offset: 0x5EA54, size: 0x8, addend: 0x0, symName: '__ZN4core3ops8function6FnOnce40call_once$u7b$$u7b$vtable.shim$u7d$$u7d$17ha9e675c9b3024f0cE', symObjAddr: 0x169C, symBinAddr: 0x1000217C4, symSize: 0x10 }
  - { offset: 0x5EA90, size: 0x8, addend: 0x0, symName: '__ZN4core3ops8function6FnOnce40call_once$u7b$$u7b$vtable.shim$u7d$$u7d$17hb3bffd20ef83a1afE', symObjAddr: 0x16AC, symBinAddr: 0x1000217D4, symSize: 0x78 }
  - { offset: 0x5EC25, size: 0x8, addend: 0x0, symName: '__ZN4core3ops8function6FnOnce40call_once$u7b$$u7b$vtable.shim$u7d$$u7d$17hce554f1a6421566bE', symObjAddr: 0x1724, symBinAddr: 0x10002184C, symSize: 0x28 }
  - { offset: 0x5EC61, size: 0x8, addend: 0x0, symName: '__ZN4core3ops8function6FnOnce40call_once$u7b$$u7b$vtable.shim$u7d$$u7d$17hd3f4c9f3cd25c962E', symObjAddr: 0x174C, symBinAddr: 0x100021874, symSize: 0xA4 }
  - { offset: 0x5EDA7, size: 0x8, addend: 0x0, symName: '__ZN4core3ops8function6FnOnce40call_once$u7b$$u7b$vtable.shim$u7d$$u7d$17hd455b8914116fed3E', symObjAddr: 0x17F0, symBinAddr: 0x100021918, symSize: 0x10 }
  - { offset: 0x5EDE3, size: 0x8, addend: 0x0, symName: '__ZN4core3ops8function6FnOnce40call_once$u7b$$u7b$vtable.shim$u7d$$u7d$17hedaaa27097ec661bE', symObjAddr: 0x1800, symBinAddr: 0x100021928, symSize: 0x60 }
  - { offset: 0x5EEF2, size: 0x8, addend: 0x0, symName: '__ZN4core3ops8function6FnOnce40call_once$u7b$$u7b$vtable.shim$u7d$$u7d$17hf3f69d97b1da84c4E', symObjAddr: 0x1860, symBinAddr: 0x100021988, symSize: 0x28 }
  - { offset: 0x63045, size: 0x8, addend: 0x0, symName: '__ZN4core4cell4once17OnceCell$LT$T$GT$8try_init17hc4adabb9fa3e8a4dE', symObjAddr: 0x438C, symBinAddr: 0x1000A7DB4, symSize: 0x114 }
  - { offset: 0x6361F, size: 0x8, addend: 0x0, symName: __ZN4core5error5Error5cause17he5f5866634b34abeE, symObjAddr: 0x459C, symBinAddr: 0x1000245B0, symSize: 0x14 }
  - { offset: 0x63639, size: 0x8, addend: 0x0, symName: __ZN4core5error5Error5cause17hed71aa76d36b00cbE, symObjAddr: 0x45B0, symBinAddr: 0x1000245C4, symSize: 0x14 }
  - { offset: 0x63653, size: 0x8, addend: 0x0, symName: __ZN4core5error5Error7provide17hbb88aaecb7888c77E, symObjAddr: 0x45C4, symBinAddr: 0x1000245D8, symSize: 0x10 }
  - { offset: 0x6366D, size: 0x8, addend: 0x0, symName: __ZN4core5error5Error7provide17hd090dbf8d04f3e78E, symObjAddr: 0x45D4, symBinAddr: 0x1000245E8, symSize: 0x10 }
  - { offset: 0x63687, size: 0x8, addend: 0x0, symName: __ZN4core5error5Error7type_id17h9bbf77c273b002ecE, symObjAddr: 0x45E4, symBinAddr: 0x1000245F8, symSize: 0x30 }
  - { offset: 0x636A1, size: 0x8, addend: 0x0, symName: __ZN4core5error5Error7type_id17hcb9f32e88d3ef938E, symObjAddr: 0x4614, symBinAddr: 0x100024628, symSize: 0x30 }
  - { offset: 0x636C2, size: 0x8, addend: 0x0, symName: __ZN4core9panicking13assert_failed17h44dfa2b6b0a073dcE, symObjAddr: 0xC358, symBinAddr: 0x1000A7EC8, symSize: 0x44 }
  - { offset: 0x636DE, size: 0x8, addend: 0x0, symName: __ZN4core9panicking13assert_failed17h5af2e1f3f6cf3b70E, symObjAddr: 0xC39C, symBinAddr: 0x1000A7F0C, symSize: 0x40 }
  - { offset: 0x636FA, size: 0x8, addend: 0x0, symName: __ZN4core9panicking13assert_failed17h69463876ec72e065E, symObjAddr: 0xC3DC, symBinAddr: 0x1000A7F4C, symSize: 0x30 }
  - { offset: 0x63F18, size: 0x8, addend: 0x0, symName: '__ZN92_$LT$std..sys..pal..unix..process..process_inner..ExitStatus$u20$as$u20$core..fmt..Debug$GT$3fmt17h119e992c6eb699a5E', symObjAddr: 0x4212C, symBinAddr: 0x100061038, symSize: 0x58 }
  - { offset: 0x63F78, size: 0x8, addend: 0x0, symName: __ZN3std3sys3pal4unix7process13process_inner7Process4wait17h325cd4976e583510E, symObjAddr: 0x4208C, symBinAddr: 0x100060F98, symSize: 0xA0 }
  - { offset: 0x64115, size: 0x8, addend: 0x0, symName: '__ZN193_$LT$std..sys..pal..unix..process..process_inner..$LT$impl$u20$std..sys..pal..unix..process..process_common..Command$GT$..posix_spawn..PosixSpawnFileActions$u20$as$u20$core..ops..drop..Drop$GT$4drop17hab4e80a4f6e4a5deE', symObjAddr: 0x42064, symBinAddr: 0x100060F70, symSize: 0x14 }
  - { offset: 0x6413D, size: 0x8, addend: 0x0, symName: '__ZN186_$LT$std..sys..pal..unix..process..process_inner..$LT$impl$u20$std..sys..pal..unix..process..process_common..Command$GT$..posix_spawn..PosixSpawnattr$u20$as$u20$core..ops..drop..Drop$GT$4drop17heead820de25b879eE', symObjAddr: 0x42078, symBinAddr: 0x100060F84, symSize: 0x14 }
  - { offset: 0x641A3, size: 0x8, addend: 0x0, symName: '__ZN173_$LT$std..sys..pal..unix..process..process_inner..$LT$impl$u20$std..sys..pal..unix..process..process_common..Command$GT$..do_exec..Reset$u20$as$u20$core..ops..drop..Drop$GT$4drop17h5a7ac91c7eca8b6eE', symObjAddr: 0x42040, symBinAddr: 0x100060F4C, symSize: 0x24 }
  - { offset: 0x641FD, size: 0x8, addend: 0x0, symName: '__ZN94_$LT$std..sys..pal..unix..process..process_inner..ExitStatus$u20$as$u20$core..fmt..Display$GT$3fmt17h71f65b4645dd1f42E', symObjAddr: 0x42184, symBinAddr: 0x100061090, symSize: 0x1B4 }
  - { offset: 0x6439D, size: 0x8, addend: 0x0, symName: '__ZN97_$LT$std..sys..pal..unix..process..process_inner..ExitStatusError$u20$as$u20$core..fmt..Debug$GT$3fmt17hdb01f360f0679bbaE', symObjAddr: 0x42338, symBinAddr: 0x100061244, symSize: 0x58 }
  - { offset: 0x64437, size: 0x8, addend: 0x0, symName: __ZN3std3sys3pal4unix7process14process_common7Command3new17h13672917ae485a29E, symObjAddr: 0x3E838, symBinAddr: 0x10005D744, symSize: 0x234 }
  - { offset: 0x64822, size: 0x8, addend: 0x0, symName: __ZN3std3sys3pal4unix7process14process_common7Command9set_arg_017hee26392c083e5594E, symObjAddr: 0x3EA6C, symBinAddr: 0x10005D978, symSize: 0xCC }
  - { offset: 0x6498F, size: 0x8, addend: 0x0, symName: __ZN3std3sys3pal4unix7process14process_common7Command3arg17h622a73bda66b03c8E, symObjAddr: 0x3EB38, symBinAddr: 0x10005DA44, symSize: 0xEC }
  - { offset: 0x64B18, size: 0x8, addend: 0x0, symName: __ZN3std3sys3pal4unix7process14process_common7Command3cwd17h26cafd8b8f9a653eE, symObjAddr: 0x3EC24, symBinAddr: 0x10005DB30, symSize: 0x60 }
  - { offset: 0x64BCA, size: 0x8, addend: 0x0, symName: __ZN3std3sys3pal4unix7process14process_common7Command8pre_exec17h8fbda1b127efca37E, symObjAddr: 0x3EC84, symBinAddr: 0x10005DB90, symSize: 0x70 }
  - { offset: 0x64CA0, size: 0x8, addend: 0x0, symName: __ZN3std3sys3pal4unix7process14process_common7Command5stdin17h2d29b891b3e6b449E, symObjAddr: 0x3ECF4, symBinAddr: 0x10005DC00, symSize: 0x44 }
  - { offset: 0x64D29, size: 0x8, addend: 0x0, symName: __ZN3std3sys3pal4unix7process14process_common7Command6stdout17hd3f7b58da7056ed1E, symObjAddr: 0x3ED38, symBinAddr: 0x10005DC44, symSize: 0x44 }
  - { offset: 0x64DB2, size: 0x8, addend: 0x0, symName: __ZN3std3sys3pal4unix7process14process_common7Command6stderr17h60f395c88f8fe6c9E, symObjAddr: 0x3ED7C, symBinAddr: 0x10005DC88, symSize: 0x44 }
  - { offset: 0x64E3B, size: 0x8, addend: 0x0, symName: __ZN3std3sys3pal4unix7process14process_common7Command11capture_env17h787ff731e01e6cefE, symObjAddr: 0x3EDC0, symBinAddr: 0x10005DCCC, symSize: 0xA60 }
  - { offset: 0x66A86, size: 0x8, addend: 0x0, symName: __ZN3std3sys3pal4unix7process14process_common7Command8setup_io17h823e3e9ebaf4453eE, symObjAddr: 0x3F820, symBinAddr: 0x10005E72C, symSize: 0x2F0 }
  - { offset: 0x66F66, size: 0x8, addend: 0x0, symName: '__ZN3std3sys3pal4unix7process13process_inner71_$LT$impl$u20$std..sys..pal..unix..process..process_common..Command$GT$5spawn17h5d451167e50d386fE', symObjAddr: 0x4132C, symBinAddr: 0x100060238, symSize: 0x9B4 }
  - { offset: 0x681F1, size: 0x8, addend: 0x0, symName: '__ZN3std3sys3pal4unix7process13process_inner71_$LT$impl$u20$std..sys..pal..unix..process..process_common..Command$GT$7do_exec17haa393386a4cc0c22E', symObjAddr: 0x41CE0, symBinAddr: 0x100060BEC, symSize: 0x360 }
  - { offset: 0x68AB5, size: 0x8, addend: 0x0, symName: '__ZN116_$LT$std..sys..pal..unix..process..process_common..CommandArgs$u20$as$u20$core..iter..traits..iterator..Iterator$GT$4next17h963e2f9af6b20000E', symObjAddr: 0x40488, symBinAddr: 0x10005F394, symSize: 0x34 }
  - { offset: 0x68ACC, size: 0x8, addend: 0x0, symName: '__ZN116_$LT$std..sys..pal..unix..process..process_common..CommandArgs$u20$as$u20$core..iter..traits..iterator..Iterator$GT$4next17h963e2f9af6b20000E', symObjAddr: 0x40488, symBinAddr: 0x10005F394, symSize: 0x34 }
  - { offset: 0x68B60, size: 0x8, addend: 0x0, symName: '__ZN116_$LT$std..sys..pal..unix..process..process_common..CommandArgs$u20$as$u20$core..iter..traits..iterator..Iterator$GT$9size_hint17h4a07d16a7e5b1de7E', symObjAddr: 0x404BC, symBinAddr: 0x10005F3C8, symSize: 0x28 }
  - { offset: 0x68BC9, size: 0x8, addend: 0x0, symName: '__ZN127_$LT$std..sys..pal..unix..process..process_common..CommandArgs$u20$as$u20$core..iter..traits..exact_size..ExactSizeIterator$GT$3len17hdc3073d741c6fa55E', symObjAddr: 0x404E4, symBinAddr: 0x10005F3F0, symSize: 0x1C }
  - { offset: 0x68CC0, size: 0x8, addend: 0x0, symName: __ZN3std3sys3pal4unix7process14process_common4os2c17hab5722c37a201f70E, symObjAddr: 0x3FB10, symBinAddr: 0x10005EA1C, symSize: 0x10C }
  - { offset: 0x68F27, size: 0x8, addend: 0x0, symName: __ZN3std3sys3pal4unix7process14process_common5Stdio14to_child_stdio17hfb2b89b82b9db403E, symObjAddr: 0x3FC1C, symBinAddr: 0x10005EB28, symSize: 0x154 }
  - { offset: 0x69048, size: 0x8, addend: 0x0, symName: '__ZN90_$LT$std..sys..pal..unix..process..process_common..Command$u20$as$u20$core..fmt..Debug$GT$3fmt17hb44da7dbd632b33bE', symObjAddr: 0x3FD70, symBinAddr: 0x10005EC7C, symSize: 0x6C0 }
  - { offset: 0x69648, size: 0x8, addend: 0x0, symName: '__ZN91_$LT$std..sys..pal..unix..process..process_common..ExitCode$u20$as$u20$core..fmt..Debug$GT$3fmt17h9f632dc3c7ee331bE', symObjAddr: 0x40430, symBinAddr: 0x10005F33C, symSize: 0x58 }
  - { offset: 0x69669, size: 0x8, addend: 0x0, symName: '__ZN94_$LT$std..sys..pal..unix..process..process_common..CommandArgs$u20$as$u20$core..fmt..Debug$GT$3fmt17h6ff63ba1900d0c7eE', symObjAddr: 0x40500, symBinAddr: 0x10005F40C, symSize: 0x78 }
  - { offset: 0x69739, size: 0x8, addend: 0x0, symName: '__ZN70_$LT$std..sys..pal..unix..fd..FileDesc$u20$as$u20$core..fmt..Debug$GT$3fmt17h45787680a0859c59E', symObjAddr: 0x412EC, symBinAddr: 0x1000601F8, symSize: 0x40 }
  - { offset: 0x69812, size: 0x8, addend: 0x0, symName: __ZN3std3sys3pal4unix2fd8FileDesc4read17h90c48124debd7791E, symObjAddr: 0x39DD0, symBinAddr: 0x100058CDC, symSize: 0x4C }
  - { offset: 0x698FC, size: 0x8, addend: 0x0, symName: __ZN3std3sys3pal4unix2fd8FileDesc13read_vectored17h54ed93f4c17c4f18E, symObjAddr: 0x39E1C, symBinAddr: 0x100058D28, symSize: 0x4C }
  - { offset: 0x699E6, size: 0x8, addend: 0x0, symName: __ZN3std3sys3pal4unix2fd8FileDesc11read_to_end17h9ea6c331881a94ebE, symObjAddr: 0x39E68, symBinAddr: 0x100058D74, symSize: 0x23C }
  - { offset: 0x69E3A, size: 0x8, addend: 0x0, symName: __ZN3std3sys3pal4unix2fd8FileDesc7read_at17hbf768989317d5a5eE, symObjAddr: 0x3A0A4, symBinAddr: 0x100058FB0, symSize: 0x4C }
  - { offset: 0x69F24, size: 0x8, addend: 0x0, symName: __ZN3std3sys3pal4unix2fd8FileDesc8read_buf17h32381f6ce0c6485dE, symObjAddr: 0x3A0F0, symBinAddr: 0x100058FFC, symSize: 0x78 }
  - { offset: 0x6A0E8, size: 0x8, addend: 0x0, symName: __ZN3std3sys3pal4unix2fd8FileDesc16read_vectored_at17hef0c6763fa7c4a56E, symObjAddr: 0x3A168, symBinAddr: 0x100059074, symSize: 0x10C }
  - { offset: 0x6A289, size: 0x8, addend: 0x0, symName: __ZN3std3sys3pal4unix2fd8FileDesc5write17h63a709af80a65a02E, symObjAddr: 0x3A274, symBinAddr: 0x100059180, symSize: 0x4C }
  - { offset: 0x6A376, size: 0x8, addend: 0x0, symName: __ZN3std3sys3pal4unix2fd8FileDesc14write_vectored17h656b27771d6be626E, symObjAddr: 0x3A2C0, symBinAddr: 0x1000591CC, symSize: 0x4C }
  - { offset: 0x6A463, size: 0x8, addend: 0x0, symName: __ZN3std3sys3pal4unix2fd8FileDesc8write_at17h16b68f91c6459658E, symObjAddr: 0x3A30C, symBinAddr: 0x100059218, symSize: 0x4C }
  - { offset: 0x6A550, size: 0x8, addend: 0x0, symName: __ZN3std3sys3pal4unix2fd8FileDesc17write_vectored_at17hc35e7a548cda2a22E, symObjAddr: 0x3A358, symBinAddr: 0x100059264, symSize: 0x10C }
  - { offset: 0x6A6F2, size: 0x8, addend: 0x0, symName: __ZN3std3sys3pal4unix2fd8FileDesc11set_cloexec17he0dbf185f3ec21d5E, symObjAddr: 0x3A464, symBinAddr: 0x100059370, symSize: 0x40 }
  - { offset: 0x6A79E, size: 0x8, addend: 0x0, symName: __ZN3std3sys3pal4unix2fd8FileDesc15set_nonblocking17h500574ddab38a851E, symObjAddr: 0x3A4A4, symBinAddr: 0x1000593B0, symSize: 0x88 }
  - { offset: 0x6AA03, size: 0x8, addend: 0x0, symName: '__ZN78_$LT$std..sys..pal..unix..fd..FileDesc$u20$as$u20$std..os..fd..owned..AsFd$GT$5as_fd17hd283742411f76864E', symObjAddr: 0x3A52C, symBinAddr: 0x100059438, symSize: 0x30 }
  - { offset: 0x6AA27, size: 0x8, addend: 0x0, symName: '__ZN78_$LT$std..sys..pal..unix..fd..FileDesc$u20$as$u20$std..os..fd..owned..AsFd$GT$5as_fd17hd283742411f76864E', symObjAddr: 0x3A52C, symBinAddr: 0x100059438, symSize: 0x30 }
  - { offset: 0x6AA85, size: 0x8, addend: 0x0, symName: '__ZN77_$LT$std..sys..pal..unix..fs..FilePermissions$u20$as$u20$core..fmt..Debug$GT$3fmt17h902032d0149dd0f1E', symObjAddr: 0x3A5C8, symBinAddr: 0x1000594D4, symSize: 0x6C }
  - { offset: 0x6AC2E, size: 0x8, addend: 0x0, symName: __ZN3std3sys3pal4unix2fs4File6open_c17h8034e496f140d197E, symObjAddr: 0x3AAF0, symBinAddr: 0x1000599FC, symSize: 0x1A8 }
  - { offset: 0x6AD10, size: 0x8, addend: 0x0, symName: __ZN3std3sys3pal4unix2fs4File4read17h8aa089257f1a9f2aE, symObjAddr: 0x3AC98, symBinAddr: 0x100059BA4, symSize: 0x4C }
  - { offset: 0x6AE10, size: 0x8, addend: 0x0, symName: __ZN3std3sys3pal4unix2fs4File13read_vectored17h6e76d8d21667602dE, symObjAddr: 0x3ACE4, symBinAddr: 0x100059BF0, symSize: 0x4C }
  - { offset: 0x6AF10, size: 0x8, addend: 0x0, symName: __ZN3std3sys3pal4unix2fs4File8read_buf17hf58c120f1b5c20b0E, symObjAddr: 0x3AD30, symBinAddr: 0x100059C3C, symSize: 0x78 }
  - { offset: 0x6B2A8, size: 0x8, addend: 0x0, symName: __ZN3std3sys3pal4unix2fs8DirEntry8metadata17hae6f0264f833a24dE, symObjAddr: 0x3A864, symBinAddr: 0x100059770, symSize: 0x16C }
  - { offset: 0x6B886, size: 0x8, addend: 0x0, symName: '__ZN3std3sys3pal4unix2fs10DirBuilder5mkdir28_$u7b$$u7b$closure$u7d$$u7d$17h6560d605ee2f73cbE', symObjAddr: 0x3ADA8, symBinAddr: 0x100059CB4, symSize: 0x44 }
  - { offset: 0x6B92A, size: 0x8, addend: 0x0, symName: '__ZN3std3sys3pal4unix2fs4stat28_$u7b$$u7b$closure$u7d$$u7d$17h70f9192ee568bef6E', symObjAddr: 0x3C260, symBinAddr: 0x10005B16C, symSize: 0xAC }
  - { offset: 0x6BA31, size: 0x8, addend: 0x0, symName: '__ZN3std3sys3pal4unix2fs5lstat28_$u7b$$u7b$closure$u7d$$u7d$17hd0283e1cdef8ce8bE', symObjAddr: 0x3C430, symBinAddr: 0x10005B33C, symSize: 0xAC }
  - { offset: 0x6BB44, size: 0x8, addend: 0x0, symName: '__ZN70_$LT$std..sys..pal..unix..fs..FileType$u20$as$u20$core..fmt..Debug$GT$3fmt17h92dd30575d7df99aE', symObjAddr: 0x3A55C, symBinAddr: 0x100059468, symSize: 0x6C }
  - { offset: 0x6BB65, size: 0x8, addend: 0x0, symName: '__ZN69_$LT$std..sys..pal..unix..fs..ReadDir$u20$as$u20$core..fmt..Debug$GT$3fmt17hc96cca0d8a532facE', symObjAddr: 0x3A634, symBinAddr: 0x100059540, symSize: 0x2C }
  - { offset: 0x6BD24, size: 0x8, addend: 0x0, symName: '__ZN91_$LT$std..sys..pal..unix..fs..ReadDir$u20$as$u20$core..iter..traits..iterator..Iterator$GT$4next17hfd848aedf765e6c4E', symObjAddr: 0x3A660, symBinAddr: 0x10005956C, symSize: 0x138 }
  - { offset: 0x6BF9B, size: 0x8, addend: 0x0, symName: '__ZN70_$LT$std..sys..pal..unix..fs..Dir$u20$as$u20$core..ops..drop..Drop$GT$4drop17he97ce98f5d03c2b0E', symObjAddr: 0x3A798, symBinAddr: 0x1000596A4, symSize: 0xCC }
  - { offset: 0x6C06D, size: 0x8, addend: 0x0, symName: '__ZN73_$LT$std..sys..pal..unix..fs..OpenOptions$u20$as$u20$core..fmt..Debug$GT$3fmt17ha06b6c2eff7953ecE', symObjAddr: 0x3A9D0, symBinAddr: 0x1000598DC, symSize: 0x120 }
  - { offset: 0x6C08E, size: 0x8, addend: 0x0, symName: '__ZN72_$LT$std..sys..pal..unix..fs..DirBuilder$u20$as$u20$core..fmt..Debug$GT$3fmt17h85a4248a83adaeacE', symObjAddr: 0x3ADEC, symBinAddr: 0x100059CF8, symSize: 0x6C }
  - { offset: 0x6C101, size: 0x8, addend: 0x0, symName: '__ZN66_$LT$std..sys..pal..unix..fs..File$u20$as$u20$core..fmt..Debug$GT$3fmt17h6f5f6f71f40e63f3E', symObjAddr: 0x3AE58, symBinAddr: 0x100059D64, symSize: 0x22C }
  - { offset: 0x6C567, size: 0x8, addend: 0x0, symName: '__ZN66_$LT$std..sys..pal..unix..fs..Mode$u20$as$u20$core..fmt..Debug$GT$3fmt17hd154ad7162f80a67E', symObjAddr: 0x3B084, symBinAddr: 0x100059F90, symSize: 0x328 }
  - { offset: 0x6C5D0, size: 0x8, addend: 0x0, symName: __ZN3std3sys3pal4unix2fs7readdir17h59e2c8552d831ce3E, symObjAddr: 0x3B3AC, symBinAddr: 0x10005A2B8, symSize: 0x19C }
  - { offset: 0x6C887, size: 0x8, addend: 0x0, symName: '__ZN3std3sys3pal4unix2fs6unlink28_$u7b$$u7b$closure$u7d$$u7d$17h904cc607837fa578E', symObjAddr: 0x3B608, symBinAddr: 0x10005A514, symSize: 0x38 }
  - { offset: 0x6C909, size: 0x8, addend: 0x0, symName: __ZN3std3sys3pal4unix2fs6unlink17h51654ca4416998bfE, symObjAddr: 0x3B548, symBinAddr: 0x10005A454, symSize: 0xC0 }
  - { offset: 0x6CA33, size: 0x8, addend: 0x0, symName: '__ZN3std3sys3pal4unix2fs6rename28_$u7b$$u7b$closure$u7d$$u7d$28_$u7b$$u7b$closure$u7d$$u7d$17h5eac3de4cd12b91dE', symObjAddr: 0x3B820, symBinAddr: 0x10005A72C, symSize: 0x38 }
  - { offset: 0x6CAB5, size: 0x8, addend: 0x0, symName: '__ZN3std3sys3pal4unix2fs6rename28_$u7b$$u7b$closure$u7d$$u7d$17h5cb34c4ac39bf188E', symObjAddr: 0x3B764, symBinAddr: 0x10005A670, symSize: 0xBC }
  - { offset: 0x6CBCA, size: 0x8, addend: 0x0, symName: __ZN3std3sys3pal4unix2fs6rename17h423f31950d2b69dbE, symObjAddr: 0x3B640, symBinAddr: 0x10005A54C, symSize: 0x124 }
  - { offset: 0x6CD67, size: 0x8, addend: 0x0, symName: '__ZN3std3sys3pal4unix2fs8set_perm28_$u7b$$u7b$closure$u7d$$u7d$17h332511d630c810aeE', symObjAddr: 0x3B930, symBinAddr: 0x10005A83C, symSize: 0x64 }
  - { offset: 0x6CE14, size: 0x8, addend: 0x0, symName: __ZN3std3sys3pal4unix2fs8set_perm17h0cc9045b929a09c2E, symObjAddr: 0x3B858, symBinAddr: 0x10005A764, symSize: 0xD8 }
  - { offset: 0x6CF5D, size: 0x8, addend: 0x0, symName: '__ZN3std3sys3pal4unix2fs5rmdir28_$u7b$$u7b$closure$u7d$$u7d$17hdfa7291090e85a51E', symObjAddr: 0x3BA54, symBinAddr: 0x10005A960, symSize: 0x38 }
  - { offset: 0x6CFDF, size: 0x8, addend: 0x0, symName: __ZN3std3sys3pal4unix2fs5rmdir17hf9189da7425d3a20E, symObjAddr: 0x3B994, symBinAddr: 0x10005A8A0, symSize: 0xC0 }
  - { offset: 0x6D0EA, size: 0x8, addend: 0x0, symName: __ZN3std3sys3pal4unix2fs8readlink17ha63c92b4e28c0771E, symObjAddr: 0x3BA8C, symBinAddr: 0x10005A998, symSize: 0xA4 }
  - { offset: 0x6D179, size: 0x8, addend: 0x0, symName: '__ZN3std3sys3pal4unix2fs8readlink28_$u7b$$u7b$closure$u7d$$u7d$17hfd52ab05a230d6bdE', symObjAddr: 0x3BB30, symBinAddr: 0x10005AA3C, symSize: 0x1B4 }
  - { offset: 0x6D523, size: 0x8, addend: 0x0, symName: '__ZN3std3sys3pal4unix2fs7symlink28_$u7b$$u7b$closure$u7d$$u7d$28_$u7b$$u7b$closure$u7d$$u7d$17hb5d7d6a83c638dcaE', symObjAddr: 0x3BEC4, symBinAddr: 0x10005ADD0, symSize: 0x38 }
  - { offset: 0x6D5A5, size: 0x8, addend: 0x0, symName: '__ZN3std3sys3pal4unix2fs7symlink28_$u7b$$u7b$closure$u7d$$u7d$17h9587199af3cce2bcE', symObjAddr: 0x3BE08, symBinAddr: 0x10005AD14, symSize: 0xBC }
  - { offset: 0x6D6BA, size: 0x8, addend: 0x0, symName: __ZN3std3sys3pal4unix2fs7symlink17hcc38b4e9ae9ad1f4E, symObjAddr: 0x3BCE4, symBinAddr: 0x10005ABF0, symSize: 0x124 }
  - { offset: 0x6D856, size: 0x8, addend: 0x0, symName: '__ZN3std3sys3pal4unix2fs4link28_$u7b$$u7b$closure$u7d$$u7d$28_$u7b$$u7b$closure$u7d$$u7d$17hf5431f77450cfe6dE', symObjAddr: 0x3C0F4, symBinAddr: 0x10005B000, symSize: 0x48 }
  - { offset: 0x6D8D8, size: 0x8, addend: 0x0, symName: '__ZN3std3sys3pal4unix2fs4link28_$u7b$$u7b$closure$u7d$$u7d$17h943a14a56d26b6c6E', symObjAddr: 0x3C02C, symBinAddr: 0x10005AF38, symSize: 0xC8 }
  - { offset: 0x6D9ED, size: 0x8, addend: 0x0, symName: __ZN3std3sys3pal4unix2fs4link17hb2219213d38fb1d8E, symObjAddr: 0x3BEFC, symBinAddr: 0x10005AE08, symSize: 0x130 }
  - { offset: 0x6DB63, size: 0x8, addend: 0x0, symName: __ZN3std3sys3pal4unix2fs4stat17h377df69614e2934aE, symObjAddr: 0x3C13C, symBinAddr: 0x10005B048, symSize: 0x124 }
  - { offset: 0x6DCB6, size: 0x8, addend: 0x0, symName: __ZN3std3sys3pal4unix2fs5lstat17h900a4bf8c1264612E, symObjAddr: 0x3C30C, symBinAddr: 0x10005B218, symSize: 0x124 }
  - { offset: 0x6DE09, size: 0x8, addend: 0x0, symName: __ZN3std3sys3pal4unix2fs12canonicalize17h2e5842a84e15ba49E, symObjAddr: 0x3C4DC, symBinAddr: 0x10005B3E8, symSize: 0x14C }
  - { offset: 0x6E096, size: 0x8, addend: 0x0, symName: '__ZN83_$LT$std..sys..pal..unix..fs..copy..FreeOnDrop$u20$as$u20$core..ops..drop..Drop$GT$4drop17hfb70b9f3505e5ae5E', symObjAddr: 0x3C9B8, symBinAddr: 0x10005B8C4, symSize: 0x14 }
  - { offset: 0x6E0AB, size: 0x8, addend: 0x0, symName: '__ZN3std3sys3pal4unix2fs4copy28_$u7b$$u7b$closure$u7d$$u7d$17h98093cb2c36557cdE', symObjAddr: 0x3C9CC, symBinAddr: 0x10005B8D8, symSize: 0x64 }
  - { offset: 0x6E191, size: 0x8, addend: 0x0, symName: __ZN3std3sys3pal4unix2fs4copy17hd16c887ec02b5327E, symObjAddr: 0x3C628, symBinAddr: 0x10005B534, symSize: 0x390 }
  - { offset: 0x6EA73, size: 0x8, addend: 0x0, symName: '__ZN3std3sys3pal4unix2fs5chown28_$u7b$$u7b$closure$u7d$$u7d$17h8878573eafe1b90bE', symObjAddr: 0x3CAF8, symBinAddr: 0x10005BA04, symSize: 0x48 }
  - { offset: 0x6EAF5, size: 0x8, addend: 0x0, symName: __ZN3std3sys3pal4unix2fs5chown17h35d7c6c607c2d877E, symObjAddr: 0x3CA30, symBinAddr: 0x10005B93C, symSize: 0xC8 }
  - { offset: 0x6EC10, size: 0x8, addend: 0x0, symName: __ZN3std3sys3pal4unix2fs6fchown17hf19b0675192098a4E, symObjAddr: 0x3CB40, symBinAddr: 0x10005BA4C, symSize: 0x34 }
  - { offset: 0x6ECAB, size: 0x8, addend: 0x0, symName: '__ZN3std3sys3pal4unix2fs6lchown28_$u7b$$u7b$closure$u7d$$u7d$17hd37140a6b5c7c39bE', symObjAddr: 0x3CC3C, symBinAddr: 0x10005BB48, symSize: 0x48 }
  - { offset: 0x6ED2D, size: 0x8, addend: 0x0, symName: __ZN3std3sys3pal4unix2fs6lchown17h625b4f15b6e42471E, symObjAddr: 0x3CB74, symBinAddr: 0x10005BA80, symSize: 0xC8 }
  - { offset: 0x6EE5B, size: 0x8, addend: 0x0, symName: '__ZN3std3sys3pal4unix2fs6chroot28_$u7b$$u7b$closure$u7d$$u7d$17hfd92ada6cd8105fbE', symObjAddr: 0x3CD44, symBinAddr: 0x10005BC50, symSize: 0x38 }
  - { offset: 0x6EEDD, size: 0x8, addend: 0x0, symName: __ZN3std3sys3pal4unix2fs6chroot17h5bf6487a7174953bE, symObjAddr: 0x3CC84, symBinAddr: 0x10005BB90, symSize: 0xC0 }
  - { offset: 0x6F039, size: 0x8, addend: 0x0, symName: __ZN3std3sys3pal4unix2fs15remove_dir_impl24remove_dir_all_recursive17h30ffcd62a59917b6E, symObjAddr: 0x3CD7C, symBinAddr: 0x10005BC88, symSize: 0x34C }
  - { offset: 0x6F81D, size: 0x8, addend: 0x0, symName: '__ZN3std3sys3pal4unix2fs15remove_dir_impl21remove_dir_all_modern28_$u7b$$u7b$closure$u7d$$u7d$17hbde53dd9c99deaa1E', symObjAddr: 0x3D0C8, symBinAddr: 0x10005BFD4, symSize: 0x18 }
  - { offset: 0x6F84E, size: 0x8, addend: 0x0, symName: __ZN3std3sys3pal4unix2fs15remove_dir_impl14remove_dir_all17hdfda94a86efc363dE, symObjAddr: 0x3D0E0, symBinAddr: 0x10005BFEC, symSize: 0x228 }
  - { offset: 0x6FBEF, size: 0x8, addend: 0x0, symName: '__ZN87_$LT$std..sys..pal..unix..os..Env$u20$as$u20$core..iter..traits..iterator..Iterator$GT$4next17h961674535a00c810E', symObjAddr: 0x3DB10, symBinAddr: 0x10005CA1C, symSize: 0x48 }
  - { offset: 0x6FC64, size: 0x8, addend: 0x0, symName: '__ZN87_$LT$std..sys..pal..unix..os..Env$u20$as$u20$core..iter..traits..iterator..Iterator$GT$9size_hint17h7fd0ba134e6e8605E', symObjAddr: 0x3DB58, symBinAddr: 0x10005CA64, symSize: 0x38 }
  - { offset: 0x6FCEE, size: 0x8, addend: 0x0, symName: '__ZN94_$LT$std..sys..pal..unix..os..SplitPaths$u20$as$u20$core..iter..traits..iterator..Iterator$GT$4next17h8adfb56bf64e97a4E', symObjAddr: 0x3D8BC, symBinAddr: 0x10005C7C8, symSize: 0xA8 }
  - { offset: 0x6FE38, size: 0x8, addend: 0x0, symName: '__ZN78_$LT$std..sys..pal..unix..os..JoinPathsError$u20$as$u20$core..fmt..Display$GT$3fmt17h99e812a4fc7fc885E', symObjAddr: 0x3D964, symBinAddr: 0x10005C870, symSize: 0x5C }
  - { offset: 0x6FF14, size: 0x8, addend: 0x0, symName: __ZN3std3sys3pal4unix2os5errno17hf15802e79216ebd1E, symObjAddr: 0x3D714, symBinAddr: 0x10005C620, symSize: 0x18 }
  - { offset: 0x6FF3A, size: 0x8, addend: 0x0, symName: '__ZN3std3sys3pal4unix2os5chdir28_$u7b$$u7b$closure$u7d$$u7d$17h9d4313e141ecf218E', symObjAddr: 0x3D804, symBinAddr: 0x10005C710, symSize: 0x28 }
  - { offset: 0x6FF4F, size: 0x8, addend: 0x0, symName: __ZN3std3sys3pal4unix2os5chdir17h7f0db4d9c5a26554E, symObjAddr: 0x3D72C, symBinAddr: 0x10005C638, symSize: 0xD8 }
  - { offset: 0x7004A, size: 0x8, addend: 0x0, symName: __ZN3std3sys3pal4unix2os11split_paths13bytes_to_path17hbca2e3f88d7eafe0E, symObjAddr: 0x3D82C, symBinAddr: 0x10005C738, symSize: 0x90 }
  - { offset: 0x701C6, size: 0x8, addend: 0x0, symName: '__ZN73_$LT$std..sys..pal..unix..os..EnvStrDebug$u20$as$u20$core..fmt..Debug$GT$3fmt17ha2df699f1968b6dcE', symObjAddr: 0x3D9C0, symBinAddr: 0x10005C8CC, symSize: 0xD4 }
  - { offset: 0x70480, size: 0x8, addend: 0x0, symName: '__ZN65_$LT$std..sys..pal..unix..os..Env$u20$as$u20$core..fmt..Debug$GT$3fmt17hf729ffe8cccea148E', symObjAddr: 0x3DA94, symBinAddr: 0x10005C9A0, symSize: 0x7C }
  - { offset: 0x70500, size: 0x8, addend: 0x0, symName: __ZN3std3sys3pal4unix2os13env_read_lock17heec4de91a1003e89E, symObjAddr: 0x3DB90, symBinAddr: 0x10005CA9C, symSize: 0x2D4 }
  - { offset: 0x70BCB, size: 0x8, addend: 0x0, symName: '__ZN3std3sys3pal4unix2os6getenv28_$u7b$$u7b$closure$u7d$$u7d$17h2173bbb195afe723E', symObjAddr: 0x3DE64, symBinAddr: 0x10005CD70, symSize: 0x124 }
  - { offset: 0x70DF0, size: 0x8, addend: 0x0, symName: '__ZN3std3sys3pal4unix2os6setenv28_$u7b$$u7b$closure$u7d$$u7d$17h4535e32ddfcd29d4E', symObjAddr: 0x3E08C, symBinAddr: 0x10005CF98, symSize: 0x9C }
  - { offset: 0x70E6B, size: 0x8, addend: 0x0, symName: '__ZN3std3sys3pal4unix2os6setenv28_$u7b$$u7b$closure$u7d$$u7d$28_$u7b$$u7b$closure$u7d$$u7d$17h910eee0392f788b0E', symObjAddr: 0x3E128, symBinAddr: 0x10005D034, symSize: 0x144 }
  - { offset: 0x71207, size: 0x8, addend: 0x0, symName: __ZN3std3sys3pal4unix2os6setenv17haf8f7ff42abf18dfE, symObjAddr: 0x3DF88, symBinAddr: 0x10005CE94, symSize: 0x104 }
  - { offset: 0x712F2, size: 0x8, addend: 0x0, symName: __ZN3std3sys3pal4unix2os8unsetenv17h5dba0418dc58f071E, symObjAddr: 0x3E26C, symBinAddr: 0x10005D178, symSize: 0xA0 }
  - { offset: 0x71374, size: 0x8, addend: 0x0, symName: '__ZN3std3sys3pal4unix2os8unsetenv28_$u7b$$u7b$closure$u7d$$u7d$17h6bfa87e1d96cb775E', symObjAddr: 0x3E30C, symBinAddr: 0x10005D218, symSize: 0x138 }
  - { offset: 0x7170F, size: 0x8, addend: 0x0, symName: __ZN3std3sys3pal4unix2os4exit17h3a3d7ff3160d21ccE, symObjAddr: 0x3E444, symBinAddr: 0x10005D350, symSize: 0xC }
  - { offset: 0x7175D, size: 0x8, addend: 0x0, symName: '__ZN69_$LT$std..sys..pal..unix..stdio..Stdout$u20$as$u20$std..io..Write$GT$5write17h2c8e99cf8df1b876E', symObjAddr: 0x40A50, symBinAddr: 0x10005F95C, symSize: 0x4C }
  - { offset: 0x71834, size: 0x8, addend: 0x0, symName: '__ZN69_$LT$std..sys..pal..unix..stdio..Stdout$u20$as$u20$std..io..Write$GT$14write_vectored17hc778735c99724205E', symObjAddr: 0x40A9C, symBinAddr: 0x10005F9A8, symSize: 0x4C }
  - { offset: 0x7192B, size: 0x8, addend: 0x0, symName: '__ZN69_$LT$std..sys..pal..unix..stdio..Stderr$u20$as$u20$std..io..Write$GT$5write17h581d052a4ab9b3deE', symObjAddr: 0x40AE8, symBinAddr: 0x10005F9F4, symSize: 0x4C }
  - { offset: 0x71A02, size: 0x8, addend: 0x0, symName: '__ZN69_$LT$std..sys..pal..unix..stdio..Stderr$u20$as$u20$std..io..Write$GT$14write_vectored17h967e552d16c4a95bE', symObjAddr: 0x40B34, symBinAddr: 0x10005FA40, symSize: 0x4C }
  - { offset: 0x71B06, size: 0x8, addend: 0x0, symName: '__ZN67_$LT$std..sys..pal..unix..stdio..Stdin$u20$as$u20$std..io..Read$GT$4read17h1f7106f5fd232849E', symObjAddr: 0x40940, symBinAddr: 0x10005F84C, symSize: 0x4C }
  - { offset: 0x71BDB, size: 0x8, addend: 0x0, symName: '__ZN67_$LT$std..sys..pal..unix..stdio..Stdin$u20$as$u20$std..io..Read$GT$8read_buf17h839c987ef257d142E', symObjAddr: 0x4098C, symBinAddr: 0x10005F898, symSize: 0x78 }
  - { offset: 0x71D8A, size: 0x8, addend: 0x0, symName: '__ZN67_$LT$std..sys..pal..unix..stdio..Stdin$u20$as$u20$std..io..Read$GT$13read_vectored17he5642246701c7358E', symObjAddr: 0x40A04, symBinAddr: 0x10005F910, symSize: 0x4C }
  - { offset: 0x71F0B, size: 0x8, addend: 0x0, symName: __ZN3std3sys3pal4unix14stack_overflow3imp14signal_handler17hd8f4cd1bd95d9476E, symObjAddr: 0x405D0, symBinAddr: 0x10005F4DC, symSize: 0x190 }
  - { offset: 0x72268, size: 0x8, addend: 0x0, symName: __ZN3std3sys3pal4unix14stack_overflow3imp12make_handler17hc1d87bb8ee5d5c4cE, symObjAddr: 0x40760, symBinAddr: 0x10005F66C, symSize: 0x1E0 }
  - { offset: 0x7254D, size: 0x8, addend: 0x0, symName: '__ZN86_$LT$std..sys..pal..unix..stack_overflow..Handler$u20$as$u20$core..ops..drop..Drop$GT$4drop17h0887be861cc23615E', symObjAddr: 0x40578, symBinAddr: 0x10005F484, symSize: 0x58 }
  - { offset: 0x72617, size: 0x8, addend: 0x0, symName: __ZN3std3sys3pal4unix6thread6Thread3new17h7d3072f74311db85E, symObjAddr: 0x40B80, symBinAddr: 0x10005FA8C, symSize: 0x234 }
  - { offset: 0x72921, size: 0x8, addend: 0x0, symName: __ZN3std3sys3pal4unix6thread6Thread8set_name17h67d7833f508721f7E, symObjAddr: 0x40E84, symBinAddr: 0x10005FD90, symSize: 0x70 }
  - { offset: 0x72A28, size: 0x8, addend: 0x0, symName: __ZN3std3sys3pal4unix6thread6Thread4join17h8d47e550b49f733bE, symObjAddr: 0x40EF4, symBinAddr: 0x10005FE00, symSize: 0x90 }
  - { offset: 0x72A94, size: 0x8, addend: 0x0, symName: __ZN3std3sys3pal4unix6thread6Thread3new12thread_start17h44ebc83f14222f58E, symObjAddr: 0x40DB4, symBinAddr: 0x10005FCC0, symSize: 0xD0 }
  - { offset: 0x72CBC, size: 0x8, addend: 0x0, symName: '__ZN77_$LT$std..sys..pal..unix..thread..Thread$u20$as$u20$core..ops..drop..Drop$GT$4drop17h404423c1980cfc1eE', symObjAddr: 0x40F84, symBinAddr: 0x10005FE90, symSize: 0x14 }
  - { offset: 0x72D48, size: 0x8, addend: 0x0, symName: __ZN3std3sys3pal4unix4time8Timespec3now17hb800598ec95e3dd7E, symObjAddr: 0x41018, symBinAddr: 0x10005FF24, symSize: 0x114 }
  - { offset: 0x72DED, size: 0x8, addend: 0x0, symName: __ZN3std3sys3pal4unix4time8Timespec12sub_timespec17h410a57af25b6c873E, symObjAddr: 0x4112C, symBinAddr: 0x100060038, symSize: 0x104 }
  - { offset: 0x72F23, size: 0x8, addend: 0x0, symName: '__ZN71_$LT$std..sys..pal..unix..time..Instant$u20$as$u20$core..fmt..Debug$GT$3fmt17hc9a9167d67939574E', symObjAddr: 0x41230, symBinAddr: 0x10006013C, symSize: 0x80 }
  - { offset: 0x72F4A, size: 0x8, addend: 0x0, symName: '__ZN74_$LT$std..sys..pal..unix..time..SystemTime$u20$as$u20$core..fmt..Debug$GT$3fmt17h40a3ed3a2e92c980E', symObjAddr: 0x40F98, symBinAddr: 0x10005FEA4, symSize: 0x80 }
  - { offset: 0x72FCA, size: 0x8, addend: 0x0, symName: '__ZN90_$LT$std..sys..pal..unix..args..Args$u20$as$u20$core..iter..traits..iterator..Iterator$GT$4next17h6dc1f36e5b56ecb4E', symObjAddr: 0x39CDC, symBinAddr: 0x100058BE8, symSize: 0x48 }
  - { offset: 0x7303E, size: 0x8, addend: 0x0, symName: '__ZN90_$LT$std..sys..pal..unix..args..Args$u20$as$u20$core..iter..traits..iterator..Iterator$GT$9size_hint17hc2e721243b57ec39E', symObjAddr: 0x39D24, symBinAddr: 0x100058C30, symSize: 0x38 }
  - { offset: 0x730A5, size: 0x8, addend: 0x0, symName: '__ZN101_$LT$std..sys..pal..unix..args..Args$u20$as$u20$core..iter..traits..exact_size..ExactSizeIterator$GT$3len17hd1c29999101b7a4dE', symObjAddr: 0x39D5C, symBinAddr: 0x100058C68, symSize: 0x2C }
  - { offset: 0x73121, size: 0x8, addend: 0x0, symName: '__ZN105_$LT$std..sys..pal..unix..args..Args$u20$as$u20$core..iter..traits..double_ended..DoubleEndedIterator$GT$9next_back17h5dfde64d852e0c84E', symObjAddr: 0x39D88, symBinAddr: 0x100058C94, symSize: 0x48 }
  - { offset: 0x73188, size: 0x8, addend: 0x0, symName: '__ZN68_$LT$std..sys..pal..unix..args..Args$u20$as$u20$core..fmt..Debug$GT$3fmt17h7b05237ccd4bb9f5E', symObjAddr: 0x39C64, symBinAddr: 0x100058B70, symSize: 0x78 }
  - { offset: 0x73447, size: 0x8, addend: 0x0, symName: __ZN3std3sys3pal4unix3net6Socket7new_raw17hc3cff1fed2cd94dbE, symObjAddr: 0x3D308, symBinAddr: 0x10005C214, symSize: 0xF8 }
  - { offset: 0x73678, size: 0x8, addend: 0x0, symName: __ZN3std3sys3pal4unix3net6Socket8new_pair17hf336db163fd6fb36E, symObjAddr: 0x3D400, symBinAddr: 0x10005C30C, symSize: 0x150 }
  - { offset: 0x738EA, size: 0x8, addend: 0x0, symName: __ZN3std3sys3pal4unix3net6Socket20recv_from_with_flags17hb31a7c83116cc977E, symObjAddr: 0x3D550, symBinAddr: 0x10005C45C, symSize: 0x154 }
  - { offset: 0x73A6F, size: 0x8, addend: 0x0, symName: __ZN3std3sys3pal4unix3net6Socket10take_error17h826870d320615af0E, symObjAddr: 0x3D6A4, symBinAddr: 0x10005C5B0, symSize: 0x70 }
  - { offset: 0x73C31, size: 0x8, addend: 0x0, symName: '__ZN3std3sys3pal4unix4weak18DlsymWeak$LT$F$GT$10initialize17h76aaaf986b63e616E', symObjAddr: 0x39BB4, symBinAddr: 0x1000A8F20, symSize: 0x58 }
  - { offset: 0x73C83, size: 0x8, addend: 0x0, symName: '__ZN3std3sys3pal4unix4weak18DlsymWeak$LT$F$GT$10initialize17hc3fe0ee1a7eae5a8E', symObjAddr: 0x39C0C, symBinAddr: 0x1000A8F78, symSize: 0x58 }
  - { offset: 0x73D22, size: 0x8, addend: 0x0, symName: __ZN3std3sys3pal4unix4pipe8AnonPipe5write17hfe3431f78398e153E, symObjAddr: 0x3E598, symBinAddr: 0x10005D4A4, symSize: 0x48 }
  - { offset: 0x73E00, size: 0x8, addend: 0x0, symName: __ZN3std3sys3pal4unix4pipe9anon_pipe17h40c7c126628bdb8aE, symObjAddr: 0x3E450, symBinAddr: 0x10005D35C, symSize: 0x148 }
  - { offset: 0x740A4, size: 0x8, addend: 0x0, symName: __ZN3std3sys3pal4unix4pipe5read217ha57a074b8fd713b3E, symObjAddr: 0x3E5E0, symBinAddr: 0x10005D4EC, symSize: 0x258 }
  - { offset: 0x745E4, size: 0x8, addend: 0x0, symName: __ZN3std3sys3pal4unix17decode_error_kind17h658fcc0fb80bec02E, symObjAddr: 0x412B0, symBinAddr: 0x1000601BC, symSize: 0x30 }
  - { offset: 0x745FE, size: 0x8, addend: 0x0, symName: __ZN3std3sys3pal4unix14abort_internal17h857d2ad66020786fE, symObjAddr: 0x412E0, symBinAddr: 0x1000601EC, symSize: 0xC }
  - { offset: 0x7473A, size: 0x8, addend: 0x0, symName: __ZN3std3sys3pal6common14small_c_string24run_with_cstr_allocating17h07c7b1463ef282ffE, symObjAddr: 0x35538, symBinAddr: 0x1000A86F0, symSize: 0xCC }
  - { offset: 0x74903, size: 0x8, addend: 0x0, symName: __ZN3std3sys3pal6common14small_c_string24run_with_cstr_allocating17h25f07dd948e5663fE, symObjAddr: 0x35604, symBinAddr: 0x1000A87BC, symSize: 0xD0 }
  - { offset: 0x74ACC, size: 0x8, addend: 0x0, symName: __ZN3std3sys3pal6common14small_c_string24run_with_cstr_allocating17h41459cfa947e9fbeE, symObjAddr: 0x356D4, symBinAddr: 0x1000A888C, symSize: 0x9C }
  - { offset: 0x74C3B, size: 0x8, addend: 0x0, symName: __ZN3std3sys3pal6common14small_c_string24run_with_cstr_allocating17h4254890aff01fe87E, symObjAddr: 0x35770, symBinAddr: 0x1000A8928, symSize: 0xE4 }
  - { offset: 0x74E04, size: 0x8, addend: 0x0, symName: __ZN3std3sys3pal6common14small_c_string24run_with_cstr_allocating17h8b1440fcb4733dd8E, symObjAddr: 0x35854, symBinAddr: 0x1000A8A0C, symSize: 0xBC }
  - { offset: 0x74FE0, size: 0x8, addend: 0x0, symName: __ZN3std3sys3pal6common14small_c_string24run_with_cstr_allocating17h94e9a16e1340d926E, symObjAddr: 0x35910, symBinAddr: 0x1000A8AC8, symSize: 0xA0 }
  - { offset: 0x7514F, size: 0x8, addend: 0x0, symName: __ZN3std3sys3pal6common14small_c_string24run_with_cstr_allocating17hae94c44ef5e1b55cE, symObjAddr: 0x359B0, symBinAddr: 0x1000A8B68, symSize: 0xAC }
  - { offset: 0x752AB, size: 0x8, addend: 0x0, symName: __ZN3std3sys3pal6common14small_c_string24run_with_cstr_allocating17he36e3b3fe29d10a0E, symObjAddr: 0x35A5C, symBinAddr: 0x1000A8C14, symSize: 0xC0 }
  - { offset: 0x75474, size: 0x8, addend: 0x0, symName: __ZN3std3sys3pal6common14small_c_string24run_with_cstr_allocating17hee0f08c345321870E, symObjAddr: 0x35B1C, symBinAddr: 0x1000A8CD4, symSize: 0xC4 }
  - { offset: 0x759BC, size: 0x8, addend: 0x0, symName: __ZN3std3sys6os_str5bytes3Buf11into_string17hdc2468d309fa0c98E, symObjAddr: 0x4285C, symBinAddr: 0x100061768, symSize: 0xA0 }
  - { offset: 0x75A8A, size: 0x8, addend: 0x0, symName: __ZN3std3sys6os_str5bytes3Buf10push_slice17h8a703bbca690c8b4E, symObjAddr: 0x428FC, symBinAddr: 0x100061808, symSize: 0x7C }
  - { offset: 0x75C3B, size: 0x8, addend: 0x0, symName: __ZN3std3sys6os_str5bytes5Slice15to_string_lossy17h4b48930754b70c94E, symObjAddr: 0x42AB4, symBinAddr: 0x1000619C0, symSize: 0x10 }
  - { offset: 0x75C4F, size: 0x8, addend: 0x0, symName: __ZN3std3sys6os_str5bytes5Slice8to_owned17h8393c3ede916cc17E, symObjAddr: 0x42AC4, symBinAddr: 0x1000619D0, symSize: 0x90 }
  - { offset: 0x75D6D, size: 0x8, addend: 0x0, symName: __ZN3std3sys6os_str5bytes5Slice10clone_into17hd980377dd9f381faE, symObjAddr: 0x42B54, symBinAddr: 0x100061A60, symSize: 0x7C }
  - { offset: 0x75ECE, size: 0x8, addend: 0x0, symName: __ZN3std3sys6os_str5bytes5Slice9empty_box17h575668486f2acf10E, symObjAddr: 0x42BD0, symBinAddr: 0x100061ADC, symSize: 0x18 }
  - { offset: 0x75F02, size: 0x8, addend: 0x0, symName: '__ZN69_$LT$std..sys..os_str..bytes..Slice$u20$as$u20$core..fmt..Display$GT$3fmt17hfde323060867e81fE', symObjAddr: 0x427A0, symBinAddr: 0x1000616AC, symSize: 0xA0 }
  - { offset: 0x75F4B, size: 0x8, addend: 0x0, symName: '__ZN67_$LT$std..sys..os_str..bytes..Buf$u20$as$u20$core..fmt..Display$GT$3fmt17h82497104819e3626E', symObjAddr: 0x42840, symBinAddr: 0x10006174C, symSize: 0x1C }
  - { offset: 0x76008, size: 0x8, addend: 0x0, symName: __ZN3std3sys6os_str5bytes5Slice21check_public_boundary9slow_path17hfe90d30f719d6df5E, symObjAddr: 0x42978, symBinAddr: 0x100061884, symSize: 0x13C }
  - { offset: 0x761C5, size: 0x8, addend: 0x0, symName: '__ZN3std3sys11personality3gcc14find_eh_action28_$u7b$$u7b$closure$u7d$$u7d$17h305f2ac54b218de4E', symObjAddr: 0x42390, symBinAddr: 0x10006129C, symSize: 0x18 }
  - { offset: 0x761D9, size: 0x8, addend: 0x0, symName: '__ZN3std3sys11personality3gcc14find_eh_action28_$u7b$$u7b$closure$u7d$$u7d$17h17bcf6bd34e05be0E', symObjAddr: 0x423A8, symBinAddr: 0x1000612B4, symSize: 0x18 }
  - { offset: 0x76209, size: 0x8, addend: 0x0, symName: _rust_eh_personality, symObjAddr: 0x423C0, symBinAddr: 0x1000612CC, symSize: 0x368 }
  - { offset: 0x76526, size: 0x8, addend: 0x0, symName: __ZN3std3sys11personality5dwarf2eh19read_encoded_offset17hffdd6e829f9c05a8E, symObjAddr: 0x35C90, symBinAddr: 0x100054DD4, symSize: 0x150 }
  - { offset: 0x76685, size: 0x8, addend: 0x0, symName: '__ZN3std3sys9backtrace10_print_fmt28_$u7b$$u7b$closure$u7d$$u7d$17h6a8bb32777d977e8E', symObjAddr: 0x360CC, symBinAddr: 0x100055210, symSize: 0x30 }
  - { offset: 0x766AE, size: 0x8, addend: 0x0, symName: '__ZN3std3sys9backtrace10_print_fmt28_$u7b$$u7b$closure$u7d$$u7d$17h4acb2355784ec558E', symObjAddr: 0x360FC, symBinAddr: 0x100055240, symSize: 0x134 }
  - { offset: 0x767C2, size: 0x8, addend: 0x0, symName: '__ZN3std3sys9backtrace10_print_fmt28_$u7b$$u7b$closure$u7d$$u7d$28_$u7b$$u7b$closure$u7d$$u7d$17h4fbd43930ba51a17E', symObjAddr: 0x36230, symBinAddr: 0x100055374, symSize: 0x26C }
  - { offset: 0x769EE, size: 0x8, addend: 0x0, symName: __ZN3std3sys9backtrace4lock17h9c02986e58c7150eE, symObjAddr: 0x35DE0, symBinAddr: 0x100054F24, symSize: 0x70 }
  - { offset: 0x76B2A, size: 0x8, addend: 0x0, symName: __ZN3std3sys9backtrace13BacktraceLock5print17h8baf33e22611de71E, symObjAddr: 0x35E50, symBinAddr: 0x100054F94, symSize: 0x54 }
  - { offset: 0x76B77, size: 0x8, addend: 0x0, symName: '__ZN98_$LT$std..sys..backtrace..BacktraceLock..print..DisplayBacktrace$u20$as$u20$core..fmt..Display$GT$3fmt17h7adefaad4a31afc0E', symObjAddr: 0x35EA4, symBinAddr: 0x100054FE8, symSize: 0x228 }
  - { offset: 0x770F7, size: 0x8, addend: 0x0, symName: __ZN3std3sys9backtrace26__rust_end_short_backtrace17heed121414170e0c7E, symObjAddr: 0x3649C, symBinAddr: 0x1000555E0, symSize: 0xC }
  - { offset: 0x77111, size: 0x8, addend: 0x0, symName: __ZN3std3sys9backtrace15output_filename17hc977e54bfca8d5d8E, symObjAddr: 0x364A8, symBinAddr: 0x1000555EC, symSize: 0xFC }
  - { offset: 0x77300, size: 0x8, addend: 0x0, symName: '__ZN3std3sys4sync8once_box16OnceBox$LT$T$GT$10initialize17hc285a164175f3564E', symObjAddr: 0x36614, symBinAddr: 0x1000A8D98, symSize: 0xBC }
  - { offset: 0x7746C, size: 0x8, addend: 0x0, symName: '__ZN3std3sys4sync8once_box16OnceBox$LT$T$GT$10initialize17hd3c004cd62d9b478E', symObjAddr: 0x366D0, symBinAddr: 0x1000A8E54, symSize: 0x4C }
  - { offset: 0x77705, size: 0x8, addend: 0x0, symName: '__ZN79_$LT$std..sys..sync..mutex..pthread..Mutex$u20$as$u20$core..ops..drop..Drop$GT$4drop17h7a9ec4c70d3f823bE', symObjAddr: 0x433D0, symBinAddr: 0x100062200, symSize: 0x58 }
  - { offset: 0x77818, size: 0x8, addend: 0x0, symName: '__ZN90_$LT$std..sys..sync..mutex..pthread..PthreadMutexAttr$u20$as$u20$core..ops..drop..Drop$GT$4drop17hb588028fd0399639E', symObjAddr: 0x43428, symBinAddr: 0x100062258, symSize: 0x14 }
  - { offset: 0x77832, size: 0x8, addend: 0x0, symName: __ZN3std3sys4sync5mutex7pthread14AllocatedMutex3new17h0685a95bbf6234c8E, symObjAddr: 0x4312C, symBinAddr: 0x100062038, symSize: 0x1C8 }
  - { offset: 0x77994, size: 0x8, addend: 0x0, symName: __ZN3std3sys4sync5mutex7pthread5Mutex4lock4fail17h65b585fc519334efE, symObjAddr: 0x432F4, symBinAddr: 0x1000A8FD0, symSize: 0xDC }
  - { offset: 0x77BF2, size: 0x8, addend: 0x0, symName: '__ZN83_$LT$std..sys..sync..rwlock..queue..PanicGuard$u20$as$u20$core..ops..drop..Drop$GT$4drop17h87bf2687cd460d89E', symObjAddr: 0x43BE8, symBinAddr: 0x1000624B4, symSize: 0x44 }
  - { offset: 0x77CD7, size: 0x8, addend: 0x0, symName: __ZN3std3sys4sync6rwlock5queue6RwLock14lock_contended17hf7593e321a55ad93E, symObjAddr: 0x43C2C, symBinAddr: 0x1000A9610, symSize: 0x250 }
  - { offset: 0x781EC, size: 0x8, addend: 0x0, symName: __ZN3std3sys4sync6rwlock5queue6RwLock21read_unlock_contended17h96494ba44518a708E, symObjAddr: 0x43E7C, symBinAddr: 0x1000A9860, symSize: 0x70 }
  - { offset: 0x783F2, size: 0x8, addend: 0x0, symName: __ZN3std3sys4sync6rwlock5queue6RwLock16unlock_contended17hf58cac95d821706eE, symObjAddr: 0x43EEC, symBinAddr: 0x1000A98D0, symSize: 0x38 }
  - { offset: 0x78487, size: 0x8, addend: 0x0, symName: __ZN3std3sys4sync6rwlock5queue6RwLock12unlock_queue17h91b974f598e765f2E, symObjAddr: 0x43F24, symBinAddr: 0x1000624F8, symSize: 0x17C }
  - { offset: 0x78C1A, size: 0x8, addend: 0x0, symName: __ZN3std3sys4sync6rwlock5queue10write_lock17h81126dfc2e3ae727E, symObjAddr: 0x43BA4, symBinAddr: 0x100062470, symSize: 0x18 }
  - { offset: 0x78C6F, size: 0x8, addend: 0x0, symName: __ZN3std3sys4sync6rwlock5queue9read_lock17h82656e185711842bE, symObjAddr: 0x43BBC, symBinAddr: 0x100062488, symSize: 0x2C }
  - { offset: 0x78CC8, size: 0x8, addend: 0x0, symName: '__ZN88_$LT$std..sys..sync..thread_parking..darwin..Parker$u20$as$u20$core..ops..drop..Drop$GT$4drop17h4a2537d61f71da57E', symObjAddr: 0x440D0, symBinAddr: 0x1000626A4, symSize: 0x14 }
  - { offset: 0x78D16, size: 0x8, addend: 0x0, symName: __ZN3std3sys4sync14thread_parking6darwin6Parker6unpark17he31f88f7204e4d70E, symObjAddr: 0x440A0, symBinAddr: 0x100062674, symSize: 0x30 }
  - { offset: 0x78DF1, size: 0x8, addend: 0x0, symName: __ZN3std3sys4sync4once5queue4Once4wait17hdfd6a0b8673eb5d9E, symObjAddr: 0x4343C, symBinAddr: 0x1000A90AC, symSize: 0x404 }
  - { offset: 0x798E0, size: 0x8, addend: 0x0, symName: __ZN3std3sys4sync4once5queue4Once4call17h37550d946806f870E, symObjAddr: 0x43840, symBinAddr: 0x1000A94B0, symSize: 0x160 }
  - { offset: 0x79A29, size: 0x8, addend: 0x0, symName: __ZN3std3sys4sync4once5queue4wait17h959a6f4df97f75a9E, symObjAddr: 0x439A0, symBinAddr: 0x10006226C, symSize: 0x12C }
  - { offset: 0x79E6D, size: 0x8, addend: 0x0, symName: '__ZN82_$LT$std..sys..sync..once..queue..WaiterQueue$u20$as$u20$core..ops..drop..Drop$GT$4drop17ha1403e3a0b27a600E', symObjAddr: 0x43ACC, symBinAddr: 0x100062398, symSize: 0xD8 }
  - { offset: 0x7A0B5, size: 0x8, addend: 0x0, symName: __ZN3std3sys4sync7condvar7pthread7Condvar3get17h234d19e3852d5a67E, symObjAddr: 0x42F60, symBinAddr: 0x100061E6C, symSize: 0x24 }
  - { offset: 0x7A115, size: 0x8, addend: 0x0, symName: __ZN3std3sys4sync7condvar7pthread7Condvar12wait_timeout17hdcd7f84a5af7fdf2E, symObjAddr: 0x42F84, symBinAddr: 0x100061E90, symSize: 0x1A8 }
  - { offset: 0x7A5B4, size: 0x8, addend: 0x0, symName: '__ZN3std3sys12thread_local6native4lazy20Storage$LT$T$C$D$GT$10initialize17h279b4dc40ec31e26E', symObjAddr: 0x440E4, symBinAddr: 0x1000A9908, symSize: 0xC0 }
  - { offset: 0x7A7AA, size: 0x8, addend: 0x0, symName: __ZN3std3sys12thread_local6native4lazy7destroy17hbca9a89daea3b1a7E, symObjAddr: 0x441A4, symBinAddr: 0x1000626B8, symSize: 0x54 }
  - { offset: 0x7A918, size: 0x8, addend: 0x0, symName: __ZN3std3sys12thread_local5guard5apple6enable9run_dtors17h7df97e6abb62bbefE, symObjAddr: 0x44334, symBinAddr: 0x100062848, symSize: 0x13C }
  - { offset: 0x7AE6E, size: 0x8, addend: 0x0, symName: __ZN3std3sys12thread_local11destructors4list8register17ha72f6427785942b6E, symObjAddr: 0x441F8, symBinAddr: 0x10006270C, symSize: 0x13C }
  - { offset: 0x7B1F9, size: 0x8, addend: 0x0, symName: __ZN3std3sys4path4unix8absolute17h0ffd76950466d673E, symObjAddr: 0x42BE8, symBinAddr: 0x100061AF4, symSize: 0x378 }
  - { offset: 0x7BB41, size: 0x8, addend: 0x0, symName: __ZN3std3sys6random19hashmap_random_keys17h532c9bbf992f4940E, symObjAddr: 0x365A4, symBinAddr: 0x1000556E8, symSize: 0x70 }
  - { offset: 0x7BC08, size: 0x8, addend: 0x0, symName: __ZN3std3sys5alloc16realloc_fallback17h7b538be94df5836dE, symObjAddr: 0x35BE0, symBinAddr: 0x100054D24, symSize: 0xB0 }
  - { offset: 0x7BD02, size: 0x8, addend: 0x0, symName: '__ZN3std3sys14anonymous_pipe4unix76_$LT$impl$u20$std..os..fd..owned..AsFd$u20$for$u20$std..pipe..PipeReader$GT$5as_fd17hb4f76b4b9f1d59eeE', symObjAddr: 0x42728, symBinAddr: 0x100061634, symSize: 0x30 }
  - { offset: 0x7BD38, size: 0x8, addend: 0x0, symName: '__ZN3std3sys14anonymous_pipe4unix76_$LT$impl$u20$std..os..fd..owned..AsFd$u20$for$u20$std..pipe..PipeReader$GT$5as_fd17hb4f76b4b9f1d59eeE', symObjAddr: 0x42728, symBinAddr: 0x100061634, symSize: 0x30 }
  - { offset: 0x7BD61, size: 0x8, addend: 0x0, symName: '__ZN3std3sys14anonymous_pipe4unix79_$LT$impl$u20$std..os..fd..raw..FromRawFd$u20$for$u20$std..pipe..PipeReader$GT$11from_raw_fd17h467fe91045867c9bE', symObjAddr: 0x42758, symBinAddr: 0x100061664, symSize: 0x48 }
  - { offset: 0x7BDBC, size: 0x8, addend: 0x0, symName: '__ZN67_$LT$std..os..fd..owned..BorrowedFd$u20$as$u20$core..fmt..Debug$GT$3fmt17h870b2acb579d6841E', symObjAddr: 0x2F448, symBinAddr: 0x10004EEB8, symSize: 0x64 }
  - { offset: 0x7BDE3, size: 0x8, addend: 0x0, symName: '__ZN64_$LT$std..os..fd..owned..OwnedFd$u20$as$u20$core..fmt..Debug$GT$3fmt17h9d56aab72f2ddd25E', symObjAddr: 0x2F4AC, symBinAddr: 0x10004EF1C, symSize: 0x64 }
  - { offset: 0x7BE2A, size: 0x8, addend: 0x0, symName: __ZN3std2os2fd5owned10BorrowedFd18try_clone_to_owned17h75a86df941c5858fE, symObjAddr: 0x2F3E0, symBinAddr: 0x10004EE50, symSize: 0x68 }
  - { offset: 0x7BF0C, size: 0x8, addend: 0x0, symName: __ZN3std2os2fd5owned7OwnedFd9try_clone17hda3924227bb6fc52E, symObjAddr: 0x2F358, symBinAddr: 0x10004EDC8, symSize: 0x88 }
  - { offset: 0x7C16C, size: 0x8, addend: 0x0, symName: '__ZN60_$LT$std..fs..File$u20$as$u20$std..os..unix..fs..FileExt$GT$7read_at17he473ec3f69be9fe1E', symObjAddr: 0x2D118, symBinAddr: 0x10004CB88, symSize: 0x4C }
  - { offset: 0x7C25F, size: 0x8, addend: 0x0, symName: '__ZN60_$LT$std..fs..File$u20$as$u20$std..os..unix..fs..FileExt$GT$16read_vectored_at17h57d6953fee5b44b0E', symObjAddr: 0x2D164, symBinAddr: 0x10004CBD4, symSize: 0x10C }
  - { offset: 0x7C433, size: 0x8, addend: 0x0, symName: '__ZN60_$LT$std..fs..File$u20$as$u20$std..os..unix..fs..FileExt$GT$8write_at17h22bdadd76db924c2E', symObjAddr: 0x2D270, symBinAddr: 0x10004CCE0, symSize: 0x4C }
  - { offset: 0x7C528, size: 0x8, addend: 0x0, symName: '__ZN60_$LT$std..fs..File$u20$as$u20$std..os..unix..fs..FileExt$GT$17write_vectored_at17h85b10c10e96d124bE', symObjAddr: 0x2D2BC, symBinAddr: 0x10004CD2C, symSize: 0x10C }
  - { offset: 0x7C703, size: 0x8, addend: 0x0, symName: '__ZN69_$LT$std..fs..DirEntry$u20$as$u20$std..os..unix..fs..DirEntryExt2$GT$13file_name_ref17h71cc60895542f74eE', symObjAddr: 0x2D3C8, symBinAddr: 0x10004CE38, symSize: 0x18 }
  - { offset: 0x7C76A, size: 0x8, addend: 0x0, symName: __ZN3std2os4unix3net4addr11sockaddr_un17h663776f7effa1c64E, symObjAddr: 0x2D3E0, symBinAddr: 0x10004CE50, symSize: 0x124 }
  - { offset: 0x7C869, size: 0x8, addend: 0x0, symName: __ZN3std2os4unix3net4addr10SocketAddr10is_unnamed17hae824e50ef52267aE, symObjAddr: 0x2D504, symBinAddr: 0x10004CF74, symSize: 0x44 }
  - { offset: 0x7C8B9, size: 0x8, addend: 0x0, symName: __ZN3std2os4unix3net4addr10SocketAddr11as_pathname17hae35fc319c094212E, symObjAddr: 0x2D548, symBinAddr: 0x10004CFB8, symSize: 0x48 }
  - { offset: 0x7C96A, size: 0x8, addend: 0x0, symName: '__ZN73_$LT$std..os..unix..net..addr..SocketAddr$u20$as$u20$core..fmt..Debug$GT$3fmt17h9156d6e9c1f71ff6E', symObjAddr: 0x2D590, symBinAddr: 0x10004D000, symSize: 0xAC }
  - { offset: 0x7CA30, size: 0x8, addend: 0x0, symName: __ZN3std2os4unix3net8datagram12UnixDatagram9bind_addr17h646996cf8dda9b84E, symObjAddr: 0x2D9B8, symBinAddr: 0x10004D428, symSize: 0xB0 }
  - { offset: 0x7CB5C, size: 0x8, addend: 0x0, symName: __ZN3std2os4unix3net8datagram12UnixDatagram7unbound17hffc8bdb5f22a07c0E, symObjAddr: 0x2DA68, symBinAddr: 0x10004D4D8, symSize: 0x5C }
  - { offset: 0x7CB92, size: 0x8, addend: 0x0, symName: __ZN3std2os4unix3net8datagram12UnixDatagram4pair17he3f3f48f0d166291E, symObjAddr: 0x2DAC4, symBinAddr: 0x10004D534, symSize: 0x58 }
  - { offset: 0x7CBCE, size: 0x8, addend: 0x0, symName: __ZN3std2os4unix3net8datagram12UnixDatagram12connect_addr17h1ad0202f53982847E, symObjAddr: 0x2DB1C, symBinAddr: 0x10004D58C, symSize: 0x3C }
  - { offset: 0x7CCA2, size: 0x8, addend: 0x0, symName: __ZN3std2os4unix3net8datagram12UnixDatagram9recv_from17h7f8ab1b146866192E, symObjAddr: 0x2DB58, symBinAddr: 0x10004D5C8, symSize: 0x118 }
  - { offset: 0x7CE28, size: 0x8, addend: 0x0, symName: __ZN3std2os4unix3net8datagram12UnixDatagram4recv17h3bcd5d2415768c77E, symObjAddr: 0x2DC70, symBinAddr: 0x10004D6E0, symSize: 0x44 }
  - { offset: 0x7CEDC, size: 0x8, addend: 0x0, symName: __ZN3std2os4unix3net8datagram12UnixDatagram12send_to_addr17h163b0b1d304f4c3cE, symObjAddr: 0x2DCB4, symBinAddr: 0x10004D724, symSize: 0x4C }
  - { offset: 0x7CFA5, size: 0x8, addend: 0x0, symName: __ZN3std2os4unix3net8datagram12UnixDatagram4send17hda31e0b4737ed3a0E, symObjAddr: 0x2DD00, symBinAddr: 0x10004D770, symSize: 0x4C }
  - { offset: 0x7D09A, size: 0x8, addend: 0x0, symName: __ZN3std2os4unix3net8datagram12UnixDatagram9peek_from17h1d273869b0bd752cE, symObjAddr: 0x2DD4C, symBinAddr: 0x10004D7BC, symSize: 0x118 }
  - { offset: 0x7D268, size: 0x8, addend: 0x0, symName: '__ZN79_$LT$std..os..unix..net..datagram..UnixDatagram$u20$as$u20$core..fmt..Debug$GT$3fmt17heb52f0dcc6a270e6E', symObjAddr: 0x2D63C, symBinAddr: 0x10004D0AC, symSize: 0x37C }
  - { offset: 0x7D8DF, size: 0x8, addend: 0x0, symName: __ZN3std2os4unix3net8listener12UnixListener9bind_addr17ha825ce98acca609aE, symObjAddr: 0x2E068, symBinAddr: 0x10004DAD8, symSize: 0xC4 }
  - { offset: 0x7DA18, size: 0x8, addend: 0x0, symName: __ZN3std2os4unix3net8listener12UnixListener6accept17h5a02f3f3dd122328E, symObjAddr: 0x2E12C, symBinAddr: 0x10004DB9C, symSize: 0x148 }
  - { offset: 0x7DC8A, size: 0x8, addend: 0x0, symName: '__ZN79_$LT$std..os..unix..net..listener..UnixListener$u20$as$u20$core..fmt..Debug$GT$3fmt17h10580feab0a14512E', symObjAddr: 0x2DE64, symBinAddr: 0x10004D8D4, symSize: 0x204 }
  - { offset: 0x7DF72, size: 0x8, addend: 0x0, symName: '__ZN97_$LT$std..os..unix..net..listener..Incoming$u20$as$u20$core..iter..traits..iterator..Iterator$GT$4next17hbd4410a8bbd60f21E', symObjAddr: 0x2E274, symBinAddr: 0x10004DCE4, symSize: 0x40 }
  - { offset: 0x7DFC9, size: 0x8, addend: 0x0, symName: __ZN3std2os4unix3net6stream10UnixStream12connect_addr17hda7849bd2fff92b1E, symObjAddr: 0x2E630, symBinAddr: 0x10004E0A0, symSize: 0xB0 }
  - { offset: 0x7E0D2, size: 0x8, addend: 0x0, symName: __ZN3std2os4unix3net6stream10UnixStream4pair17ha3a6080a74019f3cE, symObjAddr: 0x2E6E0, symBinAddr: 0x10004E150, symSize: 0x58 }
  - { offset: 0x7E10E, size: 0x8, addend: 0x0, symName: __ZN3std2os4unix3net6stream10UnixStream10local_addr17hb7eda4cb9f9e1dd2E, symObjAddr: 0x2E738, symBinAddr: 0x10004E1A8, symSize: 0xE0 }
  - { offset: 0x7E212, size: 0x8, addend: 0x0, symName: __ZN3std2os4unix3net6stream10UnixStream9peer_addr17h68d7f2557d71e96cE, symObjAddr: 0x2E818, symBinAddr: 0x10004E288, symSize: 0xE0 }
  - { offset: 0x7E316, size: 0x8, addend: 0x0, symName: __ZN3std2os4unix3net6stream10UnixStream9peer_cred17h52ee3f57276ec082E, symObjAddr: 0x2E8F8, symBinAddr: 0x10004E368, symSize: 0xD0 }
  - { offset: 0x7E3F0, size: 0x8, addend: 0x0, symName: __ZN3std2os4unix3net6stream10UnixStream16set_read_timeout17hb5fb14c01db82e87E, symObjAddr: 0x2E9C8, symBinAddr: 0x10004E438, symSize: 0xB4 }
  - { offset: 0x7E4B0, size: 0x8, addend: 0x0, symName: __ZN3std2os4unix3net6stream10UnixStream17set_write_timeout17h88881bf6d0f55bc5E, symObjAddr: 0x2EA7C, symBinAddr: 0x10004E4EC, symSize: 0xB4 }
  - { offset: 0x7E570, size: 0x8, addend: 0x0, symName: __ZN3std2os4unix3net6stream10UnixStream12read_timeout17h3065f0969ad3e8b0E, symObjAddr: 0x2EB30, symBinAddr: 0x10004E5A0, symSize: 0xFC }
  - { offset: 0x7E696, size: 0x8, addend: 0x0, symName: __ZN3std2os4unix3net6stream10UnixStream13write_timeout17h51ff5b52a392a6b3E, symObjAddr: 0x2EC2C, symBinAddr: 0x10004E69C, symSize: 0xFC }
  - { offset: 0x7E7BC, size: 0x8, addend: 0x0, symName: __ZN3std2os4unix3net6stream10UnixStream15set_nonblocking17h0cf9b9830e001df5E, symObjAddr: 0x2ED28, symBinAddr: 0x10004E798, symSize: 0x54 }
  - { offset: 0x7E85A, size: 0x8, addend: 0x0, symName: __ZN3std2os4unix3net6stream10UnixStream10take_error17hb8659af938c5e7f0E, symObjAddr: 0x2ED7C, symBinAddr: 0x10004E7EC, symSize: 0x74 }
  - { offset: 0x7E968, size: 0x8, addend: 0x0, symName: __ZN3std2os4unix3net6stream10UnixStream8shutdown17h93309307659cacd1E, symObjAddr: 0x2EDF0, symBinAddr: 0x10004E860, symSize: 0x3C }
  - { offset: 0x7EA06, size: 0x8, addend: 0x0, symName: __ZN3std2os4unix3net6stream10UnixStream4peek17h294005e8958a2189E, symObjAddr: 0x2EE2C, symBinAddr: 0x10004E89C, symSize: 0x44 }
  - { offset: 0x7EAEC, size: 0x8, addend: 0x0, symName: '__ZN75_$LT$std..os..unix..net..stream..UnixStream$u20$as$u20$core..fmt..Debug$GT$3fmt17h56862e618568ec25E', symObjAddr: 0x2E2B4, symBinAddr: 0x10004DD24, symSize: 0x37C }
  - { offset: 0x7F148, size: 0x8, addend: 0x0, symName: '__ZN76_$LT$$RF$std..os..unix..net..stream..UnixStream$u20$as$u20$std..io..Read$GT$8read_buf17h7c3528c617477d11E', symObjAddr: 0x2EF70, symBinAddr: 0x10004E9E0, symSize: 0x74 }
  - { offset: 0x7F2D8, size: 0x8, addend: 0x0, symName: '__ZN72_$LT$std..os..unix..net..stream..UnixStream$u20$as$u20$std..io..Read$GT$4read17h0b930058fe4e7a6dE', symObjAddr: 0x2EE70, symBinAddr: 0x10004E8E0, symSize: 0x44 }
  - { offset: 0x7F3A2, size: 0x8, addend: 0x0, symName: '__ZN72_$LT$std..os..unix..net..stream..UnixStream$u20$as$u20$std..io..Read$GT$8read_buf17h98e277f120ae50c9E', symObjAddr: 0x2EEB4, symBinAddr: 0x10004E924, symSize: 0x70 }
  - { offset: 0x7F549, size: 0x8, addend: 0x0, symName: '__ZN72_$LT$std..os..unix..net..stream..UnixStream$u20$as$u20$std..io..Read$GT$13read_vectored17hbbe22e0a908249e4E', symObjAddr: 0x2EF24, symBinAddr: 0x10004E994, symSize: 0x4C }
  - { offset: 0x7F678, size: 0x8, addend: 0x0, symName: '__ZN76_$LT$std..process..Command$u20$as$u20$std..os..unix..process..CommandExt$GT$6groups17h7d529a2dfa98468bE', symObjAddr: 0x2EFE4, symBinAddr: 0x10004EA54, symSize: 0xD0 }
  - { offset: 0x7F835, size: 0x8, addend: 0x0, symName: '__ZN76_$LT$std..process..Command$u20$as$u20$std..os..unix..process..CommandExt$GT$4exec17h93a1ea9d3b4400c1E', symObjAddr: 0x2F0B4, symBinAddr: 0x10004EB24, symSize: 0x25C }
  - { offset: 0x7FE7B, size: 0x8, addend: 0x0, symName: '__ZN87_$LT$std..process..ExitStatusError$u20$as$u20$std..os..unix..process..ExitStatusExt$GT$8from_raw17hc736a082c3d462feE', symObjAddr: 0x2F310, symBinAddr: 0x10004ED80, symSize: 0x38 }
  - { offset: 0x7FEA6, size: 0x8, addend: 0x0, symName: __ZN3std2os4unix7process9parent_id17ha7a517664647d5f6E, symObjAddr: 0x2F348, symBinAddr: 0x10004EDB8, symSize: 0x10 }
  - { offset: 0x7FEF2, size: 0x8, addend: 0x0, symName: '__ZN62_$LT$std..process..ChildStderr$u20$as$u20$core..fmt..Debug$GT$3fmt17h677e54a7a098980cE', symObjAddr: 0x32DD4, symBinAddr: 0x100052844, symSize: 0x38 }
  - { offset: 0x7FF1A, size: 0x8, addend: 0x0, symName: '__ZN62_$LT$std..process..ChildStdout$u20$as$u20$core..fmt..Debug$GT$3fmt17h10ce2c4247152729E', symObjAddr: 0x32CD8, symBinAddr: 0x100052748, symSize: 0x38 }
  - { offset: 0x7FF42, size: 0x8, addend: 0x0, symName: '__ZN61_$LT$std..process..ChildStdin$u20$as$u20$core..fmt..Debug$GT$3fmt17h5f90dbc778df0040E', symObjAddr: 0x32CA0, symBinAddr: 0x100052710, symSize: 0x38 }
  - { offset: 0x7FF5C, size: 0x8, addend: 0x0, symName: '__ZN193_$LT$std..process..Child$u20$as$u20$std..sys_common..FromInner$LT$$LP$std..sys..pal..unix..process..process_inner..Process$C$std..sys..pal..unix..process..process_common..StdioPipes$RP$$GT$$GT$10from_inner17h0fba2cdc4d03c302E', symObjAddr: 0x32B74, symBinAddr: 0x1000525E4, symSize: 0x30 }
  - { offset: 0x7FF7D, size: 0x8, addend: 0x0, symName: '__ZN126_$LT$std..process..Child$u20$as$u20$std..sys_common..IntoInner$LT$std..sys..pal..unix..process..process_inner..Process$GT$$GT$10into_inner17h862dd3674cfec9c5E', symObjAddr: 0x32BA4, symBinAddr: 0x100052614, symSize: 0x60 }
  - { offset: 0x8013E, size: 0x8, addend: 0x0, symName: '__ZN56_$LT$std..process..Child$u20$as$u20$core..fmt..Debug$GT$3fmt17h47ab4fe98eda2ceeE', symObjAddr: 0x32C04, symBinAddr: 0x100052674, symSize: 0x9C }
  - { offset: 0x8015F, size: 0x8, addend: 0x0, symName: '__ZN59_$LT$std..process..ChildStderr$u20$as$u20$std..io..Read$GT$4read17hd8af2a4c3c6eeeabE', symObjAddr: 0x32D10, symBinAddr: 0x100052780, symSize: 0x4C }
  - { offset: 0x80251, size: 0x8, addend: 0x0, symName: '__ZN59_$LT$std..process..ChildStderr$u20$as$u20$std..io..Read$GT$8read_buf17h03ed8e5e001ecc40E', symObjAddr: 0x32D5C, symBinAddr: 0x1000527CC, symSize: 0x78 }
  - { offset: 0x80431, size: 0x8, addend: 0x0, symName: __ZN3std7process7Command9env_clear17h146d4e0649a2b8e8E, symObjAddr: 0x32E0C, symBinAddr: 0x10005287C, symSize: 0x50 }
  - { offset: 0x804E9, size: 0x8, addend: 0x0, symName: __ZN3std7process7Command5spawn17h266f02ed69b6b94cE, symObjAddr: 0x32E5C, symBinAddr: 0x1000528CC, symSize: 0x78 }
  - { offset: 0x8051A, size: 0x8, addend: 0x0, symName: __ZN3std7process7Command6output17h59ad43b401eb7b7aE, symObjAddr: 0x32ED4, symBinAddr: 0x100052944, symSize: 0x2FC }
  - { offset: 0x80AE8, size: 0x8, addend: 0x0, symName: __ZN3std7process7Command6status17hb1476875a54afa3bE, symObjAddr: 0x331D0, symBinAddr: 0x100052C40, symSize: 0x100 }
  - { offset: 0x80D9C, size: 0x8, addend: 0x0, symName: __ZN3std7process7Command11get_program17hb3521bae146b0ee5E, symObjAddr: 0x332D0, symBinAddr: 0x100052D40, symSize: 0x1C }
  - { offset: 0x80DE3, size: 0x8, addend: 0x0, symName: __ZN3std7process7Command8get_args17hd2a20429ba5b9c9cE, symObjAddr: 0x332EC, symBinAddr: 0x100052D5C, symSize: 0x24 }
  - { offset: 0x80E6A, size: 0x8, addend: 0x0, symName: __ZN3std7process7Command15get_current_dir17h05434e5d408fd71bE, symObjAddr: 0x33310, symBinAddr: 0x100052D80, symSize: 0x1C }
  - { offset: 0x80EC5, size: 0x8, addend: 0x0, symName: __ZN3std7process5Child4kill17hbcc4cd7d18db2e76E, symObjAddr: 0x33634, symBinAddr: 0x1000530A4, symSize: 0x4C }
  - { offset: 0x80F70, size: 0x8, addend: 0x0, symName: __ZN3std7process5Child4wait17hfd16e40a21ace0b6E, symObjAddr: 0x33680, symBinAddr: 0x1000530F0, symSize: 0xBC }
  - { offset: 0x81127, size: 0x8, addend: 0x0, symName: __ZN3std7process5Child8try_wait17hab194fd7dcf6164aE, symObjAddr: 0x3373C, symBinAddr: 0x1000531AC, symSize: 0xB4 }
  - { offset: 0x811E7, size: 0x8, addend: 0x0, symName: __ZN3std7process5Child16wait_with_output17h7f885c4faec66dfaE, symObjAddr: 0x337F0, symBinAddr: 0x100053260, symSize: 0x2DC }
  - { offset: 0x81850, size: 0x8, addend: 0x0, symName: '__ZN58_$LT$std..process..Command$u20$as$u20$core..fmt..Debug$GT$3fmt17h2eb960460f470b7dE', symObjAddr: 0x3332C, symBinAddr: 0x100052D9C, symSize: 0x10 }
  - { offset: 0x81871, size: 0x8, addend: 0x0, symName: '__ZN84_$LT$std..process..CommandArgs$u20$as$u20$core..iter..traits..iterator..Iterator$GT$4next17h2070c5632d0143b9E', symObjAddr: 0x3333C, symBinAddr: 0x100052DAC, symSize: 0x34 }
  - { offset: 0x8188F, size: 0x8, addend: 0x0, symName: '__ZN84_$LT$std..process..CommandArgs$u20$as$u20$core..iter..traits..iterator..Iterator$GT$4next17h2070c5632d0143b9E', symObjAddr: 0x3333C, symBinAddr: 0x100052DAC, symSize: 0x34 }
  - { offset: 0x818A4, size: 0x8, addend: 0x0, symName: '__ZN84_$LT$std..process..CommandArgs$u20$as$u20$core..iter..traits..iterator..Iterator$GT$4next17h2070c5632d0143b9E', symObjAddr: 0x3333C, symBinAddr: 0x100052DAC, symSize: 0x34 }
  - { offset: 0x81939, size: 0x8, addend: 0x0, symName: '__ZN84_$LT$std..process..CommandArgs$u20$as$u20$core..iter..traits..iterator..Iterator$GT$9size_hint17hc63d5b1de5148b9aE', symObjAddr: 0x33370, symBinAddr: 0x100052DE0, symSize: 0x28 }
  - { offset: 0x819B1, size: 0x8, addend: 0x0, symName: '__ZN95_$LT$std..process..CommandArgs$u20$as$u20$core..iter..traits..exact_size..ExactSizeIterator$GT$3len17h85bde1d725b5d675E', symObjAddr: 0x33398, symBinAddr: 0x100052E08, symSize: 0x1C }
  - { offset: 0x81A29, size: 0x8, addend: 0x0, symName: '__ZN57_$LT$std..process..Output$u20$as$u20$core..fmt..Debug$GT$3fmt17h4c021b2144c6640cE', symObjAddr: 0x333B4, symBinAddr: 0x100052E24, symSize: 0x10C }
  - { offset: 0x81B51, size: 0x8, addend: 0x0, symName: '__ZN56_$LT$std..process..Stdio$u20$as$u20$core..fmt..Debug$GT$3fmt17h2a2f40a49915da3bE', symObjAddr: 0x334C0, symBinAddr: 0x100052F30, symSize: 0x38 }
  - { offset: 0x81B72, size: 0x8, addend: 0x0, symName: __ZN3std7process10ExitStatus7exit_ok17h9ce386e50f9e8edeE, symObjAddr: 0x334F8, symBinAddr: 0x100052F68, symSize: 0x14 }
  - { offset: 0x81BA9, size: 0x8, addend: 0x0, symName: '__ZN63_$LT$std..process..ExitStatus$u20$as$u20$core..fmt..Display$GT$3fmt17h19f84d8393cf5e65E', symObjAddr: 0x3350C, symBinAddr: 0x100052F7C, symSize: 0x10 }
  - { offset: 0x81BD8, size: 0x8, addend: 0x0, symName: __ZN3std7process15ExitStatusError4code17h9a777bce7c488818E, symObjAddr: 0x3351C, symBinAddr: 0x100052F8C, symSize: 0x5C }
  - { offset: 0x81CD1, size: 0x8, addend: 0x0, symName: __ZN3std7process15ExitStatusError12code_nonzero17ha3f1d2194e0660f9E, symObjAddr: 0x33578, symBinAddr: 0x100052FE8, symSize: 0x54 }
  - { offset: 0x81DC9, size: 0x8, addend: 0x0, symName: '__ZN68_$LT$std..process..ExitStatusError$u20$as$u20$core..fmt..Display$GT$3fmt17hc0d2cd6647b1321fE', symObjAddr: 0x335CC, symBinAddr: 0x10005303C, symSize: 0x58 }
  - { offset: 0x81E38, size: 0x8, addend: 0x0, symName: __ZN3std7process8ExitCode12exit_process17h576189345c2e7791E, symObjAddr: 0x33624, symBinAddr: 0x100053094, symSize: 0x10 }
  - { offset: 0x81E94, size: 0x8, addend: 0x0, symName: __ZN3std7process4exit17he1a5b98063b2b340E, symObjAddr: 0x33ACC, symBinAddr: 0x10005353C, symSize: 0x1C }
  - { offset: 0x81EAF, size: 0x8, addend: 0x0, symName: __ZN3std7process5abort17hefc10ade1c26ea0eE, symObjAddr: 0x33AE8, symBinAddr: 0x1000A846C, symSize: 0xC }
  - { offset: 0x81ECA, size: 0x8, addend: 0x0, symName: __ZN3std7process2id17ha36e775cd374fcadE, symObjAddr: 0x33AF4, symBinAddr: 0x100053558, symSize: 0x10 }
  - { offset: 0x81F00, size: 0x8, addend: 0x0, symName: '__ZN61_$LT$std..process..ExitStatus$u20$as$u20$core..fmt..Debug$GT$3fmt17h7508feeb417ed04aE', symObjAddr: 0x39B74, symBinAddr: 0x100058B30, symSize: 0x40 }
  - { offset: 0x82080, size: 0x8, addend: 0x0, symName: __ZN3std4path4Path11is_absolute17hd4812f4da80066d7E, symObjAddr: 0x31484, symBinAddr: 0x100050EF4, symSize: 0x2C }
  - { offset: 0x820EB, size: 0x8, addend: 0x0, symName: __ZN3std4path4Path6parent17he35c2f34b9de05cbE, symObjAddr: 0x314B0, symBinAddr: 0x100050F20, symSize: 0x84 }
  - { offset: 0x82102, size: 0x8, addend: 0x0, symName: __ZN3std4path4Path6parent17he35c2f34b9de05cbE, symObjAddr: 0x314B0, symBinAddr: 0x100050F20, symSize: 0x84 }
  - { offset: 0x82117, size: 0x8, addend: 0x0, symName: __ZN3std4path4Path6parent17he35c2f34b9de05cbE, symObjAddr: 0x314B0, symBinAddr: 0x100050F20, symSize: 0x84 }
  - { offset: 0x8216C, size: 0x8, addend: 0x0, symName: __ZN3std4path4Path9file_name17hdaf0803034112d11E, symObjAddr: 0x31534, symBinAddr: 0x100050FA4, symSize: 0x64 }
  - { offset: 0x82183, size: 0x8, addend: 0x0, symName: __ZN3std4path4Path9file_name17hdaf0803034112d11E, symObjAddr: 0x31534, symBinAddr: 0x100050FA4, symSize: 0x64 }
  - { offset: 0x82198, size: 0x8, addend: 0x0, symName: __ZN3std4path4Path9file_name17hdaf0803034112d11E, symObjAddr: 0x31534, symBinAddr: 0x100050FA4, symSize: 0x64 }
  - { offset: 0x821D7, size: 0x8, addend: 0x0, symName: __ZN3std4path4Path13_strip_prefix17h2da2f8b103717ed8E, symObjAddr: 0x31598, symBinAddr: 0x100051008, symSize: 0x21C }
  - { offset: 0x82309, size: 0x8, addend: 0x0, symName: __ZN3std4path4Path12_starts_with17h7e4134ca947ec556E, symObjAddr: 0x317B4, symBinAddr: 0x100051224, symSize: 0x198 }
  - { offset: 0x82418, size: 0x8, addend: 0x0, symName: __ZN3std4path4Path10_ends_with17h82da21b174d4a9f5E, symObjAddr: 0x3194C, symBinAddr: 0x1000513BC, symSize: 0x198 }
  - { offset: 0x82589, size: 0x8, addend: 0x0, symName: __ZN3std4path4Path9file_stem17he830e8d0e280c6e7E, symObjAddr: 0x31AE4, symBinAddr: 0x100051554, symSize: 0xF4 }
  - { offset: 0x825A0, size: 0x8, addend: 0x0, symName: __ZN3std4path4Path9file_stem17he830e8d0e280c6e7E, symObjAddr: 0x31AE4, symBinAddr: 0x100051554, symSize: 0xF4 }
  - { offset: 0x825B5, size: 0x8, addend: 0x0, symName: __ZN3std4path4Path9file_stem17he830e8d0e280c6e7E, symObjAddr: 0x31AE4, symBinAddr: 0x100051554, symSize: 0xF4 }
  - { offset: 0x825CA, size: 0x8, addend: 0x0, symName: __ZN3std4path4Path9file_stem17he830e8d0e280c6e7E, symObjAddr: 0x31AE4, symBinAddr: 0x100051554, symSize: 0xF4 }
  - { offset: 0x8284D, size: 0x8, addend: 0x0, symName: __ZN3std4path4Path11file_prefix17h43cf6b8591ab16dfE, symObjAddr: 0x31BD8, symBinAddr: 0x100051648, symSize: 0x130 }
  - { offset: 0x82A2F, size: 0x8, addend: 0x0, symName: __ZN3std4path4Path9extension17hb71fa3411a3cead4E, symObjAddr: 0x31D08, symBinAddr: 0x100051778, symSize: 0xC0 }
  - { offset: 0x82A46, size: 0x8, addend: 0x0, symName: __ZN3std4path4Path9extension17hb71fa3411a3cead4E, symObjAddr: 0x31D08, symBinAddr: 0x100051778, symSize: 0xC0 }
  - { offset: 0x82A5B, size: 0x8, addend: 0x0, symName: __ZN3std4path4Path9extension17hb71fa3411a3cead4E, symObjAddr: 0x31D08, symBinAddr: 0x100051778, symSize: 0xC0 }
  - { offset: 0x82A70, size: 0x8, addend: 0x0, symName: __ZN3std4path4Path9extension17hb71fa3411a3cead4E, symObjAddr: 0x31D08, symBinAddr: 0x100051778, symSize: 0xC0 }
  - { offset: 0x82CC0, size: 0x8, addend: 0x0, symName: __ZN3std4path4Path5_join17had3a2b8f4cd3c0dfE, symObjAddr: 0x31DC8, symBinAddr: 0x100051838, symSize: 0x19C }
  - { offset: 0x8311B, size: 0x8, addend: 0x0, symName: __ZN3std4path4Path15_with_file_name17h7cae80f1d26956c7E, symObjAddr: 0x31F64, symBinAddr: 0x1000519D4, symSize: 0xE8 }
  - { offset: 0x83354, size: 0x8, addend: 0x0, symName: __ZN3std4path4Path15_with_extension17hdff11c758f17b145E, symObjAddr: 0x3204C, symBinAddr: 0x100051ABC, symSize: 0x210 }
  - { offset: 0x83815, size: 0x8, addend: 0x0, symName: __ZN3std4path4Path10components17hab13bcf09bb47166E, symObjAddr: 0x3225C, symBinAddr: 0x100051CCC, symSize: 0x40 }
  - { offset: 0x83855, size: 0x8, addend: 0x0, symName: __ZN3std4path4Path7is_file17ha3427b3c5fa7d627E, symObjAddr: 0x3229C, symBinAddr: 0x100051D0C, symSize: 0x1C4 }
  - { offset: 0x83C35, size: 0x8, addend: 0x0, symName: __ZN3std4path4Path6is_dir17hc03774e0a986794eE, symObjAddr: 0x32460, symBinAddr: 0x100051ED0, symSize: 0x1C4 }
  - { offset: 0x84015, size: 0x8, addend: 0x0, symName: __ZN3std4path4Path10is_symlink17h394c60b15b4bfc42E, symObjAddr: 0x32624, symBinAddr: 0x100052094, symSize: 0x1C4 }
  - { offset: 0x845CD, size: 0x8, addend: 0x0, symName: '__ZN58_$LT$std..path..Components$u20$as$u20$core..fmt..Debug$GT$3fmt17h45149c18893f9be8E', symObjAddr: 0x2F7C8, symBinAddr: 0x10004F238, symSize: 0x64 }
  - { offset: 0x845F2, size: 0x8, addend: 0x0, symName: '__ZN112_$LT$$LT$std..path..Components$u20$as$u20$core..fmt..Debug$GT$..fmt..DebugHelper$u20$as$u20$core..fmt..Debug$GT$3fmt17h4d4b5f6a2fd9d21eE', symObjAddr: 0x2F82C, symBinAddr: 0x10004F29C, symSize: 0xD4 }
  - { offset: 0x846C6, size: 0x8, addend: 0x0, symName: __ZN3std4path10Components15len_before_body17he1f50228b1838e6aE, symObjAddr: 0x2F900, symBinAddr: 0x10004F370, symSize: 0x188 }
  - { offset: 0x846DD, size: 0x8, addend: 0x0, symName: __ZN3std4path10Components15len_before_body17he1f50228b1838e6aE, symObjAddr: 0x2F900, symBinAddr: 0x10004F370, symSize: 0x188 }
  - { offset: 0x846F2, size: 0x8, addend: 0x0, symName: __ZN3std4path10Components15len_before_body17he1f50228b1838e6aE, symObjAddr: 0x2F900, symBinAddr: 0x10004F370, symSize: 0x188 }
  - { offset: 0x848D4, size: 0x8, addend: 0x0, symName: __ZN3std4path10Components7as_path17hc4f4a7b78ce3c07eE, symObjAddr: 0x2FA88, symBinAddr: 0x10004F4F8, symSize: 0x530 }
  - { offset: 0x84D9E, size: 0x8, addend: 0x0, symName: __ZN3std4path10Components25parse_next_component_back17h20507a478b81ee4cE, symObjAddr: 0x2FFB8, symBinAddr: 0x10004FA28, symSize: 0x120 }
  - { offset: 0x84FA9, size: 0x8, addend: 0x0, symName: '__ZN52_$LT$std..path..Iter$u20$as$u20$core..fmt..Debug$GT$3fmt17ha71445c770876402E', symObjAddr: 0x300D8, symBinAddr: 0x10004FB48, symSize: 0x64 }
  - { offset: 0x84FE4, size: 0x8, addend: 0x0, symName: '__ZN106_$LT$$LT$std..path..Iter$u20$as$u20$core..fmt..Debug$GT$..fmt..DebugHelper$u20$as$u20$core..fmt..Debug$GT$3fmt17haec8913f11ef51c4E', symObjAddr: 0x3013C, symBinAddr: 0x10004FBAC, symSize: 0x134 }
  - { offset: 0x850CC, size: 0x8, addend: 0x0, symName: '__ZN80_$LT$std..path..Components$u20$as$u20$core..iter..traits..iterator..Iterator$GT$4next17h240fe092a2974e44E', symObjAddr: 0x30270, symBinAddr: 0x10004FCE0, symSize: 0x364 }
  - { offset: 0x85419, size: 0x8, addend: 0x0, symName: '__ZN95_$LT$std..path..Components$u20$as$u20$core..iter..traits..double_ended..DoubleEndedIterator$GT$9next_back17h4ddd74a66a548e1dE', symObjAddr: 0x305D4, symBinAddr: 0x100050044, symSize: 0x330 }
  - { offset: 0x855A1, size: 0x8, addend: 0x0, symName: __ZN3std4path18compare_components17h864d03ef5af4c3e7E, symObjAddr: 0x30904, symBinAddr: 0x100050374, symSize: 0x304 }
  - { offset: 0x85980, size: 0x8, addend: 0x0, symName: __ZN3std4path7PathBuf5_push17h5c087d9a4f5c6e83E, symObjAddr: 0x30C08, symBinAddr: 0x100050678, symSize: 0x104 }
  - { offset: 0x85D19, size: 0x8, addend: 0x0, symName: __ZN3std4path7PathBuf3pop17hfd558862512e7aceE, symObjAddr: 0x30D0C, symBinAddr: 0x10005077C, symSize: 0xA8 }
  - { offset: 0x85F1E, size: 0x8, addend: 0x0, symName: __ZN3std4path7PathBuf14_set_file_name17hd47cb42524c0c55bE, symObjAddr: 0x30DB4, symBinAddr: 0x100050824, symSize: 0x1C8 }
  - { offset: 0x863E2, size: 0x8, addend: 0x0, symName: __ZN3std4path7PathBuf14_set_extension17hb70db3a70ae657adE, symObjAddr: 0x30F7C, symBinAddr: 0x1000509EC, symSize: 0x2AC }
  - { offset: 0x86B9E, size: 0x8, addend: 0x0, symName: __ZN3std4path7PathBuf14_add_extension17h81e5f73615b3c69cE, symObjAddr: 0x31228, symBinAddr: 0x100050C98, symSize: 0x1B4 }
  - { offset: 0x87178, size: 0x8, addend: 0x0, symName: '__ZN3std4path117_$LT$impl$u20$core..convert..From$LT$$RF$std..path..Path$GT$$u20$for$u20$alloc..boxed..Box$LT$std..path..Path$GT$$GT$4from17h53d0d4b0c1260136E', symObjAddr: 0x313DC, symBinAddr: 0x100050E4C, symSize: 0x80 }
  - { offset: 0x872AB, size: 0x8, addend: 0x0, symName: '__ZN52_$LT$std..path..Path$u20$as$u20$core..fmt..Debug$GT$3fmt17hd02d5e990aa2db15E', symObjAddr: 0x327E8, symBinAddr: 0x100052258, symSize: 0x28 }
  - { offset: 0x87306, size: 0x8, addend: 0x0, symName: '__ZN55_$LT$std..path..PathBuf$u20$as$u20$core..fmt..Debug$GT$3fmt17h2e6c8b2a7bd3fe27E', symObjAddr: 0x3145C, symBinAddr: 0x100050ECC, symSize: 0x28 }
  - { offset: 0x874AE, size: 0x8, addend: 0x0, symName: '__ZN55_$LT$std..path..Display$u20$as$u20$core..fmt..Debug$GT$3fmt17hc7ac5ba239202d41E', symObjAddr: 0x32810, symBinAddr: 0x100052280, symSize: 0x28 }
  - { offset: 0x8753C, size: 0x8, addend: 0x0, symName: '__ZN57_$LT$std..path..Display$u20$as$u20$core..fmt..Display$GT$3fmt17hd78f7f625035d814E', symObjAddr: 0x32838, symBinAddr: 0x1000522A8, symSize: 0x1C }
  - { offset: 0x8757A, size: 0x8, addend: 0x0, symName: '__ZN66_$LT$std..path..StripPrefixError$u20$as$u20$core..fmt..Display$GT$3fmt17hb7925bb09b4b0778E', symObjAddr: 0x32854, symBinAddr: 0x1000522C4, symSize: 0x20 }
  - { offset: 0x875C2, size: 0x8, addend: 0x0, symName: '__ZN61_$LT$std..path..Component$u20$as$u20$core..cmp..PartialEq$GT$2eq17h2e109766e714e46fE', symObjAddr: 0x3996C, symBinAddr: 0x100058928, symSize: 0x138 }
  - { offset: 0x8771C, size: 0x8, addend: 0x0, symName: '__ZN57_$LT$std..path..Component$u20$as$u20$core..fmt..Debug$GT$3fmt17hc8863aa790253172E', symObjAddr: 0x39AA4, symBinAddr: 0x100058A60, symSize: 0xD0 }
  - { offset: 0x87980, size: 0x8, addend: 0x0, symName: __ZN3std3ffi6os_str8OsString17into_boxed_os_str17h7a8d7aea12960c13E, symObjAddr: 0x21918, symBinAddr: 0x1000415A0, symSize: 0x98 }
  - { offset: 0x87BBC, size: 0x8, addend: 0x0, symName: __ZN3std3ffi6os_str5OsStr14into_os_string17h231a6cccbee9f4c1E, symObjAddr: 0x21A30, symBinAddr: 0x1000416B8, symSize: 0x18 }
  - { offset: 0x87BD7, size: 0x8, addend: 0x0, symName: __ZN3std3ffi6os_str5OsStr18to_ascii_lowercase17h8ef059aa7f49c1d9E, symObjAddr: 0x21A48, symBinAddr: 0x1000416D0, symSize: 0x190 }
  - { offset: 0x87D5C, size: 0x8, addend: 0x0, symName: __ZN3std3ffi6os_str5OsStr18to_ascii_uppercase17h0cd770b92c928a7fE, symObjAddr: 0x21BD8, symBinAddr: 0x100041860, symSize: 0x190 }
  - { offset: 0x87F73, size: 0x8, addend: 0x0, symName: '__ZN63_$LT$std..ffi..os_str..OsString$u20$as$u20$core..fmt..Write$GT$9write_str17h88f0e05ad2c9ab2dE', symObjAddr: 0x219B0, symBinAddr: 0x100041638, symSize: 0x80 }
  - { offset: 0x880FB, size: 0x8, addend: 0x0, symName: '__ZN3std3ffi6os_str95_$LT$impl$u20$core..convert..TryFrom$LT$$RF$std..ffi..os_str..OsStr$GT$$u20$for$u20$$RF$str$GT$8try_from17hacf1a48227cba18dE', symObjAddr: 0x21D68, symBinAddr: 0x1000419F0, symSize: 0x10 }
  - { offset: 0x88132, size: 0x8, addend: 0x0, symName: '__ZN62_$LT$std..ffi..os_str..Display$u20$as$u20$core..fmt..Debug$GT$3fmt17he506d065f9a30d97E', symObjAddr: 0x21D78, symBinAddr: 0x100041A00, symSize: 0x28 }
  - { offset: 0x881B1, size: 0x8, addend: 0x0, symName: '__ZN64_$LT$std..ffi..os_str..Display$u20$as$u20$core..fmt..Display$GT$3fmt17h2c9e238ad5a6828eE', symObjAddr: 0x21DA0, symBinAddr: 0x100041A28, symSize: 0x1C }
  - { offset: 0x8841B, size: 0x8, addend: 0x0, symName: __ZN3std2io5error5Error3new17ha6bd369ff0e694abE, symObjAddr: 0x24D90, symBinAddr: 0x100044800, symSize: 0x12C }
  - { offset: 0x8875C, size: 0x8, addend: 0x0, symName: __ZN3std2io5error5Error3new17hc24aef2a81b5e04bE, symObjAddr: 0x24EBC, symBinAddr: 0x10004492C, symSize: 0x80 }
  - { offset: 0x88822, size: 0x8, addend: 0x0, symName: __ZN3std2io5error5Error4_new17hb9ca239c11358d50E, symObjAddr: 0x24F3C, symBinAddr: 0x1000449AC, symSize: 0x84 }
  - { offset: 0x88BAD, size: 0x8, addend: 0x0, symName: __ZN3std2io5error14repr_bitpacked4Repr3new17h6c32bd6df2bb9932E, symObjAddr: 0x24C4C, symBinAddr: 0x1000446BC, symSize: 0x58 }
  - { offset: 0x88DEB, size: 0x8, addend: 0x0, symName: __ZN3std2io5error14repr_bitpacked11decode_repr17h61864a3e30e49abfE, symObjAddr: 0x24CA4, symBinAddr: 0x100044714, symSize: 0x64 }
  - { offset: 0x88E8E, size: 0x8, addend: 0x0, symName: '__ZN58_$LT$std..io..error..Error$u20$as$u20$core..fmt..Debug$GT$3fmt17h8bf91d1757b352fdE', symObjAddr: 0x24D08, symBinAddr: 0x100044778, symSize: 0x10 }
  - { offset: 0x88EAE, size: 0x8, addend: 0x0, symName: '__ZN96_$LT$std..io..error..Error$u20$as$u20$core..convert..From$LT$alloc..ffi..c_str..NulError$GT$$GT$4from17h3bdf74734a2b5af8E', symObjAddr: 0x24D18, symBinAddr: 0x100044788, symSize: 0x2C }
  - { offset: 0x88ECB, size: 0x8, addend: 0x0, symName: '__ZN96_$LT$std..io..error..Error$u20$as$u20$core..convert..From$LT$alloc..ffi..c_str..NulError$GT$$GT$4from17h3bdf74734a2b5af8E', symObjAddr: 0x24D18, symBinAddr: 0x100044788, symSize: 0x2C }
  - { offset: 0x88EDF, size: 0x8, addend: 0x0, symName: '__ZN96_$LT$std..io..error..Error$u20$as$u20$core..convert..From$LT$alloc..ffi..c_str..NulError$GT$$GT$4from17h3bdf74734a2b5af8E', symObjAddr: 0x24D18, symBinAddr: 0x100044788, symSize: 0x2C }
  - { offset: 0x88F64, size: 0x8, addend: 0x0, symName: '__ZN104_$LT$std..io..error..Error$u20$as$u20$core..convert..From$LT$alloc..collections..TryReserveError$GT$$GT$4from17h711c115f3f93aab3E', symObjAddr: 0x24D44, symBinAddr: 0x1000447B4, symSize: 0x18 }
  - { offset: 0x88F98, size: 0x8, addend: 0x0, symName: '__ZN64_$LT$std..io..error..ErrorKind$u20$as$u20$core..fmt..Display$GT$3fmt17hddd422a0ecfef250E', symObjAddr: 0x24D5C, symBinAddr: 0x1000447CC, symSize: 0x34 }
  - { offset: 0x88FE2, size: 0x8, addend: 0x0, symName: '__ZN3std2io5error83_$LT$impl$u20$core..fmt..Debug$u20$for$u20$std..io..error..repr_bitpacked..Repr$GT$3fmt17h5a95a85f37e3c23bE', symObjAddr: 0x24FC0, symBinAddr: 0x100044A30, symSize: 0x294 }
  - { offset: 0x8922D, size: 0x8, addend: 0x0, symName: '__ZN60_$LT$std..io..error..Error$u20$as$u20$core..fmt..Display$GT$3fmt17hf6832004bfff0787E', symObjAddr: 0x25254, symBinAddr: 0x100044CC4, symSize: 0x204 }
  - { offset: 0x8948A, size: 0x8, addend: 0x0, symName: '__ZN60_$LT$std..io..error..Error$u20$as$u20$core..error..Error$GT$11description17hb3150e6eefe42711E', symObjAddr: 0x25458, symBinAddr: 0x100044EC8, symSize: 0x8C }
  - { offset: 0x89514, size: 0x8, addend: 0x0, symName: '__ZN60_$LT$std..io..error..Error$u20$as$u20$core..error..Error$GT$5cause17hf96e89352a6620cdE', symObjAddr: 0x254E4, symBinAddr: 0x100044F54, symSize: 0x38 }
  - { offset: 0x89532, size: 0x8, addend: 0x0, symName: '__ZN60_$LT$std..io..error..Error$u20$as$u20$core..error..Error$GT$5cause17hf96e89352a6620cdE', symObjAddr: 0x254E4, symBinAddr: 0x100044F54, symSize: 0x38 }
  - { offset: 0x8955A, size: 0x8, addend: 0x0, symName: '__ZN60_$LT$std..io..error..Error$u20$as$u20$core..error..Error$GT$6source17h9312daf3ac3f4260E', symObjAddr: 0x2551C, symBinAddr: 0x100044F8C, symSize: 0x38 }
  - { offset: 0x89578, size: 0x8, addend: 0x0, symName: '__ZN60_$LT$std..io..error..Error$u20$as$u20$core..error..Error$GT$6source17h9312daf3ac3f4260E', symObjAddr: 0x2551C, symBinAddr: 0x100044F8C, symSize: 0x38 }
  - { offset: 0x895A6, size: 0x8, addend: 0x0, symName: '__ZN62_$LT$std..io..error..ErrorKind$u20$as$u20$core..fmt..Debug$GT$3fmt17hb4e443c8fdea1addE', symObjAddr: 0x39938, symBinAddr: 0x1000588F4, symSize: 0x34 }
  - { offset: 0x89625, size: 0x8, addend: 0x0, symName: '__ZN80_$LT$std..io..Write..write_fmt..Adapter$LT$T$GT$$u20$as$u20$core..fmt..Write$GT$9write_str17h4e3a703fbc391c88E', symObjAddr: 0x2ABFC, symBinAddr: 0x10004A66C, symSize: 0x50 }
  - { offset: 0x8964F, size: 0x8, addend: 0x0, symName: '__ZN80_$LT$std..io..Write..write_fmt..Adapter$LT$T$GT$$u20$as$u20$core..fmt..Write$GT$9write_str17h99ff46d68fae9060E', symObjAddr: 0x2AC4C, symBinAddr: 0x10004A6BC, symSize: 0xD4 }
  - { offset: 0x8978D, size: 0x8, addend: 0x0, symName: '__ZN80_$LT$std..io..Write..write_fmt..Adapter$LT$T$GT$$u20$as$u20$core..fmt..Write$GT$9write_str17hb40acde172c4080dE', symObjAddr: 0x2AD20, symBinAddr: 0x10004A790, symSize: 0x80 }
  - { offset: 0x898D9, size: 0x8, addend: 0x0, symName: '__ZN80_$LT$std..io..Write..write_fmt..Adapter$LT$T$GT$$u20$as$u20$core..fmt..Write$GT$9write_str17hccd0b6fc5be13c44E', symObjAddr: 0x2ADA0, symBinAddr: 0x10004A810, symSize: 0x50 }
  - { offset: 0x89903, size: 0x8, addend: 0x0, symName: '__ZN80_$LT$std..io..Write..write_fmt..Adapter$LT$T$GT$$u20$as$u20$core..fmt..Write$GT$9write_str17hfa3cc98e01093c8dE', symObjAddr: 0x2ADF0, symBinAddr: 0x10004A860, symSize: 0xD4 }
  - { offset: 0x89AA5, size: 0x8, addend: 0x0, symName: __ZN3std2io5Write18write_all_vectored17hdae03fff64c0bf59E, symObjAddr: 0x2A7F8, symBinAddr: 0x10004A268, symSize: 0x1BC }
  - { offset: 0x89D8D, size: 0x8, addend: 0x0, symName: __ZN3std2io5Write9write_fmt17h75af97148630d8d3E, symObjAddr: 0x2A9B4, symBinAddr: 0x10004A424, symSize: 0x124 }
  - { offset: 0x89FCB, size: 0x8, addend: 0x0, symName: __ZN3std2io5Write9write_fmt17h9610cdd27cd3672cE, symObjAddr: 0x2AAD8, symBinAddr: 0x10004A548, symSize: 0x124 }
  - { offset: 0x8A26A, size: 0x8, addend: 0x0, symName: '__ZN3std2io5impls83_$LT$impl$u20$std..io..Write$u20$for$u20$core..io..borrowed_buf..BorrowedCursor$GT$5write17he304c4a96d16e78dE', symObjAddr: 0x25554, symBinAddr: 0x100044FC4, symSize: 0x58 }
  - { offset: 0x8A417, size: 0x8, addend: 0x0, symName: __ZN3std2io8buffered9bufreader6buffer6Buffer9backshift17hd61e5f00ca8899a5E, symObjAddr: 0x23D0C, symBinAddr: 0x100043994, symSize: 0x58 }
  - { offset: 0x8A679, size: 0x8, addend: 0x0, symName: '__ZN82_$LT$std..io..buffered..bufreader..BufReader$LT$R$GT$$u20$as$u20$std..io..Read$GT$4read17hb98662383eab68f8E', symObjAddr: 0x23D64, symBinAddr: 0x1000439EC, symSize: 0x1B0 }
  - { offset: 0x8AA5C, size: 0x8, addend: 0x0, symName: '__ZN82_$LT$std..io..buffered..bufreader..BufReader$LT$R$GT$$u20$as$u20$std..io..Read$GT$8read_buf17hb49c2ea41f7ae7aeE', symObjAddr: 0x23F14, symBinAddr: 0x100043B9C, symSize: 0x1B0 }
  - { offset: 0x8B097, size: 0x8, addend: 0x0, symName: '__ZN82_$LT$std..io..buffered..bufreader..BufReader$LT$R$GT$$u20$as$u20$std..io..Read$GT$11read_to_end17hd33ccd3b46de5a30E', symObjAddr: 0x240C4, symBinAddr: 0x100043D4C, symSize: 0x15C }
  - { offset: 0x8B43D, size: 0x8, addend: 0x0, symName: '__ZN3std2io8buffered9bufwriter18BufWriter$LT$W$GT$9flush_buf17h8caf5baab3909c0eE', symObjAddr: 0x24220, symBinAddr: 0x100043EA8, symSize: 0x204 }
  - { offset: 0x8B99B, size: 0x8, addend: 0x0, symName: '__ZN3std2io8buffered9bufwriter18BufWriter$LT$W$GT$10write_cold17hb2cd0c49dfbb647bE', symObjAddr: 0x244B8, symBinAddr: 0x1000A8254, symSize: 0xF8 }
  - { offset: 0x8BBF2, size: 0x8, addend: 0x0, symName: '__ZN3std2io8buffered9bufwriter18BufWriter$LT$W$GT$14write_all_cold17h5452cfd42e3caf48E', symObjAddr: 0x245B0, symBinAddr: 0x1000A834C, symSize: 0x120 }
  - { offset: 0x8BEE0, size: 0x8, addend: 0x0, symName: '__ZN111_$LT$std..io..buffered..bufwriter..BufWriter$LT$W$GT$..flush_buf..BufGuard$u20$as$u20$core..ops..drop..Drop$GT$4drop17h69591a2c9f0cb0b2E', symObjAddr: 0x24458, symBinAddr: 0x1000440E0, symSize: 0x60 }
  - { offset: 0x8C096, size: 0x8, addend: 0x0, symName: '__ZN3std2io8buffered9bufwriter18BufWriter$LT$W$GT$9flush_buf8BufGuard9remaining17hc0b18bfe3e00374bE', symObjAddr: 0x24424, symBinAddr: 0x1000440AC, symSize: 0x34 }
  - { offset: 0x8C145, size: 0x8, addend: 0x0, symName: '__ZN83_$LT$std..io..buffered..bufwriter..WriterPanicked$u20$as$u20$core..fmt..Display$GT$3fmt17h0ad0299d24e2616eE', symObjAddr: 0x246D0, symBinAddr: 0x100044140, symSize: 0x54 }
  - { offset: 0x8C191, size: 0x8, addend: 0x0, symName: '__ZN81_$LT$std..io..buffered..bufwriter..WriterPanicked$u20$as$u20$core..fmt..Debug$GT$3fmt17ha1177804a1855087E', symObjAddr: 0x24724, symBinAddr: 0x100044194, symSize: 0xA4 }
  - { offset: 0x8C316, size: 0x8, addend: 0x0, symName: '__ZN93_$LT$std..io..buffered..linewritershim..LineWriterShim$LT$W$GT$$u20$as$u20$std..io..Write$GT$14write_vectored17hed0aef1b26992b91E', symObjAddr: 0x247C8, symBinAddr: 0x100044238, symSize: 0x45C }
  - { offset: 0x8CC07, size: 0x8, addend: 0x0, symName: '__ZN58_$LT$std..io..stdio..StdinRaw$u20$as$u20$std..io..Read$GT$4read17h387e37e377cba61dE', symObjAddr: 0x255AC, symBinAddr: 0x10004501C, symSize: 0x74 }
  - { offset: 0x8CD05, size: 0x8, addend: 0x0, symName: '__ZN58_$LT$std..io..stdio..StdinRaw$u20$as$u20$std..io..Read$GT$8read_buf17h552ce8e9bdc47091E', symObjAddr: 0x25620, symBinAddr: 0x100045090, symSize: 0x88 }
  - { offset: 0x8CEDD, size: 0x8, addend: 0x0, symName: '__ZN58_$LT$std..io..stdio..StdinRaw$u20$as$u20$std..io..Read$GT$13read_vectored17hc60583448e868c88E', symObjAddr: 0x256A8, symBinAddr: 0x100045118, symSize: 0x74 }
  - { offset: 0x8CFDB, size: 0x8, addend: 0x0, symName: '__ZN58_$LT$std..io..stdio..StdinRaw$u20$as$u20$std..io..Read$GT$11read_to_end17h9cc78a1ef7a3dbd8E', symObjAddr: 0x2571C, symBinAddr: 0x10004518C, symSize: 0x44 }
  - { offset: 0x8D018, size: 0x8, addend: 0x0, symName: '__ZN58_$LT$std..io..stdio..StdinRaw$u20$as$u20$std..io..Read$GT$14read_to_string17he2edb8a3a26005d3E', symObjAddr: 0x25760, symBinAddr: 0x1000451D0, symSize: 0xE0 }
  - { offset: 0x8D2A9, size: 0x8, addend: 0x0, symName: '__ZN60_$LT$std..io..stdio..StdoutRaw$u20$as$u20$std..io..Write$GT$5write17h6d80a2315418ce1aE', symObjAddr: 0x25840, symBinAddr: 0x1000452B0, symSize: 0x7C }
  - { offset: 0x8D3A9, size: 0x8, addend: 0x0, symName: '__ZN60_$LT$std..io..stdio..StdoutRaw$u20$as$u20$std..io..Write$GT$14write_vectored17h820c5dfe52b6cdbbE', symObjAddr: 0x258BC, symBinAddr: 0x10004532C, symSize: 0x100 }
  - { offset: 0x8D4FB, size: 0x8, addend: 0x0, symName: '__ZN60_$LT$std..io..stdio..StdoutRaw$u20$as$u20$std..io..Write$GT$9write_all17hf87f9c7cee071567E', symObjAddr: 0x259BC, symBinAddr: 0x10004542C, symSize: 0xB8 }
  - { offset: 0x8D637, size: 0x8, addend: 0x0, symName: '__ZN60_$LT$std..io..stdio..StdoutRaw$u20$as$u20$std..io..Write$GT$18write_all_vectored17h5d9248b4edae636aE', symObjAddr: 0x25A74, symBinAddr: 0x1000454E4, symSize: 0x1CC }
  - { offset: 0x8D93F, size: 0x8, addend: 0x0, symName: '__ZN60_$LT$std..io..stdio..StdoutRaw$u20$as$u20$std..io..Write$GT$9write_fmt17hb957db6ba19087cbE', symObjAddr: 0x25C40, symBinAddr: 0x1000456B0, symSize: 0x134 }
  - { offset: 0x8DBB0, size: 0x8, addend: 0x0, symName: '__ZN60_$LT$std..io..stdio..StderrRaw$u20$as$u20$std..io..Write$GT$5write17h85aaae0f35548c00E', symObjAddr: 0x25D74, symBinAddr: 0x1000457E4, symSize: 0x7C }
  - { offset: 0x8DCC3, size: 0x8, addend: 0x0, symName: '__ZN60_$LT$std..io..stdio..StderrRaw$u20$as$u20$std..io..Write$GT$14write_vectored17hd78174db8fc147a4E', symObjAddr: 0x25DF0, symBinAddr: 0x100045860, symSize: 0x100 }
  - { offset: 0x8DE15, size: 0x8, addend: 0x0, symName: '__ZN60_$LT$std..io..stdio..StderrRaw$u20$as$u20$std..io..Write$GT$5flush17h68ff36f973374809E', symObjAddr: 0x25EF0, symBinAddr: 0x100045960, symSize: 0x14 }
  - { offset: 0x8DE2F, size: 0x8, addend: 0x0, symName: '__ZN60_$LT$std..io..stdio..StderrRaw$u20$as$u20$std..io..Write$GT$9write_all17h9d5354f74368a8c1E', symObjAddr: 0x25F04, symBinAddr: 0x100045974, symSize: 0xB8 }
  - { offset: 0x8DF6B, size: 0x8, addend: 0x0, symName: '__ZN60_$LT$std..io..stdio..StderrRaw$u20$as$u20$std..io..Write$GT$18write_all_vectored17hd4d446d85c5d3c9aE', symObjAddr: 0x25FBC, symBinAddr: 0x100045A2C, symSize: 0x28 }
  - { offset: 0x8DF94, size: 0x8, addend: 0x0, symName: '__ZN60_$LT$std..io..stdio..StderrRaw$u20$as$u20$std..io..Write$GT$9write_fmt17h1f221e18c2a1037cE', symObjAddr: 0x25FE4, symBinAddr: 0x100045A54, symSize: 0x28 }
  - { offset: 0x8E005, size: 0x8, addend: 0x0, symName: __ZN3std2io5stdio5stdin17h35bb502fde595575E, symObjAddr: 0x2600C, symBinAddr: 0x100045A7C, symSize: 0x3C }
  - { offset: 0x8E03D, size: 0x8, addend: 0x0, symName: __ZN3std2io5stdio5stdin17h35bb502fde595575E, symObjAddr: 0x2600C, symBinAddr: 0x100045A7C, symSize: 0x3C }
  - { offset: 0x8E052, size: 0x8, addend: 0x0, symName: __ZN3std2io5stdio5stdin17h35bb502fde595575E, symObjAddr: 0x2600C, symBinAddr: 0x100045A7C, symSize: 0x3C }
  - { offset: 0x8E066, size: 0x8, addend: 0x0, symName: __ZN3std2io5stdio5stdin17h35bb502fde595575E, symObjAddr: 0x2600C, symBinAddr: 0x100045A7C, symSize: 0x3C }
  - { offset: 0x8E07B, size: 0x8, addend: 0x0, symName: __ZN3std2io5stdio5stdin17h35bb502fde595575E, symObjAddr: 0x2600C, symBinAddr: 0x100045A7C, symSize: 0x3C }
  - { offset: 0x8E090, size: 0x8, addend: 0x0, symName: __ZN3std2io5stdio5stdin17h35bb502fde595575E, symObjAddr: 0x2600C, symBinAddr: 0x100045A7C, symSize: 0x3C }
  - { offset: 0x8E0A4, size: 0x8, addend: 0x0, symName: __ZN3std2io5stdio5stdin17h35bb502fde595575E, symObjAddr: 0x2600C, symBinAddr: 0x100045A7C, symSize: 0x3C }
  - { offset: 0x8E0C3, size: 0x8, addend: 0x0, symName: __ZN3std2io5stdio5Stdin4lock17ha4e0539eb022067cE, symObjAddr: 0x26048, symBinAddr: 0x100045AB8, symSize: 0x68 }
  - { offset: 0x8E209, size: 0x8, addend: 0x0, symName: __ZN3std2io5stdio5Stdin9read_line17h0c6bd250cfaf5e45E, symObjAddr: 0x260B0, symBinAddr: 0x100045B20, symSize: 0x15C }
  - { offset: 0x8E68E, size: 0x8, addend: 0x0, symName: __ZN3std2io5stdio5Stdin5lines17h59cbd7fe24270455E, symObjAddr: 0x2620C, symBinAddr: 0x100045C7C, symSize: 0x68 }
  - { offset: 0x8E7EF, size: 0x8, addend: 0x0, symName: '__ZN62_$LT$std..io..stdio..StdinLock$u20$as$u20$std..io..BufRead$GT$8fill_buf17ha03984886177e0b8E', symObjAddr: 0x27698, symBinAddr: 0x100047108, symSize: 0xD0 }
  - { offset: 0x8EA03, size: 0x8, addend: 0x0, symName: '__ZN62_$LT$std..io..stdio..StdinLock$u20$as$u20$std..io..BufRead$GT$7consume17hac69548ccca8fcacE', symObjAddr: 0x27768, symBinAddr: 0x1000471D8, symSize: 0x28 }
  - { offset: 0x8EAA0, size: 0x8, addend: 0x0, symName: '__ZN62_$LT$std..io..stdio..StdinLock$u20$as$u20$std..io..BufRead$GT$10read_until17ha39fa5e38bb78c4cE', symObjAddr: 0x27790, symBinAddr: 0x100047200, symSize: 0x18 }
  - { offset: 0x8EAFC, size: 0x8, addend: 0x0, symName: '__ZN62_$LT$std..io..stdio..StdinLock$u20$as$u20$std..io..BufRead$GT$9read_line17h2dc1e74edb12761cE', symObjAddr: 0x277A8, symBinAddr: 0x100047218, symSize: 0xC0 }
  - { offset: 0x8ED28, size: 0x8, addend: 0x0, symName: '__ZN58_$LT$std..io..stdio..Stdin$u20$as$u20$core..fmt..Debug$GT$3fmt17h18506d32217dd156E', symObjAddr: 0x26274, symBinAddr: 0x100045CE4, symSize: 0x38 }
  - { offset: 0x8ED73, size: 0x8, addend: 0x0, symName: '__ZN59_$LT$std..io..stdio..StdinLock$u20$as$u20$std..io..Read$GT$4read17h6b490506125ae8cbE', symObjAddr: 0x26EF8, symBinAddr: 0x100046968, symSize: 0x18 }
  - { offset: 0x8EDB3, size: 0x8, addend: 0x0, symName: '__ZN59_$LT$std..io..stdio..StdinLock$u20$as$u20$std..io..Read$GT$8read_buf17h8f9b5467f999e3daE', symObjAddr: 0x26F10, symBinAddr: 0x100046980, symSize: 0x18 }
  - { offset: 0x8EDF3, size: 0x8, addend: 0x0, symName: '__ZN59_$LT$std..io..stdio..StdinLock$u20$as$u20$std..io..Read$GT$13read_vectored17hbc7d58e4612f164aE', symObjAddr: 0x26F28, symBinAddr: 0x100046998, symSize: 0x284 }
  - { offset: 0x8F308, size: 0x8, addend: 0x0, symName: '__ZN59_$LT$std..io..stdio..StdinLock$u20$as$u20$std..io..Read$GT$11read_to_end17h3e8246cdb665890bE', symObjAddr: 0x271AC, symBinAddr: 0x100046C1C, symSize: 0x18 }
  - { offset: 0x8F348, size: 0x8, addend: 0x0, symName: '__ZN59_$LT$std..io..stdio..StdinLock$u20$as$u20$std..io..Read$GT$14read_to_string17h654ac4f98cdc5becE', symObjAddr: 0x271C4, symBinAddr: 0x100046C34, symSize: 0x1B4 }
  - { offset: 0x8F8F9, size: 0x8, addend: 0x0, symName: '__ZN59_$LT$std..io..stdio..StdinLock$u20$as$u20$std..io..Read$GT$10read_exact17h7f1bef035b9584e8E', symObjAddr: 0x27378, symBinAddr: 0x100046DE8, symSize: 0x194 }
  - { offset: 0x8FCDC, size: 0x8, addend: 0x0, symName: '__ZN59_$LT$std..io..stdio..StdinLock$u20$as$u20$std..io..Read$GT$14read_buf_exact17h158cfdefe25dc32dE', symObjAddr: 0x2750C, symBinAddr: 0x100046F7C, symSize: 0x18C }
  - { offset: 0x901B1, size: 0x8, addend: 0x0, symName: '__ZN55_$LT$std..io..stdio..Stdin$u20$as$u20$std..io..Read$GT$4read17hee660d4ff490e299E', symObjAddr: 0x262AC, symBinAddr: 0x100045D1C, symSize: 0xF0 }
  - { offset: 0x90422, size: 0x8, addend: 0x0, symName: '__ZN55_$LT$std..io..stdio..Stdin$u20$as$u20$std..io..Read$GT$8read_buf17hae8d40d6ce62b485E', symObjAddr: 0x2639C, symBinAddr: 0x100045E0C, symSize: 0xD0 }
  - { offset: 0x90693, size: 0x8, addend: 0x0, symName: '__ZN55_$LT$std..io..stdio..Stdin$u20$as$u20$std..io..Read$GT$13read_vectored17hea240284dfd9c325E', symObjAddr: 0x2646C, symBinAddr: 0x100045EDC, symSize: 0xD8 }
  - { offset: 0x90900, size: 0x8, addend: 0x0, symName: '__ZN55_$LT$std..io..stdio..Stdin$u20$as$u20$std..io..Read$GT$11read_to_end17h3066023e07621165E', symObjAddr: 0x26544, symBinAddr: 0x100045FB4, symSize: 0xD8 }
  - { offset: 0x90BAE, size: 0x8, addend: 0x0, symName: '__ZN55_$LT$std..io..stdio..Stdin$u20$as$u20$std..io..Read$GT$14read_to_string17h84dedb3c483f10b6E', symObjAddr: 0x2661C, symBinAddr: 0x10004608C, symSize: 0xE8 }
  - { offset: 0x90E1B, size: 0x8, addend: 0x0, symName: '__ZN55_$LT$std..io..stdio..Stdin$u20$as$u20$std..io..Read$GT$10read_exact17h9bedca47acee2b71E', symObjAddr: 0x26704, symBinAddr: 0x100046174, symSize: 0xE8 }
  - { offset: 0x91088, size: 0x8, addend: 0x0, symName: '__ZN55_$LT$std..io..stdio..Stdin$u20$as$u20$std..io..Read$GT$14read_buf_exact17h87765d806fbabebaE', symObjAddr: 0x267EC, symBinAddr: 0x10004625C, symSize: 0xD8 }
  - { offset: 0x912FB, size: 0x8, addend: 0x0, symName: '__ZN59_$LT$$RF$std..io..stdio..Stdin$u20$as$u20$std..io..Read$GT$4read17hf096518c72d5cc56E', symObjAddr: 0x268C4, symBinAddr: 0x100046334, symSize: 0xF4 }
  - { offset: 0x9156C, size: 0x8, addend: 0x0, symName: '__ZN59_$LT$$RF$std..io..stdio..Stdin$u20$as$u20$std..io..Read$GT$8read_buf17he112e687fad55dd9E', symObjAddr: 0x269B8, symBinAddr: 0x100046428, symSize: 0xD4 }
  - { offset: 0x917DD, size: 0x8, addend: 0x0, symName: '__ZN59_$LT$$RF$std..io..stdio..Stdin$u20$as$u20$std..io..Read$GT$13read_vectored17hf7fb5277fb2e0819E', symObjAddr: 0x26A8C, symBinAddr: 0x1000464FC, symSize: 0xDC }
  - { offset: 0x91A4A, size: 0x8, addend: 0x0, symName: '__ZN59_$LT$$RF$std..io..stdio..Stdin$u20$as$u20$std..io..Read$GT$11read_to_end17h615809d91a599e28E', symObjAddr: 0x26B68, symBinAddr: 0x1000465D8, symSize: 0xDC }
  - { offset: 0x91CF8, size: 0x8, addend: 0x0, symName: '__ZN59_$LT$$RF$std..io..stdio..Stdin$u20$as$u20$std..io..Read$GT$14read_to_string17hbb05555b83851c99E', symObjAddr: 0x26C44, symBinAddr: 0x1000466B4, symSize: 0xEC }
  - { offset: 0x91F65, size: 0x8, addend: 0x0, symName: '__ZN59_$LT$$RF$std..io..stdio..Stdin$u20$as$u20$std..io..Read$GT$10read_exact17hfc3057923c143f9cE', symObjAddr: 0x26D30, symBinAddr: 0x1000467A0, symSize: 0xEC }
  - { offset: 0x921D2, size: 0x8, addend: 0x0, symName: '__ZN59_$LT$$RF$std..io..stdio..Stdin$u20$as$u20$std..io..Read$GT$14read_buf_exact17h518c2f93d17d5b8cE', symObjAddr: 0x26E1C, symBinAddr: 0x10004688C, symSize: 0xDC }
  - { offset: 0x92445, size: 0x8, addend: 0x0, symName: '__ZN62_$LT$std..io..stdio..StdinLock$u20$as$u20$core..fmt..Debug$GT$3fmt17he9ac930417d3455dE', symObjAddr: 0x27868, symBinAddr: 0x1000472D8, symSize: 0x38 }
  - { offset: 0x92461, size: 0x8, addend: 0x0, symName: __ZN3std2io5stdio6stdout17h0ff45a09ed3da47aE, symObjAddr: 0x278A0, symBinAddr: 0x100047310, symSize: 0x3C }
  - { offset: 0x92492, size: 0x8, addend: 0x0, symName: __ZN3std2io5stdio6stdout17h0ff45a09ed3da47aE, symObjAddr: 0x278A0, symBinAddr: 0x100047310, symSize: 0x3C }
  - { offset: 0x924A7, size: 0x8, addend: 0x0, symName: __ZN3std2io5stdio6stdout17h0ff45a09ed3da47aE, symObjAddr: 0x278A0, symBinAddr: 0x100047310, symSize: 0x3C }
  - { offset: 0x924BB, size: 0x8, addend: 0x0, symName: __ZN3std2io5stdio6stdout17h0ff45a09ed3da47aE, symObjAddr: 0x278A0, symBinAddr: 0x100047310, symSize: 0x3C }
  - { offset: 0x924D0, size: 0x8, addend: 0x0, symName: __ZN3std2io5stdio6stdout17h0ff45a09ed3da47aE, symObjAddr: 0x278A0, symBinAddr: 0x100047310, symSize: 0x3C }
  - { offset: 0x924E5, size: 0x8, addend: 0x0, symName: __ZN3std2io5stdio6stdout17h0ff45a09ed3da47aE, symObjAddr: 0x278A0, symBinAddr: 0x100047310, symSize: 0x3C }
  - { offset: 0x924F9, size: 0x8, addend: 0x0, symName: __ZN3std2io5stdio6stdout17h0ff45a09ed3da47aE, symObjAddr: 0x278A0, symBinAddr: 0x100047310, symSize: 0x3C }
  - { offset: 0x92518, size: 0x8, addend: 0x0, symName: '__ZN59_$LT$std..io..stdio..Stdout$u20$as$u20$core..fmt..Debug$GT$3fmt17h1e4064b9fefd85d1E', symObjAddr: 0x278DC, symBinAddr: 0x10004734C, symSize: 0x38 }
  - { offset: 0x92563, size: 0x8, addend: 0x0, symName: '__ZN61_$LT$$RF$std..io..stdio..Stdout$u20$as$u20$std..io..Write$GT$5write17h497d5ec05727f18eE', symObjAddr: 0x27B5C, symBinAddr: 0x1000475CC, symSize: 0xA8 }
  - { offset: 0x92750, size: 0x8, addend: 0x0, symName: '__ZN61_$LT$$RF$std..io..stdio..Stdout$u20$as$u20$std..io..Write$GT$14write_vectored17hede7d3936fce79b2E', symObjAddr: 0x27C04, symBinAddr: 0x100047674, symSize: 0xDC }
  - { offset: 0x92B7E, size: 0x8, addend: 0x0, symName: '__ZN61_$LT$$RF$std..io..stdio..Stdout$u20$as$u20$std..io..Write$GT$5flush17h0985c76f4a38abafE', symObjAddr: 0x27CE0, symBinAddr: 0x100047750, symSize: 0xBC }
  - { offset: 0x92FC1, size: 0x8, addend: 0x0, symName: '__ZN61_$LT$$RF$std..io..stdio..Stdout$u20$as$u20$std..io..Write$GT$9write_all17haa15cea697b461d7E', symObjAddr: 0x27D9C, symBinAddr: 0x10004780C, symSize: 0xA0 }
  - { offset: 0x931AE, size: 0x8, addend: 0x0, symName: '__ZN61_$LT$$RF$std..io..stdio..Stdout$u20$as$u20$std..io..Write$GT$18write_all_vectored17h939b3811c333e049E', symObjAddr: 0x27E3C, symBinAddr: 0x1000478AC, symSize: 0xA0 }
  - { offset: 0x9339B, size: 0x8, addend: 0x0, symName: '__ZN61_$LT$$RF$std..io..stdio..Stdout$u20$as$u20$std..io..Write$GT$9write_fmt17h952563a5eefc7f25E', symObjAddr: 0x27EDC, symBinAddr: 0x10004794C, symSize: 0x18C }
  - { offset: 0x937AD, size: 0x8, addend: 0x0, symName: '__ZN57_$LT$std..io..stdio..Stdout$u20$as$u20$std..io..Write$GT$5write17h35f6effde5df7a9cE', symObjAddr: 0x27914, symBinAddr: 0x100047384, symSize: 0xA4 }
  - { offset: 0x939AF, size: 0x8, addend: 0x0, symName: '__ZN57_$LT$std..io..stdio..Stdout$u20$as$u20$std..io..Write$GT$14write_vectored17he302611c0b728527E', symObjAddr: 0x279B8, symBinAddr: 0x100047428, symSize: 0x24 }
  - { offset: 0x939CA, size: 0x8, addend: 0x0, symName: '__ZN57_$LT$std..io..stdio..Stdout$u20$as$u20$std..io..Write$GT$5flush17h7d3e849ee1db19bcE', symObjAddr: 0x279DC, symBinAddr: 0x10004744C, symSize: 0x24 }
  - { offset: 0x939E5, size: 0x8, addend: 0x0, symName: '__ZN57_$LT$std..io..stdio..Stdout$u20$as$u20$std..io..Write$GT$9write_all17he35cb3e82310f3d6E', symObjAddr: 0x27A00, symBinAddr: 0x100047470, symSize: 0x9C }
  - { offset: 0x93BE7, size: 0x8, addend: 0x0, symName: '__ZN57_$LT$std..io..stdio..Stdout$u20$as$u20$std..io..Write$GT$18write_all_vectored17ha50c9e2cc6870a23E', symObjAddr: 0x27A9C, symBinAddr: 0x10004750C, symSize: 0x9C }
  - { offset: 0x93DE9, size: 0x8, addend: 0x0, symName: '__ZN57_$LT$std..io..stdio..Stdout$u20$as$u20$std..io..Write$GT$9write_fmt17h60fe04718020a3a8E', symObjAddr: 0x27B38, symBinAddr: 0x1000475A8, symSize: 0x24 }
  - { offset: 0x93E2D, size: 0x8, addend: 0x0, symName: '__ZN61_$LT$std..io..stdio..StdoutLock$u20$as$u20$std..io..Write$GT$5write17h8402da5d90828be8E', symObjAddr: 0x28068, symBinAddr: 0x100047AD8, symSize: 0x25C }
  - { offset: 0x94654, size: 0x8, addend: 0x0, symName: '__ZN61_$LT$std..io..stdio..StdoutLock$u20$as$u20$std..io..Write$GT$14write_vectored17h244e66b61a65bc86E', symObjAddr: 0x282C4, symBinAddr: 0x100047D34, symSize: 0x5C }
  - { offset: 0x948AA, size: 0x8, addend: 0x0, symName: '__ZN61_$LT$std..io..stdio..StdoutLock$u20$as$u20$std..io..Write$GT$5flush17hd24afb935d02ca55E', symObjAddr: 0x28320, symBinAddr: 0x100047D90, symSize: 0x5C }
  - { offset: 0x94B15, size: 0x8, addend: 0x0, symName: '__ZN61_$LT$std..io..stdio..StdoutLock$u20$as$u20$std..io..Write$GT$9write_all17h0b23f87059158e4bE', symObjAddr: 0x2837C, symBinAddr: 0x100047DEC, symSize: 0x258 }
  - { offset: 0x951CD, size: 0x8, addend: 0x0, symName: '__ZN61_$LT$std..io..stdio..StdoutLock$u20$as$u20$std..io..Write$GT$18write_all_vectored17h7c37768515a10ae7E', symObjAddr: 0x285D4, symBinAddr: 0x100048044, symSize: 0x2D8 }
  - { offset: 0x9588C, size: 0x8, addend: 0x0, symName: '__ZN63_$LT$std..io..stdio..StdoutLock$u20$as$u20$core..fmt..Debug$GT$3fmt17h14ce944173123ce0E', symObjAddr: 0x288AC, symBinAddr: 0x10004831C, symSize: 0x38 }
  - { offset: 0x958AD, size: 0x8, addend: 0x0, symName: __ZN3std2io5stdio6Stderr4lock17ha3df19dd37ed7051E, symObjAddr: 0x288E4, symBinAddr: 0x100048354, symSize: 0xF0 }
  - { offset: 0x95B2E, size: 0x8, addend: 0x0, symName: '__ZN59_$LT$std..io..stdio..Stderr$u20$as$u20$core..fmt..Debug$GT$3fmt17hd2de10d061b1a8a6E', symObjAddr: 0x289D4, symBinAddr: 0x100048444, symSize: 0x38 }
  - { offset: 0x95B4F, size: 0x8, addend: 0x0, symName: '__ZN57_$LT$std..io..stdio..Stderr$u20$as$u20$std..io..Write$GT$5write17h2900f0f33eff241eE', symObjAddr: 0x28A0C, symBinAddr: 0x10004847C, symSize: 0x24 }
  - { offset: 0x95B6A, size: 0x8, addend: 0x0, symName: '__ZN57_$LT$std..io..stdio..Stderr$u20$as$u20$std..io..Write$GT$14write_vectored17hde43835ab455c89bE', symObjAddr: 0x28A30, symBinAddr: 0x1000484A0, symSize: 0x24 }
  - { offset: 0x95B85, size: 0x8, addend: 0x0, symName: '__ZN57_$LT$std..io..stdio..Stderr$u20$as$u20$std..io..Write$GT$5flush17hea84fa6b8baec6e0E', symObjAddr: 0x28A54, symBinAddr: 0x1000484C4, symSize: 0x80 }
  - { offset: 0x95DE4, size: 0x8, addend: 0x0, symName: '__ZN57_$LT$std..io..stdio..Stderr$u20$as$u20$std..io..Write$GT$9write_all17h2469b814dd58888eE', symObjAddr: 0x28AD4, symBinAddr: 0x100048544, symSize: 0x9C }
  - { offset: 0x95FE6, size: 0x8, addend: 0x0, symName: '__ZN57_$LT$std..io..stdio..Stderr$u20$as$u20$std..io..Write$GT$18write_all_vectored17h832c413a2a233ae4E', symObjAddr: 0x28B70, symBinAddr: 0x1000485E0, symSize: 0x24 }
  - { offset: 0x96001, size: 0x8, addend: 0x0, symName: '__ZN57_$LT$std..io..stdio..Stderr$u20$as$u20$std..io..Write$GT$9write_fmt17h606a3fc755d6817aE', symObjAddr: 0x28B94, symBinAddr: 0x100048604, symSize: 0x24 }
  - { offset: 0x96045, size: 0x8, addend: 0x0, symName: '__ZN61_$LT$$RF$std..io..stdio..Stderr$u20$as$u20$std..io..Write$GT$5write17h357bbf13ec847584E', symObjAddr: 0x28BB8, symBinAddr: 0x100048628, symSize: 0x10C }
  - { offset: 0x96494, size: 0x8, addend: 0x0, symName: '__ZN61_$LT$$RF$std..io..stdio..Stderr$u20$as$u20$std..io..Write$GT$14write_vectored17h29a66d029dfa7cc5E', symObjAddr: 0x28CC4, symBinAddr: 0x100048734, symSize: 0x190 }
  - { offset: 0x96935, size: 0x8, addend: 0x0, symName: '__ZN61_$LT$$RF$std..io..stdio..Stderr$u20$as$u20$std..io..Write$GT$5flush17hd8877775a97ed460E', symObjAddr: 0x28E54, symBinAddr: 0x1000488C4, symSize: 0x84 }
  - { offset: 0x96B7F, size: 0x8, addend: 0x0, symName: '__ZN61_$LT$$RF$std..io..stdio..Stderr$u20$as$u20$std..io..Write$GT$9write_all17h30a49fac27e26b55E', symObjAddr: 0x28ED8, symBinAddr: 0x100048948, symSize: 0xA0 }
  - { offset: 0x96D6C, size: 0x8, addend: 0x0, symName: '__ZN61_$LT$$RF$std..io..stdio..Stderr$u20$as$u20$std..io..Write$GT$18write_all_vectored17h0331bbc9ec4046acE', symObjAddr: 0x28F78, symBinAddr: 0x1000489E8, symSize: 0xE4 }
  - { offset: 0x97192, size: 0x8, addend: 0x0, symName: '__ZN61_$LT$$RF$std..io..stdio..Stderr$u20$as$u20$std..io..Write$GT$9write_fmt17hb13653ece81c305cE', symObjAddr: 0x2905C, symBinAddr: 0x100048ACC, symSize: 0x18C }
  - { offset: 0x975DC, size: 0x8, addend: 0x0, symName: '__ZN61_$LT$std..io..stdio..StderrLock$u20$as$u20$std..io..Write$GT$5write17h8f94425c51e84efeE', symObjAddr: 0x291E8, symBinAddr: 0x100048C58, symSize: 0xA8 }
  - { offset: 0x9785B, size: 0x8, addend: 0x0, symName: '__ZN61_$LT$std..io..stdio..StderrLock$u20$as$u20$std..io..Write$GT$14write_vectored17h9746b7075a3a2496E', symObjAddr: 0x29290, symBinAddr: 0x100048D00, symSize: 0x134 }
  - { offset: 0x97B24, size: 0x8, addend: 0x0, symName: '__ZN61_$LT$std..io..stdio..StderrLock$u20$as$u20$std..io..Write$GT$5flush17h6c834dc523fc3904E', symObjAddr: 0x293C4, symBinAddr: 0x100048E34, symSize: 0x28 }
  - { offset: 0x97B3B, size: 0x8, addend: 0x0, symName: '__ZN61_$LT$std..io..stdio..StderrLock$u20$as$u20$std..io..Write$GT$5flush17h6c834dc523fc3904E', symObjAddr: 0x293C4, symBinAddr: 0x100048E34, symSize: 0x28 }
  - { offset: 0x97B9D, size: 0x8, addend: 0x0, symName: '__ZN61_$LT$std..io..stdio..StderrLock$u20$as$u20$std..io..Write$GT$9write_all17hbcb946b5e19e88f4E', symObjAddr: 0x293EC, symBinAddr: 0x100048E5C, symSize: 0x100 }
  - { offset: 0x97F05, size: 0x8, addend: 0x0, symName: '__ZN61_$LT$std..io..stdio..StderrLock$u20$as$u20$std..io..Write$GT$18write_all_vectored17haa5d8ae884b9acf4E', symObjAddr: 0x294EC, symBinAddr: 0x100048F5C, symSize: 0x6C }
  - { offset: 0x98161, size: 0x8, addend: 0x0, symName: '__ZN63_$LT$std..io..stdio..StderrLock$u20$as$u20$core..fmt..Debug$GT$3fmt17hc9ca1b7f8693b83eE', symObjAddr: 0x29558, symBinAddr: 0x100048FC8, symSize: 0x38 }
  - { offset: 0x981B8, size: 0x8, addend: 0x0, symName: __ZN3std2io5stdio18set_output_capture17hc31b5c53c6a020cfE, symObjAddr: 0x29590, symBinAddr: 0x100049000, symSize: 0x100 }
  - { offset: 0x98441, size: 0x8, addend: 0x0, symName: __ZN3std2io5stdio22try_set_output_capture17h6b911b9bf0ee8251E, symObjAddr: 0x29690, symBinAddr: 0x100049100, symSize: 0xF4 }
  - { offset: 0x986BF, size: 0x8, addend: 0x0, symName: __ZN3std2io5stdio31print_to_buffer_if_capture_used17h4f9af32139a0ca49E, symObjAddr: 0x29784, symBinAddr: 0x1000491F4, symSize: 0x208 }
  - { offset: 0x98DAF, size: 0x8, addend: 0x0, symName: __ZN3std2io5stdio23attempt_print_to_stderr17h594e6b3929eeb5c4E, symObjAddr: 0x2998C, symBinAddr: 0x1000493FC, symSize: 0xD0 }
  - { offset: 0x98FD8, size: 0x8, addend: 0x0, symName: __ZN3std2io5stdio6_print17h94312bde6bc5c430E, symObjAddr: 0x29A5C, symBinAddr: 0x1000494CC, symSize: 0xE4 }
  - { offset: 0x990DD, size: 0x8, addend: 0x0, symName: __ZN3std2io5stdio7_eprint17h3b10a1f297042c6eE, symObjAddr: 0x29B40, symBinAddr: 0x1000495B0, symSize: 0xC8 }
  - { offset: 0x9924E, size: 0x8, addend: 0x0, symName: '__ZN79_$LT$alloc..vec..Vec$LT$u8$GT$$u20$as$u20$std..io..copy..BufferedWriterSpec$GT$11buffer_size17h458740429d1fb006E', symObjAddr: 0x24C24, symBinAddr: 0x100044694, symSize: 0x28 }
  - { offset: 0x993CD, size: 0x8, addend: 0x0, symName: '__ZN55_$LT$std..io..util..Repeat$u20$as$u20$std..io..Read$GT$8read_buf17h5cf1d927af365ed9E', symObjAddr: 0x29C08, symBinAddr: 0x100049678, symSize: 0x4C }
  - { offset: 0x994D7, size: 0x8, addend: 0x0, symName: '__ZN55_$LT$std..io..util..Repeat$u20$as$u20$std..io..Read$GT$11read_to_end17h8b4c2a2d465b5e65E', symObjAddr: 0x29C54, symBinAddr: 0x1000496C4, symSize: 0x1C }
  - { offset: 0x994F7, size: 0x8, addend: 0x0, symName: '__ZN58_$LT$std..io..util..Repeat$u20$as$u20$core..fmt..Debug$GT$3fmt17h7ae86ecc3247476cE', symObjAddr: 0x29C70, symBinAddr: 0x1000496E0, symSize: 0x38 }
  - { offset: 0x99542, size: 0x8, addend: 0x0, symName: __ZN3std2io19default_read_to_end16small_probe_read17h386ab1740b8e088aE, symObjAddr: 0x2A3E8, symBinAddr: 0x100049E58, symSize: 0xE4 }
  - { offset: 0x99743, size: 0x8, addend: 0x0, symName: __ZN3std2io19default_read_to_end16small_probe_read17h9ec7c2c1befd2d15E, symObjAddr: 0x2A4CC, symBinAddr: 0x100049F3C, symSize: 0xF8 }
  - { offset: 0x99952, size: 0x8, addend: 0x0, symName: __ZN3std2io19default_read_to_end16small_probe_read17hab939eab7b17d624E, symObjAddr: 0x2A5C4, symBinAddr: 0x10004A034, symSize: 0xE4 }
  - { offset: 0x99B45, size: 0x8, addend: 0x0, symName: __ZN3std2io19default_read_to_end16small_probe_read17hca71644b21a9be15E, symObjAddr: 0x2A6A8, symBinAddr: 0x10004A118, symSize: 0xE0 }
  - { offset: 0x99D38, size: 0x8, addend: 0x0, symName: __ZN3std2io19default_read_to_end17h1c94036f1fd73146E, symObjAddr: 0x29CA8, symBinAddr: 0x100049718, symSize: 0x278 }
  - { offset: 0x9A1EB, size: 0x8, addend: 0x0, symName: __ZN3std2io19default_read_to_end17ha6aaeb748dd4b98aE, symObjAddr: 0x29F20, symBinAddr: 0x100049990, symSize: 0x274 }
  - { offset: 0x9A6AC, size: 0x8, addend: 0x0, symName: __ZN3std2io19default_read_to_end17hb1d63bc7815a760dE, symObjAddr: 0x2A194, symBinAddr: 0x100049C04, symSize: 0x254 }
  - { offset: 0x9AB55, size: 0x8, addend: 0x0, symName: '__ZN53_$LT$std..io..IoSlice$u20$as$u20$core..fmt..Debug$GT$3fmt17haee523fe3a266c7cE', symObjAddr: 0x2A788, symBinAddr: 0x10004A1F8, symSize: 0x70 }
  - { offset: 0x9AC14, size: 0x8, addend: 0x0, symName: __ZN3std2io10read_until17h982791ae7de37757E, symObjAddr: 0x2AEC4, symBinAddr: 0x10004A934, symSize: 0x574 }
  - { offset: 0x9B339, size: 0x8, addend: 0x0, symName: '__ZN3std4sync4once4Once15call_once_force28_$u7b$$u7b$closure$u7d$$u7d$17h1fae7beff65a3bbcE', symObjAddr: 0x344FC, symBinAddr: 0x100053E10, symSize: 0x60 }
  - { offset: 0x9B41B, size: 0x8, addend: 0x0, symName: '__ZN3std4sync4once4Once15call_once_force28_$u7b$$u7b$closure$u7d$$u7d$17hd0e01547106cd689E', symObjAddr: 0x3455C, symBinAddr: 0x100053E70, symSize: 0x74 }
  - { offset: 0x9B567, size: 0x8, addend: 0x0, symName: '__ZN3std4sync4once4Once15call_once_force28_$u7b$$u7b$closure$u7d$$u7d$17hd99e267cf82614efE', symObjAddr: 0x345D0, symBinAddr: 0x100053EE4, symSize: 0x78 }
  - { offset: 0x9B6D5, size: 0x8, addend: 0x0, symName: '__ZN3std4sync4once4Once9call_once28_$u7b$$u7b$closure$u7d$$u7d$17h01e395b24de1ff34E', symObjAddr: 0x3411C, symBinAddr: 0x100053A30, symSize: 0x25C }
  - { offset: 0x9BEBE, size: 0x8, addend: 0x0, symName: '__ZN3std4sync4once4Once9call_once28_$u7b$$u7b$closure$u7d$$u7d$17h580b4a612321d029E', symObjAddr: 0x34378, symBinAddr: 0x100053C8C, symSize: 0x184 }
  - { offset: 0x9C28F, size: 0x8, addend: 0x0, symName: __ZN3std4sync4once4Once4wait17h853937f230b1a179E, symObjAddr: 0x34648, symBinAddr: 0x100053F5C, symSize: 0x30 }
  - { offset: 0x9C2EB, size: 0x8, addend: 0x0, symName: __ZN3std4sync4once4Once10wait_force17hd1bbbb9d1ad25da9E, symObjAddr: 0x34678, symBinAddr: 0x100053F8C, symSize: 0x30 }
  - { offset: 0x9C374, size: 0x8, addend: 0x0, symName: '__ZN58_$LT$std..sync..once..Once$u20$as$u20$core..fmt..Debug$GT$3fmt17h32e1042471657d90E', symObjAddr: 0x346A8, symBinAddr: 0x100053FBC, symSize: 0x38 }
  - { offset: 0x9C3A9, size: 0x8, addend: 0x0, symName: '__ZN63_$LT$std..sync..once..OnceState$u20$as$u20$core..fmt..Debug$GT$3fmt17h48204d1cbbc32447E', symObjAddr: 0x346E0, symBinAddr: 0x100053FF4, symSize: 0x6C }
  - { offset: 0x9C4EC, size: 0x8, addend: 0x0, symName: '__ZN3std4sync9once_lock17OnceLock$LT$T$GT$10initialize17h464bd6847401a71eE', symObjAddr: 0x3474C, symBinAddr: 0x1000A85C8, symSize: 0x68 }
  - { offset: 0x9C517, size: 0x8, addend: 0x0, symName: '__ZN3std4sync9once_lock17OnceLock$LT$T$GT$10initialize17h464bd6847401a71eE', symObjAddr: 0x3474C, symBinAddr: 0x1000A85C8, symSize: 0x68 }
  - { offset: 0x9C52B, size: 0x8, addend: 0x0, symName: '__ZN3std4sync9once_lock17OnceLock$LT$T$GT$10initialize17h464bd6847401a71eE', symObjAddr: 0x3474C, symBinAddr: 0x1000A85C8, symSize: 0x68 }
  - { offset: 0x9C53F, size: 0x8, addend: 0x0, symName: '__ZN3std4sync9once_lock17OnceLock$LT$T$GT$10initialize17h464bd6847401a71eE', symObjAddr: 0x3474C, symBinAddr: 0x1000A85C8, symSize: 0x68 }
  - { offset: 0x9C555, size: 0x8, addend: 0x0, symName: '__ZN3std4sync9once_lock17OnceLock$LT$T$GT$10initialize17h4d2568abbe28249dE', symObjAddr: 0x347B4, symBinAddr: 0x1000A8630, symSize: 0x5C }
  - { offset: 0x9C580, size: 0x8, addend: 0x0, symName: '__ZN3std4sync9once_lock17OnceLock$LT$T$GT$10initialize17h4d2568abbe28249dE', symObjAddr: 0x347B4, symBinAddr: 0x1000A8630, symSize: 0x5C }
  - { offset: 0x9C594, size: 0x8, addend: 0x0, symName: '__ZN3std4sync9once_lock17OnceLock$LT$T$GT$10initialize17h4d2568abbe28249dE', symObjAddr: 0x347B4, symBinAddr: 0x1000A8630, symSize: 0x5C }
  - { offset: 0x9C5A8, size: 0x8, addend: 0x0, symName: '__ZN3std4sync9once_lock17OnceLock$LT$T$GT$10initialize17h4d2568abbe28249dE', symObjAddr: 0x347B4, symBinAddr: 0x1000A8630, symSize: 0x5C }
  - { offset: 0x9C5BE, size: 0x8, addend: 0x0, symName: '__ZN3std4sync9once_lock17OnceLock$LT$T$GT$10initialize17h6fce188f1418e336E', symObjAddr: 0x34810, symBinAddr: 0x1000A868C, symSize: 0x64 }
  - { offset: 0x9C5E9, size: 0x8, addend: 0x0, symName: '__ZN3std4sync9once_lock17OnceLock$LT$T$GT$10initialize17h6fce188f1418e336E', symObjAddr: 0x34810, symBinAddr: 0x1000A868C, symSize: 0x64 }
  - { offset: 0x9C5FD, size: 0x8, addend: 0x0, symName: '__ZN3std4sync9once_lock17OnceLock$LT$T$GT$10initialize17h6fce188f1418e336E', symObjAddr: 0x34810, symBinAddr: 0x1000A868C, symSize: 0x64 }
  - { offset: 0x9C611, size: 0x8, addend: 0x0, symName: '__ZN3std4sync9once_lock17OnceLock$LT$T$GT$10initialize17h6fce188f1418e336E', symObjAddr: 0x34810, symBinAddr: 0x1000A868C, symSize: 0x64 }
  - { offset: 0x9C7FA, size: 0x8, addend: 0x0, symName: '__ZN76_$LT$std..sync..poison..PoisonError$LT$T$GT$$u20$as$u20$core..fmt..Debug$GT$3fmt17hd2b6c279d37da147E', symObjAddr: 0x34874, symBinAddr: 0x100054060, symSize: 0x38 }
  - { offset: 0x9C9EE, size: 0x8, addend: 0x0, symName: '__ZN3std4sync6rwlock15RwLock$LT$T$GT$5write17h42d42809d61a12b0E', symObjAddr: 0x348AC, symBinAddr: 0x100054098, symSize: 0x27C }
  - { offset: 0x9D0D7, size: 0x8, addend: 0x0, symName: '__ZN3std4sync6rwlock15RwLock$LT$T$GT$5write17h9e5b35da47515648E', symObjAddr: 0x34B28, symBinAddr: 0x100054314, symSize: 0x27C }
  - { offset: 0x9D884, size: 0x8, addend: 0x0, symName: __ZN3std4sync9lazy_lock14panic_poisoned17h3fefc2b38bd2f68dE, symObjAddr: 0x340E4, symBinAddr: 0x1000A8590, symSize: 0x38 }
  - { offset: 0x9D90F, size: 0x8, addend: 0x0, symName: __ZN3std4sync4mpmc7context7Context3new17hfd86d24701898f2bE, symObjAddr: 0x33B6C, symBinAddr: 0x1000A8478, symSize: 0x118 }
  - { offset: 0x9DC2A, size: 0x8, addend: 0x0, symName: '__ZN69_$LT$std..sync..mpmc..zero..ZeroToken$u20$as$u20$core..fmt..Debug$GT$3fmt17h40fecd985b6d58beE', symObjAddr: 0x33C84, symBinAddr: 0x1000535D0, symSize: 0x48 }
  - { offset: 0x9DC7B, size: 0x8, addend: 0x0, symName: '__ZN65_$LT$std..sync..mpsc..RecvError$u20$as$u20$core..fmt..Display$GT$3fmt17h0611be049a7ab45fE', symObjAddr: 0x33CCC, symBinAddr: 0x100053618, symSize: 0x20 }
  - { offset: 0x9DC9C, size: 0x8, addend: 0x0, symName: '__ZN68_$LT$std..sync..mpsc..TryRecvError$u20$as$u20$core..fmt..Display$GT$3fmt17h01ac5d8d3ebfb131E', symObjAddr: 0x33CEC, symBinAddr: 0x100053638, symSize: 0x34 }
  - { offset: 0x9DCBD, size: 0x8, addend: 0x0, symName: '__ZN72_$LT$std..sync..mpsc..RecvTimeoutError$u20$as$u20$core..fmt..Display$GT$3fmt17h57526246445363e6E', symObjAddr: 0x33D20, symBinAddr: 0x10005366C, symSize: 0x3C }
  - { offset: 0x9DCE4, size: 0x8, addend: 0x0, symName: '__ZN64_$LT$std..sync..barrier..Barrier$u20$as$u20$core..fmt..Debug$GT$3fmt17h83f7039af54b043dE', symObjAddr: 0x33D5C, symBinAddr: 0x1000536A8, symSize: 0x38 }
  - { offset: 0x9DD04, size: 0x8, addend: 0x0, symName: __ZN3std4sync7barrier7Barrier4wait17h7bb201eede0366f0E, symObjAddr: 0x33D94, symBinAddr: 0x1000536E0, symSize: 0x25C }
  - { offset: 0x9E1EA, size: 0x8, addend: 0x0, symName: '__ZN74_$LT$std..sync..barrier..BarrierWaitResult$u20$as$u20$core..fmt..Debug$GT$3fmt17h5f66b4ac48c612a3E', symObjAddr: 0x33FF0, symBinAddr: 0x10005393C, symSize: 0x6C }
  - { offset: 0x9E24D, size: 0x8, addend: 0x0, symName: __ZN3std4sync7condvar7Condvar10notify_one17ha0ac0fdae85b7983E, symObjAddr: 0x3405C, symBinAddr: 0x1000539A8, symSize: 0x28 }
  - { offset: 0x9E2D7, size: 0x8, addend: 0x0, symName: __ZN3std4sync7condvar7Condvar10notify_all17hb55b71d932674f22E, symObjAddr: 0x34084, symBinAddr: 0x1000539D0, symSize: 0x28 }
  - { offset: 0x9E360, size: 0x8, addend: 0x0, symName: '__ZN64_$LT$std..sync..condvar..Condvar$u20$as$u20$core..fmt..Debug$GT$3fmt17hdbf6bf0d11d5c3b1E', symObjAddr: 0x340AC, symBinAddr: 0x1000539F8, symSize: 0x38 }
  - { offset: 0x9E3B8, size: 0x8, addend: 0x0, symName: '__ZN64_$LT$std..backtrace..Backtrace$u20$as$u20$core..fmt..Display$GT$3fmt17h34ba4a73f9b932c0E', symObjAddr: 0x1FDE4, symBinAddr: 0x10003FA6C, symSize: 0x444 }
  - { offset: 0x9EBE4, size: 0x8, addend: 0x0, symName: '__ZN62_$LT$std..backtrace..Backtrace$u20$as$u20$core..fmt..Debug$GT$3fmt17hb7ca1fda4f31ed32E', symObjAddr: 0x1F2E4, symBinAddr: 0x10003EF6C, symSize: 0x1BC }
  - { offset: 0x9EDCC, size: 0x8, addend: 0x0, symName: '__ZN67_$LT$std..backtrace..BacktraceFrame$u20$as$u20$core..fmt..Debug$GT$3fmt17h77df4084bdfe2585E', symObjAddr: 0x1F4A0, symBinAddr: 0x10003F128, symSize: 0x80 }
  - { offset: 0x9EE6E, size: 0x8, addend: 0x0, symName: '__ZN68_$LT$std..backtrace..BacktraceSymbol$u20$as$u20$core..fmt..Debug$GT$3fmt17h3cfe3162cca7580dE', symObjAddr: 0x1F520, symBinAddr: 0x10003F1A8, symSize: 0x238 }
  - { offset: 0x9F06F, size: 0x8, addend: 0x0, symName: '__ZN64_$LT$std..backtrace..BytesOrWide$u20$as$u20$core..fmt..Debug$GT$3fmt17hb204a5ba8ec64a11E', symObjAddr: 0x1F758, symBinAddr: 0x10003F3E0, symSize: 0x120 }
  - { offset: 0x9F351, size: 0x8, addend: 0x0, symName: __ZN3std9backtrace9Backtrace7capture17hea28902c4f4acc3cE, symObjAddr: 0x1F878, symBinAddr: 0x10003F500, symSize: 0x228 }
  - { offset: 0x9F83B, size: 0x8, addend: 0x0, symName: __ZN3std9backtrace9Backtrace13force_capture17ha7ad4b3424b65288E, symObjAddr: 0x1FAA0, symBinAddr: 0x10003F728, symSize: 0x1C }
  - { offset: 0x9F856, size: 0x8, addend: 0x0, symName: __ZN3std9backtrace9Backtrace6create17h246802f9febf9dabE, symObjAddr: 0x1FABC, symBinAddr: 0x10003F744, symSize: 0x150 }
  - { offset: 0x9FBCF, size: 0x8, addend: 0x0, symName: __ZN3std9backtrace9Backtrace6frames17h2a3f6fd2314cd488E, symObjAddr: 0x1FD54, symBinAddr: 0x10003F9DC, symSize: 0x90 }
  - { offset: 0x9FCB2, size: 0x8, addend: 0x0, symName: '__ZN3std9backtrace9Backtrace6create28_$u7b$$u7b$closure$u7d$$u7d$17ha082505f2d9d0708E', symObjAddr: 0x1FC0C, symBinAddr: 0x10003F894, symSize: 0x148 }
  - { offset: 0x9FE90, size: 0x8, addend: 0x0, symName: '__ZN3std9backtrace6helper12lazy_resolve28_$u7b$$u7b$closure$u7d$$u7d$28_$u7b$$u7b$closure$u7d$$u7d$17h749c946dd8de5153E', symObjAddr: 0x20228, symBinAddr: 0x10003FEB0, symSize: 0x200 }
  - { offset: 0xA037A, size: 0x8, addend: 0x0, symName: __ZN3std9panicking11panic_count8increase17hd263eb8da2264c90E, symObjAddr: 0x3838C, symBinAddr: 0x1000573C8, symSize: 0x80 }
  - { offset: 0xA045D, size: 0x8, addend: 0x0, symName: __ZN3std9panicking11panic_count19finished_panic_hook17hd443de22c0d44e15E, symObjAddr: 0x3840C, symBinAddr: 0x100057448, symSize: 0x24 }
  - { offset: 0xA050B, size: 0x8, addend: 0x0, symName: __ZN3std9panicking11panic_count8decrease17hb5437bf9038348c9E, symObjAddr: 0x38430, symBinAddr: 0x10005746C, symSize: 0x50 }
  - { offset: 0xA05F9, size: 0x8, addend: 0x0, symName: __ZN3std9panicking11panic_count9get_count17h5ec086d3ad2d1f92E, symObjAddr: 0x38480, symBinAddr: 0x1000574BC, symSize: 0x24 }
  - { offset: 0xA064D, size: 0x8, addend: 0x0, symName: __ZN3std9panicking11panic_count17is_zero_slow_path17h1754b5b62a0b9f50E, symObjAddr: 0x384A4, symBinAddr: 0x1000A8EA0, symSize: 0x2C }
  - { offset: 0xA0758, size: 0x8, addend: 0x0, symName: __ZN3std9panicking3try7cleanup17haf3305050ca6c30fE, symObjAddr: 0x384D0, symBinAddr: 0x1000A8ECC, symSize: 0x54 }
  - { offset: 0xA08B1, size: 0x8, addend: 0x0, symName: ___rust_drop_panic, symObjAddr: 0x37BAC, symBinAddr: 0x100056BE8, symSize: 0xB8 }
  - { offset: 0xA0AA2, size: 0x8, addend: 0x0, symName: ___rust_foreign_exception, symObjAddr: 0x37C64, symBinAddr: 0x100056CA0, symSize: 0xB8 }
  - { offset: 0xA0CA1, size: 0x8, addend: 0x0, symName: __ZN3std9panicking8set_hook17h5e3698ab236d7613E, symObjAddr: 0x37D1C, symBinAddr: 0x100056D58, symSize: 0x198 }
  - { offset: 0xA1023, size: 0x8, addend: 0x0, symName: __ZN3std9panicking9take_hook17he7e7f6d1a3970e3bE, symObjAddr: 0x37EB4, symBinAddr: 0x100056EF0, symSize: 0x114 }
  - { offset: 0xA12C1, size: 0x8, addend: 0x0, symName: '__ZN3std9panicking12default_hook28_$u7b$$u7b$closure$u7d$$u7d$17h369c7295ef58c5b1E', symObjAddr: 0x38230, symBinAddr: 0x10005726C, symSize: 0x15C }
  - { offset: 0xA135C, size: 0x8, addend: 0x0, symName: __ZN3std9panicking12default_hook17h50746358288a9d6aE, symObjAddr: 0x37FC8, symBinAddr: 0x100057004, symSize: 0x268 }
  - { offset: 0xA1735, size: 0x8, addend: 0x0, symName: _rust_begin_unwind, symObjAddr: 0x38524, symBinAddr: 0x1000574E0, symSize: 0x20 }
  - { offset: 0xA179E, size: 0x8, addend: 0x0, symName: '__ZN102_$LT$std..panicking..begin_panic_handler..FormatStringPayload$u20$as$u20$core..panic..PanicPayload$GT$8take_box17h2acdf661b618a275E', symObjAddr: 0x38544, symBinAddr: 0x100057500, symSize: 0x110 }
  - { offset: 0xA1A30, size: 0x8, addend: 0x0, symName: '__ZN102_$LT$std..panicking..begin_panic_handler..FormatStringPayload$u20$as$u20$core..panic..PanicPayload$GT$3get17h2b54113a97f90f6bE', symObjAddr: 0x38654, symBinAddr: 0x100057610, symSize: 0xB0 }
  - { offset: 0xA1B67, size: 0x8, addend: 0x0, symName: '__ZN95_$LT$std..panicking..begin_panic_handler..FormatStringPayload$u20$as$u20$core..fmt..Display$GT$3fmt17hac3be7a2cb724666E', symObjAddr: 0x38704, symBinAddr: 0x1000576C0, symSize: 0x5C }
  - { offset: 0xA1C62, size: 0x8, addend: 0x0, symName: '__ZN99_$LT$std..panicking..begin_panic_handler..StaticStrPayload$u20$as$u20$core..panic..PanicPayload$GT$8take_box17hcb24f453260bcf12E', symObjAddr: 0x38760, symBinAddr: 0x10005771C, symSize: 0x50 }
  - { offset: 0xA1CD9, size: 0x8, addend: 0x0, symName: '__ZN99_$LT$std..panicking..begin_panic_handler..StaticStrPayload$u20$as$u20$core..panic..PanicPayload$GT$3get17hda0e5aec36f6a39eE', symObjAddr: 0x387B0, symBinAddr: 0x10005776C, symSize: 0x18 }
  - { offset: 0xA1CF4, size: 0x8, addend: 0x0, symName: '__ZN99_$LT$std..panicking..begin_panic_handler..StaticStrPayload$u20$as$u20$core..panic..PanicPayload$GT$6as_str17h074c1a2d7e0372ceE', symObjAddr: 0x387C8, symBinAddr: 0x100057784, symSize: 0x18 }
  - { offset: 0xA1D15, size: 0x8, addend: 0x0, symName: '__ZN92_$LT$std..panicking..begin_panic_handler..StaticStrPayload$u20$as$u20$core..fmt..Display$GT$3fmt17h34b3827fbb54675fE', symObjAddr: 0x387E0, symBinAddr: 0x10005779C, symSize: 0x1C }
  - { offset: 0xA1D31, size: 0x8, addend: 0x0, symName: '__ZN3std9panicking19begin_panic_handler28_$u7b$$u7b$closure$u7d$$u7d$17h36f15310ecbde379E', symObjAddr: 0x387FC, symBinAddr: 0x1000577B8, symSize: 0xC4 }
  - { offset: 0xA1E89, size: 0x8, addend: 0x0, symName: __ZN3std9panicking14payload_as_str17hd572ab7b51c466f5E, symObjAddr: 0x388C0, symBinAddr: 0x10005787C, symSize: 0xB0 }
  - { offset: 0xA1F74, size: 0x8, addend: 0x0, symName: __ZN3std9panicking20rust_panic_with_hook17h7d795911432661cbE, symObjAddr: 0x38970, symBinAddr: 0x10005792C, symSize: 0x3E0 }
  - { offset: 0xA277D, size: 0x8, addend: 0x0, symName: __ZN3std9panicking23rust_panic_without_hook17ha5b359e245c580f7E, symObjAddr: 0x38D50, symBinAddr: 0x100057D0C, symSize: 0xD4 }
  - { offset: 0xA298D, size: 0x8, addend: 0x0, symName: '__ZN96_$LT$std..panicking..rust_panic_without_hook..RewrapBox$u20$as$u20$core..panic..PanicPayload$GT$8take_box17he6bc60a3f1ab3c3aE', symObjAddr: 0x38E24, symBinAddr: 0x100057DE0, symSize: 0x28 }
  - { offset: 0xA29E9, size: 0x8, addend: 0x0, symName: '__ZN96_$LT$std..panicking..rust_panic_without_hook..RewrapBox$u20$as$u20$core..panic..PanicPayload$GT$3get17h3dde59947af94813E', symObjAddr: 0x38E4C, symBinAddr: 0x100057E08, symSize: 0x18 }
  - { offset: 0xA2A0A, size: 0x8, addend: 0x0, symName: '__ZN89_$LT$std..panicking..rust_panic_without_hook..RewrapBox$u20$as$u20$core..fmt..Display$GT$3fmt17h61764bbd3fa97782E', symObjAddr: 0x38E64, symBinAddr: 0x100057E20, symSize: 0x20 }
  - { offset: 0xA2A27, size: 0x8, addend: 0x0, symName: _rust_panic, symObjAddr: 0x38E84, symBinAddr: 0x100057E40, symSize: 0x60 }
  - { offset: 0xA2A88, size: 0x8, addend: 0x0, symName: '__ZN65_$LT$std..thread..PanicGuard$u20$as$u20$core..ops..drop..Drop$GT$4drop17h01b1c82d48337678E', symObjAddr: 0x1EBF0, symBinAddr: 0x10003E8B0, symSize: 0x44 }
  - { offset: 0xA2B86, size: 0x8, addend: 0x0, symName: __ZN3std6thread7current11set_current17h26730749f582d83eE, symObjAddr: 0x1E600, symBinAddr: 0x10003E43C, symSize: 0xC0 }
  - { offset: 0xA2D81, size: 0x8, addend: 0x0, symName: __ZN3std6thread7current7current17h896b10c04da969afE, symObjAddr: 0x1E6C0, symBinAddr: 0x10003E4FC, symSize: 0x48 }
  - { offset: 0xA2E7F, size: 0x8, addend: 0x0, symName: __ZN3std6thread7current12init_current17hb65b9a11bbbdf9e3E, symObjAddr: 0x1E708, symBinAddr: 0x1000A80A0, symSize: 0x17C }
  - { offset: 0xA328F, size: 0x8, addend: 0x0, symName: __ZN3std6thread6Thread3new17hc05f91f44174434dE, symObjAddr: 0x1EFE8, symBinAddr: 0x10003EC70, symSize: 0x44 }
  - { offset: 0xA32C0, size: 0x8, addend: 0x0, symName: __ZN3std6thread6Thread11new_unnamed17h46ffa4bb6dfdc1ddE, symObjAddr: 0x1F02C, symBinAddr: 0x10003ECB4, symSize: 0x28 }
  - { offset: 0xA32D4, size: 0x8, addend: 0x0, symName: __ZN3std6thread6Thread9new_inner17hf72df5a662df1b9dE, symObjAddr: 0x1F054, symBinAddr: 0x10003ECDC, symSize: 0x128 }
  - { offset: 0xA347A, size: 0x8, addend: 0x0, symName: __ZN3std6thread6Thread4name17hb5fa340d9c51efbdE, symObjAddr: 0x1F17C, symBinAddr: 0x10003EE04, symSize: 0x44 }
  - { offset: 0xA35AA, size: 0x8, addend: 0x0, symName: __ZN3std6thread6Thread8from_raw17h86dd6fea40f25dccE, symObjAddr: 0x1F1C0, symBinAddr: 0x10003EE48, symSize: 0x14 }
  - { offset: 0xA36AE, size: 0x8, addend: 0x0, symName: __ZN3std6thread8ThreadId3new17h66c9df3cc4e4f85eE, symObjAddr: 0x1EE70, symBinAddr: 0x10003EB30, symSize: 0x44 }
  - { offset: 0xA3871, size: 0x8, addend: 0x0, symName: '__ZN68_$LT$std..thread..local..AccessError$u20$as$u20$core..fmt..Debug$GT$3fmt17h89270534121e4544E', symObjAddr: 0x1E884, symBinAddr: 0x10003E544, symSize: 0x38 }
  - { offset: 0xA3891, size: 0x8, addend: 0x0, symName: '__ZN70_$LT$std..thread..local..AccessError$u20$as$u20$core..fmt..Display$GT$3fmt17ha850e949e998920bE', symObjAddr: 0x1E8BC, symBinAddr: 0x10003E57C, symSize: 0x20 }
  - { offset: 0xA38B7, size: 0x8, addend: 0x0, symName: __ZN3std6thread6scoped9ScopeData29increment_num_running_threads17h9245c33c42a37f43E, symObjAddr: 0x1E494, symBinAddr: 0x10003E310, symSize: 0x20 }
  - { offset: 0xA38D4, size: 0x8, addend: 0x0, symName: __ZN3std6thread6scoped9ScopeData29increment_num_running_threads17h9245c33c42a37f43E, symObjAddr: 0x1E494, symBinAddr: 0x10003E310, symSize: 0x20 }
  - { offset: 0xA38E8, size: 0x8, addend: 0x0, symName: __ZN3std6thread6scoped9ScopeData29increment_num_running_threads17h9245c33c42a37f43E, symObjAddr: 0x1E494, symBinAddr: 0x10003E310, symSize: 0x20 }
  - { offset: 0xA3911, size: 0x8, addend: 0x0, symName: __ZN3std6thread6scoped9ScopeData8overflow17h55db1e4a96da87caE, symObjAddr: 0x1E4B4, symBinAddr: 0x1000A8060, symSize: 0x40 }
  - { offset: 0xA3940, size: 0x8, addend: 0x0, symName: __ZN3std6thread6scoped9ScopeData29decrement_num_running_threads17h2d7e1d415b2ceb7bE, symObjAddr: 0x1E4F4, symBinAddr: 0x10003E330, symSize: 0x54 }
  - { offset: 0xA3A7B, size: 0x8, addend: 0x0, symName: '__ZN63_$LT$std..thread..scoped..Scope$u20$as$u20$core..fmt..Debug$GT$3fmt17h4d5047d45b4be1faE', symObjAddr: 0x1E548, symBinAddr: 0x10003E384, symSize: 0xB8 }
  - { offset: 0xA3B35, size: 0x8, addend: 0x0, symName: __ZN3std6thread7Builder4name17h3362893559363d68E, symObjAddr: 0x1E8DC, symBinAddr: 0x10003E59C, symSize: 0x84 }
  - { offset: 0xA3BF9, size: 0x8, addend: 0x0, symName: __ZN3std6thread9yield_now17h8f11521876bfad4fE, symObjAddr: 0x1E960, symBinAddr: 0x10003E620, symSize: 0x10 }
  - { offset: 0xA3C38, size: 0x8, addend: 0x0, symName: __ZN3std6thread8sleep_ms17hf22ab6c4065ffcebE, symObjAddr: 0x1E970, symBinAddr: 0x10003E630, symSize: 0xDC }
  - { offset: 0xA3CD4, size: 0x8, addend: 0x0, symName: __ZN3std6thread5sleep17h21989ec8c2760d2cE, symObjAddr: 0x1EA4C, symBinAddr: 0x10003E70C, symSize: 0xB8 }
  - { offset: 0xA3D4D, size: 0x8, addend: 0x0, symName: __ZN3std6thread11sleep_until17h46c0a8e26059e6a1E, symObjAddr: 0x1EB04, symBinAddr: 0x10003E7C4, symSize: 0xEC }
  - { offset: 0xA3E47, size: 0x8, addend: 0x0, symName: __ZN3std6thread4park17hdc05006252eed214E, symObjAddr: 0x1EC34, symBinAddr: 0x10003E8F4, symSize: 0xE0 }
  - { offset: 0xA405E, size: 0x8, addend: 0x0, symName: __ZN3std6thread15park_timeout_ms17ha20d2980165f7b42E, symObjAddr: 0x1ED14, symBinAddr: 0x10003E9D4, symSize: 0x38 }
  - { offset: 0xA408F, size: 0x8, addend: 0x0, symName: __ZN3std6thread12park_timeout17ha4f33bc649fef25bE, symObjAddr: 0x1ED4C, symBinAddr: 0x10003EA0C, symSize: 0x124 }
  - { offset: 0xA4325, size: 0x8, addend: 0x0, symName: __ZN3std6thread8ThreadId3new9exhausted17hb461b008978f84c2E, symObjAddr: 0x1EEB4, symBinAddr: 0x1000A821C, symSize: 0x38 }
  - { offset: 0xA4361, size: 0x8, addend: 0x0, symName: '__ZN118_$LT$std..thread..thread_name_string..ThreadNameString$u20$as$u20$core..convert..From$LT$alloc..string..String$GT$$GT$4from17h6360377a8fb99901E', symObjAddr: 0x1EEEC, symBinAddr: 0x10003EB74, symSize: 0xFC }
  - { offset: 0xA4597, size: 0x8, addend: 0x0, symName: '__ZN56_$LT$std..thread..Thread$u20$as$u20$core..fmt..Debug$GT$3fmt17h367828c2730f0af8E', symObjAddr: 0x1F1D4, symBinAddr: 0x10003EE5C, symSize: 0xC0 }
  - { offset: 0xA46FB, size: 0x8, addend: 0x0, symName: __ZN3std6thread21available_parallelism17hac4d10ea4917613fE, symObjAddr: 0x1F294, symBinAddr: 0x10003EF1C, symSize: 0x50 }
  - { offset: 0xA47B2, size: 0x8, addend: 0x0, symName: '__ZN58_$LT$std..thread..ThreadId$u20$as$u20$core..fmt..Debug$GT$3fmt17h2b0fa00f2bfce2c0E', symObjAddr: 0x398B8, symBinAddr: 0x100058874, symSize: 0x40 }
  - { offset: 0xA4803, size: 0x8, addend: 0x0, symName: '__ZN89_$LT$std..backtrace_rs..symbolize..gimli..mmap..Mmap$u20$as$u20$core..ops..drop..Drop$GT$4drop17h106ecda45d883f25E', symObjAddr: 0x4A38C, symBinAddr: 0x1000688A0, symSize: 0x18 }
  - { offset: 0xA4830, size: 0x8, addend: 0x0, symName: '__ZN91_$LT$std..backtrace_rs..symbolize..gimli..mmap..Mmap$u20$as$u20$core..ops..deref..Deref$GT$5deref17h84860b6e10e5e957E', symObjAddr: 0x4A374, symBinAddr: 0x100068888, symSize: 0x18 }
  - { offset: 0xA490D, size: 0x8, addend: 0x0, symName: __ZN3std12backtrace_rs9symbolize5gimli7Context3new17h1e91e4e8ca8f4f43E, symObjAddr: 0x45674, symBinAddr: 0x100063B88, symSize: 0x226C }
  - { offset: 0xA8E0A, size: 0x8, addend: 0x0, symName: __ZN3std12backtrace_rs9symbolize5gimli7Context11find_frames17hfd1016a68cde14edE, symObjAddr: 0x478E0, symBinAddr: 0x100065DF4, symSize: 0x3A8 }
  - { offset: 0xA9260, size: 0x8, addend: 0x0, symName: __ZN3std12backtrace_rs9symbolize5gimli5macho6Object5parse17h785faf4743f90f48E, symObjAddr: 0x4A578, symBinAddr: 0x100068A8C, symSize: 0xC78 }
  - { offset: 0xAAF1E, size: 0x8, addend: 0x0, symName: __ZN3std12backtrace_rs9symbolize5gimli5macho6Object7section17hd87dc726714e9896E, symObjAddr: 0x4B1F0, symBinAddr: 0x100069704, symSize: 0x18C }
  - { offset: 0xAB2AC, size: 0x8, addend: 0x0, symName: __ZN3std12backtrace_rs9symbolize5gimli5macho11find_header17h967e7857a577695cE, symObjAddr: 0x4A3A4, symBinAddr: 0x1000688B8, symSize: 0x1D4 }
  - { offset: 0xAB9A0, size: 0x8, addend: 0x0, symName: __ZN3std12backtrace_rs9symbolize5gimli4mmap17h0bd3f9fc60ec7b5cE, symObjAddr: 0x47C88, symBinAddr: 0x10006619C, symSize: 0x160 }
  - { offset: 0xABF7E, size: 0x8, addend: 0x0, symName: __ZN3std12backtrace_rs9symbolize5gimli7resolve17h59605c61b94de6bdE, symObjAddr: 0x47DE8, symBinAddr: 0x1000662FC, symSize: 0x258C }
  - { offset: 0xB1BE4, size: 0x8, addend: 0x0, symName: __ZN3std12backtrace_rs9symbolize6Symbol4name17h757bb3a891f635ceE, symObjAddr: 0x38FC4, symBinAddr: 0x100057F80, symSize: 0xE4 }
  - { offset: 0xB1CFD, size: 0x8, addend: 0x0, symName: __ZN3std12backtrace_rs9symbolize6Symbol12filename_raw17h51ca9225f93a104cE, symObjAddr: 0x390A8, symBinAddr: 0x100058064, symSize: 0x44 }
  - { offset: 0xB1D76, size: 0x8, addend: 0x0, symName: '__ZN73_$LT$std..backtrace_rs..symbolize..Symbol$u20$as$u20$core..fmt..Debug$GT$3fmt17h318db3d45b84f6d8E', symObjAddr: 0x390EC, symBinAddr: 0x1000580A8, symSize: 0xFC }
  - { offset: 0xB1E10, size: 0x8, addend: 0x0, symName: '__ZN79_$LT$std..backtrace_rs..symbolize..SymbolName$u20$as$u20$core..fmt..Display$GT$3fmt17he94ecb4e608d7aaaE', symObjAddr: 0x391E8, symBinAddr: 0x1000581A4, symSize: 0x100 }
  - { offset: 0xB1EF0, size: 0x8, addend: 0x0, symName: '__ZN77_$LT$std..backtrace_rs..symbolize..SymbolName$u20$as$u20$core..fmt..Debug$GT$3fmt17hfb6e341f12fc7826E', symObjAddr: 0x392E8, symBinAddr: 0x1000582A4, symSize: 0x100 }
  - { offset: 0xB2042, size: 0x8, addend: 0x0, symName: '__ZN85_$LT$std..backtrace_rs..backtrace..libunwind..Frame$u20$as$u20$core..clone..Clone$GT$5clone17h78e35b8f4ad18a6aE', symObjAddr: 0x45588, symBinAddr: 0x100063A9C, symSize: 0x6C }
  - { offset: 0xB20A5, size: 0x8, addend: 0x0, symName: '__ZN87_$LT$std..backtrace_rs..backtrace..libunwind..Bomb$u20$as$u20$core..ops..drop..Drop$GT$4drop17hc4a56e0f957f55bbE', symObjAddr: 0x455F4, symBinAddr: 0x100063B08, symSize: 0x44 }
  - { offset: 0xB20DA, size: 0x8, addend: 0x0, symName: __ZN3std12backtrace_rs9backtrace9libunwind5trace8trace_fn17he8146b547133e35cE, symObjAddr: 0x45638, symBinAddr: 0x100063B4C, symSize: 0x3C }
  - { offset: 0xB215D, size: 0x8, addend: 0x0, symName: '__ZN72_$LT$std..backtrace_rs..backtrace..Frame$u20$as$u20$core..fmt..Debug$GT$3fmt17h502890f8c81a0dc9E', symObjAddr: 0x38EE4, symBinAddr: 0x100057EA0, symSize: 0xE0 }
  - { offset: 0xB2269, size: 0x8, addend: 0x0, symName: __ZN3std12backtrace_rs5print17BacktraceFrameFmt21print_raw_with_column17h52f7494d1c550af5E, symObjAddr: 0x393E8, symBinAddr: 0x1000583A4, symSize: 0x4D0 }
  - { offset: 0xB2495, size: 0x8, addend: 0x0, symName: __ZN3std2rt7cleanup17hca9dabeefa21ea70E, symObjAddr: 0x1DC08, symBinAddr: 0x10003DA84, symSize: 0x64 }
  - { offset: 0xB24B8, size: 0x8, addend: 0x0, symName: __ZN3std2rt7cleanup17hca9dabeefa21ea70E, symObjAddr: 0x1DC08, symBinAddr: 0x10003DA84, symSize: 0x64 }
  - { offset: 0xB24CC, size: 0x8, addend: 0x0, symName: __ZN3std2rt7cleanup17hca9dabeefa21ea70E, symObjAddr: 0x1DC08, symBinAddr: 0x10003DA84, symSize: 0x64 }
  - { offset: 0xB24E0, size: 0x8, addend: 0x0, symName: __ZN3std2rt7cleanup17hca9dabeefa21ea70E, symObjAddr: 0x1DC08, symBinAddr: 0x10003DA84, symSize: 0x64 }
  - { offset: 0xB254A, size: 0x8, addend: 0x0, symName: __ZN3std2rt19lang_start_internal17h77891a2543177e4bE, symObjAddr: 0x1DC6C, symBinAddr: 0x10003DAE8, symSize: 0x828 }
  - { offset: 0xB3556, size: 0x8, addend: 0x0, symName: '__ZN64_$LT$std..panic..PanicHookInfo$u20$as$u20$core..fmt..Display$GT$3fmt17hf0d2e800c1362170E', symObjAddr: 0x2F510, symBinAddr: 0x10004EF80, symSize: 0x164 }
  - { offset: 0xB3798, size: 0x8, addend: 0x0, symName: __ZN3std5panic13resume_unwind17hece3c171b14e6084E, symObjAddr: 0x2F674, symBinAddr: 0x10004F0E4, symSize: 0xC }
  - { offset: 0xB37B3, size: 0x8, addend: 0x0, symName: __ZN3std5panic12always_abort17h174cc4501837516aE, symObjAddr: 0x2F680, symBinAddr: 0x10004F0F0, symSize: 0x20 }
  - { offset: 0xB3839, size: 0x8, addend: 0x0, symName: __ZN3std5panic19set_backtrace_style17h8b74176fce996ae1E, symObjAddr: 0x2F6A0, symBinAddr: 0x10004F110, symSize: 0x1C }
  - { offset: 0xB3895, size: 0x8, addend: 0x0, symName: __ZN3std5panic19get_backtrace_style17h1f774776d63cd7d6E, symObjAddr: 0x2F6BC, symBinAddr: 0x10004F12C, symSize: 0x10C }
  - { offset: 0xB38B3, size: 0x8, addend: 0x0, symName: __ZN3std5panic19get_backtrace_style17h1f774776d63cd7d6E, symObjAddr: 0x2F6BC, symBinAddr: 0x10004F12C, symSize: 0x10C }
  - { offset: 0xB38C8, size: 0x8, addend: 0x0, symName: __ZN3std5panic19get_backtrace_style17h1f774776d63cd7d6E, symObjAddr: 0x2F6BC, symBinAddr: 0x10004F12C, symSize: 0x10C }
  - { offset: 0xB3CFF, size: 0x8, addend: 0x0, symName: __ZN3std4time7Instant3now17h46343cdc613b5f57E, symObjAddr: 0x34DA4, symBinAddr: 0x100054590, symSize: 0x14 }
  - { offset: 0xB3D29, size: 0x8, addend: 0x0, symName: __ZN3std4time7Instant14duration_since17h2f943aa28cf40c72E, symObjAddr: 0x34DB8, symBinAddr: 0x1000545A4, symSize: 0x4C }
  - { offset: 0xB3D94, size: 0x8, addend: 0x0, symName: __ZN3std4time7Instant22checked_duration_since17h5c73585122e0cca7E, symObjAddr: 0x34E04, symBinAddr: 0x1000545F0, symSize: 0x50 }
  - { offset: 0xB3DD4, size: 0x8, addend: 0x0, symName: __ZN3std4time7Instant7elapsed17h46cf5dc3e9524e87E, symObjAddr: 0x34E54, symBinAddr: 0x100054640, symSize: 0x6C }
  - { offset: 0xB3EC6, size: 0x8, addend: 0x0, symName: '__ZN60_$LT$std..time..Instant$u20$as$u20$core..ops..arith..Sub$GT$3sub17ha8fe53a742e184a2E', symObjAddr: 0x35068, symBinAddr: 0x100054854, symSize: 0x50 }
  - { offset: 0xB3F4D, size: 0x8, addend: 0x0, symName: '__ZN88_$LT$std..time..Instant$u20$as$u20$core..ops..arith..Add$LT$core..time..Duration$GT$$GT$3add17h8a8c7738f7c1be33E', symObjAddr: 0x34EC0, symBinAddr: 0x1000546AC, symSize: 0x64 }
  - { offset: 0xB3F64, size: 0x8, addend: 0x0, symName: '__ZN88_$LT$std..time..Instant$u20$as$u20$core..ops..arith..Add$LT$core..time..Duration$GT$$GT$3add17h8a8c7738f7c1be33E', symObjAddr: 0x34EC0, symBinAddr: 0x1000546AC, symSize: 0x64 }
  - { offset: 0xB3F79, size: 0x8, addend: 0x0, symName: '__ZN88_$LT$std..time..Instant$u20$as$u20$core..ops..arith..Add$LT$core..time..Duration$GT$$GT$3add17h8a8c7738f7c1be33E', symObjAddr: 0x34EC0, symBinAddr: 0x1000546AC, symSize: 0x64 }
  - { offset: 0xB3F8E, size: 0x8, addend: 0x0, symName: '__ZN88_$LT$std..time..Instant$u20$as$u20$core..ops..arith..Add$LT$core..time..Duration$GT$$GT$3add17h8a8c7738f7c1be33E', symObjAddr: 0x34EC0, symBinAddr: 0x1000546AC, symSize: 0x64 }
  - { offset: 0xB3FA3, size: 0x8, addend: 0x0, symName: '__ZN88_$LT$std..time..Instant$u20$as$u20$core..ops..arith..Add$LT$core..time..Duration$GT$$GT$3add17h8a8c7738f7c1be33E', symObjAddr: 0x34EC0, symBinAddr: 0x1000546AC, symSize: 0x64 }
  - { offset: 0xB3FB7, size: 0x8, addend: 0x0, symName: '__ZN88_$LT$std..time..Instant$u20$as$u20$core..ops..arith..Add$LT$core..time..Duration$GT$$GT$3add17h8a8c7738f7c1be33E', symObjAddr: 0x34EC0, symBinAddr: 0x1000546AC, symSize: 0x64 }
  - { offset: 0xB3FCC, size: 0x8, addend: 0x0, symName: '__ZN88_$LT$std..time..Instant$u20$as$u20$core..ops..arith..Add$LT$core..time..Duration$GT$$GT$3add17h8a8c7738f7c1be33E', symObjAddr: 0x34EC0, symBinAddr: 0x1000546AC, symSize: 0x64 }
  - { offset: 0xB4037, size: 0x8, addend: 0x0, symName: '__ZN94_$LT$std..time..Instant$u20$as$u20$core..ops..arith..AddAssign$LT$core..time..Duration$GT$$GT$10add_assign17h9c1ab214357ec28fE', symObjAddr: 0x34F24, symBinAddr: 0x100054710, symSize: 0x74 }
  - { offset: 0xB4110, size: 0x8, addend: 0x0, symName: '__ZN88_$LT$std..time..Instant$u20$as$u20$core..ops..arith..Sub$LT$core..time..Duration$GT$$GT$3sub17hec0b69f01e755fb2E', symObjAddr: 0x34F98, symBinAddr: 0x100054784, symSize: 0x5C }
  - { offset: 0xB414E, size: 0x8, addend: 0x0, symName: '__ZN88_$LT$std..time..Instant$u20$as$u20$core..ops..arith..Sub$LT$core..time..Duration$GT$$GT$3sub17hec0b69f01e755fb2E', symObjAddr: 0x34F98, symBinAddr: 0x100054784, symSize: 0x5C }
  - { offset: 0xB4162, size: 0x8, addend: 0x0, symName: '__ZN88_$LT$std..time..Instant$u20$as$u20$core..ops..arith..Sub$LT$core..time..Duration$GT$$GT$3sub17hec0b69f01e755fb2E', symObjAddr: 0x34F98, symBinAddr: 0x100054784, symSize: 0x5C }
  - { offset: 0xB4177, size: 0x8, addend: 0x0, symName: '__ZN88_$LT$std..time..Instant$u20$as$u20$core..ops..arith..Sub$LT$core..time..Duration$GT$$GT$3sub17hec0b69f01e755fb2E', symObjAddr: 0x34F98, symBinAddr: 0x100054784, symSize: 0x5C }
  - { offset: 0xB41E2, size: 0x8, addend: 0x0, symName: '__ZN94_$LT$std..time..Instant$u20$as$u20$core..ops..arith..SubAssign$LT$core..time..Duration$GT$$GT$10sub_assign17hb8d9c46f83ec5f0dE', symObjAddr: 0x34FF4, symBinAddr: 0x1000547E0, symSize: 0x74 }
  - { offset: 0xB42BB, size: 0x8, addend: 0x0, symName: '__ZN55_$LT$std..time..Instant$u20$as$u20$core..fmt..Debug$GT$3fmt17h802300a72eb2bbeeE', symObjAddr: 0x350B8, symBinAddr: 0x1000548A4, symSize: 0x80 }
  - { offset: 0xB42F2, size: 0x8, addend: 0x0, symName: __ZN3std4time10SystemTime3now17h8856266915829068E, symObjAddr: 0x35138, symBinAddr: 0x100054924, symSize: 0x14 }
  - { offset: 0xB431C, size: 0x8, addend: 0x0, symName: __ZN3std4time10SystemTime14duration_since17h0ea77ff603a0921fE, symObjAddr: 0x3514C, symBinAddr: 0x100054938, symSize: 0x50 }
  - { offset: 0xB4377, size: 0x8, addend: 0x0, symName: __ZN3std4time10SystemTime7elapsed17h171c00e44e3d153dE, symObjAddr: 0x3519C, symBinAddr: 0x100054988, symSize: 0x68 }
  - { offset: 0xB43FE, size: 0x8, addend: 0x0, symName: __ZN3std4time10SystemTime11checked_add17h5bf4b576516b9444E, symObjAddr: 0x35204, symBinAddr: 0x1000549F0, symSize: 0x7C }
  - { offset: 0xB4490, size: 0x8, addend: 0x0, symName: __ZN3std4time10SystemTime11checked_sub17hb60a751232d07267E, symObjAddr: 0x35280, symBinAddr: 0x100054A6C, symSize: 0x6C }
  - { offset: 0xB4544, size: 0x8, addend: 0x0, symName: '__ZN91_$LT$std..time..SystemTime$u20$as$u20$core..ops..arith..Add$LT$core..time..Duration$GT$$GT$3add17h9dbb5a953bd5e23dE', symObjAddr: 0x352EC, symBinAddr: 0x100054AD8, symSize: 0x64 }
  - { offset: 0xB455B, size: 0x8, addend: 0x0, symName: '__ZN91_$LT$std..time..SystemTime$u20$as$u20$core..ops..arith..Add$LT$core..time..Duration$GT$$GT$3add17h9dbb5a953bd5e23dE', symObjAddr: 0x352EC, symBinAddr: 0x100054AD8, symSize: 0x64 }
  - { offset: 0xB4570, size: 0x8, addend: 0x0, symName: '__ZN91_$LT$std..time..SystemTime$u20$as$u20$core..ops..arith..Add$LT$core..time..Duration$GT$$GT$3add17h9dbb5a953bd5e23dE', symObjAddr: 0x352EC, symBinAddr: 0x100054AD8, symSize: 0x64 }
  - { offset: 0xB4585, size: 0x8, addend: 0x0, symName: '__ZN91_$LT$std..time..SystemTime$u20$as$u20$core..ops..arith..Add$LT$core..time..Duration$GT$$GT$3add17h9dbb5a953bd5e23dE', symObjAddr: 0x352EC, symBinAddr: 0x100054AD8, symSize: 0x64 }
  - { offset: 0xB4599, size: 0x8, addend: 0x0, symName: '__ZN91_$LT$std..time..SystemTime$u20$as$u20$core..ops..arith..Add$LT$core..time..Duration$GT$$GT$3add17h9dbb5a953bd5e23dE', symObjAddr: 0x352EC, symBinAddr: 0x100054AD8, symSize: 0x64 }
  - { offset: 0xB45AD, size: 0x8, addend: 0x0, symName: '__ZN91_$LT$std..time..SystemTime$u20$as$u20$core..ops..arith..Add$LT$core..time..Duration$GT$$GT$3add17h9dbb5a953bd5e23dE', symObjAddr: 0x352EC, symBinAddr: 0x100054AD8, symSize: 0x64 }
  - { offset: 0xB45C2, size: 0x8, addend: 0x0, symName: '__ZN91_$LT$std..time..SystemTime$u20$as$u20$core..ops..arith..Add$LT$core..time..Duration$GT$$GT$3add17h9dbb5a953bd5e23dE', symObjAddr: 0x352EC, symBinAddr: 0x100054AD8, symSize: 0x64 }
  - { offset: 0xB462D, size: 0x8, addend: 0x0, symName: '__ZN97_$LT$std..time..SystemTime$u20$as$u20$core..ops..arith..AddAssign$LT$core..time..Duration$GT$$GT$10add_assign17hddaba8bc6bdf9addE', symObjAddr: 0x35350, symBinAddr: 0x100054B3C, symSize: 0x74 }
  - { offset: 0xB4705, size: 0x8, addend: 0x0, symName: '__ZN91_$LT$std..time..SystemTime$u20$as$u20$core..ops..arith..Sub$LT$core..time..Duration$GT$$GT$3sub17h1cdd89bd6836f5c1E', symObjAddr: 0x353C4, symBinAddr: 0x100054BB0, symSize: 0x5C }
  - { offset: 0xB4742, size: 0x8, addend: 0x0, symName: '__ZN91_$LT$std..time..SystemTime$u20$as$u20$core..ops..arith..Sub$LT$core..time..Duration$GT$$GT$3sub17h1cdd89bd6836f5c1E', symObjAddr: 0x353C4, symBinAddr: 0x100054BB0, symSize: 0x5C }
  - { offset: 0xB4756, size: 0x8, addend: 0x0, symName: '__ZN91_$LT$std..time..SystemTime$u20$as$u20$core..ops..arith..Sub$LT$core..time..Duration$GT$$GT$3sub17h1cdd89bd6836f5c1E', symObjAddr: 0x353C4, symBinAddr: 0x100054BB0, symSize: 0x5C }
  - { offset: 0xB476B, size: 0x8, addend: 0x0, symName: '__ZN91_$LT$std..time..SystemTime$u20$as$u20$core..ops..arith..Sub$LT$core..time..Duration$GT$$GT$3sub17h1cdd89bd6836f5c1E', symObjAddr: 0x353C4, symBinAddr: 0x100054BB0, symSize: 0x5C }
  - { offset: 0xB47D6, size: 0x8, addend: 0x0, symName: '__ZN97_$LT$std..time..SystemTime$u20$as$u20$core..ops..arith..SubAssign$LT$core..time..Duration$GT$$GT$10sub_assign17h3149ddac09cd246bE', symObjAddr: 0x35420, symBinAddr: 0x100054C0C, symSize: 0x74 }
  - { offset: 0xB48AE, size: 0x8, addend: 0x0, symName: '__ZN58_$LT$std..time..SystemTime$u20$as$u20$core..fmt..Debug$GT$3fmt17h3ddbed0c10c0085cE', symObjAddr: 0x35494, symBinAddr: 0x100054C80, symSize: 0x80 }
  - { offset: 0xB48E5, size: 0x8, addend: 0x0, symName: '__ZN65_$LT$std..time..SystemTimeError$u20$as$u20$core..fmt..Display$GT$3fmt17h8ada7ffbd3d0f2c9E', symObjAddr: 0x35514, symBinAddr: 0x100054D00, symSize: 0x24 }
  - { offset: 0xB4945, size: 0x8, addend: 0x0, symName: __ZN3std3env11current_dir17h172f4dc23441f9daE, symObjAddr: 0x20428, symBinAddr: 0x1000400B0, symSize: 0x1C0 }
  - { offset: 0xB4CE3, size: 0x8, addend: 0x0, symName: __ZN3std3env4vars17h88a15c677eaabb89E, symObjAddr: 0x205E8, symBinAddr: 0x100040270, symSize: 0x10 }
  - { offset: 0xB4CFD, size: 0x8, addend: 0x0, symName: __ZN3std3env7vars_os17hecf805c3900c0abcE, symObjAddr: 0x205F8, symBinAddr: 0x100040280, symSize: 0x2D8 }
  - { offset: 0xB539F, size: 0x8, addend: 0x0, symName: '__ZN75_$LT$std..env..VarsOs$u20$as$u20$core..iter..traits..iterator..Iterator$GT$4next17h93913b322dc90427E', symObjAddr: 0x20B4C, symBinAddr: 0x1000407D4, symSize: 0x48 }
  - { offset: 0xB5421, size: 0x8, addend: 0x0, symName: '__ZN75_$LT$std..env..VarsOs$u20$as$u20$core..iter..traits..iterator..Iterator$GT$9size_hint17h6d6cd50624e06536E', symObjAddr: 0x20B94, symBinAddr: 0x10004081C, symSize: 0x38 }
  - { offset: 0xB54A4, size: 0x8, addend: 0x0, symName: '__ZN73_$LT$std..env..Vars$u20$as$u20$core..iter..traits..iterator..Iterator$GT$4next17h94c6974832fd39f2E', symObjAddr: 0x208D0, symBinAddr: 0x100040558, symSize: 0x1C0 }
  - { offset: 0xB5997, size: 0x8, addend: 0x0, symName: '__ZN73_$LT$std..env..Vars$u20$as$u20$core..iter..traits..iterator..Iterator$GT$9size_hint17h0b52722b9e50904fE', symObjAddr: 0x20A90, symBinAddr: 0x100040718, symSize: 0x38 }
  - { offset: 0xB5A22, size: 0x8, addend: 0x0, symName: '__ZN51_$LT$std..env..Vars$u20$as$u20$core..fmt..Debug$GT$3fmt17hd152c168b5085782E', symObjAddr: 0x20AC8, symBinAddr: 0x100040750, symSize: 0x84 }
  - { offset: 0xB5AC2, size: 0x8, addend: 0x0, symName: '__ZN53_$LT$std..env..VarsOs$u20$as$u20$core..fmt..Debug$GT$3fmt17h21e555d39106b009E', symObjAddr: 0x20BCC, symBinAddr: 0x100040854, symSize: 0x64 }
  - { offset: 0xB5ADD, size: 0x8, addend: 0x0, symName: __ZN3std3env4_var17h961b7457640dfa72E, symObjAddr: 0x20C30, symBinAddr: 0x1000408B8, symSize: 0xA8 }
  - { offset: 0xB5BD9, size: 0x8, addend: 0x0, symName: __ZN3std3env7_var_os17h0a415fbacbc640bdE, symObjAddr: 0x20CD8, symBinAddr: 0x100040960, symSize: 0x160 }
  - { offset: 0xB5E5F, size: 0x8, addend: 0x0, symName: '__ZN57_$LT$std..env..VarError$u20$as$u20$core..fmt..Display$GT$3fmt17hce672328f93a2e98E', symObjAddr: 0x20E38, symBinAddr: 0x100040AC0, symSize: 0x78 }
  - { offset: 0xB5EB9, size: 0x8, addend: 0x0, symName: '__ZN79_$LT$std..env..SplitPaths$u20$as$u20$core..iter..traits..iterator..Iterator$GT$4next17h57707b7d8289b21aE', symObjAddr: 0x20EB0, symBinAddr: 0x100040B38, symSize: 0xA8 }
  - { offset: 0xB600B, size: 0x8, addend: 0x0, symName: '__ZN57_$LT$std..env..SplitPaths$u20$as$u20$core..fmt..Debug$GT$3fmt17hfa73beb9cf93abf2E', symObjAddr: 0x20F58, symBinAddr: 0x100040BE0, symSize: 0x38 }
  - { offset: 0xB602C, size: 0x8, addend: 0x0, symName: '__ZN63_$LT$std..env..JoinPathsError$u20$as$u20$core..fmt..Display$GT$3fmt17h00ecbab8c6ccb60eE', symObjAddr: 0x20F90, symBinAddr: 0x100040C18, symSize: 0x5C }
  - { offset: 0xB60AA, size: 0x8, addend: 0x0, symName: __ZN3std3env8home_dir17hcd028fdcc81c5cbcE, symObjAddr: 0x20FEC, symBinAddr: 0x100040C74, symSize: 0x19C }
  - { offset: 0xB6479, size: 0x8, addend: 0x0, symName: __ZN3std3env8temp_dir17h29958e54580b16c3E, symObjAddr: 0x21188, symBinAddr: 0x100040E10, symSize: 0x98 }
  - { offset: 0xB65FF, size: 0x8, addend: 0x0, symName: __ZN3std3env11current_exe17he79cce10a5159b7dE, symObjAddr: 0x21220, symBinAddr: 0x100040EA8, symSize: 0xD4 }
  - { offset: 0xB67E4, size: 0x8, addend: 0x0, symName: __ZN3std3env4args17h271a3d093b5db279E, symObjAddr: 0x212F4, symBinAddr: 0x100040F7C, symSize: 0x10 }
  - { offset: 0xB67FF, size: 0x8, addend: 0x0, symName: __ZN3std3env7args_os17hc2de09d0c51d55aeE, symObjAddr: 0x21304, symBinAddr: 0x100040F8C, symSize: 0x1E8 }
  - { offset: 0xB6CB5, size: 0x8, addend: 0x0, symName: '__ZN75_$LT$std..env..ArgsOs$u20$as$u20$core..iter..traits..iterator..Iterator$GT$4next17had9755dd281c065bE', symObjAddr: 0x217A0, symBinAddr: 0x100041428, symSize: 0x48 }
  - { offset: 0xB6D37, size: 0x8, addend: 0x0, symName: '__ZN75_$LT$std..env..ArgsOs$u20$as$u20$core..iter..traits..iterator..Iterator$GT$9size_hint17hd52323d7f345a897E', symObjAddr: 0x217E8, symBinAddr: 0x100041470, symSize: 0x38 }
  - { offset: 0xB6DBB, size: 0x8, addend: 0x0, symName: '__ZN73_$LT$std..env..Args$u20$as$u20$core..iter..traits..iterator..Iterator$GT$4next17h2f9ba91fefb5cca9E', symObjAddr: 0x214EC, symBinAddr: 0x100041174, symSize: 0xE8 }
  - { offset: 0xB6FF8, size: 0x8, addend: 0x0, symName: '__ZN73_$LT$std..env..Args$u20$as$u20$core..iter..traits..iterator..Iterator$GT$9size_hint17h2efa74948bde361cE', symObjAddr: 0x215D4, symBinAddr: 0x10004125C, symSize: 0x38 }
  - { offset: 0xB70A1, size: 0x8, addend: 0x0, symName: '__ZN86_$LT$std..env..ArgsOs$u20$as$u20$core..iter..traits..exact_size..ExactSizeIterator$GT$3len17h9c0aef9eb51040dbE', symObjAddr: 0x21820, symBinAddr: 0x1000414A8, symSize: 0x2C }
  - { offset: 0xB7120, size: 0x8, addend: 0x0, symName: '__ZN86_$LT$std..env..ArgsOs$u20$as$u20$core..iter..traits..exact_size..ExactSizeIterator$GT$8is_empty17hca6a855fa61d42bdE', symObjAddr: 0x2184C, symBinAddr: 0x1000414D4, symSize: 0x20 }
  - { offset: 0xB7165, size: 0x8, addend: 0x0, symName: '__ZN84_$LT$std..env..Args$u20$as$u20$core..iter..traits..exact_size..ExactSizeIterator$GT$3len17h08461ef13c89031eE', symObjAddr: 0x2160C, symBinAddr: 0x100041294, symSize: 0x2C }
  - { offset: 0xB7201, size: 0x8, addend: 0x0, symName: '__ZN84_$LT$std..env..Args$u20$as$u20$core..iter..traits..exact_size..ExactSizeIterator$GT$8is_empty17h9d1be49f9fb3c880E', symObjAddr: 0x21638, symBinAddr: 0x1000412C0, symSize: 0x20 }
  - { offset: 0xB7271, size: 0x8, addend: 0x0, symName: '__ZN90_$LT$std..env..ArgsOs$u20$as$u20$core..iter..traits..double_ended..DoubleEndedIterator$GT$9next_back17hedbcd9204171f206E', symObjAddr: 0x2186C, symBinAddr: 0x1000414F4, symSize: 0x48 }
  - { offset: 0xB72FA, size: 0x8, addend: 0x0, symName: '__ZN88_$LT$std..env..Args$u20$as$u20$core..iter..traits..double_ended..DoubleEndedIterator$GT$9next_back17h6e8e28899c103c24E', symObjAddr: 0x21658, symBinAddr: 0x1000412E0, symSize: 0xE4 }
  - { offset: 0xB7515, size: 0x8, addend: 0x0, symName: '__ZN51_$LT$std..env..Args$u20$as$u20$core..fmt..Debug$GT$3fmt17h058beb73c0e6392fE', symObjAddr: 0x2173C, symBinAddr: 0x1000413C4, symSize: 0x64 }
  - { offset: 0xB7536, size: 0x8, addend: 0x0, symName: '__ZN53_$LT$std..env..ArgsOs$u20$as$u20$core..fmt..Debug$GT$3fmt17ha79aebcee10d6df3E', symObjAddr: 0x218B4, symBinAddr: 0x10004153C, symSize: 0x64 }
  - { offset: 0xB75BF, size: 0x8, addend: 0x0, symName: __ZN3std2fs11OpenOptions5_open17hbf356a9c8f4ab619E, symObjAddr: 0x22E44, symBinAddr: 0x100042ACC, symSize: 0x244 }
  - { offset: 0xB7799, size: 0x8, addend: 0x0, symName: __ZN3std2fs4File8sync_all17hb0626fd75d38c73eE, symObjAddr: 0x2228C, symBinAddr: 0x100041F14, symSize: 0x58 }
  - { offset: 0xB7878, size: 0x8, addend: 0x0, symName: __ZN3std2fs4File7set_len17hf7339bc31eb76667E, symObjAddr: 0x222E4, symBinAddr: 0x100041F6C, symSize: 0x78 }
  - { offset: 0xB7997, size: 0x8, addend: 0x0, symName: __ZN3std2fs4File8metadata17hdf79d0f35e8f44efE, symObjAddr: 0x2235C, symBinAddr: 0x100041FE4, symSize: 0xAC }
  - { offset: 0xB7A83, size: 0x8, addend: 0x0, symName: __ZN3std2fs4File9try_clone17h8cd06fd55ebc7f55E, symObjAddr: 0x22408, symBinAddr: 0x100042090, symSize: 0x88 }
  - { offset: 0xB7B69, size: 0x8, addend: 0x0, symName: __ZN3std2fs4File15set_permissions17h3c1f41405b3de318E, symObjAddr: 0x22490, symBinAddr: 0x100042118, symSize: 0x64 }
  - { offset: 0xB7C2B, size: 0x8, addend: 0x0, symName: __ZN3std2fs4File9set_times17h594318b9903ebaefE, symObjAddr: 0x224F4, symBinAddr: 0x10004217C, symSize: 0xF0 }
  - { offset: 0xB7DA3, size: 0x8, addend: 0x0, symName: __ZN3std2fs4read5inner17h4e43e71abe147b85E, symObjAddr: 0x21DBC, symBinAddr: 0x100041A44, symSize: 0x1A0 }
  - { offset: 0xB81E4, size: 0x8, addend: 0x0, symName: __ZN3std2fs14read_to_string5inner17hf3e639778e0bc884E, symObjAddr: 0x21F5C, symBinAddr: 0x100041BE4, symSize: 0x20C }
  - { offset: 0xB8808, size: 0x8, addend: 0x0, symName: '__ZN52_$LT$$RF$std..fs..File$u20$as$u20$std..io..Write$GT$5write17hc2f22005a6470967E', symObjAddr: 0x2289C, symBinAddr: 0x100042524, symSize: 0x50 }
  - { offset: 0xB88F6, size: 0x8, addend: 0x0, symName: '__ZN52_$LT$$RF$std..fs..File$u20$as$u20$std..io..Write$GT$14write_vectored17h8b27c3bb3c78b37cE', symObjAddr: 0x228EC, symBinAddr: 0x100042574, symSize: 0x50 }
  - { offset: 0xB8A06, size: 0x8, addend: 0x0, symName: '__ZN48_$LT$std..fs..File$u20$as$u20$std..io..Write$GT$5write17hc373434d8b0570e4E', symObjAddr: 0x22AEC, symBinAddr: 0x100042774, symSize: 0x4C }
  - { offset: 0xB8B0A, size: 0x8, addend: 0x0, symName: '__ZN48_$LT$std..fs..File$u20$as$u20$std..io..Write$GT$14write_vectored17hfe5660478a96fd02E', symObjAddr: 0x22B38, symBinAddr: 0x1000427C0, symSize: 0x4C }
  - { offset: 0xB8C1B, size: 0x8, addend: 0x0, symName: __ZN3std2fs5write5inner17hd0dfbcf49c8de780E, symObjAddr: 0x22168, symBinAddr: 0x100041DF0, symSize: 0x124 }
  - { offset: 0xB8F17, size: 0x8, addend: 0x0, symName: '__ZN50_$LT$std..fs..File$u20$as$u20$core..fmt..Debug$GT$3fmt17h2b405762200144e6E', symObjAddr: 0x225E4, symBinAddr: 0x10004226C, symSize: 0x10 }
  - { offset: 0xB8F54, size: 0x8, addend: 0x0, symName: '__ZN51_$LT$$RF$std..fs..File$u20$as$u20$std..io..Seek$GT$4seek17he6ba1c7c1fcaf53cE', symObjAddr: 0x2293C, symBinAddr: 0x1000425C4, symSize: 0x58 }
  - { offset: 0xB8FF1, size: 0x8, addend: 0x0, symName: '__ZN51_$LT$$RF$std..fs..File$u20$as$u20$std..io..Read$GT$11read_to_end17h98ead3b6fa9d05d2E', symObjAddr: 0x225F4, symBinAddr: 0x10004227C, symSize: 0x140 }
  - { offset: 0xB92F6, size: 0x8, addend: 0x0, symName: '__ZN51_$LT$$RF$std..fs..File$u20$as$u20$std..io..Read$GT$14read_to_string17hf70ed8f32c0de083E', symObjAddr: 0x22734, symBinAddr: 0x1000423BC, symSize: 0x168 }
  - { offset: 0xB9696, size: 0x8, addend: 0x0, symName: '__ZN47_$LT$std..fs..File$u20$as$u20$std..io..Read$GT$4read17h5d0e9e56eb61d89cE', symObjAddr: 0x22994, symBinAddr: 0x10004261C, symSize: 0x4C }
  - { offset: 0xB97C2, size: 0x8, addend: 0x0, symName: '__ZN47_$LT$std..fs..File$u20$as$u20$std..io..Read$GT$13read_vectored17h22a3cea630082046E', symObjAddr: 0x229E0, symBinAddr: 0x100042668, symSize: 0x4C }
  - { offset: 0xB98F5, size: 0x8, addend: 0x0, symName: '__ZN47_$LT$std..fs..File$u20$as$u20$std..io..Read$GT$8read_buf17hd0961d4a1843f456E', symObjAddr: 0x22A2C, symBinAddr: 0x1000426B4, symSize: 0x78 }
  - { offset: 0xB9AFB, size: 0x8, addend: 0x0, symName: '__ZN47_$LT$std..fs..File$u20$as$u20$std..io..Read$GT$11read_to_end17h318d03d6ad02929aE', symObjAddr: 0x22AA4, symBinAddr: 0x10004272C, symSize: 0x24 }
  - { offset: 0xB9B16, size: 0x8, addend: 0x0, symName: '__ZN47_$LT$std..fs..File$u20$as$u20$std..io..Read$GT$14read_to_string17h1769572193c966f8E', symObjAddr: 0x22AC8, symBinAddr: 0x100042750, symSize: 0x24 }
  - { offset: 0xB9B53, size: 0x8, addend: 0x0, symName: '__ZN47_$LT$std..fs..File$u20$as$u20$std..io..Seek$GT$4seek17h4368fe7db98b8950E', symObjAddr: 0x22B84, symBinAddr: 0x10004280C, symSize: 0x54 }
  - { offset: 0xB9C0D, size: 0x8, addend: 0x0, symName: '__ZN3std2fs81_$LT$impl$u20$std..io..Read$u20$for$u20$alloc..sync..Arc$LT$std..fs..File$GT$$GT$4read17hb07d447ec8668a9cE', symObjAddr: 0x22BD8, symBinAddr: 0x100042860, symSize: 0x50 }
  - { offset: 0xB9D81, size: 0x8, addend: 0x0, symName: '__ZN3std2fs81_$LT$impl$u20$std..io..Read$u20$for$u20$alloc..sync..Arc$LT$std..fs..File$GT$$GT$13read_vectored17h95ee26fe725e8c46E', symObjAddr: 0x22C28, symBinAddr: 0x1000428B0, symSize: 0x50 }
  - { offset: 0xB9EF5, size: 0x8, addend: 0x0, symName: '__ZN3std2fs81_$LT$impl$u20$std..io..Read$u20$for$u20$alloc..sync..Arc$LT$std..fs..File$GT$$GT$8read_buf17h76eef20790fd7ae9E', symObjAddr: 0x22C78, symBinAddr: 0x100042900, symSize: 0x7C }
  - { offset: 0xBA143, size: 0x8, addend: 0x0, symName: '__ZN3std2fs81_$LT$impl$u20$std..io..Read$u20$for$u20$alloc..sync..Arc$LT$std..fs..File$GT$$GT$11read_to_end17h7f98d995276ce08aE', symObjAddr: 0x22CF4, symBinAddr: 0x10004297C, symSize: 0x2C }
  - { offset: 0xBA1A0, size: 0x8, addend: 0x0, symName: '__ZN3std2fs81_$LT$impl$u20$std..io..Read$u20$for$u20$alloc..sync..Arc$LT$std..fs..File$GT$$GT$14read_to_string17hea621c3ce2bbe2d7E', symObjAddr: 0x22D20, symBinAddr: 0x1000429A8, symSize: 0x2C }
  - { offset: 0xBA203, size: 0x8, addend: 0x0, symName: '__ZN3std2fs82_$LT$impl$u20$std..io..Write$u20$for$u20$alloc..sync..Arc$LT$std..fs..File$GT$$GT$5write17hd1669efdbab8584dE', symObjAddr: 0x22D4C, symBinAddr: 0x1000429D4, symSize: 0x50 }
  - { offset: 0xBA34F, size: 0x8, addend: 0x0, symName: '__ZN3std2fs82_$LT$impl$u20$std..io..Write$u20$for$u20$alloc..sync..Arc$LT$std..fs..File$GT$$GT$14write_vectored17h4198d18fd61f62abE', symObjAddr: 0x22D9C, symBinAddr: 0x100042A24, symSize: 0x50 }
  - { offset: 0xBA4A1, size: 0x8, addend: 0x0, symName: '__ZN3std2fs81_$LT$impl$u20$std..io..Seek$u20$for$u20$alloc..sync..Arc$LT$std..fs..File$GT$$GT$4seek17hd1562351604edea2E', symObjAddr: 0x22DEC, symBinAddr: 0x100042A74, symSize: 0x58 }
  - { offset: 0xBA59C, size: 0x8, addend: 0x0, symName: __ZN3std2fs8Metadata8modified17h077d07a31319f6f7E, symObjAddr: 0x23088, symBinAddr: 0x100042D10, symSize: 0x70 }
  - { offset: 0xBA5FC, size: 0x8, addend: 0x0, symName: __ZN3std2fs8Metadata8accessed17h5d52d3be5756baf3E, symObjAddr: 0x230F8, symBinAddr: 0x100042D80, symSize: 0x70 }
  - { offset: 0xBA65C, size: 0x8, addend: 0x0, symName: __ZN3std2fs8Metadata7created17h9006bf6c428f228dE, symObjAddr: 0x23168, symBinAddr: 0x100042DF0, symSize: 0x70 }
  - { offset: 0xBA740, size: 0x8, addend: 0x0, symName: '__ZN54_$LT$std..fs..Metadata$u20$as$u20$core..fmt..Debug$GT$3fmt17h1f630d0f8784f472E', symObjAddr: 0x231D8, symBinAddr: 0x100042E60, symSize: 0x1F0 }
  - { offset: 0xBA8CC, size: 0x8, addend: 0x0, symName: '__ZN54_$LT$std..fs..FileType$u20$as$u20$core..fmt..Debug$GT$3fmt17h2d3db1f3b5f8dddeE', symObjAddr: 0x233C8, symBinAddr: 0x100043050, symSize: 0xC4 }
  - { offset: 0xBA9DB, size: 0x8, addend: 0x0, symName: '__ZN75_$LT$std..fs..ReadDir$u20$as$u20$core..iter..traits..iterator..Iterator$GT$4next17hff4a652e9915cafaE', symObjAddr: 0x2348C, symBinAddr: 0x100043114, symSize: 0x84 }
  - { offset: 0xBAA36, size: 0x8, addend: 0x0, symName: __ZN3std2fs8DirEntry4path17h1cd1c2d74de10123E, symObjAddr: 0x23510, symBinAddr: 0x100043198, symSize: 0x24 }
  - { offset: 0xBABE8, size: 0x8, addend: 0x0, symName: __ZN3std2fs8DirEntry8metadata17hef3e9b4f70778ed7E, symObjAddr: 0x23534, symBinAddr: 0x1000431BC, symSize: 0x9C }
  - { offset: 0xBAC19, size: 0x8, addend: 0x0, symName: __ZN3std2fs8DirEntry9file_type17h33ab1a74729cf95eE, symObjAddr: 0x235D0, symBinAddr: 0x100043258, symSize: 0x88 }
  - { offset: 0xBAC5F, size: 0x8, addend: 0x0, symName: __ZN3std2fs8DirEntry9file_name17h2cbf807d428bca80E, symObjAddr: 0x23658, symBinAddr: 0x1000432E0, symSize: 0x78 }
  - { offset: 0xBADDA, size: 0x8, addend: 0x0, symName: '__ZN54_$LT$std..fs..DirEntry$u20$as$u20$core..fmt..Debug$GT$3fmt17h85442611c54700daE', symObjAddr: 0x236D0, symBinAddr: 0x100043358, symSize: 0xB0 }
  - { offset: 0xBB0FD, size: 0x8, addend: 0x0, symName: __ZN3std2fs10DirBuilder7_create17h71b7c5f0e7b715efE, symObjAddr: 0x23780, symBinAddr: 0x100043408, symSize: 0xC8 }
  - { offset: 0xBB22E, size: 0x8, addend: 0x0, symName: __ZN3std2fs10DirBuilder14create_dir_all17h937761d2068da9b1E, symObjAddr: 0x23848, symBinAddr: 0x1000434D0, symSize: 0x48C }
  - { offset: 0xBBA16, size: 0x8, addend: 0x0, symName: '__ZN57_$LT$std..fs..Permissions$u20$as$u20$core..fmt..Debug$GT$3fmt17heed23be1e8c92bbcE', symObjAddr: 0x398F8, symBinAddr: 0x1000588B4, symSize: 0x40 }
  - { offset: 0xBBA5D, size: 0x8, addend: 0x0, symName: '__ZN67_$LT$std..hash..random..RandomState$u20$as$u20$core..fmt..Debug$GT$3fmt17h91a5a5309cde5be7E', symObjAddr: 0x23CD4, symBinAddr: 0x10004395C, symSize: 0x38 }
  - { offset: 0xBBA89, size: 0x8, addend: 0x0, symName: '__ZN3std3net11socket_addr136_$LT$impl$u20$std..sys_common..FromInner$LT$libc..unix..bsd..apple..sockaddr_in$GT$$u20$for$u20$core..net..socket_addr..SocketAddrV4$GT$10from_inner17h003e3f0ae6f8dbe4E', symObjAddr: 0x2B438, symBinAddr: 0x10004AEA8, symSize: 0x24 }
  - { offset: 0xBBADB, size: 0x8, addend: 0x0, symName: '__ZN3std3net11socket_addr130_$LT$impl$u20$std..sys_common..FromInner$LT$libc..unix..bsd..sockaddr_in6$GT$$u20$for$u20$core..net..socket_addr..SocketAddrV6$GT$10from_inner17h91dc6b4a77973985E', symObjAddr: 0x2B45C, symBinAddr: 0x10004AECC, symSize: 0x34 }
  - { offset: 0xBBB41, size: 0x8, addend: 0x0, symName: '__ZN3std3net11socket_addr136_$LT$impl$u20$std..sys_common..IntoInner$LT$libc..unix..bsd..apple..sockaddr_in$GT$$u20$for$u20$core..net..socket_addr..SocketAddrV4$GT$10into_inner17h23d4e9200150dfb6E', symObjAddr: 0x2B490, symBinAddr: 0x10004AF00, symSize: 0x30 }
  - { offset: 0xBBB84, size: 0x8, addend: 0x0, symName: '__ZN3std3net11socket_addr130_$LT$impl$u20$std..sys_common..IntoInner$LT$libc..unix..bsd..sockaddr_in6$GT$$u20$for$u20$core..net..socket_addr..SocketAddrV6$GT$10into_inner17hc8a1181b4e07b926E', symObjAddr: 0x2B4C0, symBinAddr: 0x10004AF30, symSize: 0x3C }
  - { offset: 0xBBC0C, size: 0x8, addend: 0x0, symName: __ZN3std3net11socket_addr19resolve_socket_addr17h9a9555674d13c5f9E, symObjAddr: 0x2B4FC, symBinAddr: 0x10004AF6C, symSize: 0x34C }
  - { offset: 0xBC1EF, size: 0x8, addend: 0x0, symName: '__ZN78_$LT$$LP$$RF$str$C$u16$RP$$u20$as$u20$std..net..socket_addr..ToSocketAddrs$GT$15to_socket_addrs17hfdbc94b3ea516bcfE', symObjAddr: 0x2B848, symBinAddr: 0x10004B2B8, symSize: 0x1C8 }
  - { offset: 0xBC3DB, size: 0x8, addend: 0x0, symName: '__ZN92_$LT$$LP$alloc..string..String$C$u16$RP$$u20$as$u20$std..net..socket_addr..ToSocketAddrs$GT$15to_socket_addrs17h0d43fb0fed1a67d0E', symObjAddr: 0x2BA10, symBinAddr: 0x10004B480, symSize: 0x30 }
  - { offset: 0xBC496, size: 0x8, addend: 0x0, symName: '__ZN60_$LT$str$u20$as$u20$std..net..socket_addr..ToSocketAddrs$GT$15to_socket_addrs17hf0bd160f491931eaE', symObjAddr: 0x2BA40, symBinAddr: 0x10004B4B0, symSize: 0xCC }
  - { offset: 0xBC57D, size: 0x8, addend: 0x0, symName: '__ZN78_$LT$alloc..string..String$u20$as$u20$std..net..socket_addr..ToSocketAddrs$GT$15to_socket_addrs17h58cc2efb5968559eE', symObjAddr: 0x2BB0C, symBinAddr: 0x10004B57C, symSize: 0x18 }
  - { offset: 0xBC63E, size: 0x8, addend: 0x0, symName: __ZN3std3net3tcp9TcpStream15connect_timeout17h56cebff8d195f5beE, symObjAddr: 0x2BB24, symBinAddr: 0x10004B594, symSize: 0x4A4 }
  - { offset: 0xBCD5C, size: 0x8, addend: 0x0, symName: __ZN3std3net3tcp9TcpStream9peer_addr17h3554b362af58efedE, symObjAddr: 0x2BFC8, symBinAddr: 0x10004BA38, symSize: 0x18 }
  - { offset: 0xBCD76, size: 0x8, addend: 0x0, symName: __ZN3std3net3tcp9TcpStream12read_timeout17h47eed81d4e1a605aE, symObjAddr: 0x2BFE0, symBinAddr: 0x10004BA50, symSize: 0xFC }
  - { offset: 0xBCEAA, size: 0x8, addend: 0x0, symName: __ZN3std3net3tcp9TcpStream13write_timeout17h464875f35c93936eE, symObjAddr: 0x2C0DC, symBinAddr: 0x10004BB4C, symSize: 0xFC }
  - { offset: 0xBCFDE, size: 0x8, addend: 0x0, symName: __ZN3std3net3tcp9TcpStream10set_linger17h8d4bb2e07016545bE, symObjAddr: 0x2C1D8, symBinAddr: 0x10004BC48, symSize: 0x68 }
  - { offset: 0xBD0BC, size: 0x8, addend: 0x0, symName: __ZN3std3net3tcp9TcpStream6linger17hde64c27886eee0bfE, symObjAddr: 0x2C240, symBinAddr: 0x10004BCB0, symSize: 0x88 }
  - { offset: 0xBD1CA, size: 0x8, addend: 0x0, symName: __ZN3std3net3tcp9TcpStream11set_nodelay17ha953f4aa049ec1dbE, symObjAddr: 0x2C2C8, symBinAddr: 0x10004BD38, symSize: 0x54 }
  - { offset: 0xBD293, size: 0x8, addend: 0x0, symName: __ZN3std3net3tcp9TcpStream7nodelay17he351364d1421ea02E, symObjAddr: 0x2C31C, symBinAddr: 0x10004BD8C, symSize: 0x80 }
  - { offset: 0xBD3A7, size: 0x8, addend: 0x0, symName: '__ZN58_$LT$std..net..tcp..TcpStream$u20$as$u20$std..io..Read$GT$8read_buf17h766ac60dcf1db9b0E', symObjAddr: 0x2C39C, symBinAddr: 0x10004BE0C, symSize: 0x70 }
  - { offset: 0xBD54E, size: 0x8, addend: 0x0, symName: '__ZN58_$LT$std..net..tcp..TcpStream$u20$as$u20$std..io..Read$GT$13read_vectored17h236597a050949e2fE', symObjAddr: 0x2C40C, symBinAddr: 0x10004BE7C, symSize: 0x4C }
  - { offset: 0xBD65D, size: 0x8, addend: 0x0, symName: '__ZN59_$LT$std..net..tcp..TcpStream$u20$as$u20$std..io..Write$GT$14write_vectored17h99e10923c34ffa0fE', symObjAddr: 0x2C458, symBinAddr: 0x10004BEC8, symSize: 0x4C }
  - { offset: 0xBD76E, size: 0x8, addend: 0x0, symName: '__ZN62_$LT$$RF$std..net..tcp..TcpStream$u20$as$u20$std..io..Read$GT$4read17h40e5c288e39be26cE', symObjAddr: 0x2C4A4, symBinAddr: 0x10004BF14, symSize: 0x48 }
  - { offset: 0xBD838, size: 0x8, addend: 0x0, symName: '__ZN62_$LT$$RF$std..net..tcp..TcpStream$u20$as$u20$std..io..Read$GT$8read_buf17h17607437e663d4f8E', symObjAddr: 0x2C4EC, symBinAddr: 0x10004BF5C, symSize: 0x74 }
  - { offset: 0xBD9DF, size: 0x8, addend: 0x0, symName: '__ZN62_$LT$$RF$std..net..tcp..TcpStream$u20$as$u20$std..io..Read$GT$13read_vectored17h3a94ce9bd9fdc4b2E', symObjAddr: 0x2C560, symBinAddr: 0x10004BFD0, symSize: 0x50 }
  - { offset: 0xBDAEE, size: 0x8, addend: 0x0, symName: '__ZN63_$LT$$RF$std..net..tcp..TcpStream$u20$as$u20$std..io..Write$GT$5write17h36cb2328d4cbca5bE', symObjAddr: 0x2C5B0, symBinAddr: 0x10004C020, symSize: 0x48 }
  - { offset: 0xBDB92, size: 0x8, addend: 0x0, symName: '__ZN61_$LT$std..net..tcp..TcpStream$u20$as$u20$core..fmt..Debug$GT$3fmt17h882800acb938acc0E', symObjAddr: 0x2C5F8, symBinAddr: 0x10004C068, symSize: 0x10 }
  - { offset: 0xBDBB3, size: 0x8, addend: 0x0, symName: __ZN3std3net3tcp11TcpListener10local_addr17h32788fbd32115766E, symObjAddr: 0x2C608, symBinAddr: 0x10004C078, symSize: 0x18 }
  - { offset: 0xBDBCE, size: 0x8, addend: 0x0, symName: __ZN3std3net3tcp11TcpListener9try_clone17hed07ed956993125eE, symObjAddr: 0x2C620, symBinAddr: 0x10004C090, symSize: 0x88 }
  - { offset: 0xBDCBB, size: 0x8, addend: 0x0, symName: __ZN3std3net3tcp11TcpListener6accept17h904a7fbefd61a2dcE, symObjAddr: 0x2C6A8, symBinAddr: 0x10004C118, symSize: 0x1A4 }
  - { offset: 0xBDFB5, size: 0x8, addend: 0x0, symName: __ZN3std3net3tcp11TcpListener7set_ttl17hcf505fb70a882ba9E, symObjAddr: 0x2C84C, symBinAddr: 0x10004C2BC, symSize: 0x54 }
  - { offset: 0xBE068, size: 0x8, addend: 0x0, symName: __ZN3std3net3tcp11TcpListener3ttl17ha5ad9ef88b80d615E, symObjAddr: 0x2C8A0, symBinAddr: 0x10004C310, symSize: 0x78 }
  - { offset: 0xBE160, size: 0x8, addend: 0x0, symName: __ZN3std3net3tcp11TcpListener11set_only_v617hcb7077528c321634E, symObjAddr: 0x2C918, symBinAddr: 0x10004C388, symSize: 0x54 }
  - { offset: 0xBE213, size: 0x8, addend: 0x0, symName: __ZN3std3net3tcp11TcpListener7only_v617h943e319b29fef5f0E, symObjAddr: 0x2C96C, symBinAddr: 0x10004C3DC, symSize: 0x80 }
  - { offset: 0xBE311, size: 0x8, addend: 0x0, symName: '__ZN82_$LT$std..net..tcp..Incoming$u20$as$u20$core..iter..traits..iterator..Iterator$GT$4next17h297267faa2bbedfdE', symObjAddr: 0x2C9EC, symBinAddr: 0x10004C45C, symSize: 0x40 }
  - { offset: 0xBE348, size: 0x8, addend: 0x0, symName: '__ZN86_$LT$std..net..tcp..IntoIncoming$u20$as$u20$core..iter..traits..iterator..Iterator$GT$4next17he792dfa44655d055E', symObjAddr: 0x2CA2C, symBinAddr: 0x10004C49C, symSize: 0x3C }
  - { offset: 0xBE37F, size: 0x8, addend: 0x0, symName: '__ZN63_$LT$std..net..tcp..TcpListener$u20$as$u20$core..fmt..Debug$GT$3fmt17hba948c462b1a5fb1E', symObjAddr: 0x2CA68, symBinAddr: 0x10004C4D8, symSize: 0x10 }
  - { offset: 0xBE3A6, size: 0x8, addend: 0x0, symName: __ZN3std3net3udp9UdpSocket9recv_from17h0059481cfc91b9ccE, symObjAddr: 0x2CA78, symBinAddr: 0x10004C4E8, symSize: 0x24 }
  - { offset: 0xBE3EB, size: 0x8, addend: 0x0, symName: __ZN3std3net3udp9UdpSocket9peek_from17he5fb53a0f5cdee11E, symObjAddr: 0x2CA9C, symBinAddr: 0x10004C50C, symSize: 0x24 }
  - { offset: 0xBE430, size: 0x8, addend: 0x0, symName: __ZN3std3net3udp9UdpSocket9peer_addr17hc89c2537828f1eaeE, symObjAddr: 0x2CAC0, symBinAddr: 0x10004C530, symSize: 0x144 }
  - { offset: 0xBE5D2, size: 0x8, addend: 0x0, symName: __ZN3std3net3udp9UdpSocket13set_broadcast17h489126a6bfe688bbE, symObjAddr: 0x2CC04, symBinAddr: 0x10004C674, symSize: 0x54 }
  - { offset: 0xBE685, size: 0x8, addend: 0x0, symName: __ZN3std3net3udp9UdpSocket9broadcast17h015edf61ef0da8ecE, symObjAddr: 0x2CC58, symBinAddr: 0x10004C6C8, symSize: 0x80 }
  - { offset: 0xBE77D, size: 0x8, addend: 0x0, symName: __ZN3std3net3udp9UdpSocket21set_multicast_loop_v417hc1339304ef2cd55cE, symObjAddr: 0x2CCD8, symBinAddr: 0x10004C748, symSize: 0x54 }
  - { offset: 0xBE830, size: 0x8, addend: 0x0, symName: __ZN3std3net3udp9UdpSocket17multicast_loop_v417h74ee925e6fa1c2beE, symObjAddr: 0x2CD2C, symBinAddr: 0x10004C79C, symSize: 0x80 }
  - { offset: 0xBE928, size: 0x8, addend: 0x0, symName: __ZN3std3net3udp9UdpSocket20set_multicast_ttl_v417he0b1503783031abeE, symObjAddr: 0x2CDAC, symBinAddr: 0x10004C81C, symSize: 0x54 }
  - { offset: 0xBE9DB, size: 0x8, addend: 0x0, symName: __ZN3std3net3udp9UdpSocket16multicast_ttl_v417h8073843847bd4943E, symObjAddr: 0x2CE00, symBinAddr: 0x10004C870, symSize: 0x78 }
  - { offset: 0xBEAD3, size: 0x8, addend: 0x0, symName: __ZN3std3net3udp9UdpSocket21set_multicast_loop_v617h731a02aeafff8655E, symObjAddr: 0x2CE78, symBinAddr: 0x10004C8E8, symSize: 0x54 }
  - { offset: 0xBEB86, size: 0x8, addend: 0x0, symName: __ZN3std3net3udp9UdpSocket17multicast_loop_v617h57a6c540d6afe3f6E, symObjAddr: 0x2CECC, symBinAddr: 0x10004C93C, symSize: 0x80 }
  - { offset: 0xBEC7E, size: 0x8, addend: 0x0, symName: __ZN3std3net3udp9UdpSocket17join_multicast_v417h84934bb976abd11bE, symObjAddr: 0x2CF4C, symBinAddr: 0x10004C9BC, symSize: 0x60 }
  - { offset: 0xBED31, size: 0x8, addend: 0x0, symName: __ZN3std3net3udp9UdpSocket17join_multicast_v617he023a6e92232f9f2E, symObjAddr: 0x2CFAC, symBinAddr: 0x10004CA1C, symSize: 0x5C }
  - { offset: 0xBEDF9, size: 0x8, addend: 0x0, symName: __ZN3std3net3udp9UdpSocket18leave_multicast_v417h8749c6e8b8fd2e24E, symObjAddr: 0x2D008, symBinAddr: 0x10004CA78, symSize: 0x60 }
  - { offset: 0xBEEAC, size: 0x8, addend: 0x0, symName: __ZN3std3net3udp9UdpSocket18leave_multicast_v617h529b2e09fbad0784E, symObjAddr: 0x2D068, symBinAddr: 0x10004CAD8, symSize: 0x5C }
  - { offset: 0xBEF74, size: 0x8, addend: 0x0, symName: __ZN3std3net3udp9UdpSocket4send17hd98e667ffbd7cf05E, symObjAddr: 0x2D0C4, symBinAddr: 0x10004CB34, symSize: 0x44 }
  - { offset: 0xBF018, size: 0x8, addend: 0x0, symName: '__ZN61_$LT$std..net..udp..UdpSocket$u20$as$u20$core..fmt..Debug$GT$3fmt17hcd93dc31a8e62239E', symObjAddr: 0x2D108, symBinAddr: 0x10004CB78, symSize: 0x10 }
  - { offset: 0xBF078, size: 0x8, addend: 0x0, symName: '__ZN91_$LT$std..sys_common..net..LookupHost$u20$as$u20$core..iter..traits..iterator..Iterator$GT$4next17hf9d375d99b4c6195E', symObjAddr: 0x44470, symBinAddr: 0x100062984, symSize: 0xFC }
  - { offset: 0xBF151, size: 0x8, addend: 0x0, symName: '__ZN74_$LT$std..sys_common..net..LookupHost$u20$as$u20$core..ops..drop..Drop$GT$4drop17h6ba72149274629bfE', symObjAddr: 0x4456C, symBinAddr: 0x100062A80, symSize: 0x14 }
  - { offset: 0xBF178, size: 0x8, addend: 0x0, symName: '__ZN104_$LT$std..sys_common..net..LookupHost$u20$as$u20$core..convert..TryFrom$LT$$LP$$RF$str$C$u16$RP$$GT$$GT$8try_from17h501889bd65b56b4cE', symObjAddr: 0x446B8, symBinAddr: 0x100062BCC, symSize: 0xB8 }
  - { offset: 0xBF1FD, size: 0x8, addend: 0x0, symName: '__ZN104_$LT$std..sys_common..net..LookupHost$u20$as$u20$core..convert..TryFrom$LT$$LP$$RF$str$C$u16$RP$$GT$$GT$8try_from28_$u7b$$u7b$closure$u7d$$u7d$17h0f122c5a413449d4E', symObjAddr: 0x44770, symBinAddr: 0x100062C84, symSize: 0x1A8 }
  - { offset: 0xBF6E2, size: 0x8, addend: 0x0, symName: __ZN3std10sys_common3net9TcpStream7connect17h6eb84a585df2e089E, symObjAddr: 0x44918, symBinAddr: 0x100062E2C, symSize: 0x12C }
  - { offset: 0xBF823, size: 0x8, addend: 0x0, symName: __ZN3std10sys_common3net9TcpStream9peer_addr17h8df7a49454ae10f2E, symObjAddr: 0x44A44, symBinAddr: 0x100062F58, symSize: 0x148 }
  - { offset: 0xBF9CD, size: 0x8, addend: 0x0, symName: '__ZN3std10sys_common3net154_$LT$impl$u20$std..sys_common..IntoInner$LT$$LP$std..sys_common..net..SocketAddrCRepr$C$u32$RP$$GT$$u20$for$u20$$RF$core..net..socket_addr..SocketAddr$GT$10into_inner17hd4fe49cd365cd086E', symObjAddr: 0x454D4, symBinAddr: 0x1000639E8, symSize: 0x70 }
  - { offset: 0xBFAFD, size: 0x8, addend: 0x0, symName: __ZN3std10sys_common3net11TcpListener4bind17h2453d42d646cd608E, symObjAddr: 0x44D68, symBinAddr: 0x10006327C, symSize: 0x14C }
  - { offset: 0xBFC4F, size: 0x8, addend: 0x0, symName: __ZN3std10sys_common3net11TcpListener11socket_addr17h14638d8b1d7a7971E, symObjAddr: 0x44EB4, symBinAddr: 0x1000633C8, symSize: 0x148 }
  - { offset: 0xBFECB, size: 0x8, addend: 0x0, symName: __ZN3std10sys_common3net9UdpSocket4bind17h6068654714603269E, symObjAddr: 0x45130, symBinAddr: 0x100063644, symSize: 0x10C }
  - { offset: 0xC0042, size: 0x8, addend: 0x0, symName: __ZN3std10sys_common3net9UdpSocket7send_to17h1b7390032ead3c9bE, symObjAddr: 0x4523C, symBinAddr: 0x100063750, symSize: 0xA0 }
  - { offset: 0xC0060, size: 0x8, addend: 0x0, symName: __ZN3std10sys_common3net9UdpSocket7send_to17h1b7390032ead3c9bE, symObjAddr: 0x4523C, symBinAddr: 0x100063750, symSize: 0xA0 }
  - { offset: 0xC012E, size: 0x8, addend: 0x0, symName: __ZN3std10sys_common3net9UdpSocket7connect17h637cead969752c50E, symObjAddr: 0x452DC, symBinAddr: 0x1000637F0, symSize: 0xC4 }
  - { offset: 0xC0273, size: 0x8, addend: 0x0, symName: '__ZN90_$LT$std..sys_common..net..LookupHost$u20$as$u20$core..convert..TryFrom$LT$$RF$str$GT$$GT$8try_from17h1d942cf275b45e2aE', symObjAddr: 0x44580, symBinAddr: 0x100062A94, symSize: 0x138 }
  - { offset: 0xC04B6, size: 0x8, addend: 0x0, symName: '__ZN68_$LT$std..sys_common..net..TcpStream$u20$as$u20$core..fmt..Debug$GT$3fmt17h88389b51e1cdbcd7E', symObjAddr: 0x44B8C, symBinAddr: 0x1000630A0, symSize: 0x1DC }
  - { offset: 0xC098E, size: 0x8, addend: 0x0, symName: '__ZN70_$LT$std..sys_common..net..TcpListener$u20$as$u20$core..fmt..Debug$GT$3fmt17h7138f0ac777acd2bE', symObjAddr: 0x44FFC, symBinAddr: 0x100063510, symSize: 0x134 }
  - { offset: 0xC0BE2, size: 0x8, addend: 0x0, symName: '__ZN68_$LT$std..sys_common..net..UdpSocket$u20$as$u20$core..fmt..Debug$GT$3fmt17h20bcab4f019262a9E', symObjAddr: 0x453A0, symBinAddr: 0x1000638B4, symSize: 0x134 }
  - { offset: 0xC0E56, size: 0x8, addend: 0x0, symName: __ZN3std10sys_common7process10CommandEnv3set17h5126219c81a5a726E, symObjAddr: 0x369C8, symBinAddr: 0x100055A04, symSize: 0x198 }
  - { offset: 0xC1316, size: 0x8, addend: 0x0, symName: __ZN3std10sys_common7process10CommandEnv6remove17h87bd0cfcb067b06aE, symObjAddr: 0x36B60, symBinAddr: 0x100055B9C, symSize: 0x3AC }
  - { offset: 0xC1ECC, size: 0x8, addend: 0x0, symName: '__ZN73_$LT$std..sys_common..process..CommandEnv$u20$as$u20$core..fmt..Debug$GT$3fmt17h08fd758fa16d024dE', symObjAddr: 0x36944, symBinAddr: 0x100055980, symSize: 0x84 }
  - { offset: 0xC1EFF, size: 0x8, addend: 0x0, symName: '__ZN96_$LT$std..sys_common..process..CommandEnvs$u20$as$u20$core..iter..traits..iterator..Iterator$GT$4next17h71912663947a1fd4E', symObjAddr: 0x36F0C, symBinAddr: 0x100055F48, symSize: 0x50 }
  - { offset: 0xC1F7D, size: 0x8, addend: 0x0, symName: __ZN3std10sys_common2fs6exists17hf4237e3163747761E, symObjAddr: 0x3671C, symBinAddr: 0x100055758, symSize: 0x228 }
  - { offset: 0xC2316, size: 0x8, addend: 0x0, symName: '__ZN91_$LT$std..sys_common..wstr..WStrUnits$u20$as$u20$core..iter..traits..iterator..Iterator$GT$4next17hf19677f74ce2bd2fE', symObjAddr: 0x36F5C, symBinAddr: 0x100055F98, symSize: 0x28 }
  - { offset: 0xC2386, size: 0x8, addend: 0x0, symName: __ZN3std10sys_common4wtf87Wtf8Buf25push_code_point_unchecked17he5117008cc7b5216E, symObjAddr: 0x36F9C, symBinAddr: 0x100055FD8, symSize: 0x124 }
  - { offset: 0xC24F2, size: 0x8, addend: 0x0, symName: '__ZN74_$LT$std..sys_common..wtf8..Wtf8Buf$u20$as$u20$core..ops..deref..Deref$GT$5deref17h5545f02803c8f80cE', symObjAddr: 0x36F84, symBinAddr: 0x100055FC0, symSize: 0x18 }
  - { offset: 0xC25CC, size: 0x8, addend: 0x0, symName: '__ZN64_$LT$std..sys_common..wtf8..Wtf8$u20$as$u20$core..fmt..Debug$GT$3fmt17h01c62b181c72b5cdE', symObjAddr: 0x370C0, symBinAddr: 0x1000560FC, symSize: 0x21C }
  - { offset: 0xC2879, size: 0x8, addend: 0x0, symName: '__ZN64_$LT$std..sys_common..wtf8..Wtf8$u20$as$u20$core..fmt..Debug$GT$3fmt17write_str_escaped17habeda8e9b6ef8e1eE', symObjAddr: 0x372DC, symBinAddr: 0x100056318, symSize: 0x320 }
  - { offset: 0xC2AFA, size: 0x8, addend: 0x0, symName: '__ZN66_$LT$std..sys_common..wtf8..Wtf8$u20$as$u20$core..fmt..Display$GT$3fmt17hb9830eabf2a4c043E', symObjAddr: 0x375FC, symBinAddr: 0x100056638, symSize: 0x1E4 }
  - { offset: 0xC2CCD, size: 0x8, addend: 0x0, symName: __ZN3std10sys_common4wtf816slice_error_fail17h8f85e77ce60fb980E, symObjAddr: 0x377E0, symBinAddr: 0x10005681C, symSize: 0x8C }
  - { offset: 0xC2D16, size: 0x8, addend: 0x0, symName: __ZN3std4pipe10PipeReader9try_clone17h185984fcffa8a737E, symObjAddr: 0x32874, symBinAddr: 0x1000522E4, symSize: 0x88 }
  - { offset: 0xC2E0C, size: 0x8, addend: 0x0, symName: '__ZN59_$LT$$RF$std..pipe..PipeReader$u20$as$u20$std..io..Read$GT$4read17h2d2af7f008861fe6E', symObjAddr: 0x328FC, symBinAddr: 0x10005236C, symSize: 0x50 }
  - { offset: 0xC2F11, size: 0x8, addend: 0x0, symName: '__ZN59_$LT$$RF$std..pipe..PipeReader$u20$as$u20$std..io..Read$GT$13read_vectored17h22aac44c262d398aE', symObjAddr: 0x3294C, symBinAddr: 0x1000523BC, symSize: 0x50 }
  - { offset: 0xC3016, size: 0x8, addend: 0x0, symName: '__ZN59_$LT$$RF$std..pipe..PipeReader$u20$as$u20$std..io..Read$GT$11read_to_end17h8e9c58201554956fE', symObjAddr: 0x3299C, symBinAddr: 0x10005240C, symSize: 0x14 }
  - { offset: 0xC3030, size: 0x8, addend: 0x0, symName: '__ZN59_$LT$$RF$std..pipe..PipeReader$u20$as$u20$std..io..Read$GT$8read_buf17h3b69056b1f6f5825E', symObjAddr: 0x329B0, symBinAddr: 0x100052420, symSize: 0x7C }
  - { offset: 0xC3215, size: 0x8, addend: 0x0, symName: '__ZN55_$LT$std..pipe..PipeReader$u20$as$u20$std..io..Read$GT$11read_to_end17h8e6989b405345275E', symObjAddr: 0x32A2C, symBinAddr: 0x10005249C, symSize: 0x10 }
  - { offset: 0xC3235, size: 0x8, addend: 0x0, symName: '__ZN60_$LT$$RF$std..pipe..PipeWriter$u20$as$u20$std..io..Write$GT$5write17h99dd5cf3805ee463E', symObjAddr: 0x32A3C, symBinAddr: 0x1000524AC, symSize: 0x50 }
  - { offset: 0xC333D, size: 0x8, addend: 0x0, symName: '__ZN60_$LT$$RF$std..pipe..PipeWriter$u20$as$u20$std..io..Write$GT$14write_vectored17h0136097c29228641E', symObjAddr: 0x32A8C, symBinAddr: 0x1000524FC, symSize: 0x50 }
  - { offset: 0xC344B, size: 0x8, addend: 0x0, symName: '__ZN56_$LT$std..pipe..PipeWriter$u20$as$u20$std..io..Write$GT$5write17h06706f538c2c4d3eE', symObjAddr: 0x32ADC, symBinAddr: 0x10005254C, symSize: 0x4C }
  - { offset: 0xC3553, size: 0x8, addend: 0x0, symName: '__ZN56_$LT$std..pipe..PipeWriter$u20$as$u20$std..io..Write$GT$14write_vectored17h9dd41bbf66ff562fE', symObjAddr: 0x32B28, symBinAddr: 0x100052598, symSize: 0x4C }
  - { offset: 0xC3667, size: 0x8, addend: 0x0, symName: '__ZN79_$LT$std..random..DefaultRandomSource$u20$as$u20$core..random..RandomSource$GT$10fill_bytes17h64acf431bece2142E', symObjAddr: 0x33B04, symBinAddr: 0x100053568, symSize: 0x68 }
  - { offset: 0xC3696, size: 0x8, addend: 0x0, symName: __ZN3std5alloc20set_alloc_error_hook17hd221648460304535E, symObjAddr: 0x3786C, symBinAddr: 0x1000568A8, symSize: 0x1C }
  - { offset: 0xC36DD, size: 0x8, addend: 0x0, symName: __ZN3std5alloc21take_alloc_error_hook17h7569abb2a2bb3769E, symObjAddr: 0x37888, symBinAddr: 0x1000568C4, symSize: 0x2C }
  - { offset: 0xC3724, size: 0x8, addend: 0x0, symName: __ZN3std5alloc24default_alloc_error_hook17h5cca8f42fb77b5beE, symObjAddr: 0x378B4, symBinAddr: 0x1000568F0, symSize: 0x13C }
  - { offset: 0xC395D, size: 0x8, addend: 0x0, symName: ___rdl_alloc, symObjAddr: 0x379F0, symBinAddr: 0x100056A2C, symSize: 0x6C }
  - { offset: 0xC39EC, size: 0x8, addend: 0x0, symName: ___rdl_dealloc, symObjAddr: 0x37A5C, symBinAddr: 0x100056A98, symSize: 0x10 }
  - { offset: 0xC3A19, size: 0x8, addend: 0x0, symName: ___rdl_realloc, symObjAddr: 0x37A6C, symBinAddr: 0x100056AA8, symSize: 0xB0 }
  - { offset: 0xC3B14, size: 0x8, addend: 0x0, symName: ___rdl_alloc_zeroed, symObjAddr: 0x37B1C, symBinAddr: 0x100056B58, symSize: 0x90 }
  - { offset: 0xC3BC5, size: 0x8, addend: 0x0, symName: __ZN3std5alloc8rust_oom17ha54d832161426ec7E, symObjAddr: 0x45544, symBinAddr: 0x100063A58, symSize: 0x2C }
  - { offset: 0xC3C11, size: 0x8, addend: 0x0, symName: ___rg_oom, symObjAddr: 0x45570, symBinAddr: 0x100063A84, symSize: 0x18 }
  - { offset: 0xC3CC9, size: 0x8, addend: 0x0, symName: '__ZN9addr2line8function17Function$LT$R$GT$14parse_children17h5a96da23ad314619E', symObjAddr: 0x1C9D0, symBinAddr: 0x10003C84C, symSize: 0x1084 }
  - { offset: 0xC51AD, size: 0x8, addend: 0x0, symName: __ZN9addr2line8function10name_entry17h60ce7a95dfc3cfa2E, symObjAddr: 0x1C668, symBinAddr: 0x10003C4E4, symSize: 0x368 }
  - { offset: 0xC55C5, size: 0x8, addend: 0x0, symName: __ZN9addr2line8function9name_attr17h8910c26a4607af82E, symObjAddr: 0x1DA54, symBinAddr: 0x10003D8D0, symSize: 0x1B4 }
  - { offset: 0xC574D, size: 0x8, addend: 0x0, symName: __ZN9addr2line11render_file17h9f078ff6f661a719E, symObjAddr: 0x18A38, symBinAddr: 0x1000388B4, symSize: 0x4B8 }
  - { offset: 0xC5FDB, size: 0x8, addend: 0x0, symName: '__ZN9addr2line16Context$LT$R$GT$9find_unit17h02e652107e14180dE', symObjAddr: 0x18EF0, symBinAddr: 0x100038D6C, symSize: 0x168 }
  - { offset: 0xC61E8, size: 0x8, addend: 0x0, symName: '__ZN9addr2line16ResUnit$LT$R$GT$25find_function_or_location17h88e9cf0d105a9d5cE', symObjAddr: 0x19058, symBinAddr: 0x100038ED4, symSize: 0x3B4 }
  - { offset: 0xC6614, size: 0x8, addend: 0x0, symName: '__ZN9addr2line16ResUnit$LT$R$GT$25find_function_or_location28_$u7b$$u7b$closure$u7d$$u7d$17hf794ef008246ce60E', symObjAddr: 0x1940C, symBinAddr: 0x100039288, symSize: 0x16F8 }
  - { offset: 0xC91BB, size: 0x8, addend: 0x0, symName: '__ZN9addr2line18FrameIter$LT$R$GT$4next17h5d9dc218a3d70785E', symObjAddr: 0x1AB04, symBinAddr: 0x10003A980, symSize: 0x2FC }
  - { offset: 0xC9679, size: 0x8, addend: 0x0, symName: '__ZN9addr2line30LoopingLookup$LT$T$C$L$C$F$GT$10new_lookup17h69ec4693d316778dE', symObjAddr: 0x1AE00, symBinAddr: 0x10003AC7C, symSize: 0x404 }
  - { offset: 0xC9B61, size: 0x8, addend: 0x0, symName: __ZN9addr2line5Lines5parse17h239c9d0fb9e4388cE, symObjAddr: 0x1B204, symBinAddr: 0x10003B080, symSize: 0x1464 }
  - { offset: 0xCC7BC, size: 0x8, addend: 0x0, symName: __ZN5gimli4read6reader6Reader11read_offset17h507167eba07c55b2E, symObjAddr: 0x1688C, symBinAddr: 0x100036708, symSize: 0xBC }
  - { offset: 0xCC9F8, size: 0x8, addend: 0x0, symName: __ZN5gimli4read6reader6Reader12read_sleb12817h8ea8408dd43930a7E, symObjAddr: 0x16948, symBinAddr: 0x1000367C4, symSize: 0x21C }
  - { offset: 0xCCAE7, size: 0x8, addend: 0x0, symName: __ZN5gimli4read6reader6Reader12read_uleb12817h3f9bded8998600a1E, symObjAddr: 0x16B64, symBinAddr: 0x1000369E0, symSize: 0xB0 }
  - { offset: 0xCCB9C, size: 0x8, addend: 0x0, symName: __ZN5gimli4read6reader6Reader17read_sized_offset17h7fb8b8082a308758E, symObjAddr: 0x16C14, symBinAddr: 0x100036A90, symSize: 0xEC }
  - { offset: 0xCCFCD, size: 0x8, addend: 0x0, symName: '__ZN5gimli4read4unit32AttributeValue$LT$R$C$Offset$GT$11udata_value17h78a0cae784eb90bbE', symObjAddr: 0x13DF8, symBinAddr: 0x100033C74, symSize: 0x90 }
  - { offset: 0xCD028, size: 0x8, addend: 0x0, symName: __ZN5gimli4read4unit15parse_attribute17h948770c1726d773bE, symObjAddr: 0x120E0, symBinAddr: 0x100031F5C, symSize: 0xF68 }
  - { offset: 0xCFC7E, size: 0x8, addend: 0x0, symName: __ZN5gimli4read4unit15skip_attributes17hf7d782d82a91ce5dE, symObjAddr: 0x13048, symBinAddr: 0x100032EC4, symSize: 0x520 }
  - { offset: 0xD069B, size: 0x8, addend: 0x0, symName: '__ZN5gimli4read4unit18Attribute$LT$R$GT$5value17hed9fc3bf893aa23aE', symObjAddr: 0x13568, symBinAddr: 0x1000333E4, symSize: 0x5DC }
  - { offset: 0xD0C07, size: 0x8, addend: 0x0, symName: '__ZN5gimli4read4unit22EntriesCursor$LT$R$GT$10next_entry17hd23780b78bf6f453E', symObjAddr: 0x13B44, symBinAddr: 0x1000339C0, symSize: 0x2B4 }
  - { offset: 0xD1179, size: 0x8, addend: 0x0, symName: '__ZN5gimli4read4unit33DebugInfoUnitHeadersIter$LT$R$GT$4next17h7b27487e1890ae2aE', symObjAddr: 0x13E88, symBinAddr: 0x100033D04, symSize: 0x4D4 }
  - { offset: 0xD22DF, size: 0x8, addend: 0x0, symName: '__ZN90_$LT$gimli..read..unit..AttributeValue$LT$R$C$Offset$GT$$u20$as$u20$core..clone..Clone$GT$5clone17hac5ae9c9c6c8d42fE', symObjAddr: 0x184D0, symBinAddr: 0x10003834C, symSize: 0x68 }
  - { offset: 0xD2405, size: 0x8, addend: 0x0, symName: __ZN5gimli4read4line13parse_file_v517h64c1bf063e2a127bE, symObjAddr: 0x10FB8, symBinAddr: 0x100030E34, symSize: 0x278 }
  - { offset: 0xD257C, size: 0x8, addend: 0x0, symName: __ZN5gimli4read4line15FileEntryFormat5parse17hf3c6024dca6e391dE, symObjAddr: 0x11230, symBinAddr: 0x1000310AC, symSize: 0x350 }
  - { offset: 0xD2D8A, size: 0x8, addend: 0x0, symName: __ZN5gimli4read4line15parse_attribute17hcacf4681423038ddE, symObjAddr: 0x11580, symBinAddr: 0x1000313FC, symSize: 0x868 }
  - { offset: 0xD451F, size: 0x8, addend: 0x0, symName: __ZN5gimli4read4line18parse_directory_v517heb01e2d78153f60bE, symObjAddr: 0x11DE8, symBinAddr: 0x100031C64, symSize: 0xE8 }
  - { offset: 0xD45AF, size: 0x8, addend: 0x0, symName: '__ZN5gimli4read4line27FileEntry$LT$R$C$Offset$GT$5parse17hadc56d2b0249308dE', symObjAddr: 0x11ED0, symBinAddr: 0x100031D4C, symSize: 0x210 }
  - { offset: 0xD4898, size: 0x8, addend: 0x0, symName: '__ZN93_$LT$gimli..read..line..LineProgramHeader$LT$R$C$Offset$GT$$u20$as$u20$core..clone..Clone$GT$5clone17h02398f1a99a50a4fE', symObjAddr: 0x18538, symBinAddr: 0x1000383B4, symSize: 0x448 }
  - { offset: 0xD54C1, size: 0x8, addend: 0x0, symName: '__ZN5gimli4read5dwarf14Dwarf$LT$R$GT$11attr_string17h23281c43e7d8666cE', symObjAddr: 0x15FC4, symBinAddr: 0x100035E40, symSize: 0x1E8 }
  - { offset: 0xD5CE2, size: 0x8, addend: 0x0, symName: '__ZN5gimli4read5dwarf13Unit$LT$R$GT$3new17h60a6e7428346a71eE', symObjAddr: 0x1435C, symBinAddr: 0x1000341D8, symSize: 0x1C68 }
  - { offset: 0xD9842, size: 0x8, addend: 0x0, symName: '__ZN5gimli4read5index18UnitIndex$LT$R$GT$5parse17h55b5c12b00c2d27cE', symObjAddr: 0x161AC, symBinAddr: 0x100036028, symSize: 0x6E0 }
  - { offset: 0xD9E16, size: 0x8, addend: 0x0, symName: '__ZN5gimli4read7aranges30ArangeHeader$LT$R$C$Offset$GT$5parse17h8b32058b43fa7eedE', symObjAddr: 0x16D00, symBinAddr: 0x100036B7C, symSize: 0x29C }
  - { offset: 0xDA646, size: 0x8, addend: 0x0, symName: '__ZN5gimli4read8rnglists20RngListIter$LT$R$GT$4next17hed01def4856eca9aE', symObjAddr: 0x16F9C, symBinAddr: 0x100036E18, symSize: 0xC3C }
  - { offset: 0xDD501, size: 0x8, addend: 0x0, symName: __ZN6object4read7archive13ArchiveMember5parse17hec8f05bf7f831dc2E, symObjAddr: 0x18094, symBinAddr: 0x100037F10, symSize: 0x2E0 }
  - { offset: 0xDDA8E, size: 0x8, addend: 0x0, symName: __ZN6object4read7archive23parse_bsd_extended_name17hcd252cd855568d2fE, symObjAddr: 0x18374, symBinAddr: 0x1000381F0, symSize: 0xB8 }
  - { offset: 0xDE1BD, size: 0x8, addend: 0x0, symName: _OUTLINED_FUNCTION_0, symObjAddr: 0x4B37C, symBinAddr: 0x100069890, symSize: 0x24 }
  - { offset: 0xDE1D5, size: 0x8, addend: 0x0, symName: _OUTLINED_FUNCTION_1, symObjAddr: 0x4B3A0, symBinAddr: 0x1000698B4, symSize: 0x8 }
  - { offset: 0xDE1ED, size: 0x8, addend: 0x0, symName: _OUTLINED_FUNCTION_2, symObjAddr: 0x4B3A8, symBinAddr: 0x1000698BC, symSize: 0x8 }
  - { offset: 0xDE205, size: 0x8, addend: 0x0, symName: _OUTLINED_FUNCTION_3, symObjAddr: 0x4B3B0, symBinAddr: 0x1000698C4, symSize: 0x8 }
  - { offset: 0xDE21D, size: 0x8, addend: 0x0, symName: _OUTLINED_FUNCTION_4, symObjAddr: 0x4B3B8, symBinAddr: 0x1000698CC, symSize: 0x8 }
  - { offset: 0xDE235, size: 0x8, addend: 0x0, symName: _OUTLINED_FUNCTION_5, symObjAddr: 0x4B3C0, symBinAddr: 0x1000698D4, symSize: 0xC }
  - { offset: 0xDE24D, size: 0x8, addend: 0x0, symName: _OUTLINED_FUNCTION_6, symObjAddr: 0x4B3CC, symBinAddr: 0x1000698E0, symSize: 0xC }
  - { offset: 0xDE265, size: 0x8, addend: 0x0, symName: _OUTLINED_FUNCTION_7, symObjAddr: 0x4B3D8, symBinAddr: 0x1000698EC, symSize: 0xC }
  - { offset: 0xDE29B, size: 0x8, addend: 0x0, symName: '__ZN4core3ptr49drop_in_place$LT$panic_unwind..imp..Exception$GT$17hed54968f30dd5290E', symObjAddr: 0x0, symBinAddr: 0x1000698F8, symSize: 0x78 }
  - { offset: 0xDE2C1, size: 0x8, addend: 0x0, symName: '__ZN4core3ptr49drop_in_place$LT$panic_unwind..imp..Exception$GT$17hed54968f30dd5290E', symObjAddr: 0x0, symBinAddr: 0x1000698F8, symSize: 0x78 }
  - { offset: 0xDE3C8, size: 0x8, addend: 0x0, symName: '__ZN4core3ptr74drop_in_place$LT$alloc..boxed..Box$LT$panic_unwind..imp..Exception$GT$$GT$17h6b9081c1409d55c1E', symObjAddr: 0x78, symBinAddr: 0x100069970, symSize: 0x8C }
  - { offset: 0xDE69D, size: 0x8, addend: 0x0, symName: __ZN12panic_unwind3imp5panic17exception_cleanup17hc2dfc11f5b65ae4bE, symObjAddr: 0x214, symBinAddr: 0x100069B0C, symSize: 0x18 }
  - { offset: 0xDE6B9, size: 0x8, addend: 0x0, symName: ___rust_panic_cleanup, symObjAddr: 0x104, symBinAddr: 0x1000699FC, symSize: 0x68 }
  - { offset: 0xDE75B, size: 0x8, addend: 0x0, symName: ___rust_start_panic, symObjAddr: 0x16C, symBinAddr: 0x100069A64, symSize: 0xA8 }
  - { offset: 0xDE815, size: 0x8, addend: 0x0, symName: '__ZN42_$LT$$RF$T$u20$as$u20$core..fmt..Debug$GT$3fmt17hc10e7420f6dffb19E', symObjAddr: 0x0, symBinAddr: 0x10006D664, symSize: 0x30 }
  - { offset: 0xDE85F, size: 0x8, addend: 0x0, symName: '__ZN42_$LT$$RF$T$u20$as$u20$core..fmt..Debug$GT$3fmt17hc10e7420f6dffb19E', symObjAddr: 0x0, symBinAddr: 0x10006D664, symSize: 0x30 }
  - { offset: 0xDE8CE, size: 0x8, addend: 0x0, symName: __ZN4core9panicking13assert_failed17h01057eccb24808cdE, symObjAddr: 0x30, symBinAddr: 0x1000A9A68, symSize: 0x38 }
  - { offset: 0xDEEEB, size: 0x8, addend: 0x0, symName: __ZN6memchr6memchr8fallback6memchr17h9a7d91b4f82895aaE, symObjAddr: 0x68, symBinAddr: 0x10006D694, symSize: 0x148 }
  - { offset: 0xDEF02, size: 0x8, addend: 0x0, symName: __ZN6memchr6memchr8fallback6memchr17h9a7d91b4f82895aaE, symObjAddr: 0x68, symBinAddr: 0x10006D694, symSize: 0x148 }
  - { offset: 0xDEFF1, size: 0x8, addend: 0x0, symName: __ZN6memchr6memchr8fallback7memchr217h38dab6640d5cf3f6E, symObjAddr: 0x1B0, symBinAddr: 0x10006D7DC, symSize: 0x154 }
  - { offset: 0xDF00E, size: 0x8, addend: 0x0, symName: __ZN6memchr6memchr8fallback7memchr217h38dab6640d5cf3f6E, symObjAddr: 0x1B0, symBinAddr: 0x10006D7DC, symSize: 0x154 }
  - { offset: 0xDF15F, size: 0x8, addend: 0x0, symName: __ZN6memchr6memchr8fallback7memchr317hafed0fa242bbdc25E, symObjAddr: 0x304, symBinAddr: 0x10006D930, symSize: 0x18C }
  - { offset: 0xDF17C, size: 0x8, addend: 0x0, symName: __ZN6memchr6memchr8fallback7memchr317hafed0fa242bbdc25E, symObjAddr: 0x304, symBinAddr: 0x10006D930, symSize: 0x18C }
  - { offset: 0xDF2D5, size: 0x8, addend: 0x0, symName: __ZN6memchr6memchr8fallback7memrchr17hc1d2f49453f4f6ecE, symObjAddr: 0x490, symBinAddr: 0x10006DABC, symSize: 0x130 }
  - { offset: 0xDF2EC, size: 0x8, addend: 0x0, symName: __ZN6memchr6memchr8fallback7memrchr17hc1d2f49453f4f6ecE, symObjAddr: 0x490, symBinAddr: 0x10006DABC, symSize: 0x130 }
  - { offset: 0xDF389, size: 0x8, addend: 0x0, symName: __ZN6memchr6memchr8fallback8memrchr217h7b1b6ee0be3d7d91E, symObjAddr: 0x5C0, symBinAddr: 0x10006DBEC, symSize: 0x144 }
  - { offset: 0xDF3A6, size: 0x8, addend: 0x0, symName: __ZN6memchr6memchr8fallback8memrchr217h7b1b6ee0be3d7d91E, symObjAddr: 0x5C0, symBinAddr: 0x10006DBEC, symSize: 0x144 }
  - { offset: 0xDF4AD, size: 0x8, addend: 0x0, symName: __ZN6memchr6memchr8fallback8memrchr317h324e2ab5b51a436fE, symObjAddr: 0x704, symBinAddr: 0x10006DD30, symSize: 0x17C }
  - { offset: 0xDF4CA, size: 0x8, addend: 0x0, symName: __ZN6memchr6memchr8fallback8memrchr317h324e2ab5b51a436fE, symObjAddr: 0x704, symBinAddr: 0x10006DD30, symSize: 0x17C }
  - { offset: 0xDF70F, size: 0x8, addend: 0x0, symName: __ZN6memchr6memmem9prefilter8fallback4find17hd8329412f41edffbE, symObjAddr: 0x880, symBinAddr: 0x10006DEAC, symSize: 0x240 }
  - { offset: 0xDF8D0, size: 0x8, addend: 0x0, symName: '__ZN75_$LT$memchr..memmem..prefilter..PrefilterFn$u20$as$u20$core..fmt..Debug$GT$3fmt17hc09b70f550f9b5a1E', symObjAddr: 0xAC0, symBinAddr: 0x10006E0EC, symSize: 0x20 }
  - { offset: 0xDFA2E, size: 0x8, addend: 0x0, symName: __ZN6memchr6memmem9rabinkarp4find17hca20a4ff56292241E, symObjAddr: 0xAE0, symBinAddr: 0x10006E10C, symSize: 0x12C }
  - { offset: 0xDFBFD, size: 0x8, addend: 0x0, symName: __ZN6memchr6memmem9rabinkarp5rfind17h225ffd3602b46ae7E, symObjAddr: 0xC0C, symBinAddr: 0x10006E238, symSize: 0x15C }
  - { offset: 0xDFDBB, size: 0x8, addend: 0x0, symName: __ZN6memchr6memmem9rabinkarp10rfind_with17h3b9b93dc156cbc5fE, symObjAddr: 0xD68, symBinAddr: 0x10006E394, symSize: 0xE0 }
  - { offset: 0xDFE9B, size: 0x8, addend: 0x0, symName: __ZN6memchr6memmem9rabinkarp9is_prefix17hebf3adbebf958a9cE, symObjAddr: 0xE48, symBinAddr: 0x1000A9AA0, symSize: 0xE0 }
  - { offset: 0xDFF76, size: 0x8, addend: 0x0, symName: __ZN6memchr6memmem9rabinkarp9is_suffix17h2275ce5477eacdd3E, symObjAddr: 0xF28, symBinAddr: 0x1000A9B80, symSize: 0xDC }
  - { offset: 0xE0156, size: 0x8, addend: 0x0, symName: __ZN6memchr6memmem8Searcher3new17h2aa2be29d8b2b7fdE, symObjAddr: 0x1A9C, symBinAddr: 0x10006EF0C, symSize: 0x7A8 }
  - { offset: 0xE058F, size: 0x8, addend: 0x0, symName: __ZN6memchr6memmem8Searcher7find_tw17h709fb61352957be3E, symObjAddr: 0x2244, symBinAddr: 0x10006F6B4, symSize: 0x780 }
  - { offset: 0xE090F, size: 0x8, addend: 0x0, symName: __ZN6memchr6memmem6Finder4find17he3ddc5eb29194132E, symObjAddr: 0x1838, symBinAddr: 0x10006ECA8, symSize: 0x264 }
  - { offset: 0xE0B7B, size: 0x8, addend: 0x0, symName: '__ZN83_$LT$memchr..memmem..FindIter$u20$as$u20$core..iter..traits..iterator..Iterator$GT$4next17h39fc67b8adebd223E', symObjAddr: 0x1004, symBinAddr: 0x10006E474, symSize: 0x2A8 }
  - { offset: 0xE0E91, size: 0x8, addend: 0x0, symName: __ZN6memchr6memmem11SearcherRev3new17hdf90e8b31a9cf6c5E, symObjAddr: 0x29C4, symBinAddr: 0x10006FE34, symSize: 0x5CC }
  - { offset: 0xE1279, size: 0x8, addend: 0x0, symName: '__ZN86_$LT$memchr..memmem..FindRevIter$u20$as$u20$core..iter..traits..iterator..Iterator$GT$4next17h6357aa1e631a9836E', symObjAddr: 0x12AC, symBinAddr: 0x10006E71C, symSize: 0x58C }
  - { offset: 0xE1587, size: 0x8, addend: 0x0, symName: '__ZN42_$LT$$RF$T$u20$as$u20$core..fmt..Debug$GT$3fmt17ha0ef3460bf7134daE', symObjAddr: 0x0, symBinAddr: 0x10008603C, symSize: 0x1C }
  - { offset: 0xE15A4, size: 0x8, addend: 0x0, symName: '__ZN42_$LT$$RF$T$u20$as$u20$core..fmt..Debug$GT$3fmt17ha0ef3460bf7134daE', symObjAddr: 0x0, symBinAddr: 0x10008603C, symSize: 0x1C }
  - { offset: 0xE15DE, size: 0x8, addend: 0x0, symName: __ZN4core3fmt5Write9write_fmt17h415e08f145dfb262E, symObjAddr: 0x1C, symBinAddr: 0x100086058, symSize: 0x1C }
  - { offset: 0xE1620, size: 0x8, addend: 0x0, symName: '__ZN53_$LT$core..fmt..Error$u20$as$u20$core..fmt..Debug$GT$3fmt17he86a5143693380e6E', symObjAddr: 0xDC, symBinAddr: 0x100086118, symSize: 0x20 }
  - { offset: 0xE1737, size: 0x8, addend: 0x0, symName: '__ZN4core3ptr205drop_in_place$LT$$LT$alloc..boxed..Box$LT$dyn$u20$core..error..Error$u2b$core..marker..Send$u2b$core..marker..Sync$GT$$u20$as$u20$core..convert..From$LT$alloc..string..String$GT$$GT$..from..StringError$GT$17heaad1687d35e3e23E', symObjAddr: 0x38, symBinAddr: 0x100086074, symSize: 0x28 }
  - { offset: 0xE17DA, size: 0x8, addend: 0x0, symName: '__ZN4core3ptr42drop_in_place$LT$alloc..string..String$GT$17hf3dc24f1a9d3aa6cE', symObjAddr: 0x60, symBinAddr: 0x10008609C, symSize: 0x28 }
  - { offset: 0xE1A4B, size: 0x8, addend: 0x0, symName: __ZN4core5error5Error5cause17h3e78fac579f0d2cdE, symObjAddr: 0x88, symBinAddr: 0x1000860C4, symSize: 0x14 }
  - { offset: 0xE1A65, size: 0x8, addend: 0x0, symName: __ZN4core5error5Error7provide17h04158b094f99fafbE, symObjAddr: 0x9C, symBinAddr: 0x1000860D8, symSize: 0x10 }
  - { offset: 0xE1A7F, size: 0x8, addend: 0x0, symName: __ZN4core5error5Error7type_id17ha8c7e9ae09d6f731E, symObjAddr: 0xAC, symBinAddr: 0x1000860E8, symSize: 0x30 }
  - { offset: 0xE1AAA, size: 0x8, addend: 0x0, symName: '__ZN69_$LT$core..alloc..layout..LayoutError$u20$as$u20$core..fmt..Debug$GT$3fmt17h38f65cacd4e5603aE', symObjAddr: 0xFC, symBinAddr: 0x100086138, symSize: 0x20 }
  - { offset: 0xE2173, size: 0x8, addend: 0x0, symName: '__ZN5alloc3ffi5c_str40_$LT$impl$u20$core..ffi..c_str..CStr$GT$15to_string_lossy17hca96055bc4172724E', symObjAddr: 0x17B0, symBinAddr: 0x100087720, symSize: 0x14 }
  - { offset: 0xE21A4, size: 0x8, addend: 0x0, symName: '__ZN5alloc3ffi5c_str40_$LT$impl$u20$core..ffi..c_str..CStr$GT$13into_c_string17h0c9912f37761ecd8E', symObjAddr: 0x17C4, symBinAddr: 0x100087734, symSize: 0x10 }
  - { offset: 0xE2B32, size: 0x8, addend: 0x0, symName: __ZN5alloc7raw_vec17capacity_overflow17h6035597745bd01e1E, symObjAddr: 0x11C, symBinAddr: 0x100086158, symSize: 0x38 }
  - { offset: 0xE2B74, size: 0x8, addend: 0x0, symName: '__ZN5alloc7raw_vec19RawVec$LT$T$C$A$GT$8grow_one17hadb5daffdf9dd647E', symObjAddr: 0x154, symBinAddr: 0x100086190, symSize: 0xA0 }
  - { offset: 0xE2DE1, size: 0x8, addend: 0x0, symName: '__ZN5alloc7raw_vec20RawVecInner$LT$A$GT$7reserve21do_reserve_and_handle17h02645e5a46a7b399E', symObjAddr: 0x1F4, symBinAddr: 0x1000A9CB0, symSize: 0xA0 }
  - { offset: 0xE2EFA, size: 0x8, addend: 0x0, symName: __ZN5alloc7raw_vec11finish_grow17hb0bd977838508dd5E, symObjAddr: 0x294, symBinAddr: 0x100086230, symSize: 0x88 }
  - { offset: 0xE2F6F, size: 0x8, addend: 0x0, symName: __ZN5alloc7raw_vec12handle_error17hbe5ce02d989aad7dE, symObjAddr: 0x31C, symBinAddr: 0x1000A9D50, symSize: 0x14 }
  - { offset: 0xE306E, size: 0x8, addend: 0x0, symName: __ZN5alloc5alloc18handle_alloc_error8ct_error17h1374e75f1bc6e215E, symObjAddr: 0x348, symBinAddr: 0x1000862B8, symSize: 0x38 }
  - { offset: 0xE309F, size: 0x8, addend: 0x0, symName: __ZN5alloc5alloc18handle_alloc_error17h0a3050efcb156a76E, symObjAddr: 0x330, symBinAddr: 0x1000A9D64, symSize: 0x18 }
  - { offset: 0xE30D5, size: 0x8, addend: 0x0, symName: ___rdl_oom, symObjAddr: 0x380, symBinAddr: 0x1000862F0, symSize: 0xA4 }
  - { offset: 0xE317A, size: 0x8, addend: 0x0, symName: '__ZN88_$LT$alloc..collections..btree..map..UnorderedKeyError$u20$as$u20$core..fmt..Display$GT$3fmt17hd156fab08b5984c2E', symObjAddr: 0xCAC, symBinAddr: 0x100086C1C, symSize: 0x24 }
  - { offset: 0xE31BC, size: 0x8, addend: 0x0, symName: '__ZN93_$LT$alloc..collections..btree..mem..replace..PanicGuard$u20$as$u20$core..ops..drop..Drop$GT$4drop17hd9245f00ec3723f9E', symObjAddr: 0xCD0, symBinAddr: 0x100086C40, symSize: 0xC }
  - { offset: 0xE31DF, size: 0x8, addend: 0x0, symName: '__ZN74_$LT$alloc..collections..TryReserveError$u20$as$u20$core..fmt..Display$GT$3fmt17h728f07ed85bfed22E', symObjAddr: 0xCDC, symBinAddr: 0x100086C4C, symSize: 0x74 }
  - { offset: 0xE325E, size: 0x8, addend: 0x0, symName: '__ZN67_$LT$alloc..boxed..Box$LT$str$GT$$u20$as$u20$core..clone..Clone$GT$5clone17hc575f0c658516a2cE', symObjAddr: 0x424, symBinAddr: 0x100086394, symSize: 0x80 }
  - { offset: 0xE3378, size: 0x8, addend: 0x0, symName: '__ZN223_$LT$$LT$alloc..boxed..Box$LT$dyn$u20$core..error..Error$u2b$core..marker..Send$u2b$core..marker..Sync$GT$$u20$as$u20$core..convert..From$LT$alloc..string..String$GT$$GT$..from..StringError$u20$as$u20$core..error..Error$GT$11description17hc43c21224f03a43aE', symObjAddr: 0x4A4, symBinAddr: 0x100086414, symSize: 0x18 }
  - { offset: 0xE3433, size: 0x8, addend: 0x0, symName: '__ZN223_$LT$$LT$alloc..boxed..Box$LT$dyn$u20$core..error..Error$u2b$core..marker..Send$u2b$core..marker..Sync$GT$$u20$as$u20$core..convert..From$LT$alloc..string..String$GT$$GT$..from..StringError$u20$as$u20$core..fmt..Display$GT$3fmt17h8d04154494b47114E', symObjAddr: 0x4BC, symBinAddr: 0x10008642C, symSize: 0x1C }
  - { offset: 0xE346A, size: 0x8, addend: 0x0, symName: '__ZN221_$LT$$LT$alloc..boxed..Box$LT$dyn$u20$core..error..Error$u2b$core..marker..Send$u2b$core..marker..Sync$GT$$u20$as$u20$core..convert..From$LT$alloc..string..String$GT$$GT$..from..StringError$u20$as$u20$core..fmt..Debug$GT$3fmt17h4f7a51c962ea880eE', symObjAddr: 0x4D8, symBinAddr: 0x100086448, symSize: 0x1C }
  - { offset: 0xE34DF, size: 0x8, addend: 0x0, symName: '__ZN120_$LT$alloc..boxed..Box$LT$dyn$u20$core..error..Error$GT$$u20$as$u20$core..convert..From$LT$alloc..string..String$GT$$GT$4from17h8ed31ded0bc70da2E', symObjAddr: 0x4F4, symBinAddr: 0x100086464, symSize: 0x84 }
  - { offset: 0xE364A, size: 0x8, addend: 0x0, symName: '__ZN106_$LT$alloc..boxed..Box$LT$dyn$u20$core..error..Error$GT$$u20$as$u20$core..convert..From$LT$$RF$str$GT$$GT$4from17h59e8c4713237c025E', symObjAddr: 0x578, symBinAddr: 0x1000864E8, symSize: 0xD8 }
  - { offset: 0xE3903, size: 0x8, addend: 0x0, symName: '__ZN174_$LT$alloc..boxed..Box$LT$dyn$u20$core..error..Error$u2b$core..marker..Send$u2b$core..marker..Sync$GT$$u20$as$u20$core..convert..From$LT$alloc..borrow..Cow$LT$str$GT$$GT$$GT$4from17h365c6c2451e8218bE', symObjAddr: 0x650, symBinAddr: 0x1000865C0, symSize: 0xEC }
  - { offset: 0xE3BBC, size: 0x8, addend: 0x0, symName: '__ZN128_$LT$alloc..boxed..Box$LT$dyn$u20$core..error..Error$GT$$u20$as$u20$core..convert..From$LT$alloc..borrow..Cow$LT$str$GT$$GT$$GT$4from17ha65a262cda67cd0dE', symObjAddr: 0x73C, symBinAddr: 0x1000866AC, symSize: 0xEC }
  - { offset: 0xE42E5, size: 0x8, addend: 0x0, symName: '__ZN5alloc3vec16Vec$LT$T$C$A$GT$11swap_remove13assert_failed17ha8bacf0bd33759e6E', symObjAddr: 0x5068, symBinAddr: 0x1000A9D7C, symSize: 0x34 }
  - { offset: 0xE431B, size: 0x8, addend: 0x0, symName: '__ZN5alloc3vec16Vec$LT$T$C$A$GT$6insert13assert_failed17hc4dbb912dbd499ceE', symObjAddr: 0x509C, symBinAddr: 0x1000A9DB0, symSize: 0x34 }
  - { offset: 0xE4351, size: 0x8, addend: 0x0, symName: '__ZN5alloc3vec16Vec$LT$T$C$A$GT$6remove13assert_failed17hb2517dbee879e060E', symObjAddr: 0x50D0, symBinAddr: 0x1000A9DE4, symSize: 0x34 }
  - { offset: 0xE4387, size: 0x8, addend: 0x0, symName: '__ZN5alloc3vec16Vec$LT$T$C$A$GT$9split_off13assert_failed17h8702778ae0f3698bE', symObjAddr: 0x5104, symBinAddr: 0x1000A9E18, symSize: 0x34 }
  - { offset: 0xE43D2, size: 0x8, addend: 0x0, symName: '__ZN80_$LT$alloc..vec..Vec$LT$u8$GT$$u20$as$u20$core..convert..From$LT$$RF$str$GT$$GT$4from17hf754f13c4fb6611aE', symObjAddr: 0x5138, symBinAddr: 0x10008AFD8, symSize: 0x90 }
  - { offset: 0xE45C0, size: 0x8, addend: 0x0, symName: __ZN5alloc6string6String15from_utf8_lossy17hb6a66e2937a0fa0eE, symObjAddr: 0x2ED4, symBinAddr: 0x100088E44, symSize: 0x228 }
  - { offset: 0xE4B46, size: 0x8, addend: 0x0, symName: __ZN5alloc6string6String21from_utf8_lossy_owned17h6a20262cdc645974E, symObjAddr: 0x30FC, symBinAddr: 0x10008906C, symSize: 0xB8 }
  - { offset: 0xE4D38, size: 0x8, addend: 0x0, symName: __ZN5alloc6string6String10from_utf1617he8fe441f54626db4E, symObjAddr: 0x31B4, symBinAddr: 0x100089124, symSize: 0x280 }
  - { offset: 0xE5264, size: 0x8, addend: 0x0, symName: __ZN5alloc6string6String12from_utf16le17h665c2a127a81c533E, symObjAddr: 0x3434, symBinAddr: 0x1000893A4, symSize: 0x3E0 }
  - { offset: 0xE575F, size: 0x8, addend: 0x0, symName: __ZN5alloc6string6String18from_utf16le_lossy17hfdacc83bd8987720E, symObjAddr: 0x3814, symBinAddr: 0x100089784, symSize: 0x414 }
  - { offset: 0xE61C5, size: 0x8, addend: 0x0, symName: __ZN5alloc6string6String12from_utf16be17hb75fef09e4841f7dE, symObjAddr: 0x3C28, symBinAddr: 0x100089B98, symSize: 0x3B8 }
  - { offset: 0xE6659, size: 0x8, addend: 0x0, symName: __ZN5alloc6string6String18from_utf16be_lossy17h93c4452e2b729505E, symObjAddr: 0x3FE0, symBinAddr: 0x100089F50, symSize: 0x35C }
  - { offset: 0xE6D4E, size: 0x8, addend: 0x0, symName: __ZN5alloc6string6String14into_raw_parts17hcd6c0aa6664ee57fE, symObjAddr: 0x433C, symBinAddr: 0x10008A2AC, symSize: 0x20 }
  - { offset: 0xE6D7F, size: 0x8, addend: 0x0, symName: __ZN5alloc6string6String11try_reserve17hb819b54b03d63790E, symObjAddr: 0x435C, symBinAddr: 0x10008A2CC, symSize: 0xC4 }
  - { offset: 0xE6EFF, size: 0x8, addend: 0x0, symName: __ZN5alloc6string6String17try_reserve_exact17h2ad5c6ad3e68883cE, symObjAddr: 0x4420, symBinAddr: 0x10008A390, symSize: 0xAC }
  - { offset: 0xE700B, size: 0x8, addend: 0x0, symName: __ZN5alloc6string6String12insert_bytes17h144788751b492e0bE, symObjAddr: 0x44CC, symBinAddr: 0x10008A43C, symSize: 0x94 }
  - { offset: 0xE7242, size: 0x8, addend: 0x0, symName: '__ZN98_$LT$alloc..string..String$u20$as$u20$core..convert..From$LT$alloc..borrow..Cow$LT$str$GT$$GT$$GT$4from17h3362f50b98fe1e8cE', symObjAddr: 0x4C4C, symBinAddr: 0x10008ABBC, symSize: 0xB4 }
  - { offset: 0xE73F0, size: 0x8, addend: 0x0, symName: '__ZN95_$LT$alloc..string..String$u20$as$u20$core..iter..traits..collect..FromIterator$LT$char$GT$$GT$9from_iter17h16a9bb20b6fc61ecE', symObjAddr: 0x48B8, symBinAddr: 0x10008A828, symSize: 0x2DC }
  - { offset: 0xE79B7, size: 0x8, addend: 0x0, symName: __ZN5alloc6string13FromUtf8Error8as_bytes17h965b2218ece9a7d6E, symObjAddr: 0x4560, symBinAddr: 0x10008A4D0, symSize: 0x18 }
  - { offset: 0xE79D2, size: 0x8, addend: 0x0, symName: __ZN5alloc6string13FromUtf8Error15into_utf8_lossy17hff24a50faab43f5fE, symObjAddr: 0x4578, symBinAddr: 0x10008A4E8, symSize: 0x200 }
  - { offset: 0xE807B, size: 0x8, addend: 0x0, symName: '__ZN67_$LT$alloc..string..FromUtf8Error$u20$as$u20$core..fmt..Display$GT$3fmt17h11d6ca99829f9b41E', symObjAddr: 0x4778, symBinAddr: 0x10008A6E8, symSize: 0x14 }
  - { offset: 0xE809C, size: 0x8, addend: 0x0, symName: '__ZN68_$LT$alloc..string..FromUtf16Error$u20$as$u20$core..fmt..Display$GT$3fmt17h02c5e0f4af44d644E', symObjAddr: 0x478C, symBinAddr: 0x10008A6FC, symSize: 0x20 }
  - { offset: 0xE80BD, size: 0x8, addend: 0x0, symName: '__ZN60_$LT$alloc..string..String$u20$as$u20$core..clone..Clone$GT$5clone17hb95962ed94d46547E', symObjAddr: 0x47AC, symBinAddr: 0x10008A71C, symSize: 0x90 }
  - { offset: 0xE81F7, size: 0x8, addend: 0x0, symName: '__ZN60_$LT$alloc..string..String$u20$as$u20$core..clone..Clone$GT$10clone_from17hb1eba086b96c08b8E', symObjAddr: 0x483C, symBinAddr: 0x10008A7AC, symSize: 0x7C }
  - { offset: 0xE835E, size: 0x8, addend: 0x0, symName: '__ZN73_$LT$$RF$alloc..string..String$u20$as$u20$core..str..pattern..Pattern$GT$13into_searcher17ha8862925e6e71b15E', symObjAddr: 0x4B94, symBinAddr: 0x10008AB04, symSize: 0x20 }
  - { offset: 0xE8395, size: 0x8, addend: 0x0, symName: '__ZN5alloc6string107_$LT$impl$u20$core..convert..From$LT$alloc..string..String$GT$$u20$for$u20$alloc..boxed..Box$LT$str$GT$$GT$4from17hb09ca83b245a45e0E', symObjAddr: 0x4BB4, symBinAddr: 0x10008AB24, symSize: 0x98 }
  - { offset: 0xE850F, size: 0x8, addend: 0x0, symName: '__ZN58_$LT$alloc..string..String$u20$as$u20$core..fmt..Write$GT$9write_str17h0e58f50c5cceb6ccE', symObjAddr: 0x4D00, symBinAddr: 0x10008AC70, symSize: 0x78 }
  - { offset: 0xE8662, size: 0x8, addend: 0x0, symName: '__ZN58_$LT$alloc..string..String$u20$as$u20$core..fmt..Write$GT$10write_char17hd93e9ff1698e117fE', symObjAddr: 0x4D78, symBinAddr: 0x10008ACE8, symSize: 0x13C }
  - { offset: 0xE88DB, size: 0x8, addend: 0x0, symName: __ZN5alloc6string5Drain6as_str17hfd5ba675729c09a7E, symObjAddr: 0x4F90, symBinAddr: 0x10008AF00, symSize: 0x1C }
  - { offset: 0xE8960, size: 0x8, addend: 0x0, symName: '__ZN57_$LT$alloc..string..Drain$u20$as$u20$core..fmt..Debug$GT$3fmt17h27cfcd2c53f5dc19E', symObjAddr: 0x4EB4, symBinAddr: 0x10008AE24, symSize: 0x64 }
  - { offset: 0xE8A02, size: 0x8, addend: 0x0, symName: '__ZN62_$LT$alloc..string..Drain$u20$as$u20$core..ops..drop..Drop$GT$4drop17h35dfa602296dd454E', symObjAddr: 0x4F18, symBinAddr: 0x10008AE88, symSize: 0x78 }
  - { offset: 0xE8B63, size: 0x8, addend: 0x0, symName: '__ZN72_$LT$alloc..string..Drain$u20$as$u20$core..convert..AsRef$LT$str$GT$$GT$6as_ref17ha781e5a4d5a8b2e6E', symObjAddr: 0x4FAC, symBinAddr: 0x10008AF1C, symSize: 0x1C }
  - { offset: 0xE8C05, size: 0x8, addend: 0x0, symName: '__ZN79_$LT$alloc..string..Drain$u20$as$u20$core..iter..traits..iterator..Iterator$GT$9size_hint17hcf870634aead5977E', symObjAddr: 0x4FC8, symBinAddr: 0x10008AF38, symSize: 0x2C }
  - { offset: 0xE8E60, size: 0x8, addend: 0x0, symName: '__ZN5alloc3str21_$LT$impl$u20$str$GT$12to_lowercase17h323e575193191549E', symObjAddr: 0x19F0, symBinAddr: 0x100087960, symSize: 0xB94 }
  - { offset: 0xEA2D1, size: 0x8, addend: 0x0, symName: '__ZN5alloc3str21_$LT$impl$u20$str$GT$12to_uppercase17h1a5a34c07755b201E', symObjAddr: 0x2584, symBinAddr: 0x1000884F4, symSize: 0x7D4 }
  - { offset: 0xEB35B, size: 0x8, addend: 0x0, symName: '__ZN5alloc3str21_$LT$impl$u20$str$GT$6repeat17h781b0c9e75b1df9eE', symObjAddr: 0x2D58, symBinAddr: 0x100088CC8, symSize: 0x17C }
  - { offset: 0xEB64D, size: 0x8, addend: 0x0, symName: '__ZN92_$LT$alloc..borrow..Cow$LT$str$GT$$u20$as$u20$core..ops..arith..AddAssign$LT$$RF$str$GT$$GT$10add_assign17h0f88a115195c284aE', symObjAddr: 0x828, symBinAddr: 0x100086798, symSize: 0x1F8 }
  - { offset: 0xEBB9C, size: 0x8, addend: 0x0, symName: '__ZN77_$LT$alloc..borrow..Cow$LT$str$GT$$u20$as$u20$core..ops..arith..AddAssign$GT$10add_assign17h1b1f174471f8dd5dE', symObjAddr: 0xA20, symBinAddr: 0x100086990, symSize: 0x28C }
  - { offset: 0xEC30E, size: 0x8, addend: 0x0, symName: __ZN5alloc3ffi5c_str19FromVecWithNulError8as_bytes17he9698f11b479dc85E, symObjAddr: 0xD50, symBinAddr: 0x100086CC0, symSize: 0x18 }
  - { offset: 0xEC346, size: 0x8, addend: 0x0, symName: '__ZN72_$LT$$RF$str$u20$as$u20$alloc..ffi..c_str..CString..new..SpecNewImpl$GT$13spec_new_impl17h37c9772315c87d63E', symObjAddr: 0xD68, symBinAddr: 0x100086CD8, symSize: 0x114 }
  - { offset: 0xEC56F, size: 0x8, addend: 0x0, symName: '__ZN89_$LT$$RF$mut$u20$$u5b$u8$u5d$$u20$as$u20$alloc..ffi..c_str..CString..new..SpecNewImpl$GT$13spec_new_impl17h0e205d29520e586fE', symObjAddr: 0xE7C, symBinAddr: 0x100086DEC, symSize: 0x114 }
  - { offset: 0xEC7AE, size: 0x8, addend: 0x0, symName: __ZN5alloc3ffi5c_str7CString18from_vec_unchecked17hb36965a562a614b6E, symObjAddr: 0xF90, symBinAddr: 0x100086F00, symSize: 0x30 }
  - { offset: 0xEC7C9, size: 0x8, addend: 0x0, symName: __ZN5alloc3ffi5c_str7CString19_from_vec_unchecked17ha473a1a6d71e3811E, symObjAddr: 0xFC0, symBinAddr: 0x100086F30, symSize: 0x138 }
  - { offset: 0xECAF9, size: 0x8, addend: 0x0, symName: __ZN5alloc3ffi5c_str7CString8from_raw17h73df40c3301bc544E, symObjAddr: 0x10F8, symBinAddr: 0x100087068, symSize: 0x28 }
  - { offset: 0xECB22, size: 0x8, addend: 0x0, symName: __ZN5alloc3ffi5c_str7CString11into_string17h91cab1d5fecbd6aeE, symObjAddr: 0x1120, symBinAddr: 0x100087090, symSize: 0xF8 }
  - { offset: 0xECC3A, size: 0x8, addend: 0x0, symName: __ZN5alloc3ffi5c_str7CString10into_bytes17hb94a14545a04e1bcE, symObjAddr: 0x1218, symBinAddr: 0x100087188, symSize: 0x20 }
  - { offset: 0xECC64, size: 0x8, addend: 0x0, symName: __ZN5alloc3ffi5c_str7CString19into_bytes_with_nul17hbe851104b5dd6460E, symObjAddr: 0x1238, symBinAddr: 0x1000871A8, symSize: 0x18 }
  - { offset: 0xECCB8, size: 0x8, addend: 0x0, symName: __ZN5alloc3ffi5c_str7CString27from_vec_with_nul_unchecked17hd19c1f93485877fdE, symObjAddr: 0x1250, symBinAddr: 0x1000871C0, symSize: 0x98 }
  - { offset: 0xECE2C, size: 0x8, addend: 0x0, symName: __ZN5alloc3ffi5c_str7CString17from_vec_with_nul17h699462252b6395fbE, symObjAddr: 0x12E8, symBinAddr: 0x100087258, symSize: 0x130 }
  - { offset: 0xED057, size: 0x8, addend: 0x0, symName: '__ZN63_$LT$alloc..ffi..c_str..CString$u20$as$u20$core..fmt..Debug$GT$3fmt17h4ce6e4088f7e656cE', symObjAddr: 0x1418, symBinAddr: 0x100087388, symSize: 0x1C }
  - { offset: 0xED0B2, size: 0x8, addend: 0x0, symName: '__ZN5alloc3ffi5c_str75_$LT$impl$u20$alloc..borrow..ToOwned$u20$for$u20$core..ffi..c_str..CStr$GT$10clone_into17h0d22677b1bb88d88E', symObjAddr: 0x161C, symBinAddr: 0x10008758C, symSize: 0x114 }
  - { offset: 0xED3E5, size: 0x8, addend: 0x0, symName: '__ZN69_$LT$alloc..ffi..c_str..CString$u20$as$u20$core..default..Default$GT$7default17hd1a77f0c94a22d81E', symObjAddr: 0x1434, symBinAddr: 0x1000873A4, symSize: 0x40 }
  - { offset: 0xED4D8, size: 0x8, addend: 0x0, symName: '__ZN5alloc3ffi5c_str131_$LT$impl$u20$core..convert..From$LT$$RF$core..ffi..c_str..CStr$GT$$u20$for$u20$alloc..boxed..Box$LT$core..ffi..c_str..CStr$GT$$GT$4from17h921772b7e7194e80E', symObjAddr: 0x1474, symBinAddr: 0x1000873E4, symSize: 0x80 }
  - { offset: 0xED5DA, size: 0x8, addend: 0x0, symName: '__ZN5alloc3ffi5c_str100_$LT$impl$u20$core..default..Default$u20$for$u20$alloc..boxed..Box$LT$core..ffi..c_str..CStr$GT$$GT$7default17h041044665bad87fdE', symObjAddr: 0x14F4, symBinAddr: 0x100087464, symSize: 0x40 }
  - { offset: 0xED67A, size: 0x8, addend: 0x0, symName: '__ZN66_$LT$alloc..ffi..c_str..NulError$u20$as$u20$core..fmt..Display$GT$3fmt17h243b9ac62b1d0462E', symObjAddr: 0x1534, symBinAddr: 0x1000874A4, symSize: 0x50 }
  - { offset: 0xED705, size: 0x8, addend: 0x0, symName: '__ZN77_$LT$alloc..ffi..c_str..FromVecWithNulError$u20$as$u20$core..fmt..Display$GT$3fmt17hcd6494b9417fe454E', symObjAddr: 0x1584, symBinAddr: 0x1000874F4, symSize: 0x78 }
  - { offset: 0xED766, size: 0x8, addend: 0x0, symName: '__ZN73_$LT$alloc..ffi..c_str..IntoStringError$u20$as$u20$core..fmt..Display$GT$3fmt17h18345458c702cf8cE', symObjAddr: 0x15FC, symBinAddr: 0x10008756C, symSize: 0x20 }
  - { offset: 0xED787, size: 0x8, addend: 0x0, symName: '__ZN100_$LT$alloc..ffi..c_str..CString$u20$as$u20$core..convert..From$LT$$RF$core..ffi..c_str..CStr$GT$$GT$4from17hf8564ab40c5c4f06E', symObjAddr: 0x1730, symBinAddr: 0x1000876A0, symSize: 0x80 }
  - { offset: 0xED8AC, size: 0x8, addend: 0x0, symName: __ZN5alloc3fmt6format12format_inner17h65f007f2dcc18b39E, symObjAddr: 0x17D4, symBinAddr: 0x100087744, symSize: 0x1A8 }
  - { offset: 0xEDAF5, size: 0x8, addend: 0x0, symName: __ZN5alloc2rc29rcbox_layout_for_value_layout17h9062364011480a01E, symObjAddr: 0x197C, symBinAddr: 0x1000878EC, symSize: 0x74 }
  - { offset: 0xEDBC1, size: 0x8, addend: 0x0, symName: __ZN5alloc4sync32arcinner_layout_for_value_layout17hc2e63e5c4e3c6fa7E, symObjAddr: 0x4FF4, symBinAddr: 0x10008AF64, symSize: 0x74 }
  - { offset: 0xEDC89, size: 0x8, addend: 0x0, symName: _OUTLINED_FUNCTION_0, symObjAddr: 0x51C8, symBinAddr: 0x10008B068, symSize: 0x24 }
  - { offset: 0xEDCBF, size: 0x8, addend: 0x0, symName: __ZN4core3num7dec2flt7decimal7Decimal5round17h39bbb98f9235df67E, symObjAddr: 0x0, symBinAddr: 0x10008B08C, symSize: 0xC4 }
  - { offset: 0xEE9D9, size: 0x8, addend: 0x0, symName: __ZN4core3num7dec2flt7decimal7Decimal5round17h39bbb98f9235df67E, symObjAddr: 0x0, symBinAddr: 0x10008B08C, symSize: 0xC4 }
  - { offset: 0xEEA25, size: 0x8, addend: 0x0, symName: __ZN4core3num7dec2flt7decimal7Decimal10left_shift17h0bd27f16f3e74cf7E, symObjAddr: 0xC4, symBinAddr: 0x10008B150, symSize: 0x210 }
  - { offset: 0xEEAC9, size: 0x8, addend: 0x0, symName: __ZN4core3num7dec2flt7decimal7Decimal11right_shift17h8d35c1572ddd8c18E, symObjAddr: 0x2D4, symBinAddr: 0x10008B360, symSize: 0x1C0 }
  - { offset: 0xEEB5B, size: 0x8, addend: 0x0, symName: __ZN4core3num7dec2flt7decimal13parse_decimal17hbe4aa653484e762cE, symObjAddr: 0x494, symBinAddr: 0x10008B520, symSize: 0x384 }
  - { offset: 0xEEF40, size: 0x8, addend: 0x0, symName: '__ZN59_$LT$f32$u20$as$u20$core..num..dec2flt..float..RawFloat$GT$15pow10_fast_path17he42c325bf6de4412E', symObjAddr: 0x818, symBinAddr: 0x10008B8A4, symSize: 0x20 }
  - { offset: 0xEEF9B, size: 0x8, addend: 0x0, symName: '__ZN59_$LT$f64$u20$as$u20$core..num..dec2flt..float..RawFloat$GT$15pow10_fast_path17h4c5d8ea4599c593dE', symObjAddr: 0x838, symBinAddr: 0x10008B8C4, symSize: 0x20 }
  - { offset: 0xEF011, size: 0x8, addend: 0x0, symName: __ZN4core3num7dec2flt6lemire13compute_float17h24197ee91841faceE, symObjAddr: 0x858, symBinAddr: 0x10008B8E4, symSize: 0x164 }
  - { offset: 0xEF0C7, size: 0x8, addend: 0x0, symName: __ZN4core3num7dec2flt6lemire13compute_float17heace79c12f7ad6b7E, symObjAddr: 0x9BC, symBinAddr: 0x10008BA48, symSize: 0x160 }
  - { offset: 0xEF170, size: 0x8, addend: 0x0, symName: __ZN4core3num7dec2flt6lemire22compute_product_approx17h886e11cb48d9dfbeE, symObjAddr: 0xB1C, symBinAddr: 0x10008BBA8, symSize: 0x6C }
  - { offset: 0xEF22E, size: 0x8, addend: 0x0, symName: __ZN4core3num7dec2flt5parse12parse_number17h0f3d9a49b3859b7fE, symObjAddr: 0xB88, symBinAddr: 0x10008BC14, symSize: 0x44C }
  - { offset: 0xEF7D8, size: 0x8, addend: 0x0, symName: '__ZN74_$LT$core..num..dec2flt..ParseFloatError$u20$as$u20$core..fmt..Display$GT$3fmt17hd93c6d8510dab5c4E', symObjAddr: 0xFD4, symBinAddr: 0x10008C060, symSize: 0x44 }
  - { offset: 0xEF8CF, size: 0x8, addend: 0x0, symName: '__ZN4core3num7dec2flt60_$LT$impl$u20$core..str..traits..FromStr$u20$for$u20$f32$GT$8from_str17h1f26851244223c92E', symObjAddr: 0x138EC, symBinAddr: 0x10009E00C, symSize: 0x484 }
  - { offset: 0xEF8F8, size: 0x8, addend: 0x0, symName: '__ZN4core3num7dec2flt60_$LT$impl$u20$core..str..traits..FromStr$u20$for$u20$f32$GT$8from_str17h1f26851244223c92E', symObjAddr: 0x138EC, symBinAddr: 0x10009E00C, symSize: 0x484 }
  - { offset: 0xEFB73, size: 0x8, addend: 0x0, symName: '__ZN4core3num7dec2flt60_$LT$impl$u20$core..str..traits..FromStr$u20$for$u20$f64$GT$8from_str17hf08473c135ca8a1aE', symObjAddr: 0x13D70, symBinAddr: 0x10009E490, symSize: 0x454 }
  - { offset: 0xF0192, size: 0x8, addend: 0x0, symName: __ZN4core3num9diy_float2Fp12normalize_to17h7fc18ee595a5a538E, symObjAddr: 0x1018, symBinAddr: 0x10008C0A4, symSize: 0x70 }
  - { offset: 0xF01D9, size: 0x8, addend: 0x0, symName: __ZN4core3num7flt2dec9estimator23estimate_scaling_factor17h6681fda4199a4c9eE, symObjAddr: 0x1088, symBinAddr: 0x10008C114, symSize: 0x3C }
  - { offset: 0xF021A, size: 0x8, addend: 0x0, symName: __ZN4core3num7flt2dec8strategy6dragon9mul_pow1017h2f869bdb0df99d47E, symObjAddr: 0x10C4, symBinAddr: 0x10008C150, symSize: 0x1E4 }
  - { offset: 0xF04B3, size: 0x8, addend: 0x0, symName: __ZN4core3num7flt2dec8strategy6dragon15format_shortest17h7a4009ddfef3335aE, symObjAddr: 0x12A8, symBinAddr: 0x10008C334, symSize: 0xCB8 }
  - { offset: 0xF2059, size: 0x8, addend: 0x0, symName: __ZN4core3num7flt2dec8strategy6dragon12format_exact17hfdfa2a63cdf21877E, symObjAddr: 0x1F60, symBinAddr: 0x10008CFEC, symSize: 0xB4C }
  - { offset: 0xF37CA, size: 0x8, addend: 0x0, symName: __ZN4core3num7flt2dec8strategy5grisu12cached_power17h5df0d2ddfa15b00fE, symObjAddr: 0x2AAC, symBinAddr: 0x10008DB38, symSize: 0x78 }
  - { offset: 0xF380C, size: 0x8, addend: 0x0, symName: __ZN4core3num7flt2dec8strategy5grisu19format_shortest_opt17hd24b4ccc64221d0bE, symObjAddr: 0x2B24, symBinAddr: 0x10008DBB0, symSize: 0x7C4 }
  - { offset: 0xF3909, size: 0x8, addend: 0x0, symName: __ZN4core3num7flt2dec8strategy5grisu15format_shortest17hb5d5cf1dc4df7df2E, symObjAddr: 0x32E8, symBinAddr: 0x10008E374, symSize: 0x7C }
  - { offset: 0xF391D, size: 0x8, addend: 0x0, symName: __ZN4core3num7flt2dec8strategy5grisu16format_exact_opt17h5750650986d81e94E, symObjAddr: 0x3364, symBinAddr: 0x10008E3F0, symSize: 0x428 }
  - { offset: 0xF397D, size: 0x8, addend: 0x0, symName: __ZN4core3num7flt2dec8strategy5grisu16format_exact_opt14possibly_round17hca4abbf44438ba20E, symObjAddr: 0x378C, symBinAddr: 0x10008E818, symSize: 0x1E0 }
  - { offset: 0xF3AD6, size: 0x8, addend: 0x0, symName: __ZN4core3num7flt2dec8strategy5grisu12format_exact17h1c6086cdee848a1fE, symObjAddr: 0x396C, symBinAddr: 0x10008E9F8, symSize: 0x90 }
  - { offset: 0xF3B15, size: 0x8, addend: 0x0, symName: __ZN4core3num7flt2dec8round_up17h597e2fa55f3f6e18E, symObjAddr: 0x39FC, symBinAddr: 0x10008EA88, symSize: 0xB4 }
  - { offset: 0xF3BC3, size: 0x8, addend: 0x0, symName: __ZN4core3num7flt2dec17digits_to_dec_str17h337100ada1b27e7eE, symObjAddr: 0x3AB0, symBinAddr: 0x10008EB3C, symSize: 0x14C }
  - { offset: 0xF3C3E, size: 0x8, addend: 0x0, symName: __ZN4core3num7flt2dec17digits_to_exp_str17hdeacfa6faa06f004E, symObjAddr: 0x3BFC, symBinAddr: 0x10008EC88, symSize: 0x168 }
  - { offset: 0xF3E94, size: 0x8, addend: 0x0, symName: __ZN4core3num6bignum8Big32x408from_u6417hc6456b574e970ce4E, symObjAddr: 0x11438, symBinAddr: 0x10009BB58, symSize: 0x68 }
  - { offset: 0xF3EA8, size: 0x8, addend: 0x0, symName: __ZN4core3num6bignum8Big32x406digits17h6003f94b4e65e3beE, symObjAddr: 0x114A0, symBinAddr: 0x10009BBC0, symSize: 0x2C }
  - { offset: 0xF3EF3, size: 0x8, addend: 0x0, symName: __ZN4core3num6bignum8Big32x407get_bit17h762981d4889a68c7E, symObjAddr: 0x114CC, symBinAddr: 0x10009BBEC, symSize: 0x38 }
  - { offset: 0xF3F07, size: 0x8, addend: 0x0, symName: __ZN4core3num6bignum8Big32x407is_zero17he34b5b664b72b436E, symObjAddr: 0x11504, symBinAddr: 0x10009BC24, symSize: 0x50 }
  - { offset: 0xF3F96, size: 0x8, addend: 0x0, symName: __ZN4core3num6bignum8Big32x4010bit_length17h2a954672f1188ddfE, symObjAddr: 0x11554, symBinAddr: 0x10009BC74, symSize: 0x80 }
  - { offset: 0xF40A5, size: 0x8, addend: 0x0, symName: __ZN4core3num6bignum8Big32x403add17h0e5fb63bf57e38c8E, symObjAddr: 0x115D4, symBinAddr: 0x10009BCF4, symSize: 0xA8 }
  - { offset: 0xF4189, size: 0x8, addend: 0x0, symName: __ZN4core3num6bignum8Big32x409add_small17hda254c34b099e539E, symObjAddr: 0x1167C, symBinAddr: 0x10009BD9C, symSize: 0x3EC }
  - { offset: 0xF41E9, size: 0x8, addend: 0x0, symName: __ZN4core3num6bignum8Big32x403sub17h3a058e81995a81aeE, symObjAddr: 0x11A68, symBinAddr: 0x10009C188, symSize: 0xA0 }
  - { offset: 0xF42CD, size: 0x8, addend: 0x0, symName: __ZN4core3num6bignum8Big32x409mul_small17hc7b3b7c277319d94E, symObjAddr: 0x11B08, symBinAddr: 0x10009C228, symSize: 0x88 }
  - { offset: 0xF435B, size: 0x8, addend: 0x0, symName: __ZN4core3num6bignum8Big32x408mul_pow217h74db9c7992bb3a2bE, symObjAddr: 0x11B90, symBinAddr: 0x10009C2B0, symSize: 0x198 }
  - { offset: 0xF4444, size: 0x8, addend: 0x0, symName: __ZN4core3num6bignum8Big32x408mul_pow517h3ae0c0b0b60a7a64E, symObjAddr: 0x11D28, symBinAddr: 0x10009C448, symSize: 0x108 }
  - { offset: 0xF464E, size: 0x8, addend: 0x0, symName: __ZN4core3num6bignum8Big32x4010mul_digits17hc39f6d391ac5e442E, symObjAddr: 0x11E30, symBinAddr: 0x10009C550, symSize: 0x2EC }
  - { offset: 0xF4938, size: 0x8, addend: 0x0, symName: __ZN4core3num6bignum8Big32x4013div_rem_small17h8255ba21855048d4E, symObjAddr: 0x1211C, symBinAddr: 0x10009C83C, symSize: 0x88 }
  - { offset: 0xF49E2, size: 0x8, addend: 0x0, symName: __ZN4core3num6bignum8Big32x407div_rem17h9f7a03a4715ef08fE, symObjAddr: 0x121A4, symBinAddr: 0x10009C8C4, symSize: 0x290 }
  - { offset: 0xF4F11, size: 0x8, addend: 0x0, symName: '__ZN62_$LT$core..num..bignum..Big32x40$u20$as$u20$core..cmp..Ord$GT$3cmp17heaa0a4e2c30abab6E', symObjAddr: 0x124C4, symBinAddr: 0x10009CBE4, symSize: 0x70 }
  - { offset: 0xF5170, size: 0x8, addend: 0x0, symName: '__ZN69_$LT$core..num..bignum..Big32x40$u20$as$u20$core..cmp..PartialOrd$GT$11partial_cmp17h8d1f7ae1543381bfE', symObjAddr: 0x12454, symBinAddr: 0x10009CB74, symSize: 0x70 }
  - { offset: 0xF53DC, size: 0x8, addend: 0x0, symName: '__ZN50_$LT$u32$u20$as$u20$core..num..bignum..FullOps$GT$12full_div_rem17hedd069b0e951eb5fE', symObjAddr: 0x11404, symBinAddr: 0x10009BB24, symSize: 0x34 }
  - { offset: 0xF5403, size: 0x8, addend: 0x0, symName: '__ZN49_$LT$u8$u20$as$u20$core..num..bignum..FullOps$GT$12full_div_rem17h9212d6e80dbbec4dE', symObjAddr: 0x11398, symBinAddr: 0x10009BAB8, symSize: 0x38 }
  - { offset: 0xF5437, size: 0x8, addend: 0x0, symName: '__ZN50_$LT$u16$u20$as$u20$core..num..bignum..FullOps$GT$12full_div_rem17hebab2f50adb935fcE', symObjAddr: 0x113D0, symBinAddr: 0x10009BAF0, symSize: 0x34 }
  - { offset: 0xF5471, size: 0x8, addend: 0x0, symName: '__ZN68_$LT$core..num..bignum..Big32x40$u20$as$u20$core..cmp..PartialEq$GT$2eq17h984bb84e32e2df73E', symObjAddr: 0x12434, symBinAddr: 0x10009CB54, symSize: 0x20 }
  - { offset: 0xF54BD, size: 0x8, addend: 0x0, symName: '__ZN64_$LT$core..num..bignum..Big32x40$u20$as$u20$core..fmt..Debug$GT$3fmt17hd7caf2afa1b87806E', symObjAddr: 0x12534, symBinAddr: 0x10009CC54, symSize: 0x198 }
  - { offset: 0xF5585, size: 0x8, addend: 0x0, symName: __ZN4core3num6bignum5tests6Big8x38from_u6417ha8af1508a50adc17E, symObjAddr: 0x126CC, symBinAddr: 0x10009CDEC, symSize: 0xB4 }
  - { offset: 0xF559F, size: 0x8, addend: 0x0, symName: __ZN4core3num6bignum5tests6Big8x36digits17h98f98e91ac9404a0E, symObjAddr: 0x12780, symBinAddr: 0x10009CEA0, symSize: 0x30 }
  - { offset: 0xF55EA, size: 0x8, addend: 0x0, symName: __ZN4core3num6bignum5tests6Big8x37get_bit17h977475b6b72e79bdE, symObjAddr: 0x127B0, symBinAddr: 0x10009CED0, symSize: 0x40 }
  - { offset: 0xF560B, size: 0x8, addend: 0x0, symName: __ZN4core3num6bignum5tests6Big8x37is_zero17h2576e3b405326b3eE, symObjAddr: 0x127F0, symBinAddr: 0x10009CF10, symSize: 0x80 }
  - { offset: 0xF568B, size: 0x8, addend: 0x0, symName: __ZN4core3num6bignum5tests6Big8x310bit_length17h6ffd0280771ee432E, symObjAddr: 0x12870, symBinAddr: 0x10009CF90, symSize: 0xC0 }
  - { offset: 0xF5782, size: 0x8, addend: 0x0, symName: __ZN4core3num6bignum5tests6Big8x33add17h2f363d637b5f9113E, symObjAddr: 0x12930, symBinAddr: 0x10009D050, symSize: 0xB4 }
  - { offset: 0xF586C, size: 0x8, addend: 0x0, symName: __ZN4core3num6bignum5tests6Big8x39add_small17h03e3e1c7b4b6ece1E, symObjAddr: 0x129E4, symBinAddr: 0x10009D104, symSize: 0x8C }
  - { offset: 0xF58CC, size: 0x8, addend: 0x0, symName: __ZN4core3num6bignum5tests6Big8x33sub17h39107902a38d93cbE, symObjAddr: 0x12A70, symBinAddr: 0x10009D190, symSize: 0xA4 }
  - { offset: 0xF59B0, size: 0x8, addend: 0x0, symName: __ZN4core3num6bignum5tests6Big8x39mul_small17h2f5d8d34b5d6c1d2E, symObjAddr: 0x12B14, symBinAddr: 0x10009D234, symSize: 0xA8 }
  - { offset: 0xF5A38, size: 0x8, addend: 0x0, symName: __ZN4core3num6bignum5tests6Big8x38mul_pow217h2248b44159cebdd3E, symObjAddr: 0x12BBC, symBinAddr: 0x10009D2DC, symSize: 0x184 }
  - { offset: 0xF5B19, size: 0x8, addend: 0x0, symName: __ZN4core3num6bignum5tests6Big8x38mul_pow517h03bb2dcb9734f270E, symObjAddr: 0x12D40, symBinAddr: 0x10009D460, symSize: 0x14C }
  - { offset: 0xF5D17, size: 0x8, addend: 0x0, symName: __ZN4core3num6bignum5tests6Big8x310mul_digits17h9b511d7e6a268206E, symObjAddr: 0x12E8C, symBinAddr: 0x10009D5AC, symSize: 0x36C }
  - { offset: 0xF5FDB, size: 0x8, addend: 0x0, symName: __ZN4core3num6bignum5tests6Big8x313div_rem_small17h8b1c0d0eedd54463E, symObjAddr: 0x131F8, symBinAddr: 0x10009D918, symSize: 0xBC }
  - { offset: 0xF60C1, size: 0x8, addend: 0x0, symName: __ZN4core3num6bignum5tests6Big8x37div_rem17h7e5f1cefda338378E, symObjAddr: 0x132B4, symBinAddr: 0x10009D9D4, symSize: 0x2DC }
  - { offset: 0xF65A1, size: 0x8, addend: 0x0, symName: '__ZN67_$LT$core..num..bignum..tests..Big8x3$u20$as$u20$core..cmp..Ord$GT$3cmp17hdaf11620d3bfa8e1E', symObjAddr: 0x13690, symBinAddr: 0x10009DDB0, symSize: 0xD4 }
  - { offset: 0xF6788, size: 0x8, addend: 0x0, symName: '__ZN74_$LT$core..num..bignum..tests..Big8x3$u20$as$u20$core..cmp..PartialOrd$GT$11partial_cmp17h3f98865c4aac9096E', symObjAddr: 0x135BC, symBinAddr: 0x10009DCDC, symSize: 0xD4 }
  - { offset: 0xF696F, size: 0x8, addend: 0x0, symName: '__ZN73_$LT$core..num..bignum..tests..Big8x3$u20$as$u20$core..cmp..PartialEq$GT$2eq17hed1f9f708154d657E', symObjAddr: 0x13590, symBinAddr: 0x10009DCB0, symSize: 0x2C }
  - { offset: 0xF69BB, size: 0x8, addend: 0x0, symName: '__ZN69_$LT$core..num..bignum..tests..Big8x3$u20$as$u20$core..fmt..Debug$GT$3fmt17h9f4cfe8aafdccee3E', symObjAddr: 0x13764, symBinAddr: 0x10009DE84, symSize: 0x188 }
  - { offset: 0xF6BA1, size: 0x8, addend: 0x0, symName: __ZN4core3num3fmt4Part5write17h051625eae2c0947eE, symObjAddr: 0x3D64, symBinAddr: 0x10008EDF0, symSize: 0x164 }
  - { offset: 0xF6CB3, size: 0x8, addend: 0x0, symName: __ZN4core3num3fmt9Formatted3len17hb1ecd50dc6164bf1E, symObjAddr: 0x3EC8, symBinAddr: 0x10008EF54, symSize: 0x98 }
  - { offset: 0xF6CF6, size: 0x8, addend: 0x0, symName: __ZN4core3num3fmt9Formatted5write17h0fd6294897ab6537E, symObjAddr: 0x3F60, symBinAddr: 0x10008EFEC, symSize: 0xB0 }
  - { offset: 0xF6E0C, size: 0x8, addend: 0x0, symName: '__ZN72_$LT$core..num..error..TryFromIntError$u20$as$u20$core..fmt..Display$GT$3fmt17h80c9566c13c143d4E', symObjAddr: 0x4010, symBinAddr: 0x10008F09C, symSize: 0x20 }
  - { offset: 0xF6E54, size: 0x8, addend: 0x0, symName: '__ZN70_$LT$core..num..error..ParseIntError$u20$as$u20$core..fmt..Display$GT$3fmt17h4e89c228eaf79c80E', symObjAddr: 0x4030, symBinAddr: 0x10008F0BC, symSize: 0x34 }
  - { offset: 0xF6E9E, size: 0x8, addend: 0x0, symName: __ZN4core3num9int_log1030panic_for_nonpositive_argument17h81ec7b6e052c2aa3E, symObjAddr: 0x4064, symBinAddr: 0x1000A9E4C, symSize: 0x34 }
  - { offset: 0xF6F14, size: 0x8, addend: 0x0, symName: __ZN4core3num8int_sqrt27panic_for_negative_argument17h0b53af7306936742E, symObjAddr: 0x4098, symBinAddr: 0x1000A9E80, symSize: 0x34 }
  - { offset: 0xF6F4A, size: 0x8, addend: 0x0, symName: __ZN4core3num14overflow_panic3add17h7a5ab6ad9a94ea33E, symObjAddr: 0x40CC, symBinAddr: 0x1000A9EB4, symSize: 0x34 }
  - { offset: 0xF6F79, size: 0x8, addend: 0x0, symName: __ZN4core3num14overflow_panic3sub17h26e9c7b80a8446cfE, symObjAddr: 0x4100, symBinAddr: 0x1000A9EE8, symSize: 0x34 }
  - { offset: 0xF6FA8, size: 0x8, addend: 0x0, symName: __ZN4core3num14overflow_panic3mul17h2a49f350ba4a061bE, symObjAddr: 0x4134, symBinAddr: 0x1000A9F1C, symSize: 0x34 }
  - { offset: 0xF6FD7, size: 0x8, addend: 0x0, symName: __ZN4core3num14overflow_panic3div17h5d69d4d04adb8bacE, symObjAddr: 0x4168, symBinAddr: 0x1000A9F50, symSize: 0x34 }
  - { offset: 0xF7006, size: 0x8, addend: 0x0, symName: __ZN4core3num14overflow_panic3rem17h543a0ed3697d1aa1E, symObjAddr: 0x419C, symBinAddr: 0x1000A9F84, symSize: 0x34 }
  - { offset: 0xF7035, size: 0x8, addend: 0x0, symName: __ZN4core3num14overflow_panic3neg17h150bb2aa4da36845E, symObjAddr: 0x41D0, symBinAddr: 0x1000A9FB8, symSize: 0x34 }
  - { offset: 0xF7064, size: 0x8, addend: 0x0, symName: __ZN4core3num14overflow_panic3shr17hf709ff2092e57474E, symObjAddr: 0x4204, symBinAddr: 0x1000A9FEC, symSize: 0x34 }
  - { offset: 0xF7093, size: 0x8, addend: 0x0, symName: __ZN4core3num14overflow_panic3shl17h412043bea767346cE, symObjAddr: 0x4238, symBinAddr: 0x1000AA020, symSize: 0x34 }
  - { offset: 0xF70C3, size: 0x8, addend: 0x0, symName: __ZN4core3num23from_str_radix_panic_ct17hc7460cb66093aca9E, symObjAddr: 0x426C, symBinAddr: 0x10008F0F0, symSize: 0x30 }
  - { offset: 0xF70F3, size: 0x8, addend: 0x0, symName: __ZN4core3num23from_str_radix_panic_rt17he45ccaccb55c6404E, symObjAddr: 0x429C, symBinAddr: 0x10008F120, symSize: 0x44 }
  - { offset: 0xF7123, size: 0x8, addend: 0x0, symName: __ZN4core3num20from_str_radix_panic17heb1e6b1205d27dc7E, symObjAddr: 0x42E0, symBinAddr: 0x1000AA054, symSize: 0xC }
  - { offset: 0xF71F6, size: 0x8, addend: 0x0, symName: '__ZN73_$LT$core..num..nonzero..NonZero$LT$T$GT$$u20$as$u20$core..fmt..Debug$GT$3fmt17h9c1b7807a5db8ec7E', symObjAddr: 0x141C4, symBinAddr: 0x10009E8E4, symSize: 0x28 }
  - { offset: 0xF722B, size: 0x8, addend: 0x0, symName: '__ZN84_$LT$core..num..nonzero..NonZero$LT$u8$GT$$u20$as$u20$core..str..traits..FromStr$GT$8from_str17h21272beba62c98e7E', symObjAddr: 0x141EC, symBinAddr: 0x10009E90C, symSize: 0x138 }
  - { offset: 0xF7314, size: 0x8, addend: 0x0, symName: '__ZN85_$LT$core..num..nonzero..NonZero$LT$u16$GT$$u20$as$u20$core..str..traits..FromStr$GT$8from_str17hea5732906bca706dE', symObjAddr: 0x14324, symBinAddr: 0x10009EA44, symSize: 0x124 }
  - { offset: 0xF73F6, size: 0x8, addend: 0x0, symName: '__ZN85_$LT$core..num..nonzero..NonZero$LT$u32$GT$$u20$as$u20$core..str..traits..FromStr$GT$8from_str17h86b66a8ad5c146a6E', symObjAddr: 0x14448, symBinAddr: 0x10009EB68, symSize: 0x12C }
  - { offset: 0xF74E7, size: 0x8, addend: 0x0, symName: '__ZN85_$LT$core..num..nonzero..NonZero$LT$u64$GT$$u20$as$u20$core..str..traits..FromStr$GT$8from_str17hbcb8af6a873f2038E', symObjAddr: 0x14574, symBinAddr: 0x10009EC94, symSize: 0xFC }
  - { offset: 0xF75DF, size: 0x8, addend: 0x0, symName: '__ZN86_$LT$core..num..nonzero..NonZero$LT$u128$GT$$u20$as$u20$core..str..traits..FromStr$GT$8from_str17ha4e3d3ada8b0ecc7E', symObjAddr: 0x14670, symBinAddr: 0x10009ED90, symSize: 0x130 }
  - { offset: 0xF76DE, size: 0x8, addend: 0x0, symName: '__ZN87_$LT$core..num..nonzero..NonZero$LT$usize$GT$$u20$as$u20$core..str..traits..FromStr$GT$8from_str17h8e62aaabf4c3d4b8E', symObjAddr: 0x147A0, symBinAddr: 0x10009EEC0, symSize: 0xFC }
  - { offset: 0xF77EC, size: 0x8, addend: 0x0, symName: '__ZN84_$LT$core..num..nonzero..NonZero$LT$i8$GT$$u20$as$u20$core..str..traits..FromStr$GT$8from_str17hbac4d88d8c47774bE', symObjAddr: 0x1489C, symBinAddr: 0x10009EFBC, symSize: 0x34 }
  - { offset: 0xF7823, size: 0x8, addend: 0x0, symName: '__ZN85_$LT$core..num..nonzero..NonZero$LT$i16$GT$$u20$as$u20$core..str..traits..FromStr$GT$8from_str17h0a7e51242b020dc6E', symObjAddr: 0x148D0, symBinAddr: 0x10009EFF0, symSize: 0x40 }
  - { offset: 0xF785A, size: 0x8, addend: 0x0, symName: '__ZN85_$LT$core..num..nonzero..NonZero$LT$i32$GT$$u20$as$u20$core..str..traits..FromStr$GT$8from_str17hd68e4e5de9379ca8E', symObjAddr: 0x14910, symBinAddr: 0x10009F030, symSize: 0x44 }
  - { offset: 0xF7891, size: 0x8, addend: 0x0, symName: '__ZN85_$LT$core..num..nonzero..NonZero$LT$i64$GT$$u20$as$u20$core..str..traits..FromStr$GT$8from_str17h702f65c79b112081E', symObjAddr: 0x14954, symBinAddr: 0x10009F074, symSize: 0x64 }
  - { offset: 0xF78EB, size: 0x8, addend: 0x0, symName: '__ZN86_$LT$core..num..nonzero..NonZero$LT$i128$GT$$u20$as$u20$core..str..traits..FromStr$GT$8from_str17h7304d1d56fa09267E', symObjAddr: 0x149B8, symBinAddr: 0x10009F0D8, symSize: 0x68 }
  - { offset: 0xF7945, size: 0x8, addend: 0x0, symName: '__ZN87_$LT$core..num..nonzero..NonZero$LT$isize$GT$$u20$as$u20$core..str..traits..FromStr$GT$8from_str17h796026d9ef7ae7efE', symObjAddr: 0x14A20, symBinAddr: 0x10009F140, symSize: 0x64 }
  - { offset: 0xF7CB4, size: 0x8, addend: 0x0, symName: '__ZN4core3num20_$LT$impl$u20$u8$GT$14from_str_radix17h4d97c07797168bc1E', symObjAddr: 0x15174, symBinAddr: 0x10009F894, symSize: 0x210 }
  - { offset: 0xF7DAF, size: 0x8, addend: 0x0, symName: '__ZN4core3num21_$LT$impl$u20$u16$GT$14from_str_radix17hcb23716c26fb66a7E', symObjAddr: 0x15384, symBinAddr: 0x10009FAA4, symSize: 0x1F8 }
  - { offset: 0xF7EAA, size: 0x8, addend: 0x0, symName: '__ZN4core3num21_$LT$impl$u20$u32$GT$14from_str_radix17h721a19915d795d93E', symObjAddr: 0x1557C, symBinAddr: 0x10009FC9C, symSize: 0x1FC }
  - { offset: 0xF7FA5, size: 0x8, addend: 0x0, symName: '__ZN4core3num21_$LT$impl$u20$u64$GT$14from_str_radix17h191104f15cd90851E', symObjAddr: 0x15778, symBinAddr: 0x10009FE98, symSize: 0x1E0 }
  - { offset: 0xF80A0, size: 0x8, addend: 0x0, symName: '__ZN4core3num22_$LT$impl$u20$u128$GT$14from_str_radix17hda31cc834db2ef15E', symObjAddr: 0x15958, symBinAddr: 0x1000A0078, symSize: 0x23C }
  - { offset: 0xF81E7, size: 0x8, addend: 0x0, symName: '__ZN4core3num23_$LT$impl$u20$usize$GT$14from_str_radix17he073e7988cbbf7f9E', symObjAddr: 0x16C20, symBinAddr: 0x1000A1340, symSize: 0x54 }
  - { offset: 0xF820F, size: 0x8, addend: 0x0, symName: '__ZN4core3num23_$LT$impl$u20$isize$GT$14from_str_radix17ha7c143638f50bf7bE', symObjAddr: 0x16BCC, symBinAddr: 0x1000A12EC, symSize: 0x54 }
  - { offset: 0xF8229, size: 0x8, addend: 0x0, symName: '__ZN4core3num62_$LT$impl$u20$core..str..traits..FromStr$u20$for$u20$isize$GT$8from_str17h9be7f8c940fb0207E', symObjAddr: 0x14A84, symBinAddr: 0x10009F1A4, symSize: 0x58 }
  - { offset: 0xF8260, size: 0x8, addend: 0x0, symName: '__ZN4core3num59_$LT$impl$u20$core..str..traits..FromStr$u20$for$u20$i8$GT$8from_str17hdecb5a4e88c48dfcE', symObjAddr: 0x14ADC, symBinAddr: 0x10009F1FC, symSize: 0x14 }
  - { offset: 0xF8281, size: 0x8, addend: 0x0, symName: '__ZN4core3num60_$LT$impl$u20$core..str..traits..FromStr$u20$for$u20$i16$GT$8from_str17hd5fa92132fa63364E', symObjAddr: 0x14AF0, symBinAddr: 0x10009F210, symSize: 0x14 }
  - { offset: 0xF82A2, size: 0x8, addend: 0x0, symName: '__ZN4core3num60_$LT$impl$u20$core..str..traits..FromStr$u20$for$u20$i32$GT$8from_str17hac74baf05c93edadE', symObjAddr: 0x14B04, symBinAddr: 0x10009F224, symSize: 0x14 }
  - { offset: 0xF82C3, size: 0x8, addend: 0x0, symName: '__ZN4core3num60_$LT$impl$u20$core..str..traits..FromStr$u20$for$u20$i64$GT$8from_str17he0e0479953c74cf5E', symObjAddr: 0x14B18, symBinAddr: 0x10009F238, symSize: 0x14 }
  - { offset: 0xF82E4, size: 0x8, addend: 0x0, symName: '__ZN4core3num61_$LT$impl$u20$core..str..traits..FromStr$u20$for$u20$i128$GT$8from_str17haf42a3de9ebc5ac8E', symObjAddr: 0x14B2C, symBinAddr: 0x10009F24C, symSize: 0x14 }
  - { offset: 0xF8305, size: 0x8, addend: 0x0, symName: '__ZN4core3num62_$LT$impl$u20$core..str..traits..FromStr$u20$for$u20$usize$GT$8from_str17hdd182ed93f0eb039E', symObjAddr: 0x14B40, symBinAddr: 0x10009F260, symSize: 0xEC }
  - { offset: 0xF83F0, size: 0x8, addend: 0x0, symName: '__ZN4core3num59_$LT$impl$u20$core..str..traits..FromStr$u20$for$u20$u8$GT$8from_str17hfe217f745917387eE', symObjAddr: 0x14C2C, symBinAddr: 0x10009F34C, symSize: 0x114 }
  - { offset: 0xF84C4, size: 0x8, addend: 0x0, symName: '__ZN4core3num60_$LT$impl$u20$core..str..traits..FromStr$u20$for$u20$u16$GT$8from_str17hc1048b95e6ac4ed2E', symObjAddr: 0x14D40, symBinAddr: 0x10009F460, symSize: 0x108 }
  - { offset: 0xF8591, size: 0x8, addend: 0x0, symName: '__ZN4core3num60_$LT$impl$u20$core..str..traits..FromStr$u20$for$u20$u32$GT$8from_str17hb64dad5765205691E', symObjAddr: 0x14E48, symBinAddr: 0x10009F568, symSize: 0x100 }
  - { offset: 0xF866D, size: 0x8, addend: 0x0, symName: '__ZN4core3num60_$LT$impl$u20$core..str..traits..FromStr$u20$for$u20$u64$GT$8from_str17h8985d3cb52cf644aE', symObjAddr: 0x14F48, symBinAddr: 0x10009F668, symSize: 0xFC }
  - { offset: 0xF8749, size: 0x8, addend: 0x0, symName: '__ZN4core3num61_$LT$impl$u20$core..str..traits..FromStr$u20$for$u20$u128$GT$8from_str17he6143ed602f7d6f6E', symObjAddr: 0x15044, symBinAddr: 0x10009F764, symSize: 0x130 }
  - { offset: 0xF888D, size: 0x8, addend: 0x0, symName: '__ZN4core3num20_$LT$impl$u20$i8$GT$14from_str_radix17h1b3bed9199cd4188E', symObjAddr: 0x15B94, symBinAddr: 0x1000A02B4, symSize: 0x2D0 }
  - { offset: 0xF8AF0, size: 0x8, addend: 0x0, symName: '__ZN4core3num21_$LT$impl$u20$i16$GT$14from_str_radix17h54c3364600c91085E', symObjAddr: 0x15E64, symBinAddr: 0x1000A0584, symSize: 0x318 }
  - { offset: 0xF8CE3, size: 0x8, addend: 0x0, symName: '__ZN4core3num21_$LT$impl$u20$i32$GT$14from_str_radix17h196058767b8c3e6eE', symObjAddr: 0x1617C, symBinAddr: 0x1000A089C, symSize: 0x368 }
  - { offset: 0xF8F03, size: 0x8, addend: 0x0, symName: '__ZN4core3num21_$LT$impl$u20$i64$GT$14from_str_radix17h3d73d244237e7adcE', symObjAddr: 0x164E4, symBinAddr: 0x1000A0C04, symSize: 0x32C }
  - { offset: 0xF9123, size: 0x8, addend: 0x0, symName: '__ZN4core3num22_$LT$impl$u20$i128$GT$14from_str_radix17h3ef54c940fd72cefE', symObjAddr: 0x16810, symBinAddr: 0x1000A0F30, symSize: 0x3BC }
  - { offset: 0xF9C8D, size: 0x8, addend: 0x0, symName: __ZN4core5slice5index26slice_start_index_len_fail17h09adaa8af9c45d77E, symObjAddr: 0xDB40, symBinAddr: 0x1000AA5CC, symSize: 0x50 }
  - { offset: 0xF9CDE, size: 0x8, addend: 0x0, symName: __ZN4core5slice5index24slice_end_index_len_fail17hace87fef8ebaa879E, symObjAddr: 0xDB90, symBinAddr: 0x1000AA61C, symSize: 0x50 }
  - { offset: 0xF9D2F, size: 0x8, addend: 0x0, symName: __ZN4core5slice5index22slice_index_order_fail17h9da95e3287fe1a73E, symObjAddr: 0xDBE0, symBinAddr: 0x1000AA66C, symSize: 0x50 }
  - { offset: 0xF9D73, size: 0x8, addend: 0x0, symName: __ZN4core5slice5index31slice_start_index_overflow_fail17h5f4fb4740fd0d783E, symObjAddr: 0xDC30, symBinAddr: 0x1000AA6BC, symSize: 0x34 }
  - { offset: 0xF9DA2, size: 0x8, addend: 0x0, symName: __ZN4core5slice5index29slice_end_index_overflow_fail17hc21cb2becac302eeE, symObjAddr: 0xDC64, symBinAddr: 0x1000AA6F0, symSize: 0x34 }
  - { offset: 0xF9DD1, size: 0x8, addend: 0x0, symName: __ZN4core5slice5index10into_range17h337c6ed12ec3d64dE, symObjAddr: 0xDC98, symBinAddr: 0x10009844C, symSize: 0x68 }
  - { offset: 0xF9E39, size: 0x8, addend: 0x0, symName: __ZN4core5slice5index16into_slice_range17h712dc134ae1a862cE, symObjAddr: 0xDD00, symBinAddr: 0x1000984B4, symSize: 0x70 }
  - { offset: 0xFA4C8, size: 0x8, addend: 0x0, symName: '__ZN4core5slice29_$LT$impl$u20$$u5b$T$u5d$$GT$15copy_from_slice17len_mismatch_fail17h28c1906e92a1bbf0E', symObjAddr: 0xDD70, symBinAddr: 0x1000AA724, symSize: 0x54 }
  - { offset: 0xFA4FE, size: 0x8, addend: 0x0, symName: '__ZN4core5slice29_$LT$impl$u20$$u5b$T$u5d$$GT$16align_to_offsets3gcd17h75d441101e1ac7d6E', symObjAddr: 0xDDC4, symBinAddr: 0x100098524, symSize: 0x34 }
  - { offset: 0xFA7BC, size: 0x8, addend: 0x0, symName: '__ZN105_$LT$core..slice..ascii..EscapeAscii$u20$as$u20$core..iter..traits..double_ended..DoubleEndedIterator$GT$9next_back17hcc1ea437677d4882E', symObjAddr: 0xD708, symBinAddr: 0x100098014, symSize: 0x15C }
  - { offset: 0xFAAB0, size: 0x8, addend: 0x0, symName: '__ZN70_$LT$core..slice..ascii..EscapeAscii$u20$as$u20$core..fmt..Display$GT$3fmt17hce87d40504788912E', symObjAddr: 0xD864, symBinAddr: 0x100098170, symSize: 0x270 }
  - { offset: 0xFAF82, size: 0x8, addend: 0x0, symName: '__ZN68_$LT$core..slice..ascii..EscapeAscii$u20$as$u20$core..fmt..Debug$GT$3fmt17h328f07b8530f645eE', symObjAddr: 0xDAD4, symBinAddr: 0x1000983E0, symSize: 0x6C }
  - { offset: 0xFB05E, size: 0x8, addend: 0x0, symName: __ZN4core5slice6memchr14memchr_aligned17habb95d53ed733198E, symObjAddr: 0xD490, symBinAddr: 0x100097DD4, symSize: 0xE8 }
  - { offset: 0xFB0D9, size: 0x8, addend: 0x0, symName: __ZN4core5slice6memchr7memrchr17h7c09f282c8d43a18E, symObjAddr: 0xD578, symBinAddr: 0x100097EBC, symSize: 0x120 }
  - { offset: 0xFB245, size: 0x8, addend: 0x0, symName: __ZN4core5slice4sort6stable5drift11sqrt_approx17hcf58ea2718a1a898E, symObjAddr: 0xD698, symBinAddr: 0x100097FDC, symSize: 0x38 }
  - { offset: 0xFB2C2, size: 0x8, addend: 0x0, symName: __ZN4core5slice4sort6shared9smallsort22panic_on_ord_violation17hf75f95b80e6d7464E, symObjAddr: 0xD6D0, symBinAddr: 0x1000AA594, symSize: 0x38 }
  - { offset: 0xFB831, size: 0x8, addend: 0x0, symName: '__ZN68_$LT$core..ptr..alignment..Alignment$u20$as$u20$core..fmt..Debug$GT$3fmt17hcc7dce9bd226a2d9E', symObjAddr: 0x4304, symBinAddr: 0x10008F17C, symSize: 0x78 }
  - { offset: 0xFBBD8, size: 0x8, addend: 0x0, symName: __ZN4core10intrinsics3mir11PtrMetadata19panic_cold_explicit17h940fea140c5c4fd9E, symObjAddr: 0x16C74, symBinAddr: 0x1000AA7B8, symSize: 0xC }
  - { offset: 0xFBCA7, size: 0x8, addend: 0x0, symName: '__ZN42_$LT$str$u20$as$u20$core..fmt..Display$GT$3fmt17h14b09b2136c51b18E', symObjAddr: 0xD108, symBinAddr: 0x100097A4C, symSize: 0x20 }
  - { offset: 0xFC2F5, size: 0x8, addend: 0x0, symName: __ZN4core3fmt9Formatter12pad_integral17h9c8ca8356d09ee41E, symObjAddr: 0xB1A0, symBinAddr: 0x100095AE4, symSize: 0x3D8 }
  - { offset: 0xFC5B4, size: 0x8, addend: 0x0, symName: __ZN4core3fmt9Formatter3pad17ha16951b7d2682cf7E, symObjAddr: 0xB5F4, symBinAddr: 0x100095F38, symSize: 0x37C }
  - { offset: 0xFCA71, size: 0x8, addend: 0x0, symName: __ZN4core3fmt9Formatter19pad_formatted_parts17h7346a5b6be4e8f01E, symObjAddr: 0xB970, symBinAddr: 0x1000962B4, symSize: 0x21C }
  - { offset: 0xFCC17, size: 0x8, addend: 0x0, symName: __ZN4core3fmt9Formatter21write_formatted_parts17h62b5f1bd4adef792E, symObjAddr: 0xBB8C, symBinAddr: 0x1000964D0, symSize: 0x23C }
  - { offset: 0xFCCFC, size: 0x8, addend: 0x0, symName: __ZN4core3fmt9Formatter9write_str17h63c3ec7427df42c3E, symObjAddr: 0xBDC8, symBinAddr: 0x10009670C, symSize: 0x1C }
  - { offset: 0xFCD10, size: 0x8, addend: 0x0, symName: __ZN4core3fmt9Formatter12debug_struct17h69b8155eb75b69d7E, symObjAddr: 0xBDE4, symBinAddr: 0x100096728, symSize: 0x3C }
  - { offset: 0xFCD4F, size: 0x8, addend: 0x0, symName: __ZN4core3fmt9Formatter26debug_struct_field1_finish17h7d5c60d1c38fd9a8E, symObjAddr: 0xBE20, symBinAddr: 0x100096764, symSize: 0xD0 }
  - { offset: 0xFCE26, size: 0x8, addend: 0x0, symName: __ZN4core3fmt9Formatter26debug_struct_field2_finish17h74739c5309b72b6dE, symObjAddr: 0xBEF0, symBinAddr: 0x100096834, symSize: 0x104 }
  - { offset: 0xFCEFD, size: 0x8, addend: 0x0, symName: __ZN4core3fmt9Formatter26debug_struct_field3_finish17haa82658f71b52464E, symObjAddr: 0xBFF4, symBinAddr: 0x100096938, symSize: 0x12C }
  - { offset: 0xFCFD4, size: 0x8, addend: 0x0, symName: __ZN4core3fmt9Formatter26debug_struct_field4_finish17h8f563ca64b0bde12E, symObjAddr: 0xC120, symBinAddr: 0x100096A64, symSize: 0x15C }
  - { offset: 0xFD0AB, size: 0x8, addend: 0x0, symName: __ZN4core3fmt9Formatter26debug_struct_field5_finish17h0e601909249ec8f4E, symObjAddr: 0xC27C, symBinAddr: 0x100096BC0, symSize: 0x180 }
  - { offset: 0xFD182, size: 0x8, addend: 0x0, symName: __ZN4core3fmt9Formatter26debug_struct_fields_finish17h08b0e7cc894c8971E, symObjAddr: 0xC3FC, symBinAddr: 0x100096D40, symSize: 0xFC }
  - { offset: 0xFD274, size: 0x8, addend: 0x0, symName: __ZN4core3fmt9Formatter11debug_tuple17h9180a6a45d78fb65E, symObjAddr: 0xC4F8, symBinAddr: 0x100096E3C, symSize: 0x50 }
  - { offset: 0xFD2C9, size: 0x8, addend: 0x0, symName: __ZN4core3fmt9Formatter25debug_tuple_field1_finish17hcf7a6e8d9d1f867dE, symObjAddr: 0xC548, symBinAddr: 0x100096E8C, symSize: 0xEC }
  - { offset: 0xFD39F, size: 0x8, addend: 0x0, symName: __ZN4core3fmt9Formatter25debug_tuple_field2_finish17h1866cec65a76ae5eE, symObjAddr: 0xC634, symBinAddr: 0x100096F78, symSize: 0x10C }
  - { offset: 0xFD475, size: 0x8, addend: 0x0, symName: __ZN4core3fmt9Formatter25debug_tuple_field3_finish17h4cda1709c71f7719E, symObjAddr: 0xC740, symBinAddr: 0x100097084, symSize: 0x12C }
  - { offset: 0xFD54B, size: 0x8, addend: 0x0, symName: __ZN4core3fmt9Formatter25debug_tuple_field4_finish17h11ec8338c8c0157cE, symObjAddr: 0xC86C, symBinAddr: 0x1000971B0, symSize: 0x148 }
  - { offset: 0xFD621, size: 0x8, addend: 0x0, symName: __ZN4core3fmt9Formatter25debug_tuple_field5_finish17h878cdf23ef4fa6cfE, symObjAddr: 0xC9B4, symBinAddr: 0x1000972F8, symSize: 0x164 }
  - { offset: 0xFD6F7, size: 0x8, addend: 0x0, symName: __ZN4core3fmt9Formatter25debug_tuple_fields_finish17h40ec780b66187132E, symObjAddr: 0xCB18, symBinAddr: 0x10009745C, symSize: 0x114 }
  - { offset: 0xFD82E, size: 0x8, addend: 0x0, symName: __ZN4core3fmt9Formatter10debug_list17h532916e595297b31E, symObjAddr: 0xCC2C, symBinAddr: 0x100097570, symSize: 0x48 }
  - { offset: 0xFD86E, size: 0x8, addend: 0x0, symName: __ZN4core3fmt9Formatter9debug_set17h8328ce1d5bf71244E, symObjAddr: 0xCC74, symBinAddr: 0x1000975B8, symSize: 0x48 }
  - { offset: 0xFD8B5, size: 0x8, addend: 0x0, symName: __ZN4core3fmt9Formatter9debug_map17haf55d4ac40eaec57E, symObjAddr: 0xCCBC, symBinAddr: 0x100097600, symSize: 0x58 }
  - { offset: 0xFDA97, size: 0x8, addend: 0x0, symName: __ZN4core3fmt8builders11DebugStruct5field17h7ff8e911eb188324E, symObjAddr: 0x80DC, symBinAddr: 0x100092A20, symSize: 0x1C4 }
  - { offset: 0xFDC9B, size: 0x8, addend: 0x0, symName: __ZN4core3fmt8builders11DebugStruct21finish_non_exhaustive17h62424373ad9e838bE, symObjAddr: 0x82A0, symBinAddr: 0x100092BE4, symSize: 0xC4 }
  - { offset: 0xFDDAB, size: 0x8, addend: 0x0, symName: __ZN4core3fmt8builders11DebugStruct6finish17h04604717d5347e9cE, symObjAddr: 0x8364, symBinAddr: 0x100092CA8, symSize: 0x80 }
  - { offset: 0xFDEAC, size: 0x8, addend: 0x0, symName: __ZN4core3fmt8builders10PadAdapter4wrap17hf86607394efd582eE, symObjAddr: 0x7DCC, symBinAddr: 0x100092710, symSize: 0x40 }
  - { offset: 0xFDF13, size: 0x8, addend: 0x0, symName: '__ZN68_$LT$core..fmt..builders..PadAdapter$u20$as$u20$core..fmt..Write$GT$9write_str17hd65d345e1b6f891dE', symObjAddr: 0x7E0C, symBinAddr: 0x100092750, symSize: 0x250 }
  - { offset: 0xFE190, size: 0x8, addend: 0x0, symName: '__ZN68_$LT$core..fmt..builders..PadAdapter$u20$as$u20$core..fmt..Write$GT$10write_char17h96017e9fc4faedcaE', symObjAddr: 0x805C, symBinAddr: 0x1000929A0, symSize: 0x80 }
  - { offset: 0xFE24F, size: 0x8, addend: 0x0, symName: __ZN4core3fmt8builders10DebugTuple5field17h9d50a3632f077675E, symObjAddr: 0x83E4, symBinAddr: 0x100092D28, symSize: 0x15C }
  - { offset: 0xFE3DA, size: 0x8, addend: 0x0, symName: __ZN4core3fmt8builders10DebugTuple21finish_non_exhaustive17hc2cddc171a18cba4E, symObjAddr: 0x8540, symBinAddr: 0x100092E84, symSize: 0xC0 }
  - { offset: 0xFE517, size: 0x8, addend: 0x0, symName: __ZN4core3fmt8builders10DebugTuple6finish17h33008b9c152709edE, symObjAddr: 0x8600, symBinAddr: 0x100092F44, symSize: 0xB0 }
  - { offset: 0xFE694, size: 0x8, addend: 0x0, symName: __ZN4core3fmt8builders8DebugSet5entry17h9fcf40d66ceb972aE, symObjAddr: 0x86B0, symBinAddr: 0x100092FF4, symSize: 0x150 }
  - { offset: 0xFE81F, size: 0x8, addend: 0x0, symName: __ZN4core3fmt8builders8DebugSet21finish_non_exhaustive17h832392bbbf1b21afE, symObjAddr: 0x8800, symBinAddr: 0x100093144, symSize: 0xC4 }
  - { offset: 0xFE93E, size: 0x8, addend: 0x0, symName: __ZN4core3fmt8builders8DebugSet6finish17h735f85de9eb4547cE, symObjAddr: 0x88C4, symBinAddr: 0x100093208, symSize: 0x4C }
  - { offset: 0xFE9C7, size: 0x8, addend: 0x0, symName: __ZN4core3fmt8builders9DebugList21finish_non_exhaustive17hb746be46314d938eE, symObjAddr: 0x8910, symBinAddr: 0x100093254, symSize: 0xC8 }
  - { offset: 0xFEAEE, size: 0x8, addend: 0x0, symName: __ZN4core3fmt8builders9DebugList6finish17h3d36d9a522031b21E, symObjAddr: 0x89D8, symBinAddr: 0x10009331C, symSize: 0x4C }
  - { offset: 0xFEB5E, size: 0x8, addend: 0x0, symName: __ZN4core3fmt8builders8DebugMap5entry17hb2fb47b1de44391eE, symObjAddr: 0x8A24, symBinAddr: 0x100093368, symSize: 0x2C }
  - { offset: 0xFEB95, size: 0x8, addend: 0x0, symName: __ZN4core3fmt8builders8DebugMap3key17h4139ab51b64b5f6fE, symObjAddr: 0x8A50, symBinAddr: 0x100093394, symSize: 0x1DC }
  - { offset: 0xFED70, size: 0x8, addend: 0x0, symName: __ZN4core3fmt8builders8DebugMap5value17h74e2bb0b17892ea9E, symObjAddr: 0x8C2C, symBinAddr: 0x100093570, symSize: 0x118 }
  - { offset: 0xFEEC8, size: 0x8, addend: 0x0, symName: __ZN4core3fmt8builders8DebugMap21finish_non_exhaustive17hed5fe972c64fb7f8E, symObjAddr: 0x8D44, symBinAddr: 0x100093688, symSize: 0xF8 }
  - { offset: 0xFEFFB, size: 0x8, addend: 0x0, symName: __ZN4core3fmt8builders8DebugMap6finish17hdb73ecc34c4f52e2E, symObjAddr: 0x8E3C, symBinAddr: 0x100093780, symSize: 0x88 }
  - { offset: 0xFF127, size: 0x8, addend: 0x0, symName: '__ZN57_$LT$core..fmt..Formatter$u20$as$u20$core..fmt..Write$GT$10write_char17h468bea102974991dE', symObjAddr: 0xCD14, symBinAddr: 0x100097658, symSize: 0x1C }
  - { offset: 0xFF1C2, size: 0x8, addend: 0x0, symName: __ZN4core3fmt5Write10write_char17h20b4677caa33eba3E, symObjAddr: 0xA984, symBinAddr: 0x1000952C8, symSize: 0x158 }
  - { offset: 0xFF2A6, size: 0x8, addend: 0x0, symName: __ZN4core3fmt5Write10write_char17hb04f42e51ccf6559E, symObjAddr: 0xAADC, symBinAddr: 0x100095420, symSize: 0x158 }
  - { offset: 0xFF38A, size: 0x8, addend: 0x0, symName: __ZN4core3fmt5Write10write_char17hf40fb570ee9c30f0E, symObjAddr: 0xAC34, symBinAddr: 0x100095578, symSize: 0x158 }
  - { offset: 0xFF46E, size: 0x8, addend: 0x0, symName: __ZN4core3fmt5Write10write_char17hfbdfa0b0e2ae116dE, symObjAddr: 0xAD8C, symBinAddr: 0x1000956D0, symSize: 0x158 }
  - { offset: 0xFF552, size: 0x8, addend: 0x0, symName: __ZN4core3fmt5Write9write_fmt17h1131efa77a78d81cE, symObjAddr: 0xAEE4, symBinAddr: 0x100095828, symSize: 0x1C }
  - { offset: 0xFF581, size: 0x8, addend: 0x0, symName: __ZN4core3fmt5Write9write_fmt17h2a28941d818aae51E, symObjAddr: 0xAF00, symBinAddr: 0x100095844, symSize: 0x1C }
  - { offset: 0xFF5B0, size: 0x8, addend: 0x0, symName: __ZN4core3fmt5Write9write_fmt17h86594e12a4b5c2c3E, symObjAddr: 0xAF1C, symBinAddr: 0x100095860, symSize: 0x1C }
  - { offset: 0xFF5DF, size: 0x8, addend: 0x0, symName: __ZN4core3fmt5Write9write_fmt17h96b3ac15480e1540E, symObjAddr: 0xAF38, symBinAddr: 0x10009587C, symSize: 0x1C }
  - { offset: 0xFF60E, size: 0x8, addend: 0x0, symName: __ZN4core3fmt5Write9write_fmt17h96bca65bd8bdc463E, symObjAddr: 0xAF54, symBinAddr: 0x100095898, symSize: 0x1C }
  - { offset: 0xFF691, size: 0x8, addend: 0x0, symName: '__ZN43_$LT$bool$u20$as$u20$core..fmt..Display$GT$3fmt17hd16434f3f9b8c527E', symObjAddr: 0xCD50, symBinAddr: 0x100097694, symSize: 0x44 }
  - { offset: 0xFF6EA, size: 0x8, addend: 0x0, symName: __ZN4core3fmt5float29float_to_decimal_common_exact17h115d397f254631d6E, symObjAddr: 0x8EC4, symBinAddr: 0x100093808, symSize: 0x2F8 }
  - { offset: 0xFF7A9, size: 0x8, addend: 0x0, symName: __ZN4core3fmt5float29float_to_decimal_common_exact17h16a67861b0900a8eE, symObjAddr: 0x91BC, symBinAddr: 0x100093B00, symSize: 0x2F4 }
  - { offset: 0xFF868, size: 0x8, addend: 0x0, symName: __ZN4core3fmt5float32float_to_decimal_common_shortest17h1d29b2c3bfb24d5cE, symObjAddr: 0x94B0, symBinAddr: 0x100093DF4, symSize: 0x244 }
  - { offset: 0xFF921, size: 0x8, addend: 0x0, symName: __ZN4core3fmt5float32float_to_decimal_common_shortest17h4d44713895a45ef6E, symObjAddr: 0x96F4, symBinAddr: 0x100094038, symSize: 0x248 }
  - { offset: 0xFF9DA, size: 0x8, addend: 0x0, symName: __ZN4core3fmt5float33float_to_exponential_common_exact17h3555eaee143e9ffcE, symObjAddr: 0x993C, symBinAddr: 0x100094280, symSize: 0x334 }
  - { offset: 0xFFAC2, size: 0x8, addend: 0x0, symName: __ZN4core3fmt5float33float_to_exponential_common_exact17h3ffe83d474cb1910E, symObjAddr: 0x9C70, symBinAddr: 0x1000945B4, symSize: 0x338 }
  - { offset: 0xFFBAA, size: 0x8, addend: 0x0, symName: __ZN4core3fmt5float36float_to_exponential_common_shortest17h043a52a7d566c7d5E, symObjAddr: 0x9FA8, symBinAddr: 0x1000948EC, symSize: 0x234 }
  - { offset: 0xFFC72, size: 0x8, addend: 0x0, symName: __ZN4core3fmt5float36float_to_exponential_common_shortest17h6712bc626d44fef4E, symObjAddr: 0xA1DC, symBinAddr: 0x100094B20, symSize: 0x230 }
  - { offset: 0xFFD5F, size: 0x8, addend: 0x0, symName: '__ZN4core3fmt5float50_$LT$impl$u20$core..fmt..Debug$u20$for$u20$f32$GT$3fmt17h1049e010484a4039E', symObjAddr: 0x17EF4, symBinAddr: 0x1000A2260, symSize: 0xA0 }
  - { offset: 0xFFDD8, size: 0x8, addend: 0x0, symName: '__ZN4core3fmt5float52_$LT$impl$u20$core..fmt..Display$u20$for$u20$f32$GT$3fmt17h8f0d8cfd723e85a0E', symObjAddr: 0x17F94, symBinAddr: 0x1000A2300, symSize: 0x48 }
  - { offset: 0xFFE28, size: 0x8, addend: 0x0, symName: '__ZN4core3fmt5float53_$LT$impl$u20$core..fmt..LowerExp$u20$for$u20$f32$GT$3fmt17h4b82a81d9017b189E', symObjAddr: 0x17FDC, symBinAddr: 0x1000A2348, symSize: 0x50 }
  - { offset: 0xFFE6B, size: 0x8, addend: 0x0, symName: '__ZN4core3fmt5float53_$LT$impl$u20$core..fmt..UpperExp$u20$for$u20$f32$GT$3fmt17h79d83cb8cb9907e0E', symObjAddr: 0x1802C, symBinAddr: 0x1000A2398, symSize: 0x50 }
  - { offset: 0xFFECE, size: 0x8, addend: 0x0, symName: '__ZN4core3fmt5float50_$LT$impl$u20$core..fmt..Debug$u20$for$u20$f64$GT$3fmt17h36a98c5cee4adac8E', symObjAddr: 0x1807C, symBinAddr: 0x1000A23E8, symSize: 0xB0 }
  - { offset: 0xFFF47, size: 0x8, addend: 0x0, symName: '__ZN4core3fmt5float52_$LT$impl$u20$core..fmt..Display$u20$for$u20$f64$GT$3fmt17h249e181677c2a520E', symObjAddr: 0x1812C, symBinAddr: 0x1000A2498, symSize: 0x48 }
  - { offset: 0xFFF97, size: 0x8, addend: 0x0, symName: '__ZN4core3fmt5float53_$LT$impl$u20$core..fmt..LowerExp$u20$for$u20$f64$GT$3fmt17hea0234efb8741965E', symObjAddr: 0x18174, symBinAddr: 0x1000A24E0, symSize: 0x50 }
  - { offset: 0xFFFDA, size: 0x8, addend: 0x0, symName: '__ZN4core3fmt5float53_$LT$impl$u20$core..fmt..UpperExp$u20$for$u20$f64$GT$3fmt17h7eed48a79dfe5214E', symObjAddr: 0x181C4, symBinAddr: 0x1000A2530, symSize: 0x50 }
  - { offset: 0x10001E, size: 0x8, addend: 0x0, symName: __ZN4core3fmt3num14parse_u64_into17hb6b900b358bb8825E, symObjAddr: 0xA40C, symBinAddr: 0x100094D50, symSize: 0x3A0 }
  - { offset: 0x1001F1, size: 0x8, addend: 0x0, symName: '__ZN4core3fmt3num53_$LT$impl$u20$core..fmt..Display$u20$for$u20$u128$GT$3fmt17h759e313c0ed97b75E', symObjAddr: 0xA7AC, symBinAddr: 0x1000950F0, symSize: 0x1C }
  - { offset: 0x100219, size: 0x8, addend: 0x0, symName: '__ZN4core3fmt3num53_$LT$impl$u20$core..fmt..Display$u20$for$u20$i128$GT$3fmt17hde450407dbba8e59E', symObjAddr: 0xA7C8, symBinAddr: 0x10009510C, symSize: 0x34 }
  - { offset: 0x100258, size: 0x8, addend: 0x0, symName: __ZN4core3fmt3num8fmt_u12817h6b9d66744d756395E, symObjAddr: 0xA7FC, symBinAddr: 0x100095140, symSize: 0x188 }
  - { offset: 0x100479, size: 0x8, addend: 0x0, symName: '__ZN73_$LT$core..fmt..num..LowerHex$u20$as$u20$core..fmt..num..GenericRadix$GT$5digit17hff8d06a3dbf20caeE', symObjAddr: 0x182EC, symBinAddr: 0x1000A2658, symSize: 0x7C }
  - { offset: 0x1004C8, size: 0x8, addend: 0x0, symName: '__ZN4core3fmt3num52_$LT$impl$u20$core..fmt..LowerHex$u20$for$u20$i8$GT$3fmt17h4ed169e6230ce018E', symObjAddr: 0x184FC, symBinAddr: 0x1000A2868, symSize: 0x9C }
  - { offset: 0x1005C4, size: 0x8, addend: 0x0, symName: '__ZN4core3fmt3num52_$LT$impl$u20$core..fmt..UpperHex$u20$for$u20$i8$GT$3fmt17h72e63b61ef78fbc7E', symObjAddr: 0x18598, symBinAddr: 0x1000A2904, symSize: 0x9C }
  - { offset: 0x1006C0, size: 0x8, addend: 0x0, symName: '__ZN73_$LT$core..fmt..num..UpperHex$u20$as$u20$core..fmt..num..GenericRadix$GT$5digit17h0474f0aea895d191E', symObjAddr: 0x18368, symBinAddr: 0x1000A26D4, symSize: 0x7C }
  - { offset: 0x100727, size: 0x8, addend: 0x0, symName: '__ZN4core3fmt3num3imp51_$LT$impl$u20$core..fmt..Display$u20$for$u20$u8$GT$3fmt17hc314125b2b3860f7E', symObjAddr: 0x196F0, symBinAddr: 0x1000A3A5C, symSize: 0xA8 }
  - { offset: 0x1007E0, size: 0x8, addend: 0x0, symName: '__ZN4core3fmt3num3imp52_$LT$impl$u20$core..fmt..Display$u20$for$u20$u16$GT$3fmt17hf35e4492f58264deE', symObjAddr: 0x199B8, symBinAddr: 0x1000A3D24, symSize: 0x110 }
  - { offset: 0x10089B, size: 0x8, addend: 0x0, symName: '__ZN4core3fmt3num3imp52_$LT$impl$u20$core..fmt..Display$u20$for$u20$u32$GT$3fmt17hd6c809fd627347a7E', symObjAddr: 0x19D28, symBinAddr: 0x1000A4094, symSize: 0x13C }
  - { offset: 0x100967, size: 0x8, addend: 0x0, symName: '__ZN4core3fmt3num3imp52_$LT$impl$u20$core..fmt..Display$u20$for$u20$u64$GT$3fmt17h933792634702d73eE', symObjAddr: 0x1A0D8, symBinAddr: 0x1000A4444, symSize: 0x13C }
  - { offset: 0x100A39, size: 0x8, addend: 0x0, symName: '__ZN4core3fmt3num3imp51_$LT$impl$u20$core..fmt..Display$u20$for$u20$i8$GT$3fmt17h085ed3912771dee1E', symObjAddr: 0x195C8, symBinAddr: 0x1000A3934, symSize: 0x128 }
  - { offset: 0x100B6D, size: 0x8, addend: 0x0, symName: '__ZN4core3fmt3num3imp52_$LT$impl$u20$core..fmt..Display$u20$for$u20$i16$GT$3fmt17h3d8240010ae355c2E', symObjAddr: 0x19798, symBinAddr: 0x1000A3B04, symSize: 0x220 }
  - { offset: 0x100CF5, size: 0x8, addend: 0x0, symName: '__ZN4core3fmt3num3imp52_$LT$impl$u20$core..fmt..Display$u20$for$u20$i32$GT$3fmt17h8cf700f0ed8d8c38E', symObjAddr: 0x19AC8, symBinAddr: 0x1000A3E34, symSize: 0x260 }
  - { offset: 0x100E53, size: 0x8, addend: 0x0, symName: '__ZN4core3fmt3num3imp52_$LT$impl$u20$core..fmt..Display$u20$for$u20$i64$GT$3fmt17h7d3694b0a7d6cd36E', symObjAddr: 0x19E64, symBinAddr: 0x1000A41D0, symSize: 0x274 }
  - { offset: 0x100F99, size: 0x8, addend: 0x0, symName: __ZN4core3fmt3num3imp7exp_u6417hff48f7c9820a7bc5E, symObjAddr: 0x1A214, symBinAddr: 0x1000A4580, symSize: 0x484 }
  - { offset: 0x101165, size: 0x8, addend: 0x0, symName: '__ZN4core3fmt3num3imp52_$LT$impl$u20$core..fmt..LowerExp$u20$for$u20$i8$GT$3fmt17hfd1463c669fedc2aE', symObjAddr: 0x1A698, symBinAddr: 0x1000A4A04, symSize: 0x2C }
  - { offset: 0x101186, size: 0x8, addend: 0x0, symName: '__ZN4core3fmt3num3imp52_$LT$impl$u20$core..fmt..LowerExp$u20$for$u20$u8$GT$3fmt17h47beb4eb78b3dc99E', symObjAddr: 0x1A6C4, symBinAddr: 0x1000A4A30, symSize: 0x20 }
  - { offset: 0x1011A7, size: 0x8, addend: 0x0, symName: '__ZN4core3fmt3num3imp53_$LT$impl$u20$core..fmt..LowerExp$u20$for$u20$i16$GT$3fmt17h5bb5acf8c5d38860E', symObjAddr: 0x1A6E4, symBinAddr: 0x1000A4A50, symSize: 0x2C }
  - { offset: 0x1011C8, size: 0x8, addend: 0x0, symName: '__ZN4core3fmt3num3imp53_$LT$impl$u20$core..fmt..LowerExp$u20$for$u20$u16$GT$3fmt17h247b384b893aa55dE', symObjAddr: 0x1A710, symBinAddr: 0x1000A4A7C, symSize: 0x20 }
  - { offset: 0x1011E9, size: 0x8, addend: 0x0, symName: '__ZN4core3fmt3num3imp53_$LT$impl$u20$core..fmt..LowerExp$u20$for$u20$i32$GT$3fmt17h46177479b08b35ddE', symObjAddr: 0x1A730, symBinAddr: 0x1000A4A9C, symSize: 0x2C }
  - { offset: 0x10120A, size: 0x8, addend: 0x0, symName: '__ZN4core3fmt3num3imp53_$LT$impl$u20$core..fmt..LowerExp$u20$for$u20$u32$GT$3fmt17h0b8e7c7963903a9bE', symObjAddr: 0x1A75C, symBinAddr: 0x1000A4AC8, symSize: 0x20 }
  - { offset: 0x10122B, size: 0x8, addend: 0x0, symName: '__ZN4core3fmt3num3imp53_$LT$impl$u20$core..fmt..LowerExp$u20$for$u20$i64$GT$3fmt17hc517395881c20065E', symObjAddr: 0x1A77C, symBinAddr: 0x1000A4AE8, symSize: 0x2C }
  - { offset: 0x10124C, size: 0x8, addend: 0x0, symName: '__ZN4core3fmt3num3imp53_$LT$impl$u20$core..fmt..LowerExp$u20$for$u20$u64$GT$3fmt17h041b24e8824e3e4cE', symObjAddr: 0x1A7A8, symBinAddr: 0x1000A4B14, symSize: 0x20 }
  - { offset: 0x10126D, size: 0x8, addend: 0x0, symName: '__ZN4core3fmt3num3imp52_$LT$impl$u20$core..fmt..UpperExp$u20$for$u20$i8$GT$3fmt17hd7faafb233f13533E', symObjAddr: 0x1A7C8, symBinAddr: 0x1000A4B34, symSize: 0x2C }
  - { offset: 0x10128E, size: 0x8, addend: 0x0, symName: '__ZN4core3fmt3num3imp52_$LT$impl$u20$core..fmt..UpperExp$u20$for$u20$u8$GT$3fmt17he7d5eb6675265e1bE', symObjAddr: 0x1A7F4, symBinAddr: 0x1000A4B60, symSize: 0x20 }
  - { offset: 0x1012AF, size: 0x8, addend: 0x0, symName: '__ZN4core3fmt3num3imp53_$LT$impl$u20$core..fmt..UpperExp$u20$for$u20$i16$GT$3fmt17h8aed35a5a3df9ca9E', symObjAddr: 0x1A814, symBinAddr: 0x1000A4B80, symSize: 0x2C }
  - { offset: 0x1012D0, size: 0x8, addend: 0x0, symName: '__ZN4core3fmt3num3imp53_$LT$impl$u20$core..fmt..UpperExp$u20$for$u20$u16$GT$3fmt17h8015e4730c1f834fE', symObjAddr: 0x1A840, symBinAddr: 0x1000A4BAC, symSize: 0x20 }
  - { offset: 0x1012F1, size: 0x8, addend: 0x0, symName: '__ZN4core3fmt3num3imp53_$LT$impl$u20$core..fmt..UpperExp$u20$for$u20$i32$GT$3fmt17h0d5c872a1dcada42E', symObjAddr: 0x1A860, symBinAddr: 0x1000A4BCC, symSize: 0x2C }
  - { offset: 0x101312, size: 0x8, addend: 0x0, symName: '__ZN4core3fmt3num3imp53_$LT$impl$u20$core..fmt..UpperExp$u20$for$u20$u32$GT$3fmt17hdc4962002209cb16E', symObjAddr: 0x1A88C, symBinAddr: 0x1000A4BF8, symSize: 0x20 }
  - { offset: 0x101333, size: 0x8, addend: 0x0, symName: '__ZN4core3fmt3num3imp53_$LT$impl$u20$core..fmt..UpperExp$u20$for$u20$i64$GT$3fmt17h5aa47d7ad33463c8E', symObjAddr: 0x1A8AC, symBinAddr: 0x1000A4C18, symSize: 0x2C }
  - { offset: 0x101354, size: 0x8, addend: 0x0, symName: '__ZN4core3fmt3num3imp53_$LT$impl$u20$core..fmt..UpperExp$u20$for$u20$u64$GT$3fmt17h9078588b6498fc8dE', symObjAddr: 0x1A8D8, symBinAddr: 0x1000A4C44, symSize: 0x20 }
  - { offset: 0x1013BC, size: 0x8, addend: 0x0, symName: '__ZN4core3fmt3num53_$LT$impl$u20$core..fmt..LowerHex$u20$for$u20$i16$GT$3fmt17h1c518d31c554d1c1E', symObjAddr: 0x1874C, symBinAddr: 0x1000A2AB8, symSize: 0x9C }
  - { offset: 0x1014C4, size: 0x8, addend: 0x0, symName: '__ZN4core3fmt3num53_$LT$impl$u20$core..fmt..UpperHex$u20$for$u20$i16$GT$3fmt17haeff63f80cd3d13fE', symObjAddr: 0x187E8, symBinAddr: 0x1000A2B54, symSize: 0x9C }
  - { offset: 0x101605, size: 0x8, addend: 0x0, symName: '__ZN4core3fmt3num53_$LT$impl$u20$core..fmt..LowerHex$u20$for$u20$i32$GT$3fmt17h586e9ec438f7201eE', symObjAddr: 0x1899C, symBinAddr: 0x1000A2D08, symSize: 0x9C }
  - { offset: 0x10170D, size: 0x8, addend: 0x0, symName: '__ZN4core3fmt3num53_$LT$impl$u20$core..fmt..UpperHex$u20$for$u20$i32$GT$3fmt17hc8e8f19989b6b712E', symObjAddr: 0x18A38, symBinAddr: 0x1000A2DA4, symSize: 0x9C }
  - { offset: 0x101815, size: 0x8, addend: 0x0, symName: '__ZN4core3fmt3num53_$LT$impl$u20$core..fmt..LowerHex$u20$for$u20$i64$GT$3fmt17h86eef6960ac5e14cE', symObjAddr: 0x18BEC, symBinAddr: 0x1000A2F58, symSize: 0x9C }
  - { offset: 0x10191D, size: 0x8, addend: 0x0, symName: '__ZN4core3fmt3num53_$LT$impl$u20$core..fmt..UpperHex$u20$for$u20$i64$GT$3fmt17hfd687de257dcf426E', symObjAddr: 0x18C88, symBinAddr: 0x1000A2FF4, symSize: 0x9C }
  - { offset: 0x101A25, size: 0x8, addend: 0x0, symName: '__ZN4core3fmt3num54_$LT$impl$u20$core..fmt..LowerHex$u20$for$u20$i128$GT$3fmt17h6375c21cab848cafE', symObjAddr: 0x18E54, symBinAddr: 0x1000A31C0, symSize: 0xA8 }
  - { offset: 0x101B62, size: 0x8, addend: 0x0, symName: '__ZN4core3fmt3num54_$LT$impl$u20$core..fmt..UpperHex$u20$for$u20$i128$GT$3fmt17hd36e1b61d6701e13E', symObjAddr: 0x18EFC, symBinAddr: 0x1000A3268, symSize: 0xA8 }
  - { offset: 0x101CB8, size: 0x8, addend: 0x0, symName: '__ZN71_$LT$core..fmt..num..Binary$u20$as$u20$core..fmt..num..GenericRadix$GT$5digit17h18c9daa7221a244aE', symObjAddr: 0x18214, symBinAddr: 0x1000A2580, symSize: 0x6C }
  - { offset: 0x101CF4, size: 0x8, addend: 0x0, symName: '__ZN70_$LT$core..fmt..num..Octal$u20$as$u20$core..fmt..num..GenericRadix$GT$5digit17hc421e73137a7da30E', symObjAddr: 0x18280, symBinAddr: 0x1000A25EC, symSize: 0x6C }
  - { offset: 0x101D30, size: 0x8, addend: 0x0, symName: '__ZN4core3fmt3num50_$LT$impl$u20$core..fmt..Binary$u20$for$u20$i8$GT$3fmt17hc9a4a7f47c3210e3E', symObjAddr: 0x183E4, symBinAddr: 0x1000A2750, symSize: 0x8C }
  - { offset: 0x101E2C, size: 0x8, addend: 0x0, symName: '__ZN4core3fmt3num49_$LT$impl$u20$core..fmt..Octal$u20$for$u20$i8$GT$3fmt17hac4769883c049300E', symObjAddr: 0x18470, symBinAddr: 0x1000A27DC, symSize: 0x8C }
  - { offset: 0x101F28, size: 0x8, addend: 0x0, symName: '__ZN4core3fmt3num51_$LT$impl$u20$core..fmt..Binary$u20$for$u20$i16$GT$3fmt17hedbfe99deb535980E', symObjAddr: 0x18634, symBinAddr: 0x1000A29A0, symSize: 0x8C }
  - { offset: 0x102009, size: 0x8, addend: 0x0, symName: '__ZN4core3fmt3num50_$LT$impl$u20$core..fmt..Octal$u20$for$u20$i16$GT$3fmt17h3915a11b53c9cfdaE', symObjAddr: 0x186C0, symBinAddr: 0x1000A2A2C, symSize: 0x8C }
  - { offset: 0x1020EA, size: 0x8, addend: 0x0, symName: '__ZN4core3fmt3num51_$LT$impl$u20$core..fmt..Binary$u20$for$u20$i32$GT$3fmt17hba0de9d7c4c264e7E', symObjAddr: 0x18884, symBinAddr: 0x1000A2BF0, symSize: 0x8C }
  - { offset: 0x1021CB, size: 0x8, addend: 0x0, symName: '__ZN4core3fmt3num50_$LT$impl$u20$core..fmt..Octal$u20$for$u20$i32$GT$3fmt17hf25ae6c995c7def7E', symObjAddr: 0x18910, symBinAddr: 0x1000A2C7C, symSize: 0x8C }
  - { offset: 0x1022AC, size: 0x8, addend: 0x0, symName: '__ZN4core3fmt3num51_$LT$impl$u20$core..fmt..Binary$u20$for$u20$i64$GT$3fmt17hfb621dd728229d92E', symObjAddr: 0x18AD4, symBinAddr: 0x1000A2E40, symSize: 0x8C }
  - { offset: 0x10238D, size: 0x8, addend: 0x0, symName: '__ZN4core3fmt3num50_$LT$impl$u20$core..fmt..Octal$u20$for$u20$i64$GT$3fmt17h7e209748811ad05bE', symObjAddr: 0x18B60, symBinAddr: 0x1000A2ECC, symSize: 0x8C }
  - { offset: 0x10246E, size: 0x8, addend: 0x0, symName: '__ZN4core3fmt3num52_$LT$impl$u20$core..fmt..Binary$u20$for$u20$i128$GT$3fmt17h7d4514fd0159df47E', symObjAddr: 0x18D24, symBinAddr: 0x1000A3090, symSize: 0x98 }
  - { offset: 0x10257D, size: 0x8, addend: 0x0, symName: '__ZN4core3fmt3num51_$LT$impl$u20$core..fmt..Octal$u20$for$u20$i128$GT$3fmt17h57540f0d102f1d04E', symObjAddr: 0x18DBC, symBinAddr: 0x1000A3128, symSize: 0x98 }
  - { offset: 0x1026B2, size: 0x8, addend: 0x0, symName: '__ZN4core3fmt3num50_$LT$impl$u20$core..fmt..Debug$u20$for$u20$u32$GT$3fmt17h20423420560f3e4aE', symObjAddr: 0x18FA4, symBinAddr: 0x1000A3310, symSize: 0x210 }
  - { offset: 0x102868, size: 0x8, addend: 0x0, symName: '__ZN4core3fmt3num50_$LT$impl$u20$core..fmt..Debug$u20$for$u20$u64$GT$3fmt17hcf93b17fc1abb0a9E', symObjAddr: 0x191B4, symBinAddr: 0x1000A3520, symSize: 0x204 }
  - { offset: 0x102A0B, size: 0x8, addend: 0x0, symName: '__ZN4core3fmt3num52_$LT$impl$u20$core..fmt..Debug$u20$for$u20$usize$GT$3fmt17hbcf940b80966635eE', symObjAddr: 0x193B8, symBinAddr: 0x1000A3724, symSize: 0x210 }
  - { offset: 0x102B96, size: 0x8, addend: 0x0, symName: __ZN4core3fmt3num8exp_u12817hf6e0b8fed0117957E, symObjAddr: 0x1A8F8, symBinAddr: 0x1000A4C64, symSize: 0x838 }
  - { offset: 0x102D90, size: 0x8, addend: 0x0, symName: '__ZN4core3fmt3num54_$LT$impl$u20$core..fmt..LowerExp$u20$for$u20$i128$GT$3fmt17h6654da10361134e6E', symObjAddr: 0x1B130, symBinAddr: 0x1000A549C, symSize: 0x38 }
  - { offset: 0x102DB1, size: 0x8, addend: 0x0, symName: '__ZN4core3fmt3num54_$LT$impl$u20$core..fmt..LowerExp$u20$for$u20$u128$GT$3fmt17hd1d1d5ca00a2f225E', symObjAddr: 0x1B168, symBinAddr: 0x1000A54D4, symSize: 0x20 }
  - { offset: 0x102DD2, size: 0x8, addend: 0x0, symName: '__ZN4core3fmt3num54_$LT$impl$u20$core..fmt..UpperExp$u20$for$u20$i128$GT$3fmt17hf5701b495cdefe4eE', symObjAddr: 0x1B188, symBinAddr: 0x1000A54F4, symSize: 0x38 }
  - { offset: 0x102DF3, size: 0x8, addend: 0x0, symName: '__ZN4core3fmt3num54_$LT$impl$u20$core..fmt..UpperExp$u20$for$u20$u128$GT$3fmt17h9f1c51a39307c136E', symObjAddr: 0x1B1C0, symBinAddr: 0x1000A552C, symSize: 0x20 }
  - { offset: 0x102E23, size: 0x8, addend: 0x0, symName: '__ZN59_$LT$core..fmt..Arguments$u20$as$u20$core..fmt..Display$GT$3fmt17h09b75bc392b800bdE', symObjAddr: 0xAF88, symBinAddr: 0x1000958CC, symSize: 0x18 }
  - { offset: 0x102E3D, size: 0x8, addend: 0x0, symName: '__ZN57_$LT$core..fmt..Arguments$u20$as$u20$core..fmt..Debug$GT$3fmt17h9e1f77980d0394dcE', symObjAddr: 0xAF70, symBinAddr: 0x1000958B4, symSize: 0x18 }
  - { offset: 0x102E8B, size: 0x8, addend: 0x0, symName: __ZN4core3fmt5write17h381c0b0ce6ab972aE, symObjAddr: 0xAFA0, symBinAddr: 0x1000958E4, symSize: 0x200 }
  - { offset: 0x10309E, size: 0x8, addend: 0x0, symName: __ZN4core3fmt9Formatter12pad_integral12write_prefix17hb4537e90003b1c64E, symObjAddr: 0xB578, symBinAddr: 0x100095EBC, symSize: 0x7C }
  - { offset: 0x1030EA, size: 0x8, addend: 0x0, symName: '__ZN55_$LT$core..fmt..Error$u20$as$u20$core..fmt..Display$GT$3fmt17h722ba4f67c28c616E', symObjAddr: 0xCD30, symBinAddr: 0x100097674, symSize: 0x20 }
  - { offset: 0x103143, size: 0x8, addend: 0x0, symName: '__ZN40_$LT$str$u20$as$u20$core..fmt..Debug$GT$3fmt17heb25a21cd747bc08E', symObjAddr: 0xCD94, symBinAddr: 0x1000976D8, symSize: 0x374 }
  - { offset: 0x103630, size: 0x8, addend: 0x0, symName: '__ZN41_$LT$char$u20$as$u20$core..fmt..Debug$GT$3fmt17h401477d182c99069E', symObjAddr: 0xD128, symBinAddr: 0x100097A6C, symSize: 0xAC }
  - { offset: 0x103730, size: 0x8, addend: 0x0, symName: '__ZN43_$LT$char$u20$as$u20$core..fmt..Display$GT$3fmt17h7c940c11a1c12216E', symObjAddr: 0xD1D4, symBinAddr: 0x100097B18, symSize: 0xF8 }
  - { offset: 0x1037E2, size: 0x8, addend: 0x0, symName: __ZN4core3fmt17pointer_fmt_inner17h1280a504d3575fb5E, symObjAddr: 0xD2CC, symBinAddr: 0x100097C10, symSize: 0xE0 }
  - { offset: 0x103924, size: 0x8, addend: 0x0, symName: '__ZN52_$LT$$BP$const$u20$T$u20$as$u20$core..fmt..Debug$GT$3fmt17hc5b3c0a90fda40d2E', symObjAddr: 0xD3AC, symBinAddr: 0x100097CF0, symSize: 0xE4 }
  - { offset: 0x103A68, size: 0x8, addend: 0x0, symName: '__ZN53_$LT$core..fmt..Error$u20$as$u20$core..fmt..Debug$GT$3fmt17he86a5143693380e6E', symObjAddr: 0x1B1E0, symBinAddr: 0x1000A554C, symSize: 0x24 }
  - { offset: 0x103A9D, size: 0x8, addend: 0x0, symName: '__ZN42_$LT$$RF$T$u20$as$u20$core..fmt..Debug$GT$3fmt17h6d97b05d09fb71e8E', symObjAddr: 0x1B204, symBinAddr: 0x1000A5570, symSize: 0x1C }
  - { offset: 0x103AB8, size: 0x8, addend: 0x0, symName: '__ZN42_$LT$$RF$T$u20$as$u20$core..fmt..Debug$GT$3fmt17h85c26c063dccd5c8E', symObjAddr: 0x1B220, symBinAddr: 0x1000A558C, symSize: 0x14 }
  - { offset: 0x103AD3, size: 0x8, addend: 0x0, symName: '__ZN42_$LT$$RF$T$u20$as$u20$core..fmt..Debug$GT$3fmt17h9c0c5917dbecf256E', symObjAddr: 0x1B234, symBinAddr: 0x1000A55A0, symSize: 0x18 }
  - { offset: 0x103AEE, size: 0x8, addend: 0x0, symName: '__ZN42_$LT$$RF$T$u20$as$u20$core..fmt..Debug$GT$3fmt17hf5635feda874b9ebE', symObjAddr: 0x1B24C, symBinAddr: 0x1000A55B8, symSize: 0x14 }
  - { offset: 0x103B0F, size: 0x8, addend: 0x0, symName: '__ZN44_$LT$$RF$T$u20$as$u20$core..fmt..Display$GT$3fmt17h0b61412bc7dfb2fbE', symObjAddr: 0x1B260, symBinAddr: 0x1000A55CC, symSize: 0x1C }
  - { offset: 0x103B40, size: 0x8, addend: 0x0, symName: '__ZN44_$LT$$RF$T$u20$as$u20$core..fmt..Display$GT$3fmt17h9eaf27d921c2ec27E', symObjAddr: 0x1B27C, symBinAddr: 0x1000A55E8, symSize: 0x14 }
  - { offset: 0x103B5B, size: 0x8, addend: 0x0, symName: '__ZN44_$LT$$RF$T$u20$as$u20$core..fmt..Display$GT$3fmt17hdac32d624bc302afE', symObjAddr: 0x1B290, symBinAddr: 0x1000A55FC, symSize: 0x14 }
  - { offset: 0x103B7C, size: 0x8, addend: 0x0, symName: '__ZN45_$LT$$RF$T$u20$as$u20$core..fmt..LowerHex$GT$3fmt17h3a3d0b1cbf3733d2E', symObjAddr: 0x1B2A4, symBinAddr: 0x1000A5610, symSize: 0xA0 }
  - { offset: 0x104204, size: 0x8, addend: 0x0, symName: __ZN4core6option13unwrap_failed17h72fe2175587bb8c5E, symObjAddr: 0x77A0, symBinAddr: 0x1000AA120, symSize: 0x1C }
  - { offset: 0x10421F, size: 0x8, addend: 0x0, symName: __ZN4core6option13expect_failed17h8e777ef42d0a5298E, symObjAddr: 0x77BC, symBinAddr: 0x1000AA13C, symSize: 0x48 }
  - { offset: 0x1046B8, size: 0x8, addend: 0x0, symName: '__ZN69_$LT$core..ffi..c_str..CStr$u20$as$u20$core..clone..CloneToUninit$GT$15clone_to_uninit17he530f04317854a89E', symObjAddr: 0x437C, symBinAddr: 0x10008F1F4, symSize: 0x20 }
  - { offset: 0x1047E9, size: 0x8, addend: 0x0, symName: '__ZN64_$LT$core..ops..range..RangeFull$u20$as$u20$core..fmt..Debug$GT$3fmt17h03469f34942d51f4E', symObjAddr: 0x4454, symBinAddr: 0x10008F2CC, symSize: 0x24 }
  - { offset: 0x10481F, size: 0x8, addend: 0x0, symName: '__ZN71_$LT$core..ops..range..Range$LT$Idx$GT$$u20$as$u20$core..fmt..Debug$GT$3fmt17he394e20c3c86d8aeE', symObjAddr: 0x4478, symBinAddr: 0x10008F2F0, symSize: 0x5C }
  - { offset: 0x104BC5, size: 0x8, addend: 0x0, symName: '__ZN76_$LT$core..mem..transmutability..Assume$u20$as$u20$core..ops..arith..Sub$GT$3sub17h5a046ea1073bcd13E', symObjAddr: 0x42EC, symBinAddr: 0x10008F164, symSize: 0x18 }
  - { offset: 0x1050F4, size: 0x8, addend: 0x0, symName: __ZN4core6result13unwrap_failed17h6de8f20130c8e837E, symObjAddr: 0x7D2C, symBinAddr: 0x1000AA538, symSize: 0x5C }
  - { offset: 0x105189, size: 0x8, addend: 0x0, symName: '__ZN57_$LT$core..error..Request$u20$as$u20$core..fmt..Debug$GT$3fmt17h21071563385bf67bE', symObjAddr: 0x439C, symBinAddr: 0x10008F214, symSize: 0x6C }
  - { offset: 0x105230, size: 0x8, addend: 0x0, symName: '__ZN78_$LT$core..error..Source$u20$as$u20$core..iter..traits..iterator..Iterator$GT$4next17hd68d127cc4879c4aE', symObjAddr: 0x4408, symBinAddr: 0x10008F280, symSize: 0x4C }
  - { offset: 0x105283, size: 0x8, addend: 0x0, symName: '__ZN105_$LT$dyn$u20$core..any..Any$u2b$core..marker..Send$u2b$core..marker..Sync$u20$as$u20$core..fmt..Debug$GT$3fmt17hd59d9dd40169e85bE', symObjAddr: 0x44D4, symBinAddr: 0x10008F34C, symSize: 0x6C }
  - { offset: 0x10533B, size: 0x8, addend: 0x0, symName: '__ZN54_$LT$core..any..TypeId$u20$as$u20$core..fmt..Debug$GT$3fmt17h1d290e7a2625341aE', symObjAddr: 0x4540, symBinAddr: 0x10008F3B8, symSize: 0x88 }
  - { offset: 0x1053A0, size: 0x8, addend: 0x0, symName: '__ZN73_$LT$core..ascii..ascii_char..AsciiChar$u20$as$u20$core..fmt..Display$GT$3fmt17he92a14c5521339b8E', symObjAddr: 0x45C8, symBinAddr: 0x10008F440, symSize: 0x20 }
  - { offset: 0x1053D7, size: 0x8, addend: 0x0, symName: '__ZN71_$LT$core..ascii..ascii_char..AsciiChar$u20$as$u20$core..fmt..Debug$GT$3fmt17h0cf185979cff511bE', symObjAddr: 0x45E8, symBinAddr: 0x10008F460, symSize: 0x158 }
  - { offset: 0x105432, size: 0x8, addend: 0x0, symName: __ZN4core5ascii14escape_default17h83ddf1acb35a3681E, symObjAddr: 0x4740, symBinAddr: 0x10008F5B8, symSize: 0x78 }
  - { offset: 0x1054B3, size: 0x8, addend: 0x0, symName: '__ZN65_$LT$core..ascii..EscapeDefault$u20$as$u20$core..fmt..Display$GT$3fmt17h9e493467aab3b5f2E', symObjAddr: 0x47B8, symBinAddr: 0x10008F630, symSize: 0x2C }
  - { offset: 0x105540, size: 0x8, addend: 0x0, symName: '__ZN63_$LT$core..ascii..EscapeDefault$u20$as$u20$core..fmt..Debug$GT$3fmt17h61180db481e449acE', symObjAddr: 0x47E4, symBinAddr: 0x10008F65C, symSize: 0x6C }
  - { offset: 0x105794, size: 0x8, addend: 0x0, symName: __ZN4core4cell4lazy14panic_poisoned17hf7b7352820ceda51E, symObjAddr: 0x4850, symBinAddr: 0x1000AA060, symSize: 0x38 }
  - { offset: 0x1057CA, size: 0x8, addend: 0x0, symName: '__ZN60_$LT$core..cell..BorrowError$u20$as$u20$core..fmt..Debug$GT$3fmt17he816a1688879a81dE', symObjAddr: 0x4888, symBinAddr: 0x10008F6C8, symSize: 0x24 }
  - { offset: 0x10582C, size: 0x8, addend: 0x0, symName: '__ZN62_$LT$core..cell..BorrowError$u20$as$u20$core..fmt..Display$GT$3fmt17h69b9f1187722efe4E', symObjAddr: 0x48AC, symBinAddr: 0x10008F6EC, symSize: 0x20 }
  - { offset: 0x105863, size: 0x8, addend: 0x0, symName: '__ZN63_$LT$core..cell..BorrowMutError$u20$as$u20$core..fmt..Debug$GT$3fmt17h4290f4d74fc8ab6eE', symObjAddr: 0x48CC, symBinAddr: 0x10008F70C, symSize: 0x24 }
  - { offset: 0x1058C5, size: 0x8, addend: 0x0, symName: '__ZN65_$LT$core..cell..BorrowMutError$u20$as$u20$core..fmt..Display$GT$3fmt17h2942e8a680a09c7dE', symObjAddr: 0x48F0, symBinAddr: 0x10008F730, symSize: 0x20 }
  - { offset: 0x1058F7, size: 0x8, addend: 0x0, symName: __ZN4core4cell22panic_already_borrowed17h9870eef644c60881E, symObjAddr: 0x4910, symBinAddr: 0x1000AA098, symSize: 0x44 }
  - { offset: 0x105927, size: 0x8, addend: 0x0, symName: __ZN4core4cell30panic_already_mutably_borrowed17hf6be5a452c338882E, symObjAddr: 0x4954, symBinAddr: 0x1000AA0DC, symSize: 0x44 }
  - { offset: 0x10597A, size: 0x8, addend: 0x0, symName: '__ZN74_$LT$core..char..convert..ParseCharError$u20$as$u20$core..fmt..Display$GT$3fmt17h049f223bef96af9cE', symObjAddr: 0x4998, symBinAddr: 0x10008F750, symSize: 0x44 }
  - { offset: 0x1059D7, size: 0x8, addend: 0x0, symName: '__ZN76_$LT$core..char..convert..CharTryFromError$u20$as$u20$core..fmt..Display$GT$3fmt17haae5f152dd0383faE', symObjAddr: 0x49DC, symBinAddr: 0x10008F794, symSize: 0x20 }
  - { offset: 0x105A48, size: 0x8, addend: 0x0, symName: '__ZN75_$LT$core..char..decode..DecodeUtf16Error$u20$as$u20$core..fmt..Display$GT$3fmt17he11aa221b3b2fb91E', symObjAddr: 0x49FC, symBinAddr: 0x10008F7B4, symSize: 0x4C }
  - { offset: 0x105AE5, size: 0x8, addend: 0x0, symName: '__ZN4core4char7methods22_$LT$impl$u20$char$GT$16escape_debug_ext17h33afbfaf4d6e3e37E', symObjAddr: 0x4A48, symBinAddr: 0x10008F800, symSize: 0x260 }
  - { offset: 0x105D37, size: 0x8, addend: 0x0, symName: __ZN4core4char7methods15encode_utf8_raw14panic_at_const17hec1a12b676fd431bE, symObjAddr: 0x4CA8, symBinAddr: 0x10008FA60, symSize: 0x38 }
  - { offset: 0x105D67, size: 0x8, addend: 0x0, symName: __ZN4core4char7methods15encode_utf8_raw11panic_at_rt17ha43850e4938e5f9cE, symObjAddr: 0x4CE0, symBinAddr: 0x10008FA98, symSize: 0xCC }
  - { offset: 0x105D9D, size: 0x8, addend: 0x0, symName: __ZN4core4char7methods16encode_utf16_raw14panic_at_const17h94a99d1d8105d986E, symObjAddr: 0x4DAC, symBinAddr: 0x10008FB64, symSize: 0x38 }
  - { offset: 0x105DCD, size: 0x8, addend: 0x0, symName: __ZN4core4char7methods16encode_utf16_raw11panic_at_rt17h9b32e90d9904eb1bE, symObjAddr: 0x4DE4, symBinAddr: 0x10008FB9C, symSize: 0xCC }
  - { offset: 0x105E4A, size: 0x8, addend: 0x0, symName: '__ZN64_$LT$core..char..EscapeDefault$u20$as$u20$core..fmt..Display$GT$3fmt17hf8ca21f4d0f70101E', symObjAddr: 0x4EB0, symBinAddr: 0x10008FC68, symSize: 0x2C }
  - { offset: 0x105EDA, size: 0x8, addend: 0x0, symName: '__ZN62_$LT$core..char..EscapeDebug$u20$as$u20$core..fmt..Display$GT$3fmt17h3e874a99ad9794fbE', symObjAddr: 0x4EDC, symBinAddr: 0x10008FC94, symSize: 0x50 }
  - { offset: 0x105F86, size: 0x8, addend: 0x0, symName: '__ZN86_$LT$core..char..CaseMappingIter$u20$as$u20$core..iter..traits..iterator..Iterator$GT$4next17h4368333b5099e657E', symObjAddr: 0x4F2C, symBinAddr: 0x10008FCE4, symSize: 0x34 }
  - { offset: 0x106098, size: 0x8, addend: 0x0, symName: '__ZN86_$LT$core..char..CaseMappingIter$u20$as$u20$core..iter..traits..iterator..Iterator$GT$9size_hint17hb11334918774bb58E', symObjAddr: 0x4F60, symBinAddr: 0x10008FD18, symSize: 0x24 }
  - { offset: 0x106102, size: 0x8, addend: 0x0, symName: '__ZN86_$LT$core..char..CaseMappingIter$u20$as$u20$core..iter..traits..iterator..Iterator$GT$5count17h13175137f48893c7E', symObjAddr: 0x4F84, symBinAddr: 0x10008FD3C, symSize: 0x18 }
  - { offset: 0x10616D, size: 0x8, addend: 0x0, symName: '__ZN86_$LT$core..char..CaseMappingIter$u20$as$u20$core..iter..traits..iterator..Iterator$GT$4last17hbe7180fccd0494f4E', symObjAddr: 0x4F9C, symBinAddr: 0x10008FD54, symSize: 0x48 }
  - { offset: 0x106298, size: 0x8, addend: 0x0, symName: '__ZN86_$LT$core..char..CaseMappingIter$u20$as$u20$core..iter..traits..iterator..Iterator$GT$10advance_by17h0fd4777472eadc01E', symObjAddr: 0x4FE4, symBinAddr: 0x10008FD9C, symSize: 0x2C }
  - { offset: 0x106378, size: 0x8, addend: 0x0, symName: '__ZN101_$LT$core..char..CaseMappingIter$u20$as$u20$core..iter..traits..double_ended..DoubleEndedIterator$GT$9next_back17hf73d712ae2a56a35E', symObjAddr: 0x5010, symBinAddr: 0x10008FDC8, symSize: 0x34 }
  - { offset: 0x10648D, size: 0x8, addend: 0x0, symName: '__ZN101_$LT$core..char..CaseMappingIter$u20$as$u20$core..iter..traits..double_ended..DoubleEndedIterator$GT$15advance_back_by17h26e7cb2f93fdf06bE', symObjAddr: 0x5044, symBinAddr: 0x10008FDFC, symSize: 0x30 }
  - { offset: 0x106555, size: 0x8, addend: 0x0, symName: '__ZN97_$LT$core..char..CaseMappingIter$u20$as$u20$core..iter..traits..exact_size..ExactSizeIterator$GT$3len17h1afa4f5efc490fe4E', symObjAddr: 0x5074, symBinAddr: 0x10008FE2C, symSize: 0x18 }
  - { offset: 0x1065AA, size: 0x8, addend: 0x0, symName: '__ZN97_$LT$core..char..CaseMappingIter$u20$as$u20$core..iter..traits..exact_size..ExactSizeIterator$GT$8is_empty17ha2eece709de8fb4aE', symObjAddr: 0x508C, symBinAddr: 0x10008FE44, symSize: 0x1C }
  - { offset: 0x106636, size: 0x8, addend: 0x0, symName: '__ZN67_$LT$core..char..TryFromCharError$u20$as$u20$core..fmt..Display$GT$3fmt17h28c36bbbf8f78a77E', symObjAddr: 0x50A8, symBinAddr: 0x10008FE60, symSize: 0x20 }
  - { offset: 0x1066A3, size: 0x8, addend: 0x0, symName: '__ZN82_$LT$core..char..ToLowercase$u20$as$u20$core..iter..traits..iterator..Iterator$GT$4next17h42ca8e16ba951d33E', symObjAddr: 0x16C80, symBinAddr: 0x1000A1394, symSize: 0x34 }
  - { offset: 0x1067D2, size: 0x8, addend: 0x0, symName: '__ZN82_$LT$core..char..ToLowercase$u20$as$u20$core..iter..traits..iterator..Iterator$GT$9size_hint17h9ffd9ba14736a4f5E', symObjAddr: 0x16CB4, symBinAddr: 0x1000A13C8, symSize: 0x24 }
  - { offset: 0x106859, size: 0x8, addend: 0x0, symName: '__ZN82_$LT$core..char..ToLowercase$u20$as$u20$core..iter..traits..iterator..Iterator$GT$5count17he2782413987a1f84E', symObjAddr: 0x16CD8, symBinAddr: 0x1000A13EC, symSize: 0x18 }
  - { offset: 0x1068E1, size: 0x8, addend: 0x0, symName: '__ZN82_$LT$core..char..ToLowercase$u20$as$u20$core..iter..traits..iterator..Iterator$GT$4last17h65ce625b68ef4f80E', symObjAddr: 0x16CF0, symBinAddr: 0x1000A1404, symSize: 0x48 }
  - { offset: 0x106A29, size: 0x8, addend: 0x0, symName: '__ZN82_$LT$core..char..ToLowercase$u20$as$u20$core..iter..traits..iterator..Iterator$GT$10advance_by17h5bd3db639105f038E', symObjAddr: 0x16D38, symBinAddr: 0x1000A144C, symSize: 0x2C }
  - { offset: 0x106AE0, size: 0x8, addend: 0x0, symName: '__ZN97_$LT$core..char..ToLowercase$u20$as$u20$core..iter..traits..double_ended..DoubleEndedIterator$GT$9next_back17h24441cd019b7a930E', symObjAddr: 0x16D64, symBinAddr: 0x1000A1478, symSize: 0x34 }
  - { offset: 0x106C12, size: 0x8, addend: 0x0, symName: '__ZN97_$LT$core..char..ToLowercase$u20$as$u20$core..iter..traits..double_ended..DoubleEndedIterator$GT$15advance_back_by17h5192ce29601ab959E', symObjAddr: 0x16D98, symBinAddr: 0x1000A14AC, symSize: 0x30 }
  - { offset: 0x106CDB, size: 0x8, addend: 0x0, symName: '__ZN93_$LT$core..char..ToLowercase$u20$as$u20$core..iter..traits..exact_size..ExactSizeIterator$GT$3len17he2ea2d79a4438acaE', symObjAddr: 0x16DC8, symBinAddr: 0x1000A14DC, symSize: 0x18 }
  - { offset: 0x106D4D, size: 0x8, addend: 0x0, symName: '__ZN93_$LT$core..char..ToLowercase$u20$as$u20$core..iter..traits..exact_size..ExactSizeIterator$GT$8is_empty17h8c63ee83398c5a6cE', symObjAddr: 0x16DE0, symBinAddr: 0x1000A14F4, symSize: 0x1C }
  - { offset: 0x106DEE, size: 0x8, addend: 0x0, symName: '__ZN62_$LT$core..char..ToLowercase$u20$as$u20$core..fmt..Display$GT$3fmt17hbd23b9442d1c32a1E', symObjAddr: 0x16DFC, symBinAddr: 0x1000A1510, symSize: 0xF0 }
  - { offset: 0x107037, size: 0x8, addend: 0x0, symName: __ZN4core7unicode12unicode_data15grapheme_extend11lookup_slow17hedff99e0c94151dcE, symObjAddr: 0x1CA4C, symBinAddr: 0x1000A6DB8, symSize: 0x174 }
  - { offset: 0x107295, size: 0x8, addend: 0x0, symName: __ZN4core7unicode12unicode_data10alphabetic6lookup17h037151b7ebd50545E, symObjAddr: 0x1C5E0, symBinAddr: 0x1000A694C, symSize: 0x170 }
  - { offset: 0x107469, size: 0x8, addend: 0x0, symName: __ZN4core7unicode12unicode_data14case_ignorable6lookup17h47e7ce608486c737E, symObjAddr: 0x1C750, symBinAddr: 0x1000A6ABC, symSize: 0x178 }
  - { offset: 0x10763D, size: 0x8, addend: 0x0, symName: __ZN4core7unicode12unicode_data5cased6lookup17h50a6984ecf1acfdaE, symObjAddr: 0x1C8C8, symBinAddr: 0x1000A6C34, symSize: 0x160 }
  - { offset: 0x1077F8, size: 0x8, addend: 0x0, symName: __ZN4core7unicode12unicode_data2cc6lookup17hec50f526397238e7E, symObjAddr: 0x1CA28, symBinAddr: 0x1000A6D94, symSize: 0x24 }
  - { offset: 0x107863, size: 0x8, addend: 0x0, symName: __ZN4core7unicode12unicode_data9lowercase6lookup17hc69de246f04f3a2cE, symObjAddr: 0x1CBC0, symBinAddr: 0x1000A6F2C, symSize: 0x104 }
  - { offset: 0x1078CE, size: 0x8, addend: 0x0, symName: __ZN4core7unicode12unicode_data1n6lookup17h6ea3cfdeef988644E, symObjAddr: 0x1CCC4, symBinAddr: 0x1000A7030, symSize: 0x178 }
  - { offset: 0x107A8A, size: 0x8, addend: 0x0, symName: __ZN4core7unicode12unicode_data9uppercase6lookup17h65b04322da2c43aeE, symObjAddr: 0x1CE3C, symBinAddr: 0x1000A71A8, symSize: 0x104 }
  - { offset: 0x107AF0, size: 0x8, addend: 0x0, symName: __ZN4core7unicode12unicode_data11conversions8to_lower17h861daef6903b4af8E, symObjAddr: 0x1CF40, symBinAddr: 0x1000A72AC, symSize: 0x184 }
  - { offset: 0x107C7A, size: 0x8, addend: 0x0, symName: __ZN4core7unicode12unicode_data11conversions8to_upper17h9d76314f42833bf3E, symObjAddr: 0x1D0C4, symBinAddr: 0x1000A7430, symSize: 0x1A4 }
  - { offset: 0x107E4F, size: 0x8, addend: 0x0, symName: __ZN4core7unicode9printable12is_printable17h5297a2b08c5cd935E, symObjAddr: 0x10DC4, symBinAddr: 0x10009B4E4, symSize: 0x2C0 }
  - { offset: 0x10828D, size: 0x8, addend: 0x0, symName: '__ZN79_$LT$core..ffi..c_str..FromBytesUntilNulError$u20$as$u20$core..fmt..Display$GT$3fmt17h26b9e35b819247efE', symObjAddr: 0x50C8, symBinAddr: 0x10008FE80, symSize: 0x24 }
  - { offset: 0x1082C3, size: 0x8, addend: 0x0, symName: '__ZN59_$LT$core..ffi..c_str..CStr$u20$as$u20$core..fmt..Debug$GT$3fmt17h62279f99cf3a7463E', symObjAddr: 0x50EC, symBinAddr: 0x10008FEA4, symSize: 0x6C }
  - { offset: 0x108375, size: 0x8, addend: 0x0, symName: '__ZN78_$LT$core..ffi..c_str..FromBytesWithNulError$u20$as$u20$core..fmt..Display$GT$3fmt17h1b6600efe3e72eb8E', symObjAddr: 0x5158, symBinAddr: 0x10008FF10, symSize: 0xB4 }
  - { offset: 0x108392, size: 0x8, addend: 0x0, symName: '__ZN78_$LT$core..ffi..c_str..FromBytesWithNulError$u20$as$u20$core..fmt..Display$GT$3fmt17h1b6600efe3e72eb8E', symObjAddr: 0x5158, symBinAddr: 0x10008FF10, symSize: 0xB4 }
  - { offset: 0x108409, size: 0x8, addend: 0x0, symName: __ZN4core3ffi5c_str4CStr20from_bytes_until_nul17h4243d48d4040c6b9E, symObjAddr: 0x520C, symBinAddr: 0x10008FFC4, symSize: 0xE4 }
  - { offset: 0x1084AF, size: 0x8, addend: 0x0, symName: __ZN4core3ffi5c_str4CStr19from_bytes_with_nul17ha6805a918b71ae91E, symObjAddr: 0x52F0, symBinAddr: 0x1000900A8, symSize: 0x100 }
  - { offset: 0x10856A, size: 0x8, addend: 0x0, symName: __ZN4core3ffi5c_str4CStr6to_str17h94d10c3ad726ddfbE, symObjAddr: 0x54A0, symBinAddr: 0x100090258, symSize: 0x14 }
  - { offset: 0x1085A6, size: 0x8, addend: 0x0, symName: __ZN4core3ffi5c_str4CStr29from_bytes_with_nul_unchecked10const_impl17h29f93ca9b103c8c0E, symObjAddr: 0x53F0, symBinAddr: 0x1000901A8, symSize: 0xB0 }
  - { offset: 0x10860C, size: 0x8, addend: 0x0, symName: '__ZN67_$LT$core..ffi..va_list..VaListImpl$u20$as$u20$core..fmt..Debug$GT$3fmt17hec3761ec4897c9fcE', symObjAddr: 0x54B4, symBinAddr: 0x10009026C, symSize: 0x4C }
  - { offset: 0x108658, size: 0x8, addend: 0x0, symName: '__ZN54_$LT$core..ffi..c_void$u20$as$u20$core..fmt..Debug$GT$3fmt17ha926ebd43a0c6b94E', symObjAddr: 0x5500, symBinAddr: 0x1000902B8, symSize: 0x24 }
  - { offset: 0x1086D6, size: 0x8, addend: 0x0, symName: '__ZN72_$LT$core..io..borrowed_buf..BorrowedBuf$u20$as$u20$core..fmt..Debug$GT$3fmt17h7b191f0244d2ba38E', symObjAddr: 0x5524, symBinAddr: 0x1000902DC, symSize: 0x108 }
  - { offset: 0x1087E6, size: 0x8, addend: 0x0, symName: '__ZN86_$LT$core..net..display_buffer..DisplayBuffer$LT$_$GT$$u20$as$u20$core..fmt..Write$GT$9write_str17h1ea1f93a339a6150E', symObjAddr: 0x562C, symBinAddr: 0x1000903E4, symSize: 0x5C }
  - { offset: 0x108895, size: 0x8, addend: 0x0, symName: '__ZN86_$LT$core..net..display_buffer..DisplayBuffer$LT$_$GT$$u20$as$u20$core..fmt..Write$GT$9write_str17h5bd0b9333d9341caE', symObjAddr: 0x5688, symBinAddr: 0x100090440, symSize: 0x5C }
  - { offset: 0x108944, size: 0x8, addend: 0x0, symName: '__ZN86_$LT$core..net..display_buffer..DisplayBuffer$LT$_$GT$$u20$as$u20$core..fmt..Write$GT$9write_str17h774ec17dbc9dc674E', symObjAddr: 0x56E4, symBinAddr: 0x10009049C, symSize: 0x5C }
  - { offset: 0x1089F3, size: 0x8, addend: 0x0, symName: '__ZN86_$LT$core..net..display_buffer..DisplayBuffer$LT$_$GT$$u20$as$u20$core..fmt..Write$GT$9write_str17hcbabbc3501ef16ceE', symObjAddr: 0x5740, symBinAddr: 0x1000904F8, symSize: 0x5C }
  - { offset: 0x108B50, size: 0x8, addend: 0x0, symName: '__ZN65_$LT$core..net..ip_addr..IpAddr$u20$as$u20$core..fmt..Display$GT$3fmt17h0bf2e435dd354ea4E', symObjAddr: 0x579C, symBinAddr: 0x100090554, symSize: 0x20 }
  - { offset: 0x108B78, size: 0x8, addend: 0x0, symName: '__ZN63_$LT$core..net..ip_addr..IpAddr$u20$as$u20$core..fmt..Debug$GT$3fmt17h0179cac8181d65f4E', symObjAddr: 0x57BC, symBinAddr: 0x100090574, symSize: 0x20 }
  - { offset: 0x108BBD, size: 0x8, addend: 0x0, symName: '__ZN4core3net6parser46_$LT$impl$u20$core..net..ip_addr..Ipv4Addr$GT$11parse_ascii17h756a3f6303630130E', symObjAddr: 0x6D3C, symBinAddr: 0x100091AF4, symSize: 0x74 }
  - { offset: 0x108C25, size: 0x8, addend: 0x0, symName: '__ZN67_$LT$core..net..ip_addr..Ipv4Addr$u20$as$u20$core..fmt..Display$GT$3fmt17h91f2c13e5ca09be2E', symObjAddr: 0x57DC, symBinAddr: 0x100090594, symSize: 0x154 }
  - { offset: 0x108DA5, size: 0x8, addend: 0x0, symName: '__ZN65_$LT$core..net..ip_addr..Ipv4Addr$u20$as$u20$core..fmt..Debug$GT$3fmt17h66d07645f3e1a30bE', symObjAddr: 0x5930, symBinAddr: 0x1000906E8, symSize: 0x10 }
  - { offset: 0x108DFE, size: 0x8, addend: 0x0, symName: '__ZN4core3net6parser46_$LT$impl$u20$core..net..ip_addr..Ipv6Addr$GT$11parse_ascii17h04b8aa4a6ed0895eE', symObjAddr: 0x6E24, symBinAddr: 0x100091BDC, symSize: 0x70 }
  - { offset: 0x108E86, size: 0x8, addend: 0x0, symName: '__ZN67_$LT$core..net..ip_addr..Ipv6Addr$u20$as$u20$core..fmt..Display$GT$3fmt12fmt_subslice17h1b7bd84cf6f4313dE', symObjAddr: 0x6064, symBinAddr: 0x100090E1C, symSize: 0x108 }
  - { offset: 0x108E9D, size: 0x8, addend: 0x0, symName: '__ZN67_$LT$core..net..ip_addr..Ipv6Addr$u20$as$u20$core..fmt..Display$GT$3fmt12fmt_subslice17h1b7bd84cf6f4313dE', symObjAddr: 0x6064, symBinAddr: 0x100090E1C, symSize: 0x108 }
  - { offset: 0x108FD0, size: 0x8, addend: 0x0, symName: '__ZN67_$LT$core..net..ip_addr..Ipv6Addr$u20$as$u20$core..fmt..Display$GT$3fmt17h3075020f935bdb7dE', symObjAddr: 0x5940, symBinAddr: 0x1000906F8, symSize: 0x724 }
  - { offset: 0x1093BB, size: 0x8, addend: 0x0, symName: '__ZN65_$LT$core..net..ip_addr..Ipv6Addr$u20$as$u20$core..fmt..Debug$GT$3fmt17hfabf501674715e3dE', symObjAddr: 0x616C, symBinAddr: 0x100090F24, symSize: 0x10 }
  - { offset: 0x1093F0, size: 0x8, addend: 0x0, symName: '__ZN4core3net6parser44_$LT$impl$u20$core..net..ip_addr..IpAddr$GT$11parse_ascii17h2b8df88215acb28cE', symObjAddr: 0x6BCC, symBinAddr: 0x100091984, symSize: 0xB8 }
  - { offset: 0x1094BF, size: 0x8, addend: 0x0, symName: '__ZN77_$LT$core..net..ip_addr..Ipv4Addr$u20$as$u20$core..ops..bit..BitAndAssign$GT$13bitand_assign17he13865b17c9d2310E', symObjAddr: 0x16EEC, symBinAddr: 0x1000A1600, symSize: 0x40 }
  - { offset: 0x1094FD, size: 0x8, addend: 0x0, symName: '__ZN117_$LT$core..net..ip_addr..Ipv4Addr$u20$as$u20$core..ops..bit..BitAndAssign$LT$$RF$core..net..ip_addr..Ipv4Addr$GT$$GT$13bitand_assign17hbd3543d0dad6d26aE', symObjAddr: 0x16F2C, symBinAddr: 0x1000A1640, symSize: 0x44 }
  - { offset: 0x10954A, size: 0x8, addend: 0x0, symName: '__ZN76_$LT$core..net..ip_addr..Ipv4Addr$u20$as$u20$core..ops..bit..BitOrAssign$GT$12bitor_assign17ha832d82e60e05b4bE', symObjAddr: 0x16F70, symBinAddr: 0x1000A1684, symSize: 0x40 }
  - { offset: 0x109588, size: 0x8, addend: 0x0, symName: '__ZN116_$LT$core..net..ip_addr..Ipv4Addr$u20$as$u20$core..ops..bit..BitOrAssign$LT$$RF$core..net..ip_addr..Ipv4Addr$GT$$GT$12bitor_assign17hf1c3acbe057c10b4E', symObjAddr: 0x16FB0, symBinAddr: 0x1000A16C4, symSize: 0x44 }
  - { offset: 0x1095D5, size: 0x8, addend: 0x0, symName: '__ZN77_$LT$core..net..ip_addr..Ipv6Addr$u20$as$u20$core..ops..bit..BitAndAssign$GT$13bitand_assign17h8407cf8650a46300E', symObjAddr: 0x16FF4, symBinAddr: 0x1000A1708, symSize: 0xA0 }
  - { offset: 0x10963D, size: 0x8, addend: 0x0, symName: '__ZN117_$LT$core..net..ip_addr..Ipv6Addr$u20$as$u20$core..ops..bit..BitAndAssign$LT$$RF$core..net..ip_addr..Ipv6Addr$GT$$GT$13bitand_assign17he2fe948abfe4e287E', symObjAddr: 0x17094, symBinAddr: 0x1000A17A8, symSize: 0x20 }
  - { offset: 0x1096B4, size: 0x8, addend: 0x0, symName: '__ZN76_$LT$core..net..ip_addr..Ipv6Addr$u20$as$u20$core..ops..bit..BitOrAssign$GT$12bitor_assign17he5d59b3fe0ba13d6E', symObjAddr: 0x170B4, symBinAddr: 0x1000A17C8, symSize: 0xA0 }
  - { offset: 0x10971C, size: 0x8, addend: 0x0, symName: '__ZN116_$LT$core..net..ip_addr..Ipv6Addr$u20$as$u20$core..ops..bit..BitOrAssign$LT$$RF$core..net..ip_addr..Ipv6Addr$GT$$GT$12bitor_assign17h6e5b26decaaac69eE', symObjAddr: 0x17154, symBinAddr: 0x1000A1868, symSize: 0x20 }
  - { offset: 0x109842, size: 0x8, addend: 0x0, symName: __ZN4core3net6parser6Parser14read_ipv4_addr17hd153478255069375E, symObjAddr: 0x6434, symBinAddr: 0x1000911EC, symSize: 0x2CC }
  - { offset: 0x109A20, size: 0x8, addend: 0x0, symName: __ZN4core3net6parser6Parser14read_ipv6_addr17h10ff07a9d5fe7410E, symObjAddr: 0x6700, symBinAddr: 0x1000914B8, symSize: 0x13C }
  - { offset: 0x109DF8, size: 0x8, addend: 0x0, symName: __ZN4core3net6parser6Parser19read_socket_addr_v617hf040c2d89cb3e4f0E, symObjAddr: 0x6A0C, symBinAddr: 0x1000917C4, symSize: 0x1C0 }
  - { offset: 0x10A46B, size: 0x8, addend: 0x0, symName: '__ZN4core3net6parser6Parser11read_number28_$u7b$$u7b$closure$u7d$$u7d$17hb32385ee547dd310E', symObjAddr: 0x617C, symBinAddr: 0x100090F34, symSize: 0x2B8 }
  - { offset: 0x10A762, size: 0x8, addend: 0x0, symName: __ZN4core3net6parser6Parser14read_ipv6_addr11read_groups17hd5271aab100364f3E, symObjAddr: 0x683C, symBinAddr: 0x1000915F4, symSize: 0x1D0 }
  - { offset: 0x10AAD9, size: 0x8, addend: 0x0, symName: '__ZN4core3net6parser83_$LT$impl$u20$core..str..traits..FromStr$u20$for$u20$core..net..ip_addr..IpAddr$GT$8from_str17h9b7b427c88cd0108E', symObjAddr: 0x6C84, symBinAddr: 0x100091A3C, symSize: 0xB8 }
  - { offset: 0x10ABD1, size: 0x8, addend: 0x0, symName: '__ZN4core3net6parser85_$LT$impl$u20$core..str..traits..FromStr$u20$for$u20$core..net..ip_addr..Ipv4Addr$GT$8from_str17h517323ef106a9becE', symObjAddr: 0x6DB0, symBinAddr: 0x100091B68, symSize: 0x74 }
  - { offset: 0x10AC5A, size: 0x8, addend: 0x0, symName: '__ZN4core3net6parser85_$LT$impl$u20$core..str..traits..FromStr$u20$for$u20$core..net..ip_addr..Ipv6Addr$GT$8from_str17hf9eac359d83ef0c3E', symObjAddr: 0x6E94, symBinAddr: 0x100091C4C, symSize: 0x70 }
  - { offset: 0x10ACF8, size: 0x8, addend: 0x0, symName: '__ZN4core3net6parser93_$LT$impl$u20$core..str..traits..FromStr$u20$for$u20$core..net..socket_addr..SocketAddrV4$GT$8from_str17ha82ca49b00a4ca75E', symObjAddr: 0x6FF8, symBinAddr: 0x100091DB0, symSize: 0xE8 }
