---
triple:          'arm64-apple-darwin'
binary-path:     '/Users/teddy/code/zero_to_production/newsletter_server/target/debug/deps/libtokio_macros-dab82f21433d3bf8.dylib'
relocations:
  - { offset: 0x1E, size: 0x8, addend: 0x0, symName: __RINvMNtCs9f3LFPSIp77_4core6optionINtB3_6OptionINtNtCsdze8u8oDPro_5alloc5boxed3BoxNtNtCsATtFUPiRFW_3syn4attr4MetaEE3mapB1h_NCNvXs8_NtB1l_10punctuatedINtB24_10PunctuatedB1h_NtNtB1l_5token5CommaENtNtNtNtB5_4iter6traits7collect12IntoIterator9into_iters_0ECsivhpxLWnNhi_12tokio_macros, symObjAddr: 0x0, symBinAddr: 0x2AD4, symSize: 0x78 }
  - { offset: 0x3E9, size: 0x8, addend: 0x0, symName: __RNvXsR_NtCsjLJ1XWNSM6u_10proc_macro6bridgeINtNtCs9f3LFPSIp77_4core6option6OptionNtNtB5_6client11TokenStreamEINtNtB5_3rpc6EncodeuE6encodeCsivhpxLWnNhi_12tokio_macros, symObjAddr: 0x3174, symBinAddr: 0x5C48, symSize: 0xCC }
  - { offset: 0x48D, size: 0x8, addend: 0x0, symName: __RNvXsR_NtCsjLJ1XWNSM6u_10proc_macro6bridgeINtNtCs9f3LFPSIp77_4core6option6OptionReEINtNtB5_3rpc6EncodeuE6encodeCsivhpxLWnNhi_12tokio_macros, symObjAddr: 0x3240, symBinAddr: 0x5D14, symSize: 0xD8 }
  - { offset: 0x3B6B, size: 0x8, addend: 0x0, symName: __RNvXs3_NtCs9f3LFPSIp77_4core6optionINtB5_6OptionNtNtCsATtFUPiRFW_3syn4path4PathENtNtB7_5clone5Clone5cloneCsivhpxLWnNhi_12tokio_macros, symObjAddr: 0x2D24, symBinAddr: 0x57F8, symSize: 0x80 }
  - { offset: 0x3BC6, size: 0x8, addend: 0x0, symName: __RNvXs5_NtCs9f3LFPSIp77_4core6optionINtB5_6OptionNtNtCsATtFUPiRFW_3syn4attr4MetaENtNtNtNtB7_4iter6traits7collect12IntoIterator9into_iterCsivhpxLWnNhi_12tokio_macros, symObjAddr: 0x30FC, symBinAddr: 0x5BD0, symSize: 0x50 }
  - { offset: 0x3BFE, size: 0x8, addend: 0x0, symName: __RNvXs5_NtCs9f3LFPSIp77_4core6optionINtB5_6OptionQNtNtCsATtFUPiRFW_3syn3pat3PatENtNtNtNtB7_4iter6traits7collect12IntoIterator9into_iterCsivhpxLWnNhi_12tokio_macros, symObjAddr: 0x314C, symBinAddr: 0x5C20, symSize: 0x14 }
  - { offset: 0x3C35, size: 0x8, addend: 0x0, symName: __RNvXs5_NtCs9f3LFPSIp77_4core6optionINtB5_6OptionQNtNtCsATtFUPiRFW_3syn3pat8FieldPatENtNtNtNtB7_4iter6traits7collect12IntoIterator9into_iterCsivhpxLWnNhi_12tokio_macros, symObjAddr: 0x3160, symBinAddr: 0x5C34, symSize: 0x14 }
  - { offset: 0x3DAD, size: 0x8, addend: 0x0, symName: __RNvXsv_NtCs9f3LFPSIp77_4core6optionINtB5_8IntoIterNtNtCsATtFUPiRFW_3syn4attr4MetaENtNtNtNtB7_4iter6traits8iterator8Iterator4nextCsivhpxLWnNhi_12tokio_macros, symObjAddr: 0x3448, symBinAddr: 0x5F1C, symSize: 0x78 }
  - { offset: 0x3E8A, size: 0x8, addend: 0x0, symName: __RNvXsv_NtCs9f3LFPSIp77_4core6optionINtB5_8IntoIterNtNtCsATtFUPiRFW_3syn4attr4MetaENtNtNtNtB7_4iter6traits8iterator8Iterator9size_hintCsivhpxLWnNhi_12tokio_macros, symObjAddr: 0x34C0, symBinAddr: 0x5F94, symSize: 0x5C }
  - { offset: 0x3F47, size: 0x8, addend: 0x0, symName: __RNvXsv_NtCs9f3LFPSIp77_4core6optionINtB5_8IntoIterQNtNtCsATtFUPiRFW_3syn3pat3PatENtNtNtNtB7_4iter6traits8iterator8Iterator4nextCsivhpxLWnNhi_12tokio_macros, symObjAddr: 0x351C, symBinAddr: 0x5FF0, symSize: 0x3C }
  - { offset: 0x403A, size: 0x8, addend: 0x0, symName: __RNvXsv_NtCs9f3LFPSIp77_4core6optionINtB5_8IntoIterQNtNtCsATtFUPiRFW_3syn3pat3PatENtNtNtNtB7_4iter6traits8iterator8Iterator9size_hintCsivhpxLWnNhi_12tokio_macros, symObjAddr: 0x3558, symBinAddr: 0x602C, symSize: 0x5C }
  - { offset: 0x40F7, size: 0x8, addend: 0x0, symName: __RNvXsv_NtCs9f3LFPSIp77_4core6optionINtB5_8IntoIterQNtNtCsATtFUPiRFW_3syn3pat8FieldPatENtNtNtNtB7_4iter6traits8iterator8Iterator4nextCsivhpxLWnNhi_12tokio_macros, symObjAddr: 0x35B4, symBinAddr: 0x6088, symSize: 0x3C }
  - { offset: 0x41EA, size: 0x8, addend: 0x0, symName: __RNvXsv_NtCs9f3LFPSIp77_4core6optionINtB5_8IntoIterQNtNtCsATtFUPiRFW_3syn3pat8FieldPatENtNtNtNtB7_4iter6traits8iterator8Iterator9size_hintCsivhpxLWnNhi_12tokio_macros, symObjAddr: 0x35F0, symBinAddr: 0x60C4, symSize: 0x5C }
  - { offset: 0x467E, size: 0x8, addend: 0x0, symName: __RNvNvMs3_NtCs9f3LFPSIp77_4core3numi13unchecked_neg18precondition_checkCsivhpxLWnNhi_12tokio_macros, symObjAddr: 0x2198, symBinAddr: 0x4C6C, symSize: 0x4C }
  - { offset: 0x4808, size: 0x8, addend: 0x0, symName: __RNvNvMs9_NtCs9f3LFPSIp77_4core3numj13unchecked_add18precondition_checkCsivhpxLWnNhi_12tokio_macros, symObjAddr: 0x21E4, symBinAddr: 0x4CB8, symSize: 0x4C }
  - { offset: 0x48AF, size: 0x8, addend: 0x0, symName: __RNvNvMs9_NtCs9f3LFPSIp77_4core3numj13unchecked_sub18precondition_checkCsivhpxLWnNhi_12tokio_macros, symObjAddr: 0x2230, symBinAddr: 0x4D04, symSize: 0x54 }
  - { offset: 0x62A9, size: 0x8, addend: 0x0, symName: __RINvXs2U_NtNtCs9f3LFPSIp77_4core5slice4iterINtB7_4IterNtNtCsATtFUPiRFW_3syn4attr9AttributeENtNtNtNtBb_4iter6traits8iterator8Iterator4findNCNvNtCsivhpxLWnNhi_12tokio_macros5entry4test0EB2h_, symObjAddr: 0xF04, symBinAddr: 0x39D8, symSize: 0xB0 }
  - { offset: 0x630E, size: 0x8, addend: 0x0, symName: __RINvXs2U_NtNtCs9f3LFPSIp77_4core5slice4iterINtB7_4IterNtNtCsATtFUPiRFW_3syn4attr9AttributeENtNtNtNtBb_4iter6traits8iterator8Iterator4findQNCNvNtCsivhpxLWnNhi_12tokio_macros5entry4test0EB2i_, symObjAddr: 0xFB4, symBinAddr: 0x3A88, symSize: 0xB4 }
  - { offset: 0x6373, size: 0x8, addend: 0x0, symName: __RNvXs2U_NtNtCs9f3LFPSIp77_4core5slice4iterINtB6_4IterNtCs475r2uZUTuc_11proc_macro211TokenStreamENtNtNtNtBa_4iter6traits8iterator8Iterator4nextCsivhpxLWnNhi_12tokio_macros, symObjAddr: 0x25F8, symBinAddr: 0x50CC, symSize: 0xCC }
  - { offset: 0x64D4, size: 0x8, addend: 0x0, symName: __RNvXs2U_NtNtCs9f3LFPSIp77_4core5slice4iterINtB6_4IterNtCs475r2uZUTuc_11proc_macro25IdentENtNtNtNtBa_4iter6traits8iterator8Iterator4nextCsivhpxLWnNhi_12tokio_macros, symObjAddr: 0x26C4, symBinAddr: 0x5198, symSize: 0xCC }
  - { offset: 0x67DA, size: 0x8, addend: 0x0, symName: __RNvXs32_NtNtCs9f3LFPSIp77_4core5slice4iterINtB6_7IterMutTNtNtCsATtFUPiRFW_3syn3pat3PatNtNtBX_5token2OrEENtNtNtNtBa_4iter6traits8iterator8Iterator4nextCsivhpxLWnNhi_12tokio_macros, symObjAddr: 0x2790, symBinAddr: 0x5264, symSize: 0xCC }
  - { offset: 0x691D, size: 0x8, addend: 0x0, symName: __RNvXs32_NtNtCs9f3LFPSIp77_4core5slice4iterINtB6_7IterMutTNtNtCsATtFUPiRFW_3syn3pat3PatNtNtBX_5token5CommaEENtNtNtNtBa_4iter6traits8iterator8Iterator4nextCsivhpxLWnNhi_12tokio_macros, symObjAddr: 0x285C, symBinAddr: 0x5330, symSize: 0xCC }
  - { offset: 0x6A60, size: 0x8, addend: 0x0, symName: __RNvXs32_NtNtCs9f3LFPSIp77_4core5slice4iterINtB6_7IterMutTNtNtCsATtFUPiRFW_3syn3pat8FieldPatNtNtBX_5token5CommaEENtNtNtNtBa_4iter6traits8iterator8Iterator4nextCsivhpxLWnNhi_12tokio_macros, symObjAddr: 0x2928, symBinAddr: 0x53FC, symSize: 0xCC }
  - { offset: 0x6BA9, size: 0x8, addend: 0x0, symName: __RNvXs33_NtNtCs9f3LFPSIp77_4core5slice4iterINtB6_7IterMutTNtNtCsATtFUPiRFW_3syn3pat3PatNtNtBX_5token2OrEENtNtNtNtBa_4iter6traits12double_ended19DoubleEndedIterator9next_backCsivhpxLWnNhi_12tokio_macros, symObjAddr: 0x29F4, symBinAddr: 0x54C8, symSize: 0x110 }
  - { offset: 0x6D13, size: 0x8, addend: 0x0, symName: __RNvXs33_NtNtCs9f3LFPSIp77_4core5slice4iterINtB6_7IterMutTNtNtCsATtFUPiRFW_3syn3pat3PatNtNtBX_5token5CommaEENtNtNtNtBa_4iter6traits12double_ended19DoubleEndedIterator9next_backCsivhpxLWnNhi_12tokio_macros, symObjAddr: 0x2B04, symBinAddr: 0x55D8, symSize: 0x110 }
  - { offset: 0x6E7D, size: 0x8, addend: 0x0, symName: __RNvXs33_NtNtCs9f3LFPSIp77_4core5slice4iterINtB6_7IterMutTNtNtCsATtFUPiRFW_3syn3pat8FieldPatNtNtBX_5token5CommaEENtNtNtNtBa_4iter6traits12double_ended19DoubleEndedIterator9next_backCsivhpxLWnNhi_12tokio_macros, symObjAddr: 0x2C14, symBinAddr: 0x56E8, symSize: 0x110 }
  - { offset: 0x712D, size: 0x8, addend: 0x0, symName: __RNCINvXs_NtNtNtCs9f3LFPSIp77_4core4iter8adapters5chainINtB7_5ChainINtNtNtBd_5slice4iter4IterNtNtCsATtFUPiRFW_3syn4attr9AttributeEB12_ENtNtNtBb_6traits8iterator8Iterator4findNCNvNtCsivhpxLWnNhi_12tokio_macros5entry4test0E0B2R_, symObjAddr: 0x14B0, symBinAddr: 0x3F84, symSize: 0x38 }
  - { offset: 0x7183, size: 0x8, addend: 0x0, symName: __RNCINvXs_NtNtNtCs9f3LFPSIp77_4core4iter8adapters5chainINtB7_5ChainINtNtNtBd_5slice4iter4IterNtNtCsATtFUPiRFW_3syn4attr9AttributeEB12_ENtNtNtBb_6traits8iterator8Iterator4findNCNvNtCsivhpxLWnNhi_12tokio_macros5entry4test0Es_0B2R_, symObjAddr: 0x14E8, symBinAddr: 0x3FBC, symSize: 0x80 }
  - { offset: 0x7287, size: 0x8, addend: 0x0, symName: __RINvXs_NtNtNtCs9f3LFPSIp77_4core4iter8adapters5chainINtB5_5ChainINtNtNtBb_5slice4iter4IterNtNtCsATtFUPiRFW_3syn4attr9AttributeEB10_ENtNtNtB9_6traits8iterator8Iterator4findNCNvNtCsivhpxLWnNhi_12tokio_macros5entry4test0EB2P_, symObjAddr: 0x11C4, symBinAddr: 0x3C98, symSize: 0x80 }
  - { offset: 0x72DD, size: 0x8, addend: 0x0, symName: __RINvNtNtNtCs9f3LFPSIp77_4core4iter8adapters5chain17and_then_or_clearINtNtNtB8_5slice4iter4IterNtNtCsATtFUPiRFW_3syn4attr9AttributeERB1u_NCINvXs_B2_INtB2_5ChainB14_B14_ENtNtNtB6_6traits8iterator8Iterator4findNCNvNtCsivhpxLWnNhi_12tokio_macros5entry4test0E0EB3p_, symObjAddr: 0xE34, symBinAddr: 0x3908, symSize: 0xD0 }
  - { offset: 0x751D, size: 0x8, addend: 0x0, symName: __RINvYINtNtCs9f3LFPSIp77_4core6option8IntoIterNtNtCsATtFUPiRFW_3syn4attr4MetaENtNtNtNtB8_4iter6traits8iterator8Iterator4folduNCINvNvB1d_8for_each4callBH_NCINvMsi_NtCsdze8u8oDPro_5alloc3vecINtB2z_3VecBH_E14extend_trustedB3_E0E0ECsivhpxLWnNhi_12tokio_macros, symObjAddr: 0x1244, symBinAddr: 0x3D18, symSize: 0x144 }
  - { offset: 0x7610, size: 0x8, addend: 0x0, symName: __RINvYINtNtCs9f3LFPSIp77_4core6option8IntoIterNtNtCsATtFUPiRFW_3syn4attr4MetaENtNtNtNtB8_4iter6traits8iterator8Iterator8for_eachNCINvMsi_NtCsdze8u8oDPro_5alloc3vecINtB2a_3VecBH_E14extend_trustedB3_E0ECsivhpxLWnNhi_12tokio_macros, symObjAddr: 0x1388, symBinAddr: 0x3E5C, symSize: 0x34 }
  - { offset: 0x767C, size: 0x8, addend: 0x0, symName: __RINvYINtNtNtCs9f3LFPSIp77_4core5slice4iter4IterNtNtCsATtFUPiRFW_3syn4attr9AttributeENtNtNtNtBa_4iter6traits8iterator8Iterator5chainB3_ECsivhpxLWnNhi_12tokio_macros, symObjAddr: 0x13BC, symBinAddr: 0x3E90, symSize: 0xD8 }
  - { offset: 0x76F2, size: 0x8, addend: 0x0, symName: __RINvYINtNtNtCsdze8u8oDPro_5alloc3vec9into_iter8IntoIterTNtNtCsATtFUPiRFW_3syn4attr4MetaNtNtBW_5token5CommaEENtNtNtNtCs9f3LFPSIp77_4core4iter6traits8iterator8Iterator3mapBS_NCNvXs8_NtBW_10punctuatedINtB2S_10PunctuatedBS_B1n_ENtNtB1M_7collect12IntoIterator9into_iter0ECsivhpxLWnNhi_12tokio_macros, symObjAddr: 0x1494, symBinAddr: 0x3F68, symSize: 0x1C }
  - { offset: 0x77CC, size: 0x8, addend: 0x0, symName: __RNvYINtNtCs9f3LFPSIp77_4core6option8IntoIterQNtNtCsATtFUPiRFW_3syn3pat3PatENtNtNtNtB7_4iter6traits10exact_size17ExactSizeIterator3lenCsivhpxLWnNhi_12tokio_macros, symObjAddr: 0x364C, symBinAddr: 0x6120, symSize: 0xC4 }
  - { offset: 0x78BE, size: 0x8, addend: 0x0, symName: __RNvYINtNtCs9f3LFPSIp77_4core6option8IntoIterQNtNtCsATtFUPiRFW_3syn3pat8FieldPatENtNtNtNtB7_4iter6traits10exact_size17ExactSizeIterator3lenCsivhpxLWnNhi_12tokio_macros, symObjAddr: 0x3710, symBinAddr: 0x61E4, symSize: 0xC4 }
  - { offset: 0x79B0, size: 0x8, addend: 0x0, symName: __RNvYINtNtNtCsdze8u8oDPro_5alloc3vec9into_iter8IntoIterNtNtCsATtFUPiRFW_3syn4attr4MetaENtNtNtNtCs9f3LFPSIp77_4core4iter6traits10exact_size17ExactSizeIterator3lenCsivhpxLWnNhi_12tokio_macros, symObjAddr: 0x3800, symBinAddr: 0x62D4, symSize: 0xC4 }
  - { offset: 0x7AA2, size: 0x8, addend: 0x0, symName: __RNvYINtNtNtCsdze8u8oDPro_5alloc3vec9into_iter8IntoIterTNtNtCsATtFUPiRFW_3syn4attr4MetaNtNtBV_5token5CommaEENtNtNtNtCs9f3LFPSIp77_4core4iter6traits10exact_size17ExactSizeIterator3lenCsivhpxLWnNhi_12tokio_macros, symObjAddr: 0x38C4, symBinAddr: 0x6398, symSize: 0xC4 }
  - { offset: 0x7EC8, size: 0x8, addend: 0x0, symName: __RNvNtCs9f3LFPSIp77_4core10intrinsics8unlikelyCsivhpxLWnNhi_12tokio_macros, symObjAddr: 0x1B80, symBinAddr: 0x4654, symSize: 0x10 }
  - { offset: 0x7EFB, size: 0x8, addend: 0x0, symName: __RNvNvNtCs9f3LFPSIp77_4core10intrinsics19copy_nonoverlapping18precondition_checkCsivhpxLWnNhi_12tokio_macros, symObjAddr: 0x2284, symBinAddr: 0x4D58, symSize: 0x1EC }
  - { offset: 0x832A, size: 0x8, addend: 0x0, symName: __RNCNvXs1_NtNtNtCs27l1GJC5rMQ_3std2io5error14repr_bitpackedNtB7_4ReprNtNtNtCs9f3LFPSIp77_4core3ops4drop4Drop4drop0CsivhpxLWnNhi_12tokio_macros, symObjAddr: 0x1568, symBinAddr: 0x403C, symSize: 0x34 }
  - { offset: 0x83DF, size: 0x8, addend: 0x0, symName: __RNvXs1_NtNtNtCs27l1GJC5rMQ_3std2io5error14repr_bitpackedNtB5_4ReprNtNtNtCs9f3LFPSIp77_4core3ops4drop4Drop4dropCsivhpxLWnNhi_12tokio_macros, symObjAddr: 0x25C0, symBinAddr: 0x5094, symSize: 0x38 }
  - { offset: 0x8408, size: 0x8, addend: 0x0, symName: __RINvNtNtNtCs27l1GJC5rMQ_3std2io5error14repr_bitpacked11decode_reprINtNtCsdze8u8oDPro_5alloc5boxed3BoxNtB4_6CustomENCNvXs1_B2_NtB2_4ReprNtNtNtCs9f3LFPSIp77_4core3ops4drop4Drop4drop0ECsivhpxLWnNhi_12tokio_macros, symObjAddr: 0xC00, symBinAddr: 0x36D4, symSize: 0x234 }
  - { offset: 0x86D1, size: 0x8, addend: 0x0, symName: __RNvNtNtNtCs27l1GJC5rMQ_3std2io5error14repr_bitpacked14kind_from_primCsivhpxLWnNhi_12tokio_macros, symObjAddr: 0x1B90, symBinAddr: 0x4664, symSize: 0x608 }
  - { offset: 0xE511, size: 0x8, addend: 0x0, symName: __RINvXs3_NtNtCsdze8u8oDPro_5alloc3vec9into_iterINtB6_8IntoIterTNtNtCsATtFUPiRFW_3syn4attr4MetaNtNtB12_5token5CommaEENtNtNtNtCs9f3LFPSIp77_4core4iter6traits8iterator8Iterator4folduNCINvNtNtB1V_8adapters3map8map_foldBX_BY_uNCNvXs8_NtB12_10punctuatedINtB3E_10PunctuatedBY_B1t_ENtNtB1T_7collect12IntoIterator9into_iter0NCINvNvB1P_8for_each4callBY_NCINvMsi_B8_INtB8_3VecBY_E14extend_trustedINtB2V_3MapBI_B3w_EE0E0E0ECsivhpxLWnNhi_12tokio_macros, symObjAddr: 0x1068, symBinAddr: 0x3B3C, symSize: 0x15C }
  - { offset: 0xE71E, size: 0x8, addend: 0x0, symName: __RNvXs3_NtNtCsdze8u8oDPro_5alloc3vec9into_iterINtB5_8IntoIterNtNtCsATtFUPiRFW_3syn4attr4MetaENtNtNtNtCs9f3LFPSIp77_4core4iter6traits8iterator8Iterator4nextCsivhpxLWnNhi_12tokio_macros, symObjAddr: 0x2DA4, symBinAddr: 0x5878, symSize: 0xF4 }
  - { offset: 0xE8CE, size: 0x8, addend: 0x0, symName: __RNvXs3_NtNtCsdze8u8oDPro_5alloc3vec9into_iterINtB5_8IntoIterNtNtCsATtFUPiRFW_3syn4attr4MetaENtNtNtNtCs9f3LFPSIp77_4core4iter6traits8iterator8Iterator9size_hintCsivhpxLWnNhi_12tokio_macros, symObjAddr: 0x2E98, symBinAddr: 0x596C, symSize: 0xB8 }
  - { offset: 0xE99F, size: 0x8, addend: 0x0, symName: __RNvXs3_NtNtCsdze8u8oDPro_5alloc3vec9into_iterINtB5_8IntoIterNtNtCsATtFUPiRFW_3syn4attr9AttributeENtNtNtNtCs9f3LFPSIp77_4core4iter6traits8iterator8Iterator4nextCsivhpxLWnNhi_12tokio_macros, symObjAddr: 0x2F50, symBinAddr: 0x5A24, symSize: 0xF4 }
  - { offset: 0xEB4F, size: 0x8, addend: 0x0, symName: __RNvXs3_NtNtCsdze8u8oDPro_5alloc3vec9into_iterINtB5_8IntoIterTNtNtCsATtFUPiRFW_3syn4attr4MetaNtNtB11_5token5CommaEENtNtNtNtCs9f3LFPSIp77_4core4iter6traits8iterator8Iterator9size_hintCsivhpxLWnNhi_12tokio_macros, symObjAddr: 0x3044, symBinAddr: 0x5B18, symSize: 0xB8 }
  - { offset: 0xECBA, size: 0x8, addend: 0x0, symName: __RNvXNvXsd_NtNtCsdze8u8oDPro_5alloc3vec9into_iterINtB8_8IntoIterppENtNtNtCs9f3LFPSIp77_4core3ops4drop4Drop4dropINtB2_9DropGuardNtNtCsATtFUPiRFW_3syn4attr4MetaNtNtBc_5alloc6GlobalEB12_4dropCsivhpxLWnNhi_12tokio_macros, symObjAddr: 0x24B0, symBinAddr: 0x4F84, symSize: 0x88 }
  - { offset: 0xEDC7, size: 0x8, addend: 0x0, symName: __RNvXNvXsd_NtNtCsdze8u8oDPro_5alloc3vec9into_iterINtB8_8IntoIterppENtNtNtCs9f3LFPSIp77_4core3ops4drop4Drop4dropINtB2_9DropGuardTNtNtCsATtFUPiRFW_3syn4attr4MetaNtNtB25_5token5CommaENtNtBc_5alloc6GlobalEB12_4dropCsivhpxLWnNhi_12tokio_macros, symObjAddr: 0x2538, symBinAddr: 0x500C, symSize: 0x88 }
  - { offset: 0xEF24, size: 0x8, addend: 0x0, symName: __RNvXsd_NtNtCsdze8u8oDPro_5alloc3vec9into_iterINtB5_8IntoIterNtNtCsATtFUPiRFW_3syn4attr4MetaENtNtNtCs9f3LFPSIp77_4core3ops4drop4Drop4dropCsivhpxLWnNhi_12tokio_macros, symObjAddr: 0x3318, symBinAddr: 0x5DEC, symSize: 0x98 }
  - { offset: 0xEFBE, size: 0x8, addend: 0x0, symName: __RNvXsd_NtNtCsdze8u8oDPro_5alloc3vec9into_iterINtB5_8IntoIterTNtNtCsATtFUPiRFW_3syn4attr4MetaNtNtB11_5token5CommaEENtNtNtCs9f3LFPSIp77_4core3ops4drop4Drop4dropCsivhpxLWnNhi_12tokio_macros, symObjAddr: 0x33B0, symBinAddr: 0x5E84, symSize: 0x98 }
  - { offset: 0xFE85, size: 0x8, addend: 0x0, symName: __RINvMNtCs9f3LFPSIp77_4core6optionINtB3_6OptionINtNtCsdze8u8oDPro_5alloc5boxed3BoxNtNtCsATtFUPiRFW_3syn4attr4MetaEE3mapB1h_NCNvXs8_NtB1l_10punctuatedINtB24_10PunctuatedB1h_NtNtB1l_5token5CommaENtNtNtNtB5_4iter6traits7collect12IntoIterator9into_iters_0ECsivhpxLWnNhi_12tokio_macros, symObjAddr: 0x0, symBinAddr: 0x2AD4, symSize: 0x78 }
  - { offset: 0xFF28, size: 0x8, addend: 0x0, symName: __RINvMNtCs9f3LFPSIp77_4core6optionINtB3_6OptionNtCs475r2uZUTuc_11proc_macro211TokenStreamE14unwrap_or_elseNCNvNtCsivhpxLWnNhi_12tokio_macros5entry11parse_knobss0_0EB1L_, symObjAddr: 0x78, symBinAddr: 0x2B4C, symSize: 0x7C }
  - { offset: 0xFF9D, size: 0x8, addend: 0x0, symName: __RINvMNtCs9f3LFPSIp77_4core6optionINtB3_6OptionNtCs475r2uZUTuc_11proc_macro29TokenTreeE11map_or_elseNtBK_4SpanNvMse_BK_B1z_9call_siteNCNvNtCsivhpxLWnNhi_12tokio_macros5entry11parse_knobs0EB2c_, symObjAddr: 0xF4, symBinAddr: 0x2BC8, symSize: 0xE4 }
  - { offset: 0x10019, size: 0x8, addend: 0x0, symName: __RINvMNtCs9f3LFPSIp77_4core6optionINtB3_6OptionNtCs475r2uZUTuc_11proc_macro29TokenTreeE6map_orNtBK_4SpanNCNvNtCsivhpxLWnNhi_12tokio_macros5entry11parse_knobss_0EB1J_, symObjAddr: 0x1D8, symBinAddr: 0x2CAC, symSize: 0xC8 }
  - { offset: 0x100A4, size: 0x8, addend: 0x0, symName: __RINvMNtCs9f3LFPSIp77_4core6optionINtB3_6OptionNtNtCsATtFUPiRFW_3syn4path4PathE3mapNtCs475r2uZUTuc_11proc_macro211TokenStreamNvYBI_NtNtCs62MdaZFMefA_5quote9to_tokens8ToTokens17into_token_streamECsivhpxLWnNhi_12tokio_macros, symObjAddr: 0x2A0, symBinAddr: 0x2D74, symSize: 0x9C }
  - { offset: 0x10142, size: 0x8, addend: 0x0, symName: __RINvMNtCs9f3LFPSIp77_4core6optionINtB3_6OptionQINtNtCsdze8u8oDPro_5alloc5boxed3BoxNtNtCsATtFUPiRFW_3syn3pat3PatEE3mapQB1i_NvYBJ_INtNtB5_7convert5AsMutB1i_E6as_mutECsivhpxLWnNhi_12tokio_macros, symObjAddr: 0x33C, symBinAddr: 0x2E10, symSize: 0x50 }
  - { offset: 0x101DF, size: 0x8, addend: 0x0, symName: __RINvMNtCs9f3LFPSIp77_4core6optionINtB3_6OptionQINtNtCsdze8u8oDPro_5alloc5boxed3BoxNtNtCsATtFUPiRFW_3syn3pat8FieldPatEE3mapQB1i_NvYBJ_INtNtB5_7convert5AsMutB1i_E6as_mutECsivhpxLWnNhi_12tokio_macros, symObjAddr: 0x38C, symBinAddr: 0x2E60, symSize: 0x50 }
  - { offset: 0x10257, size: 0x8, addend: 0x0, symName: __RINvMNtCs9f3LFPSIp77_4core6optionINtB3_6OptionQNtNtCsATtFUPiRFW_3syn3pat3PatE7or_elseNCNvXsF_NtBN_10punctuatedINtB1t_14PrivateIterMutBJ_NtNtBN_5token2OrENtNtNtNtB5_4iter6traits8iterator8Iterator4nexts_0ECsivhpxLWnNhi_12tokio_macros, symObjAddr: 0x3DC, symBinAddr: 0x2EB0, symSize: 0xA8 }
  - { offset: 0x102B9, size: 0x8, addend: 0x0, symName: __RINvMNtCs9f3LFPSIp77_4core6optionINtB3_6OptionQNtNtCsATtFUPiRFW_3syn3pat3PatE7or_elseNCNvXsF_NtBN_10punctuatedINtB1t_14PrivateIterMutBJ_NtNtBN_5token5CommaENtNtNtNtB5_4iter6traits8iterator8Iterator4nexts_0ECsivhpxLWnNhi_12tokio_macros, symObjAddr: 0x484, symBinAddr: 0x2F58, symSize: 0xA8 }
  - { offset: 0x1034F, size: 0x8, addend: 0x0, symName: __RINvMNtCs9f3LFPSIp77_4core6optionINtB3_6OptionQNtNtCsATtFUPiRFW_3syn3pat3PatE7or_elseNCNvXsG_NtBN_10punctuatedINtB1t_14PrivateIterMutBJ_NtNtBN_5token2OrENtNtNtNtB5_4iter6traits12double_ended19DoubleEndedIterator9next_back0ECsivhpxLWnNhi_12tokio_macros, symObjAddr: 0x52C, symBinAddr: 0x3000, symSize: 0xA8 }
  - { offset: 0x103E5, size: 0x8, addend: 0x0, symName: __RINvMNtCs9f3LFPSIp77_4core6optionINtB3_6OptionQNtNtCsATtFUPiRFW_3syn3pat3PatE7or_elseNCNvXsG_NtBN_10punctuatedINtB1t_14PrivateIterMutBJ_NtNtBN_5token5CommaENtNtNtNtB5_4iter6traits12double_ended19DoubleEndedIterator9next_back0ECsivhpxLWnNhi_12tokio_macros, symObjAddr: 0x5D4, symBinAddr: 0x30A8, symSize: 0xA8 }
  - { offset: 0x10454, size: 0x8, addend: 0x0, symName: __RINvMNtCs9f3LFPSIp77_4core6optionINtB3_6OptionQNtNtCsATtFUPiRFW_3syn3pat8FieldPatE7or_elseNCNvXsF_NtBN_10punctuatedINtB1y_14PrivateIterMutBJ_NtNtBN_5token5CommaENtNtNtNtB5_4iter6traits8iterator8Iterator4nexts_0ECsivhpxLWnNhi_12tokio_macros, symObjAddr: 0x67C, symBinAddr: 0x3150, symSize: 0xA8 }
  - { offset: 0x104EA, size: 0x8, addend: 0x0, symName: __RINvMNtCs9f3LFPSIp77_4core6optionINtB3_6OptionQNtNtCsATtFUPiRFW_3syn3pat8FieldPatE7or_elseNCNvXsG_NtBN_10punctuatedINtB1y_14PrivateIterMutBJ_NtNtBN_5token5CommaENtNtNtNtB5_4iter6traits12double_ended19DoubleEndedIterator9next_back0ECsivhpxLWnNhi_12tokio_macros, symObjAddr: 0x724, symBinAddr: 0x31F8, symSize: 0xA8 }
  - { offset: 0x1054C, size: 0x8, addend: 0x0, symName: __RINvMNtCs9f3LFPSIp77_4core6optionINtB3_6OptionQTNtNtCsATtFUPiRFW_3syn3pat3PatNtNtBO_5token2OrEE3mapQBK_NCNCNvXsG_NtBO_10punctuatedINtB1N_14PrivateIterMutBK_B1d_ENtNtNtNtB5_4iter6traits12double_ended19DoubleEndedIterator9next_back00ECsivhpxLWnNhi_12tokio_macros, symObjAddr: 0x7CC, symBinAddr: 0x32A0, symSize: 0x50 }
  - { offset: 0x105B7, size: 0x8, addend: 0x0, symName: __RINvMNtCs9f3LFPSIp77_4core6optionINtB3_6OptionQTNtNtCsATtFUPiRFW_3syn3pat3PatNtNtBO_5token2OrEE3mapQBK_NCNvXsF_NtBO_10punctuatedINtB1L_14PrivateIterMutBK_B1d_ENtNtNtNtB5_4iter6traits8iterator8Iterator4next0ECsivhpxLWnNhi_12tokio_macros, symObjAddr: 0x81C, symBinAddr: 0x32F0, symSize: 0x50 }
  - { offset: 0x10622, size: 0x8, addend: 0x0, symName: __RINvMNtCs9f3LFPSIp77_4core6optionINtB3_6OptionQTNtNtCsATtFUPiRFW_3syn3pat3PatNtNtBO_5token5CommaEE3mapQBK_NCNCNvXsG_NtBO_10punctuatedINtB1Q_14PrivateIterMutBK_B1d_ENtNtNtNtB5_4iter6traits12double_ended19DoubleEndedIterator9next_back00ECsivhpxLWnNhi_12tokio_macros, symObjAddr: 0x86C, symBinAddr: 0x3340, symSize: 0x50 }
  - { offset: 0x1068D, size: 0x8, addend: 0x0, symName: __RINvMNtCs9f3LFPSIp77_4core6optionINtB3_6OptionQTNtNtCsATtFUPiRFW_3syn3pat3PatNtNtBO_5token5CommaEE3mapQBK_NCNvXsF_NtBO_10punctuatedINtB1O_14PrivateIterMutBK_B1d_ENtNtNtNtB5_4iter6traits8iterator8Iterator4next0ECsivhpxLWnNhi_12tokio_macros, symObjAddr: 0x8BC, symBinAddr: 0x3390, symSize: 0x50 }
  - { offset: 0x106F8, size: 0x8, addend: 0x0, symName: __RINvMNtCs9f3LFPSIp77_4core6optionINtB3_6OptionQTNtNtCsATtFUPiRFW_3syn3pat8FieldPatNtNtBO_5token5CommaEE3mapQBK_NCNCNvXsG_NtBO_10punctuatedINtB1V_14PrivateIterMutBK_B1i_ENtNtNtNtB5_4iter6traits12double_ended19DoubleEndedIterator9next_back00ECsivhpxLWnNhi_12tokio_macros, symObjAddr: 0x90C, symBinAddr: 0x33E0, symSize: 0x50 }
  - { offset: 0x10763, size: 0x8, addend: 0x0, symName: __RINvMNtCs9f3LFPSIp77_4core6optionINtB3_6OptionQTNtNtCsATtFUPiRFW_3syn3pat8FieldPatNtNtBO_5token5CommaEE3mapQBK_NCNvXsF_NtBO_10punctuatedINtB1T_14PrivateIterMutBK_B1i_ENtNtNtNtB5_4iter6traits8iterator8Iterator4next0ECsivhpxLWnNhi_12tokio_macros, symObjAddr: 0x95C, symBinAddr: 0x3430, symSize: 0x50 }
  - { offset: 0x107E8, size: 0x8, addend: 0x0, symName: __RINvMNtCs9f3LFPSIp77_4core6optionINtB3_6OptionRNtCs475r2uZUTuc_11proc_macro25IdentE10ok_or_elseNtNtCsATtFUPiRFW_3syn5error5ErrorNCNvNtCsivhpxLWnNhi_12tokio_macros5entry12build_config0EB28_, symObjAddr: 0x9AC, symBinAddr: 0x3480, symSize: 0x7C }
  - { offset: 0x10860, size: 0x8, addend: 0x0, symName: __RINvMNtCs9f3LFPSIp77_4core6optionINtB3_6OptionRNtCs475r2uZUTuc_11proc_macro25IdentE10ok_or_elseNtNtCsATtFUPiRFW_3syn5error5ErrorNCNvNtCsivhpxLWnNhi_12tokio_macros5entry12build_configs_0EB28_, symObjAddr: 0xA28, symBinAddr: 0x34FC, symSize: 0x7C }
  - { offset: 0x108F2, size: 0x8, addend: 0x0, symName: __RINvMNtCs9f3LFPSIp77_4core6optionINtB3_6OptionRNtNtCsATtFUPiRFW_3syn4attr9AttributeE7or_elseNCINvXs_NtNtNtB5_4iter8adapters5chainINtB1A_5ChainINtNtNtB5_5slice4iter4IterBJ_EB2g_ENtNtNtB1E_6traits8iterator8Iterator4findNCNvNtCsivhpxLWnNhi_12tokio_macros5entry4test0Es_0EB3z_, symObjAddr: 0xAA4, symBinAddr: 0x3578, symSize: 0xA8 }
  - { offset: 0x10972, size: 0x8, addend: 0x0, symName: __RINvMNtCs9f3LFPSIp77_4core6optionINtB3_6OptionTjNtCs475r2uZUTuc_11proc_macro24SpanEE3mapjNCNvMs0_NtCsivhpxLWnNhi_12tokio_macros5entryNtB1x_13Configuration5build0EB1z_, symObjAddr: 0xB4C, symBinAddr: 0x3620, symSize: 0x60 }
  - { offset: 0x10B13, size: 0x8, addend: 0x0, symName: __RINvMs0_NtCs9f3LFPSIp77_4core3fmtNtB6_9Arguments6new_v1Kj3_Kj2_ECsivhpxLWnNhi_12tokio_macros, symObjAddr: 0xBAC, symBinAddr: 0x3680, symSize: 0x54 }
  - { offset: 0x10EB8, size: 0x8, addend: 0x0, symName: __RNvMNtCs9f3LFPSIp77_4core6optionINtB2_6OptionINtNtCsdze8u8oDPro_5alloc5boxed3BoxNtNtCsATtFUPiRFW_3syn3pat3PatEE6as_mutCsivhpxLWnNhi_12tokio_macros, symObjAddr: 0x159C, symBinAddr: 0x4070, symSize: 0x4C }
  - { offset: 0x10F0F, size: 0x8, addend: 0x0, symName: __RNvMNtCs9f3LFPSIp77_4core6optionINtB2_6OptionINtNtCsdze8u8oDPro_5alloc5boxed3BoxNtNtCsATtFUPiRFW_3syn3pat8FieldPatEE6as_mutCsivhpxLWnNhi_12tokio_macros, symObjAddr: 0x15E8, symBinAddr: 0x40BC, symSize: 0x4C }
  - { offset: 0x10F66, size: 0x8, addend: 0x0, symName: __RNvMNtCs9f3LFPSIp77_4core6optionINtB2_6OptionINtNtCsdze8u8oDPro_5alloc5boxed3BoxNtNtCsATtFUPiRFW_3syn4attr4MetaEE4takeCsivhpxLWnNhi_12tokio_macros, symObjAddr: 0x1634, symBinAddr: 0x4108, symSize: 0x2C }
  - { offset: 0x1103B, size: 0x8, addend: 0x0, symName: __RNvMNtCs9f3LFPSIp77_4core6optionINtB2_6OptionINtNtCsdze8u8oDPro_5alloc5boxed3BoxNtNtCsATtFUPiRFW_3syn4attr4MetaEE7is_noneCsivhpxLWnNhi_12tokio_macros, symObjAddr: 0x1660, symBinAddr: 0x4134, symSize: 0x4C }
  - { offset: 0x11085, size: 0x8, addend: 0x0, symName: __RNvMNtCs9f3LFPSIp77_4core6optionINtB2_6OptionINtNtCsdze8u8oDPro_5alloc5boxed3BoxNtNtCsATtFUPiRFW_3syn4attr4MetaEE7is_someCsivhpxLWnNhi_12tokio_macros, symObjAddr: 0x16AC, symBinAddr: 0x4180, symSize: 0x48 }
  - { offset: 0x110B1, size: 0x8, addend: 0x0, symName: __RNvMNtCs9f3LFPSIp77_4core6optionINtB2_6OptionNtCs475r2uZUTuc_11proc_macro211TokenStreamE17unwrap_or_defaultCsivhpxLWnNhi_12tokio_macros, symObjAddr: 0x16F4, symBinAddr: 0x41C8, symSize: 0x70 }
  - { offset: 0x11109, size: 0x8, addend: 0x0, symName: __RNvMNtCs9f3LFPSIp77_4core6optionINtB2_6OptionNtNtCsATtFUPiRFW_3syn4path4PathE7is_someCsivhpxLWnNhi_12tokio_macros, symObjAddr: 0x1764, symBinAddr: 0x4238, symSize: 0x4C }
  - { offset: 0x1115E, size: 0x8, addend: 0x0, symName: __RNvMNtCs9f3LFPSIp77_4core6optionINtB2_6OptionNtNtCsATtFUPiRFW_3syn5token5AsyncE7is_noneCsivhpxLWnNhi_12tokio_macros, symObjAddr: 0x17B0, symBinAddr: 0x4284, symSize: 0x44 }
  - { offset: 0x111D1, size: 0x8, addend: 0x0, symName: __RNvMNtCs9f3LFPSIp77_4core6optionINtB2_6OptionNtNtCsivhpxLWnNhi_12tokio_macros5entry13RuntimeFlavorE7is_noneBL_, symObjAddr: 0x17F4, symBinAddr: 0x42C8, symSize: 0x4C }
  - { offset: 0x1121B, size: 0x8, addend: 0x0, symName: __RNvMNtCs9f3LFPSIp77_4core6optionINtB2_6OptionNtNtCsivhpxLWnNhi_12tokio_macros5entry13RuntimeFlavorE7is_someBL_, symObjAddr: 0x1840, symBinAddr: 0x4314, symSize: 0x48 }
  - { offset: 0x11247, size: 0x8, addend: 0x0, symName: __RNvMNtCs9f3LFPSIp77_4core6optionINtB2_6OptionNtNtCsivhpxLWnNhi_12tokio_macros5entry13RuntimeFlavorE9unwrap_orBL_, symObjAddr: 0x1888, symBinAddr: 0x435C, symSize: 0x5C }
  - { offset: 0x112CA, size: 0x8, addend: 0x0, symName: __RNvMNtCs9f3LFPSIp77_4core6optionINtB2_6OptionTNtNtCsivhpxLWnNhi_12tokio_macros5entry14UnhandledPanicNtCs475r2uZUTuc_11proc_macro24SpanEE7is_someBM_, symObjAddr: 0x18E4, symBinAddr: 0x43B8, symSize: 0x48 }
  - { offset: 0x11321, size: 0x8, addend: 0x0, symName: __RNvMNtCs9f3LFPSIp77_4core6optionINtB2_6OptionTbNtCs475r2uZUTuc_11proc_macro24SpanEE7is_someCsivhpxLWnNhi_12tokio_macros, symObjAddr: 0x192C, symBinAddr: 0x4400, symSize: 0x48 }
  - { offset: 0x1135A, size: 0x8, addend: 0x0, symName: __RNvMNtCs9f3LFPSIp77_4core6optionINtB2_6OptionTjNtCs475r2uZUTuc_11proc_macro24SpanEE7is_someCsivhpxLWnNhi_12tokio_macros, symObjAddr: 0x1974, symBinAddr: 0x4448, symSize: 0x40 }
  - { offset: 0x11393, size: 0x8, addend: 0x0, symName: __RNvMs0_NtCs9f3LFPSIp77_4core6optionINtB5_6OptionRNtCs475r2uZUTuc_11proc_macro211TokenStreamE6clonedCsivhpxLWnNhi_12tokio_macros, symObjAddr: 0x19B4, symBinAddr: 0x4488, symSize: 0x6C }
  - { offset: 0x1147D, size: 0x8, addend: 0x0, symName: __RNvMs4_NtNtCs9f3LFPSIp77_4core5slice4iterINtB5_4IterNtCs475r2uZUTuc_11proc_macro25IdentE3newCsivhpxLWnNhi_12tokio_macros, symObjAddr: 0x1A20, symBinAddr: 0x44F4, symSize: 0x58 }
  - { offset: 0x11604, size: 0x8, addend: 0x0, symName: __RNvMsa_NtNtCs9f3LFPSIp77_4core5slice4iterINtB5_7IterMutTNtNtCsATtFUPiRFW_3syn3pat3PatNtNtBW_5token2OrEE3newCsivhpxLWnNhi_12tokio_macros, symObjAddr: 0x1A78, symBinAddr: 0x454C, symSize: 0x58 }
  - { offset: 0x1178B, size: 0x8, addend: 0x0, symName: __RNvMsa_NtNtCs9f3LFPSIp77_4core5slice4iterINtB5_7IterMutTNtNtCsATtFUPiRFW_3syn3pat3PatNtNtBW_5token5CommaEE3newCsivhpxLWnNhi_12tokio_macros, symObjAddr: 0x1AD0, symBinAddr: 0x45A4, symSize: 0x58 }
  - { offset: 0x11912, size: 0x8, addend: 0x0, symName: __RNvMsa_NtNtCs9f3LFPSIp77_4core5slice4iterINtB5_7IterMutTNtNtCsATtFUPiRFW_3syn3pat8FieldPatNtNtBW_5token5CommaEE3newCsivhpxLWnNhi_12tokio_macros, symObjAddr: 0x1B28, symBinAddr: 0x45FC, symSize: 0x58 }
  - { offset: 0x11A8C, size: 0x8, addend: 0x0, symName: __RNvXNtCs62MdaZFMefA_5quote9to_tokensRNtNtCsATtFUPiRFW_3syn4path4PathNtB2_8ToTokens9to_tokensCsivhpxLWnNhi_12tokio_macros, symObjAddr: 0x2470, symBinAddr: 0x4F44, symSize: 0x40 }
  - { offset: 0x11AD1, size: 0x8, addend: 0x0, symName: __RNvYRNtNtCsATtFUPiRFW_3syn4path4PathNtNtCs62MdaZFMefA_5quote9to_tokens8ToTokens15to_token_streamCsivhpxLWnNhi_12tokio_macros, symObjAddr: 0x3988, symBinAddr: 0x645C, symSize: 0x8C }
  - { offset: 0x11B1B, size: 0x8, addend: 0x0, symName: __RNvYRNtNtCsATtFUPiRFW_3syn4path4PathNtNtCs62MdaZFMefA_5quote9to_tokens8ToTokens17into_token_streamCsivhpxLWnNhi_12tokio_macros, symObjAddr: 0x3A14, symBinAddr: 0x64E8, symSize: 0x54 }
  - { offset: 0x11B61, size: 0x8, addend: 0x0, symName: __RNvYINtNtNtCs9f3LFPSIp77_4core5slice4iter4IterNtCs475r2uZUTuc_11proc_macro25IdentENtNtNtCs62MdaZFMefA_5quote9___private3ext14RepIteratorExt15quote_into_iterCsivhpxLWnNhi_12tokio_macros, symObjAddr: 0x37D4, symBinAddr: 0x62A8, symSize: 0x2C }
  - { offset: 0x129BA, size: 0x8, addend: 0x0, symName: __RINvMNtCs9f3LFPSIp77_4core3stre5parsejECsivhpxLWnNhi_12tokio_macros, symObjAddr: 0x0, symBinAddr: 0x6548, symSize: 0x28 }
  - { offset: 0x12CD7, size: 0x8, addend: 0x0, symName: __RNCNvMs3_NtNtCs27l1GJC5rMQ_3std6thread5localINtB7_8LocalKeyINtNtCs9f3LFPSIp77_4core4cell4CellPuEE7replace0CsivhpxLWnNhi_12tokio_macros, symObjAddr: 0x2050, symBinAddr: 0x8598, symSize: 0x44 }
  - { offset: 0x13051, size: 0x8, addend: 0x0, symName: __RNvNvMs1_NtNtCs9f3LFPSIp77_4core3ptr8non_nullINtB7_7NonNullpE13new_unchecked18precondition_checkCsivhpxLWnNhi_12tokio_macros, symObjAddr: 0x2758, symBinAddr: 0x8CA0, symSize: 0x40 }
  - { offset: 0x1353F, size: 0x8, addend: 0x0, symName: __RNvNvMNtNtCs9f3LFPSIp77_4core3ptr9const_ptrPp7sub_ptr18precondition_checkCsivhpxLWnNhi_12tokio_macros, symObjAddr: 0x26C8, symBinAddr: 0x8C10, symSize: 0x40 }
  - { offset: 0x137C3, size: 0x8, addend: 0x0, symName: __RINvNtCs9f3LFPSIp77_4core3ptr13drop_in_placeANtCs475r2uZUTuc_11proc_macro29TokenTreej1_ECsivhpxLWnNhi_12tokio_macros, symObjAddr: 0x82C, symBinAddr: 0x6D74, symSize: 0xA4 }
  - { offset: 0x137F2, size: 0x8, addend: 0x0, symName: __RINvNtCs9f3LFPSIp77_4core3ptr13drop_in_placeDNtNtB4_5error5ErrorNtNtB4_6marker4SendNtB12_4SyncEL_ECsivhpxLWnNhi_12tokio_macros, symObjAddr: 0x8D0, symBinAddr: 0x6E18, symSize: 0x48 }
  - { offset: 0x13821, size: 0x8, addend: 0x0, symName: __RINvNtCs9f3LFPSIp77_4core3ptr13drop_in_placeINtNtB4_4cell10UnsafeCellNtNtNtCsjLJ1XWNSM6u_10proc_macro6bridge6client6BridgeEECsivhpxLWnNhi_12tokio_macros, symObjAddr: 0x918, symBinAddr: 0x6E60, symSize: 0x24 }
  - { offset: 0x13850, size: 0x8, addend: 0x0, symName: __RINvNtCs9f3LFPSIp77_4core3ptr13drop_in_placeINtNtB4_4cell7RefCellNtNtNtCsjLJ1XWNSM6u_10proc_macro6bridge6client6BridgeEECsivhpxLWnNhi_12tokio_macros, symObjAddr: 0x93C, symBinAddr: 0x6E84, symSize: 0x24 }
  - { offset: 0x1387F, size: 0x8, addend: 0x0, symName: __RINvNtCs9f3LFPSIp77_4core3ptr13drop_in_placeINtNtB4_6option4ItemNtNtCsATtFUPiRFW_3syn4attr4MetaEECsivhpxLWnNhi_12tokio_macros, symObjAddr: 0x960, symBinAddr: 0x6EA8, symSize: 0x24 }
  - { offset: 0x138AE, size: 0x8, addend: 0x0, symName: __RINvNtCs9f3LFPSIp77_4core3ptr13drop_in_placeINtNtB4_6option6OptionINtNtCsdze8u8oDPro_5alloc5boxed3BoxNtNtCsATtFUPiRFW_3syn4attr4MetaEEECsivhpxLWnNhi_12tokio_macros, symObjAddr: 0x984, symBinAddr: 0x6ECC, symSize: 0x44 }
  - { offset: 0x138DD, size: 0x8, addend: 0x0, symName: __RINvNtCs9f3LFPSIp77_4core3ptr13drop_in_placeINtNtB4_6option6OptionNtNtCsATtFUPiRFW_3syn4attr4MetaEECsivhpxLWnNhi_12tokio_macros, symObjAddr: 0x9C8, symBinAddr: 0x6F10, symSize: 0x44 }
  - { offset: 0x1390C, size: 0x8, addend: 0x0, symName: __RINvNtCs9f3LFPSIp77_4core3ptr13drop_in_placeINtNtB4_6option6OptionNtNtCsATtFUPiRFW_3syn4path4PathEECsivhpxLWnNhi_12tokio_macros, symObjAddr: 0xA0C, symBinAddr: 0x6F54, symSize: 0x48 }
  - { offset: 0x1393B, size: 0x8, addend: 0x0, symName: __RINvNtCs9f3LFPSIp77_4core3ptr13drop_in_placeINtNtB4_6option8IntoIterNtNtCsATtFUPiRFW_3syn4attr4MetaEECsivhpxLWnNhi_12tokio_macros, symObjAddr: 0xA54, symBinAddr: 0x6F9C, symSize: 0x24 }
  - { offset: 0x1396A, size: 0x8, addend: 0x0, symName: __RINvNtCs9f3LFPSIp77_4core3ptr13drop_in_placeINtNtB4_6result6ResultNtNtCsATtFUPiRFW_3syn3pat3PatNtNtB16_5error5ErrorEECsivhpxLWnNhi_12tokio_macros, symObjAddr: 0xA78, symBinAddr: 0x6FC0, symSize: 0x60 }
  - { offset: 0x13999, size: 0x8, addend: 0x0, symName: __RINvNtCs9f3LFPSIp77_4core3ptr13drop_in_placeINtNtCsATtFUPiRFW_3syn10punctuated10PunctuatedNtNtBL_4attr4MetaNtNtBL_5token5CommaEECsivhpxLWnNhi_12tokio_macros, symObjAddr: 0xAD8, symBinAddr: 0x7020, symSize: 0x60 }
  - { offset: 0x139C8, size: 0x8, addend: 0x0, symName: __RINvNtCs9f3LFPSIp77_4core3ptr13drop_in_placeINtNtCsATtFUPiRFW_3syn10punctuated14PrivateIterMutNtNtBL_3pat3PatNtNtBL_5token2OrEECsivhpxLWnNhi_12tokio_macros, symObjAddr: 0xB38, symBinAddr: 0x7080, symSize: 0x10 }
  - { offset: 0x139F7, size: 0x8, addend: 0x0, symName: __RINvNtCs9f3LFPSIp77_4core3ptr13drop_in_placeINtNtCsATtFUPiRFW_3syn10punctuated14PrivateIterMutNtNtBL_3pat3PatNtNtBL_5token5CommaEECsivhpxLWnNhi_12tokio_macros, symObjAddr: 0xB48, symBinAddr: 0x7090, symSize: 0x10 }
  - { offset: 0x13A26, size: 0x8, addend: 0x0, symName: __RINvNtCs9f3LFPSIp77_4core3ptr13drop_in_placeINtNtCsATtFUPiRFW_3syn10punctuated14PrivateIterMutNtNtBL_3pat8FieldPatNtNtBL_5token5CommaEECsivhpxLWnNhi_12tokio_macros, symObjAddr: 0xB58, symBinAddr: 0x70A0, symSize: 0x10 }
  - { offset: 0x13A55, size: 0x8, addend: 0x0, symName: __RINvNtCs9f3LFPSIp77_4core3ptr13drop_in_placeINtNtCsATtFUPiRFW_3syn10punctuated7IterMutNtNtBL_3pat3PatEECsivhpxLWnNhi_12tokio_macros, symObjAddr: 0xB68, symBinAddr: 0x70B0, symSize: 0x24 }
  - { offset: 0x13A84, size: 0x8, addend: 0x0, symName: __RINvNtCs9f3LFPSIp77_4core3ptr13drop_in_placeINtNtCsATtFUPiRFW_3syn10punctuated7IterMutNtNtBL_3pat8FieldPatEECsivhpxLWnNhi_12tokio_macros, symObjAddr: 0xB8C, symBinAddr: 0x70D4, symSize: 0x24 }
  - { offset: 0x13AB3, size: 0x8, addend: 0x0, symName: __RINvNtCs9f3LFPSIp77_4core3ptr13drop_in_placeINtNtCsATtFUPiRFW_3syn10punctuated8IntoIterNtNtBL_4attr4MetaEECsivhpxLWnNhi_12tokio_macros, symObjAddr: 0xBB0, symBinAddr: 0x70F8, symSize: 0x24 }
  - { offset: 0x13AE2, size: 0x8, addend: 0x0, symName: __RINvNtCs9f3LFPSIp77_4core3ptr13drop_in_placeINtNtCsdze8u8oDPro_5alloc3vec3VecNtCs475r2uZUTuc_11proc_macro211TokenStreamEECsivhpxLWnNhi_12tokio_macros, symObjAddr: 0xBD4, symBinAddr: 0x711C, symSize: 0x5C }
  - { offset: 0x13B11, size: 0x8, addend: 0x0, symName: __RINvNtCs9f3LFPSIp77_4core3ptr13drop_in_placeINtNtCsdze8u8oDPro_5alloc3vec3VecNtCs475r2uZUTuc_11proc_macro25IdentEECsivhpxLWnNhi_12tokio_macros, symObjAddr: 0xC30, symBinAddr: 0x7178, symSize: 0x5C }
  - { offset: 0x13B40, size: 0x8, addend: 0x0, symName: __RINvNtCs9f3LFPSIp77_4core3ptr13drop_in_placeINtNtCsdze8u8oDPro_5alloc3vec3VecNtNtCsATtFUPiRFW_3syn4attr4MetaEECsivhpxLWnNhi_12tokio_macros, symObjAddr: 0xC8C, symBinAddr: 0x71D4, symSize: 0x5C }
  - { offset: 0x13B6F, size: 0x8, addend: 0x0, symName: __RINvNtCs9f3LFPSIp77_4core3ptr13drop_in_placeINtNtCsdze8u8oDPro_5alloc3vec3VecTNtNtCsATtFUPiRFW_3syn4attr4MetaNtNtB1i_5token5CommaEEECsivhpxLWnNhi_12tokio_macros, symObjAddr: 0xCE8, symBinAddr: 0x7230, symSize: 0x5C }
  - { offset: 0x13B9E, size: 0x8, addend: 0x0, symName: __RINvNtCs9f3LFPSIp77_4core3ptr13drop_in_placeINtNtCsdze8u8oDPro_5alloc5boxed3BoxDNtNtB4_5error5ErrorNtNtB4_6marker4SendNtB1B_4SyncEL_EECsivhpxLWnNhi_12tokio_macros, symObjAddr: 0xD44, symBinAddr: 0x728C, symSize: 0x80 }
  - { offset: 0x13BCD, size: 0x8, addend: 0x0, symName: __RINvNtCs9f3LFPSIp77_4core3ptr13drop_in_placeINtNtCsdze8u8oDPro_5alloc5boxed3BoxINtNtCsATtFUPiRFW_3syn5drops6NoDropDINtNtB1k_10punctuated12IterMutTraitNtNtB1k_3pat3PatEp4ItemQB2o_EL_EEECsivhpxLWnNhi_12tokio_macros, symObjAddr: 0xDC4, symBinAddr: 0x730C, symSize: 0x2C }
  - { offset: 0x13BFC, size: 0x8, addend: 0x0, symName: __RINvNtCs9f3LFPSIp77_4core3ptr13drop_in_placeINtNtCsdze8u8oDPro_5alloc5boxed3BoxINtNtCsATtFUPiRFW_3syn5drops6NoDropDINtNtB1k_10punctuated12IterMutTraitNtNtB1k_3pat8FieldPatEp4ItemQB2o_EL_EEECsivhpxLWnNhi_12tokio_macros, symObjAddr: 0xDF0, symBinAddr: 0x7338, symSize: 0x2C }
  - { offset: 0x13C2B, size: 0x8, addend: 0x0, symName: __RINvNtCs9f3LFPSIp77_4core3ptr13drop_in_placeINtNtCsdze8u8oDPro_5alloc5boxed3BoxNtNtCsATtFUPiRFW_3syn4attr4MetaEECsivhpxLWnNhi_12tokio_macros, symObjAddr: 0xE1C, symBinAddr: 0x7364, symSize: 0x60 }
  - { offset: 0x13C5A, size: 0x8, addend: 0x0, symName: __RINvNtCs9f3LFPSIp77_4core3ptr13drop_in_placeINtNtCsdze8u8oDPro_5alloc5boxed3BoxNtNtNtCs27l1GJC5rMQ_3std2io5error6CustomEECsivhpxLWnNhi_12tokio_macros, symObjAddr: 0xE7C, symBinAddr: 0x73C4, symSize: 0x60 }
  - { offset: 0x13C89, size: 0x8, addend: 0x0, symName: __RINvNtCs9f3LFPSIp77_4core3ptr13drop_in_placeINtNtCsdze8u8oDPro_5alloc7raw_vec6RawVecNtCs475r2uZUTuc_11proc_macro211TokenStreamEECsivhpxLWnNhi_12tokio_macros, symObjAddr: 0xEDC, symBinAddr: 0x7424, symSize: 0x24 }
  - { offset: 0x13CB8, size: 0x8, addend: 0x0, symName: __RINvNtCs9f3LFPSIp77_4core3ptr13drop_in_placeINtNtCsdze8u8oDPro_5alloc7raw_vec6RawVecNtCs475r2uZUTuc_11proc_macro25IdentEECsivhpxLWnNhi_12tokio_macros, symObjAddr: 0xF00, symBinAddr: 0x7448, symSize: 0x24 }
  - { offset: 0x13CE7, size: 0x8, addend: 0x0, symName: __RINvNtCs9f3LFPSIp77_4core3ptr13drop_in_placeINtNtCsdze8u8oDPro_5alloc7raw_vec6RawVecNtNtCsATtFUPiRFW_3syn4attr4MetaEECsivhpxLWnNhi_12tokio_macros, symObjAddr: 0xF24, symBinAddr: 0x746C, symSize: 0x24 }
  - { offset: 0x13D16, size: 0x8, addend: 0x0, symName: __RINvNtCs9f3LFPSIp77_4core3ptr13drop_in_placeINtNtCsdze8u8oDPro_5alloc7raw_vec6RawVecTNtNtCsATtFUPiRFW_3syn4attr4MetaNtNtB1p_5token5CommaEEECsivhpxLWnNhi_12tokio_macros, symObjAddr: 0xF48, symBinAddr: 0x7490, symSize: 0x24 }
  - { offset: 0x13D45, size: 0x8, addend: 0x0, symName: __RINvNtCs9f3LFPSIp77_4core3ptr13drop_in_placeINtNtNtB4_5array4iter8IntoIterARej4_Kj2_EECsivhpxLWnNhi_12tokio_macros, symObjAddr: 0xF6C, symBinAddr: 0x74B4, symSize: 0x24 }
  - { offset: 0x13D74, size: 0x8, addend: 0x0, symName: __RINvNtCs9f3LFPSIp77_4core3ptr13drop_in_placeINtNtNtB4_5array4iter8IntoIterReKj4_EECsivhpxLWnNhi_12tokio_macros, symObjAddr: 0xF90, symBinAddr: 0x74D8, symSize: 0x24 }
  - { offset: 0x13DA3, size: 0x8, addend: 0x0, symName: __RINvNtCs9f3LFPSIp77_4core3ptr13drop_in_placeINtNtNtCs27l1GJC5rMQ_3std2io5error9ErrorDataINtNtCsdze8u8oDPro_5alloc5boxed3BoxNtBJ_6CustomEEECsivhpxLWnNhi_12tokio_macros, symObjAddr: 0xFB4, symBinAddr: 0x74FC, symSize: 0x48 }
  - { offset: 0x13DD2, size: 0x8, addend: 0x0, symName: __RINvNtCs9f3LFPSIp77_4core3ptr13drop_in_placeINtNtNtCsdze8u8oDPro_5alloc3vec9into_iter8IntoIterNtNtCsATtFUPiRFW_3syn4attr4MetaEECsivhpxLWnNhi_12tokio_macros, symObjAddr: 0xFFC, symBinAddr: 0x7544, symSize: 0x24 }
  - { offset: 0x13E01, size: 0x8, addend: 0x0, symName: __RINvNtCs9f3LFPSIp77_4core3ptr13drop_in_placeINtNtNtCsdze8u8oDPro_5alloc3vec9into_iter8IntoIterTNtNtCsATtFUPiRFW_3syn4attr4MetaNtNtB1z_5token5CommaEEECsivhpxLWnNhi_12tokio_macros, symObjAddr: 0x1020, symBinAddr: 0x7568, symSize: 0x24 }
  - { offset: 0x13E30, size: 0x8, addend: 0x0, symName: __RINvNtCs9f3LFPSIp77_4core3ptr13drop_in_placeINtNtNtNtB4_4iter8adapters3map3MapINtNtNtCsdze8u8oDPro_5alloc3vec9into_iter8IntoIterTNtNtCsATtFUPiRFW_3syn4attr4MetaNtNtB27_5token5CommaEENCNvXs8_NtB27_10punctuatedINtB32_10PunctuatedB23_B2y_ENtNtNtBN_6traits7collect12IntoIterator9into_iter0EECsivhpxLWnNhi_12tokio_macros, symObjAddr: 0x1044, symBinAddr: 0x758C, symSize: 0x24 }
  - { offset: 0x13E5F, size: 0x8, addend: 0x0, symName: __RINvNtCs9f3LFPSIp77_4core3ptr13drop_in_placeINtNtNtNtB4_4iter8adapters3zip3ZipINtNtCsATtFUPiRFW_3syn10punctuated4IterNtNtB1j_4path11PathSegmentEINtNtNtB4_5array4iter8IntoIterReKj4_EEECsivhpxLWnNhi_12tokio_macros, symObjAddr: 0x1068, symBinAddr: 0x75B0, symSize: 0x60 }
  - { offset: 0x13E8E, size: 0x8, addend: 0x0, symName: __RINvNtCs9f3LFPSIp77_4core3ptr13drop_in_placeINtNvXsd_NtNtCsdze8u8oDPro_5alloc3vec9into_iterINtBP_8IntoIterppENtNtNtB4_3ops4drop4Drop4drop9DropGuardNtNtCsATtFUPiRFW_3syn4attr4MetaNtNtBT_5alloc6GlobalEECsivhpxLWnNhi_12tokio_macros, symObjAddr: 0x10C8, symBinAddr: 0x7610, symSize: 0x24 }
  - { offset: 0x13EBD, size: 0x8, addend: 0x0, symName: __RINvNtCs9f3LFPSIp77_4core3ptr13drop_in_placeINtNvXsd_NtNtCsdze8u8oDPro_5alloc3vec9into_iterINtBP_8IntoIterppENtNtNtB4_3ops4drop4Drop4drop9DropGuardTNtNtCsATtFUPiRFW_3syn4attr4MetaNtNtB2q_5token5CommaENtNtBT_5alloc6GlobalEECsivhpxLWnNhi_12tokio_macros, symObjAddr: 0x10EC, symBinAddr: 0x7634, symSize: 0x24 }
  - { offset: 0x13EEC, size: 0x8, addend: 0x0, symName: __RINvNtCs9f3LFPSIp77_4core3ptr13drop_in_placeNCINvMsi_NtCsdze8u8oDPro_5alloc3vecINtBP_3VecNtCs475r2uZUTuc_11proc_macro25IdentE14extend_trustedINtNtNtNtB4_4iter8adapters3map3MapINtNtNtB4_3ops5range5RangejENCNvNtCsivhpxLWnNhi_12tokio_macros6select19declare_output_enum0EE0EB3l_, symObjAddr: 0x1110, symBinAddr: 0x7658, symSize: 0x24 }
  - { offset: 0x13F1B, size: 0x8, addend: 0x0, symName: __RINvNtCs9f3LFPSIp77_4core3ptr13drop_in_placeNCINvMsi_NtCsdze8u8oDPro_5alloc3vecINtBP_3VecNtNtCsATtFUPiRFW_3syn4attr4MetaE14extend_trustedINtNtB4_6option8IntoIterB1p_EE0ECsivhpxLWnNhi_12tokio_macros, symObjAddr: 0x1134, symBinAddr: 0x767C, symSize: 0x24 }
  - { offset: 0x13F4A, size: 0x8, addend: 0x0, symName: __RINvNtCs9f3LFPSIp77_4core3ptr13drop_in_placeNCINvMsi_NtCsdze8u8oDPro_5alloc3vecINtBP_3VecNtNtCsATtFUPiRFW_3syn4attr4MetaE14extend_trustedINtNtNtNtB4_4iter8adapters3map3MapINtNtBP_9into_iter8IntoIterTB1p_NtNtB1t_5token5CommaEENCNvXs8_NtB1t_10punctuatedINtB3J_10PunctuatedB1p_B3f_ENtNtNtB2i_6traits7collect12IntoIterator9into_iter0EE0ECsivhpxLWnNhi_12tokio_macros, symObjAddr: 0x1158, symBinAddr: 0x76A0, symSize: 0x24 }
  - { offset: 0x13F79, size: 0x8, addend: 0x0, symName: __RINvNtCs9f3LFPSIp77_4core3ptr13drop_in_placeNCINvNtNtNtB4_4iter8adapters3map8map_foldTNtNtCsATtFUPiRFW_3syn4attr4MetaNtNtB1q_5token5CommaEB1m_uNCNvXs8_NtB1q_10punctuatedINtB2p_10PunctuatedB1m_B1R_ENtNtNtBP_6traits7collect12IntoIterator9into_iter0NCINvNvNtNtB3d_8iterator8Iterator8for_each4callB1m_NCINvMsi_NtCsdze8u8oDPro_5alloc3vecINtB4U_3VecB1m_E14extend_trustedINtBL_3MapINtNtB4U_9into_iter8IntoIterB1l_EB2h_EE0E0E0ECsivhpxLWnNhi_12tokio_macros, symObjAddr: 0x117C, symBinAddr: 0x76C4, symSize: 0x24 }
  - { offset: 0x13FA8, size: 0x8, addend: 0x0, symName: __RINvNtCs9f3LFPSIp77_4core3ptr13drop_in_placeNCINvNtNtNtB4_4iter8adapters3map8map_foldjNtCs475r2uZUTuc_11proc_macro25IdentuNCNvNtCsivhpxLWnNhi_12tokio_macros6select19declare_output_enum0NCINvNvNtNtNtBP_6traits8iterator8Iterator8for_each4callB1m_NCINvMsi_NtCsdze8u8oDPro_5alloc3vecINtB43_3VecB1m_E14extend_trustedINtBL_3MapINtNtNtB4_3ops5range5RangejEB1W_EE0E0E0EB22_, symObjAddr: 0x11A0, symBinAddr: 0x76E8, symSize: 0x24 }
  - { offset: 0x13FD7, size: 0x8, addend: 0x0, symName: __RINvNtCs9f3LFPSIp77_4core3ptr13drop_in_placeNCINvNvNtNtNtNtB4_4iter6traits8iterator8Iterator8for_each4callNtCs475r2uZUTuc_11proc_macro25IdentNCINvMsi_NtCsdze8u8oDPro_5alloc3vecINtB2o_3VecB1G_E14extend_trustedINtNtNtBT_8adapters3map3MapINtNtNtB4_3ops5range5RangejENCNvNtCsivhpxLWnNhi_12tokio_macros6select19declare_output_enum0EE0E0EB4j_, symObjAddr: 0x11C4, symBinAddr: 0x770C, symSize: 0x24 }
  - { offset: 0x14006, size: 0x8, addend: 0x0, symName: __RINvNtCs9f3LFPSIp77_4core3ptr13drop_in_placeNCINvNvNtNtNtNtB4_4iter6traits8iterator8Iterator8for_each4callNtNtCsATtFUPiRFW_3syn4attr4MetaNCINvMsi_NtCsdze8u8oDPro_5alloc3vecINtB2k_3VecB1G_E14extend_trustedINtNtB4_6option8IntoIterB1G_EE0E0ECsivhpxLWnNhi_12tokio_macros, symObjAddr: 0x11E8, symBinAddr: 0x7730, symSize: 0x24 }
  - { offset: 0x14035, size: 0x8, addend: 0x0, symName: __RINvNtCs9f3LFPSIp77_4core3ptr13drop_in_placeNCINvNvNtNtNtNtB4_4iter6traits8iterator8Iterator8for_each4callNtNtCsATtFUPiRFW_3syn4attr4MetaNCINvMsi_NtCsdze8u8oDPro_5alloc3vecINtB2k_3VecB1G_E14extend_trustedINtNtNtBT_8adapters3map3MapINtNtB2k_9into_iter8IntoIterTB1G_NtNtB1K_5token5CommaEENCNvXs8_NtB1K_10punctuatedINtB4I_10PunctuatedB1G_B4e_ENtNtBR_7collect12IntoIterator9into_iter0EE0E0ECsivhpxLWnNhi_12tokio_macros, symObjAddr: 0x120C, symBinAddr: 0x7754, symSize: 0x24 }
  - { offset: 0x14064, size: 0x8, addend: 0x0, symName: __RINvNtCs9f3LFPSIp77_4core3ptr13drop_in_placeNCNCINvNtNtCsjLJ1XWNSM6u_10proc_macro6bridge6client10run_clientNtBN_11TokenStreamINtNtB4_6option6OptionB1H_ENCNCINvMs7_BN_INtBN_6ClientNtBR_11TokenStreamB2R_E7expand1NvCsivhpxLWnNhi_12tokio_macros25select_priv_clean_patternE00E00EB3o_, symObjAddr: 0x1230, symBinAddr: 0x7778, symSize: 0x24 }
  - { offset: 0x14093, size: 0x8, addend: 0x0, symName: __RINvNtCs9f3LFPSIp77_4core3ptr13drop_in_placeNCNCINvNtNtCsjLJ1XWNSM6u_10proc_macro6bridge6client10run_clientNtBN_11TokenStreamINtNtB4_6option6OptionB1H_ENCNCINvMs7_BN_INtBN_6ClientNtBR_11TokenStreamB2R_E7expand1NvCsivhpxLWnNhi_12tokio_macros31select_priv_declare_output_enumE00E00EB3o_, symObjAddr: 0x1254, symBinAddr: 0x779C, symSize: 0x24 }
  - { offset: 0x140C2, size: 0x8, addend: 0x0, symName: __RINvNtCs9f3LFPSIp77_4core3ptr13drop_in_placeNCNCINvNtNtCsjLJ1XWNSM6u_10proc_macro6bridge6client10run_clientTNtBN_11TokenStreamB1I_EINtNtB4_6option6OptionB1I_ENCNCINvMs8_BN_INtBN_6ClientTNtBR_11TokenStreamB2Y_EB2Y_E7expand2NvCsivhpxLWnNhi_12tokio_macros4mainE00E00EB3A_, symObjAddr: 0x1278, symBinAddr: 0x77C0, symSize: 0x24 }
  - { offset: 0x140F1, size: 0x8, addend: 0x0, symName: __RINvNtCs9f3LFPSIp77_4core3ptr13drop_in_placeNCNCINvNtNtCsjLJ1XWNSM6u_10proc_macro6bridge6client10run_clientTNtBN_11TokenStreamB1I_EINtNtB4_6option6OptionB1I_ENCNCINvMs8_BN_INtBN_6ClientTNtBR_11TokenStreamB2Y_EB2Y_E7expand2NvCsivhpxLWnNhi_12tokio_macros4testE00E00EB3A_, symObjAddr: 0x129C, symBinAddr: 0x77E4, symSize: 0x24 }
  - { offset: 0x14120, size: 0x8, addend: 0x0, symName: __RINvNtCs9f3LFPSIp77_4core3ptr13drop_in_placeNCNCINvNtNtCsjLJ1XWNSM6u_10proc_macro6bridge6client10run_clientTNtBN_11TokenStreamB1I_EINtNtB4_6option6OptionB1I_ENCNCINvMs8_BN_INtBN_6ClientTNtBR_11TokenStreamB2Y_EB2Y_E7expand2NvCsivhpxLWnNhi_12tokio_macros7main_rtE00E00EB3A_, symObjAddr: 0x12C0, symBinAddr: 0x7808, symSize: 0x24 }
  - { offset: 0x1414F, size: 0x8, addend: 0x0, symName: __RINvNtCs9f3LFPSIp77_4core3ptr13drop_in_placeNCNCINvNtNtCsjLJ1XWNSM6u_10proc_macro6bridge6client10run_clientTNtBN_11TokenStreamB1I_EINtNtB4_6option6OptionB1I_ENCNCINvMs8_BN_INtBN_6ClientTNtBR_11TokenStreamB2Y_EB2Y_E7expand2NvCsivhpxLWnNhi_12tokio_macros7test_rtE00E00EB3A_, symObjAddr: 0x12E4, symBinAddr: 0x782C, symSize: 0x24 }
  - { offset: 0x1417E, size: 0x8, addend: 0x0, symName: __RINvNtCs9f3LFPSIp77_4core3ptr13drop_in_placeNCNCINvNtNtCsjLJ1XWNSM6u_10proc_macro6bridge6client10run_clientTNtBN_11TokenStreamB1I_EINtNtB4_6option6OptionB1I_ENCNCINvMs8_BN_INtBN_6ClientTNtBR_11TokenStreamB2Y_EB2Y_E7expand2NvCsivhpxLWnNhi_12tokio_macros9main_failE00E00EB3A_, symObjAddr: 0x1308, symBinAddr: 0x7850, symSize: 0x24 }
  - { offset: 0x141AD, size: 0x8, addend: 0x0, symName: __RINvNtCs9f3LFPSIp77_4core3ptr13drop_in_placeNCNCINvNtNtCsjLJ1XWNSM6u_10proc_macro6bridge6client10run_clientTNtBN_11TokenStreamB1I_EINtNtB4_6option6OptionB1I_ENCNCINvMs8_BN_INtBN_6ClientTNtBR_11TokenStreamB2Y_EB2Y_E7expand2NvCsivhpxLWnNhi_12tokio_macros9test_failE00E00EB3A_, symObjAddr: 0x132C, symBinAddr: 0x7874, symSize: 0x24 }
  - { offset: 0x141DC, size: 0x8, addend: 0x0, symName: __RINvNtCs9f3LFPSIp77_4core3ptr13drop_in_placeNtNtCsivhpxLWnNhi_12tokio_macros5entry11FinalConfigEBK_, symObjAddr: 0x1350, symBinAddr: 0x7898, symSize: 0x24 }
  - { offset: 0x1420B, size: 0x8, addend: 0x0, symName: __RINvNtCs9f3LFPSIp77_4core3ptr13drop_in_placeNtNtCsivhpxLWnNhi_12tokio_macros5entry13ConfigurationEBK_, symObjAddr: 0x1374, symBinAddr: 0x78BC, symSize: 0x24 }
  - { offset: 0x1423A, size: 0x8, addend: 0x0, symName: __RINvNtCs9f3LFPSIp77_4core3ptr13drop_in_placeNtNtCsivhpxLWnNhi_12tokio_macros5entry6ItemFnEBK_, symObjAddr: 0x1398, symBinAddr: 0x78E0, symSize: 0xEC }
  - { offset: 0x14269, size: 0x8, addend: 0x0, symName: __RINvNtCs9f3LFPSIp77_4core3ptr13drop_in_placeNtNtNtCs27l1GJC5rMQ_3std2io5error5ErrorECsivhpxLWnNhi_12tokio_macros, symObjAddr: 0x1484, symBinAddr: 0x79CC, symSize: 0x24 }
  - { offset: 0x14298, size: 0x8, addend: 0x0, symName: __RINvNtCs9f3LFPSIp77_4core3ptr13drop_in_placeNtNtNtCs27l1GJC5rMQ_3std2io5error6CustomECsivhpxLWnNhi_12tokio_macros, symObjAddr: 0x14A8, symBinAddr: 0x79F0, symSize: 0x24 }
  - { offset: 0x142C7, size: 0x8, addend: 0x0, symName: __RINvNtCs9f3LFPSIp77_4core3ptr13drop_in_placeNtNtNtCs27l1GJC5rMQ_3std6thread5local11AccessErrorECsivhpxLWnNhi_12tokio_macros, symObjAddr: 0x14CC, symBinAddr: 0x7A14, symSize: 0x10 }
  - { offset: 0x142F6, size: 0x8, addend: 0x0, symName: __RINvNtCs9f3LFPSIp77_4core3ptr13drop_in_placeNtNtNtCsjLJ1XWNSM6u_10proc_macro6bridge3rpc12PanicMessageECsivhpxLWnNhi_12tokio_macros, symObjAddr: 0x14DC, symBinAddr: 0x7A24, symSize: 0x50 }
  - { offset: 0x14325, size: 0x8, addend: 0x0, symName: __RINvNtCs9f3LFPSIp77_4core3ptr13drop_in_placeNtNtNtCsjLJ1XWNSM6u_10proc_macro6bridge6buffer6BufferECsivhpxLWnNhi_12tokio_macros, symObjAddr: 0x152C, symBinAddr: 0x7A74, symSize: 0x24 }
  - { offset: 0x14354, size: 0x8, addend: 0x0, symName: __RINvNtCs9f3LFPSIp77_4core3ptr13drop_in_placeNtNtNtCsjLJ1XWNSM6u_10proc_macro6bridge6client6BridgeECsivhpxLWnNhi_12tokio_macros, symObjAddr: 0x1550, symBinAddr: 0x7A98, symSize: 0x24 }
  - { offset: 0x14383, size: 0x8, addend: 0x0, symName: __RINvNtCs9f3LFPSIp77_4core3ptr13drop_in_placeNtNtNtNtCs27l1GJC5rMQ_3std2io5error14repr_bitpacked4ReprECsivhpxLWnNhi_12tokio_macros, symObjAddr: 0x1574, symBinAddr: 0x7ABC, symSize: 0x24 }
  - { offset: 0x143B2, size: 0x8, addend: 0x0, symName: __RINvNtCs9f3LFPSIp77_4core3ptr13drop_in_placeNtNvNtNtNtCsjLJ1XWNSM6u_10proc_macro6bridge6client5state3set13RestoreOnDropECsivhpxLWnNhi_12tokio_macros, symObjAddr: 0x1598, symBinAddr: 0x7AE0, symSize: 0x24 }
  - { offset: 0x143E1, size: 0x8, addend: 0x0, symName: __RINvNtCs9f3LFPSIp77_4core3ptr13drop_in_placeSNtCs475r2uZUTuc_11proc_macro211TokenStreamECsivhpxLWnNhi_12tokio_macros, symObjAddr: 0x15BC, symBinAddr: 0x7B04, symSize: 0xB4 }
  - { offset: 0x14410, size: 0x8, addend: 0x0, symName: __RINvNtCs9f3LFPSIp77_4core3ptr13drop_in_placeSNtCs475r2uZUTuc_11proc_macro25IdentECsivhpxLWnNhi_12tokio_macros, symObjAddr: 0x1670, symBinAddr: 0x7BB8, symSize: 0xC4 }
  - { offset: 0x1443F, size: 0x8, addend: 0x0, symName: __RINvNtCs9f3LFPSIp77_4core3ptr13drop_in_placeSNtNtCsATtFUPiRFW_3syn4attr4MetaECsivhpxLWnNhi_12tokio_macros, symObjAddr: 0x1734, symBinAddr: 0x7C7C, symSize: 0xC4 }
  - { offset: 0x1446E, size: 0x8, addend: 0x0, symName: __RINvNtCs9f3LFPSIp77_4core3ptr13drop_in_placeSTNtNtCsATtFUPiRFW_3syn4attr4MetaNtNtBM_5token5CommaEECsivhpxLWnNhi_12tokio_macros, symObjAddr: 0x17F8, symBinAddr: 0x7D40, symSize: 0xC4 }
  - { offset: 0x1449D, size: 0x8, addend: 0x0, symName: __RINvNtCs9f3LFPSIp77_4core3ptr13drop_in_placeTNtNtCsATtFUPiRFW_3syn4attr4MetaNtNtBL_5token5CommaEECsivhpxLWnNhi_12tokio_macros, symObjAddr: 0x18BC, symBinAddr: 0x7E04, symSize: 0x24 }
  - { offset: 0x144CC, size: 0x8, addend: 0x0, symName: __RINvNtCs9f3LFPSIp77_4core3ptr13drop_in_placeTNtNtNtCsjLJ1XWNSM6u_10proc_macro6bridge6client11TokenStreamBH_EECsivhpxLWnNhi_12tokio_macros, symObjAddr: 0x18E0, symBinAddr: 0x7E28, symSize: 0x60 }
  - { offset: 0x147FD, size: 0x8, addend: 0x0, symName: __RNvNvNtCs9f3LFPSIp77_4core3ptr13read_volatile18precondition_checkCsivhpxLWnNhi_12tokio_macros, symObjAddr: 0x27B4, symBinAddr: 0x8CFC, symSize: 0xEC }
  - { offset: 0x17325, size: 0x8, addend: 0x0, symName: __RNvNvMsc_NtNtCs9f3LFPSIp77_4core3num7nonzeroINtB7_7NonZeropE13new_unchecked18precondition_checkCsivhpxLWnNhi_12tokio_macros, symObjAddr: 0x2798, symBinAddr: 0x8CE0, symSize: 0x1C }
  - { offset: 0x17A72, size: 0x8, addend: 0x0, symName: __RINvMNtCs9f3LFPSIp77_4core3stre5parsejECsivhpxLWnNhi_12tokio_macros, symObjAddr: 0x0, symBinAddr: 0x6548, symSize: 0x28 }
  - { offset: 0x17AA9, size: 0x8, addend: 0x0, symName: __RNvMNtCs9f3LFPSIp77_4core3stre8is_emptyCsivhpxLWnNhi_12tokio_macros, symObjAddr: 0x2094, symBinAddr: 0x85DC, symSize: 0x1C }
  - { offset: 0x1871A, size: 0x8, addend: 0x0, symName: __RNCINvMNtNtCs9f3LFPSIp77_4core3ops9try_traitINtB5_17NeverShortCircuituE10wrap_mut_2ujNCINvXs0_NtNtB9_5array4iterINtB1u_8IntoIterNtCs475r2uZUTuc_11proc_macro29TokenTreeKj1_ENtNtNtNtB9_4iter6traits8iterator8Iterator4folduNCINvNvB2K_8for_each4callB22_NCINvXsa_NtB24_8fallbackNtB47_11TokenStreamINtNtB2O_7collect6ExtendB22_E6extendAB22_B2G_E0E0E0E0CsivhpxLWnNhi_12tokio_macros, symObjAddr: 0x1EEC, symBinAddr: 0x8434, symSize: 0x28 }
  - { offset: 0x18801, size: 0x8, addend: 0x0, symName: __RNvYNCNkNvNtNtNtCsjLJ1XWNSM6u_10proc_macro6bridge6client5state12BRIDGE_STATE0s_0INtNtNtCs9f3LFPSIp77_4core3ops8function6FnOnceTINtNtB1n_6option6OptionQIB22_INtNtB1n_4cell4CellPuEEEEE9call_onceCsivhpxLWnNhi_12tokio_macros, symObjAddr: 0x3B30, symBinAddr: 0xA078, symSize: 0x4C }
  - { offset: 0x18845, size: 0x8, addend: 0x0, symName: __RNvYNvMNtCsATtFUPiRFW_3syn10punctuatedINtB5_10PunctuatedNtNtB7_4attr4MetaNtNtB7_5token5CommaE16parse_terminatedINtNtNtCs9f3LFPSIp77_4core3ops8function6FnOnceTRNtNtB7_5parse11ParseBufferEE9call_onceCsivhpxLWnNhi_12tokio_macros, symObjAddr: 0x3CEC, symBinAddr: 0xA234, symSize: 0x24 }
  - { offset: 0x18889, size: 0x8, addend: 0x0, symName: __RNvYNvMNtNtCsATtFUPiRFW_3syn3pat7parsingNtB7_3Pat12parse_singleINtNtNtCs9f3LFPSIp77_4core3ops8function6FnOnceTRNtNtB9_5parse11ParseBufferEE9call_onceCsivhpxLWnNhi_12tokio_macros, symObjAddr: 0x3D10, symBinAddr: 0xA258, symSize: 0x24 }
  - { offset: 0x188CD, size: 0x8, addend: 0x0, symName: __RNvYNvMse_Cs475r2uZUTuc_11proc_macro2NtB8_4Span9call_siteINtNtNtCs9f3LFPSIp77_4core3ops8function6FnOnceuE9call_onceCsivhpxLWnNhi_12tokio_macros, symObjAddr: 0x3D34, symBinAddr: 0xA27C, symSize: 0x1C }
  - { offset: 0x18911, size: 0x8, addend: 0x0, symName: __RNvYNvYINtNtCsdze8u8oDPro_5alloc5boxed3BoxNtNtCsATtFUPiRFW_3syn3pat3PatEINtNtCs9f3LFPSIp77_4core7convert5AsMutBE_E6as_mutINtNtNtB1d_3ops8function6FnOnceTQB5_EE9call_onceCsivhpxLWnNhi_12tokio_macros, symObjAddr: 0x3D50, symBinAddr: 0xA298, symSize: 0x24 }
  - { offset: 0x18955, size: 0x8, addend: 0x0, symName: __RNvYNvYINtNtCsdze8u8oDPro_5alloc5boxed3BoxNtNtCsATtFUPiRFW_3syn3pat8FieldPatEINtNtCs9f3LFPSIp77_4core7convert5AsMutBE_E6as_mutINtNtNtB1i_3ops8function6FnOnceTQB5_EE9call_onceCsivhpxLWnNhi_12tokio_macros, symObjAddr: 0x3D74, symBinAddr: 0xA2BC, symSize: 0x24 }
  - { offset: 0x18999, size: 0x8, addend: 0x0, symName: __RNvYNvYNtNtCsATtFUPiRFW_3syn4path4PathNtNtB9_5parse5Parse5parseINtNtNtCs9f3LFPSIp77_4core3ops8function6FnOnceTRNtBC_11ParseBufferEE9call_onceCsivhpxLWnNhi_12tokio_macros, symObjAddr: 0x3D98, symBinAddr: 0xA2E0, symSize: 0x24 }
  - { offset: 0x189DD, size: 0x8, addend: 0x0, symName: __RNvYNvYNtNtCsATtFUPiRFW_3syn4path4PathNtNtCs62MdaZFMefA_5quote9to_tokens8ToTokens17into_token_streamINtNtNtCs9f3LFPSIp77_4core3ops8function6FnOnceTB5_EE9call_onceCsivhpxLWnNhi_12tokio_macros, symObjAddr: 0x3DBC, symBinAddr: 0xA304, symSize: 0x40 }
  - { offset: 0x18A21, size: 0x8, addend: 0x0, symName: __RNvYNvYNtNtCsivhpxLWnNhi_12tokio_macros5entry6ItemFnNtNtCsATtFUPiRFW_3syn5parse5Parse5parseINtNtNtCs9f3LFPSIp77_4core3ops8function6FnOnceTRNtBQ_11ParseBufferEE9call_onceB9_, symObjAddr: 0x3DFC, symBinAddr: 0xA344, symSize: 0x24 }
  - { offset: 0x18A65, size: 0x8, addend: 0x0, symName: __RNvYNvYNtNtNtCsjLJ1XWNSM6u_10proc_macro6bridge3rpc12PanicMessageINtNtCs9f3LFPSIp77_4core7convert4FromINtNtCsdze8u8oDPro_5alloc5boxed3BoxDNtNtB15_3any3AnyNtNtB15_6marker4SendEL_EE4fromINtNtNtB15_3ops8function6FnOnceTB1B_EE9call_onceCsivhpxLWnNhi_12tokio_macros, symObjAddr: 0x3E20, symBinAddr: 0xA368, symSize: 0x2C }
  - { offset: 0x18AAF, size: 0x8, addend: 0x0, symName: __RNvYNvCsivhpxLWnNhi_12tokio_macros25select_priv_clean_patternINtNtNtCs9f3LFPSIp77_4core3ops8function2FnTNtCsjLJ1XWNSM6u_10proc_macro11TokenStreamEE4callB4_, symObjAddr: 0x3B7C, symBinAddr: 0xA0C4, symSize: 0x28 }
  - { offset: 0x18AF3, size: 0x8, addend: 0x0, symName: __RNvYNvCsivhpxLWnNhi_12tokio_macros31select_priv_declare_output_enumINtNtNtCs9f3LFPSIp77_4core3ops8function2FnTNtCsjLJ1XWNSM6u_10proc_macro11TokenStreamEE4callB4_, symObjAddr: 0x3BA4, symBinAddr: 0xA0EC, symSize: 0x28 }
  - { offset: 0x18B37, size: 0x8, addend: 0x0, symName: __RNvYNvCsivhpxLWnNhi_12tokio_macros4mainINtNtNtCs9f3LFPSIp77_4core3ops8function2FnTNtCsjLJ1XWNSM6u_10proc_macro11TokenStreamB1i_EE4callB4_, symObjAddr: 0x3BCC, symBinAddr: 0xA114, symSize: 0x30 }
  - { offset: 0x18B7B, size: 0x8, addend: 0x0, symName: __RNvYNvCsivhpxLWnNhi_12tokio_macros4testINtNtNtCs9f3LFPSIp77_4core3ops8function2FnTNtCsjLJ1XWNSM6u_10proc_macro11TokenStreamB1i_EE4callB4_, symObjAddr: 0x3BFC, symBinAddr: 0xA144, symSize: 0x30 }
  - { offset: 0x18BBF, size: 0x8, addend: 0x0, symName: __RNvYNvCsivhpxLWnNhi_12tokio_macros7main_rtINtNtNtCs9f3LFPSIp77_4core3ops8function2FnTNtCsjLJ1XWNSM6u_10proc_macro11TokenStreamB1l_EE4callB4_, symObjAddr: 0x3C2C, symBinAddr: 0xA174, symSize: 0x30 }
  - { offset: 0x18C03, size: 0x8, addend: 0x0, symName: __RNvYNvCsivhpxLWnNhi_12tokio_macros7test_rtINtNtNtCs9f3LFPSIp77_4core3ops8function2FnTNtCsjLJ1XWNSM6u_10proc_macro11TokenStreamB1l_EE4callB4_, symObjAddr: 0x3C5C, symBinAddr: 0xA1A4, symSize: 0x30 }
  - { offset: 0x18C47, size: 0x8, addend: 0x0, symName: __RNvYNvCsivhpxLWnNhi_12tokio_macros9main_failINtNtNtCs9f3LFPSIp77_4core3ops8function2FnTNtCsjLJ1XWNSM6u_10proc_macro11TokenStreamB1n_EE4callB4_, symObjAddr: 0x3C8C, symBinAddr: 0xA1D4, symSize: 0x30 }
  - { offset: 0x18C8B, size: 0x8, addend: 0x0, symName: __RNvYNvCsivhpxLWnNhi_12tokio_macros9test_failINtNtNtCs9f3LFPSIp77_4core3ops8function2FnTNtCsjLJ1XWNSM6u_10proc_macro11TokenStreamB1n_EE4callB4_, symObjAddr: 0x3CBC, symBinAddr: 0xA204, symSize: 0x30 }
  - { offset: 0x18EC2, size: 0x8, addend: 0x0, symName: __RINvYINtNtNtCs9f3LFPSIp77_4core3ops5range5RangejENtNtNtNtBa_4iter6traits8iterator8Iterator3mapNtCs475r2uZUTuc_11proc_macro25IdentNCNvNtCsivhpxLWnNhi_12tokio_macros6select19declare_output_enum0EB29_, symObjAddr: 0x1C2C, symBinAddr: 0x8174, symSize: 0x14 }
  - { offset: 0x18F1A, size: 0x8, addend: 0x0, symName: __RINvYINtNtNtCs9f3LFPSIp77_4core3ops5range5RangejENtNtNtNtBa_4iter6traits8iterator8Iterator4folduNCINvNtNtBR_8adapters3map8map_foldjNtCs475r2uZUTuc_11proc_macro25IdentuNCNvNtCsivhpxLWnNhi_12tokio_macros6select19declare_output_enum0NCINvNvBL_8for_each4callB25_NCINvMsi_NtCsdze8u8oDPro_5alloc3vecINtB4h_3VecB25_E14extend_trustedINtB1B_3MapB3_B2F_EE0E0E0EB2L_, symObjAddr: 0x1C40, symBinAddr: 0x8188, symSize: 0xE0 }
  - { offset: 0x18FA9, size: 0x8, addend: 0x0, symName: __RINvYINtNtNtCs9f3LFPSIp77_4core5array4iter8IntoIterARej4_Kj2_ENtNtNtNtBa_4iter6traits8iterator8Iterator3anyNCNvNtCsivhpxLWnNhi_12tokio_macros5entry17is_test_attribute0EB1N_, symObjAddr: 0x1D20, symBinAddr: 0x8268, symSize: 0x44 }
  - { offset: 0x18FF8, size: 0x8, addend: 0x0, symName: __RINvYINtNtNtCs9f3LFPSIp77_4core5array4iter8IntoIterARej4_Kj2_ENtNtNtNtBa_4iter6traits8iterator8Iterator8try_folduNCINvNvBY_3any5checkBN_NCNvNtCsivhpxLWnNhi_12tokio_macros5entry17is_test_attribute0E0INtNtNtBa_3ops12control_flow11ControlFlowuEEB2g_, symObjAddr: 0x1D64, symBinAddr: 0x82AC, symSize: 0x164 }
  - { offset: 0x190B2, size: 0x8, addend: 0x0, symName: __RINvYINtNtNtCs9f3LFPSIp77_4core5array4iter8IntoIterNtCs475r2uZUTuc_11proc_macro29TokenTreeKj1_ENtNtNtNtBa_4iter6traits8iterator8Iterator8for_eachNCINvXsa_NtBP_8fallbackNtB2s_11TokenStreamINtNtB1z_7collect6ExtendBN_E6extendABN_B1r_E0ECsivhpxLWnNhi_12tokio_macros, symObjAddr: 0x1EC8, symBinAddr: 0x8410, symSize: 0x24 }
  - { offset: 0x1912A, size: 0x8, addend: 0x0, symName: __RNvXs3_NtNtCs9f3LFPSIp77_4core4iter5rangeINtNtNtB9_3ops5range5RangejENtB5_17RangeIteratorImpl9spec_nextCsivhpxLWnNhi_12tokio_macros, symObjAddr: 0x32BC, symBinAddr: 0x9804, symSize: 0x94 }
  - { offset: 0x191AB, size: 0x8, addend: 0x0, symName: __RNvXs4_NtNtCs9f3LFPSIp77_4core4iter5rangeINtNtNtB9_3ops5range5RangejENtNtNtB7_6traits8iterator8Iterator4nextCsivhpxLWnNhi_12tokio_macros, symObjAddr: 0x3350, symBinAddr: 0x9898, symSize: 0x24 }
  - { offset: 0x191E2, size: 0x8, addend: 0x0, symName: __RNvXs4_NtNtCs9f3LFPSIp77_4core4iter5rangeINtNtNtB9_3ops5range5RangejENtNtNtB7_6traits8iterator8Iterator9size_hintCsivhpxLWnNhi_12tokio_macros, symObjAddr: 0x3374, symBinAddr: 0x98BC, symSize: 0xD8 }
  - { offset: 0x192BE, size: 0x8, addend: 0x0, symName: __RNCINvXs0_NtNtCs9f3LFPSIp77_4core5array4iterINtB8_8IntoIterNtCs475r2uZUTuc_11proc_macro29TokenTreeKj1_ENtNtNtNtBc_4iter6traits8iterator8Iterator4folduNCINvNvB1D_8for_each4callBV_NCINvXsa_NtBX_8fallbackNtB2Z_11TokenStreamINtNtB1H_7collect6ExtendBV_E6extendABV_B1z_E0E0E0CsivhpxLWnNhi_12tokio_macros, symObjAddr: 0x1FA8, symBinAddr: 0x84F0, symSize: 0xA8 }
  - { offset: 0x19439, size: 0x8, addend: 0x0, symName: __RINvXs0_NtNtCs9f3LFPSIp77_4core5array4iterINtB6_8IntoIterNtCs475r2uZUTuc_11proc_macro29TokenTreeKj1_ENtNtNtNtBa_4iter6traits8iterator8Iterator4folduNCINvNvB1B_8for_each4callBT_NCINvXsa_NtBV_8fallbackNtB2X_11TokenStreamINtNtB1F_7collect6ExtendBT_E6extendABT_B1x_E0E0ECsivhpxLWnNhi_12tokio_macros, symObjAddr: 0x1BA0, symBinAddr: 0x80E8, symSize: 0x8C }
  - { offset: 0x195BB, size: 0x8, addend: 0x0, symName: __RNvXs0_NtNtCs9f3LFPSIp77_4core5array4iterINtB5_8IntoIterARej4_Kj2_ENtNtNtNtB9_4iter6traits8iterator8Iterator4nextCsivhpxLWnNhi_12tokio_macros, symObjAddr: 0x2E20, symBinAddr: 0x9368, symSize: 0xD0 }
  - { offset: 0x19728, size: 0x8, addend: 0x0, symName: __RNvXs0_NtNtCs9f3LFPSIp77_4core5array4iterINtB5_8IntoIterNtCs475r2uZUTuc_11proc_macro29TokenTreeKj1_ENtNtNtNtB9_4iter6traits8iterator8Iterator4nextCsivhpxLWnNhi_12tokio_macros, symObjAddr: 0x2EF0, symBinAddr: 0x9438, symSize: 0xD8 }
  - { offset: 0x19895, size: 0x8, addend: 0x0, symName: __RNvXs0_NtNtCs9f3LFPSIp77_4core5array4iterINtB5_8IntoIterReKj4_ENtNtNtNtB9_4iter6traits8iterator8Iterator4nextCsivhpxLWnNhi_12tokio_macros, symObjAddr: 0x2FC8, symBinAddr: 0x9510, symSize: 0xC0 }
  - { offset: 0x19A08, size: 0x8, addend: 0x0, symName: __RNvXNtNtCs9f3LFPSIp77_4core5array4iterAARej4_j2_NtNtNtNtB6_4iter6traits7collect12IntoIterator9into_iterCsivhpxLWnNhi_12tokio_macros, symObjAddr: 0x2D00, symBinAddr: 0x9248, symSize: 0x64 }
  - { offset: 0x19A70, size: 0x8, addend: 0x0, symName: __RNvXNtNtCs9f3LFPSIp77_4core5array4iterARej4_NtNtNtNtB6_4iter6traits7collect12IntoIterator9into_iterCsivhpxLWnNhi_12tokio_macros, symObjAddr: 0x2D64, symBinAddr: 0x92AC, symSize: 0x64 }
  - { offset: 0x19B26, size: 0x8, addend: 0x0, symName: __RNvXs2_NtNtCs9f3LFPSIp77_4core5array4iterINtB5_8IntoIterARej4_Kj2_ENtNtNtB9_3ops4drop4Drop4dropCsivhpxLWnNhi_12tokio_macros, symObjAddr: 0x3204, symBinAddr: 0x974C, symSize: 0x5C }
  - { offset: 0x19BB9, size: 0x8, addend: 0x0, symName: __RNvXs2_NtNtCs9f3LFPSIp77_4core5array4iterINtB5_8IntoIterReKj4_ENtNtNtB9_3ops4drop4Drop4dropCsivhpxLWnNhi_12tokio_macros, symObjAddr: 0x3260, symBinAddr: 0x97A8, symSize: 0x5C }
  - { offset: 0x1A2BE, size: 0x8, addend: 0x0, symName: __RNvMNtCs9f3LFPSIp77_4core5sliceSTNtNtCsATtFUPiRFW_3syn3pat3PatNtNtBz_5token2OrE8iter_mutCsivhpxLWnNhi_12tokio_macros, symObjAddr: 0x20B0, symBinAddr: 0x85F8, symSize: 0x28 }
  - { offset: 0x1A2F5, size: 0x8, addend: 0x0, symName: __RNvMNtCs9f3LFPSIp77_4core5sliceSTNtNtCsATtFUPiRFW_3syn3pat3PatNtNtBz_5token5CommaE8iter_mutCsivhpxLWnNhi_12tokio_macros, symObjAddr: 0x20D8, symBinAddr: 0x8620, symSize: 0x28 }
  - { offset: 0x1A32C, size: 0x8, addend: 0x0, symName: __RNvMNtCs9f3LFPSIp77_4core5sliceSTNtNtCsATtFUPiRFW_3syn3pat8FieldPatNtNtBz_5token5CommaE8iter_mutCsivhpxLWnNhi_12tokio_macros, symObjAddr: 0x2100, symBinAddr: 0x8648, symSize: 0x28 }
  - { offset: 0x1A3B1, size: 0x8, addend: 0x0, symName: __RNvMNtCs9f3LFPSIp77_4core5sliceSh15copy_from_sliceCsivhpxLWnNhi_12tokio_macros, symObjAddr: 0x2128, symBinAddr: 0x8670, symSize: 0xA4 }
  - { offset: 0x1A5BC, size: 0x8, addend: 0x0, symName: __RNvNvNtNtCs9f3LFPSIp77_4core5slice3raw14from_raw_parts18precondition_checkCsivhpxLWnNhi_12tokio_macros, symObjAddr: 0x2984, symBinAddr: 0x8ECC, symSize: 0x164 }
  - { offset: 0x1A716, size: 0x8, addend: 0x0, symName: __RNvNvNtNtCs9f3LFPSIp77_4core5slice3raw18from_raw_parts_mut18precondition_checkCsivhpxLWnNhi_12tokio_macros, symObjAddr: 0x2AE8, symBinAddr: 0x9030, symSize: 0x164 }
  - { offset: 0x1A9ED, size: 0x8, addend: 0x0, symName: __RNvXsn_NtNtCs9f3LFPSIp77_4core5panic11unwind_safeINtB5_16AssertUnwindSafeNCINvNtNtCsjLJ1XWNSM6u_10proc_macro6bridge6client10run_clientNtB1e_11TokenStreamINtNtB9_6option6OptionB28_ENCNCINvMs7_B1e_INtB1e_6ClientNtB1i_11TokenStreamB3l_E7expand1NvCsivhpxLWnNhi_12tokio_macros25select_priv_clean_patternE00E0EINtNtNtB9_3ops8function6FnOnceuE9call_onceB3T_, symObjAddr: 0x3838, symBinAddr: 0x9D80, symSize: 0x38 }
  - { offset: 0x1AA44, size: 0x8, addend: 0x0, symName: __RNvXsn_NtNtCs9f3LFPSIp77_4core5panic11unwind_safeINtB5_16AssertUnwindSafeNCINvNtNtCsjLJ1XWNSM6u_10proc_macro6bridge6client10run_clientNtB1e_11TokenStreamINtNtB9_6option6OptionB28_ENCNCINvMs7_B1e_INtB1e_6ClientNtB1i_11TokenStreamB3l_E7expand1NvCsivhpxLWnNhi_12tokio_macros31select_priv_declare_output_enumE00E0EINtNtNtB9_3ops8function6FnOnceuE9call_onceB3T_, symObjAddr: 0x3870, symBinAddr: 0x9DB8, symSize: 0x38 }
  - { offset: 0x1AA9B, size: 0x8, addend: 0x0, symName: __RNvXsn_NtNtCs9f3LFPSIp77_4core5panic11unwind_safeINtB5_16AssertUnwindSafeNCINvNtNtCsjLJ1XWNSM6u_10proc_macro6bridge6client10run_clientTNtB1e_11TokenStreamB29_EINtNtB9_6option6OptionB29_ENCNCINvMs8_B1e_INtB1e_6ClientTNtB1i_11TokenStreamB3s_EB3s_E7expand2NvCsivhpxLWnNhi_12tokio_macros4mainE00E0EINtNtNtB9_3ops8function6FnOnceuE9call_onceB45_, symObjAddr: 0x38A8, symBinAddr: 0x9DF0, symSize: 0x38 }
  - { offset: 0x1AAF2, size: 0x8, addend: 0x0, symName: __RNvXsn_NtNtCs9f3LFPSIp77_4core5panic11unwind_safeINtB5_16AssertUnwindSafeNCINvNtNtCsjLJ1XWNSM6u_10proc_macro6bridge6client10run_clientTNtB1e_11TokenStreamB29_EINtNtB9_6option6OptionB29_ENCNCINvMs8_B1e_INtB1e_6ClientTNtB1i_11TokenStreamB3s_EB3s_E7expand2NvCsivhpxLWnNhi_12tokio_macros4testE00E0EINtNtNtB9_3ops8function6FnOnceuE9call_onceB45_, symObjAddr: 0x38E0, symBinAddr: 0x9E28, symSize: 0x38 }
  - { offset: 0x1AB49, size: 0x8, addend: 0x0, symName: __RNvXsn_NtNtCs9f3LFPSIp77_4core5panic11unwind_safeINtB5_16AssertUnwindSafeNCINvNtNtCsjLJ1XWNSM6u_10proc_macro6bridge6client10run_clientTNtB1e_11TokenStreamB29_EINtNtB9_6option6OptionB29_ENCNCINvMs8_B1e_INtB1e_6ClientTNtB1i_11TokenStreamB3s_EB3s_E7expand2NvCsivhpxLWnNhi_12tokio_macros7main_rtE00E0EINtNtNtB9_3ops8function6FnOnceuE9call_onceB45_, symObjAddr: 0x3918, symBinAddr: 0x9E60, symSize: 0x38 }
  - { offset: 0x1ABA0, size: 0x8, addend: 0x0, symName: __RNvXsn_NtNtCs9f3LFPSIp77_4core5panic11unwind_safeINtB5_16AssertUnwindSafeNCINvNtNtCsjLJ1XWNSM6u_10proc_macro6bridge6client10run_clientTNtB1e_11TokenStreamB29_EINtNtB9_6option6OptionB29_ENCNCINvMs8_B1e_INtB1e_6ClientTNtB1i_11TokenStreamB3s_EB3s_E7expand2NvCsivhpxLWnNhi_12tokio_macros7test_rtE00E0EINtNtNtB9_3ops8function6FnOnceuE9call_onceB45_, symObjAddr: 0x3950, symBinAddr: 0x9E98, symSize: 0x38 }
  - { offset: 0x1ABF7, size: 0x8, addend: 0x0, symName: __RNvXsn_NtNtCs9f3LFPSIp77_4core5panic11unwind_safeINtB5_16AssertUnwindSafeNCINvNtNtCsjLJ1XWNSM6u_10proc_macro6bridge6client10run_clientTNtB1e_11TokenStreamB29_EINtNtB9_6option6OptionB29_ENCNCINvMs8_B1e_INtB1e_6ClientTNtB1i_11TokenStreamB3s_EB3s_E7expand2NvCsivhpxLWnNhi_12tokio_macros9main_failE00E0EINtNtNtB9_3ops8function6FnOnceuE9call_onceB45_, symObjAddr: 0x3988, symBinAddr: 0x9ED0, symSize: 0x38 }
  - { offset: 0x1AC4E, size: 0x8, addend: 0x0, symName: __RNvXsn_NtNtCs9f3LFPSIp77_4core5panic11unwind_safeINtB5_16AssertUnwindSafeNCINvNtNtCsjLJ1XWNSM6u_10proc_macro6bridge6client10run_clientTNtB1e_11TokenStreamB29_EINtNtB9_6option6OptionB29_ENCNCINvMs8_B1e_INtB1e_6ClientTNtB1i_11TokenStreamB3s_EB3s_E7expand2NvCsivhpxLWnNhi_12tokio_macros9test_failE00E0EINtNtNtB9_3ops8function6FnOnceuE9call_onceB45_, symObjAddr: 0x39C0, symBinAddr: 0x9F08, symSize: 0x38 }
  - { offset: 0x1AE67, size: 0x8, addend: 0x0, symName: __RNvNvMNtNtCs9f3LFPSIp77_4core5alloc6layoutNtB4_6Layout25from_size_align_unchecked18precondition_checkCsivhpxLWnNhi_12tokio_macros, symObjAddr: 0x2708, symBinAddr: 0x8C50, symSize: 0x50 }
  - { offset: 0x1AEDA, size: 0x8, addend: 0x0, symName: __RNvNvNtCs9f3LFPSIp77_4core9ub_checks17is_nonoverlapping7runtimeCsivhpxLWnNhi_12tokio_macros, symObjAddr: 0x28A0, symBinAddr: 0x8DE8, symSize: 0xE4 }
  - { offset: 0x1B229, size: 0x8, addend: 0x0, symName: ___rustc_proc_macro_decls_d788a0b3cb08f8be__, symObjAddr: 0x6F70, symBinAddr: 0x3A8570, symSize: 0x0 }
  - { offset: 0x1B3FA, size: 0x8, addend: 0x0, symName: __RNvNtCsivhpxLWnNhi_12tokio_macros6select19declare_output_enum, symObjAddr: 0x40EC, symBinAddr: 0xA634, symSize: 0x99C }
  - { offset: 0x1B676, size: 0x8, addend: 0x0, symName: __RNCNvNtCsivhpxLWnNhi_12tokio_macros6select19declare_output_enum0B5_, symObjAddr: 0x4A88, symBinAddr: 0xAFD0, symSize: 0x11C }
  - { offset: 0x1B732, size: 0x8, addend: 0x0, symName: __RNvNtCsivhpxLWnNhi_12tokio_macros6select19clean_pattern_macro, symObjAddr: 0x4BA4, symBinAddr: 0xB0EC, symSize: 0x204 }
  - { offset: 0x1B791, size: 0x8, addend: 0x0, symName: __RNvNtCsivhpxLWnNhi_12tokio_macros6select13clean_pattern, symObjAddr: 0x4DA8, symBinAddr: 0xB2F0, symSize: 0x688 }
  - { offset: 0x1B979, size: 0x8, addend: 0x0, symName: __RNvCsivhpxLWnNhi_12tokio_macros4main, symObjAddr: 0x5430, symBinAddr: 0xB978, symSize: 0x114 }
  - { offset: 0x1B9B3, size: 0x8, addend: 0x0, symName: __RNvCsivhpxLWnNhi_12tokio_macros7main_rt, symObjAddr: 0x5544, symBinAddr: 0xBA8C, symSize: 0x114 }
  - { offset: 0x1B9F0, size: 0x8, addend: 0x0, symName: __RNvCsivhpxLWnNhi_12tokio_macros4test, symObjAddr: 0x5658, symBinAddr: 0xBBA0, symSize: 0x114 }
  - { offset: 0x1BA2D, size: 0x8, addend: 0x0, symName: __RNvCsivhpxLWnNhi_12tokio_macros7test_rt, symObjAddr: 0x576C, symBinAddr: 0xBCB4, symSize: 0x114 }
  - { offset: 0x1BA6A, size: 0x8, addend: 0x0, symName: __RNvCsivhpxLWnNhi_12tokio_macros9main_fail, symObjAddr: 0x5880, symBinAddr: 0xBDC8, symSize: 0x108 }
  - { offset: 0x1BAA7, size: 0x8, addend: 0x0, symName: __RNvCsivhpxLWnNhi_12tokio_macros9test_fail, symObjAddr: 0x5988, symBinAddr: 0xBED0, symSize: 0x108 }
  - { offset: 0x1BAE4, size: 0x8, addend: 0x0, symName: __RNvCsivhpxLWnNhi_12tokio_macros31select_priv_declare_output_enum, symObjAddr: 0x5A90, symBinAddr: 0xBFD8, symSize: 0x30 }
  - { offset: 0x1BB12, size: 0x8, addend: 0x0, symName: __RNvCsivhpxLWnNhi_12tokio_macros25select_priv_clean_pattern, symObjAddr: 0x5AC0, symBinAddr: 0xC008, symSize: 0x30 }
  - { offset: 0x1C4F8, size: 0x8, addend: 0x0, symName: __RINvNvNtNtCsjLJ1XWNSM6u_10proc_macro6bridge14selfless_reify31reify_to_extern_c_fn_hrt_bridge7wrapperNtNtB6_6buffer6BufferNCINvMs7_NtB6_6clientINtB24_6ClientNtB8_11TokenStreamB2u_E7expand1NvCsivhpxLWnNhi_12tokio_macros25select_priv_clean_patternE0EB31_, symObjAddr: 0x1940, symBinAddr: 0x7E88, symSize: 0x4C }
  - { offset: 0x1C553, size: 0x8, addend: 0x0, symName: __RINvNvNtNtCsjLJ1XWNSM6u_10proc_macro6bridge14selfless_reify31reify_to_extern_c_fn_hrt_bridge7wrapperNtNtB6_6buffer6BufferNCINvMs7_NtB6_6clientINtB24_6ClientNtB8_11TokenStreamB2u_E7expand1NvCsivhpxLWnNhi_12tokio_macros31select_priv_declare_output_enumE0EB31_, symObjAddr: 0x198C, symBinAddr: 0x7ED4, symSize: 0x4C }
  - { offset: 0x1C5AE, size: 0x8, addend: 0x0, symName: __RINvNvNtNtCsjLJ1XWNSM6u_10proc_macro6bridge14selfless_reify31reify_to_extern_c_fn_hrt_bridge7wrapperNtNtB6_6buffer6BufferNCINvMs8_NtB6_6clientINtB24_6ClientTNtB8_11TokenStreamB2v_EB2v_E7expand2NvCsivhpxLWnNhi_12tokio_macros4mainE0EB37_, symObjAddr: 0x19D8, symBinAddr: 0x7F20, symSize: 0x4C }
  - { offset: 0x1C609, size: 0x8, addend: 0x0, symName: __RINvNvNtNtCsjLJ1XWNSM6u_10proc_macro6bridge14selfless_reify31reify_to_extern_c_fn_hrt_bridge7wrapperNtNtB6_6buffer6BufferNCINvMs8_NtB6_6clientINtB24_6ClientTNtB8_11TokenStreamB2v_EB2v_E7expand2NvCsivhpxLWnNhi_12tokio_macros4testE0EB37_, symObjAddr: 0x1A24, symBinAddr: 0x7F6C, symSize: 0x4C }
  - { offset: 0x1C664, size: 0x8, addend: 0x0, symName: __RINvNvNtNtCsjLJ1XWNSM6u_10proc_macro6bridge14selfless_reify31reify_to_extern_c_fn_hrt_bridge7wrapperNtNtB6_6buffer6BufferNCINvMs8_NtB6_6clientINtB24_6ClientTNtB8_11TokenStreamB2v_EB2v_E7expand2NvCsivhpxLWnNhi_12tokio_macros7main_rtE0EB37_, symObjAddr: 0x1A70, symBinAddr: 0x7FB8, symSize: 0x4C }
  - { offset: 0x1C6BF, size: 0x8, addend: 0x0, symName: __RINvNvNtNtCsjLJ1XWNSM6u_10proc_macro6bridge14selfless_reify31reify_to_extern_c_fn_hrt_bridge7wrapperNtNtB6_6buffer6BufferNCINvMs8_NtB6_6clientINtB24_6ClientTNtB8_11TokenStreamB2v_EB2v_E7expand2NvCsivhpxLWnNhi_12tokio_macros7test_rtE0EB37_, symObjAddr: 0x1ABC, symBinAddr: 0x8004, symSize: 0x4C }
  - { offset: 0x1C71A, size: 0x8, addend: 0x0, symName: __RINvNvNtNtCsjLJ1XWNSM6u_10proc_macro6bridge14selfless_reify31reify_to_extern_c_fn_hrt_bridge7wrapperNtNtB6_6buffer6BufferNCINvMs8_NtB6_6clientINtB24_6ClientTNtB8_11TokenStreamB2v_EB2v_E7expand2NvCsivhpxLWnNhi_12tokio_macros9main_failE0EB37_, symObjAddr: 0x1B08, symBinAddr: 0x8050, symSize: 0x4C }
  - { offset: 0x1C775, size: 0x8, addend: 0x0, symName: __RINvNvNtNtCsjLJ1XWNSM6u_10proc_macro6bridge14selfless_reify31reify_to_extern_c_fn_hrt_bridge7wrapperNtNtB6_6buffer6BufferNCINvMs8_NtB6_6clientINtB24_6ClientTNtB8_11TokenStreamB2v_EB2v_E7expand2NvCsivhpxLWnNhi_12tokio_macros9test_failE0EB37_, symObjAddr: 0x1B54, symBinAddr: 0x809C, symSize: 0x4C }
  - { offset: 0x1C7DC, size: 0x8, addend: 0x0, symName: __RNvXNtNtCsjLJ1XWNSM6u_10proc_macro6bridge3rpcuINtB2_6EncodeuE6encodeCsivhpxLWnNhi_12tokio_macros, symObjAddr: 0x2DC8, symBinAddr: 0x9310, symSize: 0x14 }
  - { offset: 0x1C831, size: 0x8, addend: 0x0, symName: __RNvXs7_NtNtCsjLJ1XWNSM6u_10proc_macro6bridge3rpcINtNtNtCs9f3LFPSIp77_4core3num7nonzero7NonZeromEINtB5_9DecodeMutuE6decodeCsivhpxLWnNhi_12tokio_macros, symObjAddr: 0x344C, symBinAddr: 0x9994, symSize: 0x5C }
  - { offset: 0x1C8E6, size: 0x8, addend: 0x0, symName: __RNvXsa_NtNtCsjLJ1XWNSM6u_10proc_macro6bridge3rpcRShINtB5_6EncodeuE6encodeCsivhpxLWnNhi_12tokio_macros, symObjAddr: 0x3558, symBinAddr: 0x9AA0, symSize: 0xD0 }
  - { offset: 0x1C9F1, size: 0x8, addend: 0x0, symName: __RNvXsc_NtNtCsjLJ1XWNSM6u_10proc_macro6bridge3rpcReINtB5_6EncodeuE6encodeCsivhpxLWnNhi_12tokio_macros, symObjAddr: 0x3628, symBinAddr: 0x9B70, symSize: 0x38 }
  - { offset: 0x1CAD9, size: 0x8, addend: 0x0, symName: __RNvXsl_NtNtCsjLJ1XWNSM6u_10proc_macro6bridge3rpcNtB5_12PanicMessageINtB5_6EncodeuE6encodeCsivhpxLWnNhi_12tokio_macros, symObjAddr: 0x36F8, symBinAddr: 0x9C40, symSize: 0x140 }
  - { offset: 0x1CD21, size: 0x8, addend: 0x0, symName: __RNvXso_NtNtCsjLJ1XWNSM6u_10proc_macro6bridge3rpcmINtB5_9DecodeMutuE6decodeCsivhpxLWnNhi_12tokio_macros, symObjAddr: 0x39F8, symBinAddr: 0x9F40, symSize: 0x114 }
  - { offset: 0x1D941, size: 0x8, addend: 0x0, symName: __RNvXs1B_NtCsdze8u8oDPro_5alloc6stringReNtB6_8ToString9to_stringCsivhpxLWnNhi_12tokio_macros, symObjAddr: 0x3088, symBinAddr: 0x95D0, symSize: 0x5C }
  - { offset: 0x1DA72, size: 0x8, addend: 0x0, symName: __RNvXs1C_NtCsdze8u8oDPro_5alloc6stringeNtB6_8ToString9to_stringCsivhpxLWnNhi_12tokio_macros, symObjAddr: 0x30E4, symBinAddr: 0x962C, symSize: 0x50 }
  - { offset: 0x1DBA3, size: 0x8, addend: 0x0, symName: __RNvXsB_NtCsdze8u8oDPro_5alloc6stringNtB5_6StringNtB5_8ToString9to_stringCsivhpxLWnNhi_12tokio_macros, symObjAddr: 0x34A8, symBinAddr: 0x99F0, symSize: 0x24 }
  - { offset: 0x1DC31, size: 0x8, addend: 0x0, symName: __RNvXsq_NtCsdze8u8oDPro_5alloc6stringNtB5_6StringNtNtNtCs9f3LFPSIp77_4core3ops5deref5Deref5derefCsivhpxLWnNhi_12tokio_macros, symObjAddr: 0x3B0C, symBinAddr: 0xA054, symSize: 0x24 }
  - { offset: 0x1DC65, size: 0x8, addend: 0x0, symName: __RNvXsj_NtCsdze8u8oDPro_5alloc6stringNtB5_6StringNtNtCs9f3LFPSIp77_4core3fmt7Display3fmtCsivhpxLWnNhi_12tokio_macros, symObjAddr: 0x3660, symBinAddr: 0x9BA8, symSize: 0x98 }
  - { offset: 0x1E709, size: 0x8, addend: 0x0, symName: __RNvNtCsdze8u8oDPro_5alloc5alloc12alloc_zeroedCsivhpxLWnNhi_12tokio_macros, symObjAddr: 0x2520, symBinAddr: 0x8A68, symSize: 0x80 }
  - { offset: 0x1E7D6, size: 0x8, addend: 0x0, symName: __RNvXs_NtCsdze8u8oDPro_5alloc5allocNtB4_6GlobalNtNtCs9f3LFPSIp77_4core5alloc9Allocator10deallocateCsivhpxLWnNhi_12tokio_macros, symObjAddr: 0x34CC, symBinAddr: 0x9A14, symSize: 0x8C }
  - { offset: 0x1E8BB, size: 0x8, addend: 0x0, symName: __RNvNtCsdze8u8oDPro_5alloc5alloc15exchange_mallocCsivhpxLWnNhi_12tokio_macros, symObjAddr: 0x25A0, symBinAddr: 0x8AE8, symSize: 0xA8 }
  - { offset: 0x1E9CA, size: 0x8, addend: 0x0, symName: __RNvNtCsdze8u8oDPro_5alloc5alloc5allocCsivhpxLWnNhi_12tokio_macros, symObjAddr: 0x2648, symBinAddr: 0x8B90, symSize: 0x80 }
  - { offset: 0x1F1F0, size: 0x8, addend: 0x0, symName: __RNvXs2_NtCsdze8u8oDPro_5alloc7raw_vecINtB5_6RawVecNtCs475r2uZUTuc_11proc_macro211TokenStreamENtNtNtCs9f3LFPSIp77_4core3ops4drop4Drop4dropCsivhpxLWnNhi_12tokio_macros, symObjAddr: 0x3134, symBinAddr: 0x967C, symSize: 0x34 }
  - { offset: 0x1F22C, size: 0x8, addend: 0x0, symName: __RNvXs2_NtCsdze8u8oDPro_5alloc7raw_vecINtB5_6RawVecNtCs475r2uZUTuc_11proc_macro25IdentENtNtNtCs9f3LFPSIp77_4core3ops4drop4Drop4dropCsivhpxLWnNhi_12tokio_macros, symObjAddr: 0x3168, symBinAddr: 0x96B0, symSize: 0x34 }
  - { offset: 0x1F268, size: 0x8, addend: 0x0, symName: __RNvXs2_NtCsdze8u8oDPro_5alloc7raw_vecINtB5_6RawVecNtNtCsATtFUPiRFW_3syn4attr4MetaENtNtNtCs9f3LFPSIp77_4core3ops4drop4Drop4dropCsivhpxLWnNhi_12tokio_macros, symObjAddr: 0x319C, symBinAddr: 0x96E4, symSize: 0x34 }
  - { offset: 0x1F2A4, size: 0x8, addend: 0x0, symName: __RNvXs2_NtCsdze8u8oDPro_5alloc7raw_vecINtB5_6RawVecTNtNtCsATtFUPiRFW_3syn4attr4MetaNtNtBR_5token5CommaEENtNtNtCs9f3LFPSIp77_4core3ops4drop4Drop4dropCsivhpxLWnNhi_12tokio_macros, symObjAddr: 0x31D0, symBinAddr: 0x9718, symSize: 0x34 }
  - { offset: 0x1FA6E, size: 0x8, addend: 0x0, symName: __RNCINvMs3_NtCsATtFUPiRFW_3syn3litNtB8_6LitInt12base10_parsejE0CsivhpxLWnNhi_12tokio_macros, symObjAddr: 0x1F14, symBinAddr: 0x845C, symSize: 0x94 }
  - { offset: 0x24819, size: 0x8, addend: 0x0, symName: __RNvXNtCsATtFUPiRFW_3syn7spannedNtNtB4_3lit3LitNtB2_7Spanned4spanCsivhpxLWnNhi_12tokio_macros, symObjAddr: 0x2CCC, symBinAddr: 0x9214, symSize: 0x34 }
  - { offset: 0x24E0B, size: 0x8, addend: 0x0, symName: __RINvMNtCsATtFUPiRFW_3syn3litNtB3_6LitStr10parse_withNvYNtNtB5_4path4PathNtNtB5_5parse5Parse5parseECsivhpxLWnNhi_12tokio_macros, symObjAddr: 0x28, symBinAddr: 0x6570, symSize: 0x45C }
  - { offset: 0x24F87, size: 0x8, addend: 0x0, symName: __RINvMNtCsATtFUPiRFW_3syn3litNtB3_6LitStr5parseNtNtB5_4path4PathECsivhpxLWnNhi_12tokio_macros, symObjAddr: 0x484, symBinAddr: 0x69CC, symSize: 0x34 }
  - { offset: 0x2503E, size: 0x8, addend: 0x0, symName: __RINvMs2_NtNtCs27l1GJC5rMQ_3std6thread5localINtB6_8LocalKeyINtNtCs9f3LFPSIp77_4core4cell4CellPuEE8try_withNCNvMs3_B6_BF_7replace0B1s_ECsivhpxLWnNhi_12tokio_macros, symObjAddr: 0x4B8, symBinAddr: 0x6A00, symSize: 0xE8 }
  - { offset: 0x2519E, size: 0x8, addend: 0x0, symName: __RINvMs3_NtCsATtFUPiRFW_3syn3litNtB6_6LitInt12base10_parsejECsivhpxLWnNhi_12tokio_macros, symObjAddr: 0x5A0, symBinAddr: 0x6AE8, symSize: 0x58 }
  - { offset: 0x251F1, size: 0x8, addend: 0x0, symName: __RINvMsiX_NtCsATtFUPiRFW_3syn5tokenNtB7_5Brace8surroundNCNvMs1_NtCsivhpxLWnNhi_12tokio_macros5entryNtBY_6ItemFn11into_tokens0EB10_, symObjAddr: 0x5F8, symBinAddr: 0x6B40, symSize: 0x120 }
  - { offset: 0x25285, size: 0x8, addend: 0x0, symName: __RINvMsiX_NtCsATtFUPiRFW_3syn5tokenNtB7_5Brace8surroundNCNvXs3_NtCsivhpxLWnNhi_12tokio_macros5entryNtBY_4BodyNtNtCs62MdaZFMefA_5quote9to_tokens8ToTokens9to_tokens0EB10_, symObjAddr: 0x718, symBinAddr: 0x6C60, symSize: 0x114 }
  - { offset: 0x255E0, size: 0x8, addend: 0x0, symName: __RNvMNtCsdze8u8oDPro_5alloc5allocNtB2_6Global10alloc_implCsivhpxLWnNhi_12tokio_macros, symObjAddr: 0x21CC, symBinAddr: 0x8714, symSize: 0x1BC }
  - { offset: 0x25AD8, size: 0x8, addend: 0x0, symName: __RNvMNtCsdze8u8oDPro_5alloc6stringNtB2_6String6as_strCsivhpxLWnNhi_12tokio_macros, symObjAddr: 0x2388, symBinAddr: 0x88D0, symSize: 0x88 }
  - { offset: 0x25CAD, size: 0x8, addend: 0x0, symName: __RNvMs1_NtCsdze8u8oDPro_5alloc7raw_vecINtB5_6RawVecNtCs475r2uZUTuc_11proc_macro211TokenStreamE8grow_oneCsivhpxLWnNhi_12tokio_macros, symObjAddr: 0x2410, symBinAddr: 0x8958, symSize: 0x88 }
  - { offset: 0x25D79, size: 0x8, addend: 0x0, symName: __RNvMs1_NtCsdze8u8oDPro_5alloc7raw_vecINtB5_6RawVecTNtNtCsATtFUPiRFW_3syn4attr4MetaNtNtBR_5token5CommaEE8grow_oneCsivhpxLWnNhi_12tokio_macros, symObjAddr: 0x2498, symBinAddr: 0x89E0, symSize: 0x88 }
  - { offset: 0x25F99, size: 0x8, addend: 0x0, symName: __RNvXNtCs62MdaZFMefA_5quote9to_tokensRNtNtCsATtFUPiRFW_3syn3lit3LitNtB2_8ToTokens9to_tokensCsivhpxLWnNhi_12tokio_macros, symObjAddr: 0x2C4C, symBinAddr: 0x9194, symSize: 0x40 }
  - { offset: 0x25FD8, size: 0x8, addend: 0x0, symName: __RNvXNtCs62MdaZFMefA_5quote9to_tokensRNtNtCsATtFUPiRFW_3syn4attr13MetaNameValueNtB2_8ToTokens9to_tokensCsivhpxLWnNhi_12tokio_macros, symObjAddr: 0x2C8C, symBinAddr: 0x91D4, symSize: 0x40 }
  - { offset: 0x2601D, size: 0x8, addend: 0x0, symName: __RNvYRNtNtCsATtFUPiRFW_3syn3lit3LitNtNtCs62MdaZFMefA_5quote9to_tokens8ToTokens15to_token_streamCsivhpxLWnNhi_12tokio_macros, symObjAddr: 0x3E4C, symBinAddr: 0xA394, symSize: 0x8C }
  - { offset: 0x26067, size: 0x8, addend: 0x0, symName: __RNvYRNtNtCsATtFUPiRFW_3syn3lit3LitNtNtCs62MdaZFMefA_5quote9to_tokens8ToTokens17into_token_streamCsivhpxLWnNhi_12tokio_macros, symObjAddr: 0x3ED8, symBinAddr: 0xA420, symSize: 0x54 }
  - { offset: 0x2609C, size: 0x8, addend: 0x0, symName: __RNvYRNtNtCsATtFUPiRFW_3syn4attr13MetaNameValueNtNtCs62MdaZFMefA_5quote9to_tokens8ToTokens15to_token_streamCsivhpxLWnNhi_12tokio_macros, symObjAddr: 0x3F2C, symBinAddr: 0xA474, symSize: 0x8C }
  - { offset: 0x260E6, size: 0x8, addend: 0x0, symName: __RNvYRNtNtCsATtFUPiRFW_3syn4attr13MetaNameValueNtNtCs62MdaZFMefA_5quote9to_tokens8ToTokens17into_token_streamCsivhpxLWnNhi_12tokio_macros, symObjAddr: 0x3FB8, symBinAddr: 0xA500, symSize: 0x54 }
  - { offset: 0x2611B, size: 0x8, addend: 0x0, symName: __RNvYRNtNtCsATtFUPiRFW_3syn4attr9AttributeNtNtCs62MdaZFMefA_5quote9to_tokens8ToTokens15to_token_streamCsivhpxLWnNhi_12tokio_macros, symObjAddr: 0x400C, symBinAddr: 0xA554, symSize: 0x8C }
  - { offset: 0x26165, size: 0x8, addend: 0x0, symName: __RNvYRNtNtCsATtFUPiRFW_3syn4attr9AttributeNtNtCs62MdaZFMefA_5quote9to_tokens8ToTokens17into_token_streamCsivhpxLWnNhi_12tokio_macros, symObjAddr: 0x4098, symBinAddr: 0xA5E0, symSize: 0x54 }
  - { offset: 0x261A6, size: 0x8, addend: 0x0, symName: __RNvXs0_NtCs62MdaZFMefA_5quote7spannedNtNtCsATtFUPiRFW_3syn3lit3LitNtB5_7Spanned6___spanCsivhpxLWnNhi_12tokio_macros, symObjAddr: 0x2DDC, symBinAddr: 0x9324, symSize: 0x44 }
  - { offset: 0x27491, size: 0x8, addend: 0x0, symName: __RINvCsATtFUPiRFW_3syn6parse2NtNtCsivhpxLWnNhi_12tokio_macros5entry6ItemFnEBu_, symObjAddr: 0x0, symBinAddr: 0xC038, symSize: 0x24 }
  - { offset: 0x276BD, size: 0x8, addend: 0x0, symName: __RINvNvNtCs27l1GJC5rMQ_3std9panicking3try7do_callINtNtNtCs9f3LFPSIp77_4core5panic11unwind_safe16AssertUnwindSafeNCINvNtNtCsjLJ1XWNSM6u_10proc_macro6bridge6client10run_clientNtB1Q_11TokenStreamINtNtBR_6option6OptionB2K_ENCNCINvMs7_B1Q_INtB1Q_6ClientNtB1U_11TokenStreamB3X_E7expand1NvCsivhpxLWnNhi_12tokio_macros25select_priv_clean_patternE00E0EuEB4v_, symObjAddr: 0x19F8, symBinAddr: 0xDA30, symSize: 0x58 }
  - { offset: 0x2778E, size: 0x8, addend: 0x0, symName: __RINvNvNtCs27l1GJC5rMQ_3std9panicking3try7do_callINtNtNtCs9f3LFPSIp77_4core5panic11unwind_safe16AssertUnwindSafeNCINvNtNtCsjLJ1XWNSM6u_10proc_macro6bridge6client10run_clientNtB1Q_11TokenStreamINtNtBR_6option6OptionB2K_ENCNCINvMs7_B1Q_INtB1Q_6ClientNtB1U_11TokenStreamB3X_E7expand1NvCsivhpxLWnNhi_12tokio_macros31select_priv_declare_output_enumE00E0EuEB4v_, symObjAddr: 0x1A50, symBinAddr: 0xDA88, symSize: 0x58 }
  - { offset: 0x2785F, size: 0x8, addend: 0x0, symName: __RINvNvNtCs27l1GJC5rMQ_3std9panicking3try7do_callINtNtNtCs9f3LFPSIp77_4core5panic11unwind_safe16AssertUnwindSafeNCINvNtNtCsjLJ1XWNSM6u_10proc_macro6bridge6client10run_clientTNtB1Q_11TokenStreamB2L_EINtNtBR_6option6OptionB2L_ENCNCINvMs8_B1Q_INtB1Q_6ClientTNtB1U_11TokenStreamB44_EB44_E7expand2NvCsivhpxLWnNhi_12tokio_macros4mainE00E0EuEB4H_, symObjAddr: 0x1AA8, symBinAddr: 0xDAE0, symSize: 0x58 }
  - { offset: 0x27930, size: 0x8, addend: 0x0, symName: __RINvNvNtCs27l1GJC5rMQ_3std9panicking3try7do_callINtNtNtCs9f3LFPSIp77_4core5panic11unwind_safe16AssertUnwindSafeNCINvNtNtCsjLJ1XWNSM6u_10proc_macro6bridge6client10run_clientTNtB1Q_11TokenStreamB2L_EINtNtBR_6option6OptionB2L_ENCNCINvMs8_B1Q_INtB1Q_6ClientTNtB1U_11TokenStreamB44_EB44_E7expand2NvCsivhpxLWnNhi_12tokio_macros4testE00E0EuEB4H_, symObjAddr: 0x1B00, symBinAddr: 0xDB38, symSize: 0x58 }
  - { offset: 0x27A01, size: 0x8, addend: 0x0, symName: __RINvNvNtCs27l1GJC5rMQ_3std9panicking3try7do_callINtNtNtCs9f3LFPSIp77_4core5panic11unwind_safe16AssertUnwindSafeNCINvNtNtCsjLJ1XWNSM6u_10proc_macro6bridge6client10run_clientTNtB1Q_11TokenStreamB2L_EINtNtBR_6option6OptionB2L_ENCNCINvMs8_B1Q_INtB1Q_6ClientTNtB1U_11TokenStreamB44_EB44_E7expand2NvCsivhpxLWnNhi_12tokio_macros7main_rtE00E0EuEB4H_, symObjAddr: 0x1B58, symBinAddr: 0xDB90, symSize: 0x58 }
  - { offset: 0x27AD2, size: 0x8, addend: 0x0, symName: __RINvNvNtCs27l1GJC5rMQ_3std9panicking3try7do_callINtNtNtCs9f3LFPSIp77_4core5panic11unwind_safe16AssertUnwindSafeNCINvNtNtCsjLJ1XWNSM6u_10proc_macro6bridge6client10run_clientTNtB1Q_11TokenStreamB2L_EINtNtBR_6option6OptionB2L_ENCNCINvMs8_B1Q_INtB1Q_6ClientTNtB1U_11TokenStreamB44_EB44_E7expand2NvCsivhpxLWnNhi_12tokio_macros7test_rtE00E0EuEB4H_, symObjAddr: 0x1BB0, symBinAddr: 0xDBE8, symSize: 0x58 }
  - { offset: 0x27BA3, size: 0x8, addend: 0x0, symName: __RINvNvNtCs27l1GJC5rMQ_3std9panicking3try7do_callINtNtNtCs9f3LFPSIp77_4core5panic11unwind_safe16AssertUnwindSafeNCINvNtNtCsjLJ1XWNSM6u_10proc_macro6bridge6client10run_clientTNtB1Q_11TokenStreamB2L_EINtNtBR_6option6OptionB2L_ENCNCINvMs8_B1Q_INtB1Q_6ClientTNtB1U_11TokenStreamB44_EB44_E7expand2NvCsivhpxLWnNhi_12tokio_macros9main_failE00E0EuEB4H_, symObjAddr: 0x1C08, symBinAddr: 0xDC40, symSize: 0x58 }
  - { offset: 0x27C74, size: 0x8, addend: 0x0, symName: __RINvNvNtCs27l1GJC5rMQ_3std9panicking3try7do_callINtNtNtCs9f3LFPSIp77_4core5panic11unwind_safe16AssertUnwindSafeNCINvNtNtCsjLJ1XWNSM6u_10proc_macro6bridge6client10run_clientTNtB1Q_11TokenStreamB2L_EINtNtBR_6option6OptionB2L_ENCNCINvMs8_B1Q_INtB1Q_6ClientTNtB1U_11TokenStreamB44_EB44_E7expand2NvCsivhpxLWnNhi_12tokio_macros9test_failE00E0EuEB4H_, symObjAddr: 0x1C60, symBinAddr: 0xDC98, symSize: 0x58 }
  - { offset: 0x27D45, size: 0x8, addend: 0x0, symName: __RINvNvNtCs27l1GJC5rMQ_3std9panicking3try8do_catchINtNtNtCs9f3LFPSIp77_4core5panic11unwind_safe16AssertUnwindSafeNCINvNtNtCsjLJ1XWNSM6u_10proc_macro6bridge6client10run_clientNtB1R_11TokenStreamINtNtBS_6option6OptionB2L_ENCNCINvMs7_B1R_INtB1R_6ClientNtB1V_11TokenStreamB3Y_E7expand1NvCsivhpxLWnNhi_12tokio_macros25select_priv_clean_patternE00E0EuEB4w_, symObjAddr: 0x1CB8, symBinAddr: 0xDCF0, symSize: 0x70 }
  - { offset: 0x27DDA, size: 0x8, addend: 0x0, symName: __RINvNvNtCs27l1GJC5rMQ_3std9panicking3try8do_catchINtNtNtCs9f3LFPSIp77_4core5panic11unwind_safe16AssertUnwindSafeNCINvNtNtCsjLJ1XWNSM6u_10proc_macro6bridge6client10run_clientNtB1R_11TokenStreamINtNtBS_6option6OptionB2L_ENCNCINvMs7_B1R_INtB1R_6ClientNtB1V_11TokenStreamB3Y_E7expand1NvCsivhpxLWnNhi_12tokio_macros31select_priv_declare_output_enumE00E0EuEB4w_, symObjAddr: 0x1D28, symBinAddr: 0xDD60, symSize: 0x70 }
  - { offset: 0x27E6F, size: 0x8, addend: 0x0, symName: __RINvNvNtCs27l1GJC5rMQ_3std9panicking3try8do_catchINtNtNtCs9f3LFPSIp77_4core5panic11unwind_safe16AssertUnwindSafeNCINvNtNtCsjLJ1XWNSM6u_10proc_macro6bridge6client10run_clientTNtB1R_11TokenStreamB2M_EINtNtBS_6option6OptionB2M_ENCNCINvMs8_B1R_INtB1R_6ClientTNtB1V_11TokenStreamB45_EB45_E7expand2NvCsivhpxLWnNhi_12tokio_macros4mainE00E0EuEB4I_, symObjAddr: 0x1D98, symBinAddr: 0xDDD0, symSize: 0x70 }
  - { offset: 0x27F04, size: 0x8, addend: 0x0, symName: __RINvNvNtCs27l1GJC5rMQ_3std9panicking3try8do_catchINtNtNtCs9f3LFPSIp77_4core5panic11unwind_safe16AssertUnwindSafeNCINvNtNtCsjLJ1XWNSM6u_10proc_macro6bridge6client10run_clientTNtB1R_11TokenStreamB2M_EINtNtBS_6option6OptionB2M_ENCNCINvMs8_B1R_INtB1R_6ClientTNtB1V_11TokenStreamB45_EB45_E7expand2NvCsivhpxLWnNhi_12tokio_macros4testE00E0EuEB4I_, symObjAddr: 0x1E08, symBinAddr: 0xDE40, symSize: 0x70 }
  - { offset: 0x27F99, size: 0x8, addend: 0x0, symName: __RINvNvNtCs27l1GJC5rMQ_3std9panicking3try8do_catchINtNtNtCs9f3LFPSIp77_4core5panic11unwind_safe16AssertUnwindSafeNCINvNtNtCsjLJ1XWNSM6u_10proc_macro6bridge6client10run_clientTNtB1R_11TokenStreamB2M_EINtNtBS_6option6OptionB2M_ENCNCINvMs8_B1R_INtB1R_6ClientTNtB1V_11TokenStreamB45_EB45_E7expand2NvCsivhpxLWnNhi_12tokio_macros7main_rtE00E0EuEB4I_, symObjAddr: 0x1E78, symBinAddr: 0xDEB0, symSize: 0x70 }
  - { offset: 0x2802E, size: 0x8, addend: 0x0, symName: __RINvNvNtCs27l1GJC5rMQ_3std9panicking3try8do_catchINtNtNtCs9f3LFPSIp77_4core5panic11unwind_safe16AssertUnwindSafeNCINvNtNtCsjLJ1XWNSM6u_10proc_macro6bridge6client10run_clientTNtB1R_11TokenStreamB2M_EINtNtBS_6option6OptionB2M_ENCNCINvMs8_B1R_INtB1R_6ClientTNtB1V_11TokenStreamB45_EB45_E7expand2NvCsivhpxLWnNhi_12tokio_macros7test_rtE00E0EuEB4I_, symObjAddr: 0x1EE8, symBinAddr: 0xDF20, symSize: 0x70 }
  - { offset: 0x280C3, size: 0x8, addend: 0x0, symName: __RINvNvNtCs27l1GJC5rMQ_3std9panicking3try8do_catchINtNtNtCs9f3LFPSIp77_4core5panic11unwind_safe16AssertUnwindSafeNCINvNtNtCsjLJ1XWNSM6u_10proc_macro6bridge6client10run_clientTNtB1R_11TokenStreamB2M_EINtNtBS_6option6OptionB2M_ENCNCINvMs8_B1R_INtB1R_6ClientTNtB1V_11TokenStreamB45_EB45_E7expand2NvCsivhpxLWnNhi_12tokio_macros9main_failE00E0EuEB4I_, symObjAddr: 0x1F58, symBinAddr: 0xDF90, symSize: 0x70 }
  - { offset: 0x28158, size: 0x8, addend: 0x0, symName: __RINvNvNtCs27l1GJC5rMQ_3std9panicking3try8do_catchINtNtNtCs9f3LFPSIp77_4core5panic11unwind_safe16AssertUnwindSafeNCINvNtNtCsjLJ1XWNSM6u_10proc_macro6bridge6client10run_clientTNtB1R_11TokenStreamB2M_EINtNtBS_6option6OptionB2M_ENCNCINvMs8_B1R_INtB1R_6ClientTNtB1V_11TokenStreamB45_EB45_E7expand2NvCsivhpxLWnNhi_12tokio_macros9test_failE00E0EuEB4I_, symObjAddr: 0x1FC8, symBinAddr: 0xE000, symSize: 0x70 }
  - { offset: 0x28484, size: 0x8, addend: 0x0, symName: __RINvNtNtNtCsjLJ1XWNSM6u_10proc_macro6bridge6client5state3setINtNtCs9f3LFPSIp77_4core6option6OptionNtB4_11TokenStreamENCNCINvB4_10run_clientB1y_BW_NCNCINvMs7_B4_INtB4_6ClientNtB8_11TokenStreamB2L_E7expand1NvCsivhpxLWnNhi_12tokio_macros25select_priv_clean_patternE00E00EB3i_, symObjAddr: 0x10A0, symBinAddr: 0xD0D8, symSize: 0x128 }
  - { offset: 0x28578, size: 0x8, addend: 0x0, symName: __RINvNtNtNtCsjLJ1XWNSM6u_10proc_macro6bridge6client5state3setINtNtCs9f3LFPSIp77_4core6option6OptionNtB4_11TokenStreamENCNCINvB4_10run_clientB1y_BW_NCNCINvMs7_B4_INtB4_6ClientNtB8_11TokenStreamB2L_E7expand1NvCsivhpxLWnNhi_12tokio_macros31select_priv_declare_output_enumE00E00EB3i_, symObjAddr: 0x11C8, symBinAddr: 0xD200, symSize: 0x128 }
  - { offset: 0x2866C, size: 0x8, addend: 0x0, symName: __RINvNtNtNtCsjLJ1XWNSM6u_10proc_macro6bridge6client5state3setINtNtCs9f3LFPSIp77_4core6option6OptionNtB4_11TokenStreamENCNCINvB4_10run_clientTB1y_B1y_EBW_NCNCINvMs8_B4_INtB4_6ClientTNtB8_11TokenStreamB2S_EB2S_E7expand2NvCsivhpxLWnNhi_12tokio_macros4mainE00E00EB3u_, symObjAddr: 0x12F0, symBinAddr: 0xD328, symSize: 0x12C }
  - { offset: 0x28760, size: 0x8, addend: 0x0, symName: __RINvNtNtNtCsjLJ1XWNSM6u_10proc_macro6bridge6client5state3setINtNtCs9f3LFPSIp77_4core6option6OptionNtB4_11TokenStreamENCNCINvB4_10run_clientTB1y_B1y_EBW_NCNCINvMs8_B4_INtB4_6ClientTNtB8_11TokenStreamB2S_EB2S_E7expand2NvCsivhpxLWnNhi_12tokio_macros4testE00E00EB3u_, symObjAddr: 0x141C, symBinAddr: 0xD454, symSize: 0x12C }
  - { offset: 0x28854, size: 0x8, addend: 0x0, symName: __RINvNtNtNtCsjLJ1XWNSM6u_10proc_macro6bridge6client5state3setINtNtCs9f3LFPSIp77_4core6option6OptionNtB4_11TokenStreamENCNCINvB4_10run_clientTB1y_B1y_EBW_NCNCINvMs8_B4_INtB4_6ClientTNtB8_11TokenStreamB2S_EB2S_E7expand2NvCsivhpxLWnNhi_12tokio_macros7main_rtE00E00EB3u_, symObjAddr: 0x1548, symBinAddr: 0xD580, symSize: 0x12C }
  - { offset: 0x28948, size: 0x8, addend: 0x0, symName: __RINvNtNtNtCsjLJ1XWNSM6u_10proc_macro6bridge6client5state3setINtNtCs9f3LFPSIp77_4core6option6OptionNtB4_11TokenStreamENCNCINvB4_10run_clientTB1y_B1y_EBW_NCNCINvMs8_B4_INtB4_6ClientTNtB8_11TokenStreamB2S_EB2S_E7expand2NvCsivhpxLWnNhi_12tokio_macros7test_rtE00E00EB3u_, symObjAddr: 0x1674, symBinAddr: 0xD6AC, symSize: 0x12C }
  - { offset: 0x28A3C, size: 0x8, addend: 0x0, symName: __RINvNtNtNtCsjLJ1XWNSM6u_10proc_macro6bridge6client5state3setINtNtCs9f3LFPSIp77_4core6option6OptionNtB4_11TokenStreamENCNCINvB4_10run_clientTB1y_B1y_EBW_NCNCINvMs8_B4_INtB4_6ClientTNtB8_11TokenStreamB2S_EB2S_E7expand2NvCsivhpxLWnNhi_12tokio_macros9main_failE00E00EB3u_, symObjAddr: 0x17A0, symBinAddr: 0xD7D8, symSize: 0x12C }
  - { offset: 0x28B30, size: 0x8, addend: 0x0, symName: __RINvNtNtNtCsjLJ1XWNSM6u_10proc_macro6bridge6client5state3setINtNtCs9f3LFPSIp77_4core6option6OptionNtB4_11TokenStreamENCNCINvB4_10run_clientTB1y_B1y_EBW_NCNCINvMs8_B4_INtB4_6ClientTNtB8_11TokenStreamB2S_EB2S_E7expand2NvCsivhpxLWnNhi_12tokio_macros9test_failE00E00EB3u_, symObjAddr: 0x18CC, symBinAddr: 0xD904, symSize: 0x12C }
  - { offset: 0x28C2E, size: 0x8, addend: 0x0, symName: __RNCNkNvNtNtNtCsjLJ1XWNSM6u_10proc_macro6bridge6client5state12BRIDGE_STATE0s_0CsivhpxLWnNhi_12tokio_macros, symObjAddr: 0x2E60, symBinAddr: 0xEE98, symSize: 0x34 }
  - { offset: 0x29505, size: 0x8, addend: 0x0, symName: __RNvXs5_NtNtCsjLJ1XWNSM6u_10proc_macro6bridge6bufferNtB5_6BufferNtNtNtCs9f3LFPSIp77_4core3ops4drop4Drop4dropCsivhpxLWnNhi_12tokio_macros, symObjAddr: 0x3C20, symBinAddr: 0xFC58, symSize: 0x138 }
  - { offset: 0x2992D, size: 0x8, addend: 0x0, symName: __RNvXs1J_NtCsjLJ1XWNSM6u_10proc_macro6bridgeINtB6_11ExpnGlobalsNtNtB6_6client4SpanEINtNtB6_3rpc9DecodeMutuE6decodeCsivhpxLWnNhi_12tokio_macros, symObjAddr: 0x3808, symBinAddr: 0xF840, symSize: 0xB0 }
  - { offset: 0x29984, size: 0x8, addend: 0x0, symName: __RNvXs9_NtNtCsjLJ1XWNSM6u_10proc_macro6bridge3rpcTINtB7_11ExpnGlobalsNtNtB7_6client4SpanENtB16_11TokenStreamEINtB5_9DecodeMutuE6decodeCsivhpxLWnNhi_12tokio_macros, symObjAddr: 0x41AC, symBinAddr: 0x101E4, symSize: 0x84 }
  - { offset: 0x299D9, size: 0x8, addend: 0x0, symName: __RNvXs9_NtNtCsjLJ1XWNSM6u_10proc_macro6bridge3rpcTINtB7_11ExpnGlobalsNtNtB7_6client4SpanETNtB16_11TokenStreamB1p_EEINtB5_9DecodeMutuE6decodeCsivhpxLWnNhi_12tokio_macros, symObjAddr: 0x4230, symBinAddr: 0x10268, symSize: 0x90 }
  - { offset: 0x29B12, size: 0x8, addend: 0x0, symName: __RNvXsV_NtCsjLJ1XWNSM6u_10proc_macro6bridgeINtNtCs9f3LFPSIp77_4core6result6ResultINtNtBJ_6option6OptionNtNtB5_6client11TokenStreamEuEINtNtB5_3rpc6EncodeuE6encodeCsivhpxLWnNhi_12tokio_macros, symObjAddr: 0x4484, symBinAddr: 0x104BC, symSize: 0x108 }
  - { offset: 0x29BD3, size: 0x8, addend: 0x0, symName: __RNvXsV_NtCsjLJ1XWNSM6u_10proc_macro6bridgeINtNtCs9f3LFPSIp77_4core6result6ResultuNtNtB5_3rpc12PanicMessageEINtB1j_6EncodeuE6encodeCsivhpxLWnNhi_12tokio_macros, symObjAddr: 0x458C, symBinAddr: 0x105C4, symSize: 0x12C }
  - { offset: 0x29EB4, size: 0x8, addend: 0x0, symName: __RNvXs10_CsjLJ1XWNSM6u_10proc_macroNtB6_11TokenStreamNtNtCs9f3LFPSIp77_4core5clone5Clone5cloneCsivhpxLWnNhi_12tokio_macros, symObjAddr: 0x3774, symBinAddr: 0xF7AC, symSize: 0x64 }
  - { offset: 0x2A1A2, size: 0x8, addend: 0x0, symName: __RINvXs7_NtCs475r2uZUTuc_11proc_macro23impNtB6_11TokenStreamINtNtNtNtCs9f3LFPSIp77_4core4iter6traits7collect6ExtendNtB8_9TokenTreeE6extendAB1O_j1_ECsivhpxLWnNhi_12tokio_macros, symObjAddr: 0x2128, symBinAddr: 0xE160, symSize: 0x170 }
  - { offset: 0x2A238, size: 0x8, addend: 0x0, symName: __RINvXs7_NtCs475r2uZUTuc_11proc_macro23impNtB6_11TokenStreamINtNtNtNtCs9f3LFPSIp77_4core4iter6traits7collect6ExtendNtB8_9TokenTreeE6extendNtB8_11TokenStreamECsivhpxLWnNhi_12tokio_macros, symObjAddr: 0x2298, symBinAddr: 0xE2D0, symSize: 0x170 }
  - { offset: 0x2A2D4, size: 0x8, addend: 0x0, symName: __RNvXsA_NtCs475r2uZUTuc_11proc_macro23impNtB5_19DeferredTokenStreamNtNtCs9f3LFPSIp77_4core5clone5Clone5cloneCsivhpxLWnNhi_12tokio_macros, symObjAddr: 0x42C0, symBinAddr: 0x102F8, symSize: 0x88 }
  - { offset: 0x2A306, size: 0x8, addend: 0x0, symName: __RNvXsz_NtCs475r2uZUTuc_11proc_macro23impNtB5_11TokenStreamNtNtCs9f3LFPSIp77_4core5clone5Clone5cloneCsivhpxLWnNhi_12tokio_macros, symObjAddr: 0x598C, symBinAddr: 0x119C4, symSize: 0x98 }
  - { offset: 0x2A4DE, size: 0x8, addend: 0x0, symName: __RINvXsa_NtCs475r2uZUTuc_11proc_macro28fallbackNtB6_11TokenStreamINtNtNtNtCs9f3LFPSIp77_4core4iter6traits7collect6ExtendNtB8_9TokenTreeE6extendAB1T_j1_ECsivhpxLWnNhi_12tokio_macros, symObjAddr: 0x2408, symBinAddr: 0xE440, symSize: 0xC0 }
  - { offset: 0x2A53F, size: 0x8, addend: 0x0, symName: __RINvXsa_NtCs475r2uZUTuc_11proc_macro28fallbackNtB6_11TokenStreamINtNtNtNtCs9f3LFPSIp77_4core4iter6traits7collect6ExtendNtB8_9TokenTreeE6extendNtB8_11TokenStreamECsivhpxLWnNhi_12tokio_macros, symObjAddr: 0x24C8, symBinAddr: 0xE500, symSize: 0xC0 }
  - { offset: 0x2A5A5, size: 0x8, addend: 0x0, symName: __RNCINvXsa_NtCs475r2uZUTuc_11proc_macro28fallbackNtB8_11TokenStreamINtNtNtNtCs9f3LFPSIp77_4core4iter6traits7collect6ExtendNtBa_9TokenTreeE6extendAB1V_j1_E0CsivhpxLWnNhi_12tokio_macros, symObjAddr: 0x2D08, symBinAddr: 0xED40, symSize: 0xAC }
  - { offset: 0x2A5EB, size: 0x8, addend: 0x0, symName: __RNCINvXsa_NtCs475r2uZUTuc_11proc_macro28fallbackNtB8_11TokenStreamINtNtNtNtCs9f3LFPSIp77_4core4iter6traits7collect6ExtendNtBa_9TokenTreeE6extendNtBa_11TokenStreamE0CsivhpxLWnNhi_12tokio_macros, symObjAddr: 0x2DB4, symBinAddr: 0xEDEC, symSize: 0xAC }
  - { offset: 0x2A65E, size: 0x8, addend: 0x0, symName: __RNvXss_NtCs475r2uZUTuc_11proc_macro28fallbackNtB5_11TokenStreamNtNtCs9f3LFPSIp77_4core5clone5Clone5cloneCsivhpxLWnNhi_12tokio_macros, symObjAddr: 0x5968, symBinAddr: 0x119A0, symSize: 0x24 }
  - { offset: 0x2A6C0, size: 0x8, addend: 0x0, symName: __RNvXs1_NtCs475r2uZUTuc_11proc_macro26markerNtB5_19ProcMacroAutoTraitsNtNtCs9f3LFPSIp77_4core5clone5Clone5cloneCsivhpxLWnNhi_12tokio_macros, symObjAddr: 0x38B8, symBinAddr: 0xF8F0, symSize: 0x10 }
  - { offset: 0x2A930, size: 0x8, addend: 0x0, symName: __RINvXs4_Cs475r2uZUTuc_11proc_macro2NtB6_11TokenStreamINtNtNtNtCs9f3LFPSIp77_4core4iter6traits7collect6ExtendNtB6_9TokenTreeE6extendAB1I_j1_ECsivhpxLWnNhi_12tokio_macros, symObjAddr: 0x20C0, symBinAddr: 0xE0F8, symSize: 0x34 }
  - { offset: 0x2A973, size: 0x8, addend: 0x0, symName: __RINvXs4_Cs475r2uZUTuc_11proc_macro2NtB6_11TokenStreamINtNtNtNtCs9f3LFPSIp77_4core4iter6traits7collect6ExtendNtB6_9TokenTreeE6extendBx_ECsivhpxLWnNhi_12tokio_macros, symObjAddr: 0x20F4, symBinAddr: 0xE12C, symSize: 0x34 }
  - { offset: 0x2A9BC, size: 0x8, addend: 0x0, symName: __RNvXsG_Cs475r2uZUTuc_11proc_macro2NtB5_11TokenStreamNtNtCs9f3LFPSIp77_4core5clone5Clone5cloneCsivhpxLWnNhi_12tokio_macros, symObjAddr: 0x440C, symBinAddr: 0x10444, symSize: 0x78 }
  - { offset: 0x2C73F, size: 0x8, addend: 0x0, symName: __RNvXso_NtCs9f3LFPSIp77_4core6resultINtB5_6ResultINtNtCsATtFUPiRFW_3syn10punctuated10PunctuatedNtNtBP_4attr4MetaNtNtBP_5token5CommaENtNtBP_5error5ErrorENtNtNtB7_3ops9try_trait3Try6branchCsivhpxLWnNhi_12tokio_macros, symObjAddr: 0x537C, symBinAddr: 0x113B4, symSize: 0xA0 }
  - { offset: 0x2C7BC, size: 0x8, addend: 0x0, symName: __RNvXso_NtCs9f3LFPSIp77_4core6resultINtB5_6ResultNtCs475r2uZUTuc_11proc_macro29TokenTreeNtNtCsATtFUPiRFW_3syn5error5ErrorENtNtNtB7_3ops9try_trait3Try6branchCsivhpxLWnNhi_12tokio_macros, symObjAddr: 0x541C, symBinAddr: 0x11454, symSize: 0x9C }
  - { offset: 0x2C839, size: 0x8, addend: 0x0, symName: __RNvXso_NtCs9f3LFPSIp77_4core6resultINtB5_6ResultNtNtCsdze8u8oDPro_5alloc6string6StringNtNtCsATtFUPiRFW_3syn5error5ErrorENtNtNtB7_3ops9try_trait3Try6branchCsivhpxLWnNhi_12tokio_macros, symObjAddr: 0x54B8, symBinAddr: 0x114F0, symSize: 0x94 }
  - { offset: 0x2C8B6, size: 0x8, addend: 0x0, symName: __RNvXso_NtCs9f3LFPSIp77_4core6resultINtB5_6ResultNtNtCsivhpxLWnNhi_12tokio_macros5entry13RuntimeFlavorNtNtCsATtFUPiRFW_3syn5error5ErrorENtNtNtB7_3ops9try_trait3Try6branchBO_, symObjAddr: 0x554C, symBinAddr: 0x11584, symSize: 0x94 }
  - { offset: 0x2C933, size: 0x8, addend: 0x0, symName: __RNvXso_NtCs9f3LFPSIp77_4core6resultINtB5_6ResultNtNtCsivhpxLWnNhi_12tokio_macros5entry14UnhandledPanicNtNtCsATtFUPiRFW_3syn5error5ErrorENtNtNtB7_3ops9try_trait3Try6branchBO_, symObjAddr: 0x55E0, symBinAddr: 0x11618, symSize: 0x94 }
  - { offset: 0x2C9B0, size: 0x8, addend: 0x0, symName: __RNvXso_NtCs9f3LFPSIp77_4core6resultINtB5_6ResultNtNtCsivhpxLWnNhi_12tokio_macros5entry6ItemFnNtNtCsATtFUPiRFW_3syn5error5ErrorENtNtNtB7_3ops9try_trait3Try6branchBO_, symObjAddr: 0x5674, symBinAddr: 0x116AC, symSize: 0xC0 }
  - { offset: 0x2CA2E, size: 0x8, addend: 0x0, symName: __RNvXso_NtCs9f3LFPSIp77_4core6resultINtB5_6ResultRNtCs475r2uZUTuc_11proc_macro25IdentNtNtCsATtFUPiRFW_3syn5error5ErrorENtNtNtB7_3ops9try_trait3Try6branchCsivhpxLWnNhi_12tokio_macros, symObjAddr: 0x5734, symBinAddr: 0x1176C, symSize: 0x88 }
  - { offset: 0x2CAAC, size: 0x8, addend: 0x0, symName: __RNvXso_NtCs9f3LFPSIp77_4core6resultINtB5_6ResultjNtNtCsATtFUPiRFW_3syn5error5ErrorENtNtNtB7_3ops9try_trait3Try6branchCsivhpxLWnNhi_12tokio_macros, symObjAddr: 0x57BC, symBinAddr: 0x117F4, symSize: 0x88 }
  - { offset: 0x2CB30, size: 0x8, addend: 0x0, symName: __RNvXsp_NtCs9f3LFPSIp77_4core6resultINtB5_6ResultINtNtCsATtFUPiRFW_3syn10punctuated10PunctuatedNtNtBP_4attr4MetaNtNtBP_5token5CommaENtNtBP_5error5ErrorEINtNtNtB7_3ops9try_trait12FromResidualIBy_NtNtB7_7convert10InfallibleB25_EE13from_residualCsivhpxLWnNhi_12tokio_macros, symObjAddr: 0x5844, symBinAddr: 0x1187C, symSize: 0x48 }
  - { offset: 0x2CBB5, size: 0x8, addend: 0x0, symName: __RNvXsp_NtCs9f3LFPSIp77_4core6resultINtB5_6ResultNtNtCsATtFUPiRFW_3syn4path4PathNtNtBO_5error5ErrorEINtNtNtB7_3ops9try_trait12FromResidualIBy_NtNtB7_7convert10InfallibleNtCs475r2uZUTuc_11proc_macro28LexErrorEE13from_residualCsivhpxLWnNhi_12tokio_macros, symObjAddr: 0x588C, symBinAddr: 0x118C4, symSize: 0x4C }
  - { offset: 0x2CC1B, size: 0x8, addend: 0x0, symName: __RNvXsp_NtCs9f3LFPSIp77_4core6resultINtB5_6ResultNtNtCsivhpxLWnNhi_12tokio_macros5entry11FinalConfigNtNtCsATtFUPiRFW_3syn5error5ErrorEINtNtNtB7_3ops9try_trait12FromResidualIBy_NtNtB7_7convert10InfallibleB1z_EE13from_residualBO_, symObjAddr: 0x58D8, symBinAddr: 0x11910, symSize: 0x48 }
  - { offset: 0x2CCA0, size: 0x8, addend: 0x0, symName: __RNvXsp_NtCs9f3LFPSIp77_4core6resultINtB5_6ResultNtNtCsivhpxLWnNhi_12tokio_macros5entry6ItemFnNtNtCsATtFUPiRFW_3syn5error5ErrorEINtNtNtB7_3ops9try_trait12FromResidualIBy_NtNtB7_7convert10InfallibleB1t_EE13from_residualBO_, symObjAddr: 0x5920, symBinAddr: 0x11958, symSize: 0x48 }
  - { offset: 0x303B8, size: 0x8, addend: 0x0, symName: __RNvMNtCs9f3LFPSIp77_4core5sliceSNtCs475r2uZUTuc_11proc_macro211TokenStream4lastCsivhpxLWnNhi_12tokio_macros, symObjAddr: 0x2E94, symBinAddr: 0xEECC, symSize: 0x50 }
  - { offset: 0x30405, size: 0x8, addend: 0x0, symName: __RNvMNtCs9f3LFPSIp77_4core5sliceSNtCs475r2uZUTuc_11proc_macro25Ident4iterCsivhpxLWnNhi_12tokio_macros, symObjAddr: 0x2EE4, symBinAddr: 0xEF1C, symSize: 0x28 }
  - { offset: 0x3058B, size: 0x8, addend: 0x0, symName: __RNvXs_NtNtCs9f3LFPSIp77_4core5slice4iterRSNtCs475r2uZUTuc_11proc_macro211TokenStreamNtNtNtNtB8_4iter6traits7collect12IntoIterator9into_iterCsivhpxLWnNhi_12tokio_macros, symObjAddr: 0x4808, symBinAddr: 0x10840, symSize: 0x50 }
  - { offset: 0x30703, size: 0x8, addend: 0x0, symName: __RNvNvXs0_NtNtCs9f3LFPSIp77_4core5slice5indexjINtB7_10SliceIndexSpE13get_unchecked18precondition_checkCsivhpxLWnNhi_12tokio_macros, symObjAddr: 0x3574, symBinAddr: 0xF5AC, symSize: 0x40 }
  - { offset: 0x30745, size: 0x8, addend: 0x0, symName: __RNvNvXs1_NtNtCs9f3LFPSIp77_4core5slice5indexNtNtNtBb_3ops11index_range10IndexRangeINtB7_10SliceIndexSpE17get_unchecked_mut18precondition_checkCsivhpxLWnNhi_12tokio_macros, symObjAddr: 0x35B4, symBinAddr: 0xF5EC, symSize: 0x40 }
  - { offset: 0x3077C, size: 0x8, addend: 0x0, symName: __RNvXs1_NtNtCs9f3LFPSIp77_4core5slice5indexNtNtNtB9_3ops11index_range10IndexRangeINtB5_10SliceIndexSINtNtNtB9_3mem12maybe_uninit11MaybeUninitARej4_EE17get_unchecked_mutCsivhpxLWnNhi_12tokio_macros, symObjAddr: 0x38DC, symBinAddr: 0xF914, symSize: 0xC8 }
  - { offset: 0x308C9, size: 0x8, addend: 0x0, symName: __RNvXs1_NtNtCs9f3LFPSIp77_4core5slice5indexNtNtNtB9_3ops11index_range10IndexRangeINtB5_10SliceIndexSINtNtNtB9_3mem12maybe_uninit11MaybeUninitReEE17get_unchecked_mutCsivhpxLWnNhi_12tokio_macros, symObjAddr: 0x39A4, symBinAddr: 0xF9DC, symSize: 0xC8 }
  - { offset: 0x30D3F, size: 0x8, addend: 0x0, symName: __RNCINvNtNtNtCs9f3LFPSIp77_4core4iter8adapters3map8map_foldTNtNtCsATtFUPiRFW_3syn4attr4MetaNtNtBZ_5token5CommaEBV_uNCNvXs8_NtBZ_10punctuatedINtB1W_10PunctuatedBV_B1q_ENtNtNtB8_6traits7collect12IntoIterator9into_iter0NCINvNvNtNtB2I_8iterator8Iterator8for_each4callBV_NCINvMsi_NtCsdze8u8oDPro_5alloc3vecINtB4o_3VecBV_E14extend_trustedINtB4_3MapINtNtB4o_9into_iter8IntoIterBU_EB1O_EE0E0E0CsivhpxLWnNhi_12tokio_macros, symObjAddr: 0x29C8, symBinAddr: 0xEA00, symSize: 0xB0 }
  - { offset: 0x30DC4, size: 0x8, addend: 0x0, symName: __RNCINvNtNtNtCs9f3LFPSIp77_4core4iter8adapters3map8map_foldjNtCs475r2uZUTuc_11proc_macro25IdentuNCNvNtCsivhpxLWnNhi_12tokio_macros6select19declare_output_enum0NCINvNvNtNtNtB8_6traits8iterator8Iterator8for_each4callBV_NCINvMsi_NtCsdze8u8oDPro_5alloc3vecINtB3B_3VecBV_E14extend_trustedINtB4_3MapINtNtNtBa_3ops5range5RangejEB1v_EE0E0E0B1B_, symObjAddr: 0x2A78, symBinAddr: 0xEAB0, symSize: 0x88 }
  - { offset: 0x30E4E, size: 0x8, addend: 0x0, symName: __RINvXs0_NtNtNtCs9f3LFPSIp77_4core4iter8adapters3mapINtB6_3MapINtNtNtBc_3ops5range5RangejENCNvNtCsivhpxLWnNhi_12tokio_macros6select19declare_output_enum0ENtNtNtBa_6traits8iterator8Iterator4folduNCINvNvB2r_8for_each4callNtCs475r2uZUTuc_11proc_macro25IdentNCINvMsi_NtCsdze8u8oDPro_5alloc3vecINtB4c_3VecB3u_E14extend_trustedBN_E0E0EB1v_, symObjAddr: 0x2038, symBinAddr: 0xE070, symSize: 0x3C }
  - { offset: 0x30EE6, size: 0x8, addend: 0x0, symName: __RINvXs0_NtNtNtCs9f3LFPSIp77_4core4iter8adapters3mapINtB6_3MapINtNtNtCsdze8u8oDPro_5alloc3vec9into_iter8IntoIterTNtNtCsATtFUPiRFW_3syn4attr4MetaNtNtB1Q_5token5CommaEENCNvXs8_NtB1Q_10punctuatedINtB2L_10PunctuatedB1M_B2h_ENtNtNtBa_6traits7collect12IntoIterator9into_iter0ENtNtB3z_8iterator8Iterator4folduNCINvNvB4j_8for_each4callB1M_NCINvMsi_B12_INtB12_3VecB1M_E14extend_trustedBN_E0E0ECsivhpxLWnNhi_12tokio_macros, symObjAddr: 0x2074, symBinAddr: 0xE0AC, symSize: 0x4C }
  - { offset: 0x30F7F, size: 0x8, addend: 0x0, symName: __RNvXs0_NtNtNtCs9f3LFPSIp77_4core4iter8adapters3mapINtB5_3MapINtNtNtBb_3ops5range5RangejENCNvNtCsivhpxLWnNhi_12tokio_macros6select19declare_output_enum0ENtNtNtB9_6traits8iterator8Iterator9size_hintB1u_, symObjAddr: 0x372C, symBinAddr: 0xF764, symSize: 0x24 }
  - { offset: 0x30FC6, size: 0x8, addend: 0x0, symName: __RNvXs0_NtNtNtCs9f3LFPSIp77_4core4iter8adapters3mapINtB5_3MapINtNtNtCsdze8u8oDPro_5alloc3vec9into_iter8IntoIterTNtNtCsATtFUPiRFW_3syn4attr4MetaNtNtB1P_5token5CommaEENCNvXs8_NtB1P_10punctuatedINtB2K_10PunctuatedB1L_B2g_ENtNtNtB9_6traits7collect12IntoIterator9into_iter0ENtNtB3y_8iterator8Iterator9size_hintCsivhpxLWnNhi_12tokio_macros, symObjAddr: 0x3750, symBinAddr: 0xF788, symSize: 0x24 }
  - { offset: 0x310D3, size: 0x8, addend: 0x0, symName: __RNvXs1_NtNtNtCs9f3LFPSIp77_4core4iter8adapters3zipINtB5_3ZipINtNtCsATtFUPiRFW_3syn10punctuated4IterNtNtB11_4path11PathSegmentEINtNtNtBb_5array4iter8IntoIterReKj4_EEINtB5_7ZipImplBW_B20_E3newCsivhpxLWnNhi_12tokio_macros, symObjAddr: 0x3A6C, symBinAddr: 0xFAA4, symSize: 0x5C }
  - { offset: 0x31120, size: 0x8, addend: 0x0, symName: __RNvXs1_NtNtNtCs9f3LFPSIp77_4core4iter8adapters3zipINtB5_3ZipINtNtCsATtFUPiRFW_3syn10punctuated4IterNtNtB11_4path11PathSegmentEINtNtNtBb_5array4iter8IntoIterReKj4_EEINtB5_7ZipImplBW_B20_E4nextCsivhpxLWnNhi_12tokio_macros, symObjAddr: 0x3AC8, symBinAddr: 0xFB00, symSize: 0x11C }
  - { offset: 0x31282, size: 0x8, addend: 0x0, symName: __RNvXs_NtNtNtCs9f3LFPSIp77_4core4iter8adapters3zipINtB4_3ZipINtNtCsATtFUPiRFW_3syn10punctuated4IterNtNtB10_4path11PathSegmentEINtNtNtBa_5array4iter8IntoIterReKj4_EENtNtNtB8_6traits8iterator8Iterator4nextCsivhpxLWnNhi_12tokio_macros, symObjAddr: 0x4880, symBinAddr: 0x108B8, symSize: 0x24 }
  - { offset: 0x31359, size: 0x8, addend: 0x0, symName: __RNCINvNvNtNtNtNtCs9f3LFPSIp77_4core4iter6traits8iterator8Iterator8for_each4callNtCs475r2uZUTuc_11proc_macro25IdentNCINvMsi_NtCsdze8u8oDPro_5alloc3vecINtB1X_3VecB1f_E14extend_trustedINtNtNtBc_8adapters3map3MapINtNtNtBe_3ops5range5RangejENCNvNtCsivhpxLWnNhi_12tokio_macros6select19declare_output_enum0EE0E0B3S_, symObjAddr: 0x2BC4, symBinAddr: 0xEBFC, symSize: 0x3C }
  - { offset: 0x313B2, size: 0x8, addend: 0x0, symName: __RNCINvNvNtNtNtNtCs9f3LFPSIp77_4core4iter6traits8iterator8Iterator8for_each4callNtCs475r2uZUTuc_11proc_macro29TokenTreeNCINvXsa_NtB1h_8fallbackNtB21_11TokenStreamINtNtBa_7collect6ExtendB1f_E6extendAB1f_j1_E0E0CsivhpxLWnNhi_12tokio_macros, symObjAddr: 0x2C00, symBinAddr: 0xEC38, symSize: 0x3C }
  - { offset: 0x3140B, size: 0x8, addend: 0x0, symName: __RNCINvNvNtNtNtNtCs9f3LFPSIp77_4core4iter6traits8iterator8Iterator8for_each4callNtCs475r2uZUTuc_11proc_macro29TokenTreeNCINvXsa_NtB1h_8fallbackNtB21_11TokenStreamINtNtBa_7collect6ExtendB1f_E6extendNtB1h_11TokenStreamE0E0CsivhpxLWnNhi_12tokio_macros, symObjAddr: 0x2C3C, symBinAddr: 0xEC74, symSize: 0x3C }
  - { offset: 0x31464, size: 0x8, addend: 0x0, symName: __RNCINvNvNtNtNtNtCs9f3LFPSIp77_4core4iter6traits8iterator8Iterator8for_each4callNtNtCsATtFUPiRFW_3syn4attr4MetaNCINvMsi_NtCsdze8u8oDPro_5alloc3vecINtB1T_3VecB1f_E14extend_trustedINtNtBe_6option8IntoIterB1f_EE0E0CsivhpxLWnNhi_12tokio_macros, symObjAddr: 0x2C78, symBinAddr: 0xECB0, symSize: 0x48 }
  - { offset: 0x314BD, size: 0x8, addend: 0x0, symName: __RNCINvNvNtNtNtNtCs9f3LFPSIp77_4core4iter6traits8iterator8Iterator8for_each4callNtNtCsATtFUPiRFW_3syn4attr4MetaNCINvMsi_NtCsdze8u8oDPro_5alloc3vecINtB1T_3VecB1f_E14extend_trustedINtNtNtBc_8adapters3map3MapINtNtB1T_9into_iter8IntoIterTB1f_NtNtB1j_5token5CommaEENCNvXs8_NtB1j_10punctuatedINtB4h_10PunctuatedB1f_B3N_ENtNtBa_7collect12IntoIterator9into_iter0EE0E0CsivhpxLWnNhi_12tokio_macros, symObjAddr: 0x2CC0, symBinAddr: 0xECF8, symSize: 0x48 }
  - { offset: 0x3159E, size: 0x8, addend: 0x0, symName: __RINvYINtNtNtNtCs9f3LFPSIp77_4core4iter8adapters3map3MapINtNtNtBc_3ops5range5RangejENCNvNtCsivhpxLWnNhi_12tokio_macros6select19declare_output_enum0ENtNtNtBa_6traits8iterator8Iterator7collectINtNtCsdze8u8oDPro_5alloc3vec3VecNtCs475r2uZUTuc_11proc_macro25IdentEEB1p_, symObjAddr: 0x2588, symBinAddr: 0xE5C0, symSize: 0x24 }
  - { offset: 0x315DE, size: 0x8, addend: 0x0, symName: __RINvYINtNtNtNtCs9f3LFPSIp77_4core4iter8adapters3map3MapINtNtNtBc_3ops5range5RangejENCNvNtCsivhpxLWnNhi_12tokio_macros6select19declare_output_enum0ENtNtNtBa_6traits8iterator8Iterator8for_eachNCINvMsi_NtCsdze8u8oDPro_5alloc3vecINtB3b_3VecNtCs475r2uZUTuc_11proc_macro25IdentE14extend_trustedB3_E0EB1p_, symObjAddr: 0x25AC, symBinAddr: 0xE5E4, symSize: 0x3C }
  - { offset: 0x31649, size: 0x8, addend: 0x0, symName: __RINvYINtNtNtNtCs9f3LFPSIp77_4core4iter8adapters3map3MapINtNtNtCsdze8u8oDPro_5alloc3vec9into_iter8IntoIterTNtNtCsATtFUPiRFW_3syn4attr4MetaNtNtB1K_5token5CommaEENCNvXs8_NtB1K_10punctuatedINtB2F_10PunctuatedB1G_B2b_ENtNtNtBa_6traits7collect12IntoIterator9into_iter0ENtNtB3t_8iterator8Iterator8for_eachNCINvMsi_BW_INtBW_3VecB1G_E14extend_trustedB3_E0ECsivhpxLWnNhi_12tokio_macros, symObjAddr: 0x25E8, symBinAddr: 0xE620, symSize: 0x34 }
  - { offset: 0x316B5, size: 0x8, addend: 0x0, symName: __RINvYINtNtNtNtCs9f3LFPSIp77_4core4iter8adapters3zip3ZipINtNtCsATtFUPiRFW_3syn10punctuated4IterNtNtBW_4path11PathSegmentEINtNtNtBc_5array4iter8IntoIterReKj4_EENtNtNtBa_6traits8iterator8Iterator3allNCNCNvNtCsivhpxLWnNhi_12tokio_macros5entry17is_test_attribute00EB3g_, symObjAddr: 0x261C, symBinAddr: 0xE654, symSize: 0x3C }
  - { offset: 0x31704, size: 0x8, addend: 0x0, symName: __RINvYINtNtNtNtCs9f3LFPSIp77_4core4iter8adapters3zip3ZipINtNtCsATtFUPiRFW_3syn10punctuated4IterNtNtBW_4path11PathSegmentEINtNtNtBc_5array4iter8IntoIterReKj4_EENtNtNtBa_6traits8iterator8Iterator8try_folduNCINvNvB2w_3all5checkTRB1u_B2o_ENCNCNvNtCsivhpxLWnNhi_12tokio_macros5entry17is_test_attribute00E0INtNtNtBc_3ops12control_flow11ControlFlowuEEB3S_, symObjAddr: 0x2658, symBinAddr: 0xE690, symSize: 0x148 }
  - { offset: 0x317BD, size: 0x8, addend: 0x0, symName: __RINvYNtNtCs475r2uZUTuc_11proc_macro212token_stream8IntoIterNtNtNtNtCs9f3LFPSIp77_4core4iter6traits8iterator8Iterator4folduNCINvNvBV_8for_each4callNtB7_9TokenTreeNCINvXsa_NtB7_8fallbackNtB2I_11TokenStreamINtNtBZ_7collect6ExtendB2k_E6extendNtB7_11TokenStreamE0E0ECsivhpxLWnNhi_12tokio_macros, symObjAddr: 0x27A0, symBinAddr: 0xE7D8, symSize: 0x10C }
  - { offset: 0x3184D, size: 0x8, addend: 0x0, symName: __RINvYNtNtCs475r2uZUTuc_11proc_macro212token_stream8IntoIterNtNtNtNtCs9f3LFPSIp77_4core4iter6traits8iterator8Iterator8for_eachNCINvXsa_NtB7_8fallbackNtB28_11TokenStreamINtNtBZ_7collect6ExtendNtB7_9TokenTreeE6extendNtB7_11TokenStreamE0ECsivhpxLWnNhi_12tokio_macros, symObjAddr: 0x28AC, symBinAddr: 0xE8E4, symSize: 0x24 }
  - { offset: 0x31899, size: 0x8, addend: 0x0, symName: __RINvYNtNtNtCs9f3LFPSIp77_4core3ops11index_range10IndexRangeNtNtNtNtB9_4iter6traits8iterator8Iterator8try_folduNCINvMNtB7_9try_traitINtB1Q_17NeverShortCircuituE10wrap_mut_2ujNCINvXs0_NtNtB9_5array4iterINtB2U_8IntoIterNtCs475r2uZUTuc_11proc_macro29TokenTreeKj1_EBV_4folduNCINvNvBV_8for_each4callB3s_NCINvXsa_NtB3u_8fallbackNtB4U_11TokenStreamINtNtBZ_7collect6ExtendB3s_E6extendAB3s_B46_E0E0E0E0B25_ECsivhpxLWnNhi_12tokio_macros, symObjAddr: 0x28D0, symBinAddr: 0xE908, symSize: 0xF8 }
  - { offset: 0x3193A, size: 0x8, addend: 0x0, symName: __RNCINvNvNtNtNtNtCs9f3LFPSIp77_4core4iter6traits8iterator8Iterator3all5checkTRNtNtCsATtFUPiRFW_3syn4path11PathSegmentReENCNCNvNtCsivhpxLWnNhi_12tokio_macros5entry17is_test_attribute00E0B21_, symObjAddr: 0x2B00, symBinAddr: 0xEB38, symSize: 0x60 }
  - { offset: 0x319B5, size: 0x8, addend: 0x0, symName: __RNCINvNvNtNtNtNtCs9f3LFPSIp77_4core4iter6traits8iterator8Iterator3any5checkARej4_NCNvNtCsivhpxLWnNhi_12tokio_macros5entry17is_test_attribute0E0B1n_, symObjAddr: 0x2B60, symBinAddr: 0xEB98, symSize: 0x64 }
  - { offset: 0x31A51, size: 0x8, addend: 0x0, symName: __RNvXs_NtNtNtCs9f3LFPSIp77_4core4iter6traits7collectINtNtNtB8_8adapters3map3MapINtNtNtBa_3ops5range5RangejENCNvNtCsivhpxLWnNhi_12tokio_macros6select19declare_output_enum0ENtB4_12IntoIterator9into_iterB1M_, symObjAddr: 0x4858, symBinAddr: 0x10890, symSize: 0x14 }
  - { offset: 0x31A88, size: 0x8, addend: 0x0, symName: __RNvXs_NtNtNtCs9f3LFPSIp77_4core4iter6traits7collectINtNtNtB8_8adapters3map3MapINtNtNtCsdze8u8oDPro_5alloc3vec9into_iter8IntoIterTNtNtCsATtFUPiRFW_3syn4attr4MetaNtNtB27_5token5CommaEENCNvXs8_NtB27_10punctuatedINtB32_10PunctuatedB23_B2y_ENtB4_12IntoIterator9into_iter0EB3M_9into_iterCsivhpxLWnNhi_12tokio_macros, symObjAddr: 0x486C, symBinAddr: 0x108A4, symSize: 0x14 }
  - { offset: 0x31ACC, size: 0x8, addend: 0x0, symName: __RNvXsF_NtNtCs9f3LFPSIp77_4core4iter5rangejNtB5_4Step13steps_betweenCsivhpxLWnNhi_12tokio_macros, symObjAddr: 0x4348, symBinAddr: 0x10380, symSize: 0x7C }
  - { offset: 0x31B09, size: 0x8, addend: 0x0, symName: __RNvXsF_NtNtCs9f3LFPSIp77_4core4iter5rangejNtB5_4Step17forward_uncheckedCsivhpxLWnNhi_12tokio_macros, symObjAddr: 0x43C4, symBinAddr: 0x103FC, symSize: 0x48 }
  - { offset: 0x31B75, size: 0x8, addend: 0x0, symName: __RNvNvNtCs9f3LFPSIp77_4core4hint21unreachable_unchecked18precondition_checkCsivhpxLWnNhi_12tokio_macros, symObjAddr: 0x3558, symBinAddr: 0xF590, symSize: 0x1C }
  - { offset: 0x31B9A, size: 0x8, addend: 0x0, symName: __RNvXs1_NtCs9f3LFPSIp77_4core7convertNtCs475r2uZUTuc_11proc_macro211TokenStreamINtB5_4IntoNtCsjLJ1XWNSM6u_10proc_macro11TokenStreamE4intoCsivhpxLWnNhi_12tokio_macros, symObjAddr: 0x38C8, symBinAddr: 0xF900, symSize: 0x14 }
  - { offset: 0x31CBA, size: 0x8, addend: 0x0, symName: __RNvXs_NtNtCs9f3LFPSIp77_4core3ops11index_rangeNtB4_10IndexRangeNtNtNtNtB8_4iter6traits8iterator8Iterator4nextCsivhpxLWnNhi_12tokio_macros, symObjAddr: 0x46B8, symBinAddr: 0x106F0, symSize: 0xEC }
  - { offset: 0x3253E, size: 0x8, addend: 0x0, symName: __RNvXs_NtNtCs9f3LFPSIp77_4core3str6traitseNtNtB8_3cmp9PartialEq2eqCsivhpxLWnNhi_12tokio_macros, symObjAddr: 0x47A4, symBinAddr: 0x107DC, symSize: 0x64 }
  - { offset: 0x326E5, size: 0x8, addend: 0x0, symName: __RINvCsATtFUPiRFW_3syn6parse2NtNtCsivhpxLWnNhi_12tokio_macros5entry6ItemFnEBu_, symObjAddr: 0x0, symBinAddr: 0xC038, symSize: 0x24 }
  - { offset: 0x37772, size: 0x8, addend: 0x0, symName: __RINvNtCsATtFUPiRFW_3syn5parse12parse_scopedNvYNtNtB4_4path4PathNtB2_5Parse5parseECsivhpxLWnNhi_12tokio_macros, symObjAddr: 0x1070, symBinAddr: 0xD0A8, symSize: 0x30 }
  - { offset: 0x377CD, size: 0x8, addend: 0x0, symName: __RNvXsh_NtCsATtFUPiRFW_3syn5parseNvMNtNtB7_3pat7parsingNtBz_3Pat12parse_singleNtB5_6Parser6parse2CsivhpxLWnNhi_12tokio_macros, symObjAddr: 0x48A4, symBinAddr: 0x108DC, symSize: 0x388 }
  - { offset: 0x378DB, size: 0x8, addend: 0x0, symName: __RNvXsh_NtCsATtFUPiRFW_3syn5parseNvYNtNtB7_4path4PathNtB5_5Parse5parseNtB5_6Parser14___parse_scopedCsivhpxLWnNhi_12tokio_macros, symObjAddr: 0x4C2C, symBinAddr: 0x10C64, symSize: 0x3D4 }
  - { offset: 0x37A26, size: 0x8, addend: 0x0, symName: __RNvXsh_NtCsATtFUPiRFW_3syn5parseNvYNtNtCsivhpxLWnNhi_12tokio_macros5entry6ItemFnNtB5_5Parse5parseNtB5_6Parser6parse2BB_, symObjAddr: 0x5000, symBinAddr: 0x11038, symSize: 0x37C }
  - { offset: 0x37B3A, size: 0x8, addend: 0x0, symName: __RNvYNvMNtNtCsATtFUPiRFW_3syn3pat7parsingNtB7_3Pat12parse_singleNtNtB9_5parse6Parser5parseCsivhpxLWnNhi_12tokio_macros, symObjAddr: 0x5A24, symBinAddr: 0x11A5C, symSize: 0x88 }
  - { offset: 0x37D64, size: 0x8, addend: 0x0, symName: __RNvXs0_NtCsATtFUPiRFW_3syn5dropsINtB5_6NoDropDINtNtB7_10punctuated12IterMutTraitNtNtB7_3pat3PatEp4ItemQB1g_EL_ENtNtNtCs9f3LFPSIp77_4core3ops5deref8DerefMut9deref_mutCsivhpxLWnNhi_12tokio_macros, symObjAddr: 0x36B4, symBinAddr: 0xF6EC, symSize: 0x3C }
  - { offset: 0x37D99, size: 0x8, addend: 0x0, symName: __RNvXs0_NtCsATtFUPiRFW_3syn5dropsINtB5_6NoDropDINtNtB7_10punctuated12IterMutTraitNtNtB7_3pat8FieldPatEp4ItemQB1g_EL_ENtNtNtCs9f3LFPSIp77_4core3ops5deref8DerefMut9deref_mutCsivhpxLWnNhi_12tokio_macros, symObjAddr: 0x36F0, symBinAddr: 0xF728, symSize: 0x3C }
  - { offset: 0x39071, size: 0x8, addend: 0x0, symName: __RNvNtCsdze8u8oDPro_5alloc3fmt6formatCsivhpxLWnNhi_12tokio_macros, symObjAddr: 0x3484, symBinAddr: 0xF4BC, symSize: 0xD4 }
  - { offset: 0x390D7, size: 0x8, addend: 0x0, symName: __RNvXs19_NtCsdze8u8oDPro_5alloc5boxedINtB6_3BoxNtNtCsATtFUPiRFW_3syn3pat3PatEINtNtCs9f3LFPSIp77_4core7convert5AsMutBI_E6as_mutCsivhpxLWnNhi_12tokio_macros, symObjAddr: 0x37D8, symBinAddr: 0xF810, symSize: 0x18 }
  - { offset: 0x39117, size: 0x8, addend: 0x0, symName: __RNvXs19_NtCsdze8u8oDPro_5alloc5boxedINtB6_3BoxNtNtCsATtFUPiRFW_3syn3pat8FieldPatEINtNtCs9f3LFPSIp77_4core7convert5AsMutBI_E6as_mutCsivhpxLWnNhi_12tokio_macros, symObjAddr: 0x37F0, symBinAddr: 0xF828, symSize: 0x18 }
  - { offset: 0x3915D, size: 0x8, addend: 0x0, symName: __RNvXs6_NtCsdze8u8oDPro_5alloc5boxedINtB5_3BoxDNtNtCs9f3LFPSIp77_4core5error5ErrorNtNtBM_6marker4SendNtB1j_4SyncEL_ENtNtNtBM_3ops4drop4Drop4dropCsivhpxLWnNhi_12tokio_macros, symObjAddr: 0x3D58, symBinAddr: 0xFD90, symSize: 0xC4 }
  - { offset: 0x392DB, size: 0x8, addend: 0x0, symName: __RNvXs6_NtCsdze8u8oDPro_5alloc5boxedINtB5_3BoxINtNtCsATtFUPiRFW_3syn5drops6NoDropDINtNtBM_10punctuated12IterMutTraitNtNtBM_3pat3PatEp4ItemQB1P_EL_EENtNtNtCs9f3LFPSIp77_4core3ops4drop4Drop4dropCsivhpxLWnNhi_12tokio_macros, symObjAddr: 0x3E1C, symBinAddr: 0xFE54, symSize: 0x118 }
  - { offset: 0x39459, size: 0x8, addend: 0x0, symName: __RNvXs6_NtCsdze8u8oDPro_5alloc5boxedINtB5_3BoxINtNtCsATtFUPiRFW_3syn5drops6NoDropDINtNtBM_10punctuated12IterMutTraitNtNtBM_3pat8FieldPatEp4ItemQB1P_EL_EENtNtNtCs9f3LFPSIp77_4core3ops4drop4Drop4dropCsivhpxLWnNhi_12tokio_macros, symObjAddr: 0x3F34, symBinAddr: 0xFF6C, symSize: 0x118 }
  - { offset: 0x395D7, size: 0x8, addend: 0x0, symName: __RNvXs6_NtCsdze8u8oDPro_5alloc5boxedINtB5_3BoxNtNtCsATtFUPiRFW_3syn4attr4MetaENtNtNtCs9f3LFPSIp77_4core3ops4drop4Drop4dropCsivhpxLWnNhi_12tokio_macros, symObjAddr: 0x404C, symBinAddr: 0x10084, symSize: 0xB0 }
  - { offset: 0x39755, size: 0x8, addend: 0x0, symName: __RNvXs6_NtCsdze8u8oDPro_5alloc5boxedINtB5_3BoxNtNtNtCs27l1GJC5rMQ_3std2io5error6CustomENtNtNtCs9f3LFPSIp77_4core3ops4drop4Drop4dropCsivhpxLWnNhi_12tokio_macros, symObjAddr: 0x40FC, symBinAddr: 0x10134, symSize: 0xB0 }
  - { offset: 0x39E33, size: 0x8, addend: 0x0, symName: __RINvMNtCs9f3LFPSIp77_4core6resultINtB3_6ResultINtNtCsATtFUPiRFW_3syn10punctuated10PunctuatedNtNtBN_4attr4MetaNtNtBN_5token5CommaENtNtBN_5error5ErrorE8and_thenNtNtCsivhpxLWnNhi_12tokio_macros5entry11FinalConfigNCNvB2y_4main0EB2A_, symObjAddr: 0x24, symBinAddr: 0xC05C, symSize: 0xBC }
  - { offset: 0x39EC6, size: 0x8, addend: 0x0, symName: __RINvMNtCs9f3LFPSIp77_4core6resultINtB3_6ResultINtNtCsATtFUPiRFW_3syn10punctuated10PunctuatedNtNtBN_4attr4MetaNtNtBN_5token5CommaENtNtBN_5error5ErrorE8and_thenNtNtCsivhpxLWnNhi_12tokio_macros5entry11FinalConfigNCNvB2y_4tests_0EB2A_, symObjAddr: 0xE0, symBinAddr: 0xC118, symSize: 0xBC }
  - { offset: 0x39F66, size: 0x8, addend: 0x0, symName: __RINvMNtCs9f3LFPSIp77_4core6resultINtB3_6ResultNtNtCsATtFUPiRFW_3syn4path4PathNtNtBM_5error5ErrorE7map_errB1d_NCNvNtCsivhpxLWnNhi_12tokio_macros5entry10parse_path0EB1P_, symObjAddr: 0x19C, symBinAddr: 0xC1D4, symSize: 0xC8 }
  - { offset: 0x3A007, size: 0x8, addend: 0x0, symName: __RINvMNtCs9f3LFPSIp77_4core6resultINtB3_6ResultNtNtCsivhpxLWnNhi_12tokio_macros5entry13RuntimeFlavorNtNtCsdze8u8oDPro_5alloc6string6StringE7map_errNtNtCsATtFUPiRFW_3syn5error5ErrorNCNvMs0_BK_NtBK_13Configuration10set_flavor0EBM_, symObjAddr: 0x264, symBinAddr: 0xC29C, symSize: 0xB8 }
  - { offset: 0x3A099, size: 0x8, addend: 0x0, symName: __RINvMNtCs9f3LFPSIp77_4core6resultINtB3_6ResultNtNtCsivhpxLWnNhi_12tokio_macros5entry14UnhandledPanicNtNtCsdze8u8oDPro_5alloc6string6StringE7map_errNtNtCsATtFUPiRFW_3syn5error5ErrorNCNvMs0_BK_NtBK_13Configuration19set_unhandled_panic0EBM_, symObjAddr: 0x31C, symBinAddr: 0xC354, symSize: 0xB8 }
  - { offset: 0x3A138, size: 0x8, addend: 0x0, symName: __RINvMNtCs9f3LFPSIp77_4core6resultINtB3_6ResultjNtNtNtB5_3num5error13ParseIntErrorE7map_errNtNtCsATtFUPiRFW_3syn5error5ErrorNCINvMs3_NtB1u_3litNtB26_6LitInt12base10_parsejE0ECsivhpxLWnNhi_12tokio_macros, symObjAddr: 0x3D4, symBinAddr: 0xC40C, symSize: 0x84 }
  - { offset: 0x3A1CA, size: 0x8, addend: 0x0, symName: __RINvMNtCsATtFUPiRFW_3syn5errorNtB3_5Error11new_spannedNtNtB5_4attr13MetaNameValueNtNtCsdze8u8oDPro_5alloc6string6StringECsivhpxLWnNhi_12tokio_macros, symObjAddr: 0x458, symBinAddr: 0xC490, symSize: 0xCC }
  - { offset: 0x3A22C, size: 0x8, addend: 0x0, symName: __RINvMNtCsATtFUPiRFW_3syn5errorNtB3_5Error11new_spannedNtNtB5_4attr13MetaNameValueReECsivhpxLWnNhi_12tokio_macros, symObjAddr: 0x524, symBinAddr: 0xC55C, symSize: 0xBC }
  - { offset: 0x3A26F, size: 0x8, addend: 0x0, symName: __RINvMNtCsATtFUPiRFW_3syn5errorNtB3_5Error11new_spannedNtNtB5_4attr4MetaReECsivhpxLWnNhi_12tokio_macros, symObjAddr: 0x5E0, symBinAddr: 0xC618, symSize: 0xBC }
  - { offset: 0x3A2B2, size: 0x8, addend: 0x0, symName: __RINvMNtCsATtFUPiRFW_3syn5errorNtB3_5Error11new_spannedNtNtB5_4path4PathNtNtCsdze8u8oDPro_5alloc6string6StringECsivhpxLWnNhi_12tokio_macros, symObjAddr: 0x69C, symBinAddr: 0xC6D4, symSize: 0xCC }
  - { offset: 0x3A2F6, size: 0x8, addend: 0x0, symName: __RINvMNtCsATtFUPiRFW_3syn5errorNtB3_5Error11new_spannedNtNtB5_5token2FnReECsivhpxLWnNhi_12tokio_macros, symObjAddr: 0x768, symBinAddr: 0xC7A0, symSize: 0xC0 }
  - { offset: 0x3A345, size: 0x8, addend: 0x0, symName: __RINvMNtCsATtFUPiRFW_3syn5errorNtB3_5Error11new_spannedRNtCs475r2uZUTuc_11proc_macro25IdentReECsivhpxLWnNhi_12tokio_macros, symObjAddr: 0x828, symBinAddr: 0xC860, symSize: 0xC4 }
  - { offset: 0x3A394, size: 0x8, addend: 0x0, symName: __RINvMNtCsATtFUPiRFW_3syn5errorNtB3_5Error11new_spannedRNtNtB5_4attr13MetaNameValueReECsivhpxLWnNhi_12tokio_macros, symObjAddr: 0x8EC, symBinAddr: 0xC924, symSize: 0xC4 }
  - { offset: 0x3A3E3, size: 0x8, addend: 0x0, symName: __RINvMNtCsATtFUPiRFW_3syn5errorNtB3_5Error11new_spannedRNtNtB5_4attr9AttributeReECsivhpxLWnNhi_12tokio_macros, symObjAddr: 0x9B0, symBinAddr: 0xC9E8, symSize: 0xC4 }
  - { offset: 0x3A432, size: 0x8, addend: 0x0, symName: __RINvMNtCsATtFUPiRFW_3syn5errorNtB3_5Error11new_spannedRNtNtB5_4expr4ExprReECsivhpxLWnNhi_12tokio_macros, symObjAddr: 0xA74, symBinAddr: 0xCAAC, symSize: 0xC4 }
  - { offset: 0x3A481, size: 0x8, addend: 0x0, symName: __RINvMNtCsATtFUPiRFW_3syn5errorNtB3_5Error11new_spannedRNtNtB5_4path4PathReECsivhpxLWnNhi_12tokio_macros, symObjAddr: 0xB38, symBinAddr: 0xCB70, symSize: 0xC4 }
  - { offset: 0x3A7CF, size: 0x8, addend: 0x0, symName: __RINvMs3_NtNtCsjLJ1XWNSM6u_10proc_macro6bridge6bufferNtB6_6Buffer17extend_from_arrayKj4_ECsivhpxLWnNhi_12tokio_macros, symObjAddr: 0xBFC, symBinAddr: 0xCC34, symSize: 0x210 }
  - { offset: 0x3AE41, size: 0x8, addend: 0x0, symName: __RINvMs3_NtNtCsjLJ1XWNSM6u_10proc_macro6bridge6bufferNtB6_6Buffer17extend_from_arrayKj8_ECsivhpxLWnNhi_12tokio_macros, symObjAddr: 0xE0C, symBinAddr: 0xCE44, symSize: 0x210 }
  - { offset: 0x3B299, size: 0x8, addend: 0x0, symName: __RINvMs9_NtCsATtFUPiRFW_3syn5parseNtB6_11ParseBuffer5parseNtCs475r2uZUTuc_11proc_macro29TokenTreeECsivhpxLWnNhi_12tokio_macros, symObjAddr: 0x101C, symBinAddr: 0xD054, symSize: 0x34 }
  - { offset: 0x3B2CF, size: 0x8, addend: 0x0, symName: __RINvNtCs62MdaZFMefA_5quote9___private8get_spanNtCs475r2uZUTuc_11proc_macro24SpanECsivhpxLWnNhi_12tokio_macros, symObjAddr: 0x1050, symBinAddr: 0xD088, symSize: 0x20 }
  - { offset: 0x3B3BA, size: 0x8, addend: 0x0, symName: __RNvXs4_NtCs62MdaZFMefA_5quote9___privateINtB5_9RepInterpRNtCs475r2uZUTuc_11proc_macro25IdentENtNtB7_9to_tokens8ToTokens9to_tokensCsivhpxLWnNhi_12tokio_macros, symObjAddr: 0x3BE4, symBinAddr: 0xFC1C, symSize: 0x3C }
  - { offset: 0x3B405, size: 0x8, addend: 0x0, symName: __RNvXNtCs62MdaZFMefA_5quote9to_tokensRINtNtCsdze8u8oDPro_5alloc5boxed3BoxNtNtCsATtFUPiRFW_3syn2ty4TypeENtB2_8ToTokens9to_tokensCsivhpxLWnNhi_12tokio_macros, symObjAddr: 0x35F4, symBinAddr: 0xF62C, symSize: 0x40 }
  - { offset: 0x3B444, size: 0x8, addend: 0x0, symName: __RNvXNtCs62MdaZFMefA_5quote9to_tokensRNtCs475r2uZUTuc_11proc_macro211TokenStreamNtB2_8ToTokens9to_tokensCsivhpxLWnNhi_12tokio_macros, symObjAddr: 0x3634, symBinAddr: 0xF66C, symSize: 0x40 }
  - { offset: 0x3B483, size: 0x8, addend: 0x0, symName: __RNvXNtCs62MdaZFMefA_5quote9to_tokensRNtCs475r2uZUTuc_11proc_macro25IdentNtB2_8ToTokens9to_tokensCsivhpxLWnNhi_12tokio_macros, symObjAddr: 0x3674, symBinAddr: 0xF6AC, symSize: 0x40 }
  - { offset: 0x3B4C8, size: 0x8, addend: 0x0, symName: __RNvYRNtCs475r2uZUTuc_11proc_macro25IdentNtNtCs62MdaZFMefA_5quote9to_tokens8ToTokens15to_token_streamCsivhpxLWnNhi_12tokio_macros, symObjAddr: 0x5AAC, symBinAddr: 0x11AE4, symSize: 0x8C }
  - { offset: 0x3B512, size: 0x8, addend: 0x0, symName: __RNvYRNtCs475r2uZUTuc_11proc_macro25IdentNtNtCs62MdaZFMefA_5quote9to_tokens8ToTokens17into_token_streamCsivhpxLWnNhi_12tokio_macros, symObjAddr: 0x5B38, symBinAddr: 0x11B70, symSize: 0x54 }
  - { offset: 0x3B547, size: 0x8, addend: 0x0, symName: __RNvYRNtNtCsATtFUPiRFW_3syn4expr4ExprNtNtCs62MdaZFMefA_5quote9to_tokens8ToTokens15to_token_streamCsivhpxLWnNhi_12tokio_macros, symObjAddr: 0x5B8C, symBinAddr: 0x11BC4, symSize: 0x8C }
  - { offset: 0x3B591, size: 0x8, addend: 0x0, symName: __RNvYRNtNtCsATtFUPiRFW_3syn4expr4ExprNtNtCs62MdaZFMefA_5quote9to_tokens8ToTokens17into_token_streamCsivhpxLWnNhi_12tokio_macros, symObjAddr: 0x5C18, symBinAddr: 0x11C50, symSize: 0x54 }
  - { offset: 0x3BBA4, size: 0x8, addend: 0x0, symName: __RNvMNtCs9f3LFPSIp77_4core6resultINtB2_6ResultPuNtNtNtCs27l1GJC5rMQ_3std6thread5local11AccessErrorE6expectCsivhpxLWnNhi_12tokio_macros, symObjAddr: 0x2F0C, symBinAddr: 0xEF44, symSize: 0x84 }
  - { offset: 0x3BC54, size: 0x8, addend: 0x0, symName: __RNvMNtCsATtFUPiRFW_3syn5dropsINtB2_6NoDropINtNtB4_10punctuated14PrivateIterMutNtNtB4_3pat3PatNtNtB4_5token2OrEE3newCsivhpxLWnNhi_12tokio_macros, symObjAddr: 0x2F90, symBinAddr: 0xEFC8, symSize: 0x40 }
  - { offset: 0x3BCDE, size: 0x8, addend: 0x0, symName: __RNvMNtCsATtFUPiRFW_3syn5dropsINtB2_6NoDropINtNtB4_10punctuated14PrivateIterMutNtNtB4_3pat3PatNtNtB4_5token5CommaEE3newCsivhpxLWnNhi_12tokio_macros, symObjAddr: 0x2FD0, symBinAddr: 0xF008, symSize: 0x40 }
  - { offset: 0x3BD75, size: 0x8, addend: 0x0, symName: __RNvMNtCsATtFUPiRFW_3syn5dropsINtB2_6NoDropINtNtB4_10punctuated14PrivateIterMutNtNtB4_3pat8FieldPatNtNtB4_5token5CommaEE3newCsivhpxLWnNhi_12tokio_macros, symObjAddr: 0x3010, symBinAddr: 0xF048, symSize: 0x40 }
  - { offset: 0x3BDBD, size: 0x8, addend: 0x0, symName: __RNvMNtNtCs62MdaZFMefA_5quote9___private8get_spanINtB2_7GetSpanNtCs475r2uZUTuc_11proc_macro24SpanE11___into_spanCsivhpxLWnNhi_12tokio_macros, symObjAddr: 0x3050, symBinAddr: 0xF088, symSize: 0x20 }
  - { offset: 0x3BDDF, size: 0x8, addend: 0x0, symName: __RNvMs2_NtCs62MdaZFMefA_5quote9___privateINtB5_9RepInterpRNtCs475r2uZUTuc_11proc_macro25IdentE4nextCsivhpxLWnNhi_12tokio_macros, symObjAddr: 0x3070, symBinAddr: 0xF0A8, symSize: 0x2C }
  - { offset: 0x3C045, size: 0x8, addend: 0x0, symName: __RNvMs3_NtNtCsjLJ1XWNSM6u_10proc_macro6bridge6bufferNtB5_6Buffer17extend_from_sliceCsivhpxLWnNhi_12tokio_macros, symObjAddr: 0x309C, symBinAddr: 0xF0D4, symSize: 0x208 }
  - { offset: 0x3C6AF, size: 0x8, addend: 0x0, symName: __RNvMs3_NtNtCsjLJ1XWNSM6u_10proc_macro6bridge6bufferNtB5_6Buffer4pushCsivhpxLWnNhi_12tokio_macros, symObjAddr: 0x32A4, symBinAddr: 0xF2DC, symSize: 0x1E0 }
  - { offset: 0x3DA98, size: 0x8, addend: 0x0, symName: __RINvNtNtCsjLJ1XWNSM6u_10proc_macro6bridge6client10run_clientNtB2_11TokenStreamINtNtCs9f3LFPSIp77_4core6option6OptionBW_ENCNCINvMs7_B2_INtB2_6ClientNtB6_11TokenStreamB2l_E7expand1NvCsivhpxLWnNhi_12tokio_macros25select_priv_clean_patternE00EB2S_, symObjAddr: 0x0, symBinAddr: 0x11CA4, symSize: 0x21C }
  - { offset: 0x3F694, size: 0x8, addend: 0x0, symName: __RNCINvNtNtCsjLJ1XWNSM6u_10proc_macro6bridge6client10run_clientNtB4_11TokenStreamINtNtCs9f3LFPSIp77_4core6option6OptionBY_ENCNCINvMs7_B4_INtB4_6ClientNtB8_11TokenStreamB2n_E7expand1NvCsivhpxLWnNhi_12tokio_macros25select_priv_clean_patternE00E0B2U_, symObjAddr: 0x1260, symBinAddr: 0x12F04, symSize: 0x3DC }
  - { offset: 0x3FBEE, size: 0x8, addend: 0x0, symName: __RNCINvNtNtCsjLJ1XWNSM6u_10proc_macro6bridge6client10run_clientNtB4_11TokenStreamINtNtCs9f3LFPSIp77_4core6option6OptionBY_ENCNCINvMs7_B4_INtB4_6ClientNtB8_11TokenStreamB2n_E7expand1NvCsivhpxLWnNhi_12tokio_macros31select_priv_declare_output_enumE00E0B2U_, symObjAddr: 0x163C, symBinAddr: 0x132E0, symSize: 0x3DC }
  - { offset: 0x40148, size: 0x8, addend: 0x0, symName: __RNCINvNtNtCsjLJ1XWNSM6u_10proc_macro6bridge6client10run_clientTNtB4_11TokenStreamBZ_EINtNtCs9f3LFPSIp77_4core6option6OptionBZ_ENCNCINvMs8_B4_INtB4_6ClientTNtB8_11TokenStreamB2t_EB2t_E7expand2NvCsivhpxLWnNhi_12tokio_macros4mainE00E0B35_, symObjAddr: 0x1A18, symBinAddr: 0x136BC, symSize: 0x3FC }
  - { offset: 0x406A2, size: 0x8, addend: 0x0, symName: __RNCINvNtNtCsjLJ1XWNSM6u_10proc_macro6bridge6client10run_clientTNtB4_11TokenStreamBZ_EINtNtCs9f3LFPSIp77_4core6option6OptionBZ_ENCNCINvMs8_B4_INtB4_6ClientTNtB8_11TokenStreamB2t_EB2t_E7expand2NvCsivhpxLWnNhi_12tokio_macros4testE00E0B35_, symObjAddr: 0x1E14, symBinAddr: 0x13AB8, symSize: 0x3FC }
  - { offset: 0x40BFC, size: 0x8, addend: 0x0, symName: __RNCINvNtNtCsjLJ1XWNSM6u_10proc_macro6bridge6client10run_clientTNtB4_11TokenStreamBZ_EINtNtCs9f3LFPSIp77_4core6option6OptionBZ_ENCNCINvMs8_B4_INtB4_6ClientTNtB8_11TokenStreamB2t_EB2t_E7expand2NvCsivhpxLWnNhi_12tokio_macros7main_rtE00E0B35_, symObjAddr: 0x2210, symBinAddr: 0x13EB4, symSize: 0x3FC }
  - { offset: 0x41156, size: 0x8, addend: 0x0, symName: __RNCINvNtNtCsjLJ1XWNSM6u_10proc_macro6bridge6client10run_clientTNtB4_11TokenStreamBZ_EINtNtCs9f3LFPSIp77_4core6option6OptionBZ_ENCNCINvMs8_B4_INtB4_6ClientTNtB8_11TokenStreamB2t_EB2t_E7expand2NvCsivhpxLWnNhi_12tokio_macros7test_rtE00E0B35_, symObjAddr: 0x260C, symBinAddr: 0x142B0, symSize: 0x3FC }
  - { offset: 0x416B0, size: 0x8, addend: 0x0, symName: __RNCINvNtNtCsjLJ1XWNSM6u_10proc_macro6bridge6client10run_clientTNtB4_11TokenStreamBZ_EINtNtCs9f3LFPSIp77_4core6option6OptionBZ_ENCNCINvMs8_B4_INtB4_6ClientTNtB8_11TokenStreamB2t_EB2t_E7expand2NvCsivhpxLWnNhi_12tokio_macros9main_failE00E0B35_, symObjAddr: 0x2A08, symBinAddr: 0x146AC, symSize: 0x3FC }
  - { offset: 0x41C0A, size: 0x8, addend: 0x0, symName: __RNCINvNtNtCsjLJ1XWNSM6u_10proc_macro6bridge6client10run_clientTNtB4_11TokenStreamBZ_EINtNtCs9f3LFPSIp77_4core6option6OptionBZ_ENCNCINvMs8_B4_INtB4_6ClientTNtB8_11TokenStreamB2t_EB2t_E7expand2NvCsivhpxLWnNhi_12tokio_macros9test_failE00E0B35_, symObjAddr: 0x2E04, symBinAddr: 0x14AA8, symSize: 0x3FC }
  - { offset: 0x42169, size: 0x8, addend: 0x0, symName: __RNCNCINvNtNtCsjLJ1XWNSM6u_10proc_macro6bridge6client10run_clientNtB6_11TokenStreamINtNtCs9f3LFPSIp77_4core6option6OptionB10_ENCNCINvMs7_B6_INtB6_6ClientNtBa_11TokenStreamB2q_E7expand1NvCsivhpxLWnNhi_12tokio_macros25select_priv_clean_patternE00E00B2X_, symObjAddr: 0x33F8, symBinAddr: 0x1509C, symSize: 0x28 }
  - { offset: 0x421C2, size: 0x8, addend: 0x0, symName: __RNCNCINvNtNtCsjLJ1XWNSM6u_10proc_macro6bridge6client10run_clientNtB6_11TokenStreamINtNtCs9f3LFPSIp77_4core6option6OptionB10_ENCNCINvMs7_B6_INtB6_6ClientNtBa_11TokenStreamB2q_E7expand1NvCsivhpxLWnNhi_12tokio_macros31select_priv_declare_output_enumE00E00B2X_, symObjAddr: 0x3420, symBinAddr: 0x150C4, symSize: 0x28 }
  - { offset: 0x4221B, size: 0x8, addend: 0x0, symName: __RNCNCINvNtNtCsjLJ1XWNSM6u_10proc_macro6bridge6client10run_clientTNtB6_11TokenStreamB11_EINtNtCs9f3LFPSIp77_4core6option6OptionB11_ENCNCINvMs8_B6_INtB6_6ClientTNtBa_11TokenStreamB2x_EB2x_E7expand2NvCsivhpxLWnNhi_12tokio_macros4mainE00E00B39_, symObjAddr: 0x3448, symBinAddr: 0x150EC, symSize: 0x24 }
  - { offset: 0x42276, size: 0x8, addend: 0x0, symName: __RNCNCINvNtNtCsjLJ1XWNSM6u_10proc_macro6bridge6client10run_clientTNtB6_11TokenStreamB11_EINtNtCs9f3LFPSIp77_4core6option6OptionB11_ENCNCINvMs8_B6_INtB6_6ClientTNtBa_11TokenStreamB2x_EB2x_E7expand2NvCsivhpxLWnNhi_12tokio_macros4testE00E00B39_, symObjAddr: 0x346C, symBinAddr: 0x15110, symSize: 0x24 }
  - { offset: 0x422D1, size: 0x8, addend: 0x0, symName: __RNCNCINvNtNtCsjLJ1XWNSM6u_10proc_macro6bridge6client10run_clientTNtB6_11TokenStreamB11_EINtNtCs9f3LFPSIp77_4core6option6OptionB11_ENCNCINvMs8_B6_INtB6_6ClientTNtBa_11TokenStreamB2x_EB2x_E7expand2NvCsivhpxLWnNhi_12tokio_macros7main_rtE00E00B39_, symObjAddr: 0x3490, symBinAddr: 0x15134, symSize: 0x24 }
  - { offset: 0x4232C, size: 0x8, addend: 0x0, symName: __RNCNCINvNtNtCsjLJ1XWNSM6u_10proc_macro6bridge6client10run_clientTNtB6_11TokenStreamB11_EINtNtCs9f3LFPSIp77_4core6option6OptionB11_ENCNCINvMs8_B6_INtB6_6ClientTNtBa_11TokenStreamB2x_EB2x_E7expand2NvCsivhpxLWnNhi_12tokio_macros7test_rtE00E00B39_, symObjAddr: 0x34B4, symBinAddr: 0x15158, symSize: 0x24 }
  - { offset: 0x42387, size: 0x8, addend: 0x0, symName: __RNCNCINvNtNtCsjLJ1XWNSM6u_10proc_macro6bridge6client10run_clientTNtB6_11TokenStreamB11_EINtNtCs9f3LFPSIp77_4core6option6OptionB11_ENCNCINvMs8_B6_INtB6_6ClientTNtBa_11TokenStreamB2x_EB2x_E7expand2NvCsivhpxLWnNhi_12tokio_macros9main_failE00E00B39_, symObjAddr: 0x34D8, symBinAddr: 0x1517C, symSize: 0x24 }
  - { offset: 0x423E2, size: 0x8, addend: 0x0, symName: __RNCNCINvNtNtCsjLJ1XWNSM6u_10proc_macro6bridge6client10run_clientTNtB6_11TokenStreamB11_EINtNtCs9f3LFPSIp77_4core6option6OptionB11_ENCNCINvMs8_B6_INtB6_6ClientTNtBa_11TokenStreamB2x_EB2x_E7expand2NvCsivhpxLWnNhi_12tokio_macros9test_failE00E00B39_, symObjAddr: 0x34FC, symBinAddr: 0x151A0, symSize: 0x24 }
  - { offset: 0x42474, size: 0x8, addend: 0x0, symName: __RNCNCINvMs7_NtNtCsjLJ1XWNSM6u_10proc_macro6bridge6clientINtBa_6ClientNtBe_11TokenStreamB15_E7expand1NvCsivhpxLWnNhi_12tokio_macros25select_priv_clean_patternE00B1C_, symObjAddr: 0x3200, symBinAddr: 0x14EA4, symSize: 0x30 }
  - { offset: 0x424BB, size: 0x8, addend: 0x0, symName: __RNCNCINvMs7_NtNtCsjLJ1XWNSM6u_10proc_macro6bridge6clientINtBa_6ClientNtBe_11TokenStreamB15_E7expand1NvCsivhpxLWnNhi_12tokio_macros31select_priv_declare_output_enumE00B1C_, symObjAddr: 0x3230, symBinAddr: 0x14ED4, symSize: 0x30 }
  - { offset: 0x42503, size: 0x8, addend: 0x0, symName: __RNCINvMs7_NtNtCsjLJ1XWNSM6u_10proc_macro6bridge6clientINtB8_6ClientNtBc_11TokenStreamB13_E7expand1NvCsivhpxLWnNhi_12tokio_macros25select_priv_clean_patternE0B1A_, symObjAddr: 0x10E0, symBinAddr: 0x12D84, symSize: 0x30 }
  - { offset: 0x4254B, size: 0x8, addend: 0x0, symName: __RNCINvMs7_NtNtCsjLJ1XWNSM6u_10proc_macro6bridge6clientINtB8_6ClientNtBc_11TokenStreamB13_E7expand1NvCsivhpxLWnNhi_12tokio_macros31select_priv_declare_output_enumE0B1A_, symObjAddr: 0x1110, symBinAddr: 0x12DB4, symSize: 0x30 }
  - { offset: 0x425B6, size: 0x8, addend: 0x0, symName: __RINvNtNtCsjLJ1XWNSM6u_10proc_macro6bridge6client10run_clientNtB2_11TokenStreamINtNtCs9f3LFPSIp77_4core6option6OptionBW_ENCNCINvMs7_B2_INtB2_6ClientNtB6_11TokenStreamB2l_E7expand1NvCsivhpxLWnNhi_12tokio_macros25select_priv_clean_patternE00EB2S_, symObjAddr: 0x0, symBinAddr: 0x11CA4, symSize: 0x21C }
  - { offset: 0x42775, size: 0x8, addend: 0x0, symName: __RINvNtNtCsjLJ1XWNSM6u_10proc_macro6bridge6client10run_clientNtB2_11TokenStreamINtNtCs9f3LFPSIp77_4core6option6OptionBW_ENCNCINvMs7_B2_INtB2_6ClientNtB6_11TokenStreamB2l_E7expand1NvCsivhpxLWnNhi_12tokio_macros31select_priv_declare_output_enumE00EB2S_, symObjAddr: 0x21C, symBinAddr: 0x11EC0, symSize: 0x21C }
  - { offset: 0x429B5, size: 0x8, addend: 0x0, symName: __RNCNCINvMs8_NtNtCsjLJ1XWNSM6u_10proc_macro6bridge6clientINtBa_6ClientTNtBe_11TokenStreamB16_EB16_E7expand2NvCsivhpxLWnNhi_12tokio_macros4mainE00B1I_, symObjAddr: 0x3260, symBinAddr: 0x14F04, symSize: 0x44 }
  - { offset: 0x42A24, size: 0x8, addend: 0x0, symName: __RNCNCINvMs8_NtNtCsjLJ1XWNSM6u_10proc_macro6bridge6clientINtBa_6ClientTNtBe_11TokenStreamB16_EB16_E7expand2NvCsivhpxLWnNhi_12tokio_macros4testE00B1I_, symObjAddr: 0x32A4, symBinAddr: 0x14F48, symSize: 0x44 }
  - { offset: 0x42A93, size: 0x8, addend: 0x0, symName: __RNCNCINvMs8_NtNtCsjLJ1XWNSM6u_10proc_macro6bridge6clientINtBa_6ClientTNtBe_11TokenStreamB16_EB16_E7expand2NvCsivhpxLWnNhi_12tokio_macros7main_rtE00B1I_, symObjAddr: 0x32E8, symBinAddr: 0x14F8C, symSize: 0x44 }
  - { offset: 0x42B02, size: 0x8, addend: 0x0, symName: __RNCNCINvMs8_NtNtCsjLJ1XWNSM6u_10proc_macro6bridge6clientINtBa_6ClientTNtBe_11TokenStreamB16_EB16_E7expand2NvCsivhpxLWnNhi_12tokio_macros7test_rtE00B1I_, symObjAddr: 0x332C, symBinAddr: 0x14FD0, symSize: 0x44 }
  - { offset: 0x42B71, size: 0x8, addend: 0x0, symName: __RNCNCINvMs8_NtNtCsjLJ1XWNSM6u_10proc_macro6bridge6clientINtBa_6ClientTNtBe_11TokenStreamB16_EB16_E7expand2NvCsivhpxLWnNhi_12tokio_macros9main_failE00B1I_, symObjAddr: 0x3370, symBinAddr: 0x15014, symSize: 0x44 }
  - { offset: 0x42BE0, size: 0x8, addend: 0x0, symName: __RNCNCINvMs8_NtNtCsjLJ1XWNSM6u_10proc_macro6bridge6clientINtBa_6ClientTNtBe_11TokenStreamB16_EB16_E7expand2NvCsivhpxLWnNhi_12tokio_macros9test_failE00B1I_, symObjAddr: 0x33B4, symBinAddr: 0x15058, symSize: 0x44 }
  - { offset: 0x42C50, size: 0x8, addend: 0x0, symName: __RNCINvMs8_NtNtCsjLJ1XWNSM6u_10proc_macro6bridge6clientINtB8_6ClientTNtBc_11TokenStreamB14_EB14_E7expand2NvCsivhpxLWnNhi_12tokio_macros4mainE0B1G_, symObjAddr: 0x1140, symBinAddr: 0x12DE4, symSize: 0x30 }
  - { offset: 0x42C98, size: 0x8, addend: 0x0, symName: __RNCINvMs8_NtNtCsjLJ1XWNSM6u_10proc_macro6bridge6clientINtB8_6ClientTNtBc_11TokenStreamB14_EB14_E7expand2NvCsivhpxLWnNhi_12tokio_macros4testE0B1G_, symObjAddr: 0x1170, symBinAddr: 0x12E14, symSize: 0x30 }
  - { offset: 0x42CE0, size: 0x8, addend: 0x0, symName: __RNCINvMs8_NtNtCsjLJ1XWNSM6u_10proc_macro6bridge6clientINtB8_6ClientTNtBc_11TokenStreamB14_EB14_E7expand2NvCsivhpxLWnNhi_12tokio_macros7main_rtE0B1G_, symObjAddr: 0x11A0, symBinAddr: 0x12E44, symSize: 0x30 }
  - { offset: 0x42D28, size: 0x8, addend: 0x0, symName: __RNCINvMs8_NtNtCsjLJ1XWNSM6u_10proc_macro6bridge6clientINtB8_6ClientTNtBc_11TokenStreamB14_EB14_E7expand2NvCsivhpxLWnNhi_12tokio_macros7test_rtE0B1G_, symObjAddr: 0x11D0, symBinAddr: 0x12E74, symSize: 0x30 }
  - { offset: 0x42D70, size: 0x8, addend: 0x0, symName: __RNCINvMs8_NtNtCsjLJ1XWNSM6u_10proc_macro6bridge6clientINtB8_6ClientTNtBc_11TokenStreamB14_EB14_E7expand2NvCsivhpxLWnNhi_12tokio_macros9main_failE0B1G_, symObjAddr: 0x1200, symBinAddr: 0x12EA4, symSize: 0x30 }
  - { offset: 0x42DB8, size: 0x8, addend: 0x0, symName: __RNCINvMs8_NtNtCsjLJ1XWNSM6u_10proc_macro6bridge6clientINtB8_6ClientTNtBc_11TokenStreamB14_EB14_E7expand2NvCsivhpxLWnNhi_12tokio_macros9test_failE0B1G_, symObjAddr: 0x1230, symBinAddr: 0x12ED4, symSize: 0x30 }
  - { offset: 0x42E02, size: 0x8, addend: 0x0, symName: __RINvNtNtCsjLJ1XWNSM6u_10proc_macro6bridge6client10run_clientTNtB2_11TokenStreamBX_EINtNtCs9f3LFPSIp77_4core6option6OptionBX_ENCNCINvMs8_B2_INtB2_6ClientTNtB6_11TokenStreamB2r_EB2r_E7expand2NvCsivhpxLWnNhi_12tokio_macros4mainE00EB33_, symObjAddr: 0x438, symBinAddr: 0x120DC, symSize: 0x21C }
  - { offset: 0x42FC1, size: 0x8, addend: 0x0, symName: __RINvNtNtCsjLJ1XWNSM6u_10proc_macro6bridge6client10run_clientTNtB2_11TokenStreamBX_EINtNtCs9f3LFPSIp77_4core6option6OptionBX_ENCNCINvMs8_B2_INtB2_6ClientTNtB6_11TokenStreamB2r_EB2r_E7expand2NvCsivhpxLWnNhi_12tokio_macros4testE00EB33_, symObjAddr: 0x654, symBinAddr: 0x122F8, symSize: 0x21C }
  - { offset: 0x43180, size: 0x8, addend: 0x0, symName: __RINvNtNtCsjLJ1XWNSM6u_10proc_macro6bridge6client10run_clientTNtB2_11TokenStreamBX_EINtNtCs9f3LFPSIp77_4core6option6OptionBX_ENCNCINvMs8_B2_INtB2_6ClientTNtB6_11TokenStreamB2r_EB2r_E7expand2NvCsivhpxLWnNhi_12tokio_macros7main_rtE00EB33_, symObjAddr: 0x870, symBinAddr: 0x12514, symSize: 0x21C }
  - { offset: 0x4333F, size: 0x8, addend: 0x0, symName: __RINvNtNtCsjLJ1XWNSM6u_10proc_macro6bridge6client10run_clientTNtB2_11TokenStreamBX_EINtNtCs9f3LFPSIp77_4core6option6OptionBX_ENCNCINvMs8_B2_INtB2_6ClientTNtB6_11TokenStreamB2r_EB2r_E7expand2NvCsivhpxLWnNhi_12tokio_macros7test_rtE00EB33_, symObjAddr: 0xA8C, symBinAddr: 0x12730, symSize: 0x21C }
  - { offset: 0x434FE, size: 0x8, addend: 0x0, symName: __RINvNtNtCsjLJ1XWNSM6u_10proc_macro6bridge6client10run_clientTNtB2_11TokenStreamBX_EINtNtCs9f3LFPSIp77_4core6option6OptionBX_ENCNCINvMs8_B2_INtB2_6ClientTNtB6_11TokenStreamB2r_EB2r_E7expand2NvCsivhpxLWnNhi_12tokio_macros9main_failE00EB33_, symObjAddr: 0xCA8, symBinAddr: 0x1294C, symSize: 0x21C }
  - { offset: 0x436BD, size: 0x8, addend: 0x0, symName: __RINvNtNtCsjLJ1XWNSM6u_10proc_macro6bridge6client10run_clientTNtB2_11TokenStreamBX_EINtNtCs9f3LFPSIp77_4core6option6OptionBX_ENCNCINvMs8_B2_INtB2_6ClientTNtB6_11TokenStreamB2r_EB2r_E7expand2NvCsivhpxLWnNhi_12tokio_macros9test_failE00EB33_, symObjAddr: 0xEC4, symBinAddr: 0x12B68, symSize: 0x21C }
  - { offset: 0x43917, size: 0x8, addend: 0x0, symName: __RNvXsh_NtNtCsjLJ1XWNSM6u_10proc_macro6bridge6clientNtB5_11TokenStreamINtNtB7_3rpc6EncodeuE6encodeCsivhpxLWnNhi_12tokio_macros, symObjAddr: 0x35AC, symBinAddr: 0x15250, symSize: 0x50 }
  - { offset: 0x43A31, size: 0x8, addend: 0x0, symName: __RNvXsk_NtNtCsjLJ1XWNSM6u_10proc_macro6bridge6clientNtB5_11TokenStreamINtNtB7_3rpc9DecodeMutuE6decodeCsivhpxLWnNhi_12tokio_macros, symObjAddr: 0x35FC, symBinAddr: 0x152A0, symSize: 0x2C }
  - { offset: 0x43A7A, size: 0x8, addend: 0x0, symName: __RNvXsr_NtNtCsjLJ1XWNSM6u_10proc_macro6bridge6clientNtB5_4SpanINtNtB7_3rpc9DecodeMutuE6decodeCsivhpxLWnNhi_12tokio_macros, symObjAddr: 0x3628, symBinAddr: 0x152CC, symSize: 0x2C }
  - { offset: 0x43FF8, size: 0x8, addend: 0x0, symName: __RNvXs9_NtNtCsjLJ1XWNSM6u_10proc_macro6bridge3rpcTNtNtB7_6client11TokenStreamBL_EINtB5_9DecodeMutuE6decodeCsivhpxLWnNhi_12tokio_macros, symObjAddr: 0x352C, symBinAddr: 0x151D0, symSize: 0x80 }
  - { offset: 0x46970, size: 0x8, addend: 0x0, symName: __RNvMsa_NtNtCsjLJ1XWNSM6u_10proc_macro6bridge6clientNtB5_14HandleCounters3getCsivhpxLWnNhi_12tokio_macros, symObjAddr: 0x3520, symBinAddr: 0x151C4, symSize: 0xC }
  - { offset: 0x469F2, size: 0x8, addend: 0x0, symName: __RNvXs1_NtNtNtCs9f3LFPSIp77_4core3ops8function5implsQNCNvNtCsivhpxLWnNhi_12tokio_macros5entry4test0INtB7_5FnMutTRRNtNtCsATtFUPiRFW_3syn4attr9AttributeEE8call_mutBU_, symObjAddr: 0x0, symBinAddr: 0x1534C, symSize: 0x30 }
  - { offset: 0x46BEC, size: 0x8, addend: 0x0, symName: __RNvXs1_NtNtNtCs9f3LFPSIp77_4core3ops8function5implsQNCNvNtCsivhpxLWnNhi_12tokio_macros5entry4test0INtB7_5FnMutTRRNtNtCsATtFUPiRFW_3syn4attr9AttributeEE8call_mutBU_, symObjAddr: 0x0, symBinAddr: 0x1534C, symSize: 0x30 }
  - { offset: 0x46C49, size: 0x8, addend: 0x0, symName: __RNvYNtNtCsivhpxLWnNhi_12tokio_macros5entry13RuntimeFlavorNtNtCs9f3LFPSIp77_4core3cmp9PartialEq2neB6_, symObjAddr: 0x30, symBinAddr: 0x1537C, symSize: 0x30 }
  - { offset: 0x46C98, size: 0x8, addend: 0x0, symName: __RNvYNtNtCsivhpxLWnNhi_12tokio_macros5entry14UnhandledPanicNtNtCs9f3LFPSIp77_4core3cmp9PartialEq2neB6_, symObjAddr: 0xA8, symBinAddr: 0x153F4, symSize: 0x30 }
  - { offset: 0x46CF3, size: 0x8, addend: 0x0, symName: __RNvYNtNtCsivhpxLWnNhi_12tokio_macros5entry13RuntimeFlavorNtNtCs9f3LFPSIp77_4core5clone5Clone10clone_fromB6_, symObjAddr: 0x60, symBinAddr: 0x153AC, symSize: 0x48 }
  - { offset: 0x46D32, size: 0x8, addend: 0x0, symName: __RNvYNtNtCsivhpxLWnNhi_12tokio_macros5entry14UnhandledPanicNtNtCs9f3LFPSIp77_4core5clone5Clone10clone_fromB6_, symObjAddr: 0xD8, symBinAddr: 0x15424, symSize: 0x48 }
  - { offset: 0x4A6CC, size: 0x8, addend: 0x0, symName: __RNCNvMs0_NtCsivhpxLWnNhi_12tokio_macros5entryNtB7_13Configuration10set_flavor0B9_, symObjAddr: 0xC38, symBinAddr: 0x15F84, symSize: 0x38 }
  - { offset: 0x4A70E, size: 0x8, addend: 0x0, symName: __RNCNvMs0_NtCsivhpxLWnNhi_12tokio_macros5entryNtB7_13Configuration19set_unhandled_panic0B9_, symObjAddr: 0x169C, symBinAddr: 0x169E8, symSize: 0x38 }
  - { offset: 0x4A750, size: 0x8, addend: 0x0, symName: __RNCNvMs0_NtCsivhpxLWnNhi_12tokio_macros5entryNtB7_13Configuration5build0B9_, symObjAddr: 0x1DF4, symBinAddr: 0x17140, symSize: 0x2C }
  - { offset: 0x4A7D0, size: 0x8, addend: 0x0, symName: __RNvNtCsivhpxLWnNhi_12tokio_macros5entry9parse_int, symObjAddr: 0x1E20, symBinAddr: 0x1716C, symSize: 0x3CC }
  - { offset: 0x4A9C4, size: 0x8, addend: 0x0, symName: __RNvNtCsivhpxLWnNhi_12tokio_macros5entry12parse_string, symObjAddr: 0x21EC, symBinAddr: 0x17538, symSize: 0x350 }
  - { offset: 0x4AABA, size: 0x8, addend: 0x0, symName: __RNvNtCsivhpxLWnNhi_12tokio_macros5entry10parse_path, symObjAddr: 0x253C, symBinAddr: 0x17888, symSize: 0x3C0 }
  - { offset: 0x4ACBE, size: 0x8, addend: 0x0, symName: __RNCNvNtCsivhpxLWnNhi_12tokio_macros5entry10parse_path0B5_, symObjAddr: 0x28FC, symBinAddr: 0x17C48, symSize: 0x6C }
  - { offset: 0x4ACFB, size: 0x8, addend: 0x0, symName: __RNvNtCsivhpxLWnNhi_12tokio_macros5entry10parse_bool, symObjAddr: 0x2968, symBinAddr: 0x17CB4, symSize: 0x1A0 }
  - { offset: 0x4ADE6, size: 0x8, addend: 0x0, symName: __RNvNtCsivhpxLWnNhi_12tokio_macros5entry12build_config, symObjAddr: 0x2B08, symBinAddr: 0x17E54, symSize: 0x1668 }
  - { offset: 0x4B31D, size: 0x8, addend: 0x0, symName: __RNCNvNtCsivhpxLWnNhi_12tokio_macros5entry12build_config0B5_, symObjAddr: 0x4170, symBinAddr: 0x194BC, symSize: 0x44 }
  - { offset: 0x4B34D, size: 0x8, addend: 0x0, symName: __RNCNvNtCsivhpxLWnNhi_12tokio_macros5entry12build_configs_0B5_, symObjAddr: 0x41B4, symBinAddr: 0x19500, symSize: 0x44 }
  - { offset: 0x4B37E, size: 0x8, addend: 0x0, symName: __RNvNtCsivhpxLWnNhi_12tokio_macros5entry11parse_knobs, symObjAddr: 0x41F8, symBinAddr: 0x19544, symSize: 0x1A30 }
  - { offset: 0x4B880, size: 0x8, addend: 0x0, symName: __RNCNvNtCsivhpxLWnNhi_12tokio_macros5entry11parse_knobs0B5_, symObjAddr: 0x5C28, symBinAddr: 0x1AF74, symSize: 0x6C }
  - { offset: 0x4B8BA, size: 0x8, addend: 0x0, symName: __RNCNvNtCsivhpxLWnNhi_12tokio_macros5entry11parse_knobss_0B5_, symObjAddr: 0x5C94, symBinAddr: 0x1AFE0, symSize: 0x6C }
  - { offset: 0x4B8F4, size: 0x8, addend: 0x0, symName: __RNCNvNtCsivhpxLWnNhi_12tokio_macros5entry11parse_knobss0_0B5_, symObjAddr: 0x5D00, symBinAddr: 0x1B04C, symSize: 0x68 }
  - { offset: 0x4B932, size: 0x8, addend: 0x0, symName: __RNvNtCsivhpxLWnNhi_12tokio_macros5entry23token_stream_with_error, symObjAddr: 0x5D68, symBinAddr: 0x1B0B4, symSize: 0x90 }
  - { offset: 0x4B971, size: 0x8, addend: 0x0, symName: __RNvNtCsivhpxLWnNhi_12tokio_macros5entry4main, symObjAddr: 0x5DF8, symBinAddr: 0x1B144, symSize: 0x49C }
  - { offset: 0x4BA6E, size: 0x8, addend: 0x0, symName: __RNCNvNtCsivhpxLWnNhi_12tokio_macros5entry4main0B5_, symObjAddr: 0x6294, symBinAddr: 0x1B5E0, symSize: 0x54 }
  - { offset: 0x4BABF, size: 0x8, addend: 0x0, symName: __RNvNtCsivhpxLWnNhi_12tokio_macros5entry17is_test_attribute, symObjAddr: 0x62E8, symBinAddr: 0x1B634, symSize: 0x30C }
  - { offset: 0x4BB21, size: 0x8, addend: 0x0, symName: __RNCNvNtCsivhpxLWnNhi_12tokio_macros5entry17is_test_attribute0B5_, symObjAddr: 0x65F4, symBinAddr: 0x1B940, symSize: 0xC4 }
  - { offset: 0x4BB68, size: 0x8, addend: 0x0, symName: __RNCNCNvNtCsivhpxLWnNhi_12tokio_macros5entry17is_test_attribute00B7_, symObjAddr: 0x66B8, symBinAddr: 0x1BA04, symSize: 0xDC }
  - { offset: 0x4BBCD, size: 0x8, addend: 0x0, symName: __RNvNtCsivhpxLWnNhi_12tokio_macros5entry4test, symObjAddr: 0x6794, symBinAddr: 0x1BAE0, symSize: 0x51C }
  - { offset: 0x4BCE1, size: 0x8, addend: 0x0, symName: __RNCNvNtCsivhpxLWnNhi_12tokio_macros5entry4test0B5_, symObjAddr: 0x6CB0, symBinAddr: 0x1BFFC, symSize: 0x3C }
  - { offset: 0x4BD1A, size: 0x8, addend: 0x0, symName: __RNCNvNtCsivhpxLWnNhi_12tokio_macros5entry4tests_0B5_, symObjAddr: 0x6CEC, symBinAddr: 0x1C038, symSize: 0x54 }
  - { offset: 0x4BE45, size: 0x8, addend: 0x0, symName: __RNCNvMs1_NtCsivhpxLWnNhi_12tokio_macros5entryNtB7_6ItemFn11into_tokens0B9_, symObjAddr: 0x7248, symBinAddr: 0x1C594, symSize: 0x58 }
  - { offset: 0x4BE9A, size: 0x8, addend: 0x0, symName: __RNvXs2_NtCsivhpxLWnNhi_12tokio_macros5entryNtB5_6ItemFnNtNtCsATtFUPiRFW_3syn5parse5Parse5parseB7_, symObjAddr: 0x72A0, symBinAddr: 0x1C5EC, symSize: 0x97C }
  - { offset: 0x4C0E0, size: 0x8, addend: 0x0, symName: __RNvXs3_NtCsivhpxLWnNhi_12tokio_macros5entryNtB5_4BodyNtNtCs62MdaZFMefA_5quote9to_tokens8ToTokens9to_tokens, symObjAddr: 0x7C1C, symBinAddr: 0x1CF68, symSize: 0x44 }
  - { offset: 0x4C11E, size: 0x8, addend: 0x0, symName: __RNCNvXs3_NtCsivhpxLWnNhi_12tokio_macros5entryNtB7_4BodyNtNtCs62MdaZFMefA_5quote9to_tokens8ToTokens9to_tokens0B9_, symObjAddr: 0x7C60, symBinAddr: 0x1CFAC, symSize: 0x98 }
  - { offset: 0x4C18C, size: 0x8, addend: 0x0, symName: __RNvXs4_NtCsivhpxLWnNhi_12tokio_macros5entryNtB5_13RuntimeFlavorNtNtCs9f3LFPSIp77_4core5clone5Clone5cloneB7_, symObjAddr: 0x7CF8, symBinAddr: 0x1D044, symSize: 0x1C }
  - { offset: 0x4C1BE, size: 0x8, addend: 0x0, symName: __RNvXs7_NtCsivhpxLWnNhi_12tokio_macros5entryNtB5_13RuntimeFlavorNtNtCs9f3LFPSIp77_4core3cmp9PartialEq2eqB7_, symObjAddr: 0x7D14, symBinAddr: 0x1D060, symSize: 0x3C }
  - { offset: 0x4C238, size: 0x8, addend: 0x0, symName: __RNvXs8_NtCsivhpxLWnNhi_12tokio_macros5entryNtB5_14UnhandledPanicNtNtCs9f3LFPSIp77_4core5clone5Clone5cloneB7_, symObjAddr: 0x7D50, symBinAddr: 0x1D09C, symSize: 0x1C }
  - { offset: 0x4C26A, size: 0x8, addend: 0x0, symName: __RNvXsb_NtCsivhpxLWnNhi_12tokio_macros5entryNtB5_14UnhandledPanicNtNtCs9f3LFPSIp77_4core3cmp9PartialEq2eqB7_, symObjAddr: 0x7D6C, symBinAddr: 0x1D0B8, symSize: 0x3C }
  - { offset: 0x4C2F0, size: 0x8, addend: 0x0, symName: __RNvYNtNtCsivhpxLWnNhi_12tokio_macros5entry4BodyNtNtCs62MdaZFMefA_5quote9to_tokens8ToTokens15to_token_streamB6_, symObjAddr: 0x120, symBinAddr: 0x1546C, symSize: 0x8C }
  - { offset: 0x4C33A, size: 0x8, addend: 0x0, symName: __RNvYNtNtCsivhpxLWnNhi_12tokio_macros5entry4BodyNtNtCs62MdaZFMefA_5quote9to_tokens8ToTokens17into_token_streamB6_, symObjAddr: 0x1AC, symBinAddr: 0x154F8, symSize: 0x48 }
  - { offset: 0x4D4AC, size: 0x8, addend: 0x0, symName: __RNvMNtCsivhpxLWnNhi_12tokio_macros5entryNtB2_13RuntimeFlavor8from_str, symObjAddr: 0x1F4, symBinAddr: 0x15540, symSize: 0x2C4 }
  - { offset: 0x4D54B, size: 0x8, addend: 0x0, symName: __RNvMs_NtCsivhpxLWnNhi_12tokio_macros5entryNtB4_14UnhandledPanic8from_str, symObjAddr: 0x4B8, symBinAddr: 0x15804, symSize: 0x190 }
  - { offset: 0x4D643, size: 0x8, addend: 0x0, symName: __RNvMs_NtCsivhpxLWnNhi_12tokio_macros5entryNtB4_14UnhandledPanic11into_tokens, symObjAddr: 0x648, symBinAddr: 0x15994, symSize: 0x1F0 }
  - { offset: 0x52AA9, size: 0x8, addend: 0x0, symName: __RNvMs0_NtCsivhpxLWnNhi_12tokio_macros5entryNtB5_13Configuration3new, symObjAddr: 0x838, symBinAddr: 0x15B84, symSize: 0xF8 }
  - { offset: 0x52B07, size: 0x8, addend: 0x0, symName: __RNvMs0_NtCsivhpxLWnNhi_12tokio_macros5entryNtB5_13Configuration10set_flavor, symObjAddr: 0x930, symBinAddr: 0x15C7C, symSize: 0x308 }
  - { offset: 0x52BCA, size: 0x8, addend: 0x0, symName: __RNvMs0_NtCsivhpxLWnNhi_12tokio_macros5entryNtB5_13Configuration18set_worker_threads, symObjAddr: 0xC70, symBinAddr: 0x15FBC, symSize: 0x258 }
  - { offset: 0x52C34, size: 0x8, addend: 0x0, symName: __RNvMs0_NtCsivhpxLWnNhi_12tokio_macros5entryNtB5_13Configuration16set_start_paused, symObjAddr: 0xEC8, symBinAddr: 0x16214, symSize: 0x200 }
  - { offset: 0x52CA5, size: 0x8, addend: 0x0, symName: __RNvMs0_NtCsivhpxLWnNhi_12tokio_macros5entryNtB5_13Configuration14set_crate_name, symObjAddr: 0x10C8, symBinAddr: 0x16414, symSize: 0x2BC }
  - { offset: 0x52D36, size: 0x8, addend: 0x0, symName: __RNvMs0_NtCsivhpxLWnNhi_12tokio_macros5entryNtB5_13Configuration19set_unhandled_panic, symObjAddr: 0x1384, symBinAddr: 0x166D0, symSize: 0x318 }
  - { offset: 0x52E06, size: 0x8, addend: 0x0, symName: __RNvMs0_NtCsivhpxLWnNhi_12tokio_macros5entryNtB5_13Configuration10macro_name, symObjAddr: 0x16D4, symBinAddr: 0x16A20, symSize: 0x7C }
  - { offset: 0x52E28, size: 0x8, addend: 0x0, symName: __RNvMs0_NtCsivhpxLWnNhi_12tokio_macros5entryNtB5_13Configuration5build, symObjAddr: 0x1750, symBinAddr: 0x16A9C, symSize: 0x6A4 }
  - { offset: 0x5326D, size: 0x8, addend: 0x0, symName: __RNvMs1_NtCsivhpxLWnNhi_12tokio_macros5entryNtB5_6ItemFn5attrs, symObjAddr: 0x6D40, symBinAddr: 0x1C08C, symSize: 0x74 }
  - { offset: 0x532B7, size: 0x8, addend: 0x0, symName: __RNvMs1_NtCsivhpxLWnNhi_12tokio_macros5entryNtB5_6ItemFn4body, symObjAddr: 0x6DB4, symBinAddr: 0x1C100, symSize: 0x68 }
  - { offset: 0x532DA, size: 0x8, addend: 0x0, symName: __RNvMs1_NtCsivhpxLWnNhi_12tokio_macros5entryNtB5_6ItemFn11into_tokens, symObjAddr: 0x6E1C, symBinAddr: 0x1C168, symSize: 0x42C }
  - { offset: 0x53574, size: 0x8, addend: 0x0, symName: __RINvMsi_NtCsdze8u8oDPro_5alloc3vecINtB6_3VecNtCs475r2uZUTuc_11proc_macro25IdentE14extend_trustedINtNtNtNtCs9f3LFPSIp77_4core4iter8adapters3map3MapINtNtNtB1F_3ops5range5RangejENCNvNtCsivhpxLWnNhi_12tokio_macros6select19declare_output_enum0EEB2T_, symObjAddr: 0x0, symBinAddr: 0x1D0F4, symSize: 0x184 }
  - { offset: 0x53A5B, size: 0x8, addend: 0x0, symName: __RNCNvXs8_NtCsATtFUPiRFW_3syn10punctuatedINtB7_10PunctuatedNtNtB9_4attr4MetaNtNtB9_5token5CommaENtNtNtNtCs9f3LFPSIp77_4core4iter6traits7collect12IntoIterator9into_iter0CsivhpxLWnNhi_12tokio_macros, symObjAddr: 0x7F4, symBinAddr: 0x1D8E8, symSize: 0x44 }
  - { offset: 0x53AA7, size: 0x8, addend: 0x0, symName: __RNCNvXs8_NtCsATtFUPiRFW_3syn10punctuatedINtB7_10PunctuatedNtNtB9_4attr4MetaNtNtB9_5token5CommaENtNtNtNtCs9f3LFPSIp77_4core4iter6traits7collect12IntoIterator9into_iters_0CsivhpxLWnNhi_12tokio_macros, symObjAddr: 0x838, symBinAddr: 0x1D92C, symSize: 0x78 }
  - { offset: 0x53AFA, size: 0x8, addend: 0x0, symName: __RNvXs8_NtCsATtFUPiRFW_3syn10punctuatedINtB5_10PunctuatedNtNtB7_4attr4MetaNtNtB7_5token5CommaENtNtNtNtCs9f3LFPSIp77_4core4iter6traits7collect12IntoIterator9into_iterCsivhpxLWnNhi_12tokio_macros, symObjAddr: 0x1D14, symBinAddr: 0x1EE08, symSize: 0x1A8 }
  - { offset: 0x53B7F, size: 0x8, addend: 0x0, symName: __RNCNCNvXsG_NtCsATtFUPiRFW_3syn10punctuatedINtB9_14PrivateIterMutNtNtBb_3pat3PatNtNtBb_5token2OrENtNtNtNtCs9f3LFPSIp77_4core4iter6traits12double_ended19DoubleEndedIterator9next_back00CsivhpxLWnNhi_12tokio_macros, symObjAddr: 0x788, symBinAddr: 0x1D87C, symSize: 0x24 }
  - { offset: 0x53BCA, size: 0x8, addend: 0x0, symName: __RNCNCNvXsG_NtCsATtFUPiRFW_3syn10punctuatedINtB9_14PrivateIterMutNtNtBb_3pat3PatNtNtBb_5token5CommaENtNtNtNtCs9f3LFPSIp77_4core4iter6traits12double_ended19DoubleEndedIterator9next_back00CsivhpxLWnNhi_12tokio_macros, symObjAddr: 0x7AC, symBinAddr: 0x1D8A0, symSize: 0x24 }
  - { offset: 0x53C15, size: 0x8, addend: 0x0, symName: __RNCNCNvXsG_NtCsATtFUPiRFW_3syn10punctuatedINtB9_14PrivateIterMutNtNtBb_3pat8FieldPatNtNtBb_5token5CommaENtNtNtNtCs9f3LFPSIp77_4core4iter6traits12double_ended19DoubleEndedIterator9next_back00CsivhpxLWnNhi_12tokio_macros, symObjAddr: 0x7D0, symBinAddr: 0x1D8C4, symSize: 0x24 }
  - { offset: 0x53C76, size: 0x8, addend: 0x0, symName: __RNCNvXsG_NtCsATtFUPiRFW_3syn10punctuatedINtB7_14PrivateIterMutNtNtB9_3pat3PatNtNtB9_5token2OrENtNtNtNtCs9f3LFPSIp77_4core4iter6traits12double_ended19DoubleEndedIterator9next_back0CsivhpxLWnNhi_12tokio_macros, symObjAddr: 0x9B8, symBinAddr: 0x1DAAC, symSize: 0x38 }
  - { offset: 0x53CB8, size: 0x8, addend: 0x0, symName: __RNCNvXsG_NtCsATtFUPiRFW_3syn10punctuatedINtB7_14PrivateIterMutNtNtB9_3pat3PatNtNtB9_5token5CommaENtNtNtNtCs9f3LFPSIp77_4core4iter6traits12double_ended19DoubleEndedIterator9next_back0CsivhpxLWnNhi_12tokio_macros, symObjAddr: 0x9F0, symBinAddr: 0x1DAE4, symSize: 0x38 }
  - { offset: 0x53CFA, size: 0x8, addend: 0x0, symName: __RNCNvXsG_NtCsATtFUPiRFW_3syn10punctuatedINtB7_14PrivateIterMutNtNtB9_3pat8FieldPatNtNtB9_5token5CommaENtNtNtNtCs9f3LFPSIp77_4core4iter6traits12double_ended19DoubleEndedIterator9next_back0CsivhpxLWnNhi_12tokio_macros, symObjAddr: 0xA28, symBinAddr: 0x1DB1C, symSize: 0x38 }
  - { offset: 0x53D3D, size: 0x8, addend: 0x0, symName: __RNvXsG_NtCsATtFUPiRFW_3syn10punctuatedINtB5_14PrivateIterMutNtNtB7_3pat3PatNtNtB7_5token2OrENtNtNtNtCs9f3LFPSIp77_4core4iter6traits12double_ended19DoubleEndedIterator9next_backCsivhpxLWnNhi_12tokio_macros, symObjAddr: 0x2018, symBinAddr: 0x1F10C, symSize: 0x40 }
  - { offset: 0x53D7D, size: 0x8, addend: 0x0, symName: __RNvXsG_NtCsATtFUPiRFW_3syn10punctuatedINtB5_14PrivateIterMutNtNtB7_3pat3PatNtNtB7_5token5CommaENtNtNtNtCs9f3LFPSIp77_4core4iter6traits12double_ended19DoubleEndedIterator9next_backCsivhpxLWnNhi_12tokio_macros, symObjAddr: 0x2058, symBinAddr: 0x1F14C, symSize: 0x40 }
  - { offset: 0x53DBD, size: 0x8, addend: 0x0, symName: __RNvXsG_NtCsATtFUPiRFW_3syn10punctuatedINtB5_14PrivateIterMutNtNtB7_3pat8FieldPatNtNtB7_5token5CommaENtNtNtNtCs9f3LFPSIp77_4core4iter6traits12double_ended19DoubleEndedIterator9next_backCsivhpxLWnNhi_12tokio_macros, symObjAddr: 0x2098, symBinAddr: 0x1F18C, symSize: 0x40 }
  - { offset: 0x53E08, size: 0x8, addend: 0x0, symName: __RNCNvXsF_NtCsATtFUPiRFW_3syn10punctuatedINtB7_14PrivateIterMutNtNtB9_3pat3PatNtNtB9_5token2OrENtNtNtNtCs9f3LFPSIp77_4core4iter6traits8iterator8Iterator4next0CsivhpxLWnNhi_12tokio_macros, symObjAddr: 0x8B0, symBinAddr: 0x1D9A4, symSize: 0x24 }
  - { offset: 0x53E53, size: 0x8, addend: 0x0, symName: __RNCNvXsF_NtCsATtFUPiRFW_3syn10punctuatedINtB7_14PrivateIterMutNtNtB9_3pat3PatNtNtB9_5token2OrENtNtNtNtCs9f3LFPSIp77_4core4iter6traits8iterator8Iterator4nexts_0CsivhpxLWnNhi_12tokio_macros, symObjAddr: 0x8D4, symBinAddr: 0x1D9C8, symSize: 0x34 }
  - { offset: 0x53E95, size: 0x8, addend: 0x0, symName: __RNCNvXsF_NtCsATtFUPiRFW_3syn10punctuatedINtB7_14PrivateIterMutNtNtB9_3pat3PatNtNtB9_5token5CommaENtNtNtNtCs9f3LFPSIp77_4core4iter6traits8iterator8Iterator4next0CsivhpxLWnNhi_12tokio_macros, symObjAddr: 0x908, symBinAddr: 0x1D9FC, symSize: 0x24 }
  - { offset: 0x53EE0, size: 0x8, addend: 0x0, symName: __RNCNvXsF_NtCsATtFUPiRFW_3syn10punctuatedINtB7_14PrivateIterMutNtNtB9_3pat3PatNtNtB9_5token5CommaENtNtNtNtCs9f3LFPSIp77_4core4iter6traits8iterator8Iterator4nexts_0CsivhpxLWnNhi_12tokio_macros, symObjAddr: 0x92C, symBinAddr: 0x1DA20, symSize: 0x34 }
  - { offset: 0x53F22, size: 0x8, addend: 0x0, symName: __RNCNvXsF_NtCsATtFUPiRFW_3syn10punctuatedINtB7_14PrivateIterMutNtNtB9_3pat8FieldPatNtNtB9_5token5CommaENtNtNtNtCs9f3LFPSIp77_4core4iter6traits8iterator8Iterator4next0CsivhpxLWnNhi_12tokio_macros, symObjAddr: 0x960, symBinAddr: 0x1DA54, symSize: 0x24 }
  - { offset: 0x53F6D, size: 0x8, addend: 0x0, symName: __RNCNvXsF_NtCsATtFUPiRFW_3syn10punctuatedINtB7_14PrivateIterMutNtNtB9_3pat8FieldPatNtNtB9_5token5CommaENtNtNtNtCs9f3LFPSIp77_4core4iter6traits8iterator8Iterator4nexts_0CsivhpxLWnNhi_12tokio_macros, symObjAddr: 0x984, symBinAddr: 0x1DA78, symSize: 0x34 }
  - { offset: 0x53FC5, size: 0x8, addend: 0x0, symName: __RNvXsF_NtCsATtFUPiRFW_3syn10punctuatedINtB5_14PrivateIterMutNtNtB7_3pat3PatNtNtB7_5token2OrENtNtNtNtCs9f3LFPSIp77_4core4iter6traits8iterator8Iterator4nextCsivhpxLWnNhi_12tokio_macros, symObjAddr: 0x1F4C, symBinAddr: 0x1F040, symSize: 0x44 }
  - { offset: 0x54005, size: 0x8, addend: 0x0, symName: __RNvXsF_NtCsATtFUPiRFW_3syn10punctuatedINtB5_14PrivateIterMutNtNtB7_3pat3PatNtNtB7_5token5CommaENtNtNtNtCs9f3LFPSIp77_4core4iter6traits8iterator8Iterator4nextCsivhpxLWnNhi_12tokio_macros, symObjAddr: 0x1F90, symBinAddr: 0x1F084, symSize: 0x44 }
  - { offset: 0x54045, size: 0x8, addend: 0x0, symName: __RNvXsF_NtCsATtFUPiRFW_3syn10punctuatedINtB5_14PrivateIterMutNtNtB7_3pat8FieldPatNtNtB7_5token5CommaENtNtNtNtCs9f3LFPSIp77_4core4iter6traits8iterator8Iterator4nextCsivhpxLWnNhi_12tokio_macros, symObjAddr: 0x1FD4, symBinAddr: 0x1F0C8, symSize: 0x44 }
  - { offset: 0x5420F, size: 0x8, addend: 0x0, symName: __RNvXsC_NtCsATtFUPiRFW_3syn10punctuatedINtB5_7IterMutNtNtB7_3pat3PatENtNtNtNtCs9f3LFPSIp77_4core4iter6traits8iterator8Iterator4nextCsivhpxLWnNhi_12tokio_macros, symObjAddr: 0x1EBC, symBinAddr: 0x1EFB0, symSize: 0x48 }
  - { offset: 0x54246, size: 0x8, addend: 0x0, symName: __RNvXsC_NtCsATtFUPiRFW_3syn10punctuatedINtB5_7IterMutNtNtB7_3pat8FieldPatENtNtNtNtCs9f3LFPSIp77_4core4iter6traits8iterator8Iterator4nextCsivhpxLWnNhi_12tokio_macros, symObjAddr: 0x1F04, symBinAddr: 0x1EFF8, symSize: 0x48 }
  - { offset: 0x54283, size: 0x8, addend: 0x0, symName: __RNvXsH_NtCsATtFUPiRFW_3syn10punctuatedINtB5_14PrivateIterMutNtNtB7_3pat3PatNtNtB7_5token2OrENtNtNtNtCs9f3LFPSIp77_4core4iter6traits10exact_size17ExactSizeIterator3lenCsivhpxLWnNhi_12tokio_macros, symObjAddr: 0x20D8, symBinAddr: 0x1F1CC, symSize: 0xC4 }
  - { offset: 0x5436D, size: 0x8, addend: 0x0, symName: __RNvXsH_NtCsATtFUPiRFW_3syn10punctuatedINtB5_14PrivateIterMutNtNtB7_3pat3PatNtNtB7_5token5CommaENtNtNtNtCs9f3LFPSIp77_4core4iter6traits10exact_size17ExactSizeIterator3lenCsivhpxLWnNhi_12tokio_macros, symObjAddr: 0x219C, symBinAddr: 0x1F290, symSize: 0xC4 }
  - { offset: 0x54457, size: 0x8, addend: 0x0, symName: __RNvXsH_NtCsATtFUPiRFW_3syn10punctuatedINtB5_14PrivateIterMutNtNtB7_3pat8FieldPatNtNtB7_5token5CommaENtNtNtNtCs9f3LFPSIp77_4core4iter6traits10exact_size17ExactSizeIterator3lenCsivhpxLWnNhi_12tokio_macros, symObjAddr: 0x2260, symBinAddr: 0x1F354, symSize: 0xC4 }
  - { offset: 0x54547, size: 0x8, addend: 0x0, symName: __RNvXsa_NtCsATtFUPiRFW_3syn10punctuatedQINtB5_10PunctuatedNtNtB7_3pat3PatNtNtB7_5token2OrENtNtNtNtCs9f3LFPSIp77_4core4iter6traits7collect12IntoIterator9into_iterCsivhpxLWnNhi_12tokio_macros, symObjAddr: 0x24F8, symBinAddr: 0x1F5EC, symSize: 0x34 }
  - { offset: 0x54587, size: 0x8, addend: 0x0, symName: __RNvXsa_NtCsATtFUPiRFW_3syn10punctuatedQINtB5_10PunctuatedNtNtB7_3pat3PatNtNtB7_5token5CommaENtNtNtNtCs9f3LFPSIp77_4core4iter6traits7collect12IntoIterator9into_iterCsivhpxLWnNhi_12tokio_macros, symObjAddr: 0x252C, symBinAddr: 0x1F620, symSize: 0x34 }
  - { offset: 0x545C7, size: 0x8, addend: 0x0, symName: __RNvXsa_NtCsATtFUPiRFW_3syn10punctuatedQINtB5_10PunctuatedNtNtB7_3pat8FieldPatNtNtB7_5token5CommaENtNtNtNtCs9f3LFPSIp77_4core4iter6traits7collect12IntoIterator9into_iterCsivhpxLWnNhi_12tokio_macros, symObjAddr: 0x2560, symBinAddr: 0x1F654, symSize: 0x34 }
  - { offset: 0x5460D, size: 0x8, addend: 0x0, symName: __RNvXsn_NtCsATtFUPiRFW_3syn10punctuatedINtB5_8IntoIterNtNtB7_4attr4MetaENtNtNtNtCs9f3LFPSIp77_4core4iter6traits8iterator8Iterator4nextCsivhpxLWnNhi_12tokio_macros, symObjAddr: 0x2AE8, symBinAddr: 0x1FBDC, symSize: 0x34 }
  - { offset: 0x590E9, size: 0x8, addend: 0x0, symName: __RNvXsh_NtCsATtFUPiRFW_3syn5parseNvMNtB7_10punctuatedINtBx_10PunctuatedNtNtB7_4attr4MetaNtNtB7_5token5CommaE16parse_terminatedNtB5_6Parser6parse2CsivhpxLWnNhi_12tokio_macros, symObjAddr: 0x2794, symBinAddr: 0x1F888, symSize: 0x354 }
  - { offset: 0x59DC0, size: 0x8, addend: 0x0, symName: __RINvXsd_NtCsdze8u8oDPro_5alloc3vecINtB6_3VecNtCs475r2uZUTuc_11proc_macro25IdentEINtNtNtNtCs9f3LFPSIp77_4core4iter6traits7collect12FromIteratorBG_E9from_iterINtNtNtB1n_8adapters3map3MapINtNtNtB1p_3ops5range5RangejENCNvNtCsivhpxLWnNhi_12tokio_macros6select19declare_output_enum0EEB3v_, symObjAddr: 0x4D4, symBinAddr: 0x1D5C8, symSize: 0x30 }
  - { offset: 0x59E06, size: 0x8, addend: 0x0, symName: __RINvXsh_NtCsdze8u8oDPro_5alloc3vecINtB6_3VecNtNtCsATtFUPiRFW_3syn4attr4MetaEINtNtNtNtCs9f3LFPSIp77_4core4iter6traits7collect6ExtendBG_E6extendINtNtB1l_6option6OptionBG_EECsivhpxLWnNhi_12tokio_macros, symObjAddr: 0x504, symBinAddr: 0x1D5F8, symSize: 0x48 }
  - { offset: 0x59E5B, size: 0x8, addend: 0x0, symName: __RINvXsh_NtCsdze8u8oDPro_5alloc3vecINtB6_3VecNtNtCsATtFUPiRFW_3syn4attr4MetaEINtNtNtNtCs9f3LFPSIp77_4core4iter6traits7collect6ExtendBG_E6extendINtNtNtB1j_8adapters3map3MapINtNtB6_9into_iter8IntoIterTBG_NtNtBK_5token5CommaEENCNvXs8_NtBK_10punctuatedINtB3G_10PunctuatedBG_B3d_ENtB1f_12IntoIterator9into_iter0EECsivhpxLWnNhi_12tokio_macros, symObjAddr: 0x54C, symBinAddr: 0x1D640, symSize: 0x40 }
  - { offset: 0x59EBB, size: 0x8, addend: 0x0, symName: __RNCINvMsi_NtCsdze8u8oDPro_5alloc3vecINtB8_3VecNtCs475r2uZUTuc_11proc_macro25IdentE14extend_trustedINtNtNtNtCs9f3LFPSIp77_4core4iter8adapters3map3MapINtNtNtB1H_3ops5range5RangejENCNvNtCsivhpxLWnNhi_12tokio_macros6select19declare_output_enum0EE0B2V_, symObjAddr: 0x62C, symBinAddr: 0x1D720, symSize: 0x6C }
  - { offset: 0x59FAC, size: 0x8, addend: 0x0, symName: __RNCINvMsi_NtCsdze8u8oDPro_5alloc3vecINtB8_3VecNtNtCsATtFUPiRFW_3syn4attr4MetaE14extend_trustedINtNtCs9f3LFPSIp77_4core6option8IntoIterBI_EE0CsivhpxLWnNhi_12tokio_macros, symObjAddr: 0x698, symBinAddr: 0x1D78C, symSize: 0x78 }
  - { offset: 0x5A09F, size: 0x8, addend: 0x0, symName: __RNCINvMsi_NtCsdze8u8oDPro_5alloc3vecINtB8_3VecNtNtCsATtFUPiRFW_3syn4attr4MetaE14extend_trustedINtNtNtNtCs9f3LFPSIp77_4core4iter8adapters3map3MapINtNtB8_9into_iter8IntoIterTBI_NtNtBM_5token5CommaEENCNvXs8_NtBM_10punctuatedINtB3g_10PunctuatedBI_B2N_ENtNtNtB1B_6traits7collect12IntoIterator9into_iter0EE0CsivhpxLWnNhi_12tokio_macros, symObjAddr: 0x710, symBinAddr: 0x1D804, symSize: 0x78 }
  - { offset: 0x5A3AD, size: 0x8, addend: 0x0, symName: __RNvXNtNtCsdze8u8oDPro_5alloc3vec14spec_from_iterINtB4_3VecNtCs475r2uZUTuc_11proc_macro25IdentEINtB2_12SpecFromIterBU_INtNtNtNtCs9f3LFPSIp77_4core4iter8adapters3map3MapINtNtNtB20_3ops5range5RangejENCNvNtCsivhpxLWnNhi_12tokio_macros6select19declare_output_enum0EE9from_iterB3e_, symObjAddr: 0x1C04, symBinAddr: 0x1ECF8, symSize: 0x24 }
  - { offset: 0x5A3F2, size: 0x8, addend: 0x0, symName: __RNvXs6_NtCsdze8u8oDPro_5alloc3vecINtB5_3VecNtCs475r2uZUTuc_11proc_macro211TokenStreamENtNtNtCs9f3LFPSIp77_4core3ops5deref5Deref5derefCsivhpxLWnNhi_12tokio_macros, symObjAddr: 0x1C60, symBinAddr: 0x1ED54, symSize: 0x24 }
  - { offset: 0x5A432, size: 0x8, addend: 0x0, symName: __RNvXs6_NtCsdze8u8oDPro_5alloc3vecINtB5_3VecNtCs475r2uZUTuc_11proc_macro25IdentENtNtNtCs9f3LFPSIp77_4core3ops5deref5Deref5derefCsivhpxLWnNhi_12tokio_macros, symObjAddr: 0x1C84, symBinAddr: 0x1ED78, symSize: 0x24 }
  - { offset: 0x5A478, size: 0x8, addend: 0x0, symName: __RNvXs7_NtCsdze8u8oDPro_5alloc3vecINtB5_3VecTNtNtCsATtFUPiRFW_3syn3pat3PatNtNtBK_5token2OrEENtNtNtCs9f3LFPSIp77_4core3ops5deref8DerefMut9deref_mutCsivhpxLWnNhi_12tokio_macros, symObjAddr: 0x1CA8, symBinAddr: 0x1ED9C, symSize: 0x24 }
  - { offset: 0x5A4B8, size: 0x8, addend: 0x0, symName: __RNvXs7_NtCsdze8u8oDPro_5alloc3vecINtB5_3VecTNtNtCsATtFUPiRFW_3syn3pat3PatNtNtBK_5token5CommaEENtNtNtCs9f3LFPSIp77_4core3ops5deref8DerefMut9deref_mutCsivhpxLWnNhi_12tokio_macros, symObjAddr: 0x1CCC, symBinAddr: 0x1EDC0, symSize: 0x24 }
  - { offset: 0x5A4F8, size: 0x8, addend: 0x0, symName: __RNvXs7_NtCsdze8u8oDPro_5alloc3vecINtB5_3VecTNtNtCsATtFUPiRFW_3syn3pat8FieldPatNtNtBK_5token5CommaEENtNtNtCs9f3LFPSIp77_4core3ops5deref8DerefMut9deref_mutCsivhpxLWnNhi_12tokio_macros, symObjAddr: 0x1CF0, symBinAddr: 0x1EDE4, symSize: 0x24 }
  - { offset: 0x5A543, size: 0x8, addend: 0x0, symName: __RNvXs_NtNtCsdze8u8oDPro_5alloc3vec11spec_extendINtB6_3VecNtCs475r2uZUTuc_11proc_macro25IdentEINtB4_10SpecExtendBT_INtNtNtNtCs9f3LFPSIp77_4core4iter8adapters3map3MapINtNtNtB1X_3ops5range5RangejENCNvNtCsivhpxLWnNhi_12tokio_macros6select19declare_output_enum0EE11spec_extendB3b_, symObjAddr: 0x2324, symBinAddr: 0x1F418, symSize: 0x2C }
  - { offset: 0x5A594, size: 0x8, addend: 0x0, symName: __RNvXs_NtNtCsdze8u8oDPro_5alloc3vec11spec_extendINtB6_3VecNtNtCsATtFUPiRFW_3syn4attr4MetaEINtB4_10SpecExtendBT_INtNtCs9f3LFPSIp77_4core6option8IntoIterBT_EE11spec_extendCsivhpxLWnNhi_12tokio_macros, symObjAddr: 0x2350, symBinAddr: 0x1F444, symSize: 0x24 }
  - { offset: 0x5A5E6, size: 0x8, addend: 0x0, symName: __RNvXs_NtNtCsdze8u8oDPro_5alloc3vec11spec_extendINtB6_3VecNtNtCsATtFUPiRFW_3syn4attr4MetaEINtB4_10SpecExtendBT_INtNtNtNtCs9f3LFPSIp77_4core4iter8adapters3map3MapINtNtB6_9into_iter8IntoIterTBT_NtNtBX_5token5CommaEENCNvXs8_NtBX_10punctuatedINtB3w_10PunctuatedBT_B33_ENtNtNtB1R_6traits7collect12IntoIterator9into_iter0EE11spec_extendCsivhpxLWnNhi_12tokio_macros, symObjAddr: 0x2374, symBinAddr: 0x1F468, symSize: 0x24 }
  - { offset: 0x5A644, size: 0x8, addend: 0x0, symName: __RNvXs_NtNtCsdze8u8oDPro_5alloc3vec21spec_from_iter_nestedINtB6_3VecNtCs475r2uZUTuc_11proc_macro25IdentEINtB4_18SpecFromIterNestedB13_INtNtNtNtCs9f3LFPSIp77_4core4iter8adapters3map3MapINtNtNtB2g_3ops5range5RangejENCNvNtCsivhpxLWnNhi_12tokio_macros6select19declare_output_enum0EE9from_iterB3u_, symObjAddr: 0x2398, symBinAddr: 0x1F48C, symSize: 0x160 }
  - { offset: 0x5A721, size: 0x8, addend: 0x0, symName: __RNvXse_NtCsdze8u8oDPro_5alloc3vecINtB5_3VecNtNtCsATtFUPiRFW_3syn4attr4MetaENtNtNtNtCs9f3LFPSIp77_4core4iter6traits7collect12IntoIterator9into_iterCsivhpxLWnNhi_12tokio_macros, symObjAddr: 0x2594, symBinAddr: 0x1F688, symSize: 0x100 }
  - { offset: 0x5A9F0, size: 0x8, addend: 0x0, symName: __RNvXse_NtCsdze8u8oDPro_5alloc3vecINtB5_3VecTNtNtCsATtFUPiRFW_3syn4attr4MetaNtNtBK_5token5CommaEENtNtNtNtCs9f3LFPSIp77_4core4iter6traits7collect12IntoIterator9into_iterCsivhpxLWnNhi_12tokio_macros, symObjAddr: 0x2694, symBinAddr: 0x1F788, symSize: 0x100 }
  - { offset: 0x5ACC5, size: 0x8, addend: 0x0, symName: __RNvXsn_NtCsdze8u8oDPro_5alloc3vecINtB5_3VecNtCs475r2uZUTuc_11proc_macro211TokenStreamENtNtNtCs9f3LFPSIp77_4core3ops4drop4Drop4dropCsivhpxLWnNhi_12tokio_macros, symObjAddr: 0x2B1C, symBinAddr: 0x1FC10, symSize: 0x50 }
  - { offset: 0x5ADD2, size: 0x8, addend: 0x0, symName: __RNvXsn_NtCsdze8u8oDPro_5alloc3vecINtB5_3VecNtCs475r2uZUTuc_11proc_macro25IdentENtNtNtCs9f3LFPSIp77_4core3ops4drop4Drop4dropCsivhpxLWnNhi_12tokio_macros, symObjAddr: 0x2B6C, symBinAddr: 0x1FC60, symSize: 0x50 }
  - { offset: 0x5AEDF, size: 0x8, addend: 0x0, symName: __RNvXsn_NtCsdze8u8oDPro_5alloc3vecINtB5_3VecNtNtCsATtFUPiRFW_3syn4attr4MetaENtNtNtCs9f3LFPSIp77_4core3ops4drop4Drop4dropCsivhpxLWnNhi_12tokio_macros, symObjAddr: 0x2BBC, symBinAddr: 0x1FCB0, symSize: 0x50 }
  - { offset: 0x5AFEC, size: 0x8, addend: 0x0, symName: __RNvXsn_NtCsdze8u8oDPro_5alloc3vecINtB5_3VecTNtNtCsATtFUPiRFW_3syn4attr4MetaNtNtBK_5token5CommaEENtNtNtCs9f3LFPSIp77_4core3ops4drop4Drop4dropCsivhpxLWnNhi_12tokio_macros, symObjAddr: 0x2C0C, symBinAddr: 0x1FD00, symSize: 0x50 }
  - { offset: 0x60512, size: 0x8, addend: 0x0, symName: __RINvYINtNtCsATtFUPiRFW_3syn10punctuated4IterNtNtB8_4path11PathSegmentENtNtNtNtCs9f3LFPSIp77_4core4iter6traits8iterator8Iterator3zipARej4_ECsivhpxLWnNhi_12tokio_macros, symObjAddr: 0x58C, symBinAddr: 0x1D680, symSize: 0xA0 }
  - { offset: 0x60588, size: 0x8, addend: 0x0, symName: __RNvYINtNtCsATtFUPiRFW_3syn10punctuated14PrivateIterMutNtNtB7_3pat3PatNtNtB7_5token2OrENtNtNtNtCs9f3LFPSIp77_4core4iter6traits8iterator8Iterator10advance_byCsivhpxLWnNhi_12tokio_macros, symObjAddr: 0x2E24, symBinAddr: 0x1FF18, symSize: 0x134 }
  - { offset: 0x606DD, size: 0x8, addend: 0x0, symName: __RNvYINtNtCsATtFUPiRFW_3syn10punctuated14PrivateIterMutNtNtB7_3pat3PatNtNtB7_5token2OrENtNtNtNtCs9f3LFPSIp77_4core4iter6traits8iterator8Iterator3nthCsivhpxLWnNhi_12tokio_macros, symObjAddr: 0x2F58, symBinAddr: 0x2004C, symSize: 0x80 }
  - { offset: 0x607B0, size: 0x8, addend: 0x0, symName: __RNvYINtNtCsATtFUPiRFW_3syn10punctuated14PrivateIterMutNtNtB7_3pat3PatNtNtB7_5token2OrENtNtNtNtCs9f3LFPSIp77_4core4iter6traits8iterator8Iterator9size_hintCsivhpxLWnNhi_12tokio_macros, symObjAddr: 0x2FD8, symBinAddr: 0x200CC, symSize: 0x34 }
  - { offset: 0x607E5, size: 0x8, addend: 0x0, symName: __RNvYINtNtCsATtFUPiRFW_3syn10punctuated14PrivateIterMutNtNtB7_3pat3PatNtNtB7_5token5CommaENtNtNtNtCs9f3LFPSIp77_4core4iter6traits8iterator8Iterator10advance_byCsivhpxLWnNhi_12tokio_macros, symObjAddr: 0x31D4, symBinAddr: 0x202C8, symSize: 0x134 }
  - { offset: 0x6093A, size: 0x8, addend: 0x0, symName: __RNvYINtNtCsATtFUPiRFW_3syn10punctuated14PrivateIterMutNtNtB7_3pat3PatNtNtB7_5token5CommaENtNtNtNtCs9f3LFPSIp77_4core4iter6traits8iterator8Iterator3nthCsivhpxLWnNhi_12tokio_macros, symObjAddr: 0x3308, symBinAddr: 0x203FC, symSize: 0x80 }
  - { offset: 0x60A0D, size: 0x8, addend: 0x0, symName: __RNvYINtNtCsATtFUPiRFW_3syn10punctuated14PrivateIterMutNtNtB7_3pat3PatNtNtB7_5token5CommaENtNtNtNtCs9f3LFPSIp77_4core4iter6traits8iterator8Iterator9size_hintCsivhpxLWnNhi_12tokio_macros, symObjAddr: 0x3388, symBinAddr: 0x2047C, symSize: 0x34 }
  - { offset: 0x60A42, size: 0x8, addend: 0x0, symName: __RNvYINtNtCsATtFUPiRFW_3syn10punctuated14PrivateIterMutNtNtB7_3pat8FieldPatNtNtB7_5token5CommaENtNtNtNtCs9f3LFPSIp77_4core4iter6traits8iterator8Iterator10advance_byCsivhpxLWnNhi_12tokio_macros, symObjAddr: 0x3584, symBinAddr: 0x20678, symSize: 0x134 }
  - { offset: 0x60B97, size: 0x8, addend: 0x0, symName: __RNvYINtNtCsATtFUPiRFW_3syn10punctuated14PrivateIterMutNtNtB7_3pat8FieldPatNtNtB7_5token5CommaENtNtNtNtCs9f3LFPSIp77_4core4iter6traits8iterator8Iterator3nthCsivhpxLWnNhi_12tokio_macros, symObjAddr: 0x36B8, symBinAddr: 0x207AC, symSize: 0x80 }
  - { offset: 0x60C6A, size: 0x8, addend: 0x0, symName: __RNvYINtNtCsATtFUPiRFW_3syn10punctuated14PrivateIterMutNtNtB7_3pat8FieldPatNtNtB7_5token5CommaENtNtNtNtCs9f3LFPSIp77_4core4iter6traits8iterator8Iterator9size_hintCsivhpxLWnNhi_12tokio_macros, symObjAddr: 0x3738, symBinAddr: 0x2082C, symSize: 0x34 }
  - { offset: 0x60CAB, size: 0x8, addend: 0x0, symName: __RNvYINtNtCsATtFUPiRFW_3syn10punctuated14PrivateIterMutNtNtB7_3pat3PatNtNtB7_5token2OrENtNtNtNtCs9f3LFPSIp77_4core4iter6traits10exact_size17ExactSizeIterator8is_emptyCsivhpxLWnNhi_12tokio_macros, symObjAddr: 0x2C5C, symBinAddr: 0x1FD50, symSize: 0x2C }
  - { offset: 0x60CE0, size: 0x8, addend: 0x0, symName: __RNvYINtNtCsATtFUPiRFW_3syn10punctuated14PrivateIterMutNtNtB7_3pat3PatNtNtB7_5token5CommaENtNtNtNtCs9f3LFPSIp77_4core4iter6traits10exact_size17ExactSizeIterator8is_emptyCsivhpxLWnNhi_12tokio_macros, symObjAddr: 0x300C, symBinAddr: 0x20100, symSize: 0x2C }
  - { offset: 0x60D15, size: 0x8, addend: 0x0, symName: __RNvYINtNtCsATtFUPiRFW_3syn10punctuated14PrivateIterMutNtNtB7_3pat8FieldPatNtNtB7_5token5CommaENtNtNtNtCs9f3LFPSIp77_4core4iter6traits10exact_size17ExactSizeIterator8is_emptyCsivhpxLWnNhi_12tokio_macros, symObjAddr: 0x33BC, symBinAddr: 0x204B0, symSize: 0x2C }
  - { offset: 0x60D56, size: 0x8, addend: 0x0, symName: __RNvYINtNtCsATtFUPiRFW_3syn10punctuated14PrivateIterMutNtNtB7_3pat3PatNtNtB7_5token2OrENtNtNtNtCs9f3LFPSIp77_4core4iter6traits12double_ended19DoubleEndedIterator15advance_back_byCsivhpxLWnNhi_12tokio_macros, symObjAddr: 0x2C88, symBinAddr: 0x1FD7C, symSize: 0x134 }
  - { offset: 0x60EA3, size: 0x8, addend: 0x0, symName: __RNvYINtNtCsATtFUPiRFW_3syn10punctuated14PrivateIterMutNtNtB7_3pat3PatNtNtB7_5token2OrENtNtNtNtCs9f3LFPSIp77_4core4iter6traits12double_ended19DoubleEndedIterator8nth_backCsivhpxLWnNhi_12tokio_macros, symObjAddr: 0x2DBC, symBinAddr: 0x1FEB0, symSize: 0x68 }
  - { offset: 0x60F21, size: 0x8, addend: 0x0, symName: __RNvYINtNtCsATtFUPiRFW_3syn10punctuated14PrivateIterMutNtNtB7_3pat3PatNtNtB7_5token5CommaENtNtNtNtCs9f3LFPSIp77_4core4iter6traits12double_ended19DoubleEndedIterator15advance_back_byCsivhpxLWnNhi_12tokio_macros, symObjAddr: 0x3038, symBinAddr: 0x2012C, symSize: 0x134 }
  - { offset: 0x6106E, size: 0x8, addend: 0x0, symName: __RNvYINtNtCsATtFUPiRFW_3syn10punctuated14PrivateIterMutNtNtB7_3pat3PatNtNtB7_5token5CommaENtNtNtNtCs9f3LFPSIp77_4core4iter6traits12double_ended19DoubleEndedIterator8nth_backCsivhpxLWnNhi_12tokio_macros, symObjAddr: 0x316C, symBinAddr: 0x20260, symSize: 0x68 }
  - { offset: 0x610EC, size: 0x8, addend: 0x0, symName: __RNvYINtNtCsATtFUPiRFW_3syn10punctuated14PrivateIterMutNtNtB7_3pat8FieldPatNtNtB7_5token5CommaENtNtNtNtCs9f3LFPSIp77_4core4iter6traits12double_ended19DoubleEndedIterator15advance_back_byCsivhpxLWnNhi_12tokio_macros, symObjAddr: 0x33E8, symBinAddr: 0x204DC, symSize: 0x134 }
  - { offset: 0x61239, size: 0x8, addend: 0x0, symName: __RNvYINtNtCsATtFUPiRFW_3syn10punctuated14PrivateIterMutNtNtB7_3pat8FieldPatNtNtB7_5token5CommaENtNtNtNtCs9f3LFPSIp77_4core4iter6traits12double_ended19DoubleEndedIterator8nth_backCsivhpxLWnNhi_12tokio_macros, symObjAddr: 0x351C, symBinAddr: 0x20610, symSize: 0x68 }
  - { offset: 0x6233E, size: 0x8, addend: 0x0, symName: __RINvMsi_NtCsdze8u8oDPro_5alloc3vecINtB6_3VecNtCs475r2uZUTuc_11proc_macro25IdentE14extend_trustedINtNtNtNtCs9f3LFPSIp77_4core4iter8adapters3map3MapINtNtNtB1F_3ops5range5RangejENCNvNtCsivhpxLWnNhi_12tokio_macros6select19declare_output_enum0EEB2T_, symObjAddr: 0x0, symBinAddr: 0x1D0F4, symSize: 0x184 }
  - { offset: 0x626E7, size: 0x8, addend: 0x0, symName: __RINvMsi_NtCsdze8u8oDPro_5alloc3vecINtB6_3VecNtNtCsATtFUPiRFW_3syn4attr4MetaE14extend_trustedINtNtCs9f3LFPSIp77_4core6option8IntoIterBG_EECsivhpxLWnNhi_12tokio_macros, symObjAddr: 0x184, symBinAddr: 0x1D278, symSize: 0x1B4 }
  - { offset: 0x62A88, size: 0x8, addend: 0x0, symName: __RINvMsi_NtCsdze8u8oDPro_5alloc3vecINtB6_3VecNtNtCsATtFUPiRFW_3syn4attr4MetaE14extend_trustedINtNtNtNtCs9f3LFPSIp77_4core4iter8adapters3map3MapINtNtB6_9into_iter8IntoIterTBG_NtNtBK_5token5CommaEENCNvXs8_NtBK_10punctuatedINtB3e_10PunctuatedBG_B2L_ENtNtNtB1z_6traits7collect12IntoIterator9into_iter0EECsivhpxLWnNhi_12tokio_macros, symObjAddr: 0x338, symBinAddr: 0x1D42C, symSize: 0x19C }
  - { offset: 0x62E4E, size: 0x8, addend: 0x0, symName: __RNvMNtCsATtFUPiRFW_3syn10punctuatedINtB2_10PunctuatedNtNtB4_3pat3PatNtNtB4_5token2OrE8iter_mutCsivhpxLWnNhi_12tokio_macros, symObjAddr: 0xA60, symBinAddr: 0x1DB54, symSize: 0xC8 }
  - { offset: 0x62EB9, size: 0x8, addend: 0x0, symName: __RNvMNtCsATtFUPiRFW_3syn10punctuatedINtB2_10PunctuatedNtNtB4_3pat3PatNtNtB4_5token5CommaE8iter_mutCsivhpxLWnNhi_12tokio_macros, symObjAddr: 0xB28, symBinAddr: 0x1DC1C, symSize: 0xC8 }
  - { offset: 0x62F52, size: 0x8, addend: 0x0, symName: __RNvMNtCsATtFUPiRFW_3syn10punctuatedINtB2_10PunctuatedNtNtB4_3pat8FieldPatNtNtB4_5token5CommaE8iter_mutCsivhpxLWnNhi_12tokio_macros, symObjAddr: 0xBF0, symBinAddr: 0x1DCE4, symSize: 0xC8 }
  - { offset: 0x62FF5, size: 0x8, addend: 0x0, symName: __RNvMNtCsATtFUPiRFW_3syn10punctuatedINtB2_10PunctuatedNtNtB4_4attr4MetaNtNtB4_5token5CommaE10push_punctCsivhpxLWnNhi_12tokio_macros, symObjAddr: 0xCB8, symBinAddr: 0x1DDAC, symSize: 0x1D8 }
  - { offset: 0x63073, size: 0x8, addend: 0x0, symName: __RNvMNtCsATtFUPiRFW_3syn10punctuatedINtB2_10PunctuatedNtNtB4_4attr4MetaNtNtB4_5token5CommaE10push_valueCsivhpxLWnNhi_12tokio_macros, symObjAddr: 0xE90, symBinAddr: 0x1DF84, symSize: 0x1B4 }
  - { offset: 0x63130, size: 0x8, addend: 0x0, symName: __RNvMNtCsATtFUPiRFW_3syn10punctuatedINtB2_10PunctuatedNtNtB4_4attr4MetaNtNtB4_5token5CommaE16parse_terminatedCsivhpxLWnNhi_12tokio_macros, symObjAddr: 0x1044, symBinAddr: 0x1E138, symSize: 0x3C }
  - { offset: 0x63172, size: 0x8, addend: 0x0, symName: __RNvMNtCsATtFUPiRFW_3syn10punctuatedINtB2_10PunctuatedNtNtB4_4attr4MetaNtNtB4_5token5CommaE17empty_or_trailingCsivhpxLWnNhi_12tokio_macros, symObjAddr: 0x1080, symBinAddr: 0x1E174, symSize: 0x34 }
  - { offset: 0x631BE, size: 0x8, addend: 0x0, symName: __RNvMNtCsATtFUPiRFW_3syn10punctuatedINtB2_10PunctuatedNtNtB4_4attr4MetaNtNtB4_5token5CommaE21parse_terminated_withCsivhpxLWnNhi_12tokio_macros, symObjAddr: 0x10B4, symBinAddr: 0x1E1A8, symSize: 0x384 }
  - { offset: 0x632C1, size: 0x8, addend: 0x0, symName: __RNvMNtCsATtFUPiRFW_3syn10punctuatedINtB2_10PunctuatedNtNtB4_4attr4MetaNtNtB4_5token5CommaE3lenCsivhpxLWnNhi_12tokio_macros, symObjAddr: 0x1438, symBinAddr: 0x1E52C, symSize: 0xA0 }
  - { offset: 0x632F5, size: 0x8, addend: 0x0, symName: __RNvMNtCsATtFUPiRFW_3syn10punctuatedINtB2_10PunctuatedNtNtB4_4attr4MetaNtNtB4_5token5CommaE3newCsivhpxLWnNhi_12tokio_macros, symObjAddr: 0x14D8, symBinAddr: 0x1E5CC, symSize: 0x54 }
  - { offset: 0x63386, size: 0x8, addend: 0x0, symName: __RNvMNtCsdze8u8oDPro_5alloc3vecINtB2_3VecNtCs475r2uZUTuc_11proc_macro211TokenStreamE3newCsivhpxLWnNhi_12tokio_macros, symObjAddr: 0x152C, symBinAddr: 0x1E620, symSize: 0x28 }
  - { offset: 0x6346F, size: 0x8, addend: 0x0, symName: __RNvMNtCsdze8u8oDPro_5alloc3vecINtB2_3VecNtNtCsATtFUPiRFW_3syn4attr4MetaE13with_capacityCsivhpxLWnNhi_12tokio_macros, symObjAddr: 0x1554, symBinAddr: 0x1E648, symSize: 0x44 }
  - { offset: 0x63552, size: 0x8, addend: 0x0, symName: __RNvMNtCsdze8u8oDPro_5alloc3vecINtB2_3VecTNtNtCsATtFUPiRFW_3syn4attr4MetaNtNtBH_5token5CommaEE3newCsivhpxLWnNhi_12tokio_macros, symObjAddr: 0x1598, symBinAddr: 0x1E68C, symSize: 0x28 }
  - { offset: 0x63756, size: 0x8, addend: 0x0, symName: __RNvMs_NtCsdze8u8oDPro_5alloc3vecINtB4_3VecNtCs475r2uZUTuc_11proc_macro211TokenStreamE4pushCsivhpxLWnNhi_12tokio_macros, symObjAddr: 0x15C0, symBinAddr: 0x1E6B4, symSize: 0x10C }
  - { offset: 0x63A5E, size: 0x8, addend: 0x0, symName: __RNvMs_NtCsdze8u8oDPro_5alloc3vecINtB4_3VecNtCs475r2uZUTuc_11proc_macro211TokenStreamE8as_sliceCsivhpxLWnNhi_12tokio_macros, symObjAddr: 0x16CC, symBinAddr: 0x1E7C0, symSize: 0x7C }
  - { offset: 0x63C8A, size: 0x8, addend: 0x0, symName: __RNvMs_NtCsdze8u8oDPro_5alloc3vecINtB4_3VecNtCs475r2uZUTuc_11proc_macro25IdentE7reserveCsivhpxLWnNhi_12tokio_macros, symObjAddr: 0x1748, symBinAddr: 0x1E83C, symSize: 0xC4 }
  - { offset: 0x63EE8, size: 0x8, addend: 0x0, symName: __RNvMs_NtCsdze8u8oDPro_5alloc3vecINtB4_3VecNtCs475r2uZUTuc_11proc_macro25IdentE8as_sliceCsivhpxLWnNhi_12tokio_macros, symObjAddr: 0x180C, symBinAddr: 0x1E900, symSize: 0x7C }
  - { offset: 0x640FA, size: 0x8, addend: 0x0, symName: __RNvMs_NtCsdze8u8oDPro_5alloc3vecINtB4_3VecNtNtCsATtFUPiRFW_3syn4attr4MetaE7reserveCsivhpxLWnNhi_12tokio_macros, symObjAddr: 0x1888, symBinAddr: 0x1E97C, symSize: 0xC4 }
  - { offset: 0x64381, size: 0x8, addend: 0x0, symName: __RNvMs_NtCsdze8u8oDPro_5alloc3vecINtB4_3VecTNtNtCsATtFUPiRFW_3syn3pat3PatNtNtBJ_5token2OrEE12as_mut_sliceCsivhpxLWnNhi_12tokio_macros, symObjAddr: 0x194C, symBinAddr: 0x1EA40, symSize: 0x7C }
  - { offset: 0x645E8, size: 0x8, addend: 0x0, symName: __RNvMs_NtCsdze8u8oDPro_5alloc3vecINtB4_3VecTNtNtCsATtFUPiRFW_3syn3pat3PatNtNtBJ_5token5CommaEE12as_mut_sliceCsivhpxLWnNhi_12tokio_macros, symObjAddr: 0x19C8, symBinAddr: 0x1EABC, symSize: 0x7C }
  - { offset: 0x6484F, size: 0x8, addend: 0x0, symName: __RNvMs_NtCsdze8u8oDPro_5alloc3vecINtB4_3VecTNtNtCsATtFUPiRFW_3syn3pat8FieldPatNtNtBJ_5token5CommaEE12as_mut_sliceCsivhpxLWnNhi_12tokio_macros, symObjAddr: 0x1A44, symBinAddr: 0x1EB38, symSize: 0x7C }
  - { offset: 0x64988, size: 0x8, addend: 0x0, symName: __RNvMs_NtCsdze8u8oDPro_5alloc3vecINtB4_3VecTNtNtCsATtFUPiRFW_3syn4attr4MetaNtNtBJ_5token5CommaEE3lenCsivhpxLWnNhi_12tokio_macros, symObjAddr: 0x1AC0, symBinAddr: 0x1EBB4, symSize: 0x18 }
  - { offset: 0x64B2B, size: 0x8, addend: 0x0, symName: __RNvMs_NtCsdze8u8oDPro_5alloc3vecINtB4_3VecTNtNtCsATtFUPiRFW_3syn4attr4MetaNtNtBJ_5token5CommaEE4pushCsivhpxLWnNhi_12tokio_macros, symObjAddr: 0x1AD8, symBinAddr: 0x1EBCC, symSize: 0x12C }
  - { offset: 0x64D35, size: 0x8, addend: 0x0, symName: __RNvXs4_NtNtCs62MdaZFMefA_5quote9___private3extINtNtCsdze8u8oDPro_5alloc3vec3VecNtCs475r2uZUTuc_11proc_macro25IdentENtB5_16RepAsIteratorExt15quote_into_iterCsivhpxLWnNhi_12tokio_macros, symObjAddr: 0x1C28, symBinAddr: 0x1ED1C, symSize: 0x38 }
  - { offset: 0x65BB6, size: 0x8, addend: 0x0, symName: __RINvMs_NtCsdze8u8oDPro_5alloc3vecINtB5_3VecReE10retain_mutNCNvMNtCsATtFUPiRFW_3syn9lookaheadNtBZ_10Lookahead15error0EB11_, symObjAddr: 0x0, symBinAddr: 0x20874, symSize: 0xE4 }
  - { offset: 0x66928, size: 0x8, addend: 0x0, symName: __RNvXsP_NtCs9f3LFPSIp77_4core3fmtRINtNtCsdze8u8oDPro_5alloc3vec3VecNtNtCsATtFUPiRFW_3syn4item4ItemENtB5_5Debug3fmtB16_, symObjAddr: 0x9934, symBinAddr: 0x2A1A8, symSize: 0x30 }
  - { offset: 0x6696E, size: 0x8, addend: 0x0, symName: __RNvXsP_NtCs9f3LFPSIp77_4core3fmtRINtNtCsdze8u8oDPro_5alloc3vec3VechENtB5_5Debug3fmtCsATtFUPiRFW_3syn, symObjAddr: 0x9964, symBinAddr: 0x2A1D8, symSize: 0x30 }
  - { offset: 0x749C3, size: 0x8, addend: 0x0, symName: __RNvXs1_NtCs9f3LFPSIp77_4core7convertINtNtCsdze8u8oDPro_5alloc3vec3VechEINtB5_4IntoBy_E4intoCsATtFUPiRFW_3syn, symObjAddr: 0x82EC, symBinAddr: 0x28B60, symSize: 0x18 }
  - { offset: 0x74C05, size: 0x8, addend: 0x0, symName: __RINvNvMs_NtCsdze8u8oDPro_5alloc3vecINtB7_3VecppE10retain_mut12process_loopNCNvMNtCsATtFUPiRFW_3syn9lookaheadNtB1f_10Lookahead15error0ReNtNtB9_5alloc6GlobalKb0_EB1h_, symObjAddr: 0xCE0, symBinAddr: 0x21554, symSize: 0xE4 }
  - { offset: 0x74DB7, size: 0x8, addend: 0x0, symName: __RINvNvMs_NtCsdze8u8oDPro_5alloc3vecINtB7_3VecppE10retain_mut12process_loopNCNvMNtCsATtFUPiRFW_3syn9lookaheadNtB1f_10Lookahead15error0ReNtNtB9_5alloc6GlobalKb1_EB1h_, symObjAddr: 0xDC4, symBinAddr: 0x21638, symSize: 0x1B0 }
  - { offset: 0x75070, size: 0x8, addend: 0x0, symName: __RNvXNvMs_NtCsdze8u8oDPro_5alloc3vecINtB7_3VecppE10retain_mutINtB2_15BackshiftOnDropReNtNtB9_5alloc6GlobalENtNtNtCs9f3LFPSIp77_4core3ops4drop4Drop4dropCsATtFUPiRFW_3syn, symObjAddr: 0x7F00, symBinAddr: 0x28774, symSize: 0x134 }
  - { offset: 0x78251, size: 0x8, addend: 0x0, symName: __RINvXsd_NtCsdze8u8oDPro_5alloc3vecINtB6_3VecNtCs475r2uZUTuc_11proc_macro29TokenTreeEINtNtNtNtCs9f3LFPSIp77_4core4iter6traits7collect12FromIteratorBG_E9from_iterNtNtBI_12token_stream8IntoIterECsATtFUPiRFW_3syn, symObjAddr: 0xF74, symBinAddr: 0x217E8, symSize: 0x34 }
  - { offset: 0x78298, size: 0x8, addend: 0x0, symName: __RINvXsh_NtCsdze8u8oDPro_5alloc3vecINtB6_3VecNtCs475r2uZUTuc_11proc_macro29TokenTreeEINtNtNtNtCs9f3LFPSIp77_4core4iter6traits7collect6ExtendBG_E6extendINtNtNtB1r_8adapters7flatten7FlattenINtNtB2t_3map3MapIB2Z_IB2Z_INtNtNtB1t_5slice4iter4IterNtNtCsATtFUPiRFW_3syn5error12ErrorMessageENvMs_B3S_B3Q_16to_compile_errorENCINvXs7_BI_NtBI_11TokenStreamINtB1n_12FromIteratorB5e_E9from_iterB3k_E0ENCINvXs6_NtBI_3impNtB6m_11TokenStreamIB5x_B6v_E9from_iterB3f_Es_0EEEB3U_, symObjAddr: 0xFA8, symBinAddr: 0x2181C, symSize: 0x40 }
  - { offset: 0x782ED, size: 0x8, addend: 0x0, symName: __RINvXsh_NtCsdze8u8oDPro_5alloc3vecINtB6_3VecNtNtCsATtFUPiRFW_3syn4attr9AttributeEINtNtNtNtCs9f3LFPSIp77_4core4iter6traits7collect6ExtendBG_E6extendBw_EBK_, symObjAddr: 0xFE8, symBinAddr: 0x2185C, symSize: 0x40 }
  - { offset: 0x78342, size: 0x8, addend: 0x0, symName: __RINvXsh_NtCsdze8u8oDPro_5alloc3vecINtB6_3VecNtNtCsATtFUPiRFW_3syn4data5FieldEINtNtNtNtCs9f3LFPSIp77_4core4iter6traits7collect6ExtendBG_E6extendINtNtB1m_6option6OptionBG_EEBK_, symObjAddr: 0x1028, symBinAddr: 0x2189C, symSize: 0x48 }
  - { offset: 0x78397, size: 0x8, addend: 0x0, symName: __RINvXsh_NtCsdze8u8oDPro_5alloc3vecINtB6_3VecNtNtCsATtFUPiRFW_3syn4data5FieldEINtNtNtNtCs9f3LFPSIp77_4core4iter6traits7collect6ExtendBG_E6extendINtNtNtB1k_8adapters3map3MapINtNtB6_9into_iter8IntoIterTBG_NtNtBK_5token5CommaEENCNvXs8_NtBK_10punctuatedINtB3H_10PunctuatedBG_B3e_ENtB1g_12IntoIterator9into_iter0EEBK_, symObjAddr: 0x1070, symBinAddr: 0x218E4, symSize: 0x40 }
  - { offset: 0x783EC, size: 0x8, addend: 0x0, symName: __RINvXsh_NtCsdze8u8oDPro_5alloc3vecINtB6_3VecNtNtCsATtFUPiRFW_3syn4data5FieldEINtNtNtNtCs9f3LFPSIp77_4core4iter6traits7collect6ExtendBG_E6extendINtNtNtB1k_8adapters3map3MapINtNtB6_9into_iter8IntoIterTBG_uEENCNvXs8_NtBK_10punctuatedINtB3p_10PunctuatedBG_uENtB1g_12IntoIterator9into_iter0EEBK_, symObjAddr: 0x10B0, symBinAddr: 0x21924, symSize: 0x40 }
  - { offset: 0x78441, size: 0x8, addend: 0x0, symName: __RINvXsh_NtCsdze8u8oDPro_5alloc3vecINtB6_3VecNtNtCsATtFUPiRFW_3syn5error12ErrorMessageEINtNtNtNtCs9f3LFPSIp77_4core4iter6traits7collect6ExtendBG_E6extendBw_EBK_, symObjAddr: 0x10F0, symBinAddr: 0x21964, symSize: 0x40 }
  - { offset: 0x78496, size: 0x8, addend: 0x0, symName: __RINvXsh_NtCsdze8u8oDPro_5alloc3vecINtB6_3VecNtNtCsATtFUPiRFW_3syn8generics14TypeParamBoundEINtNtNtNtCs9f3LFPSIp77_4core4iter6traits7collect6ExtendBG_E6extendINtNtB1A_6option6OptionBG_EEBK_, symObjAddr: 0x1130, symBinAddr: 0x219A4, symSize: 0x40 }
  - { offset: 0x784EB, size: 0x8, addend: 0x0, symName: __RINvXsh_NtCsdze8u8oDPro_5alloc3vecINtB6_3VecNtNtCsATtFUPiRFW_3syn8generics14TypeParamBoundEINtNtNtNtCs9f3LFPSIp77_4core4iter6traits7collect6ExtendBG_E6extendINtNtNtB1y_8adapters3map3MapINtNtB6_9into_iter8IntoIterTBG_NtNtBK_5token4PlusEENCNvXs8_NtBK_10punctuatedINtB3U_10PunctuatedBG_B3s_ENtB1u_12IntoIterator9into_iter0EEBK_, symObjAddr: 0x1170, symBinAddr: 0x219E4, symSize: 0x40 }
  - { offset: 0x7854B, size: 0x8, addend: 0x0, symName: __RNCINvMsi_NtCsdze8u8oDPro_5alloc3vecINtB8_3VecNtNtCsATtFUPiRFW_3syn4data5FieldE14extend_trustedINtNtCs9f3LFPSIp77_4core6option8IntoIterBI_EE0BM_, symObjAddr: 0x11B0, symBinAddr: 0x21A24, symSize: 0x78 }
  - { offset: 0x7863E, size: 0x8, addend: 0x0, symName: __RNCINvMsi_NtCsdze8u8oDPro_5alloc3vecINtB8_3VecNtNtCsATtFUPiRFW_3syn4data5FieldE14extend_trustedINtNtNtNtCs9f3LFPSIp77_4core4iter8adapters3map3MapINtNtB8_9into_iter8IntoIterTBI_NtNtBM_5token5CommaEENCNvXs8_NtBM_10punctuatedINtB3h_10PunctuatedBI_B2O_ENtNtNtB1C_6traits7collect12IntoIterator9into_iter0EE0BM_, symObjAddr: 0x1228, symBinAddr: 0x21A9C, symSize: 0x78 }
  - { offset: 0x78731, size: 0x8, addend: 0x0, symName: __RNCINvMsi_NtCsdze8u8oDPro_5alloc3vecINtB8_3VecNtNtCsATtFUPiRFW_3syn4data5FieldE14extend_trustedINtNtNtNtCs9f3LFPSIp77_4core4iter8adapters3map3MapINtNtB8_9into_iter8IntoIterTBI_uEENCNvXs8_NtBM_10punctuatedINtB2Z_10PunctuatedBI_uENtNtNtB1C_6traits7collect12IntoIterator9into_iter0EE0BM_, symObjAddr: 0x12A0, symBinAddr: 0x21B14, symSize: 0x78 }
  - { offset: 0x78824, size: 0x8, addend: 0x0, symName: __RNCINvMsi_NtCsdze8u8oDPro_5alloc3vecINtB8_3VecNtNtCsATtFUPiRFW_3syn8generics14TypeParamBoundE14extend_trustedINtNtCs9f3LFPSIp77_4core6option8IntoIterBI_EE0BM_, symObjAddr: 0x1318, symBinAddr: 0x21B8C, symSize: 0x78 }
  - { offset: 0x78917, size: 0x8, addend: 0x0, symName: __RNCINvMsi_NtCsdze8u8oDPro_5alloc3vecINtB8_3VecNtNtCsATtFUPiRFW_3syn8generics14TypeParamBoundE14extend_trustedINtNtNtNtCs9f3LFPSIp77_4core4iter8adapters3map3MapINtNtB8_9into_iter8IntoIterTBI_NtNtBM_5token4PlusEENCNvXs8_NtBM_10punctuatedINtB3u_10PunctuatedBI_B32_ENtNtNtB1Q_6traits7collect12IntoIterator9into_iter0EE0BM_, symObjAddr: 0x1390, symBinAddr: 0x21C04, symSize: 0x78 }
  - { offset: 0x78EF0, size: 0x8, addend: 0x0, symName: __RNvXNtNtCsdze8u8oDPro_5alloc3vec10partial_eqINtB4_3VecNtNtCsATtFUPiRFW_3syn4attr9AttributeENtNtCs9f3LFPSIp77_4core3cmp9PartialEq2eqBU_, symObjAddr: 0x7034, symBinAddr: 0x278A8, symSize: 0x7C }
  - { offset: 0x78F73, size: 0x8, addend: 0x0, symName: __RNvXNtNtCsdze8u8oDPro_5alloc3vec10partial_eqINtB4_3VecNtNtCsATtFUPiRFW_3syn4expr3ArmENtNtCs9f3LFPSIp77_4core3cmp9PartialEq2eqBU_, symObjAddr: 0x70B0, symBinAddr: 0x27924, symSize: 0x7C }
  - { offset: 0x78FF6, size: 0x8, addend: 0x0, symName: __RNvXNtNtCsdze8u8oDPro_5alloc3vec10partial_eqINtB4_3VecNtNtCsATtFUPiRFW_3syn4item11ForeignItemENtNtCs9f3LFPSIp77_4core3cmp9PartialEq2eqBU_, symObjAddr: 0x712C, symBinAddr: 0x279A0, symSize: 0x7C }
  - { offset: 0x79079, size: 0x8, addend: 0x0, symName: __RNvXNtNtCsdze8u8oDPro_5alloc3vec10partial_eqINtB4_3VecNtNtCsATtFUPiRFW_3syn4item4ItemENtNtCs9f3LFPSIp77_4core3cmp9PartialEq2eqBU_, symObjAddr: 0x71A8, symBinAddr: 0x27A1C, symSize: 0x7C }
  - { offset: 0x790FC, size: 0x8, addend: 0x0, symName: __RNvXNtNtCsdze8u8oDPro_5alloc3vec10partial_eqINtB4_3VecNtNtCsATtFUPiRFW_3syn4item8ImplItemENtNtCs9f3LFPSIp77_4core3cmp9PartialEq2eqBU_, symObjAddr: 0x7224, symBinAddr: 0x27A98, symSize: 0x7C }
  - { offset: 0x7917F, size: 0x8, addend: 0x0, symName: __RNvXNtNtCsdze8u8oDPro_5alloc3vec10partial_eqINtB4_3VecNtNtCsATtFUPiRFW_3syn4item9TraitItemENtNtCs9f3LFPSIp77_4core3cmp9PartialEq2eqBU_, symObjAddr: 0x72A0, symBinAddr: 0x27B14, symSize: 0x7C }
  - { offset: 0x79202, size: 0x8, addend: 0x0, symName: __RNvXNtNtCsdze8u8oDPro_5alloc3vec10partial_eqINtB4_3VecNtNtCsATtFUPiRFW_3syn4stmt4StmtENtNtCs9f3LFPSIp77_4core3cmp9PartialEq2eqBU_, symObjAddr: 0x731C, symBinAddr: 0x27B90, symSize: 0x7C }
  - { offset: 0x79285, size: 0x8, addend: 0x0, symName: __RNvXNtNtCsdze8u8oDPro_5alloc3vec10partial_eqINtB4_3VecTNtNtCsATtFUPiRFW_3syn2ty4TypeNtNtBV_5token5CommaEENtNtCs9f3LFPSIp77_4core3cmp9PartialEq2eqBV_, symObjAddr: 0x7398, symBinAddr: 0x27C0C, symSize: 0x7C }
  - { offset: 0x79308, size: 0x8, addend: 0x0, symName: __RNvXNtNtCsdze8u8oDPro_5alloc3vec10partial_eqINtB4_3VecTNtNtCsATtFUPiRFW_3syn2ty9BareFnArgNtNtBV_5token5CommaEENtNtCs9f3LFPSIp77_4core3cmp9PartialEq2eqBV_, symObjAddr: 0x7414, symBinAddr: 0x27C88, symSize: 0x7C }
  - { offset: 0x7938B, size: 0x8, addend: 0x0, symName: __RNvXNtNtCsdze8u8oDPro_5alloc3vec10partial_eqINtB4_3VecTNtNtCsATtFUPiRFW_3syn3pat3PatNtNtBV_5token2OrEENtNtCs9f3LFPSIp77_4core3cmp9PartialEq2eqBV_, symObjAddr: 0x7490, symBinAddr: 0x27D04, symSize: 0x7C }
  - { offset: 0x7940E, size: 0x8, addend: 0x0, symName: __RNvXNtNtCsdze8u8oDPro_5alloc3vec10partial_eqINtB4_3VecTNtNtCsATtFUPiRFW_3syn3pat3PatNtNtBV_5token5CommaEENtNtCs9f3LFPSIp77_4core3cmp9PartialEq2eqBV_, symObjAddr: 0x750C, symBinAddr: 0x27D80, symSize: 0x7C }
  - { offset: 0x79491, size: 0x8, addend: 0x0, symName: __RNvXNtNtCsdze8u8oDPro_5alloc3vec10partial_eqINtB4_3VecTNtNtCsATtFUPiRFW_3syn3pat8FieldPatNtNtBV_5token5CommaEENtNtCs9f3LFPSIp77_4core3cmp9PartialEq2eqBV_, symObjAddr: 0x7588, symBinAddr: 0x27DFC, symSize: 0x7C }
  - { offset: 0x79514, size: 0x8, addend: 0x0, symName: __RNvXNtNtCsdze8u8oDPro_5alloc3vec10partial_eqINtB4_3VecTNtNtCsATtFUPiRFW_3syn4data5FieldNtNtBV_5token5CommaEENtNtCs9f3LFPSIp77_4core3cmp9PartialEq2eqBV_, symObjAddr: 0x7604, symBinAddr: 0x27E78, symSize: 0x7C }
  - { offset: 0x79597, size: 0x8, addend: 0x0, symName: __RNvXNtNtCsdze8u8oDPro_5alloc3vec10partial_eqINtB4_3VecTNtNtCsATtFUPiRFW_3syn4data7VariantNtNtBV_5token5CommaEENtNtCs9f3LFPSIp77_4core3cmp9PartialEq2eqBV_, symObjAddr: 0x7680, symBinAddr: 0x27EF4, symSize: 0x7C }
  - { offset: 0x7961A, size: 0x8, addend: 0x0, symName: __RNvXNtNtCsdze8u8oDPro_5alloc3vec10partial_eqINtB4_3VecTNtNtCsATtFUPiRFW_3syn4expr10FieldValueNtNtBV_5token5CommaEENtNtCs9f3LFPSIp77_4core3cmp9PartialEq2eqBV_, symObjAddr: 0x76FC, symBinAddr: 0x27F70, symSize: 0x7C }
  - { offset: 0x7969D, size: 0x8, addend: 0x0, symName: __RNvXNtNtCsdze8u8oDPro_5alloc3vec10partial_eqINtB4_3VecTNtNtCsATtFUPiRFW_3syn4expr4ExprNtNtBV_5token5CommaEENtNtCs9f3LFPSIp77_4core3cmp9PartialEq2eqBV_, symObjAddr: 0x7778, symBinAddr: 0x27FEC, symSize: 0x7C }
  - { offset: 0x79720, size: 0x8, addend: 0x0, symName: __RNvXNtNtCsdze8u8oDPro_5alloc3vec10partial_eqINtB4_3VecTNtNtCsATtFUPiRFW_3syn4item5FnArgNtNtBV_5token5CommaEENtNtCs9f3LFPSIp77_4core3cmp9PartialEq2eqBV_, symObjAddr: 0x77F4, symBinAddr: 0x28068, symSize: 0x7C }
  - { offset: 0x797A3, size: 0x8, addend: 0x0, symName: __RNvXNtNtCsdze8u8oDPro_5alloc3vec10partial_eqINtB4_3VecTNtNtCsATtFUPiRFW_3syn4item7UseTreeNtNtBV_5token5CommaEENtNtCs9f3LFPSIp77_4core3cmp9PartialEq2eqBV_, symObjAddr: 0x7870, symBinAddr: 0x280E4, symSize: 0x7C }
  - { offset: 0x79826, size: 0x8, addend: 0x0, symName: __RNvXNtNtCsdze8u8oDPro_5alloc3vec10partial_eqINtB4_3VecTNtNtCsATtFUPiRFW_3syn4path11PathSegmentNtNtBV_5token7PathSepEENtNtCs9f3LFPSIp77_4core3cmp9PartialEq2eqBV_, symObjAddr: 0x78EC, symBinAddr: 0x28160, symSize: 0x7C }
  - { offset: 0x798A9, size: 0x8, addend: 0x0, symName: __RNvXNtNtCsdze8u8oDPro_5alloc3vec10partial_eqINtB4_3VecTNtNtCsATtFUPiRFW_3syn4path15GenericArgumentNtNtBV_5token5CommaEENtNtCs9f3LFPSIp77_4core3cmp9PartialEq2eqBV_, symObjAddr: 0x7968, symBinAddr: 0x281DC, symSize: 0x7C }
  - { offset: 0x7992C, size: 0x8, addend: 0x0, symName: __RNvXNtNtCsdze8u8oDPro_5alloc3vec10partial_eqINtB4_3VecTNtNtCsATtFUPiRFW_3syn8generics12GenericParamNtNtBV_5token5CommaEENtNtCs9f3LFPSIp77_4core3cmp9PartialEq2eqBV_, symObjAddr: 0x79E4, symBinAddr: 0x28258, symSize: 0x7C }
  - { offset: 0x799AF, size: 0x8, addend: 0x0, symName: __RNvXNtNtCsdze8u8oDPro_5alloc3vec10partial_eqINtB4_3VecTNtNtCsATtFUPiRFW_3syn8generics13CapturedParamNtNtBV_5token5CommaEENtNtCs9f3LFPSIp77_4core3cmp9PartialEq2eqBV_, symObjAddr: 0x7A60, symBinAddr: 0x282D4, symSize: 0x7C }
  - { offset: 0x79A32, size: 0x8, addend: 0x0, symName: __RNvXNtNtCsdze8u8oDPro_5alloc3vec10partial_eqINtB4_3VecTNtNtCsATtFUPiRFW_3syn8generics14TypeParamBoundNtNtBV_5token4PlusEENtNtCs9f3LFPSIp77_4core3cmp9PartialEq2eqBV_, symObjAddr: 0x7ADC, symBinAddr: 0x28350, symSize: 0x7C }
  - { offset: 0x79AB5, size: 0x8, addend: 0x0, symName: __RNvXNtNtCsdze8u8oDPro_5alloc3vec10partial_eqINtB4_3VecTNtNtCsATtFUPiRFW_3syn8generics14WherePredicateNtNtBV_5token5CommaEENtNtCs9f3LFPSIp77_4core3cmp9PartialEq2eqBV_, symObjAddr: 0x7B58, symBinAddr: 0x283CC, symSize: 0x7C }
  - { offset: 0x79B38, size: 0x8, addend: 0x0, symName: __RNvXNtNtCsdze8u8oDPro_5alloc3vec10partial_eqINtB4_3VecTNtNtCsATtFUPiRFW_3syn8lifetime8LifetimeNtNtBV_5token4PlusEENtNtCs9f3LFPSIp77_4core3cmp9PartialEq2eqBV_, symObjAddr: 0x7BD4, symBinAddr: 0x28448, symSize: 0x7C }
  - { offset: 0x79BC7, size: 0x8, addend: 0x0, symName: __RNvXNtNtCsdze8u8oDPro_5alloc3vec11spec_extendINtB4_3VecNtCs475r2uZUTuc_11proc_macro29TokenTreeEINtB2_10SpecExtendBR_INtNtNtNtCs9f3LFPSIp77_4core4iter8adapters7flatten7FlattenINtNtB1V_3map3MapIB2N_IB2N_INtNtNtB1Z_5slice4iter4IterNtNtCsATtFUPiRFW_3syn5error12ErrorMessageENvMs_B3G_B3E_16to_compile_errorENCINvXs7_BT_NtBT_11TokenStreamINtNtNtB1X_6traits7collect12FromIteratorB52_E9from_iterB38_E0ENCINvXs6_NtBT_3impNtB6t_11TokenStreamIB5l_B6C_E9from_iterB33_Es_0EEE11spec_extendB3I_, symObjAddr: 0x7C50, symBinAddr: 0x284C4, symSize: 0x24 }
  - { offset: 0x79C19, size: 0x8, addend: 0x0, symName: __RNvXNtNtCsdze8u8oDPro_5alloc3vec11spec_extendINtB4_3VecNtCs475r2uZUTuc_11proc_macro29TokenTreeEINtB2_10SpecExtendBR_NtNtBT_12token_stream8IntoIterE11spec_extendCsATtFUPiRFW_3syn, symObjAddr: 0x7C74, symBinAddr: 0x284E8, symSize: 0x24 }
  - { offset: 0x79C71, size: 0x8, addend: 0x0, symName: __RNvXs0_NtNtCsdze8u8oDPro_5alloc3vec11spec_extendINtB7_3VecNtNtCsATtFUPiRFW_3syn4attr9AttributeEINtB5_10SpecExtendBU_INtNtB7_9into_iter8IntoIterBU_EE11spec_extendBY_, symObjAddr: 0x81C4, symBinAddr: 0x28A38, symSize: 0x94 }
  - { offset: 0x79CD7, size: 0x8, addend: 0x0, symName: __RNvXs0_NtNtCsdze8u8oDPro_5alloc3vec11spec_extendINtB7_3VecNtNtCsATtFUPiRFW_3syn5error12ErrorMessageEINtB5_10SpecExtendBU_INtNtB7_9into_iter8IntoIterBU_EE11spec_extendBY_, symObjAddr: 0x8258, symBinAddr: 0x28ACC, symSize: 0x94 }
  - { offset: 0x79D43, size: 0x8, addend: 0x0, symName: __RNvXs2_NtNtCsdze8u8oDPro_5alloc3vec11spec_extendINtB7_3VechEINtB5_10SpecExtendRhINtNtNtCs9f3LFPSIp77_4core5slice4iter4IterhEE11spec_extendCsATtFUPiRFW_3syn, symObjAddr: 0x8304, symBinAddr: 0x28B78, symSize: 0xA8 }
  - { offset: 0x79F02, size: 0x8, addend: 0x0, symName: __RNvXs_NtNtCsdze8u8oDPro_5alloc3vec11spec_extendINtB6_3VecNtNtCsATtFUPiRFW_3syn4data5FieldEINtB4_10SpecExtendBT_INtNtCs9f3LFPSIp77_4core6option8IntoIterBT_EE11spec_extendBX_, symObjAddr: 0x99AC, symBinAddr: 0x2A220, symSize: 0x24 }
  - { offset: 0x79F54, size: 0x8, addend: 0x0, symName: __RNvXs_NtNtCsdze8u8oDPro_5alloc3vec11spec_extendINtB6_3VecNtNtCsATtFUPiRFW_3syn4data5FieldEINtB4_10SpecExtendBT_INtNtNtNtCs9f3LFPSIp77_4core4iter8adapters3map3MapINtNtB6_9into_iter8IntoIterTBT_NtNtBX_5token5CommaEENCNvXs8_NtBX_10punctuatedINtB3x_10PunctuatedBT_B34_ENtNtNtB1S_6traits7collect12IntoIterator9into_iter0EE11spec_extendBX_, symObjAddr: 0x99D0, symBinAddr: 0x2A244, symSize: 0x24 }
  - { offset: 0x79FA6, size: 0x8, addend: 0x0, symName: __RNvXs_NtNtCsdze8u8oDPro_5alloc3vec11spec_extendINtB6_3VecNtNtCsATtFUPiRFW_3syn4data5FieldEINtB4_10SpecExtendBT_INtNtNtNtCs9f3LFPSIp77_4core4iter8adapters3map3MapINtNtB6_9into_iter8IntoIterTBT_uEENCNvXs8_NtBX_10punctuatedINtB3f_10PunctuatedBT_uENtNtNtB1S_6traits7collect12IntoIterator9into_iter0EE11spec_extendBX_, symObjAddr: 0x99F4, symBinAddr: 0x2A268, symSize: 0x24 }
  - { offset: 0x79FF8, size: 0x8, addend: 0x0, symName: __RNvXs_NtNtCsdze8u8oDPro_5alloc3vec11spec_extendINtB6_3VecNtNtCsATtFUPiRFW_3syn8generics14TypeParamBoundEINtB4_10SpecExtendBT_INtNtCs9f3LFPSIp77_4core6option8IntoIterBT_EE11spec_extendBX_, symObjAddr: 0x9A18, symBinAddr: 0x2A28C, symSize: 0x24 }
  - { offset: 0x7A04A, size: 0x8, addend: 0x0, symName: __RNvXs_NtNtCsdze8u8oDPro_5alloc3vec11spec_extendINtB6_3VecNtNtCsATtFUPiRFW_3syn8generics14TypeParamBoundEINtB4_10SpecExtendBT_INtNtNtNtCs9f3LFPSIp77_4core4iter8adapters3map3MapINtNtB6_9into_iter8IntoIterTBT_NtNtBX_5token4PlusEENCNvXs8_NtBX_10punctuatedINtB3K_10PunctuatedBT_B3i_ENtNtNtB26_6traits7collect12IntoIterator9into_iter0EE11spec_extendBX_, symObjAddr: 0x9A3C, symBinAddr: 0x2A2B0, symSize: 0x24 }
  - { offset: 0x7A0A8, size: 0x8, addend: 0x0, symName: __RNvXNtNtCsdze8u8oDPro_5alloc3vec14spec_from_iterINtB4_3VecNtCs475r2uZUTuc_11proc_macro29TokenTreeEINtB2_12SpecFromIterBU_NtNtBW_12token_stream8IntoIterE9from_iterCsATtFUPiRFW_3syn, symObjAddr: 0x7C98, symBinAddr: 0x2850C, symSize: 0x14 }
  - { offset: 0x7A0F3, size: 0x8, addend: 0x0, symName: __RNvXNtNtCsdze8u8oDPro_5alloc3vec21spec_from_iter_nestedINtB4_3VecNtCs475r2uZUTuc_11proc_macro29TokenTreeEINtB2_18SpecFromIterNestedB11_NtNtB13_12token_stream8IntoIterE9from_iterCsATtFUPiRFW_3syn, symObjAddr: 0x7CAC, symBinAddr: 0x28520, symSize: 0x254 }
  - { offset: 0x7A43C, size: 0x8, addend: 0x0, symName: __RNvXs6_NtCsdze8u8oDPro_5alloc3vecINtB5_3VecNtNtCsATtFUPiRFW_3syn4attr9AttributeENtNtNtCs9f3LFPSIp77_4core3ops5deref5Deref5derefBJ_, symObjAddr: 0x83AC, symBinAddr: 0x28C20, symSize: 0x24 }
  - { offset: 0x7A47C, size: 0x8, addend: 0x0, symName: __RNvXs6_NtCsdze8u8oDPro_5alloc3vecINtB5_3VecNtNtCsATtFUPiRFW_3syn4expr3ArmENtNtNtCs9f3LFPSIp77_4core3ops5deref5Deref5derefBJ_, symObjAddr: 0x83D0, symBinAddr: 0x28C44, symSize: 0x24 }
  - { offset: 0x7A4BC, size: 0x8, addend: 0x0, symName: __RNvXs6_NtCsdze8u8oDPro_5alloc3vecINtB5_3VecNtNtCsATtFUPiRFW_3syn5error12ErrorMessageENtNtNtCs9f3LFPSIp77_4core3ops5deref5Deref5derefBJ_, symObjAddr: 0x83F4, symBinAddr: 0x28C68, symSize: 0x24 }
  - { offset: 0x7A4FC, size: 0x8, addend: 0x0, symName: __RNvXs6_NtCsdze8u8oDPro_5alloc3vecINtB5_3VecReENtNtNtCs9f3LFPSIp77_4core3ops5deref5Deref5derefCsATtFUPiRFW_3syn, symObjAddr: 0x8418, symBinAddr: 0x28C8C, symSize: 0x24 }
  - { offset: 0x7A53C, size: 0x8, addend: 0x0, symName: __RNvXs6_NtCsdze8u8oDPro_5alloc3vecINtB5_3VecTNtNtCsATtFUPiRFW_3syn2ty4TypeNtNtBK_5token5CommaEENtNtNtCs9f3LFPSIp77_4core3ops5deref5Deref5derefBK_, symObjAddr: 0x843C, symBinAddr: 0x28CB0, symSize: 0x24 }
  - { offset: 0x7A57C, size: 0x8, addend: 0x0, symName: __RNvXs6_NtCsdze8u8oDPro_5alloc3vecINtB5_3VecTNtNtCsATtFUPiRFW_3syn2ty9BareFnArgNtNtBK_5token5CommaEENtNtNtCs9f3LFPSIp77_4core3ops5deref5Deref5derefBK_, symObjAddr: 0x8460, symBinAddr: 0x28CD4, symSize: 0x24 }
  - { offset: 0x7A5BC, size: 0x8, addend: 0x0, symName: __RNvXs6_NtCsdze8u8oDPro_5alloc3vecINtB5_3VecTNtNtCsATtFUPiRFW_3syn3pat3PatNtNtBK_5token2OrEENtNtNtCs9f3LFPSIp77_4core3ops5deref5Deref5derefBK_, symObjAddr: 0x8484, symBinAddr: 0x28CF8, symSize: 0x24 }
  - { offset: 0x7A5FC, size: 0x8, addend: 0x0, symName: __RNvXs6_NtCsdze8u8oDPro_5alloc3vecINtB5_3VecTNtNtCsATtFUPiRFW_3syn3pat3PatNtNtBK_5token5CommaEENtNtNtCs9f3LFPSIp77_4core3ops5deref5Deref5derefBK_, symObjAddr: 0x84A8, symBinAddr: 0x28D1C, symSize: 0x24 }
  - { offset: 0x7A63C, size: 0x8, addend: 0x0, symName: __RNvXs6_NtCsdze8u8oDPro_5alloc3vecINtB5_3VecTNtNtCsATtFUPiRFW_3syn3pat8FieldPatNtNtBK_5token5CommaEENtNtNtCs9f3LFPSIp77_4core3ops5deref5Deref5derefBK_, symObjAddr: 0x84CC, symBinAddr: 0x28D40, symSize: 0x24 }
  - { offset: 0x7A67C, size: 0x8, addend: 0x0, symName: __RNvXs6_NtCsdze8u8oDPro_5alloc3vecINtB5_3VecTNtNtCsATtFUPiRFW_3syn4data5FieldNtNtBK_5token5CommaEENtNtNtCs9f3LFPSIp77_4core3ops5deref5Deref5derefBK_, symObjAddr: 0x84F0, symBinAddr: 0x28D64, symSize: 0x24 }
  - { offset: 0x7A6BC, size: 0x8, addend: 0x0, symName: __RNvXs6_NtCsdze8u8oDPro_5alloc3vecINtB5_3VecTNtNtCsATtFUPiRFW_3syn4data7VariantNtNtBK_5token5CommaEENtNtNtCs9f3LFPSIp77_4core3ops5deref5Deref5derefBK_, symObjAddr: 0x8514, symBinAddr: 0x28D88, symSize: 0x24 }
  - { offset: 0x7A6FC, size: 0x8, addend: 0x0, symName: __RNvXs6_NtCsdze8u8oDPro_5alloc3vecINtB5_3VecTNtNtCsATtFUPiRFW_3syn4expr10FieldValueNtNtBK_5token5CommaEENtNtNtCs9f3LFPSIp77_4core3ops5deref5Deref5derefBK_, symObjAddr: 0x8538, symBinAddr: 0x28DAC, symSize: 0x24 }
  - { offset: 0x7A73C, size: 0x8, addend: 0x0, symName: __RNvXs6_NtCsdze8u8oDPro_5alloc3vecINtB5_3VecTNtNtCsATtFUPiRFW_3syn4expr4ExprNtNtBK_5token5CommaEENtNtNtCs9f3LFPSIp77_4core3ops5deref5Deref5derefBK_, symObjAddr: 0x855C, symBinAddr: 0x28DD0, symSize: 0x24 }
  - { offset: 0x7A77C, size: 0x8, addend: 0x0, symName: __RNvXs6_NtCsdze8u8oDPro_5alloc3vecINtB5_3VecTNtNtCsATtFUPiRFW_3syn4item5FnArgNtNtBK_5token5CommaEENtNtNtCs9f3LFPSIp77_4core3ops5deref5Deref5derefBK_, symObjAddr: 0x8580, symBinAddr: 0x28DF4, symSize: 0x24 }
  - { offset: 0x7A7BC, size: 0x8, addend: 0x0, symName: __RNvXs6_NtCsdze8u8oDPro_5alloc3vecINtB5_3VecTNtNtCsATtFUPiRFW_3syn4item7UseTreeNtNtBK_5token5CommaEENtNtNtCs9f3LFPSIp77_4core3ops5deref5Deref5derefBK_, symObjAddr: 0x85A4, symBinAddr: 0x28E18, symSize: 0x24 }
  - { offset: 0x7A7FC, size: 0x8, addend: 0x0, symName: __RNvXs6_NtCsdze8u8oDPro_5alloc3vecINtB5_3VecTNtNtCsATtFUPiRFW_3syn4path11PathSegmentNtNtBK_5token7PathSepEENtNtNtCs9f3LFPSIp77_4core3ops5deref5Deref5derefBK_, symObjAddr: 0x85C8, symBinAddr: 0x28E3C, symSize: 0x24 }
  - { offset: 0x7A83C, size: 0x8, addend: 0x0, symName: __RNvXs6_NtCsdze8u8oDPro_5alloc3vecINtB5_3VecTNtNtCsATtFUPiRFW_3syn4path15GenericArgumentNtNtBK_5token5CommaEENtNtNtCs9f3LFPSIp77_4core3ops5deref5Deref5derefBK_, symObjAddr: 0x85EC, symBinAddr: 0x28E60, symSize: 0x24 }
  - { offset: 0x7A87C, size: 0x8, addend: 0x0, symName: __RNvXs6_NtCsdze8u8oDPro_5alloc3vecINtB5_3VecTNtNtCsATtFUPiRFW_3syn8generics12GenericParamNtNtBK_5token5CommaEENtNtNtCs9f3LFPSIp77_4core3ops5deref5Deref5derefBK_, symObjAddr: 0x8610, symBinAddr: 0x28E84, symSize: 0x24 }
  - { offset: 0x7A8BC, size: 0x8, addend: 0x0, symName: __RNvXs6_NtCsdze8u8oDPro_5alloc3vecINtB5_3VecTNtNtCsATtFUPiRFW_3syn8generics13CapturedParamNtNtBK_5token5CommaEENtNtNtCs9f3LFPSIp77_4core3ops5deref5Deref5derefBK_, symObjAddr: 0x8634, symBinAddr: 0x28EA8, symSize: 0x24 }
  - { offset: 0x7A8FC, size: 0x8, addend: 0x0, symName: __RNvXs6_NtCsdze8u8oDPro_5alloc3vecINtB5_3VecTNtNtCsATtFUPiRFW_3syn8generics14TypeParamBoundNtNtBK_5token4PlusEENtNtNtCs9f3LFPSIp77_4core3ops5deref5Deref5derefBK_, symObjAddr: 0x8658, symBinAddr: 0x28ECC, symSize: 0x24 }
  - { offset: 0x7A93C, size: 0x8, addend: 0x0, symName: __RNvXs6_NtCsdze8u8oDPro_5alloc3vecINtB5_3VecTNtNtCsATtFUPiRFW_3syn8generics14WherePredicateNtNtBK_5token5CommaEENtNtNtCs9f3LFPSIp77_4core3ops5deref5Deref5derefBK_, symObjAddr: 0x867C, symBinAddr: 0x28EF0, symSize: 0x24 }
  - { offset: 0x7A97C, size: 0x8, addend: 0x0, symName: __RNvXs6_NtCsdze8u8oDPro_5alloc3vecINtB5_3VecTNtNtCsATtFUPiRFW_3syn8lifetime8LifetimeNtNtBK_5token4PlusEENtNtNtCs9f3LFPSIp77_4core3ops5deref5Deref5derefBK_, symObjAddr: 0x86A0, symBinAddr: 0x28F14, symSize: 0x24 }
  - { offset: 0x7A9BC, size: 0x8, addend: 0x0, symName: __RNvXs6_NtCsdze8u8oDPro_5alloc3vecINtB5_3VechENtNtNtCs9f3LFPSIp77_4core3ops5deref5Deref5derefCsATtFUPiRFW_3syn, symObjAddr: 0x86C4, symBinAddr: 0x28F38, symSize: 0x24 }
  - { offset: 0x7BAE2, size: 0x8, addend: 0x0, symName: __RNvXs7_NtCsdze8u8oDPro_5alloc3vecINtB5_3VecTNtNtCsATtFUPiRFW_3syn4data5FieldNtNtBK_5token5CommaEENtNtNtCs9f3LFPSIp77_4core3ops5deref8DerefMut9deref_mutBK_, symObjAddr: 0x86E8, symBinAddr: 0x28F5C, symSize: 0x24 }
  - { offset: 0x7BB22, size: 0x8, addend: 0x0, symName: __RNvXs7_NtCsdze8u8oDPro_5alloc3vecINtB5_3VecTNtNtCsATtFUPiRFW_3syn4path11PathSegmentNtNtBK_5token7PathSepEENtNtNtCs9f3LFPSIp77_4core3ops5deref8DerefMut9deref_mutBK_, symObjAddr: 0x870C, symBinAddr: 0x28F80, symSize: 0x24 }
  - { offset: 0x7BB62, size: 0x8, addend: 0x0, symName: __RNvXs7_NtCsdze8u8oDPro_5alloc3vecINtB5_3VecTNtNtCsATtFUPiRFW_3syn8generics12GenericParamNtNtBK_5token5CommaEENtNtNtCs9f3LFPSIp77_4core3ops5deref8DerefMut9deref_mutBK_, symObjAddr: 0x8730, symBinAddr: 0x28FA4, symSize: 0x24 }
  - { offset: 0x7BC38, size: 0x8, addend: 0x0, symName: __RNvXs9_NtCsdze8u8oDPro_5alloc3vecINtB5_3VecNtNtCsATtFUPiRFW_3syn4attr9AttributeENtNtCs9f3LFPSIp77_4core5clone5Clone5cloneBJ_, symObjAddr: 0x8754, symBinAddr: 0x28FC8, symSize: 0xB0 }
  - { offset: 0x7BE9C, size: 0x8, addend: 0x0, symName: __RNvXs9_NtCsdze8u8oDPro_5alloc3vecINtB5_3VecNtNtCsATtFUPiRFW_3syn4expr3ArmENtNtCs9f3LFPSIp77_4core5clone5Clone5cloneBJ_, symObjAddr: 0x8804, symBinAddr: 0x29078, symSize: 0xB0 }
  - { offset: 0x7C100, size: 0x8, addend: 0x0, symName: __RNvXs9_NtCsdze8u8oDPro_5alloc3vecINtB5_3VecNtNtCsATtFUPiRFW_3syn4item11ForeignItemENtNtCs9f3LFPSIp77_4core5clone5Clone5cloneBJ_, symObjAddr: 0x88B4, symBinAddr: 0x29128, symSize: 0xB0 }
  - { offset: 0x7C364, size: 0x8, addend: 0x0, symName: __RNvXs9_NtCsdze8u8oDPro_5alloc3vecINtB5_3VecNtNtCsATtFUPiRFW_3syn4item4ItemENtNtCs9f3LFPSIp77_4core5clone5Clone5cloneBJ_, symObjAddr: 0x8964, symBinAddr: 0x291D8, symSize: 0xB0 }
  - { offset: 0x7C5C8, size: 0x8, addend: 0x0, symName: __RNvXs9_NtCsdze8u8oDPro_5alloc3vecINtB5_3VecNtNtCsATtFUPiRFW_3syn4item8ImplItemENtNtCs9f3LFPSIp77_4core5clone5Clone5cloneBJ_, symObjAddr: 0x8A14, symBinAddr: 0x29288, symSize: 0xB0 }
  - { offset: 0x7C82C, size: 0x8, addend: 0x0, symName: __RNvXs9_NtCsdze8u8oDPro_5alloc3vecINtB5_3VecNtNtCsATtFUPiRFW_3syn4item9TraitItemENtNtCs9f3LFPSIp77_4core5clone5Clone5cloneBJ_, symObjAddr: 0x8AC4, symBinAddr: 0x29338, symSize: 0xB0 }
  - { offset: 0x7CA90, size: 0x8, addend: 0x0, symName: __RNvXs9_NtCsdze8u8oDPro_5alloc3vecINtB5_3VecNtNtCsATtFUPiRFW_3syn4stmt4StmtENtNtCs9f3LFPSIp77_4core5clone5Clone5cloneBJ_, symObjAddr: 0x8B74, symBinAddr: 0x293E8, symSize: 0xB0 }
  - { offset: 0x7CCF4, size: 0x8, addend: 0x0, symName: __RNvXs9_NtCsdze8u8oDPro_5alloc3vecINtB5_3VecNtNtCsATtFUPiRFW_3syn5error12ErrorMessageENtNtCs9f3LFPSIp77_4core5clone5Clone5cloneBJ_, symObjAddr: 0x8C24, symBinAddr: 0x29498, symSize: 0xB0 }
  - { offset: 0x7CF58, size: 0x8, addend: 0x0, symName: __RNvXs9_NtCsdze8u8oDPro_5alloc3vecINtB5_3VecTNtNtCsATtFUPiRFW_3syn2ty4TypeNtNtBK_5token5CommaEENtNtCs9f3LFPSIp77_4core5clone5Clone5cloneBK_, symObjAddr: 0x8CD4, symBinAddr: 0x29548, symSize: 0xB0 }
  - { offset: 0x7D1BC, size: 0x8, addend: 0x0, symName: __RNvXs9_NtCsdze8u8oDPro_5alloc3vecINtB5_3VecTNtNtCsATtFUPiRFW_3syn2ty9BareFnArgNtNtBK_5token5CommaEENtNtCs9f3LFPSIp77_4core5clone5Clone5cloneBK_, symObjAddr: 0x8D84, symBinAddr: 0x295F8, symSize: 0xB0 }
  - { offset: 0x7D420, size: 0x8, addend: 0x0, symName: __RNvXs9_NtCsdze8u8oDPro_5alloc3vecINtB5_3VecTNtNtCsATtFUPiRFW_3syn3pat3PatNtNtBK_5token2OrEENtNtCs9f3LFPSIp77_4core5clone5Clone5cloneBK_, symObjAddr: 0x8E34, symBinAddr: 0x296A8, symSize: 0xB0 }
  - { offset: 0x7D684, size: 0x8, addend: 0x0, symName: __RNvXs9_NtCsdze8u8oDPro_5alloc3vecINtB5_3VecTNtNtCsATtFUPiRFW_3syn3pat3PatNtNtBK_5token5CommaEENtNtCs9f3LFPSIp77_4core5clone5Clone5cloneBK_, symObjAddr: 0x8EE4, symBinAddr: 0x29758, symSize: 0xB0 }
  - { offset: 0x7D8E8, size: 0x8, addend: 0x0, symName: __RNvXs9_NtCsdze8u8oDPro_5alloc3vecINtB5_3VecTNtNtCsATtFUPiRFW_3syn3pat8FieldPatNtNtBK_5token5CommaEENtNtCs9f3LFPSIp77_4core5clone5Clone5cloneBK_, symObjAddr: 0x8F94, symBinAddr: 0x29808, symSize: 0xB0 }
  - { offset: 0x7DB4C, size: 0x8, addend: 0x0, symName: __RNvXs9_NtCsdze8u8oDPro_5alloc3vecINtB5_3VecTNtNtCsATtFUPiRFW_3syn4data5FieldNtNtBK_5token5CommaEENtNtCs9f3LFPSIp77_4core5clone5Clone5cloneBK_, symObjAddr: 0x9044, symBinAddr: 0x298B8, symSize: 0xB0 }
  - { offset: 0x7DDB0, size: 0x8, addend: 0x0, symName: __RNvXs9_NtCsdze8u8oDPro_5alloc3vecINtB5_3VecTNtNtCsATtFUPiRFW_3syn4data7VariantNtNtBK_5token5CommaEENtNtCs9f3LFPSIp77_4core5clone5Clone5cloneBK_, symObjAddr: 0x90F4, symBinAddr: 0x29968, symSize: 0xB0 }
  - { offset: 0x7E014, size: 0x8, addend: 0x0, symName: __RNvXs9_NtCsdze8u8oDPro_5alloc3vecINtB5_3VecTNtNtCsATtFUPiRFW_3syn4expr10FieldValueNtNtBK_5token5CommaEENtNtCs9f3LFPSIp77_4core5clone5Clone5cloneBK_, symObjAddr: 0x91A4, symBinAddr: 0x29A18, symSize: 0xB0 }
  - { offset: 0x7E278, size: 0x8, addend: 0x0, symName: __RNvXs9_NtCsdze8u8oDPro_5alloc3vecINtB5_3VecTNtNtCsATtFUPiRFW_3syn4expr4ExprNtNtBK_5token5CommaEENtNtCs9f3LFPSIp77_4core5clone5Clone5cloneBK_, symObjAddr: 0x9254, symBinAddr: 0x29AC8, symSize: 0xB0 }
  - { offset: 0x7E4DC, size: 0x8, addend: 0x0, symName: __RNvXs9_NtCsdze8u8oDPro_5alloc3vecINtB5_3VecTNtNtCsATtFUPiRFW_3syn4item5FnArgNtNtBK_5token5CommaEENtNtCs9f3LFPSIp77_4core5clone5Clone5cloneBK_, symObjAddr: 0x9304, symBinAddr: 0x29B78, symSize: 0xB0 }
  - { offset: 0x7E740, size: 0x8, addend: 0x0, symName: __RNvXs9_NtCsdze8u8oDPro_5alloc3vecINtB5_3VecTNtNtCsATtFUPiRFW_3syn4item7UseTreeNtNtBK_5token5CommaEENtNtCs9f3LFPSIp77_4core5clone5Clone5cloneBK_, symObjAddr: 0x93B4, symBinAddr: 0x29C28, symSize: 0xB0 }
  - { offset: 0x7E9A4, size: 0x8, addend: 0x0, symName: __RNvXs9_NtCsdze8u8oDPro_5alloc3vecINtB5_3VecTNtNtCsATtFUPiRFW_3syn4path11PathSegmentNtNtBK_5token7PathSepEENtNtCs9f3LFPSIp77_4core5clone5Clone5cloneBK_, symObjAddr: 0x9464, symBinAddr: 0x29CD8, symSize: 0xB0 }
  - { offset: 0x7EC08, size: 0x8, addend: 0x0, symName: __RNvXs9_NtCsdze8u8oDPro_5alloc3vecINtB5_3VecTNtNtCsATtFUPiRFW_3syn4path15GenericArgumentNtNtBK_5token5CommaEENtNtCs9f3LFPSIp77_4core5clone5Clone5cloneBK_, symObjAddr: 0x9514, symBinAddr: 0x29D88, symSize: 0xB0 }
  - { offset: 0x7EE6C, size: 0x8, addend: 0x0, symName: __RNvXs9_NtCsdze8u8oDPro_5alloc3vecINtB5_3VecTNtNtCsATtFUPiRFW_3syn8generics12GenericParamNtNtBK_5token5CommaEENtNtCs9f3LFPSIp77_4core5clone5Clone5cloneBK_, symObjAddr: 0x95C4, symBinAddr: 0x29E38, symSize: 0xB0 }
  - { offset: 0x7F0D0, size: 0x8, addend: 0x0, symName: __RNvXs9_NtCsdze8u8oDPro_5alloc3vecINtB5_3VecTNtNtCsATtFUPiRFW_3syn8generics13CapturedParamNtNtBK_5token5CommaEENtNtCs9f3LFPSIp77_4core5clone5Clone5cloneBK_, symObjAddr: 0x9674, symBinAddr: 0x29EE8, symSize: 0xB0 }
  - { offset: 0x7F334, size: 0x8, addend: 0x0, symName: __RNvXs9_NtCsdze8u8oDPro_5alloc3vecINtB5_3VecTNtNtCsATtFUPiRFW_3syn8generics14TypeParamBoundNtNtBK_5token4PlusEENtNtCs9f3LFPSIp77_4core5clone5Clone5cloneBK_, symObjAddr: 0x9724, symBinAddr: 0x29F98, symSize: 0xB0 }
  - { offset: 0x7F598, size: 0x8, addend: 0x0, symName: __RNvXs9_NtCsdze8u8oDPro_5alloc3vecINtB5_3VecTNtNtCsATtFUPiRFW_3syn8generics14WherePredicateNtNtBK_5token5CommaEENtNtCs9f3LFPSIp77_4core5clone5Clone5cloneBK_, symObjAddr: 0x97D4, symBinAddr: 0x2A048, symSize: 0xB0 }
  - { offset: 0x7F7FC, size: 0x8, addend: 0x0, symName: __RNvXs9_NtCsdze8u8oDPro_5alloc3vecINtB5_3VecTNtNtCsATtFUPiRFW_3syn8lifetime8LifetimeNtNtBK_5token4PlusEENtNtCs9f3LFPSIp77_4core5clone5Clone5cloneBK_, symObjAddr: 0x9884, symBinAddr: 0x2A0F8, symSize: 0xB0 }
  - { offset: 0x7FA66, size: 0x8, addend: 0x0, symName: __RNvXsb_NtCsdze8u8oDPro_5alloc3vecINtB5_3VecNtNtCsATtFUPiRFW_3syn4attr9AttributeEINtNtNtCs9f3LFPSIp77_4core3ops5index5IndexNtNtB1l_5range9RangeFullE5indexBJ_, symObjAddr: 0x9A60, symBinAddr: 0x2A2D4, symSize: 0x90 }
  - { offset: 0x7FC44, size: 0x8, addend: 0x0, symName: __RNvXsb_NtCsdze8u8oDPro_5alloc3vecINtB5_3VecNtNtCsATtFUPiRFW_3syn4expr3ArmEINtNtNtCs9f3LFPSIp77_4core3ops5index5IndexNtNtB1f_5range9RangeFullE5indexBJ_, symObjAddr: 0x9AF0, symBinAddr: 0x2A364, symSize: 0x90 }
  - { offset: 0x7FE22, size: 0x8, addend: 0x0, symName: __RNvXsb_NtCsdze8u8oDPro_5alloc3vecINtB5_3VecNtNtCsATtFUPiRFW_3syn4item11ForeignItemEINtNtNtCs9f3LFPSIp77_4core3ops5index5IndexNtNtB1o_5range9RangeFullE5indexBJ_, symObjAddr: 0x9B80, symBinAddr: 0x2A3F4, symSize: 0x90 }
  - { offset: 0x80000, size: 0x8, addend: 0x0, symName: __RNvXsb_NtCsdze8u8oDPro_5alloc3vecINtB5_3VecNtNtCsATtFUPiRFW_3syn4item4ItemEINtNtNtCs9f3LFPSIp77_4core3ops5index5IndexNtNtB1g_5range9RangeFullE5indexBJ_, symObjAddr: 0x9C10, symBinAddr: 0x2A484, symSize: 0x90 }
  - { offset: 0x801DE, size: 0x8, addend: 0x0, symName: __RNvXsb_NtCsdze8u8oDPro_5alloc3vecINtB5_3VecNtNtCsATtFUPiRFW_3syn4item8ImplItemEINtNtNtCs9f3LFPSIp77_4core3ops5index5IndexNtNtB1k_5range9RangeFullE5indexBJ_, symObjAddr: 0x9CA0, symBinAddr: 0x2A514, symSize: 0x90 }
  - { offset: 0x803BC, size: 0x8, addend: 0x0, symName: __RNvXsb_NtCsdze8u8oDPro_5alloc3vecINtB5_3VecNtNtCsATtFUPiRFW_3syn4item9TraitItemEINtNtNtCs9f3LFPSIp77_4core3ops5index5IndexNtNtB1l_5range9RangeFullE5indexBJ_, symObjAddr: 0x9D30, symBinAddr: 0x2A5A4, symSize: 0x90 }
  - { offset: 0x8059A, size: 0x8, addend: 0x0, symName: __RNvXsb_NtCsdze8u8oDPro_5alloc3vecINtB5_3VecNtNtCsATtFUPiRFW_3syn4stmt4StmtEINtNtNtCs9f3LFPSIp77_4core3ops5index5IndexNtNtB1g_5range9RangeFullE5indexBJ_, symObjAddr: 0x9DC0, symBinAddr: 0x2A634, symSize: 0x90 }
  - { offset: 0x80778, size: 0x8, addend: 0x0, symName: __RNvXsb_NtCsdze8u8oDPro_5alloc3vecINtB5_3VecNtNtCsATtFUPiRFW_3syn5error12ErrorMessageEINtNtNtCs9f3LFPSIp77_4core3ops5index5IndexjE5indexBJ_, symObjAddr: 0x9E50, symBinAddr: 0x2A6C4, symSize: 0x9C }
  - { offset: 0x80956, size: 0x8, addend: 0x0, symName: __RNvXsb_NtCsdze8u8oDPro_5alloc3vecINtB5_3VecReEINtNtNtCs9f3LFPSIp77_4core3ops5index5IndexjE5indexCsATtFUPiRFW_3syn, symObjAddr: 0x9EEC, symBinAddr: 0x2A760, symSize: 0x9C }
  - { offset: 0x80B34, size: 0x8, addend: 0x0, symName: __RNvXsb_NtCsdze8u8oDPro_5alloc3vecINtB5_3VecTNtNtCsATtFUPiRFW_3syn2ty4TypeNtNtBK_5token5CommaEEINtNtNtCs9f3LFPSIp77_4core3ops5index5IndexNtNtB1z_5range9RangeFullE5indexBK_, symObjAddr: 0x9F88, symBinAddr: 0x2A7FC, symSize: 0x90 }
  - { offset: 0x80D12, size: 0x8, addend: 0x0, symName: __RNvXsb_NtCsdze8u8oDPro_5alloc3vecINtB5_3VecTNtNtCsATtFUPiRFW_3syn2ty9BareFnArgNtNtBK_5token5CommaEEINtNtNtCs9f3LFPSIp77_4core3ops5index5IndexNtNtB1E_5range9RangeFullE5indexBK_, symObjAddr: 0xA018, symBinAddr: 0x2A88C, symSize: 0x90 }
  - { offset: 0x80EF0, size: 0x8, addend: 0x0, symName: __RNvXsb_NtCsdze8u8oDPro_5alloc3vecINtB5_3VecTNtNtCsATtFUPiRFW_3syn3pat3PatNtNtBK_5token2OrEEINtNtNtCs9f3LFPSIp77_4core3ops5index5IndexNtNtB1w_5range9RangeFullE5indexBK_, symObjAddr: 0xA0A8, symBinAddr: 0x2A91C, symSize: 0x90 }
  - { offset: 0x810CE, size: 0x8, addend: 0x0, symName: __RNvXsb_NtCsdze8u8oDPro_5alloc3vecINtB5_3VecTNtNtCsATtFUPiRFW_3syn3pat3PatNtNtBK_5token5CommaEEINtNtNtCs9f3LFPSIp77_4core3ops5index5IndexNtNtB1z_5range9RangeFullE5indexBK_, symObjAddr: 0xA138, symBinAddr: 0x2A9AC, symSize: 0x90 }
  - { offset: 0x812AC, size: 0x8, addend: 0x0, symName: __RNvXsb_NtCsdze8u8oDPro_5alloc3vecINtB5_3VecTNtNtCsATtFUPiRFW_3syn3pat3PatNtNtBK_5token5CommaEEINtNtNtCs9f3LFPSIp77_4core3ops5index5IndexjE5indexBK_, symObjAddr: 0xA1C8, symBinAddr: 0x2AA3C, symSize: 0x9C }
  - { offset: 0x8148A, size: 0x8, addend: 0x0, symName: __RNvXsb_NtCsdze8u8oDPro_5alloc3vecINtB5_3VecTNtNtCsATtFUPiRFW_3syn3pat8FieldPatNtNtBK_5token5CommaEEINtNtNtCs9f3LFPSIp77_4core3ops5index5IndexNtNtB1E_5range9RangeFullE5indexBK_, symObjAddr: 0xA264, symBinAddr: 0x2AAD8, symSize: 0x90 }
  - { offset: 0x81668, size: 0x8, addend: 0x0, symName: __RNvXsb_NtCsdze8u8oDPro_5alloc3vecINtB5_3VecTNtNtCsATtFUPiRFW_3syn4data5FieldNtNtBK_5token5CommaEEINtNtNtCs9f3LFPSIp77_4core3ops5index5IndexNtNtB1C_5range9RangeFullE5indexBK_, symObjAddr: 0xA2F4, symBinAddr: 0x2AB68, symSize: 0x90 }
  - { offset: 0x81846, size: 0x8, addend: 0x0, symName: __RNvXsb_NtCsdze8u8oDPro_5alloc3vecINtB5_3VecTNtNtCsATtFUPiRFW_3syn4data7VariantNtNtBK_5token5CommaEEINtNtNtCs9f3LFPSIp77_4core3ops5index5IndexNtNtB1E_5range9RangeFullE5indexBK_, symObjAddr: 0xA384, symBinAddr: 0x2ABF8, symSize: 0x90 }
  - { offset: 0x81A24, size: 0x8, addend: 0x0, symName: __RNvXsb_NtCsdze8u8oDPro_5alloc3vecINtB5_3VecTNtNtCsATtFUPiRFW_3syn4expr10FieldValueNtNtBK_5token5CommaEEINtNtNtCs9f3LFPSIp77_4core3ops5index5IndexNtNtB1I_5range9RangeFullE5indexBK_, symObjAddr: 0xA414, symBinAddr: 0x2AC88, symSize: 0x90 }
  - { offset: 0x81C02, size: 0x8, addend: 0x0, symName: __RNvXsb_NtCsdze8u8oDPro_5alloc3vecINtB5_3VecTNtNtCsATtFUPiRFW_3syn4expr4ExprNtNtBK_5token5CommaEEINtNtNtCs9f3LFPSIp77_4core3ops5index5IndexNtNtB1B_5range9RangeFullE5indexBK_, symObjAddr: 0xA4A4, symBinAddr: 0x2AD18, symSize: 0x90 }
  - { offset: 0x81DE0, size: 0x8, addend: 0x0, symName: __RNvXsb_NtCsdze8u8oDPro_5alloc3vecINtB5_3VecTNtNtCsATtFUPiRFW_3syn4item5FnArgNtNtBK_5token5CommaEEINtNtNtCs9f3LFPSIp77_4core3ops5index5IndexNtNtB1C_5range9RangeFullE5indexBK_, symObjAddr: 0xA534, symBinAddr: 0x2ADA8, symSize: 0x90 }
  - { offset: 0x81FBE, size: 0x8, addend: 0x0, symName: __RNvXsb_NtCsdze8u8oDPro_5alloc3vecINtB5_3VecTNtNtCsATtFUPiRFW_3syn4item7UseTreeNtNtBK_5token5CommaEEINtNtNtCs9f3LFPSIp77_4core3ops5index5IndexNtNtB1E_5range9RangeFullE5indexBK_, symObjAddr: 0xA5C4, symBinAddr: 0x2AE38, symSize: 0x90 }
  - { offset: 0x8219C, size: 0x8, addend: 0x0, symName: __RNvXsb_NtCsdze8u8oDPro_5alloc3vecINtB5_3VecTNtNtCsATtFUPiRFW_3syn4path11PathSegmentNtNtBK_5token7PathSepEEINtNtNtCs9f3LFPSIp77_4core3ops5index5IndexNtNtB1L_5range9RangeFullE5indexBK_, symObjAddr: 0xA654, symBinAddr: 0x2AEC8, symSize: 0x90 }
  - { offset: 0x8237A, size: 0x8, addend: 0x0, symName: __RNvXsb_NtCsdze8u8oDPro_5alloc3vecINtB5_3VecTNtNtCsATtFUPiRFW_3syn4path11PathSegmentNtNtBK_5token7PathSepEEINtNtNtCs9f3LFPSIp77_4core3ops5index5IndexjE5indexBK_, symObjAddr: 0xA6E4, symBinAddr: 0x2AF58, symSize: 0x9C }
  - { offset: 0x82558, size: 0x8, addend: 0x0, symName: __RNvXsb_NtCsdze8u8oDPro_5alloc3vecINtB5_3VecTNtNtCsATtFUPiRFW_3syn4path15GenericArgumentNtNtBK_5token5CommaEEINtNtNtCs9f3LFPSIp77_4core3ops5index5IndexNtNtB1N_5range9RangeFullE5indexBK_, symObjAddr: 0xA780, symBinAddr: 0x2AFF4, symSize: 0x90 }
  - { offset: 0x82736, size: 0x8, addend: 0x0, symName: __RNvXsb_NtCsdze8u8oDPro_5alloc3vecINtB5_3VecTNtNtCsATtFUPiRFW_3syn8generics12GenericParamNtNtBK_5token5CommaEEINtNtNtCs9f3LFPSIp77_4core3ops5index5IndexNtNtB1O_5range9RangeFullE5indexBK_, symObjAddr: 0xA810, symBinAddr: 0x2B084, symSize: 0x90 }
  - { offset: 0x82914, size: 0x8, addend: 0x0, symName: __RNvXsb_NtCsdze8u8oDPro_5alloc3vecINtB5_3VecTNtNtCsATtFUPiRFW_3syn8generics13CapturedParamNtNtBK_5token5CommaEEINtNtNtCs9f3LFPSIp77_4core3ops5index5IndexNtNtB1P_5range9RangeFullE5indexBK_, symObjAddr: 0xA8A0, symBinAddr: 0x2B114, symSize: 0x90 }
  - { offset: 0x82AF2, size: 0x8, addend: 0x0, symName: __RNvXsb_NtCsdze8u8oDPro_5alloc3vecINtB5_3VecTNtNtCsATtFUPiRFW_3syn8generics14TypeParamBoundNtNtBK_5token4PlusEEINtNtNtCs9f3LFPSIp77_4core3ops5index5IndexNtNtB1P_5range9RangeFullE5indexBK_, symObjAddr: 0xA930, symBinAddr: 0x2B1A4, symSize: 0x90 }
  - { offset: 0x82CD0, size: 0x8, addend: 0x0, symName: __RNvXsb_NtCsdze8u8oDPro_5alloc3vecINtB5_3VecTNtNtCsATtFUPiRFW_3syn8generics14WherePredicateNtNtBK_5token5CommaEEINtNtNtCs9f3LFPSIp77_4core3ops5index5IndexNtNtB1Q_5range9RangeFullE5indexBK_, symObjAddr: 0xA9C0, symBinAddr: 0x2B234, symSize: 0x90 }
  - { offset: 0x82EAE, size: 0x8, addend: 0x0, symName: __RNvXsb_NtCsdze8u8oDPro_5alloc3vecINtB5_3VecTNtNtCsATtFUPiRFW_3syn8lifetime8LifetimeNtNtBK_5token4PlusEEINtNtNtCs9f3LFPSIp77_4core3ops5index5IndexNtNtB1I_5range9RangeFullE5indexBK_, symObjAddr: 0xAA50, symBinAddr: 0x2B2C4, symSize: 0x90 }
  - { offset: 0x8308C, size: 0x8, addend: 0x0, symName: __RNvXsb_NtCsdze8u8oDPro_5alloc3vecINtB5_3VechEINtNtNtCs9f3LFPSIp77_4core3ops5index5IndexINtNtBM_5range9RangeFromjEE5indexCsATtFUPiRFW_3syn, symObjAddr: 0xAAE0, symBinAddr: 0x2B354, symSize: 0x98 }
  - { offset: 0x8326A, size: 0x8, addend: 0x0, symName: __RNvXsb_NtCsdze8u8oDPro_5alloc3vecINtB5_3VechEINtNtNtCs9f3LFPSIp77_4core3ops5index5IndexjE5indexCsATtFUPiRFW_3syn, symObjAddr: 0xAB78, symBinAddr: 0x2B3EC, symSize: 0x98 }
  - { offset: 0x8344E, size: 0x8, addend: 0x0, symName: __RNvXsc_NtCsdze8u8oDPro_5alloc3vecINtB5_3VecNtNtCsATtFUPiRFW_3syn6buffer5EntryEINtNtNtCs9f3LFPSIp77_4core3ops5index8IndexMutjE9index_mutBJ_, symObjAddr: 0xAC10, symBinAddr: 0x2B484, symSize: 0x9C }
  - { offset: 0x835FF, size: 0x8, addend: 0x0, symName: __RNvXsc_NtCsdze8u8oDPro_5alloc3vecINtB5_3VechEINtNtNtCs9f3LFPSIp77_4core3ops5index8IndexMutjE9index_mutCsATtFUPiRFW_3syn, symObjAddr: 0xACAC, symBinAddr: 0x2B520, symSize: 0x98 }
  - { offset: 0x837B6, size: 0x8, addend: 0x0, symName: __RNvXse_NtCsdze8u8oDPro_5alloc3vecINtB5_3VecNtNtCsATtFUPiRFW_3syn4attr9AttributeENtNtNtNtCs9f3LFPSIp77_4core4iter6traits7collect12IntoIterator9into_iterBJ_, symObjAddr: 0xAD44, symBinAddr: 0x2B5B8, symSize: 0xF8 }
  - { offset: 0x83A85, size: 0x8, addend: 0x0, symName: __RNvXse_NtCsdze8u8oDPro_5alloc3vecINtB5_3VecNtNtCsATtFUPiRFW_3syn4data5FieldENtNtNtNtCs9f3LFPSIp77_4core4iter6traits7collect12IntoIterator9into_iterBJ_, symObjAddr: 0xAE3C, symBinAddr: 0x2B6B0, symSize: 0x100 }
  - { offset: 0x83D54, size: 0x8, addend: 0x0, symName: __RNvXse_NtCsdze8u8oDPro_5alloc3vecINtB5_3VecNtNtCsATtFUPiRFW_3syn5error12ErrorMessageENtNtNtNtCs9f3LFPSIp77_4core4iter6traits7collect12IntoIterator9into_iterBJ_, symObjAddr: 0xAF3C, symBinAddr: 0x2B7B0, symSize: 0x100 }
  - { offset: 0x84023, size: 0x8, addend: 0x0, symName: __RNvXse_NtCsdze8u8oDPro_5alloc3vecINtB5_3VecNtNtCsATtFUPiRFW_3syn8generics14TypeParamBoundENtNtNtNtCs9f3LFPSIp77_4core4iter6traits7collect12IntoIterator9into_iterBJ_, symObjAddr: 0xB03C, symBinAddr: 0x2B8B0, symSize: 0x100 }
  - { offset: 0x842F2, size: 0x8, addend: 0x0, symName: __RNvXse_NtCsdze8u8oDPro_5alloc3vecINtB5_3VecTNtNtCsATtFUPiRFW_3syn4data5FieldNtNtBK_5token5CommaEENtNtNtNtCs9f3LFPSIp77_4core4iter6traits7collect12IntoIterator9into_iterBK_, symObjAddr: 0xB13C, symBinAddr: 0x2B9B0, symSize: 0x100 }
  - { offset: 0x845C1, size: 0x8, addend: 0x0, symName: __RNvXse_NtCsdze8u8oDPro_5alloc3vecINtB5_3VecTNtNtCsATtFUPiRFW_3syn4data5FielduEENtNtNtNtCs9f3LFPSIp77_4core4iter6traits7collect12IntoIterator9into_iterBK_, symObjAddr: 0xB23C, symBinAddr: 0x2BAB0, symSize: 0x100 }
  - { offset: 0x84890, size: 0x8, addend: 0x0, symName: __RNvXse_NtCsdze8u8oDPro_5alloc3vecINtB5_3VecTNtNtCsATtFUPiRFW_3syn4path11PathSegmentNtNtBK_5token7PathSepEENtNtNtNtCs9f3LFPSIp77_4core4iter6traits7collect12IntoIterator9into_iterBK_, symObjAddr: 0xB33C, symBinAddr: 0x2BBB0, symSize: 0x100 }
  - { offset: 0x84B5F, size: 0x8, addend: 0x0, symName: __RNvXse_NtCsdze8u8oDPro_5alloc3vecINtB5_3VecTNtNtCsATtFUPiRFW_3syn8generics14TypeParamBoundNtNtBK_5token4PlusEENtNtNtNtCs9f3LFPSIp77_4core4iter6traits7collect12IntoIterator9into_iterBK_, symObjAddr: 0xB43C, symBinAddr: 0x2BCB0, symSize: 0xF8 }
  - { offset: 0x84E34, size: 0x8, addend: 0x0, symName: __RNvXsf_NtCsdze8u8oDPro_5alloc3vecRINtB5_3VecNtNtCsATtFUPiRFW_3syn4attr9AttributeENtNtNtNtCs9f3LFPSIp77_4core4iter6traits7collect12IntoIterator9into_iterBK_, symObjAddr: 0xB534, symBinAddr: 0x2BDA8, symSize: 0xB0 }
  - { offset: 0x850B4, size: 0x8, addend: 0x0, symName: __RNvXsf_NtCsdze8u8oDPro_5alloc3vecRINtB5_3VecNtNtCsATtFUPiRFW_3syn4item11ForeignItemENtNtNtNtCs9f3LFPSIp77_4core4iter6traits7collect12IntoIterator9into_iterBK_, symObjAddr: 0xB5E4, symBinAddr: 0x2BE58, symSize: 0xB8 }
  - { offset: 0x85334, size: 0x8, addend: 0x0, symName: __RNvXsf_NtCsdze8u8oDPro_5alloc3vecRINtB5_3VecNtNtCsATtFUPiRFW_3syn4item4ItemENtNtNtNtCs9f3LFPSIp77_4core4iter6traits7collect12IntoIterator9into_iterBK_, symObjAddr: 0xB69C, symBinAddr: 0x2BF10, symSize: 0xB8 }
  - { offset: 0x855B4, size: 0x8, addend: 0x0, symName: __RNvXsf_NtCsdze8u8oDPro_5alloc3vecRINtB5_3VecNtNtCsATtFUPiRFW_3syn4item8ImplItemENtNtNtNtCs9f3LFPSIp77_4core4iter6traits7collect12IntoIterator9into_iterBK_, symObjAddr: 0xB754, symBinAddr: 0x2BFC8, symSize: 0xB8 }
  - { offset: 0x85834, size: 0x8, addend: 0x0, symName: __RNvXsf_NtCsdze8u8oDPro_5alloc3vecRINtB5_3VecNtNtCsATtFUPiRFW_3syn4item9TraitItemENtNtNtNtCs9f3LFPSIp77_4core4iter6traits7collect12IntoIterator9into_iterBK_, symObjAddr: 0xB80C, symBinAddr: 0x2C080, symSize: 0xB8 }
  - { offset: 0x85AB4, size: 0x8, addend: 0x0, symName: __RNvXsf_NtCsdze8u8oDPro_5alloc3vecRINtB5_3VecNtNtCsATtFUPiRFW_3syn4stmt4StmtENtNtNtNtCs9f3LFPSIp77_4core4iter6traits7collect12IntoIterator9into_iterBK_, symObjAddr: 0xB8C4, symBinAddr: 0x2C138, symSize: 0xB8 }
  - { offset: 0x85D34, size: 0x8, addend: 0x0, symName: __RNvXsf_NtCsdze8u8oDPro_5alloc3vecRINtB5_3VecTNtNtCsATtFUPiRFW_3syn2ty4TypeNtNtBL_5token5CommaEENtNtNtNtCs9f3LFPSIp77_4core4iter6traits7collect12IntoIterator9into_iterBL_, symObjAddr: 0xB97C, symBinAddr: 0x2C1F0, symSize: 0xB8 }
  - { offset: 0x85FB4, size: 0x8, addend: 0x0, symName: __RNvXsf_NtCsdze8u8oDPro_5alloc3vecRINtB5_3VecTNtNtCsATtFUPiRFW_3syn2ty9BareFnArgNtNtBL_5token5CommaEENtNtNtNtCs9f3LFPSIp77_4core4iter6traits7collect12IntoIterator9into_iterBL_, symObjAddr: 0xBA34, symBinAddr: 0x2C2A8, symSize: 0xB8 }
  - { offset: 0x86234, size: 0x8, addend: 0x0, symName: __RNvXsf_NtCsdze8u8oDPro_5alloc3vecRINtB5_3VecTNtNtCsATtFUPiRFW_3syn3pat3PatNtNtBL_5token2OrEENtNtNtNtCs9f3LFPSIp77_4core4iter6traits7collect12IntoIterator9into_iterBL_, symObjAddr: 0xBAEC, symBinAddr: 0x2C360, symSize: 0xB8 }
  - { offset: 0x864B4, size: 0x8, addend: 0x0, symName: __RNvXsf_NtCsdze8u8oDPro_5alloc3vecRINtB5_3VecTNtNtCsATtFUPiRFW_3syn3pat3PatNtNtBL_5token5CommaEENtNtNtNtCs9f3LFPSIp77_4core4iter6traits7collect12IntoIterator9into_iterBL_, symObjAddr: 0xBBA4, symBinAddr: 0x2C418, symSize: 0xB8 }
  - { offset: 0x86734, size: 0x8, addend: 0x0, symName: __RNvXsf_NtCsdze8u8oDPro_5alloc3vecRINtB5_3VecTNtNtCsATtFUPiRFW_3syn3pat8FieldPatNtNtBL_5token5CommaEENtNtNtNtCs9f3LFPSIp77_4core4iter6traits7collect12IntoIterator9into_iterBL_, symObjAddr: 0xBC5C, symBinAddr: 0x2C4D0, symSize: 0xB8 }
  - { offset: 0x869B4, size: 0x8, addend: 0x0, symName: __RNvXsf_NtCsdze8u8oDPro_5alloc3vecRINtB5_3VecTNtNtCsATtFUPiRFW_3syn4data5FieldNtNtBL_5token5CommaEENtNtNtNtCs9f3LFPSIp77_4core4iter6traits7collect12IntoIterator9into_iterBL_, symObjAddr: 0xBD14, symBinAddr: 0x2C588, symSize: 0xB8 }
  - { offset: 0x86C34, size: 0x8, addend: 0x0, symName: __RNvXsf_NtCsdze8u8oDPro_5alloc3vecRINtB5_3VecTNtNtCsATtFUPiRFW_3syn4data7VariantNtNtBL_5token5CommaEENtNtNtNtCs9f3LFPSIp77_4core4iter6traits7collect12IntoIterator9into_iterBL_, symObjAddr: 0xBDCC, symBinAddr: 0x2C640, symSize: 0xB8 }
  - { offset: 0x86EB4, size: 0x8, addend: 0x0, symName: __RNvXsf_NtCsdze8u8oDPro_5alloc3vecRINtB5_3VecTNtNtCsATtFUPiRFW_3syn4expr10FieldValueNtNtBL_5token5CommaEENtNtNtNtCs9f3LFPSIp77_4core4iter6traits7collect12IntoIterator9into_iterBL_, symObjAddr: 0xBE84, symBinAddr: 0x2C6F8, symSize: 0xB8 }
  - { offset: 0x87134, size: 0x8, addend: 0x0, symName: __RNvXsf_NtCsdze8u8oDPro_5alloc3vecRINtB5_3VecTNtNtCsATtFUPiRFW_3syn4expr4ExprNtNtBL_5token5CommaEENtNtNtNtCs9f3LFPSIp77_4core4iter6traits7collect12IntoIterator9into_iterBL_, symObjAddr: 0xBF3C, symBinAddr: 0x2C7B0, symSize: 0xB8 }
  - { offset: 0x873B4, size: 0x8, addend: 0x0, symName: __RNvXsf_NtCsdze8u8oDPro_5alloc3vecRINtB5_3VecTNtNtCsATtFUPiRFW_3syn4item5FnArgNtNtBL_5token5CommaEENtNtNtNtCs9f3LFPSIp77_4core4iter6traits7collect12IntoIterator9into_iterBL_, symObjAddr: 0xBFF4, symBinAddr: 0x2C868, symSize: 0xB8 }
  - { offset: 0x87634, size: 0x8, addend: 0x0, symName: __RNvXsf_NtCsdze8u8oDPro_5alloc3vecRINtB5_3VecTNtNtCsATtFUPiRFW_3syn4item7UseTreeNtNtBL_5token5CommaEENtNtNtNtCs9f3LFPSIp77_4core4iter6traits7collect12IntoIterator9into_iterBL_, symObjAddr: 0xC0AC, symBinAddr: 0x2C920, symSize: 0xB8 }
  - { offset: 0x878B4, size: 0x8, addend: 0x0, symName: __RNvXsf_NtCsdze8u8oDPro_5alloc3vecRINtB5_3VecTNtNtCsATtFUPiRFW_3syn4path11PathSegmentNtNtBL_5token7PathSepEENtNtNtNtCs9f3LFPSIp77_4core4iter6traits7collect12IntoIterator9into_iterBL_, symObjAddr: 0xC164, symBinAddr: 0x2C9D8, symSize: 0xB8 }
  - { offset: 0x87B34, size: 0x8, addend: 0x0, symName: __RNvXsf_NtCsdze8u8oDPro_5alloc3vecRINtB5_3VecTNtNtCsATtFUPiRFW_3syn4path15GenericArgumentNtNtBL_5token5CommaEENtNtNtNtCs9f3LFPSIp77_4core4iter6traits7collect12IntoIterator9into_iterBL_, symObjAddr: 0xC21C, symBinAddr: 0x2CA90, symSize: 0xB8 }
  - { offset: 0x87DB4, size: 0x8, addend: 0x0, symName: __RNvXsf_NtCsdze8u8oDPro_5alloc3vecRINtB5_3VecTNtNtCsATtFUPiRFW_3syn8generics12GenericParamNtNtBL_5token5CommaEENtNtNtNtCs9f3LFPSIp77_4core4iter6traits7collect12IntoIterator9into_iterBL_, symObjAddr: 0xC2D4, symBinAddr: 0x2CB48, symSize: 0xB8 }
  - { offset: 0x88034, size: 0x8, addend: 0x0, symName: __RNvXsf_NtCsdze8u8oDPro_5alloc3vecRINtB5_3VecTNtNtCsATtFUPiRFW_3syn8generics13CapturedParamNtNtBL_5token5CommaEENtNtNtNtCs9f3LFPSIp77_4core4iter6traits7collect12IntoIterator9into_iterBL_, symObjAddr: 0xC38C, symBinAddr: 0x2CC00, symSize: 0xB8 }
  - { offset: 0x882B4, size: 0x8, addend: 0x0, symName: __RNvXsf_NtCsdze8u8oDPro_5alloc3vecRINtB5_3VecTNtNtCsATtFUPiRFW_3syn8generics14TypeParamBoundNtNtBL_5token4PlusEENtNtNtNtCs9f3LFPSIp77_4core4iter6traits7collect12IntoIterator9into_iterBL_, symObjAddr: 0xC444, symBinAddr: 0x2CCB8, symSize: 0xB0 }
  - { offset: 0x88534, size: 0x8, addend: 0x0, symName: __RNvXsf_NtCsdze8u8oDPro_5alloc3vecRINtB5_3VecTNtNtCsATtFUPiRFW_3syn8generics14WherePredicateNtNtBL_5token5CommaEENtNtNtNtCs9f3LFPSIp77_4core4iter6traits7collect12IntoIterator9into_iterBL_, symObjAddr: 0xC4F4, symBinAddr: 0x2CD68, symSize: 0xB8 }
  - { offset: 0x887B4, size: 0x8, addend: 0x0, symName: __RNvXsf_NtCsdze8u8oDPro_5alloc3vecRINtB5_3VecTNtNtCsATtFUPiRFW_3syn8lifetime8LifetimeNtNtBL_5token4PlusEENtNtNtNtCs9f3LFPSIp77_4core4iter6traits7collect12IntoIterator9into_iterBL_, symObjAddr: 0xC5AC, symBinAddr: 0x2CE20, symSize: 0xB8 }
  - { offset: 0x88A3A, size: 0x8, addend: 0x0, symName: __RNvXsg_NtCsdze8u8oDPro_5alloc3vecQINtB5_3VechENtNtNtNtCs9f3LFPSIp77_4core4iter6traits7collect12IntoIterator9into_iterCsATtFUPiRFW_3syn, symObjAddr: 0xC664, symBinAddr: 0x2CED8, symSize: 0xB0 }
  - { offset: 0x88CAE, size: 0x8, addend: 0x0, symName: __RNvXsn_NtCsdze8u8oDPro_5alloc3vecINtB5_3VecNtNtCsATtFUPiRFW_3syn4attr9AttributeENtNtNtCs9f3LFPSIp77_4core3ops4drop4Drop4dropBJ_, symObjAddr: 0xC714, symBinAddr: 0x2CF88, symSize: 0x50 }
  - { offset: 0x88DBB, size: 0x8, addend: 0x0, symName: __RNvXsn_NtCsdze8u8oDPro_5alloc3vecINtB5_3VecNtNtCsATtFUPiRFW_3syn4data5FieldENtNtNtCs9f3LFPSIp77_4core3ops4drop4Drop4dropBJ_, symObjAddr: 0xC764, symBinAddr: 0x2CFD8, symSize: 0x50 }
  - { offset: 0x88EC8, size: 0x8, addend: 0x0, symName: __RNvXsn_NtCsdze8u8oDPro_5alloc3vecINtB5_3VecNtNtCsATtFUPiRFW_3syn4expr3ArmENtNtNtCs9f3LFPSIp77_4core3ops4drop4Drop4dropBJ_, symObjAddr: 0xC7B4, symBinAddr: 0x2D028, symSize: 0x50 }
  - { offset: 0x88FD5, size: 0x8, addend: 0x0, symName: __RNvXsn_NtCsdze8u8oDPro_5alloc3vecINtB5_3VecNtNtCsATtFUPiRFW_3syn4expr6ExprIfENtNtNtCs9f3LFPSIp77_4core3ops4drop4Drop4dropBJ_, symObjAddr: 0xC804, symBinAddr: 0x2D078, symSize: 0x50 }
  - { offset: 0x890E2, size: 0x8, addend: 0x0, symName: __RNvXsn_NtCsdze8u8oDPro_5alloc3vecINtB5_3VecNtNtCsATtFUPiRFW_3syn4item11ForeignItemENtNtNtCs9f3LFPSIp77_4core3ops4drop4Drop4dropBJ_, symObjAddr: 0xC854, symBinAddr: 0x2D0C8, symSize: 0x50 }
  - { offset: 0x891EF, size: 0x8, addend: 0x0, symName: __RNvXsn_NtCsdze8u8oDPro_5alloc3vecINtB5_3VecNtNtCsATtFUPiRFW_3syn4item4ItemENtNtNtCs9f3LFPSIp77_4core3ops4drop4Drop4dropBJ_, symObjAddr: 0xC8A4, symBinAddr: 0x2D118, symSize: 0x50 }
  - { offset: 0x892FC, size: 0x8, addend: 0x0, symName: __RNvXsn_NtCsdze8u8oDPro_5alloc3vecINtB5_3VecNtNtCsATtFUPiRFW_3syn4item8ImplItemENtNtNtCs9f3LFPSIp77_4core3ops4drop4Drop4dropBJ_, symObjAddr: 0xC8F4, symBinAddr: 0x2D168, symSize: 0x50 }
  - { offset: 0x89409, size: 0x8, addend: 0x0, symName: __RNvXsn_NtCsdze8u8oDPro_5alloc3vecINtB5_3VecNtNtCsATtFUPiRFW_3syn4item9TraitItemENtNtNtCs9f3LFPSIp77_4core3ops4drop4Drop4dropBJ_, symObjAddr: 0xC944, symBinAddr: 0x2D1B8, symSize: 0x50 }
  - { offset: 0x89516, size: 0x8, addend: 0x0, symName: __RNvXsn_NtCsdze8u8oDPro_5alloc3vecINtB5_3VecNtNtCsATtFUPiRFW_3syn4stmt4StmtENtNtNtCs9f3LFPSIp77_4core3ops4drop4Drop4dropBJ_, symObjAddr: 0xC994, symBinAddr: 0x2D208, symSize: 0x50 }
  - { offset: 0x89623, size: 0x8, addend: 0x0, symName: __RNvXsn_NtCsdze8u8oDPro_5alloc3vecINtB5_3VecNtNtCsATtFUPiRFW_3syn5error12ErrorMessageENtNtNtCs9f3LFPSIp77_4core3ops4drop4Drop4dropBJ_, symObjAddr: 0xC9E4, symBinAddr: 0x2D258, symSize: 0x50 }
  - { offset: 0x89730, size: 0x8, addend: 0x0, symName: __RNvXsn_NtCsdze8u8oDPro_5alloc3vecINtB5_3VecNtNtCsATtFUPiRFW_3syn6buffer5EntryENtNtNtCs9f3LFPSIp77_4core3ops4drop4Drop4dropBJ_, symObjAddr: 0xCA34, symBinAddr: 0x2D2A8, symSize: 0x50 }
  - { offset: 0x8983D, size: 0x8, addend: 0x0, symName: __RNvXsn_NtCsdze8u8oDPro_5alloc3vecINtB5_3VecNtNtCsATtFUPiRFW_3syn8generics14TypeParamBoundENtNtNtCs9f3LFPSIp77_4core3ops4drop4Drop4dropBJ_, symObjAddr: 0xCA84, symBinAddr: 0x2D2F8, symSize: 0x50 }
  - { offset: 0x8994A, size: 0x8, addend: 0x0, symName: __RNvXsn_NtCsdze8u8oDPro_5alloc3vecINtB5_3VecReENtNtNtCs9f3LFPSIp77_4core3ops4drop4Drop4dropCsATtFUPiRFW_3syn, symObjAddr: 0xCAD4, symBinAddr: 0x2D348, symSize: 0x3C }
  - { offset: 0x89A57, size: 0x8, addend: 0x0, symName: __RNvXsn_NtCsdze8u8oDPro_5alloc3vecINtB5_3VecTNtNtCsATtFUPiRFW_3syn2ty4TypeNtNtBK_5token5CommaEENtNtNtCs9f3LFPSIp77_4core3ops4drop4Drop4dropBK_, symObjAddr: 0xCB10, symBinAddr: 0x2D384, symSize: 0x50 }
  - { offset: 0x89B64, size: 0x8, addend: 0x0, symName: __RNvXsn_NtCsdze8u8oDPro_5alloc3vecINtB5_3VecTNtNtCsATtFUPiRFW_3syn2ty9BareFnArgNtNtBK_5token5CommaEENtNtNtCs9f3LFPSIp77_4core3ops4drop4Drop4dropBK_, symObjAddr: 0xCB60, symBinAddr: 0x2D3D4, symSize: 0x50 }
  - { offset: 0x89C71, size: 0x8, addend: 0x0, symName: __RNvXsn_NtCsdze8u8oDPro_5alloc3vecINtB5_3VecTNtNtCsATtFUPiRFW_3syn3pat3PatNtNtBK_5token2OrEENtNtNtCs9f3LFPSIp77_4core3ops4drop4Drop4dropBK_, symObjAddr: 0xCBB0, symBinAddr: 0x2D424, symSize: 0x50 }
  - { offset: 0x89D7E, size: 0x8, addend: 0x0, symName: __RNvXsn_NtCsdze8u8oDPro_5alloc3vecINtB5_3VecTNtNtCsATtFUPiRFW_3syn3pat3PatNtNtBK_5token5CommaEENtNtNtCs9f3LFPSIp77_4core3ops4drop4Drop4dropBK_, symObjAddr: 0xCC00, symBinAddr: 0x2D474, symSize: 0x50 }
  - { offset: 0x89E8B, size: 0x8, addend: 0x0, symName: __RNvXsn_NtCsdze8u8oDPro_5alloc3vecINtB5_3VecTNtNtCsATtFUPiRFW_3syn3pat8FieldPatNtNtBK_5token5CommaEENtNtNtCs9f3LFPSIp77_4core3ops4drop4Drop4dropBK_, symObjAddr: 0xCC50, symBinAddr: 0x2D4C4, symSize: 0x50 }
  - { offset: 0x89F98, size: 0x8, addend: 0x0, symName: __RNvXsn_NtCsdze8u8oDPro_5alloc3vecINtB5_3VecTNtNtCsATtFUPiRFW_3syn4data5FieldNtNtBK_5token5CommaEENtNtNtCs9f3LFPSIp77_4core3ops4drop4Drop4dropBK_, symObjAddr: 0xCCA0, symBinAddr: 0x2D514, symSize: 0x50 }
  - { offset: 0x8A0A5, size: 0x8, addend: 0x0, symName: __RNvXsn_NtCsdze8u8oDPro_5alloc3vecINtB5_3VecTNtNtCsATtFUPiRFW_3syn4data5FielduEENtNtNtCs9f3LFPSIp77_4core3ops4drop4Drop4dropBK_, symObjAddr: 0xCCF0, symBinAddr: 0x2D564, symSize: 0x50 }
  - { offset: 0x8A1B2, size: 0x8, addend: 0x0, symName: __RNvXsn_NtCsdze8u8oDPro_5alloc3vecINtB5_3VecTNtNtCsATtFUPiRFW_3syn4data7VariantNtNtBK_5token5CommaEENtNtNtCs9f3LFPSIp77_4core3ops4drop4Drop4dropBK_, symObjAddr: 0xCD40, symBinAddr: 0x2D5B4, symSize: 0x50 }
  - { offset: 0x8A2BF, size: 0x8, addend: 0x0, symName: __RNvXsn_NtCsdze8u8oDPro_5alloc3vecINtB5_3VecTNtNtCsATtFUPiRFW_3syn4expr10FieldValueNtNtBK_5token5CommaEENtNtNtCs9f3LFPSIp77_4core3ops4drop4Drop4dropBK_, symObjAddr: 0xCD90, symBinAddr: 0x2D604, symSize: 0x50 }
  - { offset: 0x8A3CC, size: 0x8, addend: 0x0, symName: __RNvXsn_NtCsdze8u8oDPro_5alloc3vecINtB5_3VecTNtNtCsATtFUPiRFW_3syn4expr4ExprNtNtBK_5token5CommaEENtNtNtCs9f3LFPSIp77_4core3ops4drop4Drop4dropBK_, symObjAddr: 0xCDE0, symBinAddr: 0x2D654, symSize: 0x50 }
  - { offset: 0x8A4D9, size: 0x8, addend: 0x0, symName: __RNvXsn_NtCsdze8u8oDPro_5alloc3vecINtB5_3VecTNtNtCsATtFUPiRFW_3syn4item5FnArgNtNtBK_5token5CommaEENtNtNtCs9f3LFPSIp77_4core3ops4drop4Drop4dropBK_, symObjAddr: 0xCE30, symBinAddr: 0x2D6A4, symSize: 0x50 }
  - { offset: 0x8A5E6, size: 0x8, addend: 0x0, symName: __RNvXsn_NtCsdze8u8oDPro_5alloc3vecINtB5_3VecTNtNtCsATtFUPiRFW_3syn4item7UseTreeNtNtBK_5token5CommaEENtNtNtCs9f3LFPSIp77_4core3ops4drop4Drop4dropBK_, symObjAddr: 0xCE80, symBinAddr: 0x2D6F4, symSize: 0x50 }
  - { offset: 0x8A6F3, size: 0x8, addend: 0x0, symName: __RNvXsn_NtCsdze8u8oDPro_5alloc3vecINtB5_3VecTNtNtCsATtFUPiRFW_3syn4path11PathSegmentNtNtBK_5token7PathSepEENtNtNtCs9f3LFPSIp77_4core3ops4drop4Drop4dropBK_, symObjAddr: 0xCED0, symBinAddr: 0x2D744, symSize: 0x50 }
  - { offset: 0x8A800, size: 0x8, addend: 0x0, symName: __RNvXsn_NtCsdze8u8oDPro_5alloc3vecINtB5_3VecTNtNtCsATtFUPiRFW_3syn4path15GenericArgumentNtNtBK_5token5CommaEENtNtNtCs9f3LFPSIp77_4core3ops4drop4Drop4dropBK_, symObjAddr: 0xCF20, symBinAddr: 0x2D794, symSize: 0x50 }
  - { offset: 0x8A90D, size: 0x8, addend: 0x0, symName: __RNvXsn_NtCsdze8u8oDPro_5alloc3vecINtB5_3VecTNtNtCsATtFUPiRFW_3syn8generics12GenericParamNtNtBK_5token5CommaEENtNtNtCs9f3LFPSIp77_4core3ops4drop4Drop4dropBK_, symObjAddr: 0xCF70, symBinAddr: 0x2D7E4, symSize: 0x50 }
  - { offset: 0x8AA1A, size: 0x8, addend: 0x0, symName: __RNvXsn_NtCsdze8u8oDPro_5alloc3vecINtB5_3VecTNtNtCsATtFUPiRFW_3syn8generics13CapturedParamNtNtBK_5token5CommaEENtNtNtCs9f3LFPSIp77_4core3ops4drop4Drop4dropBK_, symObjAddr: 0xCFC0, symBinAddr: 0x2D834, symSize: 0x50 }
  - { offset: 0x8AB27, size: 0x8, addend: 0x0, symName: __RNvXsn_NtCsdze8u8oDPro_5alloc3vecINtB5_3VecTNtNtCsATtFUPiRFW_3syn8generics14TypeParamBoundNtNtBK_5token4PlusEENtNtNtCs9f3LFPSIp77_4core3ops4drop4Drop4dropBK_, symObjAddr: 0xD010, symBinAddr: 0x2D884, symSize: 0x50 }
  - { offset: 0x8AC34, size: 0x8, addend: 0x0, symName: __RNvXsn_NtCsdze8u8oDPro_5alloc3vecINtB5_3VecTNtNtCsATtFUPiRFW_3syn8generics14WherePredicateNtNtBK_5token5CommaEENtNtNtCs9f3LFPSIp77_4core3ops4drop4Drop4dropBK_, symObjAddr: 0xD060, symBinAddr: 0x2D8D4, symSize: 0x50 }
  - { offset: 0x8AD41, size: 0x8, addend: 0x0, symName: __RNvXsn_NtCsdze8u8oDPro_5alloc3vecINtB5_3VecTNtNtCsATtFUPiRFW_3syn8lifetime8LifetimeNtNtBK_5token4PlusEENtNtNtCs9f3LFPSIp77_4core3ops4drop4Drop4dropBK_, symObjAddr: 0xD0B0, symBinAddr: 0x2D924, symSize: 0x50 }
  - { offset: 0x8AE54, size: 0x8, addend: 0x0, symName: __RNvXsp_NtCsdze8u8oDPro_5alloc3vecINtB5_3VecNtNtCsATtFUPiRFW_3syn4attr9AttributeENtNtCs9f3LFPSIp77_4core3fmt5Debug3fmtBJ_, symObjAddr: 0xD100, symBinAddr: 0x2D974, symSize: 0x8C }
  - { offset: 0x8AFB8, size: 0x8, addend: 0x0, symName: __RNvXsp_NtCsdze8u8oDPro_5alloc3vecINtB5_3VecNtNtCsATtFUPiRFW_3syn4expr3ArmENtNtCs9f3LFPSIp77_4core3fmt5Debug3fmtBJ_, symObjAddr: 0xD18C, symBinAddr: 0x2DA00, symSize: 0x8C }
  - { offset: 0x8B11C, size: 0x8, addend: 0x0, symName: __RNvXsp_NtCsdze8u8oDPro_5alloc3vecINtB5_3VecNtNtCsATtFUPiRFW_3syn4item11ForeignItemENtNtCs9f3LFPSIp77_4core3fmt5Debug3fmtBJ_, symObjAddr: 0xD218, symBinAddr: 0x2DA8C, symSize: 0x8C }
  - { offset: 0x8B280, size: 0x8, addend: 0x0, symName: __RNvXsp_NtCsdze8u8oDPro_5alloc3vecINtB5_3VecNtNtCsATtFUPiRFW_3syn4item4ItemENtNtCs9f3LFPSIp77_4core3fmt5Debug3fmtBJ_, symObjAddr: 0xD2A4, symBinAddr: 0x2DB18, symSize: 0x8C }
  - { offset: 0x8B3E4, size: 0x8, addend: 0x0, symName: __RNvXsp_NtCsdze8u8oDPro_5alloc3vecINtB5_3VecNtNtCsATtFUPiRFW_3syn4item8ImplItemENtNtCs9f3LFPSIp77_4core3fmt5Debug3fmtBJ_, symObjAddr: 0xD330, symBinAddr: 0x2DBA4, symSize: 0x8C }
  - { offset: 0x8B548, size: 0x8, addend: 0x0, symName: __RNvXsp_NtCsdze8u8oDPro_5alloc3vecINtB5_3VecNtNtCsATtFUPiRFW_3syn4item9TraitItemENtNtCs9f3LFPSIp77_4core3fmt5Debug3fmtBJ_, symObjAddr: 0xD3BC, symBinAddr: 0x2DC30, symSize: 0x8C }
  - { offset: 0x8B6AC, size: 0x8, addend: 0x0, symName: __RNvXsp_NtCsdze8u8oDPro_5alloc3vecINtB5_3VecNtNtCsATtFUPiRFW_3syn4stmt4StmtENtNtCs9f3LFPSIp77_4core3fmt5Debug3fmtBJ_, symObjAddr: 0xD448, symBinAddr: 0x2DCBC, symSize: 0x8C }
  - { offset: 0x8B810, size: 0x8, addend: 0x0, symName: __RNvXsp_NtCsdze8u8oDPro_5alloc3vecINtB5_3VecNtNtCsATtFUPiRFW_3syn5error12ErrorMessageENtNtCs9f3LFPSIp77_4core3fmt5Debug3fmtBJ_, symObjAddr: 0xD4D4, symBinAddr: 0x2DD48, symSize: 0x8C }
  - { offset: 0x8B974, size: 0x8, addend: 0x0, symName: __RNvXsp_NtCsdze8u8oDPro_5alloc3vecINtB5_3VechENtNtCs9f3LFPSIp77_4core3fmt5Debug3fmtCsATtFUPiRFW_3syn, symObjAddr: 0xD560, symBinAddr: 0x2DDD4, symSize: 0x88 }
  - { offset: 0x8E935, size: 0x8, addend: 0x0, symName: __RNvXsS_NtCsdze8u8oDPro_5alloc6stringINtNtB7_3vec3VechEINtNtCs9f3LFPSIp77_4core7convert4FromNtB5_6StringE4fromCsATtFUPiRFW_3syn, symObjAddr: 0x9994, symBinAddr: 0x2A208, symSize: 0x18 }
  - { offset: 0x8EB74, size: 0x8, addend: 0x0, symName: __RNvXNvMs_NtNtCsdze8u8oDPro_5alloc3ffi5c_strNtB7_7CString3newINtNtBb_3vec3VechENtB2_11SpecNewImpl13spec_new_implCsATtFUPiRFW_3syn, symObjAddr: 0x8034, symBinAddr: 0x288A8, symSize: 0x190 }
  - { offset: 0x94803, size: 0x8, addend: 0x0, symName: __RNvXs0_NtCsATtFUPiRFW_3syn11parse_quoteINtNtCsdze8u8oDPro_5alloc3vec3VecNtNtB7_4attr9AttributeENtB5_10ParseQuote5parse, symObjAddr: 0xD5E8, symBinAddr: 0x2DE5C, symSize: 0x1C4 }
  - { offset: 0x94868, size: 0x8, addend: 0x0, symName: __RNvXs5_NtCsATtFUPiRFW_3syn11parse_quoteINtNtCsdze8u8oDPro_5alloc3vec3VecNtNtB7_4stmt4StmtENtB5_10ParseQuote5parse, symObjAddr: 0xD7AC, symBinAddr: 0x2E020, symSize: 0x34 }
  - { offset: 0x9489A, size: 0x8, addend: 0x0, symName: __RNvXs6_NtCsATtFUPiRFW_3syn11parse_quoteINtNtCsdze8u8oDPro_5alloc3vec3VecNtNtB7_4expr3ArmENtB5_10ParseQuote5parse, symObjAddr: 0xD7E0, symBinAddr: 0x2E054, symSize: 0x34 }
  - { offset: 0x94A15, size: 0x8, addend: 0x0, symName: __RINvMs_NtCsdze8u8oDPro_5alloc3vecINtB5_3VecReE10retain_mutNCNvMNtCsATtFUPiRFW_3syn9lookaheadNtBZ_10Lookahead15error0EB11_, symObjAddr: 0x0, symBinAddr: 0x20874, symSize: 0xE4 }
  - { offset: 0x94D4C, size: 0x8, addend: 0x0, symName: __RINvMsi_NtCsdze8u8oDPro_5alloc3vecINtB6_3VecNtCs475r2uZUTuc_11proc_macro29TokenTreeE16extend_desugaredINtNtNtNtCs9f3LFPSIp77_4core4iter8adapters7flatten7FlattenINtNtB1H_3map3MapIB2z_IB2z_INtNtNtB1L_5slice4iter4IterNtNtCsATtFUPiRFW_3syn5error12ErrorMessageENvMs_B3s_B3q_16to_compile_errorENCINvXs7_BI_NtBI_11TokenStreamINtNtNtB1J_6traits7collect12FromIteratorB4O_E9from_iterB2U_E0ENCINvXs6_NtBI_3impNtB6f_11TokenStreamIB57_B6o_E9from_iterB2P_Es_0EEEB3u_, symObjAddr: 0xE4, symBinAddr: 0x20958, symSize: 0x1E0 }
  - { offset: 0x95199, size: 0x8, addend: 0x0, symName: __RINvMsi_NtCsdze8u8oDPro_5alloc3vecINtB6_3VecNtCs475r2uZUTuc_11proc_macro29TokenTreeE16extend_desugaredNtNtBI_12token_stream8IntoIterECsATtFUPiRFW_3syn, symObjAddr: 0x2C4, symBinAddr: 0x20B38, symSize: 0x1E0 }
  - { offset: 0x95B96, size: 0x8, addend: 0x0, symName: __RINvMsi_NtCsdze8u8oDPro_5alloc3vecINtB6_3VecNtNtCsATtFUPiRFW_3syn4data5FieldE14extend_trustedINtNtCs9f3LFPSIp77_4core6option8IntoIterBG_EEBK_, symObjAddr: 0x4A4, symBinAddr: 0x20D18, symSize: 0x1B4 }
  - { offset: 0x95F19, size: 0x8, addend: 0x0, symName: __RINvMsi_NtCsdze8u8oDPro_5alloc3vecINtB6_3VecNtNtCsATtFUPiRFW_3syn4data5FieldE14extend_trustedINtNtNtNtCs9f3LFPSIp77_4core4iter8adapters3map3MapINtNtB6_9into_iter8IntoIterTBG_NtNtBK_5token5CommaEENCNvXs8_NtBK_10punctuatedINtB3f_10PunctuatedBG_B2M_ENtNtNtB1A_6traits7collect12IntoIterator9into_iter0EEBK_, symObjAddr: 0x658, symBinAddr: 0x20ECC, symSize: 0x19C }
  - { offset: 0x962BC, size: 0x8, addend: 0x0, symName: __RINvMsi_NtCsdze8u8oDPro_5alloc3vecINtB6_3VecNtNtCsATtFUPiRFW_3syn4data5FieldE14extend_trustedINtNtNtNtCs9f3LFPSIp77_4core4iter8adapters3map3MapINtNtB6_9into_iter8IntoIterTBG_uEENCNvXs8_NtBK_10punctuatedINtB2X_10PunctuatedBG_uENtNtNtB1A_6traits7collect12IntoIterator9into_iter0EEBK_, symObjAddr: 0x7F4, symBinAddr: 0x21068, symSize: 0x19C }
  - { offset: 0x96666, size: 0x8, addend: 0x0, symName: __RINvMsi_NtCsdze8u8oDPro_5alloc3vecINtB6_3VecNtNtCsATtFUPiRFW_3syn8generics14TypeParamBoundE14extend_trustedINtNtCs9f3LFPSIp77_4core6option8IntoIterBG_EEBK_, symObjAddr: 0x990, symBinAddr: 0x21204, symSize: 0x1B4 }
  - { offset: 0x969E9, size: 0x8, addend: 0x0, symName: __RINvMsi_NtCsdze8u8oDPro_5alloc3vecINtB6_3VecNtNtCsATtFUPiRFW_3syn8generics14TypeParamBoundE14extend_trustedINtNtNtNtCs9f3LFPSIp77_4core4iter8adapters3map3MapINtNtB6_9into_iter8IntoIterTBG_NtNtBK_5token4PlusEENCNvXs8_NtBK_10punctuatedINtB3s_10PunctuatedBG_B30_ENtNtNtB1O_6traits7collect12IntoIterator9into_iter0EEBK_, symObjAddr: 0xB44, symBinAddr: 0x213B8, symSize: 0x19C }
  - { offset: 0x96FBC, size: 0x8, addend: 0x0, symName: __RNvMNtCsdze8u8oDPro_5alloc3vecINtB2_3VecNtNtCsATtFUPiRFW_3syn4attr9AttributeE3newBG_, symObjAddr: 0x1408, symBinAddr: 0x21C7C, symSize: 0x28 }
  - { offset: 0x970A5, size: 0x8, addend: 0x0, symName: __RNvMNtCsdze8u8oDPro_5alloc3vecINtB2_3VecNtNtCsATtFUPiRFW_3syn4data5FieldE13with_capacityBG_, symObjAddr: 0x1430, symBinAddr: 0x21CA4, symSize: 0x44 }
  - { offset: 0x97188, size: 0x8, addend: 0x0, symName: __RNvMNtCsdze8u8oDPro_5alloc3vecINtB2_3VecNtNtCsATtFUPiRFW_3syn4expr3ArmE3newBG_, symObjAddr: 0x1474, symBinAddr: 0x21CE8, symSize: 0x28 }
  - { offset: 0x9727C, size: 0x8, addend: 0x0, symName: __RNvMNtCsdze8u8oDPro_5alloc3vecINtB2_3VecNtNtCsATtFUPiRFW_3syn4expr6ExprIfE3newBG_, symObjAddr: 0x149C, symBinAddr: 0x21D10, symSize: 0x28 }
  - { offset: 0x97370, size: 0x8, addend: 0x0, symName: __RNvMNtCsdze8u8oDPro_5alloc3vecINtB2_3VecNtNtCsATtFUPiRFW_3syn4item11ForeignItemE3newBG_, symObjAddr: 0x14C4, symBinAddr: 0x21D38, symSize: 0x28 }
  - { offset: 0x97464, size: 0x8, addend: 0x0, symName: __RNvMNtCsdze8u8oDPro_5alloc3vecINtB2_3VecNtNtCsATtFUPiRFW_3syn4item4ItemE3newBG_, symObjAddr: 0x14EC, symBinAddr: 0x21D60, symSize: 0x28 }
  - { offset: 0x97558, size: 0x8, addend: 0x0, symName: __RNvMNtCsdze8u8oDPro_5alloc3vecINtB2_3VecNtNtCsATtFUPiRFW_3syn4item8ImplItemE3newBG_, symObjAddr: 0x1514, symBinAddr: 0x21D88, symSize: 0x28 }
  - { offset: 0x9764C, size: 0x8, addend: 0x0, symName: __RNvMNtCsdze8u8oDPro_5alloc3vecINtB2_3VecNtNtCsATtFUPiRFW_3syn4item9TraitItemE3newBG_, symObjAddr: 0x153C, symBinAddr: 0x21DB0, symSize: 0x28 }
  - { offset: 0x97740, size: 0x8, addend: 0x0, symName: __RNvMNtCsdze8u8oDPro_5alloc3vecINtB2_3VecNtNtCsATtFUPiRFW_3syn4stmt4StmtE3newBG_, symObjAddr: 0x1564, symBinAddr: 0x21DD8, symSize: 0x28 }
  - { offset: 0x97834, size: 0x8, addend: 0x0, symName: __RNvMNtCsdze8u8oDPro_5alloc3vecINtB2_3VecNtNtCsATtFUPiRFW_3syn6buffer5EntryE3newBG_, symObjAddr: 0x158C, symBinAddr: 0x21E00, symSize: 0x28 }
  - { offset: 0x9791D, size: 0x8, addend: 0x0, symName: __RNvMNtCsdze8u8oDPro_5alloc3vecINtB2_3VecNtNtCsATtFUPiRFW_3syn8generics14TypeParamBoundE13with_capacityBG_, symObjAddr: 0x15B4, symBinAddr: 0x21E28, symSize: 0x44 }
  - { offset: 0x97A00, size: 0x8, addend: 0x0, symName: __RNvMNtCsdze8u8oDPro_5alloc3vecINtB2_3VecReE3newCsATtFUPiRFW_3syn, symObjAddr: 0x15F8, symBinAddr: 0x21E6C, symSize: 0x28 }
  - { offset: 0x97AF4, size: 0x8, addend: 0x0, symName: __RNvMNtCsdze8u8oDPro_5alloc3vecINtB2_3VecTNtNtCsATtFUPiRFW_3syn2ty4TypeNtNtBH_5token5CommaEE3newBH_, symObjAddr: 0x1620, symBinAddr: 0x21E94, symSize: 0x28 }
  - { offset: 0x97BE8, size: 0x8, addend: 0x0, symName: __RNvMNtCsdze8u8oDPro_5alloc3vecINtB2_3VecTNtNtCsATtFUPiRFW_3syn2ty9BareFnArgNtNtBH_5token5CommaEE3newBH_, symObjAddr: 0x1648, symBinAddr: 0x21EBC, symSize: 0x28 }
  - { offset: 0x97CDC, size: 0x8, addend: 0x0, symName: __RNvMNtCsdze8u8oDPro_5alloc3vecINtB2_3VecTNtNtCsATtFUPiRFW_3syn3pat3PatNtNtBH_5token2OrEE3newBH_, symObjAddr: 0x1670, symBinAddr: 0x21EE4, symSize: 0x28 }
  - { offset: 0x97DD0, size: 0x8, addend: 0x0, symName: __RNvMNtCsdze8u8oDPro_5alloc3vecINtB2_3VecTNtNtCsATtFUPiRFW_3syn3pat3PatNtNtBH_5token5CommaEE3newBH_, symObjAddr: 0x1698, symBinAddr: 0x21F0C, symSize: 0x28 }
  - { offset: 0x97EC4, size: 0x8, addend: 0x0, symName: __RNvMNtCsdze8u8oDPro_5alloc3vecINtB2_3VecTNtNtCsATtFUPiRFW_3syn3pat8FieldPatNtNtBH_5token5CommaEE3newBH_, symObjAddr: 0x16C0, symBinAddr: 0x21F34, symSize: 0x28 }
  - { offset: 0x97FB8, size: 0x8, addend: 0x0, symName: __RNvMNtCsdze8u8oDPro_5alloc3vecINtB2_3VecTNtNtCsATtFUPiRFW_3syn4data5FieldNtNtBH_5token5CommaEE3newBH_, symObjAddr: 0x16E8, symBinAddr: 0x21F5C, symSize: 0x28 }
  - { offset: 0x980AC, size: 0x8, addend: 0x0, symName: __RNvMNtCsdze8u8oDPro_5alloc3vecINtB2_3VecTNtNtCsATtFUPiRFW_3syn4data5FielduEE3newBH_, symObjAddr: 0x1710, symBinAddr: 0x21F84, symSize: 0x28 }
  - { offset: 0x981A0, size: 0x8, addend: 0x0, symName: __RNvMNtCsdze8u8oDPro_5alloc3vecINtB2_3VecTNtNtCsATtFUPiRFW_3syn4data7VariantNtNtBH_5token5CommaEE3newBH_, symObjAddr: 0x1738, symBinAddr: 0x21FAC, symSize: 0x28 }
  - { offset: 0x98294, size: 0x8, addend: 0x0, symName: __RNvMNtCsdze8u8oDPro_5alloc3vecINtB2_3VecTNtNtCsATtFUPiRFW_3syn4expr10FieldValueNtNtBH_5token5CommaEE3newBH_, symObjAddr: 0x1760, symBinAddr: 0x21FD4, symSize: 0x28 }
  - { offset: 0x98388, size: 0x8, addend: 0x0, symName: __RNvMNtCsdze8u8oDPro_5alloc3vecINtB2_3VecTNtNtCsATtFUPiRFW_3syn4expr4ExprNtNtBH_5token5CommaEE3newBH_, symObjAddr: 0x1788, symBinAddr: 0x21FFC, symSize: 0x28 }
  - { offset: 0x9847C, size: 0x8, addend: 0x0, symName: __RNvMNtCsdze8u8oDPro_5alloc3vecINtB2_3VecTNtNtCsATtFUPiRFW_3syn4item5FnArgNtNtBH_5token5CommaEE3newBH_, symObjAddr: 0x17B0, symBinAddr: 0x22024, symSize: 0x28 }
  - { offset: 0x98570, size: 0x8, addend: 0x0, symName: __RNvMNtCsdze8u8oDPro_5alloc3vecINtB2_3VecTNtNtCsATtFUPiRFW_3syn4item7UseTreeNtNtBH_5token5CommaEE3newBH_, symObjAddr: 0x17D8, symBinAddr: 0x2204C, symSize: 0x28 }
  - { offset: 0x98664, size: 0x8, addend: 0x0, symName: __RNvMNtCsdze8u8oDPro_5alloc3vecINtB2_3VecTNtNtCsATtFUPiRFW_3syn4path11PathSegmentNtNtBH_5token7PathSepEE3newBH_, symObjAddr: 0x1800, symBinAddr: 0x22074, symSize: 0x28 }
  - { offset: 0x98758, size: 0x8, addend: 0x0, symName: __RNvMNtCsdze8u8oDPro_5alloc3vecINtB2_3VecTNtNtCsATtFUPiRFW_3syn4path15GenericArgumentNtNtBH_5token5CommaEE3newBH_, symObjAddr: 0x1828, symBinAddr: 0x2209C, symSize: 0x28 }
  - { offset: 0x9884C, size: 0x8, addend: 0x0, symName: __RNvMNtCsdze8u8oDPro_5alloc3vecINtB2_3VecTNtNtCsATtFUPiRFW_3syn8generics12GenericParamNtNtBH_5token5CommaEE3newBH_, symObjAddr: 0x1850, symBinAddr: 0x220C4, symSize: 0x28 }
  - { offset: 0x98940, size: 0x8, addend: 0x0, symName: __RNvMNtCsdze8u8oDPro_5alloc3vecINtB2_3VecTNtNtCsATtFUPiRFW_3syn8generics13CapturedParamNtNtBH_5token5CommaEE3newBH_, symObjAddr: 0x1878, symBinAddr: 0x220EC, symSize: 0x28 }
  - { offset: 0x98A34, size: 0x8, addend: 0x0, symName: __RNvMNtCsdze8u8oDPro_5alloc3vecINtB2_3VecTNtNtCsATtFUPiRFW_3syn8generics14TypeParamBoundNtNtBH_5token4PlusEE3newBH_, symObjAddr: 0x18A0, symBinAddr: 0x22114, symSize: 0x28 }
  - { offset: 0x98B28, size: 0x8, addend: 0x0, symName: __RNvMNtCsdze8u8oDPro_5alloc3vecINtB2_3VecTNtNtCsATtFUPiRFW_3syn8generics14WherePredicateNtNtBH_5token5CommaEE3newBH_, symObjAddr: 0x18C8, symBinAddr: 0x2213C, symSize: 0x28 }
  - { offset: 0x98C1C, size: 0x8, addend: 0x0, symName: __RNvMNtCsdze8u8oDPro_5alloc3vecINtB2_3VecTNtNtCsATtFUPiRFW_3syn8lifetime8LifetimeNtNtBH_5token4PlusEE3newBH_, symObjAddr: 0x18F0, symBinAddr: 0x22164, symSize: 0x28 }
  - { offset: 0x98D10, size: 0x8, addend: 0x0, symName: __RNvMNtCsdze8u8oDPro_5alloc3vecINtB2_3VechE3newCsATtFUPiRFW_3syn, symObjAddr: 0x1918, symBinAddr: 0x2218C, symSize: 0x28 }
  - { offset: 0x98E82, size: 0x8, addend: 0x0, symName: __RNvMs0_NtCsdze8u8oDPro_5alloc3vecINtB5_3VechE17extend_from_sliceCsATtFUPiRFW_3syn, symObjAddr: 0x1940, symBinAddr: 0x221B4, symSize: 0x6C }
  - { offset: 0x98FF2, size: 0x8, addend: 0x0, symName: __RNvMs0_NtCsdze8u8oDPro_5alloc3vecINtB5_3VechE6resizeCsATtFUPiRFW_3syn, symObjAddr: 0x19AC, symBinAddr: 0x22220, symSize: 0xB4 }
  - { offset: 0x991F7, size: 0x8, addend: 0x0, symName: __RNvMs2_NtCsdze8u8oDPro_5alloc3vecINtB5_3VechE11extend_withCsATtFUPiRFW_3syn, symObjAddr: 0x1A60, symBinAddr: 0x222D4, symSize: 0x240 }
  - { offset: 0x99684, size: 0x8, addend: 0x0, symName: __RNvMs_NtCsdze8u8oDPro_5alloc3vecINtB4_3VecNtNtCsATtFUPiRFW_3syn4attr9AttributeE15append_elementsBI_, symObjAddr: 0x1CA0, symBinAddr: 0x22514, symSize: 0xEC }
  - { offset: 0x999B4, size: 0x8, addend: 0x0, symName: __RNvMs_NtCsdze8u8oDPro_5alloc3vecINtB4_3VecNtNtCsATtFUPiRFW_3syn4attr9AttributeE18spare_capacity_mutBI_, symObjAddr: 0x1D8C, symBinAddr: 0x22600, symSize: 0xDC }
  - { offset: 0x99C9A, size: 0x8, addend: 0x0, symName: __RNvMs_NtCsdze8u8oDPro_5alloc3vecINtB4_3VecNtNtCsATtFUPiRFW_3syn4attr9AttributeE4pushBI_, symObjAddr: 0x1E68, symBinAddr: 0x226DC, symSize: 0x124 }
  - { offset: 0x99FE3, size: 0x8, addend: 0x0, symName: __RNvMs_NtCsdze8u8oDPro_5alloc3vecINtB4_3VecNtNtCsATtFUPiRFW_3syn4attr9AttributeE6appendBI_, symObjAddr: 0x1F8C, symBinAddr: 0x22800, symSize: 0x9C }
  - { offset: 0x9A25A, size: 0x8, addend: 0x0, symName: __RNvMs_NtCsdze8u8oDPro_5alloc3vecINtB4_3VecNtNtCsATtFUPiRFW_3syn4attr9AttributeE7reserveBI_, symObjAddr: 0x2028, symBinAddr: 0x2289C, symSize: 0xC4 }
  - { offset: 0x9A484, size: 0x8, addend: 0x0, symName: __RNvMs_NtCsdze8u8oDPro_5alloc3vecINtB4_3VecNtNtCsATtFUPiRFW_3syn4attr9AttributeE8as_sliceBI_, symObjAddr: 0x20EC, symBinAddr: 0x22960, symSize: 0x7C }
  - { offset: 0x9A5B7, size: 0x8, addend: 0x0, symName: __RNvMs_NtCsdze8u8oDPro_5alloc3vecINtB4_3VecNtNtCsATtFUPiRFW_3syn4attr9AttributeE8is_emptyBI_, symObjAddr: 0x2168, symBinAddr: 0x229DC, symSize: 0x20 }
  - { offset: 0x9A70E, size: 0x8, addend: 0x0, symName: __RNvMs_NtCsdze8u8oDPro_5alloc3vecINtB4_3VecNtNtCsATtFUPiRFW_3syn4data5FieldE7reserveBI_, symObjAddr: 0x2188, symBinAddr: 0x229FC, symSize: 0xC4 }
  - { offset: 0x9AA09, size: 0x8, addend: 0x0, symName: __RNvMs_NtCsdze8u8oDPro_5alloc3vecINtB4_3VecNtNtCsATtFUPiRFW_3syn4expr3ArmE18spare_capacity_mutBI_, symObjAddr: 0x224C, symBinAddr: 0x22AC0, symSize: 0xE0 }
  - { offset: 0x9ABB5, size: 0x8, addend: 0x0, symName: __RNvMs_NtCsdze8u8oDPro_5alloc3vecINtB4_3VecNtNtCsATtFUPiRFW_3syn4expr3ArmE3lenBI_, symObjAddr: 0x232C, symBinAddr: 0x22BA0, symSize: 0x18 }
  - { offset: 0x9AD31, size: 0x8, addend: 0x0, symName: __RNvMs_NtCsdze8u8oDPro_5alloc3vecINtB4_3VecNtNtCsATtFUPiRFW_3syn4expr3ArmE4pushBI_, symObjAddr: 0x2344, symBinAddr: 0x22BB8, symSize: 0x12C }
  - { offset: 0x9B02D, size: 0x8, addend: 0x0, symName: __RNvMs_NtCsdze8u8oDPro_5alloc3vecINtB4_3VecNtNtCsATtFUPiRFW_3syn4expr3ArmE8as_sliceBI_, symObjAddr: 0x2470, symBinAddr: 0x22CE4, symSize: 0x7C }
  - { offset: 0x9B2F1, size: 0x8, addend: 0x0, symName: __RNvMs_NtCsdze8u8oDPro_5alloc3vecINtB4_3VecNtNtCsATtFUPiRFW_3syn4expr6ExprIfE3popBI_, symObjAddr: 0x24EC, symBinAddr: 0x22D60, symSize: 0x11C }
  - { offset: 0x9B608, size: 0x8, addend: 0x0, symName: __RNvMs_NtCsdze8u8oDPro_5alloc3vecINtB4_3VecNtNtCsATtFUPiRFW_3syn4expr6ExprIfE4pushBI_, symObjAddr: 0x2608, symBinAddr: 0x22E7C, symSize: 0x12C }
  - { offset: 0x9B9AD, size: 0x8, addend: 0x0, symName: __RNvMs_NtCsdze8u8oDPro_5alloc3vecINtB4_3VecNtNtCsATtFUPiRFW_3syn4item11ForeignItemE18spare_capacity_mutBI_, symObjAddr: 0x2734, symBinAddr: 0x22FA8, symSize: 0xE0 }
  - { offset: 0x9BC93, size: 0x8, addend: 0x0, symName: __RNvMs_NtCsdze8u8oDPro_5alloc3vecINtB4_3VecNtNtCsATtFUPiRFW_3syn4item11ForeignItemE4pushBI_, symObjAddr: 0x2814, symBinAddr: 0x23088, symSize: 0x12C }
  - { offset: 0x9C038, size: 0x8, addend: 0x0, symName: __RNvMs_NtCsdze8u8oDPro_5alloc3vecINtB4_3VecNtNtCsATtFUPiRFW_3syn4item4ItemE18spare_capacity_mutBI_, symObjAddr: 0x2940, symBinAddr: 0x231B4, symSize: 0xE0 }
  - { offset: 0x9C31E, size: 0x8, addend: 0x0, symName: __RNvMs_NtCsdze8u8oDPro_5alloc3vecINtB4_3VecNtNtCsATtFUPiRFW_3syn4item4ItemE4pushBI_, symObjAddr: 0x2A20, symBinAddr: 0x23294, symSize: 0x12C }
  - { offset: 0x9C6C3, size: 0x8, addend: 0x0, symName: __RNvMs_NtCsdze8u8oDPro_5alloc3vecINtB4_3VecNtNtCsATtFUPiRFW_3syn4item8ImplItemE18spare_capacity_mutBI_, symObjAddr: 0x2B4C, symBinAddr: 0x233C0, symSize: 0xE0 }
  - { offset: 0x9C9A9, size: 0x8, addend: 0x0, symName: __RNvMs_NtCsdze8u8oDPro_5alloc3vecINtB4_3VecNtNtCsATtFUPiRFW_3syn4item8ImplItemE4pushBI_, symObjAddr: 0x2C2C, symBinAddr: 0x234A0, symSize: 0x12C }
  - { offset: 0x9CD4E, size: 0x8, addend: 0x0, symName: __RNvMs_NtCsdze8u8oDPro_5alloc3vecINtB4_3VecNtNtCsATtFUPiRFW_3syn4item9TraitItemE18spare_capacity_mutBI_, symObjAddr: 0x2D58, symBinAddr: 0x235CC, symSize: 0xE0 }
  - { offset: 0x9D034, size: 0x8, addend: 0x0, symName: __RNvMs_NtCsdze8u8oDPro_5alloc3vecINtB4_3VecNtNtCsATtFUPiRFW_3syn4item9TraitItemE4pushBI_, symObjAddr: 0x2E38, symBinAddr: 0x236AC, symSize: 0x12C }
  - { offset: 0x9D3D9, size: 0x8, addend: 0x0, symName: __RNvMs_NtCsdze8u8oDPro_5alloc3vecINtB4_3VecNtNtCsATtFUPiRFW_3syn4stmt4StmtE18spare_capacity_mutBI_, symObjAddr: 0x2F64, symBinAddr: 0x237D8, symSize: 0xE0 }
  - { offset: 0x9D6BF, size: 0x8, addend: 0x0, symName: __RNvMs_NtCsdze8u8oDPro_5alloc3vecINtB4_3VecNtNtCsATtFUPiRFW_3syn4stmt4StmtE4pushBI_, symObjAddr: 0x3044, symBinAddr: 0x238B8, symSize: 0x12C }
  - { offset: 0x9DA2F, size: 0x8, addend: 0x0, symName: __RNvMs_NtCsdze8u8oDPro_5alloc3vecINtB4_3VecNtNtCsATtFUPiRFW_3syn5error12ErrorMessageE15append_elementsBI_, symObjAddr: 0x3170, symBinAddr: 0x239E4, symSize: 0xF4 }
  - { offset: 0x9DD5F, size: 0x8, addend: 0x0, symName: __RNvMs_NtCsdze8u8oDPro_5alloc3vecINtB4_3VecNtNtCsATtFUPiRFW_3syn5error12ErrorMessageE18spare_capacity_mutBI_, symObjAddr: 0x3264, symBinAddr: 0x23AD8, symSize: 0xE0 }
  - { offset: 0x9DEFE, size: 0x8, addend: 0x0, symName: __RNvMs_NtCsdze8u8oDPro_5alloc3vecINtB4_3VecNtNtCsATtFUPiRFW_3syn5error12ErrorMessageE3lenBI_, symObjAddr: 0x3344, symBinAddr: 0x23BB8, symSize: 0x18 }
  - { offset: 0x9E037, size: 0x8, addend: 0x0, symName: __RNvMs_NtCsdze8u8oDPro_5alloc3vecINtB4_3VecNtNtCsATtFUPiRFW_3syn5error12ErrorMessageE7reserveBI_, symObjAddr: 0x335C, symBinAddr: 0x23BD0, symSize: 0xC4 }
  - { offset: 0x9E27F, size: 0x8, addend: 0x0, symName: __RNvMs_NtCsdze8u8oDPro_5alloc3vecINtB4_3VecNtNtCsATtFUPiRFW_3syn5error12ErrorMessageE8as_sliceBI_, symObjAddr: 0x3420, symBinAddr: 0x23C94, symSize: 0x7C }
  - { offset: 0x9E5FA, size: 0x8, addend: 0x0, symName: __RNvMs_NtCsdze8u8oDPro_5alloc3vecINtB4_3VecNtNtCsATtFUPiRFW_3syn6buffer5EntryE16into_boxed_sliceBI_, symObjAddr: 0x349C, symBinAddr: 0x23D10, symSize: 0x1BC }
  - { offset: 0x9E8B5, size: 0x8, addend: 0x0, symName: __RNvMs_NtCsdze8u8oDPro_5alloc3vecINtB4_3VecNtNtCsATtFUPiRFW_3syn6buffer5EntryE3lenBI_, symObjAddr: 0x3658, symBinAddr: 0x23ECC, symSize: 0x18 }
  - { offset: 0x9EA3E, size: 0x8, addend: 0x0, symName: __RNvMs_NtCsdze8u8oDPro_5alloc3vecINtB4_3VecNtNtCsATtFUPiRFW_3syn6buffer5EntryE4pushBI_, symObjAddr: 0x3670, symBinAddr: 0x23EE4, symSize: 0x10C }
  - { offset: 0x9ED38, size: 0x8, addend: 0x0, symName: __RNvMs_NtCsdze8u8oDPro_5alloc3vecINtB4_3VecNtNtCsATtFUPiRFW_3syn8generics14TypeParamBoundE7reserveBI_, symObjAddr: 0x377C, symBinAddr: 0x23FF0, symSize: 0xC4 }
  - { offset: 0x9EE84, size: 0x8, addend: 0x0, symName: __RNvMs_NtCsdze8u8oDPro_5alloc3vecINtB4_3VecReE3lenCsATtFUPiRFW_3syn, symObjAddr: 0x3840, symBinAddr: 0x240B4, symSize: 0x18 }
  - { offset: 0x9F000, size: 0x8, addend: 0x0, symName: __RNvMs_NtCsdze8u8oDPro_5alloc3vecINtB4_3VecReE4pushCsATtFUPiRFW_3syn, symObjAddr: 0x3858, symBinAddr: 0x240CC, symSize: 0x100 }
  - { offset: 0x9F2D1, size: 0x8, addend: 0x0, symName: __RNvMs_NtCsdze8u8oDPro_5alloc3vecINtB4_3VecReE8as_sliceCsATtFUPiRFW_3syn, symObjAddr: 0x3958, symBinAddr: 0x241CC, symSize: 0x7C }
  - { offset: 0x9F58E, size: 0x8, addend: 0x0, symName: __RNvMs_NtCsdze8u8oDPro_5alloc3vecINtB4_3VecTNtNtCsATtFUPiRFW_3syn2ty4TypeNtNtBJ_5token5CommaEE18spare_capacity_mutBJ_, symObjAddr: 0x39D4, symBinAddr: 0x24248, symSize: 0xE0 }
  - { offset: 0x9F73A, size: 0x8, addend: 0x0, symName: __RNvMs_NtCsdze8u8oDPro_5alloc3vecINtB4_3VecTNtNtCsATtFUPiRFW_3syn2ty4TypeNtNtBJ_5token5CommaEE3lenBJ_, symObjAddr: 0x3AB4, symBinAddr: 0x24328, symSize: 0x18 }
  - { offset: 0x9F8B6, size: 0x8, addend: 0x0, symName: __RNvMs_NtCsdze8u8oDPro_5alloc3vecINtB4_3VecTNtNtCsATtFUPiRFW_3syn2ty4TypeNtNtBJ_5token5CommaEE4pushBJ_, symObjAddr: 0x3ACC, symBinAddr: 0x24340, symSize: 0x12C }
  - { offset: 0x9FBB2, size: 0x8, addend: 0x0, symName: __RNvMs_NtCsdze8u8oDPro_5alloc3vecINtB4_3VecTNtNtCsATtFUPiRFW_3syn2ty4TypeNtNtBJ_5token5CommaEE8as_sliceBJ_, symObjAddr: 0x3BF8, symBinAddr: 0x2446C, symSize: 0x7C }
  - { offset: 0x9FE6F, size: 0x8, addend: 0x0, symName: __RNvMs_NtCsdze8u8oDPro_5alloc3vecINtB4_3VecTNtNtCsATtFUPiRFW_3syn2ty9BareFnArgNtNtBJ_5token5CommaEE18spare_capacity_mutBJ_, symObjAddr: 0x3C74, symBinAddr: 0x244E8, symSize: 0xE0 }
  - { offset: 0xA001B, size: 0x8, addend: 0x0, symName: __RNvMs_NtCsdze8u8oDPro_5alloc3vecINtB4_3VecTNtNtCsATtFUPiRFW_3syn2ty9BareFnArgNtNtBJ_5token5CommaEE3lenBJ_, symObjAddr: 0x3D54, symBinAddr: 0x245C8, symSize: 0x18 }
  - { offset: 0xA0197, size: 0x8, addend: 0x0, symName: __RNvMs_NtCsdze8u8oDPro_5alloc3vecINtB4_3VecTNtNtCsATtFUPiRFW_3syn2ty9BareFnArgNtNtBJ_5token5CommaEE4pushBJ_, symObjAddr: 0x3D6C, symBinAddr: 0x245E0, symSize: 0x12C }
  - { offset: 0xA0492, size: 0x8, addend: 0x0, symName: __RNvMs_NtCsdze8u8oDPro_5alloc3vecINtB4_3VecTNtNtCsATtFUPiRFW_3syn2ty9BareFnArgNtNtBJ_5token5CommaEE8as_sliceBJ_, symObjAddr: 0x3E98, symBinAddr: 0x2470C, symSize: 0x7C }
  - { offset: 0xA074F, size: 0x8, addend: 0x0, symName: __RNvMs_NtCsdze8u8oDPro_5alloc3vecINtB4_3VecTNtNtCsATtFUPiRFW_3syn3pat3PatNtNtBJ_5token2OrEE18spare_capacity_mutBJ_, symObjAddr: 0x3F14, symBinAddr: 0x24788, symSize: 0xE0 }
  - { offset: 0xA0A35, size: 0x8, addend: 0x0, symName: __RNvMs_NtCsdze8u8oDPro_5alloc3vecINtB4_3VecTNtNtCsATtFUPiRFW_3syn3pat3PatNtNtBJ_5token2OrEE4pushBJ_, symObjAddr: 0x3FF4, symBinAddr: 0x24868, symSize: 0x12C }
  - { offset: 0xA0D3D, size: 0x8, addend: 0x0, symName: __RNvMs_NtCsdze8u8oDPro_5alloc3vecINtB4_3VecTNtNtCsATtFUPiRFW_3syn3pat3PatNtNtBJ_5token2OrEE8as_sliceBJ_, symObjAddr: 0x4120, symBinAddr: 0x24994, symSize: 0x7C }
  - { offset: 0xA0FFA, size: 0x8, addend: 0x0, symName: __RNvMs_NtCsdze8u8oDPro_5alloc3vecINtB4_3VecTNtNtCsATtFUPiRFW_3syn3pat3PatNtNtBJ_5token5CommaEE18spare_capacity_mutBJ_, symObjAddr: 0x419C, symBinAddr: 0x24A10, symSize: 0xE0 }
  - { offset: 0xA11A6, size: 0x8, addend: 0x0, symName: __RNvMs_NtCsdze8u8oDPro_5alloc3vecINtB4_3VecTNtNtCsATtFUPiRFW_3syn3pat3PatNtNtBJ_5token5CommaEE3lenBJ_, symObjAddr: 0x427C, symBinAddr: 0x24AF0, symSize: 0x18 }
  - { offset: 0xA1322, size: 0x8, addend: 0x0, symName: __RNvMs_NtCsdze8u8oDPro_5alloc3vecINtB4_3VecTNtNtCsATtFUPiRFW_3syn3pat3PatNtNtBJ_5token5CommaEE4pushBJ_, symObjAddr: 0x4294, symBinAddr: 0x24B08, symSize: 0x12C }
  - { offset: 0xA161D, size: 0x8, addend: 0x0, symName: __RNvMs_NtCsdze8u8oDPro_5alloc3vecINtB4_3VecTNtNtCsATtFUPiRFW_3syn3pat3PatNtNtBJ_5token5CommaEE8as_sliceBJ_, symObjAddr: 0x43C0, symBinAddr: 0x24C34, symSize: 0x7C }
  - { offset: 0xA18DA, size: 0x8, addend: 0x0, symName: __RNvMs_NtCsdze8u8oDPro_5alloc3vecINtB4_3VecTNtNtCsATtFUPiRFW_3syn3pat8FieldPatNtNtBJ_5token5CommaEE18spare_capacity_mutBJ_, symObjAddr: 0x443C, symBinAddr: 0x24CB0, symSize: 0xE0 }
  - { offset: 0xA1BC0, size: 0x8, addend: 0x0, symName: __RNvMs_NtCsdze8u8oDPro_5alloc3vecINtB4_3VecTNtNtCsATtFUPiRFW_3syn3pat8FieldPatNtNtBJ_5token5CommaEE4pushBJ_, symObjAddr: 0x451C, symBinAddr: 0x24D90, symSize: 0x12C }
  - { offset: 0xA1EC9, size: 0x8, addend: 0x0, symName: __RNvMs_NtCsdze8u8oDPro_5alloc3vecINtB4_3VecTNtNtCsATtFUPiRFW_3syn3pat8FieldPatNtNtBJ_5token5CommaEE8as_sliceBJ_, symObjAddr: 0x4648, symBinAddr: 0x24EBC, symSize: 0x7C }
  - { offset: 0xA211F, size: 0x8, addend: 0x0, symName: __RNvMs_NtCsdze8u8oDPro_5alloc3vecINtB4_3VecTNtNtCsATtFUPiRFW_3syn4data5FieldNtNtBJ_5token5CommaEE12as_mut_sliceBJ_, symObjAddr: 0x46C4, symBinAddr: 0x24F38, symSize: 0x7C }
  - { offset: 0xA23C6, size: 0x8, addend: 0x0, symName: __RNvMs_NtCsdze8u8oDPro_5alloc3vecINtB4_3VecTNtNtCsATtFUPiRFW_3syn4data5FieldNtNtBJ_5token5CommaEE18spare_capacity_mutBJ_, symObjAddr: 0x4740, symBinAddr: 0x24FB4, symSize: 0xE0 }
  - { offset: 0xA2572, size: 0x8, addend: 0x0, symName: __RNvMs_NtCsdze8u8oDPro_5alloc3vecINtB4_3VecTNtNtCsATtFUPiRFW_3syn4data5FieldNtNtBJ_5token5CommaEE3lenBJ_, symObjAddr: 0x4820, symBinAddr: 0x25094, symSize: 0x18 }
  - { offset: 0xA26EE, size: 0x8, addend: 0x0, symName: __RNvMs_NtCsdze8u8oDPro_5alloc3vecINtB4_3VecTNtNtCsATtFUPiRFW_3syn4data5FieldNtNtBJ_5token5CommaEE4pushBJ_, symObjAddr: 0x4838, symBinAddr: 0x250AC, symSize: 0x12C }
  - { offset: 0xA29E0, size: 0x8, addend: 0x0, symName: __RNvMs_NtCsdze8u8oDPro_5alloc3vecINtB4_3VecTNtNtCsATtFUPiRFW_3syn4data5FieldNtNtBJ_5token5CommaEE8as_sliceBJ_, symObjAddr: 0x4964, symBinAddr: 0x251D8, symSize: 0x7C }
  - { offset: 0xA2AFB, size: 0x8, addend: 0x0, symName: __RNvMs_NtCsdze8u8oDPro_5alloc3vecINtB4_3VecTNtNtCsATtFUPiRFW_3syn4data5FielduEE3lenBJ_, symObjAddr: 0x49E0, symBinAddr: 0x25254, symSize: 0x18 }
  - { offset: 0xA2CDF, size: 0x8, addend: 0x0, symName: __RNvMs_NtCsdze8u8oDPro_5alloc3vecINtB4_3VecTNtNtCsATtFUPiRFW_3syn4data7VariantNtNtBJ_5token5CommaEE18spare_capacity_mutBJ_, symObjAddr: 0x49F8, symBinAddr: 0x2526C, symSize: 0xE0 }
  - { offset: 0xA2FC5, size: 0x8, addend: 0x0, symName: __RNvMs_NtCsdze8u8oDPro_5alloc3vecINtB4_3VecTNtNtCsATtFUPiRFW_3syn4data7VariantNtNtBJ_5token5CommaEE4pushBJ_, symObjAddr: 0x4AD8, symBinAddr: 0x2534C, symSize: 0x12C }
  - { offset: 0xA32CE, size: 0x8, addend: 0x0, symName: __RNvMs_NtCsdze8u8oDPro_5alloc3vecINtB4_3VecTNtNtCsATtFUPiRFW_3syn4data7VariantNtNtBJ_5token5CommaEE8as_sliceBJ_, symObjAddr: 0x4C04, symBinAddr: 0x25478, symSize: 0x7C }
  - { offset: 0xA358B, size: 0x8, addend: 0x0, symName: __RNvMs_NtCsdze8u8oDPro_5alloc3vecINtB4_3VecTNtNtCsATtFUPiRFW_3syn4expr10FieldValueNtNtBJ_5token5CommaEE18spare_capacity_mutBJ_, symObjAddr: 0x4C80, symBinAddr: 0x254F4, symSize: 0xE0 }
  - { offset: 0xA3871, size: 0x8, addend: 0x0, symName: __RNvMs_NtCsdze8u8oDPro_5alloc3vecINtB4_3VecTNtNtCsATtFUPiRFW_3syn4expr10FieldValueNtNtBJ_5token5CommaEE4pushBJ_, symObjAddr: 0x4D60, symBinAddr: 0x255D4, symSize: 0x12C }
  - { offset: 0xA3B79, size: 0x8, addend: 0x0, symName: __RNvMs_NtCsdze8u8oDPro_5alloc3vecINtB4_3VecTNtNtCsATtFUPiRFW_3syn4expr10FieldValueNtNtBJ_5token5CommaEE8as_sliceBJ_, symObjAddr: 0x4E8C, symBinAddr: 0x25700, symSize: 0x7C }
  - { offset: 0xA3E36, size: 0x8, addend: 0x0, symName: __RNvMs_NtCsdze8u8oDPro_5alloc3vecINtB4_3VecTNtNtCsATtFUPiRFW_3syn4expr4ExprNtNtBJ_5token5CommaEE18spare_capacity_mutBJ_, symObjAddr: 0x4F08, symBinAddr: 0x2577C, symSize: 0xE0 }
  - { offset: 0xA3FE2, size: 0x8, addend: 0x0, symName: __RNvMs_NtCsdze8u8oDPro_5alloc3vecINtB4_3VecTNtNtCsATtFUPiRFW_3syn4expr4ExprNtNtBJ_5token5CommaEE3lenBJ_, symObjAddr: 0x4FE8, symBinAddr: 0x2585C, symSize: 0x18 }
  - { offset: 0xA415E, size: 0x8, addend: 0x0, symName: __RNvMs_NtCsdze8u8oDPro_5alloc3vecINtB4_3VecTNtNtCsATtFUPiRFW_3syn4expr4ExprNtNtBJ_5token5CommaEE4pushBJ_, symObjAddr: 0x5000, symBinAddr: 0x25874, symSize: 0x12C }
  - { offset: 0xA445A, size: 0x8, addend: 0x0, symName: __RNvMs_NtCsdze8u8oDPro_5alloc3vecINtB4_3VecTNtNtCsATtFUPiRFW_3syn4expr4ExprNtNtBJ_5token5CommaEE8as_sliceBJ_, symObjAddr: 0x512C, symBinAddr: 0x259A0, symSize: 0x7C }
  - { offset: 0xA4717, size: 0x8, addend: 0x0, symName: __RNvMs_NtCsdze8u8oDPro_5alloc3vecINtB4_3VecTNtNtCsATtFUPiRFW_3syn4item5FnArgNtNtBJ_5token5CommaEE18spare_capacity_mutBJ_, symObjAddr: 0x51A8, symBinAddr: 0x25A1C, symSize: 0xE0 }
  - { offset: 0xA48C3, size: 0x8, addend: 0x0, symName: __RNvMs_NtCsdze8u8oDPro_5alloc3vecINtB4_3VecTNtNtCsATtFUPiRFW_3syn4item5FnArgNtNtBJ_5token5CommaEE3lenBJ_, symObjAddr: 0x5288, symBinAddr: 0x25AFC, symSize: 0x18 }
  - { offset: 0xA4A3F, size: 0x8, addend: 0x0, symName: __RNvMs_NtCsdze8u8oDPro_5alloc3vecINtB4_3VecTNtNtCsATtFUPiRFW_3syn4item5FnArgNtNtBJ_5token5CommaEE4pushBJ_, symObjAddr: 0x52A0, symBinAddr: 0x25B14, symSize: 0x12C }
  - { offset: 0xA4D3B, size: 0x8, addend: 0x0, symName: __RNvMs_NtCsdze8u8oDPro_5alloc3vecINtB4_3VecTNtNtCsATtFUPiRFW_3syn4item5FnArgNtNtBJ_5token5CommaEE8as_sliceBJ_, symObjAddr: 0x53CC, symBinAddr: 0x25C40, symSize: 0x7C }
  - { offset: 0xA4FF8, size: 0x8, addend: 0x0, symName: __RNvMs_NtCsdze8u8oDPro_5alloc3vecINtB4_3VecTNtNtCsATtFUPiRFW_3syn4item7UseTreeNtNtBJ_5token5CommaEE18spare_capacity_mutBJ_, symObjAddr: 0x5448, symBinAddr: 0x25CBC, symSize: 0xE0 }
  - { offset: 0xA52DE, size: 0x8, addend: 0x0, symName: __RNvMs_NtCsdze8u8oDPro_5alloc3vecINtB4_3VecTNtNtCsATtFUPiRFW_3syn4item7UseTreeNtNtBJ_5token5CommaEE4pushBJ_, symObjAddr: 0x5528, symBinAddr: 0x25D9C, symSize: 0x12C }
  - { offset: 0xA55E7, size: 0x8, addend: 0x0, symName: __RNvMs_NtCsdze8u8oDPro_5alloc3vecINtB4_3VecTNtNtCsATtFUPiRFW_3syn4item7UseTreeNtNtBJ_5token5CommaEE8as_sliceBJ_, symObjAddr: 0x5654, symBinAddr: 0x25EC8, symSize: 0x7C }
  - { offset: 0xA584A, size: 0x8, addend: 0x0, symName: __RNvMs_NtCsdze8u8oDPro_5alloc3vecINtB4_3VecTNtNtCsATtFUPiRFW_3syn4path11PathSegmentNtNtBJ_5token7PathSepEE12as_mut_sliceBJ_, symObjAddr: 0x56D0, symBinAddr: 0x25F44, symSize: 0x7C }
  - { offset: 0xA5AF1, size: 0x8, addend: 0x0, symName: __RNvMs_NtCsdze8u8oDPro_5alloc3vecINtB4_3VecTNtNtCsATtFUPiRFW_3syn4path11PathSegmentNtNtBJ_5token7PathSepEE18spare_capacity_mutBJ_, symObjAddr: 0x574C, symBinAddr: 0x25FC0, symSize: 0xE0 }
  - { offset: 0xA5C9D, size: 0x8, addend: 0x0, symName: __RNvMs_NtCsdze8u8oDPro_5alloc3vecINtB4_3VecTNtNtCsATtFUPiRFW_3syn4path11PathSegmentNtNtBJ_5token7PathSepEE3lenBJ_, symObjAddr: 0x582C, symBinAddr: 0x260A0, symSize: 0x18 }
  - { offset: 0xA5E47, size: 0x8, addend: 0x0, symName: __RNvMs_NtCsdze8u8oDPro_5alloc3vecINtB4_3VecTNtNtCsATtFUPiRFW_3syn4path11PathSegmentNtNtBJ_5token7PathSepEE3popBJ_, symObjAddr: 0x5844, symBinAddr: 0x260B8, symSize: 0x120 }
  - { offset: 0xA615E, size: 0x8, addend: 0x0, symName: __RNvMs_NtCsdze8u8oDPro_5alloc3vecINtB4_3VecTNtNtCsATtFUPiRFW_3syn4path11PathSegmentNtNtBJ_5token7PathSepEE4pushBJ_, symObjAddr: 0x5964, symBinAddr: 0x261D8, symSize: 0x12C }
  - { offset: 0xA6450, size: 0x8, addend: 0x0, symName: __RNvMs_NtCsdze8u8oDPro_5alloc3vecINtB4_3VecTNtNtCsATtFUPiRFW_3syn4path11PathSegmentNtNtBJ_5token7PathSepEE8as_sliceBJ_, symObjAddr: 0x5A90, symBinAddr: 0x26304, symSize: 0x7C }
  - { offset: 0xA670D, size: 0x8, addend: 0x0, symName: __RNvMs_NtCsdze8u8oDPro_5alloc3vecINtB4_3VecTNtNtCsATtFUPiRFW_3syn4path15GenericArgumentNtNtBJ_5token5CommaEE18spare_capacity_mutBJ_, symObjAddr: 0x5B0C, symBinAddr: 0x26380, symSize: 0xE0 }
  - { offset: 0xA68B9, size: 0x8, addend: 0x0, symName: __RNvMs_NtCsdze8u8oDPro_5alloc3vecINtB4_3VecTNtNtCsATtFUPiRFW_3syn4path15GenericArgumentNtNtBJ_5token5CommaEE3lenBJ_, symObjAddr: 0x5BEC, symBinAddr: 0x26460, symSize: 0x18 }
  - { offset: 0xA6A35, size: 0x8, addend: 0x0, symName: __RNvMs_NtCsdze8u8oDPro_5alloc3vecINtB4_3VecTNtNtCsATtFUPiRFW_3syn4path15GenericArgumentNtNtBJ_5token5CommaEE4pushBJ_, symObjAddr: 0x5C04, symBinAddr: 0x26478, symSize: 0x12C }
  - { offset: 0xA6D30, size: 0x8, addend: 0x0, symName: __RNvMs_NtCsdze8u8oDPro_5alloc3vecINtB4_3VecTNtNtCsATtFUPiRFW_3syn4path15GenericArgumentNtNtBJ_5token5CommaEE8as_sliceBJ_, symObjAddr: 0x5D30, symBinAddr: 0x265A4, symSize: 0x7C }
  - { offset: 0xA6F93, size: 0x8, addend: 0x0, symName: __RNvMs_NtCsdze8u8oDPro_5alloc3vecINtB4_3VecTNtNtCsATtFUPiRFW_3syn8generics12GenericParamNtNtBJ_5token5CommaEE12as_mut_sliceBJ_, symObjAddr: 0x5DAC, symBinAddr: 0x26620, symSize: 0x7C }
  - { offset: 0xA723A, size: 0x8, addend: 0x0, symName: __RNvMs_NtCsdze8u8oDPro_5alloc3vecINtB4_3VecTNtNtCsATtFUPiRFW_3syn8generics12GenericParamNtNtBJ_5token5CommaEE18spare_capacity_mutBJ_, symObjAddr: 0x5E28, symBinAddr: 0x2669C, symSize: 0xE0 }
  - { offset: 0xA73E6, size: 0x8, addend: 0x0, symName: __RNvMs_NtCsdze8u8oDPro_5alloc3vecINtB4_3VecTNtNtCsATtFUPiRFW_3syn8generics12GenericParamNtNtBJ_5token5CommaEE3lenBJ_, symObjAddr: 0x5F08, symBinAddr: 0x2677C, symSize: 0x18 }
  - { offset: 0xA7562, size: 0x8, addend: 0x0, symName: __RNvMs_NtCsdze8u8oDPro_5alloc3vecINtB4_3VecTNtNtCsATtFUPiRFW_3syn8generics12GenericParamNtNtBJ_5token5CommaEE4pushBJ_, symObjAddr: 0x5F20, symBinAddr: 0x26794, symSize: 0x12C }
  - { offset: 0xA7855, size: 0x8, addend: 0x0, symName: __RNvMs_NtCsdze8u8oDPro_5alloc3vecINtB4_3VecTNtNtCsATtFUPiRFW_3syn8generics12GenericParamNtNtBJ_5token5CommaEE8as_sliceBJ_, symObjAddr: 0x604C, symBinAddr: 0x268C0, symSize: 0x7C }
  - { offset: 0xA7B12, size: 0x8, addend: 0x0, symName: __RNvMs_NtCsdze8u8oDPro_5alloc3vecINtB4_3VecTNtNtCsATtFUPiRFW_3syn8generics13CapturedParamNtNtBJ_5token5CommaEE18spare_capacity_mutBJ_, symObjAddr: 0x60C8, symBinAddr: 0x2693C, symSize: 0xE0 }
  - { offset: 0xA7DF8, size: 0x8, addend: 0x0, symName: __RNvMs_NtCsdze8u8oDPro_5alloc3vecINtB4_3VecTNtNtCsATtFUPiRFW_3syn8generics13CapturedParamNtNtBJ_5token5CommaEE4pushBJ_, symObjAddr: 0x61A8, symBinAddr: 0x26A1C, symSize: 0x124 }
  - { offset: 0xA8100, size: 0x8, addend: 0x0, symName: __RNvMs_NtCsdze8u8oDPro_5alloc3vecINtB4_3VecTNtNtCsATtFUPiRFW_3syn8generics13CapturedParamNtNtBJ_5token5CommaEE8as_sliceBJ_, symObjAddr: 0x62CC, symBinAddr: 0x26B40, symSize: 0x7C }
  - { offset: 0xA83B0, size: 0x8, addend: 0x0, symName: __RNvMs_NtCsdze8u8oDPro_5alloc3vecINtB4_3VecTNtNtCsATtFUPiRFW_3syn8generics14TypeParamBoundNtNtBJ_5token4PlusEE18spare_capacity_mutBJ_, symObjAddr: 0x6348, symBinAddr: 0x26BBC, symSize: 0xDC }
  - { offset: 0xA855C, size: 0x8, addend: 0x0, symName: __RNvMs_NtCsdze8u8oDPro_5alloc3vecINtB4_3VecTNtNtCsATtFUPiRFW_3syn8generics14TypeParamBoundNtNtBJ_5token4PlusEE3lenBJ_, symObjAddr: 0x6424, symBinAddr: 0x26C98, symSize: 0x18 }
  - { offset: 0xA86D8, size: 0x8, addend: 0x0, symName: __RNvMs_NtCsdze8u8oDPro_5alloc3vecINtB4_3VecTNtNtCsATtFUPiRFW_3syn8generics14TypeParamBoundNtNtBJ_5token4PlusEE4pushBJ_, symObjAddr: 0x643C, symBinAddr: 0x26CB0, symSize: 0x124 }
  - { offset: 0xA89D3, size: 0x8, addend: 0x0, symName: __RNvMs_NtCsdze8u8oDPro_5alloc3vecINtB4_3VecTNtNtCsATtFUPiRFW_3syn8generics14TypeParamBoundNtNtBJ_5token4PlusEE8as_sliceBJ_, symObjAddr: 0x6560, symBinAddr: 0x26DD4, symSize: 0x7C }
  - { offset: 0xA8C90, size: 0x8, addend: 0x0, symName: __RNvMs_NtCsdze8u8oDPro_5alloc3vecINtB4_3VecTNtNtCsATtFUPiRFW_3syn8generics14WherePredicateNtNtBJ_5token5CommaEE18spare_capacity_mutBJ_, symObjAddr: 0x65DC, symBinAddr: 0x26E50, symSize: 0xE0 }
  - { offset: 0xA8E3C, size: 0x8, addend: 0x0, symName: __RNvMs_NtCsdze8u8oDPro_5alloc3vecINtB4_3VecTNtNtCsATtFUPiRFW_3syn8generics14WherePredicateNtNtBJ_5token5CommaEE3lenBJ_, symObjAddr: 0x66BC, symBinAddr: 0x26F30, symSize: 0x18 }
  - { offset: 0xA8FB8, size: 0x8, addend: 0x0, symName: __RNvMs_NtCsdze8u8oDPro_5alloc3vecINtB4_3VecTNtNtCsATtFUPiRFW_3syn8generics14WherePredicateNtNtBJ_5token5CommaEE4pushBJ_, symObjAddr: 0x66D4, symBinAddr: 0x26F48, symSize: 0x12C }
  - { offset: 0xA92B3, size: 0x8, addend: 0x0, symName: __RNvMs_NtCsdze8u8oDPro_5alloc3vecINtB4_3VecTNtNtCsATtFUPiRFW_3syn8generics14WherePredicateNtNtBJ_5token5CommaEE8as_sliceBJ_, symObjAddr: 0x6800, symBinAddr: 0x27074, symSize: 0x7C }
  - { offset: 0xA9570, size: 0x8, addend: 0x0, symName: __RNvMs_NtCsdze8u8oDPro_5alloc3vecINtB4_3VecTNtNtCsATtFUPiRFW_3syn8lifetime8LifetimeNtNtBJ_5token4PlusEE18spare_capacity_mutBJ_, symObjAddr: 0x687C, symBinAddr: 0x270F0, symSize: 0xE0 }
  - { offset: 0xA971C, size: 0x8, addend: 0x0, symName: __RNvMs_NtCsdze8u8oDPro_5alloc3vecINtB4_3VecTNtNtCsATtFUPiRFW_3syn8lifetime8LifetimeNtNtBJ_5token4PlusEE3lenBJ_, symObjAddr: 0x695C, symBinAddr: 0x271D0, symSize: 0x18 }
  - { offset: 0xA9898, size: 0x8, addend: 0x0, symName: __RNvMs_NtCsdze8u8oDPro_5alloc3vecINtB4_3VecTNtNtCsATtFUPiRFW_3syn8lifetime8LifetimeNtNtBJ_5token4PlusEE4pushBJ_, symObjAddr: 0x6974, symBinAddr: 0x271E8, symSize: 0x124 }
  - { offset: 0xA9B94, size: 0x8, addend: 0x0, symName: __RNvMs_NtCsdze8u8oDPro_5alloc3vecINtB4_3VecTNtNtCsATtFUPiRFW_3syn8lifetime8LifetimeNtNtBJ_5token4PlusEE8as_sliceBJ_, symObjAddr: 0x6A98, symBinAddr: 0x2730C, symSize: 0x7C }
  - { offset: 0xA9EC1, size: 0x8, addend: 0x0, symName: __RNvMs_NtCsdze8u8oDPro_5alloc3vecINtB4_3VechE16into_boxed_sliceCsATtFUPiRFW_3syn, symObjAddr: 0x6B14, symBinAddr: 0x27388, symSize: 0x1B8 }
  - { offset: 0xAA2EE, size: 0x8, addend: 0x0, symName: __RNvMs_NtCsdze8u8oDPro_5alloc3vecINtB4_3VechE18spare_capacity_mutCsATtFUPiRFW_3syn, symObjAddr: 0x6CCC, symBinAddr: 0x27540, symSize: 0xD4 }
  - { offset: 0xAA48D, size: 0x8, addend: 0x0, symName: __RNvMs_NtCsdze8u8oDPro_5alloc3vecINtB4_3VechE3lenCsATtFUPiRFW_3syn, symObjAddr: 0x6DA0, symBinAddr: 0x27614, symSize: 0x18 }
  - { offset: 0xAA5A0, size: 0x8, addend: 0x0, symName: __RNvMs_NtCsdze8u8oDPro_5alloc3vecINtB4_3VechE8as_sliceCsATtFUPiRFW_3syn, symObjAddr: 0x6DB8, symBinAddr: 0x2762C, symSize: 0x78 }
  - { offset: 0xAA7A8, size: 0x8, addend: 0x0, symName: __RNvMs_NtCsdze8u8oDPro_5alloc3vecINtB4_3VechE8truncateCsATtFUPiRFW_3syn, symObjAddr: 0x6E30, symBinAddr: 0x276A4, symSize: 0x80 }
  - { offset: 0xAABBA, size: 0x8, addend: 0x0, symName: __RNvMs_NtCsdze8u8oDPro_5alloc3vecINtB4_3VechE9split_offCsATtFUPiRFW_3syn, symObjAddr: 0x6EB0, symBinAddr: 0x27724, symSize: 0x184 }
  - { offset: 0xB596F, size: 0x8, addend: 0x0, symName: __RINvXNtNtCsdze8u8oDPro_5alloc5slice4hackNtNtCsATtFUPiRFW_3syn4item11ForeignItemNtB3_10ConvertVec6to_vecNtNtB7_5alloc6GlobalEBG_, symObjAddr: 0x0, symBinAddr: 0x2E088, symSize: 0x2C0 }
  - { offset: 0xB6EE1, size: 0x8, addend: 0x0, symName: __RNvXs_NtCsATtFUPiRFW_3syn4itemNtB4_4ItemINtNtCs9f3LFPSIp77_4core7convert4FromNtNtB6_6derive11DeriveInputE4from, symObjAddr: 0x7220, symBinAddr: 0x352A8, symSize: 0x42C }
  - { offset: 0xB6F70, size: 0x8, addend: 0x0, symName: __RNvXNtNtCsATtFUPiRFW_3syn4item7parsingNtB4_4ItemNtNtB6_5parse5Parse5parse, symObjAddr: 0x77C4, symBinAddr: 0x3584C, symSize: 0x1B4 }
  - { offset: 0xB7016, size: 0x8, addend: 0x0, symName: __RNvXs0_NtNtCsATtFUPiRFW_3syn4item7parsingNtB7_9ItemMacroNtNtB9_5parse5Parse5parse, symObjAddr: 0x7978, symBinAddr: 0x35A00, symSize: 0x640 }
  - { offset: 0xB71E1, size: 0x8, addend: 0x0, symName: __RNvXs1_NtNtCsATtFUPiRFW_3syn4item7parsingNtB7_15ItemExternCrateNtNtB9_5parse5Parse5parse, symObjAddr: 0x7FB8, symBinAddr: 0x36040, symSize: 0x95C }
  - { offset: 0xB73EA, size: 0x8, addend: 0x0, symName: __RNvXs2_NtNtCsATtFUPiRFW_3syn4item7parsingNtB7_7ItemUseNtNtB9_5parse5Parse5parse, symObjAddr: 0x8914, symBinAddr: 0x3699C, symSize: 0x58 }
  - { offset: 0xB743B, size: 0x8, addend: 0x0, symName: __RNvXs3_NtNtCsATtFUPiRFW_3syn4item7parsingNtB7_7UseTreeNtNtB9_5parse5Parse5parse, symObjAddr: 0x896C, symBinAddr: 0x369F4, symSize: 0x58 }
  - { offset: 0xB748C, size: 0x8, addend: 0x0, symName: __RNvXs4_NtNtCsATtFUPiRFW_3syn4item7parsingNtB7_10ItemStaticNtNtB9_5parse5Parse5parse, symObjAddr: 0x89C4, symBinAddr: 0x36A4C, symSize: 0xAC0 }
  - { offset: 0xB7690, size: 0x8, addend: 0x0, symName: __RNvXs5_NtNtCsATtFUPiRFW_3syn4item7parsingNtB7_9ItemConstNtNtB9_5parse5Parse5parse, symObjAddr: 0x9484, symBinAddr: 0x3750C, symSize: 0xA64 }
  - { offset: 0xB795E, size: 0x8, addend: 0x0, symName: __RNvXs6_NtNtCsATtFUPiRFW_3syn4item7parsingNtB7_9SignatureNtNtB9_5parse5Parse5parse, symObjAddr: 0x9EE8, symBinAddr: 0x37F70, symSize: 0x60 }
  - { offset: 0xB79AF, size: 0x8, addend: 0x0, symName: __RNvXs7_NtNtCsATtFUPiRFW_3syn4item7parsingNtB7_6ItemFnNtNtB9_5parse5Parse5parse, symObjAddr: 0x9F48, symBinAddr: 0x37FD0, symSize: 0x378 }
  - { offset: 0xB7AE2, size: 0x8, addend: 0x0, symName: __RNvXs8_NtNtCsATtFUPiRFW_3syn4item7parsingNtB7_5FnArgNtNtB9_5parse5Parse5parse, symObjAddr: 0xA2C0, symBinAddr: 0x38348, symSize: 0x2E0 }
  - { offset: 0xB7BDD, size: 0x8, addend: 0x0, symName: __RNvXs9_NtNtCsATtFUPiRFW_3syn4item7parsingNtB7_8ReceiverNtNtB9_5parse5Parse5parse, symObjAddr: 0xA5A0, symBinAddr: 0x38628, symSize: 0x98C }
  - { offset: 0xB7E30, size: 0x8, addend: 0x0, symName: __RNvXsa_NtNtCsATtFUPiRFW_3syn4item7parsingNtB7_7ItemModNtNtB9_5parse5Parse5parse, symObjAddr: 0xAF2C, symBinAddr: 0x38FB4, symSize: 0xC60 }
  - { offset: 0xB8090, size: 0x8, addend: 0x0, symName: __RNvXsb_NtNtCsATtFUPiRFW_3syn4item7parsingNtB7_14ItemForeignModNtNtB9_5parse5Parse5parse, symObjAddr: 0xBB8C, symBinAddr: 0x39C14, symSize: 0x61C }
  - { offset: 0xB823F, size: 0x8, addend: 0x0, symName: __RNvXsc_NtNtCsATtFUPiRFW_3syn4item7parsingNtB7_11ForeignItemNtNtB9_5parse5Parse5parse, symObjAddr: 0xC1A8, symBinAddr: 0x3A230, symSize: 0x1DB8 }
  - { offset: 0xB88A3, size: 0x8, addend: 0x0, symName: __RNvXsd_NtNtCsATtFUPiRFW_3syn4item7parsingNtB7_13ForeignItemFnNtNtB9_5parse5Parse5parse, symObjAddr: 0xDF60, symBinAddr: 0x3BFE8, symSize: 0x3C0 }
  - { offset: 0xB8A03, size: 0x8, addend: 0x0, symName: __RNvXse_NtNtCsATtFUPiRFW_3syn4item7parsingNtB7_17ForeignItemStaticNtNtB9_5parse5Parse5parse, symObjAddr: 0xE320, symBinAddr: 0x3C3A8, symSize: 0x830 }
  - { offset: 0xB8BAA, size: 0x8, addend: 0x0, symName: __RNvXsf_NtNtCsATtFUPiRFW_3syn4item7parsingNtB7_15ForeignItemTypeNtNtB9_5parse5Parse5parse, symObjAddr: 0xEB50, symBinAddr: 0x3CBD8, symSize: 0x744 }
  - { offset: 0xB8D3A, size: 0x8, addend: 0x0, symName: __RNvXsg_NtNtCsATtFUPiRFW_3syn4item7parsingNtB7_16ForeignItemMacroNtNtB9_5parse5Parse5parse, symObjAddr: 0xF294, symBinAddr: 0x3D31C, symSize: 0x33C }
  - { offset: 0xB8E4D, size: 0x8, addend: 0x0, symName: __RNvXsh_NtNtCsATtFUPiRFW_3syn4item7parsingNtB7_8ItemTypeNtNtB9_5parse5Parse5parse, symObjAddr: 0xF5D0, symBinAddr: 0x3D658, symSize: 0x9D4 }
  - { offset: 0xB9039, size: 0x8, addend: 0x0, symName: __RNvXsi_NtNtCsATtFUPiRFW_3syn4item7parsingNtB7_10ItemStructNtNtB9_5parse5Parse5parse, symObjAddr: 0xFFA4, symBinAddr: 0x3E02C, symSize: 0x650 }
  - { offset: 0xB9234, size: 0x8, addend: 0x0, symName: __RNvXsj_NtNtCsATtFUPiRFW_3syn4item7parsingNtB7_8ItemEnumNtNtB9_5parse5Parse5parse, symObjAddr: 0x105F4, symBinAddr: 0x3E67C, symSize: 0x650 }
  - { offset: 0xB942F, size: 0x8, addend: 0x0, symName: __RNvXsk_NtNtCsATtFUPiRFW_3syn4item7parsingNtB7_9ItemUnionNtNtB9_5parse5Parse5parse, symObjAddr: 0x10C44, symBinAddr: 0x3ECCC, symSize: 0x640 }
  - { offset: 0xB961A, size: 0x8, addend: 0x0, symName: __RNvXsl_NtNtCsATtFUPiRFW_3syn4item7parsingNtB7_9ItemTraitNtNtB9_5parse5Parse5parse, symObjAddr: 0x11284, symBinAddr: 0x3F30C, symSize: 0x640 }
  - { offset: 0xB981E, size: 0x8, addend: 0x0, symName: __RNvXsm_NtNtCsATtFUPiRFW_3syn4item7parsingNtB7_14ItemTraitAliasNtNtB9_5parse5Parse5parse, symObjAddr: 0x118C4, symBinAddr: 0x3F94C, symSize: 0x270 }
  - { offset: 0xB98D2, size: 0x8, addend: 0x0, symName: __RNvXsn_NtNtCsATtFUPiRFW_3syn4item7parsingNtB7_9TraitItemNtNtB9_5parse5Parse5parse, symObjAddr: 0x11B34, symBinAddr: 0x3FBBC, symSize: 0x1690 }
  - { offset: 0xB9D40, size: 0x8, addend: 0x0, symName: __RNvXso_NtNtCsATtFUPiRFW_3syn4item7parsingNtB7_14TraitItemConstNtNtB9_5parse5Parse5parse, symObjAddr: 0x131C4, symBinAddr: 0x4124C, symSize: 0x88C }
  - { offset: 0xB9F82, size: 0x8, addend: 0x0, symName: __RNvXsp_NtNtCsATtFUPiRFW_3syn4item7parsingNtB7_11TraitItemFnNtNtB9_5parse5Parse5parse, symObjAddr: 0x13A50, symBinAddr: 0x41AD8, symSize: 0x800 }
  - { offset: 0xBA182, size: 0x8, addend: 0x0, symName: __RNvXsq_NtNtCsATtFUPiRFW_3syn4item7parsingNtB7_13TraitItemTypeNtNtB9_5parse5Parse5parse, symObjAddr: 0x14250, symBinAddr: 0x422D8, symSize: 0x730 }
  - { offset: 0xBA3A8, size: 0x8, addend: 0x0, symName: __RNvXsr_NtNtCsATtFUPiRFW_3syn4item7parsingNtB7_14TraitItemMacroNtNtB9_5parse5Parse5parse, symObjAddr: 0x14980, symBinAddr: 0x42A08, symSize: 0x33C }
  - { offset: 0xBA4BB, size: 0x8, addend: 0x0, symName: __RNvXss_NtNtCsATtFUPiRFW_3syn4item7parsingNtB7_8ItemImplNtNtB9_5parse5Parse5parse, symObjAddr: 0x14CBC, symBinAddr: 0x42D44, symSize: 0x60 }
  - { offset: 0xBA50C, size: 0x8, addend: 0x0, symName: __RNvXst_NtNtCsATtFUPiRFW_3syn4item7parsingNtB7_8ImplItemNtNtB9_5parse5Parse5parse, symObjAddr: 0x14D1C, symBinAddr: 0x42DA4, symSize: 0x1AC8 }
  - { offset: 0xBAA25, size: 0x8, addend: 0x0, symName: __RNvXsu_NtNtCsATtFUPiRFW_3syn4item7parsingNtB7_13ImplItemConstNtNtB9_5parse5Parse5parse, symObjAddr: 0x167E4, symBinAddr: 0x4486C, symSize: 0x9D0 }
  - { offset: 0xBACE0, size: 0x8, addend: 0x0, symName: __RNvXsv_NtNtCsATtFUPiRFW_3syn4item7parsingNtB7_10ImplItemFnNtNtB9_5parse5Parse5parse, symObjAddr: 0x171B4, symBinAddr: 0x4523C, symSize: 0x60 }
  - { offset: 0xBAD31, size: 0x8, addend: 0x0, symName: __RNvXsw_NtNtCsATtFUPiRFW_3syn4item7parsingNtB7_12ImplItemTypeNtNtB9_5parse5Parse5parse, symObjAddr: 0x17214, symBinAddr: 0x4529C, symSize: 0x844 }
  - { offset: 0xBAFBF, size: 0x8, addend: 0x0, symName: __RNvXsx_NtNtCsATtFUPiRFW_3syn4item7parsingNtB7_13ImplItemMacroNtNtB9_5parse5Parse5parse, symObjAddr: 0x17A58, symBinAddr: 0x45AE0, symSize: 0x33C }
  - { offset: 0xBB0D2, size: 0x8, addend: 0x0, symName: __RNvXsz_NtNtCsATtFUPiRFW_3syn4item7parsingNtB7_16StaticMutabilityNtNtB9_5parse5Parse5parse, symObjAddr: 0x17D94, symBinAddr: 0x45E1C, symSize: 0xDC }
  - { offset: 0xBB1A9, size: 0x8, addend: 0x0, symName: __RNvXNtNtCsATtFUPiRFW_3syn4item8printingNtB4_15ItemExternCrateNtNtCs62MdaZFMefA_5quote9to_tokens8ToTokens9to_tokens, symObjAddr: 0x17E70, symBinAddr: 0x45EF8, symSize: 0x110 }
  - { offset: 0xBB216, size: 0x8, addend: 0x0, symName: __RNvXs_NtNtCsATtFUPiRFW_3syn4item8printingNtB6_7ItemUseNtNtCs62MdaZFMefA_5quote9to_tokens8ToTokens9to_tokens, symObjAddr: 0x17F80, symBinAddr: 0x46008, symSize: 0xA4 }
  - { offset: 0xBB255, size: 0x8, addend: 0x0, symName: __RNvXs0_NtNtCsATtFUPiRFW_3syn4item8printingNtB7_10ItemStaticNtNtCs62MdaZFMefA_5quote9to_tokens8ToTokens9to_tokens, symObjAddr: 0x18024, symBinAddr: 0x460AC, symSize: 0xE4 }
  - { offset: 0xBB294, size: 0x8, addend: 0x0, symName: __RNvXs1_NtNtCsATtFUPiRFW_3syn4item8printingNtB7_9ItemConstNtNtCs62MdaZFMefA_5quote9to_tokens8ToTokens9to_tokens, symObjAddr: 0x18108, symBinAddr: 0x46190, symSize: 0xD4 }
  - { offset: 0xBB2D3, size: 0x8, addend: 0x0, symName: __RNvXs2_NtNtCsATtFUPiRFW_3syn4item8printingNtB7_6ItemFnNtNtCs62MdaZFMefA_5quote9to_tokens8ToTokens9to_tokens, symObjAddr: 0x181DC, symBinAddr: 0x46264, symSize: 0x8C }
  - { offset: 0xBB312, size: 0x8, addend: 0x0, symName: __RNvXs3_NtNtCsATtFUPiRFW_3syn4item8printingNtB7_7ItemModNtNtCs62MdaZFMefA_5quote9to_tokens8ToTokens9to_tokens, symObjAddr: 0x18268, symBinAddr: 0x462F0, symSize: 0x110 }
  - { offset: 0xBB37F, size: 0x8, addend: 0x0, symName: __RNvXs4_NtNtCsATtFUPiRFW_3syn4item8printingNtB7_14ItemForeignModNtNtCs62MdaZFMefA_5quote9to_tokens8ToTokens9to_tokens, symObjAddr: 0x18378, symBinAddr: 0x46400, symSize: 0x88 }
  - { offset: 0xBB3BE, size: 0x8, addend: 0x0, symName: __RNvXs5_NtNtCsATtFUPiRFW_3syn4item8printingNtB7_8ItemTypeNtNtCs62MdaZFMefA_5quote9to_tokens8ToTokens9to_tokens, symObjAddr: 0x18400, symBinAddr: 0x46488, symSize: 0xD4 }
  - { offset: 0xBB3FD, size: 0x8, addend: 0x0, symName: __RNvXs6_NtNtCsATtFUPiRFW_3syn4item8printingNtB7_8ItemEnumNtNtCs62MdaZFMefA_5quote9to_tokens8ToTokens9to_tokens, symObjAddr: 0x184D4, symBinAddr: 0x4655C, symSize: 0xB8 }
  - { offset: 0xBB43C, size: 0x8, addend: 0x0, symName: __RNvXs7_NtNtCsATtFUPiRFW_3syn4item8printingNtB7_10ItemStructNtNtCs62MdaZFMefA_5quote9to_tokens8ToTokens9to_tokens, symObjAddr: 0x1858C, symBinAddr: 0x46614, symSize: 0x188 }
  - { offset: 0xBB4B7, size: 0x8, addend: 0x0, symName: __RNvXs8_NtNtCsATtFUPiRFW_3syn4item8printingNtB7_9ItemUnionNtNtCs62MdaZFMefA_5quote9to_tokens8ToTokens9to_tokens, symObjAddr: 0x18714, symBinAddr: 0x4679C, symSize: 0xB4 }
  - { offset: 0xBB4F6, size: 0x8, addend: 0x0, symName: __RNvXs9_NtNtCsATtFUPiRFW_3syn4item8printingNtB7_9ItemTraitNtNtCs62MdaZFMefA_5quote9to_tokens8ToTokens9to_tokens, symObjAddr: 0x187C8, symBinAddr: 0x46850, symSize: 0x130 }
  - { offset: 0xBB535, size: 0x8, addend: 0x0, symName: __RNvXsa_NtNtCsATtFUPiRFW_3syn4item8printingNtB7_14ItemTraitAliasNtNtCs62MdaZFMefA_5quote9to_tokens8ToTokens9to_tokens, symObjAddr: 0x188F8, symBinAddr: 0x46980, symSize: 0xD4 }
  - { offset: 0xBB574, size: 0x8, addend: 0x0, symName: __RNvXsb_NtNtCsATtFUPiRFW_3syn4item8printingNtB7_8ItemImplNtNtCs62MdaZFMefA_5quote9to_tokens8ToTokens9to_tokens, symObjAddr: 0x189CC, symBinAddr: 0x46A54, symSize: 0x14C }
  - { offset: 0xBB5F1, size: 0x8, addend: 0x0, symName: __RNvXsc_NtNtCsATtFUPiRFW_3syn4item8printingNtB7_9ItemMacroNtNtCs62MdaZFMefA_5quote9to_tokens8ToTokens9to_tokens, symObjAddr: 0x18B18, symBinAddr: 0x46BA0, symSize: 0x148 }
  - { offset: 0xBB682, size: 0x8, addend: 0x0, symName: __RNvXsd_NtNtCsATtFUPiRFW_3syn4item8printingNtB7_7UsePathNtNtCs62MdaZFMefA_5quote9to_tokens8ToTokens9to_tokens, symObjAddr: 0x18C60, symBinAddr: 0x46CE8, symSize: 0x60 }
  - { offset: 0xBB6C1, size: 0x8, addend: 0x0, symName: __RNvXse_NtNtCsATtFUPiRFW_3syn4item8printingNtB7_7UseNameNtNtCs62MdaZFMefA_5quote9to_tokens8ToTokens9to_tokens, symObjAddr: 0x18CC0, symBinAddr: 0x46D48, symSize: 0x3C }
  - { offset: 0xBB700, size: 0x8, addend: 0x0, symName: __RNvXsf_NtNtCsATtFUPiRFW_3syn4item8printingNtB7_9UseRenameNtNtCs62MdaZFMefA_5quote9to_tokens8ToTokens9to_tokens, symObjAddr: 0x18CFC, symBinAddr: 0x46D84, symSize: 0x60 }
  - { offset: 0xBB73F, size: 0x8, addend: 0x0, symName: __RNvXsg_NtNtCsATtFUPiRFW_3syn4item8printingNtB7_7UseGlobNtNtCs62MdaZFMefA_5quote9to_tokens8ToTokens9to_tokens, symObjAddr: 0x18D5C, symBinAddr: 0x46DE4, symSize: 0x3C }
  - { offset: 0xBB77E, size: 0x8, addend: 0x0, symName: __RNvXsh_NtNtCsATtFUPiRFW_3syn4item8printingNtB7_8UseGroupNtNtCs62MdaZFMefA_5quote9to_tokens8ToTokens9to_tokens, symObjAddr: 0x18D98, symBinAddr: 0x46E20, symSize: 0x44 }
  - { offset: 0xBB7BD, size: 0x8, addend: 0x0, symName: __RNvXsi_NtNtCsATtFUPiRFW_3syn4item8printingNtB7_14TraitItemConstNtNtCs62MdaZFMefA_5quote9to_tokens8ToTokens9to_tokens, symObjAddr: 0x18DDC, symBinAddr: 0x46E64, symSize: 0x110 }
  - { offset: 0xBB82A, size: 0x8, addend: 0x0, symName: __RNvXsj_NtNtCsATtFUPiRFW_3syn4item8printingNtB7_11TraitItemFnNtNtCs62MdaZFMefA_5quote9to_tokens8ToTokens9to_tokens, symObjAddr: 0x18EEC, symBinAddr: 0x46F74, symSize: 0xD4 }
  - { offset: 0xBB887, size: 0x8, addend: 0x0, symName: __RNvXsk_NtNtCsATtFUPiRFW_3syn4item8printingNtB7_13TraitItemTypeNtNtCs62MdaZFMefA_5quote9to_tokens8ToTokens9to_tokens, symObjAddr: 0x18FC0, symBinAddr: 0x47048, symSize: 0x168 }
  - { offset: 0xBB8F4, size: 0x8, addend: 0x0, symName: __RNvXsl_NtNtCsATtFUPiRFW_3syn4item8printingNtB7_14TraitItemMacroNtNtCs62MdaZFMefA_5quote9to_tokens8ToTokens9to_tokens, symObjAddr: 0x19128, symBinAddr: 0x471B0, symSize: 0x74 }
  - { offset: 0xBB933, size: 0x8, addend: 0x0, symName: __RNvXsm_NtNtCsATtFUPiRFW_3syn4item8printingNtB7_13ImplItemConstNtNtCs62MdaZFMefA_5quote9to_tokens8ToTokens9to_tokens, symObjAddr: 0x1919C, symBinAddr: 0x47224, symSize: 0xE4 }
  - { offset: 0xBB972, size: 0x8, addend: 0x0, symName: __RNvXsn_NtNtCsATtFUPiRFW_3syn4item8printingNtB7_10ImplItemFnNtNtCs62MdaZFMefA_5quote9to_tokens8ToTokens9to_tokens, symObjAddr: 0x19280, symBinAddr: 0x47308, symSize: 0x98 }
  - { offset: 0xBB9B1, size: 0x8, addend: 0x0, symName: __RNvXso_NtNtCsATtFUPiRFW_3syn4item8printingNtB7_12ImplItemTypeNtNtCs62MdaZFMefA_5quote9to_tokens8ToTokens9to_tokens, symObjAddr: 0x19318, symBinAddr: 0x473A0, symSize: 0xE4 }
  - { offset: 0xBB9F0, size: 0x8, addend: 0x0, symName: __RNvXsp_NtNtCsATtFUPiRFW_3syn4item8printingNtB7_13ImplItemMacroNtNtCs62MdaZFMefA_5quote9to_tokens8ToTokens9to_tokens, symObjAddr: 0x193FC, symBinAddr: 0x47484, symSize: 0x74 }
  - { offset: 0xBBA2F, size: 0x8, addend: 0x0, symName: __RNvXsq_NtNtCsATtFUPiRFW_3syn4item8printingNtB7_13ForeignItemFnNtNtCs62MdaZFMefA_5quote9to_tokens8ToTokens9to_tokens, symObjAddr: 0x19470, symBinAddr: 0x474F8, symSize: 0x84 }
  - { offset: 0xBBA6E, size: 0x8, addend: 0x0, symName: __RNvXsr_NtNtCsATtFUPiRFW_3syn4item8printingNtB7_17ForeignItemStaticNtNtCs62MdaZFMefA_5quote9to_tokens8ToTokens9to_tokens, symObjAddr: 0x194F4, symBinAddr: 0x4757C, symSize: 0xC4 }
  - { offset: 0xBBAAD, size: 0x8, addend: 0x0, symName: __RNvXss_NtNtCsATtFUPiRFW_3syn4item8printingNtB7_15ForeignItemTypeNtNtCs62MdaZFMefA_5quote9to_tokens8ToTokens9to_tokens, symObjAddr: 0x195B8, symBinAddr: 0x47640, symSize: 0xB4 }
  - { offset: 0xBBAEC, size: 0x8, addend: 0x0, symName: __RNvXst_NtNtCsATtFUPiRFW_3syn4item8printingNtB7_16ForeignItemMacroNtNtCs62MdaZFMefA_5quote9to_tokens8ToTokens9to_tokens, symObjAddr: 0x1966C, symBinAddr: 0x476F4, symSize: 0x74 }
  - { offset: 0xBBB2B, size: 0x8, addend: 0x0, symName: __RNvXsu_NtNtCsATtFUPiRFW_3syn4item8printingNtB7_9SignatureNtNtCs62MdaZFMefA_5quote9to_tokens8ToTokens9to_tokens, symObjAddr: 0x196E0, symBinAddr: 0x47768, symSize: 0xD4 }
  - { offset: 0xBBB6A, size: 0x8, addend: 0x0, symName: __RNvXsv_NtNtCsATtFUPiRFW_3syn4item8printingNtB7_8ReceiverNtNtCs62MdaZFMefA_5quote9to_tokens8ToTokens9to_tokens, symObjAddr: 0x197B4, symBinAddr: 0x4783C, symSize: 0x40C }
  - { offset: 0xBBC5F, size: 0x8, addend: 0x0, symName: __RNvXsw_NtNtCsATtFUPiRFW_3syn4item8printingNtB7_8VariadicNtNtCs62MdaZFMefA_5quote9to_tokens8ToTokens9to_tokens, symObjAddr: 0x19BC0, symBinAddr: 0x47C48, symSize: 0xE0 }
  - { offset: 0xBBCCC, size: 0x8, addend: 0x0, symName: __RNvXsx_NtNtCsATtFUPiRFW_3syn4item8printingNtB7_16StaticMutabilityNtNtCs62MdaZFMefA_5quote9to_tokens8ToTokens9to_tokens, symObjAddr: 0x19CA0, symBinAddr: 0x47D28, symSize: 0x7C }
  - { offset: 0xBBD2F, size: 0x8, addend: 0x0, symName: __RNcNtNtNtCsATtFUPiRFW_3syn4item4Item4Enum0B7_, symObjAddr: 0x19D1C, symBinAddr: 0x47DA4, symSize: 0x3C }
  - { offset: 0xBBD5E, size: 0x8, addend: 0x0, symName: __RNcNtNtNtCsATtFUPiRFW_3syn4item4Item11ExternCrate0B7_, symObjAddr: 0x19D58, symBinAddr: 0x47DE0, symSize: 0x3C }
  - { offset: 0xBBD8D, size: 0x8, addend: 0x0, symName: __RNcNtNtNtCsATtFUPiRFW_3syn4item4Item2Fn0B7_, symObjAddr: 0x19D94, symBinAddr: 0x47E1C, symSize: 0x30 }
  - { offset: 0xBBDBC, size: 0x8, addend: 0x0, symName: __RNcNtNtNtCsATtFUPiRFW_3syn4item4Item10ForeignMod0B7_, symObjAddr: 0x19DC4, symBinAddr: 0x47E4C, symSize: 0x3C }
  - { offset: 0xBBDEB, size: 0x8, addend: 0x0, symName: __RNcNtNtNtCsATtFUPiRFW_3syn4item4Item5Macro0B7_, symObjAddr: 0x19E00, symBinAddr: 0x47E88, symSize: 0x3C }
  - { offset: 0xBBE1A, size: 0x8, addend: 0x0, symName: __RNcNtNtNtCsATtFUPiRFW_3syn4item4Item3Mod0B7_, symObjAddr: 0x19E3C, symBinAddr: 0x47EC4, symSize: 0x3C }
  - { offset: 0xBBE49, size: 0x8, addend: 0x0, symName: __RNcNtNtNtCsATtFUPiRFW_3syn4item4Item6Struct0B7_, symObjAddr: 0x19E78, symBinAddr: 0x47F00, symSize: 0x3C }
  - { offset: 0xBBE78, size: 0x8, addend: 0x0, symName: __RNcNtNtNtCsATtFUPiRFW_3syn4item4Item5Trait0B7_, symObjAddr: 0x19EB4, symBinAddr: 0x47F3C, symSize: 0x3C }
  - { offset: 0xBBEA7, size: 0x8, addend: 0x0, symName: __RNcNtNtNtCsATtFUPiRFW_3syn4item4Item10TraitAlias0B7_, symObjAddr: 0x19EF0, symBinAddr: 0x47F78, symSize: 0x3C }
  - { offset: 0xBBED6, size: 0x8, addend: 0x0, symName: __RNcNtNtNtCsATtFUPiRFW_3syn4item4Item5Union0B7_, symObjAddr: 0x19F2C, symBinAddr: 0x47FB4, symSize: 0x3C }
  - { offset: 0xBBF06, size: 0x8, addend: 0x0, symName: __RNvXs5_NtCsATtFUPiRFW_3syn4itemNtB5_4ItemINtNtCs9f3LFPSIp77_4core7convert4FromNtB5_9ItemConstE4from, symObjAddr: 0x19F68, symBinAddr: 0x47FF0, symSize: 0x4C }
  - { offset: 0xBBF39, size: 0x8, addend: 0x0, symName: __RNvXs6_NtCsATtFUPiRFW_3syn4itemNtB5_4ItemINtNtCs9f3LFPSIp77_4core7convert4FromNtB5_8ItemEnumE4from, symObjAddr: 0x19FB4, symBinAddr: 0x4803C, symSize: 0x4C }
  - { offset: 0xBBF6C, size: 0x8, addend: 0x0, symName: __RNvXs7_NtCsATtFUPiRFW_3syn4itemNtB5_4ItemINtNtCs9f3LFPSIp77_4core7convert4FromNtB5_15ItemExternCrateE4from, symObjAddr: 0x1A000, symBinAddr: 0x48088, symSize: 0x4C }
  - { offset: 0xBBF9F, size: 0x8, addend: 0x0, symName: __RNvXs8_NtCsATtFUPiRFW_3syn4itemNtB5_4ItemINtNtCs9f3LFPSIp77_4core7convert4FromNtB5_6ItemFnE4from, symObjAddr: 0x1A04C, symBinAddr: 0x480D4, symSize: 0x40 }
  - { offset: 0xBBFD2, size: 0x8, addend: 0x0, symName: __RNvXs9_NtCsATtFUPiRFW_3syn4itemNtB5_4ItemINtNtCs9f3LFPSIp77_4core7convert4FromNtB5_14ItemForeignModE4from, symObjAddr: 0x1A08C, symBinAddr: 0x48114, symSize: 0x4C }
  - { offset: 0xBC005, size: 0x8, addend: 0x0, symName: __RNvXsa_NtCsATtFUPiRFW_3syn4itemNtB5_4ItemINtNtCs9f3LFPSIp77_4core7convert4FromNtB5_8ItemImplE4from, symObjAddr: 0x1A0D8, symBinAddr: 0x48160, symSize: 0x4C }
  - { offset: 0xBC038, size: 0x8, addend: 0x0, symName: __RNvXsb_NtCsATtFUPiRFW_3syn4itemNtB5_4ItemINtNtCs9f3LFPSIp77_4core7convert4FromNtB5_9ItemMacroE4from, symObjAddr: 0x1A124, symBinAddr: 0x481AC, symSize: 0x4C }
  - { offset: 0xBC06B, size: 0x8, addend: 0x0, symName: __RNvXsc_NtCsATtFUPiRFW_3syn4itemNtB5_4ItemINtNtCs9f3LFPSIp77_4core7convert4FromNtB5_7ItemModE4from, symObjAddr: 0x1A170, symBinAddr: 0x481F8, symSize: 0x4C }
  - { offset: 0xBC09E, size: 0x8, addend: 0x0, symName: __RNvXsd_NtCsATtFUPiRFW_3syn4itemNtB5_4ItemINtNtCs9f3LFPSIp77_4core7convert4FromNtB5_10ItemStaticE4from, symObjAddr: 0x1A1BC, symBinAddr: 0x48244, symSize: 0x4C }
  - { offset: 0xBC0D1, size: 0x8, addend: 0x0, symName: __RNvXse_NtCsATtFUPiRFW_3syn4itemNtB5_4ItemINtNtCs9f3LFPSIp77_4core7convert4FromNtB5_10ItemStructE4from, symObjAddr: 0x1A208, symBinAddr: 0x48290, symSize: 0x4C }
  - { offset: 0xBC104, size: 0x8, addend: 0x0, symName: __RNvXsf_NtCsATtFUPiRFW_3syn4itemNtB5_4ItemINtNtCs9f3LFPSIp77_4core7convert4FromNtB5_9ItemTraitE4from, symObjAddr: 0x1A254, symBinAddr: 0x482DC, symSize: 0x4C }
  - { offset: 0xBC137, size: 0x8, addend: 0x0, symName: __RNvXsg_NtCsATtFUPiRFW_3syn4itemNtB5_4ItemINtNtCs9f3LFPSIp77_4core7convert4FromNtB5_14ItemTraitAliasE4from, symObjAddr: 0x1A2A0, symBinAddr: 0x48328, symSize: 0x4C }
  - { offset: 0xBC16A, size: 0x8, addend: 0x0, symName: __RNvXsh_NtCsATtFUPiRFW_3syn4itemNtB5_4ItemINtNtCs9f3LFPSIp77_4core7convert4FromNtB5_8ItemTypeE4from, symObjAddr: 0x1A2EC, symBinAddr: 0x48374, symSize: 0x4C }
  - { offset: 0xBC19D, size: 0x8, addend: 0x0, symName: __RNvXsi_NtCsATtFUPiRFW_3syn4itemNtB5_4ItemINtNtCs9f3LFPSIp77_4core7convert4FromNtB5_9ItemUnionE4from, symObjAddr: 0x1A338, symBinAddr: 0x483C0, symSize: 0x4C }
  - { offset: 0xBC1D0, size: 0x8, addend: 0x0, symName: __RNvXsj_NtCsATtFUPiRFW_3syn4itemNtB5_4ItemINtNtCs9f3LFPSIp77_4core7convert4FromNtB5_7ItemUseE4from, symObjAddr: 0x1A384, symBinAddr: 0x4840C, symSize: 0x4C }
  - { offset: 0xBC203, size: 0x8, addend: 0x0, symName: __RNvXsk_NtCsATtFUPiRFW_3syn4itemNtB5_4ItemNtNtCs62MdaZFMefA_5quote9to_tokens8ToTokens9to_tokens, symObjAddr: 0x1A3D0, symBinAddr: 0x48458, symSize: 0x35C }
  - { offset: 0xBC40D, size: 0x8, addend: 0x0, symName: __RNvXsl_NtCsATtFUPiRFW_3syn4itemNtB5_7UseTreeINtNtCs9f3LFPSIp77_4core7convert4FromNtB5_7UsePathE4from, symObjAddr: 0x1A72C, symBinAddr: 0x487B4, symSize: 0x48 }
  - { offset: 0xBC440, size: 0x8, addend: 0x0, symName: __RNvXsm_NtCsATtFUPiRFW_3syn4itemNtB5_7UseTreeINtNtCs9f3LFPSIp77_4core7convert4FromNtB5_7UseNameE4from, symObjAddr: 0x1A774, symBinAddr: 0x487FC, symSize: 0x30 }
  - { offset: 0xBC472, size: 0x8, addend: 0x0, symName: __RNvXsn_NtCsATtFUPiRFW_3syn4itemNtB5_7UseTreeINtNtCs9f3LFPSIp77_4core7convert4FromNtB5_9UseRenameE4from, symObjAddr: 0x1A7A4, symBinAddr: 0x4882C, symSize: 0x4C }
  - { offset: 0xBC4A5, size: 0x8, addend: 0x0, symName: __RNvXso_NtCsATtFUPiRFW_3syn4itemNtB5_7UseTreeINtNtCs9f3LFPSIp77_4core7convert4FromNtB5_7UseGlobE4from, symObjAddr: 0x1A7F0, symBinAddr: 0x48878, symSize: 0x3C }
  - { offset: 0xBC4D7, size: 0x8, addend: 0x0, symName: __RNvXsp_NtCsATtFUPiRFW_3syn4itemNtB5_7UseTreeINtNtCs9f3LFPSIp77_4core7convert4FromNtB5_8UseGroupE4from, symObjAddr: 0x1A82C, symBinAddr: 0x488B4, symSize: 0x4C }
  - { offset: 0xBC50A, size: 0x8, addend: 0x0, symName: __RNvXsq_NtCsATtFUPiRFW_3syn4itemNtB5_7UseTreeNtNtCs62MdaZFMefA_5quote9to_tokens8ToTokens9to_tokens, symObjAddr: 0x1A878, symBinAddr: 0x48900, symSize: 0x15C }
  - { offset: 0xBC5D4, size: 0x8, addend: 0x0, symName: __RNcNtNtNtCsATtFUPiRFW_3syn4item11ForeignItem5Macro0B7_, symObjAddr: 0x1A9D4, symBinAddr: 0x48A5C, symSize: 0x3C }
  - { offset: 0xBC606, size: 0x8, addend: 0x0, symName: __RNvXsr_NtCsATtFUPiRFW_3syn4itemNtB5_11ForeignItemINtNtCs9f3LFPSIp77_4core7convert4FromNtB5_13ForeignItemFnE4from, symObjAddr: 0x1AA10, symBinAddr: 0x48A98, symSize: 0x40 }
  - { offset: 0xBC639, size: 0x8, addend: 0x0, symName: __RNvXss_NtCsATtFUPiRFW_3syn4itemNtB5_11ForeignItemINtNtCs9f3LFPSIp77_4core7convert4FromNtB5_17ForeignItemStaticE4from, symObjAddr: 0x1AA50, symBinAddr: 0x48AD8, symSize: 0x4C }
  - { offset: 0xBC66C, size: 0x8, addend: 0x0, symName: __RNvXst_NtCsATtFUPiRFW_3syn4itemNtB5_11ForeignItemINtNtCs9f3LFPSIp77_4core7convert4FromNtB5_15ForeignItemTypeE4from, symObjAddr: 0x1AA9C, symBinAddr: 0x48B24, symSize: 0x4C }
  - { offset: 0xBC69F, size: 0x8, addend: 0x0, symName: __RNvXsu_NtCsATtFUPiRFW_3syn4itemNtB5_11ForeignItemINtNtCs9f3LFPSIp77_4core7convert4FromNtB5_16ForeignItemMacroE4from, symObjAddr: 0x1AAE8, symBinAddr: 0x48B70, symSize: 0x4C }
  - { offset: 0xBC6D2, size: 0x8, addend: 0x0, symName: __RNvXsv_NtCsATtFUPiRFW_3syn4itemNtB5_11ForeignItemNtNtCs62MdaZFMefA_5quote9to_tokens8ToTokens9to_tokens, symObjAddr: 0x1AB34, symBinAddr: 0x48BBC, symSize: 0x168 }
  - { offset: 0xBC79C, size: 0x8, addend: 0x0, symName: __RNcNtNtNtCsATtFUPiRFW_3syn4item9TraitItem2Fn0B7_, symObjAddr: 0x1AC9C, symBinAddr: 0x48D24, symSize: 0x3C }
  - { offset: 0xBC7CD, size: 0x8, addend: 0x0, symName: __RNcNtNtNtCsATtFUPiRFW_3syn4item9TraitItem5Macro0B7_, symObjAddr: 0x1ACD8, symBinAddr: 0x48D60, symSize: 0x3C }
  - { offset: 0xBC7FF, size: 0x8, addend: 0x0, symName: __RNvXsw_NtCsATtFUPiRFW_3syn4itemNtB5_9TraitItemINtNtCs9f3LFPSIp77_4core7convert4FromNtB5_14TraitItemConstE4from, symObjAddr: 0x1AD14, symBinAddr: 0x48D9C, symSize: 0x40 }
  - { offset: 0xBC832, size: 0x8, addend: 0x0, symName: __RNvXsx_NtCsATtFUPiRFW_3syn4itemNtB5_9TraitItemINtNtCs9f3LFPSIp77_4core7convert4FromNtB5_11TraitItemFnE4from, symObjAddr: 0x1AD54, symBinAddr: 0x48DDC, symSize: 0x4C }
  - { offset: 0xBC865, size: 0x8, addend: 0x0, symName: __RNvXsy_NtCsATtFUPiRFW_3syn4itemNtB5_9TraitItemINtNtCs9f3LFPSIp77_4core7convert4FromNtB5_13TraitItemTypeE4from, symObjAddr: 0x1ADA0, symBinAddr: 0x48E28, symSize: 0x4C }
  - { offset: 0xBC898, size: 0x8, addend: 0x0, symName: __RNvXsz_NtCsATtFUPiRFW_3syn4itemNtB5_9TraitItemINtNtCs9f3LFPSIp77_4core7convert4FromNtB5_14TraitItemMacroE4from, symObjAddr: 0x1ADEC, symBinAddr: 0x48E74, symSize: 0x4C }
  - { offset: 0xBC8CB, size: 0x8, addend: 0x0, symName: __RNvXsA_NtCsATtFUPiRFW_3syn4itemNtB5_9TraitItemNtNtCs62MdaZFMefA_5quote9to_tokens8ToTokens9to_tokens, symObjAddr: 0x1AE38, symBinAddr: 0x48EC0, symSize: 0x168 }
  - { offset: 0xBC995, size: 0x8, addend: 0x0, symName: __RNcNtNtNtCsATtFUPiRFW_3syn4item8ImplItem5Macro0B7_, symObjAddr: 0x1AFA0, symBinAddr: 0x49028, symSize: 0x3C }
  - { offset: 0xBC9C7, size: 0x8, addend: 0x0, symName: __RNvXsB_NtCsATtFUPiRFW_3syn4itemNtB5_8ImplItemINtNtCs9f3LFPSIp77_4core7convert4FromNtB5_13ImplItemConstE4from, symObjAddr: 0x1AFDC, symBinAddr: 0x49064, symSize: 0x40 }
  - { offset: 0xBC9FA, size: 0x8, addend: 0x0, symName: __RNvXsC_NtCsATtFUPiRFW_3syn4itemNtB5_8ImplItemINtNtCs9f3LFPSIp77_4core7convert4FromNtB5_10ImplItemFnE4from, symObjAddr: 0x1B01C, symBinAddr: 0x490A4, symSize: 0x4C }
  - { offset: 0xBCA2D, size: 0x8, addend: 0x0, symName: __RNvXsD_NtCsATtFUPiRFW_3syn4itemNtB5_8ImplItemINtNtCs9f3LFPSIp77_4core7convert4FromNtB5_12ImplItemTypeE4from, symObjAddr: 0x1B068, symBinAddr: 0x490F0, symSize: 0x4C }
  - { offset: 0xBCA60, size: 0x8, addend: 0x0, symName: __RNvXsE_NtCsATtFUPiRFW_3syn4itemNtB5_8ImplItemINtNtCs9f3LFPSIp77_4core7convert4FromNtB5_13ImplItemMacroE4from, symObjAddr: 0x1B0B4, symBinAddr: 0x4913C, symSize: 0x4C }
  - { offset: 0xBCA93, size: 0x8, addend: 0x0, symName: __RNvXsF_NtCsATtFUPiRFW_3syn4itemNtB5_8ImplItemNtNtCs62MdaZFMefA_5quote9to_tokens8ToTokens9to_tokens, symObjAddr: 0x1B100, symBinAddr: 0x49188, symSize: 0x168 }
  - { offset: 0xBCB58, size: 0x8, addend: 0x0, symName: __RNvXsG_NtCsATtFUPiRFW_3syn4itemNtB5_5FnArgINtNtCs9f3LFPSIp77_4core7convert4FromNtB5_8ReceiverE4from, symObjAddr: 0x1B268, symBinAddr: 0x492F0, symSize: 0x40 }
  - { offset: 0xBCB8B, size: 0x8, addend: 0x0, symName: __RNvXsH_NtCsATtFUPiRFW_3syn4itemNtB5_5FnArgINtNtCs9f3LFPSIp77_4core7convert4FromNtNtB7_3pat7PatTypeE4from, symObjAddr: 0x1B2A8, symBinAddr: 0x49330, symSize: 0x4C }
  - { offset: 0xBCBBE, size: 0x8, addend: 0x0, symName: __RNvXsI_NtCsATtFUPiRFW_3syn4itemNtB5_5FnArgNtNtCs62MdaZFMefA_5quote9to_tokens8ToTokens9to_tokens, symObjAddr: 0x1B2F4, symBinAddr: 0x4937C, symSize: 0xA0 }
  - { offset: 0xBCC31, size: 0x8, addend: 0x0, symName: __RNcNtNtNtCsATtFUPiRFW_3syn4item16StaticMutability3Mut0B7_, symObjAddr: 0x1B394, symBinAddr: 0x4941C, symSize: 0x20 }
  - { offset: 0xC06DF, size: 0x8, addend: 0x0, symName: __RNvXs16_NtNtCsATtFUPiRFW_3syn3gen5cloneNtNtBa_4item5FnArgNtNtCs9f3LFPSIp77_4core5clone5Clone5clone, symObjAddr: 0x1B3B4, symBinAddr: 0x4943C, symSize: 0xDC }
  - { offset: 0xC0747, size: 0x8, addend: 0x0, symName: __RNvXs17_NtNtCsATtFUPiRFW_3syn3gen5cloneNtNtBa_4item11ForeignItemNtNtCs9f3LFPSIp77_4core5clone5Clone5clone, symObjAddr: 0x1B490, symBinAddr: 0x49518, symSize: 0x224 }
  - { offset: 0xC0809, size: 0x8, addend: 0x0, symName: __RNvXs18_NtNtCsATtFUPiRFW_3syn3gen5cloneNtNtBa_4item13ForeignItemFnNtNtCs9f3LFPSIp77_4core5clone5Clone5clone, symObjAddr: 0x1B6B4, symBinAddr: 0x4973C, symSize: 0x134 }
  - { offset: 0xC083D, size: 0x8, addend: 0x0, symName: __RNvXs19_NtNtCsATtFUPiRFW_3syn3gen5cloneNtNtBa_4item16ForeignItemMacroNtNtCs9f3LFPSIp77_4core5clone5Clone5clone, symObjAddr: 0x1B7E8, symBinAddr: 0x49870, symSize: 0xEC }
  - { offset: 0xC0871, size: 0x8, addend: 0x0, symName: __RNvXs1a_NtNtCsATtFUPiRFW_3syn3gen5cloneNtNtBa_4item17ForeignItemStaticNtNtCs9f3LFPSIp77_4core5clone5Clone5clone, symObjAddr: 0x1B8D4, symBinAddr: 0x4995C, symSize: 0x1D4 }
  - { offset: 0xC08A5, size: 0x8, addend: 0x0, symName: __RNvXs1b_NtNtCsATtFUPiRFW_3syn3gen5cloneNtNtBa_4item15ForeignItemTypeNtNtCs9f3LFPSIp77_4core5clone5Clone5clone, symObjAddr: 0x1BAA8, symBinAddr: 0x49B30, symSize: 0x190 }
  - { offset: 0xC08D9, size: 0x8, addend: 0x0, symName: __RNvXs1f_NtNtCsATtFUPiRFW_3syn3gen5cloneNtNtBa_4item8ImplItemNtNtCs9f3LFPSIp77_4core5clone5Clone5clone, symObjAddr: 0x1BC38, symBinAddr: 0x49CC0, symSize: 0x21C }
  - { offset: 0xC099B, size: 0x8, addend: 0x0, symName: __RNvXs1g_NtNtCsATtFUPiRFW_3syn3gen5cloneNtNtBa_4item13ImplItemConstNtNtCs9f3LFPSIp77_4core5clone5Clone5clone, symObjAddr: 0x1BE54, symBinAddr: 0x49EDC, symSize: 0x2A4 }
  - { offset: 0xC09CF, size: 0x8, addend: 0x0, symName: __RNvXs1h_NtNtCsATtFUPiRFW_3syn3gen5cloneNtNtBa_4item10ImplItemFnNtNtCs9f3LFPSIp77_4core5clone5Clone5clone, symObjAddr: 0x1C0F8, symBinAddr: 0x4A180, symSize: 0x158 }
  - { offset: 0xC0A03, size: 0x8, addend: 0x0, symName: __RNvXs1i_NtNtCsATtFUPiRFW_3syn3gen5cloneNtNtBa_4item13ImplItemMacroNtNtCs9f3LFPSIp77_4core5clone5Clone5clone, symObjAddr: 0x1C250, symBinAddr: 0x4A2D8, symSize: 0xEC }
  - { offset: 0xC0A37, size: 0x8, addend: 0x0, symName: __RNvXs1j_NtNtCsATtFUPiRFW_3syn3gen5cloneNtNtBa_4item12ImplItemTypeNtNtCs9f3LFPSIp77_4core5clone5Clone5clone, symObjAddr: 0x1C33C, symBinAddr: 0x4A3C4, symSize: 0x230 }
  - { offset: 0xC0A6B, size: 0x8, addend: 0x0, symName: __RNvXs1k_NtNtCsATtFUPiRFW_3syn3gen5cloneNtNtBa_4item15ImplRestrictionNtNtCs9f3LFPSIp77_4core5clone5Clone5clone, symObjAddr: 0x1C56C, symBinAddr: 0x4A5F4, symSize: 0xC }
  - { offset: 0xC0A9B, size: 0x8, addend: 0x0, symName: __RNvXs1m_NtNtCsATtFUPiRFW_3syn3gen5cloneNtNtBa_4item4ItemNtNtCs9f3LFPSIp77_4core5clone5Clone5clone, symObjAddr: 0x1C578, symBinAddr: 0x4A600, symSize: 0x5C8 }
  - { offset: 0xC0CB2, size: 0x8, addend: 0x0, symName: __RNvXs1n_NtNtCsATtFUPiRFW_3syn3gen5cloneNtNtBa_4item9ItemConstNtNtCs9f3LFPSIp77_4core5clone5Clone5clone, symObjAddr: 0x1CB40, symBinAddr: 0x4ABC8, symSize: 0x268 }
  - { offset: 0xC0CE6, size: 0x8, addend: 0x0, symName: __RNvXs1o_NtNtCsATtFUPiRFW_3syn3gen5cloneNtNtBa_4item8ItemEnumNtNtCs9f3LFPSIp77_4core5clone5Clone5clone, symObjAddr: 0x1CDA8, symBinAddr: 0x4AE30, symSize: 0x1B8 }
  - { offset: 0xC0D1A, size: 0x8, addend: 0x0, symName: __RNvXs1p_NtNtCsATtFUPiRFW_3syn3gen5cloneNtNtBa_4item15ItemExternCrateNtNtCs9f3LFPSIp77_4core5clone5Clone5clone, symObjAddr: 0x1CF60, symBinAddr: 0x4AFE8, symSize: 0x19C }
  - { offset: 0xC0D4E, size: 0x8, addend: 0x0, symName: __RNvXs1q_NtNtCsATtFUPiRFW_3syn3gen5cloneNtNtBa_4item6ItemFnNtNtCs9f3LFPSIp77_4core5clone5Clone5clone, symObjAddr: 0x1D0FC, symBinAddr: 0x4B184, symSize: 0x124 }
  - { offset: 0xC0D82, size: 0x8, addend: 0x0, symName: __RNvXs1r_NtNtCsATtFUPiRFW_3syn3gen5cloneNtNtBa_4item14ItemForeignModNtNtCs9f3LFPSIp77_4core5clone5Clone5clone, symObjAddr: 0x1D220, symBinAddr: 0x4B2A8, symSize: 0x13C }
  - { offset: 0xC0DB6, size: 0x8, addend: 0x0, symName: __RNvXs1s_NtNtCsATtFUPiRFW_3syn3gen5cloneNtNtBa_4item8ItemImplNtNtCs9f3LFPSIp77_4core5clone5Clone5clone, symObjAddr: 0x1D35C, symBinAddr: 0x4B3E4, symSize: 0x210 }
  - { offset: 0xC0DEA, size: 0x8, addend: 0x0, symName: __RNvXs1t_NtNtCsATtFUPiRFW_3syn3gen5cloneNtNtBa_4item9ItemMacroNtNtCs9f3LFPSIp77_4core5clone5Clone5clone, symObjAddr: 0x1D56C, symBinAddr: 0x4B5F4, symSize: 0x12C }
  - { offset: 0xC0E1E, size: 0x8, addend: 0x0, symName: __RNvXs1u_NtNtCsATtFUPiRFW_3syn3gen5cloneNtNtBa_4item7ItemModNtNtCs9f3LFPSIp77_4core5clone5Clone5clone, symObjAddr: 0x1D698, symBinAddr: 0x4B720, symSize: 0x1B0 }
  - { offset: 0xC0E52, size: 0x8, addend: 0x0, symName: __RNvXs1v_NtNtCsATtFUPiRFW_3syn3gen5cloneNtNtBa_4item10ItemStaticNtNtCs9f3LFPSIp77_4core5clone5Clone5clone, symObjAddr: 0x1D848, symBinAddr: 0x4B8D0, symSize: 0x240 }
  - { offset: 0xC0E86, size: 0x8, addend: 0x0, symName: __RNvXs1w_NtNtCsATtFUPiRFW_3syn3gen5cloneNtNtBa_4item10ItemStructNtNtCs9f3LFPSIp77_4core5clone5Clone5clone, symObjAddr: 0x1DA88, symBinAddr: 0x4BB10, symSize: 0x1D4 }
  - { offset: 0xC0EBA, size: 0x8, addend: 0x0, symName: __RNvXs1x_NtNtCsATtFUPiRFW_3syn3gen5cloneNtNtBa_4item9ItemTraitNtNtCs9f3LFPSIp77_4core5clone5Clone5clone, symObjAddr: 0x1DC5C, symBinAddr: 0x4BCE4, symSize: 0x278 }
  - { offset: 0xC0EEE, size: 0x8, addend: 0x0, symName: __RNvXs1y_NtNtCsATtFUPiRFW_3syn3gen5cloneNtNtBa_4item14ItemTraitAliasNtNtCs9f3LFPSIp77_4core5clone5Clone5clone, symObjAddr: 0x1DED4, symBinAddr: 0x4BF5C, symSize: 0x1FC }
  - { offset: 0xC0F22, size: 0x8, addend: 0x0, symName: __RNvXs1z_NtNtCsATtFUPiRFW_3syn3gen5cloneNtNtBa_4item8ItemTypeNtNtCs9f3LFPSIp77_4core5clone5Clone5clone, symObjAddr: 0x1E0D0, symBinAddr: 0x4C158, symSize: 0x1FC }
  - { offset: 0xC0F56, size: 0x8, addend: 0x0, symName: __RNvXs1A_NtNtCsATtFUPiRFW_3syn3gen5cloneNtNtBa_4item9ItemUnionNtNtCs9f3LFPSIp77_4core5clone5Clone5clone, symObjAddr: 0x1E2CC, symBinAddr: 0x4C354, symSize: 0x18C }
  - { offset: 0xC0F8A, size: 0x8, addend: 0x0, symName: __RNvXs1B_NtNtCsATtFUPiRFW_3syn3gen5cloneNtNtBa_4item7ItemUseNtNtCs9f3LFPSIp77_4core5clone5Clone5clone, symObjAddr: 0x1E458, symBinAddr: 0x4C4E0, symSize: 0x16C }
  - { offset: 0xC0FBE, size: 0x8, addend: 0x0, symName: __RNvXs2b_NtNtCsATtFUPiRFW_3syn3gen5cloneNtNtBa_4item8ReceiverNtNtCs9f3LFPSIp77_4core5clone5Clone5clone, symObjAddr: 0x1E5C4, symBinAddr: 0x4C64C, symSize: 0x14C }
  - { offset: 0xC0FF2, size: 0x8, addend: 0x0, symName: __RNvXs2d_NtNtCsATtFUPiRFW_3syn3gen5cloneNtNtBa_4item9SignatureNtNtCs9f3LFPSIp77_4core5clone5Clone5clone, symObjAddr: 0x1E710, symBinAddr: 0x4C798, symSize: 0x278 }
  - { offset: 0xC1026, size: 0x8, addend: 0x0, symName: __RNvXs2e_NtNtCsATtFUPiRFW_3syn3gen5cloneNtNtBa_4item16StaticMutabilityNtNtCs9f3LFPSIp77_4core5clone5Clone5clone, symObjAddr: 0x1E988, symBinAddr: 0x4CA10, symSize: 0x88 }
  - { offset: 0xC1078, size: 0x8, addend: 0x0, symName: __RNvXs2k_NtNtCsATtFUPiRFW_3syn3gen5cloneNtNtBa_4item9TraitItemNtNtCs9f3LFPSIp77_4core5clone5Clone5clone, symObjAddr: 0x1EA10, symBinAddr: 0x4CA98, symSize: 0x21C }
  - { offset: 0xC113A, size: 0x8, addend: 0x0, symName: __RNvXs2l_NtNtCsATtFUPiRFW_3syn3gen5cloneNtNtBa_4item14TraitItemConstNtNtCs9f3LFPSIp77_4core5clone5Clone5clone, symObjAddr: 0x1EC2C, symBinAddr: 0x4CCB4, symSize: 0x210 }
  - { offset: 0xC116E, size: 0x8, addend: 0x0, symName: __RNvXs2m_NtNtCsATtFUPiRFW_3syn3gen5cloneNtNtBa_4item11TraitItemFnNtNtCs9f3LFPSIp77_4core5clone5Clone5clone, symObjAddr: 0x1EE3C, symBinAddr: 0x4CEC4, symSize: 0x138 }
  - { offset: 0xC11A2, size: 0x8, addend: 0x0, symName: __RNvXs2n_NtNtCsATtFUPiRFW_3syn3gen5cloneNtNtBa_4item14TraitItemMacroNtNtCs9f3LFPSIp77_4core5clone5Clone5clone, symObjAddr: 0x1EF74, symBinAddr: 0x4CFFC, symSize: 0xEC }
  - { offset: 0xC11D6, size: 0x8, addend: 0x0, symName: __RNvXs2o_NtNtCsATtFUPiRFW_3syn3gen5cloneNtNtBa_4item13TraitItemTypeNtNtCs9f3LFPSIp77_4core5clone5Clone5clone, symObjAddr: 0x1F060, symBinAddr: 0x4D0E8, symSize: 0x204 }
  - { offset: 0xC120A, size: 0x8, addend: 0x0, symName: __RNvXs2I_NtNtCsATtFUPiRFW_3syn3gen5cloneNtNtBa_4item7UseGlobNtNtCs9f3LFPSIp77_4core5clone5Clone5clone, symObjAddr: 0x1F264, symBinAddr: 0x4D2EC, symSize: 0x4C }
  - { offset: 0xC123E, size: 0x8, addend: 0x0, symName: __RNvXs2J_NtNtCsATtFUPiRFW_3syn3gen5cloneNtNtBa_4item8UseGroupNtNtCs9f3LFPSIp77_4core5clone5Clone5clone, symObjAddr: 0x1F2B0, symBinAddr: 0x4D338, symSize: 0x70 }
  - { offset: 0xC1272, size: 0x8, addend: 0x0, symName: __RNvXs2K_NtNtCsATtFUPiRFW_3syn3gen5cloneNtNtBa_4item7UseNameNtNtCs9f3LFPSIp77_4core5clone5Clone5clone, symObjAddr: 0x1F320, symBinAddr: 0x4D3A8, symSize: 0x50 }
  - { offset: 0xC12A6, size: 0x8, addend: 0x0, symName: __RNvXs2L_NtNtCsATtFUPiRFW_3syn3gen5cloneNtNtBa_4item7UsePathNtNtCs9f3LFPSIp77_4core5clone5Clone5clone, symObjAddr: 0x1F370, symBinAddr: 0x4D3F8, symSize: 0xC0 }
  - { offset: 0xC12DA, size: 0x8, addend: 0x0, symName: __RNvXs2M_NtNtCsATtFUPiRFW_3syn3gen5cloneNtNtBa_4item9UseRenameNtNtCs9f3LFPSIp77_4core5clone5Clone5clone, symObjAddr: 0x1F430, symBinAddr: 0x4D4B8, symSize: 0xB8 }
  - { offset: 0xC130E, size: 0x8, addend: 0x0, symName: __RNvXs2N_NtNtCsATtFUPiRFW_3syn3gen5cloneNtNtBa_4item7UseTreeNtNtCs9f3LFPSIp77_4core5clone5Clone5clone, symObjAddr: 0x1F4E8, symBinAddr: 0x4D570, symSize: 0x20C }
  - { offset: 0xC13D1, size: 0x8, addend: 0x0, symName: __RNvXs2O_NtNtCsATtFUPiRFW_3syn3gen5cloneNtNtBa_4item8VariadicNtNtCs9f3LFPSIp77_4core5clone5Clone5clone, symObjAddr: 0x1F6F4, symBinAddr: 0x4D77C, symSize: 0x100 }
  - { offset: 0xC140B, size: 0x8, addend: 0x0, symName: __RNvXs1N_NtNtCsATtFUPiRFW_3syn3gen5debugNtNtBa_4item5FnArgNtNtCs9f3LFPSIp77_4core3fmt5Debug3fmt, symObjAddr: 0x1F7F4, symBinAddr: 0x4D87C, symSize: 0x184 }
  - { offset: 0xC14DB, size: 0x8, addend: 0x0, symName: __RNvXs1O_NtNtCsATtFUPiRFW_3syn3gen5debugNtNtBa_4item11ForeignItemNtNtCs9f3LFPSIp77_4core3fmt5Debug3fmt, symObjAddr: 0x1F978, symBinAddr: 0x4DA00, symSize: 0x268 }
  - { offset: 0xC15E7, size: 0x8, addend: 0x0, symName: __RNvXs1P_NtNtCsATtFUPiRFW_3syn3gen5debugNtNtBa_4item13ForeignItemFnNtNtCs9f3LFPSIp77_4core3fmt5Debug3fmt, symObjAddr: 0x1FBE0, symBinAddr: 0x4DC68, symSize: 0x4C }
  - { offset: 0xC162A, size: 0x8, addend: 0x0, symName: __RNvXs1R_NtNtCsATtFUPiRFW_3syn3gen5debugNtNtBa_4item16ForeignItemMacroNtNtCs9f3LFPSIp77_4core3fmt5Debug3fmt, symObjAddr: 0x1FD30, symBinAddr: 0x4DDB8, symSize: 0x4C }
  - { offset: 0xC166D, size: 0x8, addend: 0x0, symName: __RNvXs1T_NtNtCsATtFUPiRFW_3syn3gen5debugNtNtBa_4item17ForeignItemStaticNtNtCs9f3LFPSIp77_4core3fmt5Debug3fmt, symObjAddr: 0x1FE58, symBinAddr: 0x4DEE0, symSize: 0x4C }
  - { offset: 0xC16B0, size: 0x8, addend: 0x0, symName: __RNvXs1V_NtNtCsATtFUPiRFW_3syn3gen5debugNtNtBa_4item15ForeignItemTypeNtNtCs9f3LFPSIp77_4core3fmt5Debug3fmt, symObjAddr: 0x20048, symBinAddr: 0x4E0D0, symSize: 0x4C }
  - { offset: 0xC16F3, size: 0x8, addend: 0x0, symName: __RNvXs20_NtNtCsATtFUPiRFW_3syn3gen5debugNtNtBa_4item8ImplItemNtNtCs9f3LFPSIp77_4core3fmt5Debug3fmt, symObjAddr: 0x201E8, symBinAddr: 0x4E270, symSize: 0x268 }
  - { offset: 0xC17FF, size: 0x8, addend: 0x0, symName: __RNvXs21_NtNtCsATtFUPiRFW_3syn3gen5debugNtNtBa_4item13ImplItemConstNtNtCs9f3LFPSIp77_4core3fmt5Debug3fmt, symObjAddr: 0x20450, symBinAddr: 0x4E4D8, symSize: 0x4C }
  - { offset: 0xC1842, size: 0x8, addend: 0x0, symName: __RNvXs23_NtNtCsATtFUPiRFW_3syn3gen5debugNtNtBa_4item10ImplItemFnNtNtCs9f3LFPSIp77_4core3fmt5Debug3fmt, symObjAddr: 0x206B4, symBinAddr: 0x4E73C, symSize: 0x4C }
  - { offset: 0xC1885, size: 0x8, addend: 0x0, symName: __RNvXs25_NtNtCsATtFUPiRFW_3syn3gen5debugNtNtBa_4item13ImplItemMacroNtNtCs9f3LFPSIp77_4core3fmt5Debug3fmt, symObjAddr: 0x2082C, symBinAddr: 0x4E8B4, symSize: 0x4C }
  - { offset: 0xC18C8, size: 0x8, addend: 0x0, symName: __RNvXs27_NtNtCsATtFUPiRFW_3syn3gen5debugNtNtBa_4item12ImplItemTypeNtNtCs9f3LFPSIp77_4core3fmt5Debug3fmt, symObjAddr: 0x20954, symBinAddr: 0x4E9DC, symSize: 0x4C }
  - { offset: 0xC190B, size: 0x8, addend: 0x0, symName: __RNvXs29_NtNtCsATtFUPiRFW_3syn3gen5debugNtNtBa_4item15ImplRestrictionNtNtCs9f3LFPSIp77_4core3fmt5Debug3fmt, symObjAddr: 0x20B6C, symBinAddr: 0x4EBF4, symSize: 0x10 }
  - { offset: 0xC194E, size: 0x8, addend: 0x0, symName: __RNvXs2b_NtNtCsATtFUPiRFW_3syn3gen5debugNtNtBa_4item4ItemNtNtCs9f3LFPSIp77_4core3fmt5Debug3fmt, symObjAddr: 0x20B7C, symBinAddr: 0x4EC04, symSize: 0x560 }
  - { offset: 0xC1BB2, size: 0x8, addend: 0x0, symName: __RNvXs2c_NtNtCsATtFUPiRFW_3syn3gen5debugNtNtBa_4item9ItemConstNtNtCs9f3LFPSIp77_4core3fmt5Debug3fmt, symObjAddr: 0x210DC, symBinAddr: 0x4F164, symSize: 0x4C }
  - { offset: 0xC1BF5, size: 0x8, addend: 0x0, symName: __RNvXs2e_NtNtCsATtFUPiRFW_3syn3gen5debugNtNtBa_4item8ItemEnumNtNtCs9f3LFPSIp77_4core3fmt5Debug3fmt, symObjAddr: 0x2131C, symBinAddr: 0x4F3A4, symSize: 0x4C }
  - { offset: 0xC1C38, size: 0x8, addend: 0x0, symName: __RNvXs2g_NtNtCsATtFUPiRFW_3syn3gen5debugNtNtBa_4item15ItemExternCrateNtNtCs9f3LFPSIp77_4core3fmt5Debug3fmt, symObjAddr: 0x214E4, symBinAddr: 0x4F56C, symSize: 0x4C }
  - { offset: 0xC1C7B, size: 0x8, addend: 0x0, symName: __RNvXs2i_NtNtCsATtFUPiRFW_3syn3gen5debugNtNtBa_4item6ItemFnNtNtCs9f3LFPSIp77_4core3fmt5Debug3fmt, symObjAddr: 0x216AC, symBinAddr: 0x4F734, symSize: 0x4C }
  - { offset: 0xC1CBE, size: 0x8, addend: 0x0, symName: __RNvXs2k_NtNtCsATtFUPiRFW_3syn3gen5debugNtNtBa_4item14ItemForeignModNtNtCs9f3LFPSIp77_4core3fmt5Debug3fmt, symObjAddr: 0x217FC, symBinAddr: 0x4F884, symSize: 0x4C }
  - { offset: 0xC1D01, size: 0x8, addend: 0x0, symName: __RNvXs2m_NtNtCsATtFUPiRFW_3syn3gen5debugNtNtBa_4item8ItemImplNtNtCs9f3LFPSIp77_4core3fmt5Debug3fmt, symObjAddr: 0x21974, symBinAddr: 0x4F9FC, symSize: 0x4C }
  - { offset: 0xC1D44, size: 0x8, addend: 0x0, symName: __RNvXs2o_NtNtCsATtFUPiRFW_3syn3gen5debugNtNtBa_4item9ItemMacroNtNtCs9f3LFPSIp77_4core3fmt5Debug3fmt, symObjAddr: 0x21B8C, symBinAddr: 0x4FC14, symSize: 0x4C }
  - { offset: 0xC1D87, size: 0x8, addend: 0x0, symName: __RNvXs2q_NtNtCsATtFUPiRFW_3syn3gen5debugNtNtBa_4item7ItemModNtNtCs9f3LFPSIp77_4core3fmt5Debug3fmt, symObjAddr: 0x21CDC, symBinAddr: 0x4FD64, symSize: 0x4C }
  - { offset: 0xC1DCA, size: 0x8, addend: 0x0, symName: __RNvXs2s_NtNtCsATtFUPiRFW_3syn3gen5debugNtNtBa_4item10ItemStaticNtNtCs9f3LFPSIp77_4core3fmt5Debug3fmt, symObjAddr: 0x21EA4, symBinAddr: 0x4FF2C, symSize: 0x4C }
  - { offset: 0xC1E0D, size: 0x8, addend: 0x0, symName: __RNvXs2u_NtNtCsATtFUPiRFW_3syn3gen5debugNtNtBa_4item10ItemStructNtNtCs9f3LFPSIp77_4core3fmt5Debug3fmt, symObjAddr: 0x220E4, symBinAddr: 0x5016C, symSize: 0x4C }
  - { offset: 0xC1E50, size: 0x8, addend: 0x0, symName: __RNvXs2w_NtNtCsATtFUPiRFW_3syn3gen5debugNtNtBa_4item9ItemTraitNtNtCs9f3LFPSIp77_4core3fmt5Debug3fmt, symObjAddr: 0x222AC, symBinAddr: 0x50334, symSize: 0x4C }
  - { offset: 0xC1E93, size: 0x8, addend: 0x0, symName: __RNvXs2y_NtNtCsATtFUPiRFW_3syn3gen5debugNtNtBa_4item14ItemTraitAliasNtNtCs9f3LFPSIp77_4core3fmt5Debug3fmt, symObjAddr: 0x2252C, symBinAddr: 0x505B4, symSize: 0x4C }
  - { offset: 0xC1ED6, size: 0x8, addend: 0x0, symName: __RNvXs2A_NtNtCsATtFUPiRFW_3syn3gen5debugNtNtBa_4item8ItemTypeNtNtCs9f3LFPSIp77_4core3fmt5Debug3fmt, symObjAddr: 0x2271C, symBinAddr: 0x507A4, symSize: 0x4C }
  - { offset: 0xC1F19, size: 0x8, addend: 0x0, symName: __RNvXs2C_NtNtCsATtFUPiRFW_3syn3gen5debugNtNtBa_4item9ItemUnionNtNtCs9f3LFPSIp77_4core3fmt5Debug3fmt, symObjAddr: 0x2290C, symBinAddr: 0x50994, symSize: 0x4C }
  - { offset: 0xC1F5C, size: 0x8, addend: 0x0, symName: __RNvXs2E_NtNtCsATtFUPiRFW_3syn3gen5debugNtNtBa_4item7ItemUseNtNtCs9f3LFPSIp77_4core3fmt5Debug3fmt, symObjAddr: 0x22AAC, symBinAddr: 0x50B34, symSize: 0x4C }
  - { offset: 0xC1F9F, size: 0x8, addend: 0x0, symName: __RNvXs3v_NtNtCsATtFUPiRFW_3syn3gen5debugNtNtBa_4item8ReceiverNtNtCs9f3LFPSIp77_4core3fmt5Debug3fmt, symObjAddr: 0x22C4C, symBinAddr: 0x50CD4, symSize: 0x150 }
  - { offset: 0xC2000, size: 0x8, addend: 0x0, symName: __RNvXs3x_NtNtCsATtFUPiRFW_3syn3gen5debugNtNtBa_4item9SignatureNtNtCs9f3LFPSIp77_4core3fmt5Debug3fmt, symObjAddr: 0x22D9C, symBinAddr: 0x50E24, symSize: 0x20C }
  - { offset: 0xC2061, size: 0x8, addend: 0x0, symName: __RNvXs3y_NtNtCsATtFUPiRFW_3syn3gen5debugNtNtBa_4item16StaticMutabilityNtNtCs9f3LFPSIp77_4core3fmt5Debug3fmt, symObjAddr: 0x22FA8, symBinAddr: 0x51030, symSize: 0x148 }
  - { offset: 0xC20FD, size: 0x8, addend: 0x0, symName: __RNvXs3E_NtNtCsATtFUPiRFW_3syn3gen5debugNtNtBa_4item9TraitItemNtNtCs9f3LFPSIp77_4core3fmt5Debug3fmt, symObjAddr: 0x230F0, symBinAddr: 0x51178, symSize: 0x268 }
  - { offset: 0xC2209, size: 0x8, addend: 0x0, symName: __RNvXs3F_NtNtCsATtFUPiRFW_3syn3gen5debugNtNtBa_4item14TraitItemConstNtNtCs9f3LFPSIp77_4core3fmt5Debug3fmt, symObjAddr: 0x23358, symBinAddr: 0x513E0, symSize: 0x4C }
  - { offset: 0xC224C, size: 0x8, addend: 0x0, symName: __RNvXs3H_NtNtCsATtFUPiRFW_3syn3gen5debugNtNtBa_4item11TraitItemFnNtNtCs9f3LFPSIp77_4core3fmt5Debug3fmt, symObjAddr: 0x23548, symBinAddr: 0x515D0, symSize: 0x4C }
  - { offset: 0xC228F, size: 0x8, addend: 0x0, symName: __RNvXs3J_NtNtCsATtFUPiRFW_3syn3gen5debugNtNtBa_4item14TraitItemMacroNtNtCs9f3LFPSIp77_4core3fmt5Debug3fmt, symObjAddr: 0x23698, symBinAddr: 0x51720, symSize: 0x4C }
  - { offset: 0xC22D2, size: 0x8, addend: 0x0, symName: __RNvXs3L_NtNtCsATtFUPiRFW_3syn3gen5debugNtNtBa_4item13TraitItemTypeNtNtCs9f3LFPSIp77_4core3fmt5Debug3fmt, symObjAddr: 0x237C0, symBinAddr: 0x51848, symSize: 0x4C }
  - { offset: 0xC2315, size: 0x8, addend: 0x0, symName: __RNvXs4j_NtNtCsATtFUPiRFW_3syn3gen5debugNtNtBa_4item7UseGlobNtNtCs9f3LFPSIp77_4core3fmt5Debug3fmt, symObjAddr: 0x239B0, symBinAddr: 0x51A38, symSize: 0x88 }
  - { offset: 0xC2376, size: 0x8, addend: 0x0, symName: __RNvXs4k_NtNtCsATtFUPiRFW_3syn3gen5debugNtNtBa_4item8UseGroupNtNtCs9f3LFPSIp77_4core3fmt5Debug3fmt, symObjAddr: 0x23A38, symBinAddr: 0x51AC0, symSize: 0xB0 }
  - { offset: 0xC23D7, size: 0x8, addend: 0x0, symName: __RNvXs4l_NtNtCsATtFUPiRFW_3syn3gen5debugNtNtBa_4item7UseNameNtNtCs9f3LFPSIp77_4core3fmt5Debug3fmt, symObjAddr: 0x23AE8, symBinAddr: 0x51B70, symSize: 0x88 }
  - { offset: 0xC2438, size: 0x8, addend: 0x0, symName: __RNvXs4m_NtNtCsATtFUPiRFW_3syn3gen5debugNtNtBa_4item7UsePathNtNtCs9f3LFPSIp77_4core3fmt5Debug3fmt, symObjAddr: 0x23B70, symBinAddr: 0x51BF8, symSize: 0xD8 }
  - { offset: 0xC2499, size: 0x8, addend: 0x0, symName: __RNvXs4n_NtNtCsATtFUPiRFW_3syn3gen5debugNtNtBa_4item9UseRenameNtNtCs9f3LFPSIp77_4core3fmt5Debug3fmt, symObjAddr: 0x23C48, symBinAddr: 0x51CD0, symSize: 0xD8 }
  - { offset: 0xC24FA, size: 0x8, addend: 0x0, symName: __RNvXs4o_NtNtCsATtFUPiRFW_3syn3gen5debugNtNtBa_4item7UseTreeNtNtCs9f3LFPSIp77_4core3fmt5Debug3fmt, symObjAddr: 0x23D20, symBinAddr: 0x51DA8, symSize: 0x310 }
  - { offset: 0xC2685, size: 0x8, addend: 0x0, symName: __RNvXs4p_NtNtCsATtFUPiRFW_3syn3gen5debugNtNtBa_4item8VariadicNtNtCs9f3LFPSIp77_4core3fmt5Debug3fmt, symObjAddr: 0x24030, symBinAddr: 0x520B8, symSize: 0x100 }
  - { offset: 0xC26EC, size: 0x8, addend: 0x0, symName: __RNvXs2b_NtNtCsATtFUPiRFW_3syn3gen2eqNtNtBa_4item5FnArgNtNtCs9f3LFPSIp77_4core3cmp9PartialEq2eq, symObjAddr: 0x24130, symBinAddr: 0x521B8, symSize: 0x170 }
  - { offset: 0xC278B, size: 0x8, addend: 0x0, symName: __RNvXs2d_NtNtCsATtFUPiRFW_3syn3gen2eqNtNtBa_4item11ForeignItemNtNtCs9f3LFPSIp77_4core3cmp9PartialEq2eq, symObjAddr: 0x242A0, symBinAddr: 0x52328, symSize: 0x368 }
  - { offset: 0xC28B6, size: 0x8, addend: 0x0, symName: __RNvXs2f_NtNtCsATtFUPiRFW_3syn3gen2eqNtNtBa_4item13ForeignItemFnNtNtCs9f3LFPSIp77_4core3cmp9PartialEq2eq, symObjAddr: 0x24608, symBinAddr: 0x52690, symSize: 0xCC }
  - { offset: 0xC28F9, size: 0x8, addend: 0x0, symName: __RNvXs2h_NtNtCsATtFUPiRFW_3syn3gen2eqNtNtBa_4item16ForeignItemMacroNtNtCs9f3LFPSIp77_4core3cmp9PartialEq2eq, symObjAddr: 0x246D4, symBinAddr: 0x5275C, symSize: 0xCC }
  - { offset: 0xC293C, size: 0x8, addend: 0x0, symName: __RNvXs2j_NtNtCsATtFUPiRFW_3syn3gen2eqNtNtBa_4item17ForeignItemStaticNtNtCs9f3LFPSIp77_4core3cmp9PartialEq2eq, symObjAddr: 0x247A0, symBinAddr: 0x52828, symSize: 0x134 }
  - { offset: 0xC297F, size: 0x8, addend: 0x0, symName: __RNvXs2l_NtNtCsATtFUPiRFW_3syn3gen2eqNtNtBa_4item15ForeignItemTypeNtNtCs9f3LFPSIp77_4core3cmp9PartialEq2eq, symObjAddr: 0x248D4, symBinAddr: 0x5295C, symSize: 0x100 }
  - { offset: 0xC29C2, size: 0x8, addend: 0x0, symName: __RNvXs2t_NtNtCsATtFUPiRFW_3syn3gen2eqNtNtBa_4item8ImplItemNtNtCs9f3LFPSIp77_4core3cmp9PartialEq2eq, symObjAddr: 0x249D4, symBinAddr: 0x52A5C, symSize: 0x368 }
  - { offset: 0xC2AED, size: 0x8, addend: 0x0, symName: __RNvXs2v_NtNtCsATtFUPiRFW_3syn3gen2eqNtNtBa_4item13ImplItemConstNtNtCs9f3LFPSIp77_4core3cmp9PartialEq2eq, symObjAddr: 0x24D3C, symBinAddr: 0x52DC4, symSize: 0x19C }
  - { offset: 0xC2B30, size: 0x8, addend: 0x0, symName: __RNvXs2x_NtNtCsATtFUPiRFW_3syn3gen2eqNtNtBa_4item10ImplItemFnNtNtCs9f3LFPSIp77_4core3cmp9PartialEq2eq, symObjAddr: 0x24ED8, symBinAddr: 0x52F60, symSize: 0x134 }
  - { offset: 0xC2B73, size: 0x8, addend: 0x0, symName: __RNvXs2z_NtNtCsATtFUPiRFW_3syn3gen2eqNtNtBa_4item13ImplItemMacroNtNtCs9f3LFPSIp77_4core3cmp9PartialEq2eq, symObjAddr: 0x2500C, symBinAddr: 0x53094, symSize: 0xCC }
  - { offset: 0xC2BB6, size: 0x8, addend: 0x0, symName: __RNvXs2B_NtNtCsATtFUPiRFW_3syn3gen2eqNtNtBa_4item12ImplItemTypeNtNtCs9f3LFPSIp77_4core3cmp9PartialEq2eq, symObjAddr: 0x250D8, symBinAddr: 0x53160, symSize: 0x168 }
  - { offset: 0xC2BF9, size: 0x8, addend: 0x0, symName: __RNvXs2D_NtNtCsATtFUPiRFW_3syn3gen2eqNtNtBa_4item15ImplRestrictionNtNtCs9f3LFPSIp77_4core3cmp9PartialEq2eq, symObjAddr: 0x25240, symBinAddr: 0x532C8, symSize: 0x10 }
  - { offset: 0xC2C3C, size: 0x8, addend: 0x0, symName: __RNvXs2F_NtNtCsATtFUPiRFW_3syn3gen2eqNtNtBa_4item4ItemNtNtCs9f3LFPSIp77_4core3cmp9PartialEq2eq, symObjAddr: 0x25250, symBinAddr: 0x532D8, symSize: 0x9B0 }
  - { offset: 0xC2F7B, size: 0x8, addend: 0x0, symName: __RNvXs2H_NtNtCsATtFUPiRFW_3syn3gen2eqNtNtBa_4item9ItemConstNtNtCs9f3LFPSIp77_4core3cmp9PartialEq2eq, symObjAddr: 0x25C00, symBinAddr: 0x53C88, symSize: 0x168 }
  - { offset: 0xC2FBE, size: 0x8, addend: 0x0, symName: __RNvXs2J_NtNtCsATtFUPiRFW_3syn3gen2eqNtNtBa_4item8ItemEnumNtNtCs9f3LFPSIp77_4core3cmp9PartialEq2eq, symObjAddr: 0x25D68, symBinAddr: 0x53DF0, symSize: 0x134 }
  - { offset: 0xC3001, size: 0x8, addend: 0x0, symName: __RNvXs2L_NtNtCsATtFUPiRFW_3syn3gen2eqNtNtBa_4item15ItemExternCrateNtNtCs9f3LFPSIp77_4core3cmp9PartialEq2eq, symObjAddr: 0x25E9C, symBinAddr: 0x53F24, symSize: 0x100 }
  - { offset: 0xC3044, size: 0x8, addend: 0x0, symName: __RNvXs2N_NtNtCsATtFUPiRFW_3syn3gen2eqNtNtBa_4item6ItemFnNtNtCs9f3LFPSIp77_4core3cmp9PartialEq2eq, symObjAddr: 0x25F9C, symBinAddr: 0x54024, symSize: 0x100 }
  - { offset: 0xC3087, size: 0x8, addend: 0x0, symName: __RNvXs2P_NtNtCsATtFUPiRFW_3syn3gen2eqNtNtBa_4item14ItemForeignModNtNtCs9f3LFPSIp77_4core3cmp9PartialEq2eq, symObjAddr: 0x2609C, symBinAddr: 0x54124, symSize: 0x100 }
  - { offset: 0xC30CA, size: 0x8, addend: 0x0, symName: __RNvXs2R_NtNtCsATtFUPiRFW_3syn3gen2eqNtNtBa_4item8ItemImplNtNtCs9f3LFPSIp77_4core3cmp9PartialEq2eq, symObjAddr: 0x2619C, symBinAddr: 0x54224, symSize: 0x19C }
  - { offset: 0xC310D, size: 0x8, addend: 0x0, symName: __RNvXs2T_NtNtCsATtFUPiRFW_3syn3gen2eqNtNtBa_4item9ItemMacroNtNtCs9f3LFPSIp77_4core3cmp9PartialEq2eq, symObjAddr: 0x26338, symBinAddr: 0x543C0, symSize: 0x100 }
  - { offset: 0xC3150, size: 0x8, addend: 0x0, symName: __RNvXs2V_NtNtCsATtFUPiRFW_3syn3gen2eqNtNtBa_4item7ItemModNtNtCs9f3LFPSIp77_4core3cmp9PartialEq2eq, symObjAddr: 0x26438, symBinAddr: 0x544C0, symSize: 0x168 }
  - { offset: 0xC3193, size: 0x8, addend: 0x0, symName: __RNvXs2X_NtNtCsATtFUPiRFW_3syn3gen2eqNtNtBa_4item10ItemStaticNtNtCs9f3LFPSIp77_4core3cmp9PartialEq2eq, symObjAddr: 0x265A0, symBinAddr: 0x54628, symSize: 0x168 }
  - { offset: 0xC31D6, size: 0x8, addend: 0x0, symName: __RNvXs2Z_NtNtCsATtFUPiRFW_3syn3gen2eqNtNtBa_4item10ItemStructNtNtCs9f3LFPSIp77_4core3cmp9PartialEq2eq, symObjAddr: 0x26708, symBinAddr: 0x54790, symSize: 0x168 }
  - { offset: 0xC3219, size: 0x8, addend: 0x0, symName: __RNvXs31_NtNtCsATtFUPiRFW_3syn3gen2eqNtNtBa_4item9ItemTraitNtNtCs9f3LFPSIp77_4core3cmp9PartialEq2eq, symObjAddr: 0x26870, symBinAddr: 0x548F8, symSize: 0x238 }
  - { offset: 0xC325C, size: 0x8, addend: 0x0, symName: __RNvXs33_NtNtCsATtFUPiRFW_3syn3gen2eqNtNtBa_4item14ItemTraitAliasNtNtCs9f3LFPSIp77_4core3cmp9PartialEq2eq, symObjAddr: 0x26AA8, symBinAddr: 0x54B30, symSize: 0x134 }
  - { offset: 0xC329F, size: 0x8, addend: 0x0, symName: __RNvXs35_NtNtCsATtFUPiRFW_3syn3gen2eqNtNtBa_4item8ItemTypeNtNtCs9f3LFPSIp77_4core3cmp9PartialEq2eq, symObjAddr: 0x26BDC, symBinAddr: 0x54C64, symSize: 0x134 }
  - { offset: 0xC32E2, size: 0x8, addend: 0x0, symName: __RNvXs37_NtNtCsATtFUPiRFW_3syn3gen2eqNtNtBa_4item9ItemUnionNtNtCs9f3LFPSIp77_4core3cmp9PartialEq2eq, symObjAddr: 0x26D10, symBinAddr: 0x54D98, symSize: 0x134 }
  - { offset: 0xC3325, size: 0x8, addend: 0x0, symName: __RNvXs39_NtNtCsATtFUPiRFW_3syn3gen2eqNtNtBa_4item7ItemUseNtNtCs9f3LFPSIp77_4core3cmp9PartialEq2eq, symObjAddr: 0x26E44, symBinAddr: 0x54ECC, symSize: 0x100 }
  - { offset: 0xC3368, size: 0x8, addend: 0x0, symName: __RNvXs4m_NtNtCsATtFUPiRFW_3syn3gen2eqNtNtBa_4item8ReceiverNtNtCs9f3LFPSIp77_4core3cmp9PartialEq2eq, symObjAddr: 0x26F44, symBinAddr: 0x54FCC, symSize: 0x134 }
  - { offset: 0xC33AB, size: 0x8, addend: 0x0, symName: __RNvXs4q_NtNtCsATtFUPiRFW_3syn3gen2eqNtNtBa_4item9SignatureNtNtCs9f3LFPSIp77_4core3cmp9PartialEq2eq, symObjAddr: 0x27078, symBinAddr: 0x55100, symSize: 0x204 }
  - { offset: 0xC33EE, size: 0x8, addend: 0x0, symName: __RNvXs4s_NtNtCsATtFUPiRFW_3syn3gen2eqNtNtBa_4item16StaticMutabilityNtNtCs9f3LFPSIp77_4core3cmp9PartialEq2eq, symObjAddr: 0x2727C, symBinAddr: 0x55304, symSize: 0xFC }
  - { offset: 0xC3431, size: 0x8, addend: 0x0, symName: __RNvXs4C_NtNtCsATtFUPiRFW_3syn3gen2eqNtNtBa_4item9TraitItemNtNtCs9f3LFPSIp77_4core3cmp9PartialEq2eq, symObjAddr: 0x27378, symBinAddr: 0x55400, symSize: 0x368 }
  - { offset: 0xC355C, size: 0x8, addend: 0x0, symName: __RNvXs4E_NtNtCsATtFUPiRFW_3syn3gen2eqNtNtBa_4item14TraitItemConstNtNtCs9f3LFPSIp77_4core3cmp9PartialEq2eq, symObjAddr: 0x276E0, symBinAddr: 0x55768, symSize: 0x134 }
  - { offset: 0xC359F, size: 0x8, addend: 0x0, symName: __RNvXs4G_NtNtCsATtFUPiRFW_3syn3gen2eqNtNtBa_4item11TraitItemFnNtNtCs9f3LFPSIp77_4core3cmp9PartialEq2eq, symObjAddr: 0x27814, symBinAddr: 0x5589C, symSize: 0x100 }
  - { offset: 0xC35E2, size: 0x8, addend: 0x0, symName: __RNvXs4I_NtNtCsATtFUPiRFW_3syn3gen2eqNtNtBa_4item14TraitItemMacroNtNtCs9f3LFPSIp77_4core3cmp9PartialEq2eq, symObjAddr: 0x27914, symBinAddr: 0x5599C, symSize: 0xCC }
  - { offset: 0xC3625, size: 0x8, addend: 0x0, symName: __RNvXs4K_NtNtCsATtFUPiRFW_3syn3gen2eqNtNtBa_4item13TraitItemTypeNtNtCs9f3LFPSIp77_4core3cmp9PartialEq2eq, symObjAddr: 0x279E0, symBinAddr: 0x55A68, symSize: 0x168 }
  - { offset: 0xC3668, size: 0x8, addend: 0x0, symName: __RNvXs5m_NtNtCsATtFUPiRFW_3syn3gen2eqNtNtBa_4item7UseGlobNtNtCs9f3LFPSIp77_4core3cmp9PartialEq2eq, symObjAddr: 0x27B48, symBinAddr: 0x55BD0, symSize: 0x2C }
  - { offset: 0xC36AB, size: 0x8, addend: 0x0, symName: __RNvXs5o_NtNtCsATtFUPiRFW_3syn3gen2eqNtNtBa_4item8UseGroupNtNtCs9f3LFPSIp77_4core3cmp9PartialEq2eq, symObjAddr: 0x27B74, symBinAddr: 0x55BFC, symSize: 0x3C }
  - { offset: 0xC36EE, size: 0x8, addend: 0x0, symName: __RNvXs5q_NtNtCsATtFUPiRFW_3syn3gen2eqNtNtBa_4item7UseNameNtNtCs9f3LFPSIp77_4core3cmp9PartialEq2eq, symObjAddr: 0x27BB0, symBinAddr: 0x55C38, symSize: 0x3C }
  - { offset: 0xC3731, size: 0x8, addend: 0x0, symName: __RNvXs5s_NtNtCsATtFUPiRFW_3syn3gen2eqNtNtBa_4item7UsePathNtNtCs9f3LFPSIp77_4core3cmp9PartialEq2eq, symObjAddr: 0x27BEC, symBinAddr: 0x55C74, symSize: 0x8C }
  - { offset: 0xC3774, size: 0x8, addend: 0x0, symName: __RNvXs5u_NtNtCsATtFUPiRFW_3syn3gen2eqNtNtBa_4item9UseRenameNtNtCs9f3LFPSIp77_4core3cmp9PartialEq2eq, symObjAddr: 0x27C78, symBinAddr: 0x55D00, symSize: 0x84 }
  - { offset: 0xC37B7, size: 0x8, addend: 0x0, symName: __RNvXs5w_NtNtCsATtFUPiRFW_3syn3gen2eqNtNtBa_4item7UseTreeNtNtCs9f3LFPSIp77_4core3cmp9PartialEq2eq, symObjAddr: 0x27CFC, symBinAddr: 0x55D84, symSize: 0x300 }
  - { offset: 0xC38E1, size: 0x8, addend: 0x0, symName: __RNvXs5y_NtNtCsATtFUPiRFW_3syn3gen2eqNtNtBa_4item8VariadicNtNtCs9f3LFPSIp77_4core3cmp9PartialEq2eq, symObjAddr: 0x27FFC, symBinAddr: 0x56084, symSize: 0xCC }
  - { offset: 0xC4E12, size: 0x8, addend: 0x0, symName: __RINvXNtNtCsdze8u8oDPro_5alloc5slice4hackNtNtCsATtFUPiRFW_3syn4item11ForeignItemNtB3_10ConvertVec6to_vecNtNtB7_5alloc6GlobalEBG_, symObjAddr: 0x0, symBinAddr: 0x2E088, symSize: 0x2C0 }
  - { offset: 0xC5162, size: 0x8, addend: 0x0, symName: __RINvXNtNtCsdze8u8oDPro_5alloc5slice4hackNtNtCsATtFUPiRFW_3syn4item4ItemNtB3_10ConvertVec6to_vecNtNtB7_5alloc6GlobalEBG_, symObjAddr: 0x2C0, symBinAddr: 0x2E348, symSize: 0x2C0 }
  - { offset: 0xC54B2, size: 0x8, addend: 0x0, symName: __RINvXNtNtCsdze8u8oDPro_5alloc5slice4hackNtNtCsATtFUPiRFW_3syn4item8ImplItemNtB3_10ConvertVec6to_vecNtNtB7_5alloc6GlobalEBG_, symObjAddr: 0x580, symBinAddr: 0x2E608, symSize: 0x2C0 }
  - { offset: 0xC5802, size: 0x8, addend: 0x0, symName: __RINvXNtNtCsdze8u8oDPro_5alloc5slice4hackNtNtCsATtFUPiRFW_3syn4item9TraitItemNtB3_10ConvertVec6to_vecNtNtB7_5alloc6GlobalEBG_, symObjAddr: 0x840, symBinAddr: 0x2E8C8, symSize: 0x2C0 }
  - { offset: 0xC5B52, size: 0x8, addend: 0x0, symName: __RINvXNtNtCsdze8u8oDPro_5alloc5slice4hackTNtNtCsATtFUPiRFW_3syn4item5FnArgNtNtBH_5token5CommaENtB3_10ConvertVec6to_vecNtNtB7_5alloc6GlobalEBH_, symObjAddr: 0xB00, symBinAddr: 0x2EB88, symSize: 0x2BC }
  - { offset: 0xC5EA2, size: 0x8, addend: 0x0, symName: __RINvXNtNtCsdze8u8oDPro_5alloc5slice4hackTNtNtCsATtFUPiRFW_3syn4item7UseTreeNtNtBH_5token5CommaENtB3_10ConvertVec6to_vecNtNtB7_5alloc6GlobalEBH_, symObjAddr: 0xDBC, symBinAddr: 0x2EE44, symSize: 0x2BC }
  - { offset: 0xC9A26, size: 0x8, addend: 0x0, symName: __RNvXsP_NtCs9f3LFPSIp77_4core3fmtRNtNtCsATtFUPiRFW_3syn4item11ForeignItemNtB5_5Debug3fmtBz_, symObjAddr: 0x2370, symBinAddr: 0x303F8, symSize: 0x30 }
  - { offset: 0xC9A6C, size: 0x8, addend: 0x0, symName: __RNvXsP_NtCs9f3LFPSIp77_4core3fmtRNtNtCsATtFUPiRFW_3syn4item15ImplRestrictionNtB5_5Debug3fmtBz_, symObjAddr: 0x23A0, symBinAddr: 0x30428, symSize: 0x30 }
  - { offset: 0xC9AB2, size: 0x8, addend: 0x0, symName: __RNvXsP_NtCs9f3LFPSIp77_4core3fmtRNtNtCsATtFUPiRFW_3syn4item4ItemNtB5_5Debug3fmtBz_, symObjAddr: 0x23D0, symBinAddr: 0x30458, symSize: 0x30 }
  - { offset: 0xC9AF8, size: 0x8, addend: 0x0, symName: __RNvXsP_NtCs9f3LFPSIp77_4core3fmtRNtNtCsATtFUPiRFW_3syn4item8ImplItemNtB5_5Debug3fmtBz_, symObjAddr: 0x2400, symBinAddr: 0x30488, symSize: 0x30 }
  - { offset: 0xC9B3E, size: 0x8, addend: 0x0, symName: __RNvXsP_NtCs9f3LFPSIp77_4core3fmtRNtNtCsATtFUPiRFW_3syn4item8VariadicNtB5_5Debug3fmtBz_, symObjAddr: 0x2430, symBinAddr: 0x304B8, symSize: 0x30 }
  - { offset: 0xC9B84, size: 0x8, addend: 0x0, symName: __RNvXsP_NtCs9f3LFPSIp77_4core3fmtRNtNtCsATtFUPiRFW_3syn4item9TraitItemNtB5_5Debug3fmtBz_, symObjAddr: 0x2460, symBinAddr: 0x304E8, symSize: 0x30 }
  - { offset: 0xC9BD0, size: 0x8, addend: 0x0, symName: __RNvXso_NtCs9f3LFPSIp77_4core3fmtSNtNtCsATtFUPiRFW_3syn4item11ForeignItemNtB5_5Debug3fmtBz_, symObjAddr: 0x2490, symBinAddr: 0x30518, symSize: 0x90 }
  - { offset: 0xC9D10, size: 0x8, addend: 0x0, symName: __RNvXso_NtCs9f3LFPSIp77_4core3fmtSNtNtCsATtFUPiRFW_3syn4item4ItemNtB5_5Debug3fmtBz_, symObjAddr: 0x2520, symBinAddr: 0x305A8, symSize: 0x90 }
  - { offset: 0xC9E50, size: 0x8, addend: 0x0, symName: __RNvXso_NtCs9f3LFPSIp77_4core3fmtSNtNtCsATtFUPiRFW_3syn4item8ImplItemNtB5_5Debug3fmtBz_, symObjAddr: 0x25B0, symBinAddr: 0x30638, symSize: 0x90 }
  - { offset: 0xC9F90, size: 0x8, addend: 0x0, symName: __RNvXso_NtCs9f3LFPSIp77_4core3fmtSNtNtCsATtFUPiRFW_3syn4item9TraitItemNtB5_5Debug3fmtBz_, symObjAddr: 0x2640, symBinAddr: 0x306C8, symSize: 0x90 }
  - { offset: 0xCA489, size: 0x8, addend: 0x0, symName: __RNvMNtCs9f3LFPSIp77_4core5sliceSTNtNtCsATtFUPiRFW_3syn4item5FnArgNtNtBz_5token5CommaE4iterBz_, symObjAddr: 0x1078, symBinAddr: 0x2F100, symSize: 0x28 }
  - { offset: 0xCA4C0, size: 0x8, addend: 0x0, symName: __RNvMNtCs9f3LFPSIp77_4core5sliceSTNtNtCsATtFUPiRFW_3syn4item7UseTreeNtNtBz_5token5CommaE4iterBz_, symObjAddr: 0x10A0, symBinAddr: 0x2F128, symSize: 0x28 }
  - { offset: 0xCA59E, size: 0x8, addend: 0x0, symName: __RNvXs2_NtNtCs9f3LFPSIp77_4core5slice3cmpSNtNtCsATtFUPiRFW_3syn4item11ForeignItemINtB5_14SlicePartialEqBD_E5equalBH_, symObjAddr: 0x12D8, symBinAddr: 0x2F360, symSize: 0x17C }
  - { offset: 0xCA67E, size: 0x8, addend: 0x0, symName: __RNvXs2_NtNtCs9f3LFPSIp77_4core5slice3cmpSNtNtCsATtFUPiRFW_3syn4item4ItemINtB5_14SlicePartialEqBD_E5equalBH_, symObjAddr: 0x1454, symBinAddr: 0x2F4DC, symSize: 0x17C }
  - { offset: 0xCA75E, size: 0x8, addend: 0x0, symName: __RNvXs2_NtNtCs9f3LFPSIp77_4core5slice3cmpSNtNtCsATtFUPiRFW_3syn4item8ImplItemINtB5_14SlicePartialEqBD_E5equalBH_, symObjAddr: 0x15D0, symBinAddr: 0x2F658, symSize: 0x17C }
  - { offset: 0xCA83E, size: 0x8, addend: 0x0, symName: __RNvXs2_NtNtCs9f3LFPSIp77_4core5slice3cmpSNtNtCsATtFUPiRFW_3syn4item9TraitItemINtB5_14SlicePartialEqBD_E5equalBH_, symObjAddr: 0x174C, symBinAddr: 0x2F7D4, symSize: 0x17C }
  - { offset: 0xCA91E, size: 0x8, addend: 0x0, symName: __RNvXs2_NtNtCs9f3LFPSIp77_4core5slice3cmpSTNtNtCsATtFUPiRFW_3syn4item5FnArgNtNtBI_5token5CommaEINtB5_14SlicePartialEqBD_E5equalBI_, symObjAddr: 0x18C8, symBinAddr: 0x2F950, symSize: 0x17C }
  - { offset: 0xCA9FE, size: 0x8, addend: 0x0, symName: __RNvXs2_NtNtCs9f3LFPSIp77_4core5slice3cmpSTNtNtCsATtFUPiRFW_3syn4item7UseTreeNtNtBI_5token5CommaEINtB5_14SlicePartialEqBD_E5equalBI_, symObjAddr: 0x1A44, symBinAddr: 0x2FACC, symSize: 0x17C }
  - { offset: 0xCB7D6, size: 0x8, addend: 0x0, symName: __RNvXNtNtCs9f3LFPSIp77_4core5clone6uninitNtNtCsATtFUPiRFW_3syn4item5FnArgNtB2_8CopySpec9clone_oneBG_, symObjAddr: 0x1248, symBinAddr: 0x2F2D0, symSize: 0x48 }
  - { offset: 0xCB83A, size: 0x8, addend: 0x0, symName: __RNvXNtNtCs9f3LFPSIp77_4core5clone6uninitNtNtCsATtFUPiRFW_3syn4item7UseTreeNtB2_8CopySpec9clone_oneBG_, symObjAddr: 0x1290, symBinAddr: 0x2F318, symSize: 0x48 }
  - { offset: 0xCB8A5, size: 0x8, addend: 0x0, symName: __RNvYNtNtCsATtFUPiRFW_3syn4item10ImplItemFnNtNtCs9f3LFPSIp77_4core5clone5Clone10clone_fromB6_, symObjAddr: 0x2800, symBinAddr: 0x30888, symSize: 0x8C }
  - { offset: 0xCB8E4, size: 0x8, addend: 0x0, symName: __RNvYNtNtCsATtFUPiRFW_3syn4item10ItemStaticNtNtCs9f3LFPSIp77_4core5clone5Clone10clone_fromB6_, symObjAddr: 0x29BC, symBinAddr: 0x30A44, symSize: 0x84 }
  - { offset: 0xCB923, size: 0x8, addend: 0x0, symName: __RNvYNtNtCsATtFUPiRFW_3syn4item10ItemStructNtNtCs9f3LFPSIp77_4core5clone5Clone10clone_fromB6_, symObjAddr: 0x2B70, symBinAddr: 0x30BF8, symSize: 0x8C }
  - { offset: 0xCB962, size: 0x8, addend: 0x0, symName: __RNvYNtNtCsATtFUPiRFW_3syn4item11ForeignItemNtNtCs9f3LFPSIp77_4core5clone5Clone10clone_fromB6_, symObjAddr: 0x2D2C, symBinAddr: 0x30DB4, symSize: 0x8C }
  - { offset: 0xCB9A1, size: 0x8, addend: 0x0, symName: __RNvYNtNtCsATtFUPiRFW_3syn4item11TraitItemFnNtNtCs9f3LFPSIp77_4core5clone5Clone10clone_fromB6_, symObjAddr: 0x2EE8, symBinAddr: 0x30F70, symSize: 0x8C }
  - { offset: 0xCB9E0, size: 0x8, addend: 0x0, symName: __RNvYNtNtCsATtFUPiRFW_3syn4item12ImplItemTypeNtNtCs9f3LFPSIp77_4core5clone5Clone10clone_fromB6_, symObjAddr: 0x30A4, symBinAddr: 0x3112C, symSize: 0x8C }
  - { offset: 0xCBA1F, size: 0x8, addend: 0x0, symName: __RNvYNtNtCsATtFUPiRFW_3syn4item13ForeignItemFnNtNtCs9f3LFPSIp77_4core5clone5Clone10clone_fromB6_, symObjAddr: 0x3260, symBinAddr: 0x312E8, symSize: 0x8C }
  - { offset: 0xCBA5E, size: 0x8, addend: 0x0, symName: __RNvYNtNtCsATtFUPiRFW_3syn4item13ImplItemConstNtNtCs9f3LFPSIp77_4core5clone5Clone10clone_fromB6_, symObjAddr: 0x341C, symBinAddr: 0x314A4, symSize: 0x8C }
  - { offset: 0xCBA9D, size: 0x8, addend: 0x0, symName: __RNvYNtNtCsATtFUPiRFW_3syn4item13ImplItemMacroNtNtCs9f3LFPSIp77_4core5clone5Clone10clone_fromB6_, symObjAddr: 0x35D8, symBinAddr: 0x31660, symSize: 0x84 }
  - { offset: 0xCBADC, size: 0x8, addend: 0x0, symName: __RNvYNtNtCsATtFUPiRFW_3syn4item13TraitItemTypeNtNtCs9f3LFPSIp77_4core5clone5Clone10clone_fromB6_, symObjAddr: 0x378C, symBinAddr: 0x31814, symSize: 0x8C }
  - { offset: 0xCBB1B, size: 0x8, addend: 0x0, symName: __RNvYNtNtCsATtFUPiRFW_3syn4item14ItemForeignModNtNtCs9f3LFPSIp77_4core5clone5Clone10clone_fromB6_, symObjAddr: 0x3948, symBinAddr: 0x319D0, symSize: 0x84 }
  - { offset: 0xCBB5A, size: 0x8, addend: 0x0, symName: __RNvYNtNtCsATtFUPiRFW_3syn4item14ItemTraitAliasNtNtCs9f3LFPSIp77_4core5clone5Clone10clone_fromB6_, symObjAddr: 0x3AFC, symBinAddr: 0x31B84, symSize: 0x8C }
  - { offset: 0xCBB99, size: 0x8, addend: 0x0, symName: __RNvYNtNtCsATtFUPiRFW_3syn4item14TraitItemConstNtNtCs9f3LFPSIp77_4core5clone5Clone10clone_fromB6_, symObjAddr: 0x3CB8, symBinAddr: 0x31D40, symSize: 0x8C }
  - { offset: 0xCBBD8, size: 0x8, addend: 0x0, symName: __RNvYNtNtCsATtFUPiRFW_3syn4item14TraitItemMacroNtNtCs9f3LFPSIp77_4core5clone5Clone10clone_fromB6_, symObjAddr: 0x3E74, symBinAddr: 0x31EFC, symSize: 0x84 }
  - { offset: 0xCBC17, size: 0x8, addend: 0x0, symName: __RNvYNtNtCsATtFUPiRFW_3syn4item15ForeignItemTypeNtNtCs9f3LFPSIp77_4core5clone5Clone10clone_fromB6_, symObjAddr: 0x4028, symBinAddr: 0x320B0, symSize: 0x84 }
  - { offset: 0xCBC56, size: 0x8, addend: 0x0, symName: __RNvYNtNtCsATtFUPiRFW_3syn4item15ImplRestrictionNtNtCs9f3LFPSIp77_4core5clone5Clone10clone_fromB6_, symObjAddr: 0x40EC, symBinAddr: 0x32174, symSize: 0x34 }
  - { offset: 0xCBC95, size: 0x8, addend: 0x0, symName: __RNvYNtNtCsATtFUPiRFW_3syn4item15ItemExternCrateNtNtCs9f3LFPSIp77_4core5clone5Clone10clone_fromB6_, symObjAddr: 0x4250, symBinAddr: 0x322D8, symSize: 0x84 }
  - { offset: 0xCBCD4, size: 0x8, addend: 0x0, symName: __RNvYNtNtCsATtFUPiRFW_3syn4item16ForeignItemMacroNtNtCs9f3LFPSIp77_4core5clone5Clone10clone_fromB6_, symObjAddr: 0x4404, symBinAddr: 0x3248C, symSize: 0x84 }
  - { offset: 0xCBD13, size: 0x8, addend: 0x0, symName: __RNvYNtNtCsATtFUPiRFW_3syn4item16StaticMutabilityNtNtCs9f3LFPSIp77_4core5clone5Clone10clone_fromB6_, symObjAddr: 0x45AC, symBinAddr: 0x32634, symSize: 0x54 }
  - { offset: 0xCBD52, size: 0x8, addend: 0x0, symName: __RNvYNtNtCsATtFUPiRFW_3syn4item17ForeignItemStaticNtNtCs9f3LFPSIp77_4core5clone5Clone10clone_fromB6_, symObjAddr: 0x4730, symBinAddr: 0x327B8, symSize: 0x84 }
  - { offset: 0xCBD91, size: 0x8, addend: 0x0, symName: __RNvYNtNtCsATtFUPiRFW_3syn4item4ItemNtNtCs9f3LFPSIp77_4core5clone5Clone10clone_fromB6_, symObjAddr: 0x48E4, symBinAddr: 0x3296C, symSize: 0x8C }
  - { offset: 0xCBDD0, size: 0x8, addend: 0x0, symName: __RNvYNtNtCsATtFUPiRFW_3syn4item5FnArgNtNtCs9f3LFPSIp77_4core5clone5Clone10clone_fromB6_, symObjAddr: 0x4AA0, symBinAddr: 0x32B28, symSize: 0x84 }
  - { offset: 0xCBE0F, size: 0x8, addend: 0x0, symName: __RNvYNtNtCsATtFUPiRFW_3syn4item6ItemFnNtNtCs9f3LFPSIp77_4core5clone5Clone10clone_fromB6_, symObjAddr: 0x4C54, symBinAddr: 0x32CDC, symSize: 0x8C }
  - { offset: 0xCBE4E, size: 0x8, addend: 0x0, symName: __RNvYNtNtCsATtFUPiRFW_3syn4item7ItemModNtNtCs9f3LFPSIp77_4core5clone5Clone10clone_fromB6_, symObjAddr: 0x4E10, symBinAddr: 0x32E98, symSize: 0x84 }
  - { offset: 0xCBE8D, size: 0x8, addend: 0x0, symName: __RNvYNtNtCsATtFUPiRFW_3syn4item7ItemUseNtNtCs9f3LFPSIp77_4core5clone5Clone10clone_fromB6_, symObjAddr: 0x4FC4, symBinAddr: 0x3304C, symSize: 0x84 }
  - { offset: 0xCBECC, size: 0x8, addend: 0x0, symName: __RNvYNtNtCsATtFUPiRFW_3syn4item7UseGlobNtNtCs9f3LFPSIp77_4core5clone5Clone10clone_fromB6_, symObjAddr: 0x516C, symBinAddr: 0x331F4, symSize: 0x50 }
  - { offset: 0xCBF0B, size: 0x8, addend: 0x0, symName: __RNvYNtNtCsATtFUPiRFW_3syn4item7UseNameNtNtCs9f3LFPSIp77_4core5clone5Clone10clone_fromB6_, symObjAddr: 0x52EC, symBinAddr: 0x33374, symSize: 0x84 }
  - { offset: 0xCBF4A, size: 0x8, addend: 0x0, symName: __RNvYNtNtCsATtFUPiRFW_3syn4item7UsePathNtNtCs9f3LFPSIp77_4core5clone5Clone10clone_fromB6_, symObjAddr: 0x54A0, symBinAddr: 0x33528, symSize: 0x84 }
  - { offset: 0xCBF89, size: 0x8, addend: 0x0, symName: __RNvYNtNtCsATtFUPiRFW_3syn4item7UseTreeNtNtCs9f3LFPSIp77_4core5clone5Clone10clone_fromB6_, symObjAddr: 0x5654, symBinAddr: 0x336DC, symSize: 0x84 }
  - { offset: 0xCBFC8, size: 0x8, addend: 0x0, symName: __RNvYNtNtCsATtFUPiRFW_3syn4item8ImplItemNtNtCs9f3LFPSIp77_4core5clone5Clone10clone_fromB6_, symObjAddr: 0x5808, symBinAddr: 0x33890, symSize: 0x8C }
  - { offset: 0xCC007, size: 0x8, addend: 0x0, symName: __RNvYNtNtCsATtFUPiRFW_3syn4item8ItemEnumNtNtCs9f3LFPSIp77_4core5clone5Clone10clone_fromB6_, symObjAddr: 0x59C4, symBinAddr: 0x33A4C, symSize: 0x8C }
  - { offset: 0xCC046, size: 0x8, addend: 0x0, symName: __RNvYNtNtCsATtFUPiRFW_3syn4item8ItemImplNtNtCs9f3LFPSIp77_4core5clone5Clone10clone_fromB6_, symObjAddr: 0x5B80, symBinAddr: 0x33C08, symSize: 0x8C }
  - { offset: 0xCC085, size: 0x8, addend: 0x0, symName: __RNvYNtNtCsATtFUPiRFW_3syn4item8ItemTypeNtNtCs9f3LFPSIp77_4core5clone5Clone10clone_fromB6_, symObjAddr: 0x5D3C, symBinAddr: 0x33DC4, symSize: 0x8C }
  - { offset: 0xCC0C4, size: 0x8, addend: 0x0, symName: __RNvYNtNtCsATtFUPiRFW_3syn4item8ReceiverNtNtCs9f3LFPSIp77_4core5clone5Clone10clone_fromB6_, symObjAddr: 0x5EF8, symBinAddr: 0x33F80, symSize: 0x84 }
  - { offset: 0xCC103, size: 0x8, addend: 0x0, symName: __RNvYNtNtCsATtFUPiRFW_3syn4item8UseGroupNtNtCs9f3LFPSIp77_4core5clone5Clone10clone_fromB6_, symObjAddr: 0x60AC, symBinAddr: 0x34134, symSize: 0x84 }
  - { offset: 0xCC142, size: 0x8, addend: 0x0, symName: __RNvYNtNtCsATtFUPiRFW_3syn4item8VariadicNtNtCs9f3LFPSIp77_4core5clone5Clone10clone_fromB6_, symObjAddr: 0x6260, symBinAddr: 0x342E8, symSize: 0x84 }
  - { offset: 0xCC181, size: 0x8, addend: 0x0, symName: __RNvYNtNtCsATtFUPiRFW_3syn4item9ItemConstNtNtCs9f3LFPSIp77_4core5clone5Clone10clone_fromB6_, symObjAddr: 0x6414, symBinAddr: 0x3449C, symSize: 0x8C }
  - { offset: 0xCC1C0, size: 0x8, addend: 0x0, symName: __RNvYNtNtCsATtFUPiRFW_3syn4item9ItemMacroNtNtCs9f3LFPSIp77_4core5clone5Clone10clone_fromB6_, symObjAddr: 0x65D0, symBinAddr: 0x34658, symSize: 0x84 }
  - { offset: 0xCC1FF, size: 0x8, addend: 0x0, symName: __RNvYNtNtCsATtFUPiRFW_3syn4item9ItemTraitNtNtCs9f3LFPSIp77_4core5clone5Clone10clone_fromB6_, symObjAddr: 0x6784, symBinAddr: 0x3480C, symSize: 0x8C }
  - { offset: 0xCC23E, size: 0x8, addend: 0x0, symName: __RNvYNtNtCsATtFUPiRFW_3syn4item9ItemUnionNtNtCs9f3LFPSIp77_4core5clone5Clone10clone_fromB6_, symObjAddr: 0x6940, symBinAddr: 0x349C8, symSize: 0x8C }
  - { offset: 0xCC27D, size: 0x8, addend: 0x0, symName: __RNvYNtNtCsATtFUPiRFW_3syn4item9SignatureNtNtCs9f3LFPSIp77_4core5clone5Clone10clone_fromB6_, symObjAddr: 0x6AFC, symBinAddr: 0x34B84, symSize: 0x8C }
  - { offset: 0xCC2BC, size: 0x8, addend: 0x0, symName: __RNvYNtNtCsATtFUPiRFW_3syn4item9TraitItemNtNtCs9f3LFPSIp77_4core5clone5Clone10clone_fromB6_, symObjAddr: 0x6CB8, symBinAddr: 0x34D40, symSize: 0x8C }
  - { offset: 0xCC2FB, size: 0x8, addend: 0x0, symName: __RNvYNtNtCsATtFUPiRFW_3syn4item9UseRenameNtNtCs9f3LFPSIp77_4core5clone5Clone10clone_fromB6_, symObjAddr: 0x6E74, symBinAddr: 0x34EFC, symSize: 0x84 }
  - { offset: 0xCC483, size: 0x8, addend: 0x0, symName: __RNvXs7_NtNtCs9f3LFPSIp77_4core3cmp5implsRNtNtCsATtFUPiRFW_3syn4item10ImplItemFnNtB7_9PartialEq2eqBH_, symObjAddr: 0x1BC0, symBinAddr: 0x2FC48, symSize: 0x34 }
  - { offset: 0xCC4D2, size: 0x8, addend: 0x0, symName: __RNvXs7_NtNtCs9f3LFPSIp77_4core3cmp5implsRNtNtCsATtFUPiRFW_3syn4item10ItemStaticNtB7_9PartialEq2eqBH_, symObjAddr: 0x1BF4, symBinAddr: 0x2FC7C, symSize: 0x34 }
  - { offset: 0xCC521, size: 0x8, addend: 0x0, symName: __RNvXs7_NtNtCs9f3LFPSIp77_4core3cmp5implsRNtNtCsATtFUPiRFW_3syn4item10ItemStructNtB7_9PartialEq2eqBH_, symObjAddr: 0x1C28, symBinAddr: 0x2FCB0, symSize: 0x34 }
  - { offset: 0xCC570, size: 0x8, addend: 0x0, symName: __RNvXs7_NtNtCs9f3LFPSIp77_4core3cmp5implsRNtNtCsATtFUPiRFW_3syn4item11TraitItemFnNtB7_9PartialEq2eqBH_, symObjAddr: 0x1C5C, symBinAddr: 0x2FCE4, symSize: 0x34 }
  - { offset: 0xCC5BF, size: 0x8, addend: 0x0, symName: __RNvXs7_NtNtCs9f3LFPSIp77_4core3cmp5implsRNtNtCsATtFUPiRFW_3syn4item12ImplItemTypeNtB7_9PartialEq2eqBH_, symObjAddr: 0x1C90, symBinAddr: 0x2FD18, symSize: 0x34 }
  - { offset: 0xCC60E, size: 0x8, addend: 0x0, symName: __RNvXs7_NtNtCs9f3LFPSIp77_4core3cmp5implsRNtNtCsATtFUPiRFW_3syn4item13ForeignItemFnNtB7_9PartialEq2eqBH_, symObjAddr: 0x1CC4, symBinAddr: 0x2FD4C, symSize: 0x34 }
  - { offset: 0xCC65D, size: 0x8, addend: 0x0, symName: __RNvXs7_NtNtCs9f3LFPSIp77_4core3cmp5implsRNtNtCsATtFUPiRFW_3syn4item13ImplItemConstNtB7_9PartialEq2eqBH_, symObjAddr: 0x1CF8, symBinAddr: 0x2FD80, symSize: 0x34 }
  - { offset: 0xCC6AC, size: 0x8, addend: 0x0, symName: __RNvXs7_NtNtCs9f3LFPSIp77_4core3cmp5implsRNtNtCsATtFUPiRFW_3syn4item13ImplItemMacroNtB7_9PartialEq2eqBH_, symObjAddr: 0x1D2C, symBinAddr: 0x2FDB4, symSize: 0x34 }
  - { offset: 0xCC6FB, size: 0x8, addend: 0x0, symName: __RNvXs7_NtNtCs9f3LFPSIp77_4core3cmp5implsRNtNtCsATtFUPiRFW_3syn4item13TraitItemTypeNtB7_9PartialEq2eqBH_, symObjAddr: 0x1D60, symBinAddr: 0x2FDE8, symSize: 0x34 }
  - { offset: 0xCC74A, size: 0x8, addend: 0x0, symName: __RNvXs7_NtNtCs9f3LFPSIp77_4core3cmp5implsRNtNtCsATtFUPiRFW_3syn4item14ItemForeignModNtB7_9PartialEq2eqBH_, symObjAddr: 0x1D94, symBinAddr: 0x2FE1C, symSize: 0x34 }
  - { offset: 0xCC799, size: 0x8, addend: 0x0, symName: __RNvXs7_NtNtCs9f3LFPSIp77_4core3cmp5implsRNtNtCsATtFUPiRFW_3syn4item14ItemTraitAliasNtB7_9PartialEq2eqBH_, symObjAddr: 0x1DC8, symBinAddr: 0x2FE50, symSize: 0x34 }
  - { offset: 0xCC7E8, size: 0x8, addend: 0x0, symName: __RNvXs7_NtNtCs9f3LFPSIp77_4core3cmp5implsRNtNtCsATtFUPiRFW_3syn4item14TraitItemConstNtB7_9PartialEq2eqBH_, symObjAddr: 0x1DFC, symBinAddr: 0x2FE84, symSize: 0x34 }
  - { offset: 0xCC837, size: 0x8, addend: 0x0, symName: __RNvXs7_NtNtCs9f3LFPSIp77_4core3cmp5implsRNtNtCsATtFUPiRFW_3syn4item14TraitItemMacroNtB7_9PartialEq2eqBH_, symObjAddr: 0x1E30, symBinAddr: 0x2FEB8, symSize: 0x34 }
  - { offset: 0xCC886, size: 0x8, addend: 0x0, symName: __RNvXs7_NtNtCs9f3LFPSIp77_4core3cmp5implsRNtNtCsATtFUPiRFW_3syn4item15ForeignItemTypeNtB7_9PartialEq2eqBH_, symObjAddr: 0x1E64, symBinAddr: 0x2FEEC, symSize: 0x34 }
  - { offset: 0xCC8D5, size: 0x8, addend: 0x0, symName: __RNvXs7_NtNtCs9f3LFPSIp77_4core3cmp5implsRNtNtCsATtFUPiRFW_3syn4item15ItemExternCrateNtB7_9PartialEq2eqBH_, symObjAddr: 0x1E98, symBinAddr: 0x2FF20, symSize: 0x34 }
  - { offset: 0xCC924, size: 0x8, addend: 0x0, symName: __RNvXs7_NtNtCs9f3LFPSIp77_4core3cmp5implsRNtNtCsATtFUPiRFW_3syn4item16ForeignItemMacroNtB7_9PartialEq2eqBH_, symObjAddr: 0x1ECC, symBinAddr: 0x2FF54, symSize: 0x34 }
  - { offset: 0xCC973, size: 0x8, addend: 0x0, symName: __RNvXs7_NtNtCs9f3LFPSIp77_4core3cmp5implsRNtNtCsATtFUPiRFW_3syn4item17ForeignItemStaticNtB7_9PartialEq2eqBH_, symObjAddr: 0x1F00, symBinAddr: 0x2FF88, symSize: 0x34 }
  - { offset: 0xCC9C2, size: 0x8, addend: 0x0, symName: __RNvXs7_NtNtCs9f3LFPSIp77_4core3cmp5implsRNtNtCsATtFUPiRFW_3syn4item4ItemNtB7_9PartialEq2eqBH_, symObjAddr: 0x1F34, symBinAddr: 0x2FFBC, symSize: 0x34 }
  - { offset: 0xCCA11, size: 0x8, addend: 0x0, symName: __RNvXs7_NtNtCs9f3LFPSIp77_4core3cmp5implsRNtNtCsATtFUPiRFW_3syn4item6ItemFnNtB7_9PartialEq2eqBH_, symObjAddr: 0x1F68, symBinAddr: 0x2FFF0, symSize: 0x34 }
  - { offset: 0xCCA60, size: 0x8, addend: 0x0, symName: __RNvXs7_NtNtCs9f3LFPSIp77_4core3cmp5implsRNtNtCsATtFUPiRFW_3syn4item7ItemModNtB7_9PartialEq2eqBH_, symObjAddr: 0x1F9C, symBinAddr: 0x30024, symSize: 0x34 }
  - { offset: 0xCCAAF, size: 0x8, addend: 0x0, symName: __RNvXs7_NtNtCs9f3LFPSIp77_4core3cmp5implsRNtNtCsATtFUPiRFW_3syn4item7ItemUseNtB7_9PartialEq2eqBH_, symObjAddr: 0x1FD0, symBinAddr: 0x30058, symSize: 0x34 }
  - { offset: 0xCCAFE, size: 0x8, addend: 0x0, symName: __RNvXs7_NtNtCs9f3LFPSIp77_4core3cmp5implsRNtNtCsATtFUPiRFW_3syn4item7UseGlobNtB7_9PartialEq2eqBH_, symObjAddr: 0x2004, symBinAddr: 0x3008C, symSize: 0x34 }
  - { offset: 0xCCB4D, size: 0x8, addend: 0x0, symName: __RNvXs7_NtNtCs9f3LFPSIp77_4core3cmp5implsRNtNtCsATtFUPiRFW_3syn4item7UseNameNtB7_9PartialEq2eqBH_, symObjAddr: 0x2038, symBinAddr: 0x300C0, symSize: 0x34 }
  - { offset: 0xCCB9C, size: 0x8, addend: 0x0, symName: __RNvXs7_NtNtCs9f3LFPSIp77_4core3cmp5implsRNtNtCsATtFUPiRFW_3syn4item7UsePathNtB7_9PartialEq2eqBH_, symObjAddr: 0x206C, symBinAddr: 0x300F4, symSize: 0x34 }
  - { offset: 0xCCBEB, size: 0x8, addend: 0x0, symName: __RNvXs7_NtNtCs9f3LFPSIp77_4core3cmp5implsRNtNtCsATtFUPiRFW_3syn4item8ItemEnumNtB7_9PartialEq2eqBH_, symObjAddr: 0x20A0, symBinAddr: 0x30128, symSize: 0x34 }
  - { offset: 0xCCC3A, size: 0x8, addend: 0x0, symName: __RNvXs7_NtNtCs9f3LFPSIp77_4core3cmp5implsRNtNtCsATtFUPiRFW_3syn4item8ItemImplNtB7_9PartialEq2eqBH_, symObjAddr: 0x20D4, symBinAddr: 0x3015C, symSize: 0x34 }
  - { offset: 0xCCC89, size: 0x8, addend: 0x0, symName: __RNvXs7_NtNtCs9f3LFPSIp77_4core3cmp5implsRNtNtCsATtFUPiRFW_3syn4item8ItemTypeNtB7_9PartialEq2eqBH_, symObjAddr: 0x2108, symBinAddr: 0x30190, symSize: 0x34 }
  - { offset: 0xCCCD8, size: 0x8, addend: 0x0, symName: __RNvXs7_NtNtCs9f3LFPSIp77_4core3cmp5implsRNtNtCsATtFUPiRFW_3syn4item8ReceiverNtB7_9PartialEq2eqBH_, symObjAddr: 0x213C, symBinAddr: 0x301C4, symSize: 0x34 }
  - { offset: 0xCCD27, size: 0x8, addend: 0x0, symName: __RNvXs7_NtNtCs9f3LFPSIp77_4core3cmp5implsRNtNtCsATtFUPiRFW_3syn4item8UseGroupNtB7_9PartialEq2eqBH_, symObjAddr: 0x2170, symBinAddr: 0x301F8, symSize: 0x34 }
  - { offset: 0xCCD76, size: 0x8, addend: 0x0, symName: __RNvXs7_NtNtCs9f3LFPSIp77_4core3cmp5implsRNtNtCsATtFUPiRFW_3syn4item9ItemConstNtB7_9PartialEq2eqBH_, symObjAddr: 0x21A4, symBinAddr: 0x3022C, symSize: 0x34 }
  - { offset: 0xCCDC5, size: 0x8, addend: 0x0, symName: __RNvXs7_NtNtCs9f3LFPSIp77_4core3cmp5implsRNtNtCsATtFUPiRFW_3syn4item9ItemMacroNtB7_9PartialEq2eqBH_, symObjAddr: 0x21D8, symBinAddr: 0x30260, symSize: 0x34 }
  - { offset: 0xCCE14, size: 0x8, addend: 0x0, symName: __RNvXs7_NtNtCs9f3LFPSIp77_4core3cmp5implsRNtNtCsATtFUPiRFW_3syn4item9ItemTraitNtB7_9PartialEq2eqBH_, symObjAddr: 0x220C, symBinAddr: 0x30294, symSize: 0x34 }
  - { offset: 0xCCE63, size: 0x8, addend: 0x0, symName: __RNvXs7_NtNtCs9f3LFPSIp77_4core3cmp5implsRNtNtCsATtFUPiRFW_3syn4item9ItemUnionNtB7_9PartialEq2eqBH_, symObjAddr: 0x2240, symBinAddr: 0x302C8, symSize: 0x34 }
  - { offset: 0xCCEB2, size: 0x8, addend: 0x0, symName: __RNvXs7_NtNtCs9f3LFPSIp77_4core3cmp5implsRNtNtCsATtFUPiRFW_3syn4item9UseRenameNtB7_9PartialEq2eqBH_, symObjAddr: 0x2274, symBinAddr: 0x302FC, symSize: 0x34 }
  - { offset: 0xCCF08, size: 0x8, addend: 0x0, symName: __RNvYNtNtCsATtFUPiRFW_3syn4item10ImplItemFnNtNtCs9f3LFPSIp77_4core3cmp2Eq27assert_receiver_is_total_eqB6_, symObjAddr: 0x27C0, symBinAddr: 0x30848, symSize: 0x10 }
  - { offset: 0xCCF3B, size: 0x8, addend: 0x0, symName: __RNvYNtNtCsATtFUPiRFW_3syn4item10ItemStaticNtNtCs9f3LFPSIp77_4core3cmp2Eq27assert_receiver_is_total_eqB6_, symObjAddr: 0x297C, symBinAddr: 0x30A04, symSize: 0x10 }
  - { offset: 0xCCF6E, size: 0x8, addend: 0x0, symName: __RNvYNtNtCsATtFUPiRFW_3syn4item10ItemStructNtNtCs9f3LFPSIp77_4core3cmp2Eq27assert_receiver_is_total_eqB6_, symObjAddr: 0x2B30, symBinAddr: 0x30BB8, symSize: 0x10 }
  - { offset: 0xCCFA1, size: 0x8, addend: 0x0, symName: __RNvYNtNtCsATtFUPiRFW_3syn4item11ForeignItemNtNtCs9f3LFPSIp77_4core3cmp2Eq27assert_receiver_is_total_eqB6_, symObjAddr: 0x2CEC, symBinAddr: 0x30D74, symSize: 0x10 }
  - { offset: 0xCCFD4, size: 0x8, addend: 0x0, symName: __RNvYNtNtCsATtFUPiRFW_3syn4item11TraitItemFnNtNtCs9f3LFPSIp77_4core3cmp2Eq27assert_receiver_is_total_eqB6_, symObjAddr: 0x2EA8, symBinAddr: 0x30F30, symSize: 0x10 }
  - { offset: 0xCD007, size: 0x8, addend: 0x0, symName: __RNvYNtNtCsATtFUPiRFW_3syn4item12ImplItemTypeNtNtCs9f3LFPSIp77_4core3cmp2Eq27assert_receiver_is_total_eqB6_, symObjAddr: 0x3064, symBinAddr: 0x310EC, symSize: 0x10 }
  - { offset: 0xCD03A, size: 0x8, addend: 0x0, symName: __RNvYNtNtCsATtFUPiRFW_3syn4item13ForeignItemFnNtNtCs9f3LFPSIp77_4core3cmp2Eq27assert_receiver_is_total_eqB6_, symObjAddr: 0x3220, symBinAddr: 0x312A8, symSize: 0x10 }
  - { offset: 0xCD06D, size: 0x8, addend: 0x0, symName: __RNvYNtNtCsATtFUPiRFW_3syn4item13ImplItemConstNtNtCs9f3LFPSIp77_4core3cmp2Eq27assert_receiver_is_total_eqB6_, symObjAddr: 0x33DC, symBinAddr: 0x31464, symSize: 0x10 }
  - { offset: 0xCD0A0, size: 0x8, addend: 0x0, symName: __RNvYNtNtCsATtFUPiRFW_3syn4item13ImplItemMacroNtNtCs9f3LFPSIp77_4core3cmp2Eq27assert_receiver_is_total_eqB6_, symObjAddr: 0x3598, symBinAddr: 0x31620, symSize: 0x10 }
  - { offset: 0xCD0D3, size: 0x8, addend: 0x0, symName: __RNvYNtNtCsATtFUPiRFW_3syn4item13TraitItemTypeNtNtCs9f3LFPSIp77_4core3cmp2Eq27assert_receiver_is_total_eqB6_, symObjAddr: 0x374C, symBinAddr: 0x317D4, symSize: 0x10 }
  - { offset: 0xCD106, size: 0x8, addend: 0x0, symName: __RNvYNtNtCsATtFUPiRFW_3syn4item14ItemForeignModNtNtCs9f3LFPSIp77_4core3cmp2Eq27assert_receiver_is_total_eqB6_, symObjAddr: 0x3908, symBinAddr: 0x31990, symSize: 0x10 }
  - { offset: 0xCD139, size: 0x8, addend: 0x0, symName: __RNvYNtNtCsATtFUPiRFW_3syn4item14ItemTraitAliasNtNtCs9f3LFPSIp77_4core3cmp2Eq27assert_receiver_is_total_eqB6_, symObjAddr: 0x3ABC, symBinAddr: 0x31B44, symSize: 0x10 }
  - { offset: 0xCD16C, size: 0x8, addend: 0x0, symName: __RNvYNtNtCsATtFUPiRFW_3syn4item14TraitItemConstNtNtCs9f3LFPSIp77_4core3cmp2Eq27assert_receiver_is_total_eqB6_, symObjAddr: 0x3C78, symBinAddr: 0x31D00, symSize: 0x10 }
  - { offset: 0xCD19F, size: 0x8, addend: 0x0, symName: __RNvYNtNtCsATtFUPiRFW_3syn4item14TraitItemMacroNtNtCs9f3LFPSIp77_4core3cmp2Eq27assert_receiver_is_total_eqB6_, symObjAddr: 0x3E34, symBinAddr: 0x31EBC, symSize: 0x10 }
  - { offset: 0xCD1D2, size: 0x8, addend: 0x0, symName: __RNvYNtNtCsATtFUPiRFW_3syn4item15ForeignItemTypeNtNtCs9f3LFPSIp77_4core3cmp2Eq27assert_receiver_is_total_eqB6_, symObjAddr: 0x3FE8, symBinAddr: 0x32070, symSize: 0x10 }
  - { offset: 0xCD205, size: 0x8, addend: 0x0, symName: __RNvYNtNtCsATtFUPiRFW_3syn4item15ImplRestrictionNtNtCs9f3LFPSIp77_4core3cmp2Eq27assert_receiver_is_total_eqB6_, symObjAddr: 0x40AC, symBinAddr: 0x32134, symSize: 0x10 }
  - { offset: 0xCD238, size: 0x8, addend: 0x0, symName: __RNvYNtNtCsATtFUPiRFW_3syn4item15ItemExternCrateNtNtCs9f3LFPSIp77_4core3cmp2Eq27assert_receiver_is_total_eqB6_, symObjAddr: 0x4210, symBinAddr: 0x32298, symSize: 0x10 }
  - { offset: 0xCD26B, size: 0x8, addend: 0x0, symName: __RNvYNtNtCsATtFUPiRFW_3syn4item16ForeignItemMacroNtNtCs9f3LFPSIp77_4core3cmp2Eq27assert_receiver_is_total_eqB6_, symObjAddr: 0x43C4, symBinAddr: 0x3244C, symSize: 0x10 }
  - { offset: 0xCD29E, size: 0x8, addend: 0x0, symName: __RNvYNtNtCsATtFUPiRFW_3syn4item16StaticMutabilityNtNtCs9f3LFPSIp77_4core3cmp2Eq27assert_receiver_is_total_eqB6_, symObjAddr: 0x456C, symBinAddr: 0x325F4, symSize: 0x10 }
  - { offset: 0xCD2D1, size: 0x8, addend: 0x0, symName: __RNvYNtNtCsATtFUPiRFW_3syn4item17ForeignItemStaticNtNtCs9f3LFPSIp77_4core3cmp2Eq27assert_receiver_is_total_eqB6_, symObjAddr: 0x46F0, symBinAddr: 0x32778, symSize: 0x10 }
  - { offset: 0xCD304, size: 0x8, addend: 0x0, symName: __RNvYNtNtCsATtFUPiRFW_3syn4item4ItemNtNtCs9f3LFPSIp77_4core3cmp2Eq27assert_receiver_is_total_eqB6_, symObjAddr: 0x48A4, symBinAddr: 0x3292C, symSize: 0x10 }
  - { offset: 0xCD337, size: 0x8, addend: 0x0, symName: __RNvYNtNtCsATtFUPiRFW_3syn4item5FnArgNtNtCs9f3LFPSIp77_4core3cmp2Eq27assert_receiver_is_total_eqB6_, symObjAddr: 0x4A60, symBinAddr: 0x32AE8, symSize: 0x10 }
  - { offset: 0xCD36A, size: 0x8, addend: 0x0, symName: __RNvYNtNtCsATtFUPiRFW_3syn4item6ItemFnNtNtCs9f3LFPSIp77_4core3cmp2Eq27assert_receiver_is_total_eqB6_, symObjAddr: 0x4C14, symBinAddr: 0x32C9C, symSize: 0x10 }
  - { offset: 0xCD39D, size: 0x8, addend: 0x0, symName: __RNvYNtNtCsATtFUPiRFW_3syn4item7ItemModNtNtCs9f3LFPSIp77_4core3cmp2Eq27assert_receiver_is_total_eqB6_, symObjAddr: 0x4DD0, symBinAddr: 0x32E58, symSize: 0x10 }
  - { offset: 0xCD3D0, size: 0x8, addend: 0x0, symName: __RNvYNtNtCsATtFUPiRFW_3syn4item7ItemUseNtNtCs9f3LFPSIp77_4core3cmp2Eq27assert_receiver_is_total_eqB6_, symObjAddr: 0x4F84, symBinAddr: 0x3300C, symSize: 0x10 }
  - { offset: 0xCD403, size: 0x8, addend: 0x0, symName: __RNvYNtNtCsATtFUPiRFW_3syn4item7UseGlobNtNtCs9f3LFPSIp77_4core3cmp2Eq27assert_receiver_is_total_eqB6_, symObjAddr: 0x512C, symBinAddr: 0x331B4, symSize: 0x10 }
  - { offset: 0xCD436, size: 0x8, addend: 0x0, symName: __RNvYNtNtCsATtFUPiRFW_3syn4item7UseNameNtNtCs9f3LFPSIp77_4core3cmp2Eq27assert_receiver_is_total_eqB6_, symObjAddr: 0x52AC, symBinAddr: 0x33334, symSize: 0x10 }
  - { offset: 0xCD469, size: 0x8, addend: 0x0, symName: __RNvYNtNtCsATtFUPiRFW_3syn4item7UsePathNtNtCs9f3LFPSIp77_4core3cmp2Eq27assert_receiver_is_total_eqB6_, symObjAddr: 0x5460, symBinAddr: 0x334E8, symSize: 0x10 }
  - { offset: 0xCD49C, size: 0x8, addend: 0x0, symName: __RNvYNtNtCsATtFUPiRFW_3syn4item7UseTreeNtNtCs9f3LFPSIp77_4core3cmp2Eq27assert_receiver_is_total_eqB6_, symObjAddr: 0x5614, symBinAddr: 0x3369C, symSize: 0x10 }
  - { offset: 0xCD4CF, size: 0x8, addend: 0x0, symName: __RNvYNtNtCsATtFUPiRFW_3syn4item8ImplItemNtNtCs9f3LFPSIp77_4core3cmp2Eq27assert_receiver_is_total_eqB6_, symObjAddr: 0x57C8, symBinAddr: 0x33850, symSize: 0x10 }
  - { offset: 0xCD502, size: 0x8, addend: 0x0, symName: __RNvYNtNtCsATtFUPiRFW_3syn4item8ItemEnumNtNtCs9f3LFPSIp77_4core3cmp2Eq27assert_receiver_is_total_eqB6_, symObjAddr: 0x5984, symBinAddr: 0x33A0C, symSize: 0x10 }
  - { offset: 0xCD535, size: 0x8, addend: 0x0, symName: __RNvYNtNtCsATtFUPiRFW_3syn4item8ItemImplNtNtCs9f3LFPSIp77_4core3cmp2Eq27assert_receiver_is_total_eqB6_, symObjAddr: 0x5B40, symBinAddr: 0x33BC8, symSize: 0x10 }
  - { offset: 0xCD568, size: 0x8, addend: 0x0, symName: __RNvYNtNtCsATtFUPiRFW_3syn4item8ItemTypeNtNtCs9f3LFPSIp77_4core3cmp2Eq27assert_receiver_is_total_eqB6_, symObjAddr: 0x5CFC, symBinAddr: 0x33D84, symSize: 0x10 }
  - { offset: 0xCD59B, size: 0x8, addend: 0x0, symName: __RNvYNtNtCsATtFUPiRFW_3syn4item8ReceiverNtNtCs9f3LFPSIp77_4core3cmp2Eq27assert_receiver_is_total_eqB6_, symObjAddr: 0x5EB8, symBinAddr: 0x33F40, symSize: 0x10 }
  - { offset: 0xCD5CE, size: 0x8, addend: 0x0, symName: __RNvYNtNtCsATtFUPiRFW_3syn4item8UseGroupNtNtCs9f3LFPSIp77_4core3cmp2Eq27assert_receiver_is_total_eqB6_, symObjAddr: 0x606C, symBinAddr: 0x340F4, symSize: 0x10 }
  - { offset: 0xCD601, size: 0x8, addend: 0x0, symName: __RNvYNtNtCsATtFUPiRFW_3syn4item8VariadicNtNtCs9f3LFPSIp77_4core3cmp2Eq27assert_receiver_is_total_eqB6_, symObjAddr: 0x6220, symBinAddr: 0x342A8, symSize: 0x10 }
  - { offset: 0xCD634, size: 0x8, addend: 0x0, symName: __RNvYNtNtCsATtFUPiRFW_3syn4item9ItemConstNtNtCs9f3LFPSIp77_4core3cmp2Eq27assert_receiver_is_total_eqB6_, symObjAddr: 0x63D4, symBinAddr: 0x3445C, symSize: 0x10 }
  - { offset: 0xCD667, size: 0x8, addend: 0x0, symName: __RNvYNtNtCsATtFUPiRFW_3syn4item9ItemMacroNtNtCs9f3LFPSIp77_4core3cmp2Eq27assert_receiver_is_total_eqB6_, symObjAddr: 0x6590, symBinAddr: 0x34618, symSize: 0x10 }
  - { offset: 0xCD69A, size: 0x8, addend: 0x0, symName: __RNvYNtNtCsATtFUPiRFW_3syn4item9ItemTraitNtNtCs9f3LFPSIp77_4core3cmp2Eq27assert_receiver_is_total_eqB6_, symObjAddr: 0x6744, symBinAddr: 0x347CC, symSize: 0x10 }
  - { offset: 0xCD6CD, size: 0x8, addend: 0x0, symName: __RNvYNtNtCsATtFUPiRFW_3syn4item9ItemUnionNtNtCs9f3LFPSIp77_4core3cmp2Eq27assert_receiver_is_total_eqB6_, symObjAddr: 0x6900, symBinAddr: 0x34988, symSize: 0x10 }
  - { offset: 0xCD700, size: 0x8, addend: 0x0, symName: __RNvYNtNtCsATtFUPiRFW_3syn4item9SignatureNtNtCs9f3LFPSIp77_4core3cmp2Eq27assert_receiver_is_total_eqB6_, symObjAddr: 0x6ABC, symBinAddr: 0x34B44, symSize: 0x10 }
  - { offset: 0xCD733, size: 0x8, addend: 0x0, symName: __RNvYNtNtCsATtFUPiRFW_3syn4item9TraitItemNtNtCs9f3LFPSIp77_4core3cmp2Eq27assert_receiver_is_total_eqB6_, symObjAddr: 0x6C78, symBinAddr: 0x34D00, symSize: 0x10 }
  - { offset: 0xCD766, size: 0x8, addend: 0x0, symName: __RNvYNtNtCsATtFUPiRFW_3syn4item9UseRenameNtNtCs9f3LFPSIp77_4core3cmp2Eq27assert_receiver_is_total_eqB6_, symObjAddr: 0x6E34, symBinAddr: 0x34EBC, symSize: 0x10 }
  - { offset: 0xCD79F, size: 0x8, addend: 0x0, symName: __RNvYNtNtCsATtFUPiRFW_3syn4item10ImplItemFnNtNtCs9f3LFPSIp77_4core3cmp9PartialEq2neB6_, symObjAddr: 0x27D0, symBinAddr: 0x30858, symSize: 0x30 }
  - { offset: 0xCD7EE, size: 0x8, addend: 0x0, symName: __RNvYNtNtCsATtFUPiRFW_3syn4item10ItemStaticNtNtCs9f3LFPSIp77_4core3cmp9PartialEq2neB6_, symObjAddr: 0x298C, symBinAddr: 0x30A14, symSize: 0x30 }
  - { offset: 0xCD83D, size: 0x8, addend: 0x0, symName: __RNvYNtNtCsATtFUPiRFW_3syn4item10ItemStructNtNtCs9f3LFPSIp77_4core3cmp9PartialEq2neB6_, symObjAddr: 0x2B40, symBinAddr: 0x30BC8, symSize: 0x30 }
  - { offset: 0xCD88C, size: 0x8, addend: 0x0, symName: __RNvYNtNtCsATtFUPiRFW_3syn4item11ForeignItemNtNtCs9f3LFPSIp77_4core3cmp9PartialEq2neB6_, symObjAddr: 0x2CFC, symBinAddr: 0x30D84, symSize: 0x30 }
  - { offset: 0xCD8DB, size: 0x8, addend: 0x0, symName: __RNvYNtNtCsATtFUPiRFW_3syn4item11TraitItemFnNtNtCs9f3LFPSIp77_4core3cmp9PartialEq2neB6_, symObjAddr: 0x2EB8, symBinAddr: 0x30F40, symSize: 0x30 }
  - { offset: 0xCD92A, size: 0x8, addend: 0x0, symName: __RNvYNtNtCsATtFUPiRFW_3syn4item12ImplItemTypeNtNtCs9f3LFPSIp77_4core3cmp9PartialEq2neB6_, symObjAddr: 0x3074, symBinAddr: 0x310FC, symSize: 0x30 }
  - { offset: 0xCD979, size: 0x8, addend: 0x0, symName: __RNvYNtNtCsATtFUPiRFW_3syn4item13ForeignItemFnNtNtCs9f3LFPSIp77_4core3cmp9PartialEq2neB6_, symObjAddr: 0x3230, symBinAddr: 0x312B8, symSize: 0x30 }
  - { offset: 0xCD9C8, size: 0x8, addend: 0x0, symName: __RNvYNtNtCsATtFUPiRFW_3syn4item13ImplItemConstNtNtCs9f3LFPSIp77_4core3cmp9PartialEq2neB6_, symObjAddr: 0x33EC, symBinAddr: 0x31474, symSize: 0x30 }
  - { offset: 0xCDA17, size: 0x8, addend: 0x0, symName: __RNvYNtNtCsATtFUPiRFW_3syn4item13ImplItemMacroNtNtCs9f3LFPSIp77_4core3cmp9PartialEq2neB6_, symObjAddr: 0x35A8, symBinAddr: 0x31630, symSize: 0x30 }
  - { offset: 0xCDA66, size: 0x8, addend: 0x0, symName: __RNvYNtNtCsATtFUPiRFW_3syn4item13TraitItemTypeNtNtCs9f3LFPSIp77_4core3cmp9PartialEq2neB6_, symObjAddr: 0x375C, symBinAddr: 0x317E4, symSize: 0x30 }
  - { offset: 0xCDAB5, size: 0x8, addend: 0x0, symName: __RNvYNtNtCsATtFUPiRFW_3syn4item14ItemForeignModNtNtCs9f3LFPSIp77_4core3cmp9PartialEq2neB6_, symObjAddr: 0x3918, symBinAddr: 0x319A0, symSize: 0x30 }
  - { offset: 0xCDB04, size: 0x8, addend: 0x0, symName: __RNvYNtNtCsATtFUPiRFW_3syn4item14ItemTraitAliasNtNtCs9f3LFPSIp77_4core3cmp9PartialEq2neB6_, symObjAddr: 0x3ACC, symBinAddr: 0x31B54, symSize: 0x30 }
  - { offset: 0xCDB53, size: 0x8, addend: 0x0, symName: __RNvYNtNtCsATtFUPiRFW_3syn4item14TraitItemConstNtNtCs9f3LFPSIp77_4core3cmp9PartialEq2neB6_, symObjAddr: 0x3C88, symBinAddr: 0x31D10, symSize: 0x30 }
  - { offset: 0xCDBA2, size: 0x8, addend: 0x0, symName: __RNvYNtNtCsATtFUPiRFW_3syn4item14TraitItemMacroNtNtCs9f3LFPSIp77_4core3cmp9PartialEq2neB6_, symObjAddr: 0x3E44, symBinAddr: 0x31ECC, symSize: 0x30 }
  - { offset: 0xCDBF1, size: 0x8, addend: 0x0, symName: __RNvYNtNtCsATtFUPiRFW_3syn4item15ForeignItemTypeNtNtCs9f3LFPSIp77_4core3cmp9PartialEq2neB6_, symObjAddr: 0x3FF8, symBinAddr: 0x32080, symSize: 0x30 }
  - { offset: 0xCDC40, size: 0x8, addend: 0x0, symName: __RNvYNtNtCsATtFUPiRFW_3syn4item15ImplRestrictionNtNtCs9f3LFPSIp77_4core3cmp9PartialEq2neB6_, symObjAddr: 0x40BC, symBinAddr: 0x32144, symSize: 0x30 }
  - { offset: 0xCDC8F, size: 0x8, addend: 0x0, symName: __RNvYNtNtCsATtFUPiRFW_3syn4item15ItemExternCrateNtNtCs9f3LFPSIp77_4core3cmp9PartialEq2neB6_, symObjAddr: 0x4220, symBinAddr: 0x322A8, symSize: 0x30 }
  - { offset: 0xCDCDE, size: 0x8, addend: 0x0, symName: __RNvYNtNtCsATtFUPiRFW_3syn4item16ForeignItemMacroNtNtCs9f3LFPSIp77_4core3cmp9PartialEq2neB6_, symObjAddr: 0x43D4, symBinAddr: 0x3245C, symSize: 0x30 }
  - { offset: 0xCDD2D, size: 0x8, addend: 0x0, symName: __RNvYNtNtCsATtFUPiRFW_3syn4item16StaticMutabilityNtNtCs9f3LFPSIp77_4core3cmp9PartialEq2neB6_, symObjAddr: 0x457C, symBinAddr: 0x32604, symSize: 0x30 }
  - { offset: 0xCDD7C, size: 0x8, addend: 0x0, symName: __RNvYNtNtCsATtFUPiRFW_3syn4item17ForeignItemStaticNtNtCs9f3LFPSIp77_4core3cmp9PartialEq2neB6_, symObjAddr: 0x4700, symBinAddr: 0x32788, symSize: 0x30 }
  - { offset: 0xCDDCB, size: 0x8, addend: 0x0, symName: __RNvYNtNtCsATtFUPiRFW_3syn4item4ItemNtNtCs9f3LFPSIp77_4core3cmp9PartialEq2neB6_, symObjAddr: 0x48B4, symBinAddr: 0x3293C, symSize: 0x30 }
  - { offset: 0xCDE1A, size: 0x8, addend: 0x0, symName: __RNvYNtNtCsATtFUPiRFW_3syn4item5FnArgNtNtCs9f3LFPSIp77_4core3cmp9PartialEq2neB6_, symObjAddr: 0x4A70, symBinAddr: 0x32AF8, symSize: 0x30 }
  - { offset: 0xCDE69, size: 0x8, addend: 0x0, symName: __RNvYNtNtCsATtFUPiRFW_3syn4item6ItemFnNtNtCs9f3LFPSIp77_4core3cmp9PartialEq2neB6_, symObjAddr: 0x4C24, symBinAddr: 0x32CAC, symSize: 0x30 }
  - { offset: 0xCDEB8, size: 0x8, addend: 0x0, symName: __RNvYNtNtCsATtFUPiRFW_3syn4item7ItemModNtNtCs9f3LFPSIp77_4core3cmp9PartialEq2neB6_, symObjAddr: 0x4DE0, symBinAddr: 0x32E68, symSize: 0x30 }
  - { offset: 0xCDF07, size: 0x8, addend: 0x0, symName: __RNvYNtNtCsATtFUPiRFW_3syn4item7ItemUseNtNtCs9f3LFPSIp77_4core3cmp9PartialEq2neB6_, symObjAddr: 0x4F94, symBinAddr: 0x3301C, symSize: 0x30 }
  - { offset: 0xCDF56, size: 0x8, addend: 0x0, symName: __RNvYNtNtCsATtFUPiRFW_3syn4item7UseGlobNtNtCs9f3LFPSIp77_4core3cmp9PartialEq2neB6_, symObjAddr: 0x513C, symBinAddr: 0x331C4, symSize: 0x30 }
  - { offset: 0xCDFA5, size: 0x8, addend: 0x0, symName: __RNvYNtNtCsATtFUPiRFW_3syn4item7UseNameNtNtCs9f3LFPSIp77_4core3cmp9PartialEq2neB6_, symObjAddr: 0x52BC, symBinAddr: 0x33344, symSize: 0x30 }
  - { offset: 0xCDFF4, size: 0x8, addend: 0x0, symName: __RNvYNtNtCsATtFUPiRFW_3syn4item7UsePathNtNtCs9f3LFPSIp77_4core3cmp9PartialEq2neB6_, symObjAddr: 0x5470, symBinAddr: 0x334F8, symSize: 0x30 }
  - { offset: 0xCE043, size: 0x8, addend: 0x0, symName: __RNvYNtNtCsATtFUPiRFW_3syn4item7UseTreeNtNtCs9f3LFPSIp77_4core3cmp9PartialEq2neB6_, symObjAddr: 0x5624, symBinAddr: 0x336AC, symSize: 0x30 }
  - { offset: 0xCE092, size: 0x8, addend: 0x0, symName: __RNvYNtNtCsATtFUPiRFW_3syn4item8ImplItemNtNtCs9f3LFPSIp77_4core3cmp9PartialEq2neB6_, symObjAddr: 0x57D8, symBinAddr: 0x33860, symSize: 0x30 }
  - { offset: 0xCE0E1, size: 0x8, addend: 0x0, symName: __RNvYNtNtCsATtFUPiRFW_3syn4item8ItemEnumNtNtCs9f3LFPSIp77_4core3cmp9PartialEq2neB6_, symObjAddr: 0x5994, symBinAddr: 0x33A1C, symSize: 0x30 }
  - { offset: 0xCE130, size: 0x8, addend: 0x0, symName: __RNvYNtNtCsATtFUPiRFW_3syn4item8ItemImplNtNtCs9f3LFPSIp77_4core3cmp9PartialEq2neB6_, symObjAddr: 0x5B50, symBinAddr: 0x33BD8, symSize: 0x30 }
  - { offset: 0xCE17F, size: 0x8, addend: 0x0, symName: __RNvYNtNtCsATtFUPiRFW_3syn4item8ItemTypeNtNtCs9f3LFPSIp77_4core3cmp9PartialEq2neB6_, symObjAddr: 0x5D0C, symBinAddr: 0x33D94, symSize: 0x30 }
  - { offset: 0xCE1CE, size: 0x8, addend: 0x0, symName: __RNvYNtNtCsATtFUPiRFW_3syn4item8ReceiverNtNtCs9f3LFPSIp77_4core3cmp9PartialEq2neB6_, symObjAddr: 0x5EC8, symBinAddr: 0x33F50, symSize: 0x30 }
  - { offset: 0xCE21D, size: 0x8, addend: 0x0, symName: __RNvYNtNtCsATtFUPiRFW_3syn4item8UseGroupNtNtCs9f3LFPSIp77_4core3cmp9PartialEq2neB6_, symObjAddr: 0x607C, symBinAddr: 0x34104, symSize: 0x30 }
  - { offset: 0xCE26C, size: 0x8, addend: 0x0, symName: __RNvYNtNtCsATtFUPiRFW_3syn4item8VariadicNtNtCs9f3LFPSIp77_4core3cmp9PartialEq2neB6_, symObjAddr: 0x6230, symBinAddr: 0x342B8, symSize: 0x30 }
  - { offset: 0xCE2BB, size: 0x8, addend: 0x0, symName: __RNvYNtNtCsATtFUPiRFW_3syn4item9ItemConstNtNtCs9f3LFPSIp77_4core3cmp9PartialEq2neB6_, symObjAddr: 0x63E4, symBinAddr: 0x3446C, symSize: 0x30 }
  - { offset: 0xCE30A, size: 0x8, addend: 0x0, symName: __RNvYNtNtCsATtFUPiRFW_3syn4item9ItemMacroNtNtCs9f3LFPSIp77_4core3cmp9PartialEq2neB6_, symObjAddr: 0x65A0, symBinAddr: 0x34628, symSize: 0x30 }
  - { offset: 0xCE359, size: 0x8, addend: 0x0, symName: __RNvYNtNtCsATtFUPiRFW_3syn4item9ItemTraitNtNtCs9f3LFPSIp77_4core3cmp9PartialEq2neB6_, symObjAddr: 0x6754, symBinAddr: 0x347DC, symSize: 0x30 }
  - { offset: 0xCE3A8, size: 0x8, addend: 0x0, symName: __RNvYNtNtCsATtFUPiRFW_3syn4item9ItemUnionNtNtCs9f3LFPSIp77_4core3cmp9PartialEq2neB6_, symObjAddr: 0x6910, symBinAddr: 0x34998, symSize: 0x30 }
  - { offset: 0xCE3F7, size: 0x8, addend: 0x0, symName: __RNvYNtNtCsATtFUPiRFW_3syn4item9SignatureNtNtCs9f3LFPSIp77_4core3cmp9PartialEq2neB6_, symObjAddr: 0x6ACC, symBinAddr: 0x34B54, symSize: 0x30 }
  - { offset: 0xCE446, size: 0x8, addend: 0x0, symName: __RNvYNtNtCsATtFUPiRFW_3syn4item9TraitItemNtNtCs9f3LFPSIp77_4core3cmp9PartialEq2neB6_, symObjAddr: 0x6C88, symBinAddr: 0x34D10, symSize: 0x30 }
  - { offset: 0xCE495, size: 0x8, addend: 0x0, symName: __RNvYNtNtCsATtFUPiRFW_3syn4item9UseRenameNtNtCs9f3LFPSIp77_4core3cmp9PartialEq2neB6_, symObjAddr: 0x6E44, symBinAddr: 0x34ECC, symSize: 0x30 }
  - { offset: 0xCE4F0, size: 0x8, addend: 0x0, symName: __RNvXs8_NtCs9f3LFPSIp77_4core5tupleTNtNtCsATtFUPiRFW_3syn4item5FnArgNtNtBB_5token5CommaENtNtB7_3cmp9PartialEq2neBB_, symObjAddr: 0x22A8, symBinAddr: 0x30330, symSize: 0x64 }
  - { offset: 0xCE53C, size: 0x8, addend: 0x0, symName: __RNvXs8_NtCs9f3LFPSIp77_4core5tupleTNtNtCsATtFUPiRFW_3syn4item7UseTreeNtNtBB_5token5CommaENtNtB7_3cmp9PartialEq2neBB_, symObjAddr: 0x230C, symBinAddr: 0x30394, symSize: 0x64 }
  - { offset: 0xD0DD9, size: 0x8, addend: 0x0, symName: __RNvXNtCs62MdaZFMefA_5quote9to_tokensRNtNtCsATtFUPiRFW_3syn4item11ForeignItemNtB2_8ToTokens9to_tokensBD_, symObjAddr: 0x10C8, symBinAddr: 0x2F150, symSize: 0x40 }
  - { offset: 0xD0E18, size: 0x8, addend: 0x0, symName: __RNvXNtCs62MdaZFMefA_5quote9to_tokensRNtNtCsATtFUPiRFW_3syn4item4ItemNtB2_8ToTokens9to_tokensBD_, symObjAddr: 0x1108, symBinAddr: 0x2F190, symSize: 0x40 }
  - { offset: 0xD0E57, size: 0x8, addend: 0x0, symName: __RNvXNtCs62MdaZFMefA_5quote9to_tokensRNtNtCsATtFUPiRFW_3syn4item5FnArgNtB2_8ToTokens9to_tokensBD_, symObjAddr: 0x1148, symBinAddr: 0x2F1D0, symSize: 0x40 }
  - { offset: 0xD0E96, size: 0x8, addend: 0x0, symName: __RNvXNtCs62MdaZFMefA_5quote9to_tokensRNtNtCsATtFUPiRFW_3syn4item7UseTreeNtB2_8ToTokens9to_tokensBD_, symObjAddr: 0x1188, symBinAddr: 0x2F210, symSize: 0x40 }
  - { offset: 0xD0ED5, size: 0x8, addend: 0x0, symName: __RNvXNtCs62MdaZFMefA_5quote9to_tokensRNtNtCsATtFUPiRFW_3syn4item8ImplItemNtB2_8ToTokens9to_tokensBD_, symObjAddr: 0x11C8, symBinAddr: 0x2F250, symSize: 0x40 }
  - { offset: 0xD0F14, size: 0x8, addend: 0x0, symName: __RNvXNtCs62MdaZFMefA_5quote9to_tokensRNtNtCsATtFUPiRFW_3syn4item9TraitItemNtB2_8ToTokens9to_tokensBD_, symObjAddr: 0x1208, symBinAddr: 0x2F290, symSize: 0x40 }
  - { offset: 0xD0F59, size: 0x8, addend: 0x0, symName: __RNvYNtNtCsATtFUPiRFW_3syn4item10ImplItemFnNtNtCs62MdaZFMefA_5quote9to_tokens8ToTokens15to_token_streamB6_, symObjAddr: 0x26D0, symBinAddr: 0x30758, symSize: 0x8C }
  - { offset: 0xD0FA3, size: 0x8, addend: 0x0, symName: __RNvYNtNtCsATtFUPiRFW_3syn4item10ImplItemFnNtNtCs62MdaZFMefA_5quote9to_tokens8ToTokens17into_token_streamB6_, symObjAddr: 0x275C, symBinAddr: 0x307E4, symSize: 0x64 }
  - { offset: 0xD0FD9, size: 0x8, addend: 0x0, symName: __RNvYNtNtCsATtFUPiRFW_3syn4item10ItemStaticNtNtCs62MdaZFMefA_5quote9to_tokens8ToTokens15to_token_streamB6_, symObjAddr: 0x288C, symBinAddr: 0x30914, symSize: 0x8C }
  - { offset: 0xD1023, size: 0x8, addend: 0x0, symName: __RNvYNtNtCsATtFUPiRFW_3syn4item10ItemStaticNtNtCs62MdaZFMefA_5quote9to_tokens8ToTokens17into_token_streamB6_, symObjAddr: 0x2918, symBinAddr: 0x309A0, symSize: 0x64 }
  - { offset: 0xD1059, size: 0x8, addend: 0x0, symName: __RNvYNtNtCsATtFUPiRFW_3syn4item10ItemStructNtNtCs62MdaZFMefA_5quote9to_tokens8ToTokens15to_token_streamB6_, symObjAddr: 0x2A40, symBinAddr: 0x30AC8, symSize: 0x8C }
  - { offset: 0xD10A3, size: 0x8, addend: 0x0, symName: __RNvYNtNtCsATtFUPiRFW_3syn4item10ItemStructNtNtCs62MdaZFMefA_5quote9to_tokens8ToTokens17into_token_streamB6_, symObjAddr: 0x2ACC, symBinAddr: 0x30B54, symSize: 0x64 }
  - { offset: 0xD10D9, size: 0x8, addend: 0x0, symName: __RNvYNtNtCsATtFUPiRFW_3syn4item11ForeignItemNtNtCs62MdaZFMefA_5quote9to_tokens8ToTokens15to_token_streamB6_, symObjAddr: 0x2BFC, symBinAddr: 0x30C84, symSize: 0x8C }
  - { offset: 0xD1123, size: 0x8, addend: 0x0, symName: __RNvYNtNtCsATtFUPiRFW_3syn4item11ForeignItemNtNtCs62MdaZFMefA_5quote9to_tokens8ToTokens17into_token_streamB6_, symObjAddr: 0x2C88, symBinAddr: 0x30D10, symSize: 0x64 }
  - { offset: 0xD1159, size: 0x8, addend: 0x0, symName: __RNvYNtNtCsATtFUPiRFW_3syn4item11TraitItemFnNtNtCs62MdaZFMefA_5quote9to_tokens8ToTokens15to_token_streamB6_, symObjAddr: 0x2DB8, symBinAddr: 0x30E40, symSize: 0x8C }
  - { offset: 0xD11A3, size: 0x8, addend: 0x0, symName: __RNvYNtNtCsATtFUPiRFW_3syn4item11TraitItemFnNtNtCs62MdaZFMefA_5quote9to_tokens8ToTokens17into_token_streamB6_, symObjAddr: 0x2E44, symBinAddr: 0x30ECC, symSize: 0x64 }
  - { offset: 0xD11D9, size: 0x8, addend: 0x0, symName: __RNvYNtNtCsATtFUPiRFW_3syn4item12ImplItemTypeNtNtCs62MdaZFMefA_5quote9to_tokens8ToTokens15to_token_streamB6_, symObjAddr: 0x2F74, symBinAddr: 0x30FFC, symSize: 0x8C }
  - { offset: 0xD1223, size: 0x8, addend: 0x0, symName: __RNvYNtNtCsATtFUPiRFW_3syn4item12ImplItemTypeNtNtCs62MdaZFMefA_5quote9to_tokens8ToTokens17into_token_streamB6_, symObjAddr: 0x3000, symBinAddr: 0x31088, symSize: 0x64 }
  - { offset: 0xD1259, size: 0x8, addend: 0x0, symName: __RNvYNtNtCsATtFUPiRFW_3syn4item13ForeignItemFnNtNtCs62MdaZFMefA_5quote9to_tokens8ToTokens15to_token_streamB6_, symObjAddr: 0x3130, symBinAddr: 0x311B8, symSize: 0x8C }
  - { offset: 0xD12A3, size: 0x8, addend: 0x0, symName: __RNvYNtNtCsATtFUPiRFW_3syn4item13ForeignItemFnNtNtCs62MdaZFMefA_5quote9to_tokens8ToTokens17into_token_streamB6_, symObjAddr: 0x31BC, symBinAddr: 0x31244, symSize: 0x64 }
  - { offset: 0xD12D9, size: 0x8, addend: 0x0, symName: __RNvYNtNtCsATtFUPiRFW_3syn4item13ImplItemConstNtNtCs62MdaZFMefA_5quote9to_tokens8ToTokens15to_token_streamB6_, symObjAddr: 0x32EC, symBinAddr: 0x31374, symSize: 0x8C }
  - { offset: 0xD1323, size: 0x8, addend: 0x0, symName: __RNvYNtNtCsATtFUPiRFW_3syn4item13ImplItemConstNtNtCs62MdaZFMefA_5quote9to_tokens8ToTokens17into_token_streamB6_, symObjAddr: 0x3378, symBinAddr: 0x31400, symSize: 0x64 }
  - { offset: 0xD1359, size: 0x8, addend: 0x0, symName: __RNvYNtNtCsATtFUPiRFW_3syn4item13ImplItemMacroNtNtCs62MdaZFMefA_5quote9to_tokens8ToTokens15to_token_streamB6_, symObjAddr: 0x34A8, symBinAddr: 0x31530, symSize: 0x8C }
  - { offset: 0xD13A3, size: 0x8, addend: 0x0, symName: __RNvYNtNtCsATtFUPiRFW_3syn4item13ImplItemMacroNtNtCs62MdaZFMefA_5quote9to_tokens8ToTokens17into_token_streamB6_, symObjAddr: 0x3534, symBinAddr: 0x315BC, symSize: 0x64 }
  - { offset: 0xD13D9, size: 0x8, addend: 0x0, symName: __RNvYNtNtCsATtFUPiRFW_3syn4item13TraitItemTypeNtNtCs62MdaZFMefA_5quote9to_tokens8ToTokens15to_token_streamB6_, symObjAddr: 0x365C, symBinAddr: 0x316E4, symSize: 0x8C }
  - { offset: 0xD1423, size: 0x8, addend: 0x0, symName: __RNvYNtNtCsATtFUPiRFW_3syn4item13TraitItemTypeNtNtCs62MdaZFMefA_5quote9to_tokens8ToTokens17into_token_streamB6_, symObjAddr: 0x36E8, symBinAddr: 0x31770, symSize: 0x64 }
  - { offset: 0xD1459, size: 0x8, addend: 0x0, symName: __RNvYNtNtCsATtFUPiRFW_3syn4item14ItemForeignModNtNtCs62MdaZFMefA_5quote9to_tokens8ToTokens15to_token_streamB6_, symObjAddr: 0x3818, symBinAddr: 0x318A0, symSize: 0x8C }
  - { offset: 0xD14A3, size: 0x8, addend: 0x0, symName: __RNvYNtNtCsATtFUPiRFW_3syn4item14ItemForeignModNtNtCs62MdaZFMefA_5quote9to_tokens8ToTokens17into_token_streamB6_, symObjAddr: 0x38A4, symBinAddr: 0x3192C, symSize: 0x64 }
  - { offset: 0xD14D9, size: 0x8, addend: 0x0, symName: __RNvYNtNtCsATtFUPiRFW_3syn4item14ItemTraitAliasNtNtCs62MdaZFMefA_5quote9to_tokens8ToTokens15to_token_streamB6_, symObjAddr: 0x39CC, symBinAddr: 0x31A54, symSize: 0x8C }
  - { offset: 0xD1523, size: 0x8, addend: 0x0, symName: __RNvYNtNtCsATtFUPiRFW_3syn4item14ItemTraitAliasNtNtCs62MdaZFMefA_5quote9to_tokens8ToTokens17into_token_streamB6_, symObjAddr: 0x3A58, symBinAddr: 0x31AE0, symSize: 0x64 }
  - { offset: 0xD1559, size: 0x8, addend: 0x0, symName: __RNvYNtNtCsATtFUPiRFW_3syn4item14TraitItemConstNtNtCs62MdaZFMefA_5quote9to_tokens8ToTokens15to_token_streamB6_, symObjAddr: 0x3B88, symBinAddr: 0x31C10, symSize: 0x8C }
  - { offset: 0xD15A3, size: 0x8, addend: 0x0, symName: __RNvYNtNtCsATtFUPiRFW_3syn4item14TraitItemConstNtNtCs62MdaZFMefA_5quote9to_tokens8ToTokens17into_token_streamB6_, symObjAddr: 0x3C14, symBinAddr: 0x31C9C, symSize: 0x64 }
  - { offset: 0xD15D9, size: 0x8, addend: 0x0, symName: __RNvYNtNtCsATtFUPiRFW_3syn4item14TraitItemMacroNtNtCs62MdaZFMefA_5quote9to_tokens8ToTokens15to_token_streamB6_, symObjAddr: 0x3D44, symBinAddr: 0x31DCC, symSize: 0x8C }
  - { offset: 0xD1623, size: 0x8, addend: 0x0, symName: __RNvYNtNtCsATtFUPiRFW_3syn4item14TraitItemMacroNtNtCs62MdaZFMefA_5quote9to_tokens8ToTokens17into_token_streamB6_, symObjAddr: 0x3DD0, symBinAddr: 0x31E58, symSize: 0x64 }
  - { offset: 0xD1659, size: 0x8, addend: 0x0, symName: __RNvYNtNtCsATtFUPiRFW_3syn4item15ForeignItemTypeNtNtCs62MdaZFMefA_5quote9to_tokens8ToTokens15to_token_streamB6_, symObjAddr: 0x3EF8, symBinAddr: 0x31F80, symSize: 0x8C }
  - { offset: 0xD16A3, size: 0x8, addend: 0x0, symName: __RNvYNtNtCsATtFUPiRFW_3syn4item15ForeignItemTypeNtNtCs62MdaZFMefA_5quote9to_tokens8ToTokens17into_token_streamB6_, symObjAddr: 0x3F84, symBinAddr: 0x3200C, symSize: 0x64 }
  - { offset: 0xD16D9, size: 0x8, addend: 0x0, symName: __RNvYNtNtCsATtFUPiRFW_3syn4item15ItemExternCrateNtNtCs62MdaZFMefA_5quote9to_tokens8ToTokens15to_token_streamB6_, symObjAddr: 0x4120, symBinAddr: 0x321A8, symSize: 0x8C }
  - { offset: 0xD1723, size: 0x8, addend: 0x0, symName: __RNvYNtNtCsATtFUPiRFW_3syn4item15ItemExternCrateNtNtCs62MdaZFMefA_5quote9to_tokens8ToTokens17into_token_streamB6_, symObjAddr: 0x41AC, symBinAddr: 0x32234, symSize: 0x64 }
  - { offset: 0xD1759, size: 0x8, addend: 0x0, symName: __RNvYNtNtCsATtFUPiRFW_3syn4item16ForeignItemMacroNtNtCs62MdaZFMefA_5quote9to_tokens8ToTokens15to_token_streamB6_, symObjAddr: 0x42D4, symBinAddr: 0x3235C, symSize: 0x8C }
  - { offset: 0xD17A3, size: 0x8, addend: 0x0, symName: __RNvYNtNtCsATtFUPiRFW_3syn4item16ForeignItemMacroNtNtCs62MdaZFMefA_5quote9to_tokens8ToTokens17into_token_streamB6_, symObjAddr: 0x4360, symBinAddr: 0x323E8, symSize: 0x64 }
  - { offset: 0xD17D9, size: 0x8, addend: 0x0, symName: __RNvYNtNtCsATtFUPiRFW_3syn4item16StaticMutabilityNtNtCs62MdaZFMefA_5quote9to_tokens8ToTokens15to_token_streamB6_, symObjAddr: 0x4488, symBinAddr: 0x32510, symSize: 0x8C }
  - { offset: 0xD1823, size: 0x8, addend: 0x0, symName: __RNvYNtNtCsATtFUPiRFW_3syn4item16StaticMutabilityNtNtCs62MdaZFMefA_5quote9to_tokens8ToTokens17into_token_streamB6_, symObjAddr: 0x4514, symBinAddr: 0x3259C, symSize: 0x58 }
  - { offset: 0xD1858, size: 0x8, addend: 0x0, symName: __RNvYNtNtCsATtFUPiRFW_3syn4item17ForeignItemStaticNtNtCs62MdaZFMefA_5quote9to_tokens8ToTokens15to_token_streamB6_, symObjAddr: 0x4600, symBinAddr: 0x32688, symSize: 0x8C }
  - { offset: 0xD18A2, size: 0x8, addend: 0x0, symName: __RNvYNtNtCsATtFUPiRFW_3syn4item17ForeignItemStaticNtNtCs62MdaZFMefA_5quote9to_tokens8ToTokens17into_token_streamB6_, symObjAddr: 0x468C, symBinAddr: 0x32714, symSize: 0x64 }
  - { offset: 0xD18D8, size: 0x8, addend: 0x0, symName: __RNvYNtNtCsATtFUPiRFW_3syn4item4ItemNtNtCs62MdaZFMefA_5quote9to_tokens8ToTokens15to_token_streamB6_, symObjAddr: 0x47B4, symBinAddr: 0x3283C, symSize: 0x8C }
  - { offset: 0xD1922, size: 0x8, addend: 0x0, symName: __RNvYNtNtCsATtFUPiRFW_3syn4item4ItemNtNtCs62MdaZFMefA_5quote9to_tokens8ToTokens17into_token_streamB6_, symObjAddr: 0x4840, symBinAddr: 0x328C8, symSize: 0x64 }
  - { offset: 0xD1958, size: 0x8, addend: 0x0, symName: __RNvYNtNtCsATtFUPiRFW_3syn4item5FnArgNtNtCs62MdaZFMefA_5quote9to_tokens8ToTokens15to_token_streamB6_, symObjAddr: 0x4970, symBinAddr: 0x329F8, symSize: 0x8C }
  - { offset: 0xD19A2, size: 0x8, addend: 0x0, symName: __RNvYNtNtCsATtFUPiRFW_3syn4item5FnArgNtNtCs62MdaZFMefA_5quote9to_tokens8ToTokens17into_token_streamB6_, symObjAddr: 0x49FC, symBinAddr: 0x32A84, symSize: 0x64 }
  - { offset: 0xD19D8, size: 0x8, addend: 0x0, symName: __RNvYNtNtCsATtFUPiRFW_3syn4item6ItemFnNtNtCs62MdaZFMefA_5quote9to_tokens8ToTokens15to_token_streamB6_, symObjAddr: 0x4B24, symBinAddr: 0x32BAC, symSize: 0x8C }
  - { offset: 0xD1A22, size: 0x8, addend: 0x0, symName: __RNvYNtNtCsATtFUPiRFW_3syn4item6ItemFnNtNtCs62MdaZFMefA_5quote9to_tokens8ToTokens17into_token_streamB6_, symObjAddr: 0x4BB0, symBinAddr: 0x32C38, symSize: 0x64 }
  - { offset: 0xD1A58, size: 0x8, addend: 0x0, symName: __RNvYNtNtCsATtFUPiRFW_3syn4item7ItemModNtNtCs62MdaZFMefA_5quote9to_tokens8ToTokens15to_token_streamB6_, symObjAddr: 0x4CE0, symBinAddr: 0x32D68, symSize: 0x8C }
  - { offset: 0xD1AA2, size: 0x8, addend: 0x0, symName: __RNvYNtNtCsATtFUPiRFW_3syn4item7ItemModNtNtCs62MdaZFMefA_5quote9to_tokens8ToTokens17into_token_streamB6_, symObjAddr: 0x4D6C, symBinAddr: 0x32DF4, symSize: 0x64 }
  - { offset: 0xD1AD8, size: 0x8, addend: 0x0, symName: __RNvYNtNtCsATtFUPiRFW_3syn4item7ItemUseNtNtCs62MdaZFMefA_5quote9to_tokens8ToTokens15to_token_streamB6_, symObjAddr: 0x4E94, symBinAddr: 0x32F1C, symSize: 0x8C }
  - { offset: 0xD1B22, size: 0x8, addend: 0x0, symName: __RNvYNtNtCsATtFUPiRFW_3syn4item7ItemUseNtNtCs62MdaZFMefA_5quote9to_tokens8ToTokens17into_token_streamB6_, symObjAddr: 0x4F20, symBinAddr: 0x32FA8, symSize: 0x64 }
  - { offset: 0xD1B58, size: 0x8, addend: 0x0, symName: __RNvYNtNtCsATtFUPiRFW_3syn4item7UseGlobNtNtCs62MdaZFMefA_5quote9to_tokens8ToTokens15to_token_streamB6_, symObjAddr: 0x5048, symBinAddr: 0x330D0, symSize: 0x8C }
  - { offset: 0xD1BA2, size: 0x8, addend: 0x0, symName: __RNvYNtNtCsATtFUPiRFW_3syn4item7UseGlobNtNtCs62MdaZFMefA_5quote9to_tokens8ToTokens17into_token_streamB6_, symObjAddr: 0x50D4, symBinAddr: 0x3315C, symSize: 0x58 }
  - { offset: 0xD1BD7, size: 0x8, addend: 0x0, symName: __RNvYNtNtCsATtFUPiRFW_3syn4item7UseNameNtNtCs62MdaZFMefA_5quote9to_tokens8ToTokens15to_token_streamB6_, symObjAddr: 0x51BC, symBinAddr: 0x33244, symSize: 0x8C }
  - { offset: 0xD1C21, size: 0x8, addend: 0x0, symName: __RNvYNtNtCsATtFUPiRFW_3syn4item7UseNameNtNtCs62MdaZFMefA_5quote9to_tokens8ToTokens17into_token_streamB6_, symObjAddr: 0x5248, symBinAddr: 0x332D0, symSize: 0x64 }
  - { offset: 0xD1C57, size: 0x8, addend: 0x0, symName: __RNvYNtNtCsATtFUPiRFW_3syn4item7UsePathNtNtCs62MdaZFMefA_5quote9to_tokens8ToTokens15to_token_streamB6_, symObjAddr: 0x5370, symBinAddr: 0x333F8, symSize: 0x8C }
  - { offset: 0xD1CA1, size: 0x8, addend: 0x0, symName: __RNvYNtNtCsATtFUPiRFW_3syn4item7UsePathNtNtCs62MdaZFMefA_5quote9to_tokens8ToTokens17into_token_streamB6_, symObjAddr: 0x53FC, symBinAddr: 0x33484, symSize: 0x64 }
  - { offset: 0xD1CD7, size: 0x8, addend: 0x0, symName: __RNvYNtNtCsATtFUPiRFW_3syn4item7UseTreeNtNtCs62MdaZFMefA_5quote9to_tokens8ToTokens15to_token_streamB6_, symObjAddr: 0x5524, symBinAddr: 0x335AC, symSize: 0x8C }
  - { offset: 0xD1D21, size: 0x8, addend: 0x0, symName: __RNvYNtNtCsATtFUPiRFW_3syn4item7UseTreeNtNtCs62MdaZFMefA_5quote9to_tokens8ToTokens17into_token_streamB6_, symObjAddr: 0x55B0, symBinAddr: 0x33638, symSize: 0x64 }
  - { offset: 0xD1D57, size: 0x8, addend: 0x0, symName: __RNvYNtNtCsATtFUPiRFW_3syn4item8ImplItemNtNtCs62MdaZFMefA_5quote9to_tokens8ToTokens15to_token_streamB6_, symObjAddr: 0x56D8, symBinAddr: 0x33760, symSize: 0x8C }
  - { offset: 0xD1DA1, size: 0x8, addend: 0x0, symName: __RNvYNtNtCsATtFUPiRFW_3syn4item8ImplItemNtNtCs62MdaZFMefA_5quote9to_tokens8ToTokens17into_token_streamB6_, symObjAddr: 0x5764, symBinAddr: 0x337EC, symSize: 0x64 }
  - { offset: 0xD1DD7, size: 0x8, addend: 0x0, symName: __RNvYNtNtCsATtFUPiRFW_3syn4item8ItemEnumNtNtCs62MdaZFMefA_5quote9to_tokens8ToTokens15to_token_streamB6_, symObjAddr: 0x5894, symBinAddr: 0x3391C, symSize: 0x8C }
  - { offset: 0xD1E21, size: 0x8, addend: 0x0, symName: __RNvYNtNtCsATtFUPiRFW_3syn4item8ItemEnumNtNtCs62MdaZFMefA_5quote9to_tokens8ToTokens17into_token_streamB6_, symObjAddr: 0x5920, symBinAddr: 0x339A8, symSize: 0x64 }
  - { offset: 0xD1E57, size: 0x8, addend: 0x0, symName: __RNvYNtNtCsATtFUPiRFW_3syn4item8ItemImplNtNtCs62MdaZFMefA_5quote9to_tokens8ToTokens15to_token_streamB6_, symObjAddr: 0x5A50, symBinAddr: 0x33AD8, symSize: 0x8C }
  - { offset: 0xD1EA1, size: 0x8, addend: 0x0, symName: __RNvYNtNtCsATtFUPiRFW_3syn4item8ItemImplNtNtCs62MdaZFMefA_5quote9to_tokens8ToTokens17into_token_streamB6_, symObjAddr: 0x5ADC, symBinAddr: 0x33B64, symSize: 0x64 }
  - { offset: 0xD1ED7, size: 0x8, addend: 0x0, symName: __RNvYNtNtCsATtFUPiRFW_3syn4item8ItemTypeNtNtCs62MdaZFMefA_5quote9to_tokens8ToTokens15to_token_streamB6_, symObjAddr: 0x5C0C, symBinAddr: 0x33C94, symSize: 0x8C }
  - { offset: 0xD1F21, size: 0x8, addend: 0x0, symName: __RNvYNtNtCsATtFUPiRFW_3syn4item8ItemTypeNtNtCs62MdaZFMefA_5quote9to_tokens8ToTokens17into_token_streamB6_, symObjAddr: 0x5C98, symBinAddr: 0x33D20, symSize: 0x64 }
  - { offset: 0xD1F57, size: 0x8, addend: 0x0, symName: __RNvYNtNtCsATtFUPiRFW_3syn4item8ReceiverNtNtCs62MdaZFMefA_5quote9to_tokens8ToTokens15to_token_streamB6_, symObjAddr: 0x5DC8, symBinAddr: 0x33E50, symSize: 0x8C }
  - { offset: 0xD1FA1, size: 0x8, addend: 0x0, symName: __RNvYNtNtCsATtFUPiRFW_3syn4item8ReceiverNtNtCs62MdaZFMefA_5quote9to_tokens8ToTokens17into_token_streamB6_, symObjAddr: 0x5E54, symBinAddr: 0x33EDC, symSize: 0x64 }
  - { offset: 0xD1FD7, size: 0x8, addend: 0x0, symName: __RNvYNtNtCsATtFUPiRFW_3syn4item8UseGroupNtNtCs62MdaZFMefA_5quote9to_tokens8ToTokens15to_token_streamB6_, symObjAddr: 0x5F7C, symBinAddr: 0x34004, symSize: 0x8C }
  - { offset: 0xD2021, size: 0x8, addend: 0x0, symName: __RNvYNtNtCsATtFUPiRFW_3syn4item8UseGroupNtNtCs62MdaZFMefA_5quote9to_tokens8ToTokens17into_token_streamB6_, symObjAddr: 0x6008, symBinAddr: 0x34090, symSize: 0x64 }
  - { offset: 0xD2057, size: 0x8, addend: 0x0, symName: __RNvYNtNtCsATtFUPiRFW_3syn4item8VariadicNtNtCs62MdaZFMefA_5quote9to_tokens8ToTokens15to_token_streamB6_, symObjAddr: 0x6130, symBinAddr: 0x341B8, symSize: 0x8C }
  - { offset: 0xD20A1, size: 0x8, addend: 0x0, symName: __RNvYNtNtCsATtFUPiRFW_3syn4item8VariadicNtNtCs62MdaZFMefA_5quote9to_tokens8ToTokens17into_token_streamB6_, symObjAddr: 0x61BC, symBinAddr: 0x34244, symSize: 0x64 }
  - { offset: 0xD20D7, size: 0x8, addend: 0x0, symName: __RNvYNtNtCsATtFUPiRFW_3syn4item9ItemConstNtNtCs62MdaZFMefA_5quote9to_tokens8ToTokens15to_token_streamB6_, symObjAddr: 0x62E4, symBinAddr: 0x3436C, symSize: 0x8C }
  - { offset: 0xD2121, size: 0x8, addend: 0x0, symName: __RNvYNtNtCsATtFUPiRFW_3syn4item9ItemConstNtNtCs62MdaZFMefA_5quote9to_tokens8ToTokens17into_token_streamB6_, symObjAddr: 0x6370, symBinAddr: 0x343F8, symSize: 0x64 }
  - { offset: 0xD2157, size: 0x8, addend: 0x0, symName: __RNvYNtNtCsATtFUPiRFW_3syn4item9ItemMacroNtNtCs62MdaZFMefA_5quote9to_tokens8ToTokens15to_token_streamB6_, symObjAddr: 0x64A0, symBinAddr: 0x34528, symSize: 0x8C }
  - { offset: 0xD21A1, size: 0x8, addend: 0x0, symName: __RNvYNtNtCsATtFUPiRFW_3syn4item9ItemMacroNtNtCs62MdaZFMefA_5quote9to_tokens8ToTokens17into_token_streamB6_, symObjAddr: 0x652C, symBinAddr: 0x345B4, symSize: 0x64 }
  - { offset: 0xD21D7, size: 0x8, addend: 0x0, symName: __RNvYNtNtCsATtFUPiRFW_3syn4item9ItemTraitNtNtCs62MdaZFMefA_5quote9to_tokens8ToTokens15to_token_streamB6_, symObjAddr: 0x6654, symBinAddr: 0x346DC, symSize: 0x8C }
  - { offset: 0xD2221, size: 0x8, addend: 0x0, symName: __RNvYNtNtCsATtFUPiRFW_3syn4item9ItemTraitNtNtCs62MdaZFMefA_5quote9to_tokens8ToTokens17into_token_streamB6_, symObjAddr: 0x66E0, symBinAddr: 0x34768, symSize: 0x64 }
  - { offset: 0xD2257, size: 0x8, addend: 0x0, symName: __RNvYNtNtCsATtFUPiRFW_3syn4item9ItemUnionNtNtCs62MdaZFMefA_5quote9to_tokens8ToTokens15to_token_streamB6_, symObjAddr: 0x6810, symBinAddr: 0x34898, symSize: 0x8C }
  - { offset: 0xD22A1, size: 0x8, addend: 0x0, symName: __RNvYNtNtCsATtFUPiRFW_3syn4item9ItemUnionNtNtCs62MdaZFMefA_5quote9to_tokens8ToTokens17into_token_streamB6_, symObjAddr: 0x689C, symBinAddr: 0x34924, symSize: 0x64 }
  - { offset: 0xD22D7, size: 0x8, addend: 0x0, symName: __RNvYNtNtCsATtFUPiRFW_3syn4item9SignatureNtNtCs62MdaZFMefA_5quote9to_tokens8ToTokens15to_token_streamB6_, symObjAddr: 0x69CC, symBinAddr: 0x34A54, symSize: 0x8C }
  - { offset: 0xD2321, size: 0x8, addend: 0x0, symName: __RNvYNtNtCsATtFUPiRFW_3syn4item9SignatureNtNtCs62MdaZFMefA_5quote9to_tokens8ToTokens17into_token_streamB6_, symObjAddr: 0x6A58, symBinAddr: 0x34AE0, symSize: 0x64 }
  - { offset: 0xD2357, size: 0x8, addend: 0x0, symName: __RNvYNtNtCsATtFUPiRFW_3syn4item9TraitItemNtNtCs62MdaZFMefA_5quote9to_tokens8ToTokens15to_token_streamB6_, symObjAddr: 0x6B88, symBinAddr: 0x34C10, symSize: 0x8C }
  - { offset: 0xD23A1, size: 0x8, addend: 0x0, symName: __RNvYNtNtCsATtFUPiRFW_3syn4item9TraitItemNtNtCs62MdaZFMefA_5quote9to_tokens8ToTokens17into_token_streamB6_, symObjAddr: 0x6C14, symBinAddr: 0x34C9C, symSize: 0x64 }
  - { offset: 0xD23D7, size: 0x8, addend: 0x0, symName: __RNvYNtNtCsATtFUPiRFW_3syn4item9UseRenameNtNtCs62MdaZFMefA_5quote9to_tokens8ToTokens15to_token_streamB6_, symObjAddr: 0x6D44, symBinAddr: 0x34DCC, symSize: 0x8C }
  - { offset: 0xD2421, size: 0x8, addend: 0x0, symName: __RNvYNtNtCsATtFUPiRFW_3syn4item9UseRenameNtNtCs62MdaZFMefA_5quote9to_tokens8ToTokens17into_token_streamB6_, symObjAddr: 0x6DD0, symBinAddr: 0x34E58, symSize: 0x64 }
  - { offset: 0xD26A6, size: 0x8, addend: 0x0, symName: __RNvMNtCsATtFUPiRFW_3syn4itemNtB2_4Item13replace_attrs, symObjAddr: 0x6EF8, symBinAddr: 0x34F80, symSize: 0x328 }
  - { offset: 0xD2709, size: 0x8, addend: 0x0, symName: __RNvMs3_NtCsATtFUPiRFW_3syn4itemNtB5_9Signature8receiver, symObjAddr: 0x764C, symBinAddr: 0x356D4, symSize: 0xE8 }
  - { offset: 0xD278A, size: 0x8, addend: 0x0, symName: __RNvMs4_NtCsATtFUPiRFW_3syn4itemNtB5_8Receiver8lifetime, symObjAddr: 0x7734, symBinAddr: 0x357BC, symSize: 0x90 }
  - { offset: 0xD28AC, size: 0x8, addend: 0x0, symName: __RNvMs1Q_NtNtCsATtFUPiRFW_3syn3gen5debugNtNtBa_4item13ForeignItemFn5debug, symObjAddr: 0x1FC2C, symBinAddr: 0x4DCB4, symSize: 0x104 }
  - { offset: 0xD2918, size: 0x8, addend: 0x0, symName: __RNvMs1S_NtNtCsATtFUPiRFW_3syn3gen5debugNtNtBa_4item16ForeignItemMacro5debug, symObjAddr: 0x1FD7C, symBinAddr: 0x4DE04, symSize: 0xDC }
  - { offset: 0xD2984, size: 0x8, addend: 0x0, symName: __RNvMs1U_NtNtCsATtFUPiRFW_3syn3gen5debugNtNtBa_4item17ForeignItemStatic5debug, symObjAddr: 0x1FEA4, symBinAddr: 0x4DF2C, symSize: 0x1A4 }
  - { offset: 0xD29F0, size: 0x8, addend: 0x0, symName: __RNvMs1W_NtNtCsATtFUPiRFW_3syn3gen5debugNtNtBa_4item15ForeignItemType5debug, symObjAddr: 0x20094, symBinAddr: 0x4E11C, symSize: 0x154 }
  - { offset: 0xD2A5C, size: 0x8, addend: 0x0, symName: __RNvMs22_NtNtCsATtFUPiRFW_3syn3gen5debugNtNtBa_4item13ImplItemConst5debug, symObjAddr: 0x2049C, symBinAddr: 0x4E524, symSize: 0x218 }
  - { offset: 0xD2AC8, size: 0x8, addend: 0x0, symName: __RNvMs24_NtNtCsATtFUPiRFW_3syn3gen5debugNtNtBa_4item10ImplItemFn5debug, symObjAddr: 0x20700, symBinAddr: 0x4E788, symSize: 0x12C }
  - { offset: 0xD2B34, size: 0x8, addend: 0x0, symName: __RNvMs26_NtNtCsATtFUPiRFW_3syn3gen5debugNtNtBa_4item13ImplItemMacro5debug, symObjAddr: 0x20878, symBinAddr: 0x4E900, symSize: 0xDC }
  - { offset: 0xD2BA0, size: 0x8, addend: 0x0, symName: __RNvMs28_NtNtCsATtFUPiRFW_3syn3gen5debugNtNtBa_4item12ImplItemType5debug, symObjAddr: 0x209A0, symBinAddr: 0x4EA28, symSize: 0x1CC }
  - { offset: 0xD2C0C, size: 0x8, addend: 0x0, symName: __RNvMs2d_NtNtCsATtFUPiRFW_3syn3gen5debugNtNtBa_4item9ItemConst5debug, symObjAddr: 0x21128, symBinAddr: 0x4F1B0, symSize: 0x1F4 }
  - { offset: 0xD2C78, size: 0x8, addend: 0x0, symName: __RNvMs2f_NtNtCsATtFUPiRFW_3syn3gen5debugNtNtBa_4item8ItemEnum5debug, symObjAddr: 0x21368, symBinAddr: 0x4F3F0, symSize: 0x17C }
  - { offset: 0xD2CE4, size: 0x8, addend: 0x0, symName: __RNvMs2h_NtNtCsATtFUPiRFW_3syn3gen5debugNtNtBa_4item15ItemExternCrate5debug, symObjAddr: 0x21530, symBinAddr: 0x4F5B8, symSize: 0x17C }
  - { offset: 0xD2D50, size: 0x8, addend: 0x0, symName: __RNvMs2j_NtNtCsATtFUPiRFW_3syn3gen5debugNtNtBa_4item6ItemFn5debug, symObjAddr: 0x216F8, symBinAddr: 0x4F780, symSize: 0x104 }
  - { offset: 0xD2DBC, size: 0x8, addend: 0x0, symName: __RNvMs2l_NtNtCsATtFUPiRFW_3syn3gen5debugNtNtBa_4item14ItemForeignMod5debug, symObjAddr: 0x21848, symBinAddr: 0x4F8D0, symSize: 0x12C }
  - { offset: 0xD2E28, size: 0x8, addend: 0x0, symName: __RNvMs2n_NtNtCsATtFUPiRFW_3syn3gen5debugNtNtBa_4item8ItemImpl5debug, symObjAddr: 0x219C0, symBinAddr: 0x4FA48, symSize: 0x1CC }
  - { offset: 0xD2E94, size: 0x8, addend: 0x0, symName: __RNvMs2p_NtNtCsATtFUPiRFW_3syn3gen5debugNtNtBa_4item9ItemMacro5debug, symObjAddr: 0x21BD8, symBinAddr: 0x4FC60, symSize: 0x104 }
  - { offset: 0xD2F00, size: 0x8, addend: 0x0, symName: __RNvMs2r_NtNtCsATtFUPiRFW_3syn3gen5debugNtNtBa_4item7ItemMod5debug, symObjAddr: 0x21D28, symBinAddr: 0x4FDB0, symSize: 0x17C }
  - { offset: 0xD2F6C, size: 0x8, addend: 0x0, symName: __RNvMs2t_NtNtCsATtFUPiRFW_3syn3gen5debugNtNtBa_4item10ItemStatic5debug, symObjAddr: 0x21EF0, symBinAddr: 0x4FF78, symSize: 0x1F4 }
  - { offset: 0xD2FD8, size: 0x8, addend: 0x0, symName: __RNvMs2v_NtNtCsATtFUPiRFW_3syn3gen5debugNtNtBa_4item10ItemStruct5debug, symObjAddr: 0x22130, symBinAddr: 0x501B8, symSize: 0x17C }
  - { offset: 0xD3044, size: 0x8, addend: 0x0, symName: __RNvMs2x_NtNtCsATtFUPiRFW_3syn3gen5debugNtNtBa_4item9ItemTrait5debug, symObjAddr: 0x222F8, symBinAddr: 0x50380, symSize: 0x234 }
  - { offset: 0xD30B0, size: 0x8, addend: 0x0, symName: __RNvMs2z_NtNtCsATtFUPiRFW_3syn3gen5debugNtNtBa_4item14ItemTraitAlias5debug, symObjAddr: 0x22578, symBinAddr: 0x50600, symSize: 0x1A4 }
  - { offset: 0xD311C, size: 0x8, addend: 0x0, symName: __RNvMs2B_NtNtCsATtFUPiRFW_3syn3gen5debugNtNtBa_4item8ItemType5debug, symObjAddr: 0x22768, symBinAddr: 0x507F0, symSize: 0x1A4 }
  - { offset: 0xD3188, size: 0x8, addend: 0x0, symName: __RNvMs2D_NtNtCsATtFUPiRFW_3syn3gen5debugNtNtBa_4item9ItemUnion5debug, symObjAddr: 0x22958, symBinAddr: 0x509E0, symSize: 0x154 }
  - { offset: 0xD31F4, size: 0x8, addend: 0x0, symName: __RNvMs2F_NtNtCsATtFUPiRFW_3syn3gen5debugNtNtBa_4item7ItemUse5debug, symObjAddr: 0x22AF8, symBinAddr: 0x50B80, symSize: 0x154 }
  - { offset: 0xD3260, size: 0x8, addend: 0x0, symName: __RNvMs3G_NtNtCsATtFUPiRFW_3syn3gen5debugNtNtBa_4item14TraitItemConst5debug, symObjAddr: 0x233A4, symBinAddr: 0x5142C, symSize: 0x1A4 }
  - { offset: 0xD32CC, size: 0x8, addend: 0x0, symName: __RNvMs3I_NtNtCsATtFUPiRFW_3syn3gen5debugNtNtBa_4item11TraitItemFn5debug, symObjAddr: 0x23594, symBinAddr: 0x5161C, symSize: 0x104 }
  - { offset: 0xD3338, size: 0x8, addend: 0x0, symName: __RNvMs3K_NtNtCsATtFUPiRFW_3syn3gen5debugNtNtBa_4item14TraitItemMacro5debug, symObjAddr: 0x236E4, symBinAddr: 0x5176C, symSize: 0xDC }
  - { offset: 0xD33A4, size: 0x8, addend: 0x0, symName: __RNvMs3M_NtNtCsATtFUPiRFW_3syn3gen5debugNtNtBa_4item13TraitItemType5debug, symObjAddr: 0x2380C, symBinAddr: 0x51894, symSize: 0x1A4 }
  - { offset: 0xD3B58, size: 0x8, addend: 0x0, symName: __RINvXNtNtCsdze8u8oDPro_5alloc5slice4hackNtNtCsATtFUPiRFW_3syn4expr3ArmNtB3_10ConvertVec6to_vecNtNtB7_5alloc6GlobalEBG_, symObjAddr: 0x0, symBinAddr: 0x56150, symSize: 0x2C0 }
  - { offset: 0xD4B4C, size: 0x8, addend: 0x0, symName: __RINvXNtNtCsdze8u8oDPro_5alloc5slice4hackNtNtCsATtFUPiRFW_3syn4expr3ArmNtB3_10ConvertVec6to_vecNtNtB7_5alloc6GlobalEBG_, symObjAddr: 0x0, symBinAddr: 0x56150, symSize: 0x2C0 }
  - { offset: 0xD4E9C, size: 0x8, addend: 0x0, symName: __RINvXNtNtCsdze8u8oDPro_5alloc5slice4hackTNtNtCsATtFUPiRFW_3syn4expr10FieldValueNtNtBH_5token5CommaENtB3_10ConvertVec6to_vecNtNtB7_5alloc6GlobalEBH_, symObjAddr: 0x2C0, symBinAddr: 0x56410, symSize: 0x2C0 }
  - { offset: 0xD51EC, size: 0x8, addend: 0x0, symName: __RINvXNtNtCsdze8u8oDPro_5alloc5slice4hackTNtNtCsATtFUPiRFW_3syn4expr4ExprNtNtBH_5token5CommaENtB3_10ConvertVec6to_vecNtNtB7_5alloc6GlobalEBH_, symObjAddr: 0x580, symBinAddr: 0x566D0, symSize: 0x2BC }
  - { offset: 0xD80B3, size: 0x8, addend: 0x0, symName: __RNvXs_NtCsATtFUPiRFW_3syn4exprNtB4_6MemberINtNtCs9f3LFPSIp77_4core7convert4FromNtCs475r2uZUTuc_11proc_macro25IdentE4from, symObjAddr: 0x72C4, symBinAddr: 0x5D414, symSize: 0x28 }
  - { offset: 0xD80E7, size: 0x8, addend: 0x0, symName: __RNvXs0_NtCsATtFUPiRFW_3syn4exprNtB5_6MemberINtNtCs9f3LFPSIp77_4core7convert4FromNtB5_5IndexE4from, symObjAddr: 0x72EC, symBinAddr: 0x5D43C, symSize: 0x38 }
  - { offset: 0xD811B, size: 0x8, addend: 0x0, symName: __RNvXs1_NtCsATtFUPiRFW_3syn4exprNtB5_6MemberINtNtCs9f3LFPSIp77_4core7convert4FromjE4from, symObjAddr: 0x7324, symBinAddr: 0x5D474, symSize: 0x48 }
  - { offset: 0xD814F, size: 0x8, addend: 0x0, symName: __RNvXs3_NtCsATtFUPiRFW_3syn4exprNtB5_6MemberNtNtCs9f3LFPSIp77_4core3cmp9PartialEq2eq, symObjAddr: 0x736C, symBinAddr: 0x5D4BC, symSize: 0x15C }
  - { offset: 0xD81EE, size: 0x8, addend: 0x0, symName: __RNvXs5_NtCsATtFUPiRFW_3syn4exprNtB5_6MemberNtNtCs62MdaZFMefA_5quote14ident_fragment13IdentFragment3fmt, symObjAddr: 0x74C8, symBinAddr: 0x5D618, symSize: 0xA8 }
  - { offset: 0xD825F, size: 0x8, addend: 0x0, symName: __RNvXs5_NtCsATtFUPiRFW_3syn4exprNtB5_6MemberNtNtCs62MdaZFMefA_5quote14ident_fragment13IdentFragment4span, symObjAddr: 0x7570, symBinAddr: 0x5D6C0, symSize: 0xA8 }
  - { offset: 0xD82CF, size: 0x8, addend: 0x0, symName: __RNvXs7_NtCsATtFUPiRFW_3syn4exprNtB5_5IndexINtNtCs9f3LFPSIp77_4core7convert4FromjE4from, symObjAddr: 0x7684, symBinAddr: 0x5D7D4, symSize: 0x84 }
  - { offset: 0xD8303, size: 0x8, addend: 0x0, symName: __RNvXs9_NtCsATtFUPiRFW_3syn4exprNtB5_5IndexNtNtCs9f3LFPSIp77_4core3cmp9PartialEq2eq, symObjAddr: 0x7708, symBinAddr: 0x5D858, symSize: 0x3C }
  - { offset: 0xD8346, size: 0x8, addend: 0x0, symName: __RNvXsb_NtCsATtFUPiRFW_3syn4exprNtB5_5IndexNtNtCs62MdaZFMefA_5quote14ident_fragment13IdentFragment3fmt, symObjAddr: 0x7744, symBinAddr: 0x5D894, symSize: 0x3C }
  - { offset: 0xD8383, size: 0x8, addend: 0x0, symName: __RNvXsb_NtCsATtFUPiRFW_3syn4exprNtB5_5IndexNtNtCs62MdaZFMefA_5quote14ident_fragment13IdentFragment4span, symObjAddr: 0x7780, symBinAddr: 0x5D8D0, symSize: 0x3C }
  - { offset: 0xD83BC, size: 0x8, addend: 0x0, symName: __RNvXNtNtCsATtFUPiRFW_3syn4expr7parsingNtB4_4ExprNtNtB6_5parse5Parse5parse, symObjAddr: 0x77BC, symBinAddr: 0x5D90C, symSize: 0x3C }
  - { offset: 0xD83F0, size: 0x8, addend: 0x0, symName: __RNvXs1_NtNtCsATtFUPiRFW_3syn4expr7parsingNtB7_9ExprMacroNtNtB9_5parse5Parse5parse, symObjAddr: 0x77F8, symBinAddr: 0x5D948, symSize: 0x16C }
  - { offset: 0xD8443, size: 0x8, addend: 0x0, symName: __RNvXs2_NtNtCsATtFUPiRFW_3syn4expr7parsingNtB7_9ExprArrayNtNtB9_5parse5Parse5parse, symObjAddr: 0x7964, symBinAddr: 0x5DAB4, symSize: 0x488 }
  - { offset: 0xD8574, size: 0x8, addend: 0x0, symName: __RNvXs3_NtNtCsATtFUPiRFW_3syn4expr7parsingNtB7_10ExprRepeatNtNtB9_5parse5Parse5parse, symObjAddr: 0x7DEC, symBinAddr: 0x5DF3C, symSize: 0x48C }
  - { offset: 0xD866F, size: 0x8, addend: 0x0, symName: __RNvXs4_NtNtCsATtFUPiRFW_3syn4expr7parsingNtB7_7ExprLitNtNtB9_5parse5Parse5parse, symObjAddr: 0x8278, symBinAddr: 0x5E3C8, symSize: 0x14C }
  - { offset: 0xD86C2, size: 0x8, addend: 0x0, symName: __RNvXs5_NtNtCsATtFUPiRFW_3syn4expr7parsingNtB7_9ExprParenNtNtB9_5parse5Parse5parse, symObjAddr: 0x83C4, symBinAddr: 0x5E514, symSize: 0x2B4 }
  - { offset: 0xD875F, size: 0x8, addend: 0x0, symName: __RNvXs6_NtNtCsATtFUPiRFW_3syn4expr7parsingNtB7_7ExprLetNtNtB9_5parse5Parse5parse, symObjAddr: 0x8678, symBinAddr: 0x5E7C8, symSize: 0x44 }
  - { offset: 0xD87A8, size: 0x8, addend: 0x0, symName: __RNvXs7_NtNtCsATtFUPiRFW_3syn4expr7parsingNtB7_6ExprIfNtNtB9_5parse5Parse5parse, symObjAddr: 0x86BC, symBinAddr: 0x5E80C, symSize: 0x1018 }
  - { offset: 0xD8A1D, size: 0x8, addend: 0x0, symName: __RNvXs8_NtNtCsATtFUPiRFW_3syn4expr7parsingNtB7_9ExprInferNtNtB9_5parse5Parse5parse, symObjAddr: 0x96D4, symBinAddr: 0x5F824, symSize: 0x1E0 }
  - { offset: 0xD8AAE, size: 0x8, addend: 0x0, symName: __RNvXs9_NtNtCsATtFUPiRFW_3syn4expr7parsingNtB7_11ExprForLoopNtNtB9_5parse5Parse5parse, symObjAddr: 0x98B4, symBinAddr: 0x5FA04, symSize: 0x9B8 }
  - { offset: 0xD8D7A, size: 0x8, addend: 0x0, symName: __RNvXsa_NtNtCsATtFUPiRFW_3syn4expr7parsingNtB7_8ExprLoopNtNtB9_5parse5Parse5parse, symObjAddr: 0xA26C, symBinAddr: 0x603BC, symSize: 0x5A4 }
  - { offset: 0xD8F2B, size: 0x8, addend: 0x0, symName: __RNvXsb_NtNtCsATtFUPiRFW_3syn4expr7parsingNtB7_9ExprMatchNtNtB9_5parse5Parse5parse, symObjAddr: 0xA810, symBinAddr: 0x60960, symSize: 0x620 }
  - { offset: 0xD9112, size: 0x8, addend: 0x0, symName: __RNvXsc_NtNtCsATtFUPiRFW_3syn4expr7parsingNtB7_9ExprUnaryNtNtB9_5parse5Parse5parse, symObjAddr: 0xAE30, symBinAddr: 0x60F80, symSize: 0x60 }
  - { offset: 0xD9181, size: 0x8, addend: 0x0, symName: __RNvXsd_NtNtCsATtFUPiRFW_3syn4expr7parsingNtB7_11ExprClosureNtNtB9_5parse5Parse5parse, symObjAddr: 0xAE90, symBinAddr: 0x60FE0, symSize: 0x44 }
  - { offset: 0xD91CA, size: 0x8, addend: 0x0, symName: __RNvXse_NtNtCsATtFUPiRFW_3syn4expr7parsingNtB7_11ExprRawAddrNtNtB9_5parse5Parse5parse, symObjAddr: 0xAED4, symBinAddr: 0x61024, symSize: 0x40C }
  - { offset: 0xD92B0, size: 0x8, addend: 0x0, symName: __RNvXsf_NtNtCsATtFUPiRFW_3syn4expr7parsingNtB7_13ExprReferenceNtNtB9_5parse5Parse5parse, symObjAddr: 0xB2E0, symBinAddr: 0x61430, symSize: 0x35C }
  - { offset: 0xD9376, size: 0x8, addend: 0x0, symName: __RNvXsg_NtNtCsATtFUPiRFW_3syn4expr7parsingNtB7_9ExprBreakNtNtB9_5parse5Parse5parse, symObjAddr: 0xB63C, symBinAddr: 0x6178C, symSize: 0x44 }
  - { offset: 0xD93BF, size: 0x8, addend: 0x0, symName: __RNvXsh_NtNtCsATtFUPiRFW_3syn4expr7parsingNtB7_10ExprReturnNtNtB9_5parse5Parse5parse, symObjAddr: 0xB680, symBinAddr: 0x617D0, symSize: 0x224 }
  - { offset: 0xD9421, size: 0x8, addend: 0x0, symName: __RNvXsi_NtNtCsATtFUPiRFW_3syn4expr7parsingNtB7_12ExprTryBlockNtNtB9_5parse5Parse5parse, symObjAddr: 0xB8A4, symBinAddr: 0x619F4, symSize: 0x230 }
  - { offset: 0xD9493, size: 0x8, addend: 0x0, symName: __RNvXsj_NtNtCsATtFUPiRFW_3syn4expr7parsingNtB7_9ExprYieldNtNtB9_5parse5Parse5parse, symObjAddr: 0xBAD4, symBinAddr: 0x61C24, symSize: 0x224 }
  - { offset: 0xD94F5, size: 0x8, addend: 0x0, symName: __RNvXsk_NtNtCsATtFUPiRFW_3syn4expr7parsingNtB7_9ExprAsyncNtNtB9_5parse5Parse5parse, symObjAddr: 0xBCF8, symBinAddr: 0x61E48, symSize: 0x2F4 }
  - { offset: 0xD9586, size: 0x8, addend: 0x0, symName: __RNvXsl_NtNtCsATtFUPiRFW_3syn4expr7parsingNtB7_9ExprWhileNtNtB9_5parse5Parse5parse, symObjAddr: 0xBFEC, symBinAddr: 0x6213C, symSize: 0x774 }
  - { offset: 0xD97BA, size: 0x8, addend: 0x0, symName: __RNvXsm_NtNtCsATtFUPiRFW_3syn4expr7parsingNtB7_9ExprConstNtNtB9_5parse5Parse5parse, symObjAddr: 0xC760, symBinAddr: 0x628B0, symSize: 0x3C8 }
  - { offset: 0xD990E, size: 0x8, addend: 0x0, symName: __RNvXsn_NtNtCsATtFUPiRFW_3syn4expr7parsingNtB7_5LabelNtNtB9_5parse5Parse5parse, symObjAddr: 0xCB28, symBinAddr: 0x62C78, symSize: 0x1E4 }
  - { offset: 0xD999F, size: 0x8, addend: 0x0, symName: __RNvXsp_NtNtCsATtFUPiRFW_3syn4expr7parsingNtB7_12ExprContinueNtNtB9_5parse5Parse5parse, symObjAddr: 0xCD0C, symBinAddr: 0x62E5C, symSize: 0x210 }
  - { offset: 0xD9A11, size: 0x8, addend: 0x0, symName: __RNvXsq_NtNtCsATtFUPiRFW_3syn4expr7parsingNtB7_10FieldValueNtNtB9_5parse5Parse5parse, symObjAddr: 0xCF1C, symBinAddr: 0x6306C, symSize: 0x56C }
  - { offset: 0xD9BAE, size: 0x8, addend: 0x0, symName: __RNvXsr_NtNtCsATtFUPiRFW_3syn4expr7parsingNtB7_10ExprStructNtNtB9_5parse5Parse5parse, symObjAddr: 0xD488, symBinAddr: 0x635D8, symSize: 0x1C0 }
  - { offset: 0xD9C46, size: 0x8, addend: 0x0, symName: __RNvXss_NtNtCsATtFUPiRFW_3syn4expr7parsingNtB7_10ExprUnsafeNtNtB9_5parse5Parse5parse, symObjAddr: 0xD648, symBinAddr: 0x63798, symSize: 0x3C8 }
  - { offset: 0xD9D9A, size: 0x8, addend: 0x0, symName: __RNvXst_NtNtCsATtFUPiRFW_3syn4expr7parsingNtB7_9ExprBlockNtNtB9_5parse5Parse5parse, symObjAddr: 0xDA10, symBinAddr: 0x63B60, symSize: 0x510 }
  - { offset: 0xD9F1F, size: 0x8, addend: 0x0, symName: __RNvXsu_NtNtCsATtFUPiRFW_3syn4expr7parsingNtB7_11RangeLimitsNtNtB9_5parse5Parse5parse, symObjAddr: 0xDF20, symBinAddr: 0x64070, symSize: 0x24C }
  - { offset: 0xD9FAA, size: 0x8, addend: 0x0, symName: __RNvXsw_NtNtCsATtFUPiRFW_3syn4expr7parsingNtB7_8ExprPathNtNtB9_5parse5Parse5parse, symObjAddr: 0xE4C0, symBinAddr: 0x64610, symSize: 0x248 }
  - { offset: 0xDA097, size: 0x8, addend: 0x0, symName: __RNvXsx_NtNtCsATtFUPiRFW_3syn4expr7parsingNtB7_6MemberNtNtB9_5parse5Parse5parse, symObjAddr: 0xE708, symBinAddr: 0x64858, symSize: 0x110 }
  - { offset: 0xDA0CB, size: 0x8, addend: 0x0, symName: __RNvXsz_NtNtCsATtFUPiRFW_3syn4expr7parsingNtB7_3ArmNtNtB9_5parse5Parse5parse, symObjAddr: 0xE9E8, symBinAddr: 0x64B38, symSize: 0x91C }
  - { offset: 0xDA300, size: 0x8, addend: 0x0, symName: __RNvXsA_NtNtCsATtFUPiRFW_3syn4expr7parsingNtB7_5IndexNtNtB9_5parse5Parse5parse, symObjAddr: 0xF304, symBinAddr: 0x65454, symSize: 0x29C }
  - { offset: 0xDA3A8, size: 0x8, addend: 0x0, symName: __RNvXsB_NtNtCsATtFUPiRFW_3syn4expr7parsingNtB7_17PointerMutabilityNtNtB9_5parse5Parse5parse, symObjAddr: 0xF5A0, symBinAddr: 0x656F0, symSize: 0x2DC }
  - { offset: 0xDA428, size: 0x8, addend: 0x0, symName: __RNvXsC_NtNtCsATtFUPiRFW_3syn4expr7parsingNtB7_10ExprAssignNtNtB9_5parse5Parse5parse, symObjAddr: 0x12638, symBinAddr: 0x68788, symSize: 0x44C }
  - { offset: 0xDA4E7, size: 0x8, addend: 0x0, symName: __RNvXsD_NtNtCsATtFUPiRFW_3syn4expr7parsingNtB7_9ExprAwaitNtNtB9_5parse5Parse5parse, symObjAddr: 0x12A84, symBinAddr: 0x68BD4, symSize: 0x44C }
  - { offset: 0xDA5A6, size: 0x8, addend: 0x0, symName: __RNvXsE_NtNtCsATtFUPiRFW_3syn4expr7parsingNtB7_10ExprBinaryNtNtB9_5parse5Parse5parse, symObjAddr: 0x12ED0, symBinAddr: 0x69020, symSize: 0x44C }
  - { offset: 0xDA665, size: 0x8, addend: 0x0, symName: __RNvXsF_NtNtCsATtFUPiRFW_3syn4expr7parsingNtB7_8ExprCallNtNtB9_5parse5Parse5parse, symObjAddr: 0x1331C, symBinAddr: 0x6946C, symSize: 0x44C }
  - { offset: 0xDA724, size: 0x8, addend: 0x0, symName: __RNvXsG_NtNtCsATtFUPiRFW_3syn4expr7parsingNtB7_8ExprCastNtNtB9_5parse5Parse5parse, symObjAddr: 0x13768, symBinAddr: 0x698B8, symSize: 0x44C }
  - { offset: 0xDA7E3, size: 0x8, addend: 0x0, symName: __RNvXsH_NtNtCsATtFUPiRFW_3syn4expr7parsingNtB7_9ExprFieldNtNtB9_5parse5Parse5parse, symObjAddr: 0x13BB4, symBinAddr: 0x69D04, symSize: 0x44C }
  - { offset: 0xDA8A2, size: 0x8, addend: 0x0, symName: __RNvXsI_NtNtCsATtFUPiRFW_3syn4expr7parsingNtB7_9ExprIndexNtNtB9_5parse5Parse5parse, symObjAddr: 0x14000, symBinAddr: 0x6A150, symSize: 0x44C }
  - { offset: 0xDA961, size: 0x8, addend: 0x0, symName: __RNvXsJ_NtNtCsATtFUPiRFW_3syn4expr7parsingNtB7_14ExprMethodCallNtNtB9_5parse5Parse5parse, symObjAddr: 0x1444C, symBinAddr: 0x6A59C, symSize: 0x44C }
  - { offset: 0xDAA20, size: 0x8, addend: 0x0, symName: __RNvXsK_NtNtCsATtFUPiRFW_3syn4expr7parsingNtB7_9ExprRangeNtNtB9_5parse5Parse5parse, symObjAddr: 0x14898, symBinAddr: 0x6A9E8, symSize: 0x44C }
  - { offset: 0xDAADF, size: 0x8, addend: 0x0, symName: __RNvXsL_NtNtCsATtFUPiRFW_3syn4expr7parsingNtB7_7ExprTryNtNtB9_5parse5Parse5parse, symObjAddr: 0x14CE4, symBinAddr: 0x6AE34, symSize: 0x44C }
  - { offset: 0xDAB9E, size: 0x8, addend: 0x0, symName: __RNvXsM_NtNtCsATtFUPiRFW_3syn4expr7parsingNtB7_9ExprTupleNtNtB9_5parse5Parse5parse, symObjAddr: 0x15130, symBinAddr: 0x6B280, symSize: 0x44C }
  - { offset: 0xDAC78, size: 0x8, addend: 0x0, symName: __RNvXNtNtCsATtFUPiRFW_3syn4expr8printingNtB4_9ExprArrayNtNtCs62MdaZFMefA_5quote9to_tokens8ToTokens9to_tokens, symObjAddr: 0xF87C, symBinAddr: 0x659CC, symSize: 0x58 }
  - { offset: 0xDACB7, size: 0x8, addend: 0x0, symName: __RNvXs_NtNtCsATtFUPiRFW_3syn4expr8printingNtB6_10ExprAssignNtNtCs62MdaZFMefA_5quote9to_tokens8ToTokens9to_tokens, symObjAddr: 0xF8D4, symBinAddr: 0x65A24, symSize: 0x58 }
  - { offset: 0xDACF6, size: 0x8, addend: 0x0, symName: __RNvXs0_NtNtCsATtFUPiRFW_3syn4expr8printingNtB7_9ExprAsyncNtNtCs62MdaZFMefA_5quote9to_tokens8ToTokens9to_tokens, symObjAddr: 0xF92C, symBinAddr: 0x65A7C, symSize: 0x74 }
  - { offset: 0xDAD35, size: 0x8, addend: 0x0, symName: __RNvXs1_NtNtCsATtFUPiRFW_3syn4expr8printingNtB7_9ExprAwaitNtNtCs62MdaZFMefA_5quote9to_tokens8ToTokens9to_tokens, symObjAddr: 0xF9A0, symBinAddr: 0x65AF0, symSize: 0x58 }
  - { offset: 0xDAD74, size: 0x8, addend: 0x0, symName: __RNvXs2_NtNtCsATtFUPiRFW_3syn4expr8printingNtB7_10ExprBinaryNtNtCs62MdaZFMefA_5quote9to_tokens8ToTokens9to_tokens, symObjAddr: 0xF9F8, symBinAddr: 0x65B48, symSize: 0x58 }
  - { offset: 0xDADB3, size: 0x8, addend: 0x0, symName: __RNvXs3_NtNtCsATtFUPiRFW_3syn4expr8printingNtB7_9ExprBlockNtNtCs62MdaZFMefA_5quote9to_tokens8ToTokens9to_tokens, symObjAddr: 0xFA50, symBinAddr: 0x65BA0, symSize: 0x68 }
  - { offset: 0xDADF2, size: 0x8, addend: 0x0, symName: __RNvXs4_NtNtCsATtFUPiRFW_3syn4expr8printingNtB7_9ExprBreakNtNtCs62MdaZFMefA_5quote9to_tokens8ToTokens9to_tokens, symObjAddr: 0xFAB8, symBinAddr: 0x65C08, symSize: 0x58 }
  - { offset: 0xDAE31, size: 0x8, addend: 0x0, symName: __RNvXs5_NtNtCsATtFUPiRFW_3syn4expr8printingNtB7_8ExprCallNtNtCs62MdaZFMefA_5quote9to_tokens8ToTokens9to_tokens, symObjAddr: 0xFB10, symBinAddr: 0x65C60, symSize: 0x58 }
  - { offset: 0xDAE70, size: 0x8, addend: 0x0, symName: __RNvXs6_NtNtCsATtFUPiRFW_3syn4expr8printingNtB7_8ExprCastNtNtCs62MdaZFMefA_5quote9to_tokens8ToTokens9to_tokens, symObjAddr: 0xFB68, symBinAddr: 0x65CB8, symSize: 0x58 }
  - { offset: 0xDAEAF, size: 0x8, addend: 0x0, symName: __RNvXs7_NtNtCsATtFUPiRFW_3syn4expr8printingNtB7_11ExprClosureNtNtCs62MdaZFMefA_5quote9to_tokens8ToTokens9to_tokens, symObjAddr: 0xFBC0, symBinAddr: 0x65D10, symSize: 0x58 }
  - { offset: 0xDAEEE, size: 0x8, addend: 0x0, symName: __RNvXs8_NtNtCsATtFUPiRFW_3syn4expr8printingNtB7_9ExprConstNtNtCs62MdaZFMefA_5quote9to_tokens8ToTokens9to_tokens, symObjAddr: 0xFC18, symBinAddr: 0x65D68, symSize: 0x68 }
  - { offset: 0xDAF2D, size: 0x8, addend: 0x0, symName: __RNvXs9_NtNtCsATtFUPiRFW_3syn4expr8printingNtB7_12ExprContinueNtNtCs62MdaZFMefA_5quote9to_tokens8ToTokens9to_tokens, symObjAddr: 0xFC80, symBinAddr: 0x65DD0, symSize: 0x64 }
  - { offset: 0xDAF6C, size: 0x8, addend: 0x0, symName: __RNvXsa_NtNtCsATtFUPiRFW_3syn4expr8printingNtB7_9ExprFieldNtNtCs62MdaZFMefA_5quote9to_tokens8ToTokens9to_tokens, symObjAddr: 0xFCE4, symBinAddr: 0x65E34, symSize: 0x58 }
  - { offset: 0xDAFAB, size: 0x8, addend: 0x0, symName: __RNvXsb_NtNtCsATtFUPiRFW_3syn4expr8printingNtB7_11ExprForLoopNtNtCs62MdaZFMefA_5quote9to_tokens8ToTokens9to_tokens, symObjAddr: 0xFD3C, symBinAddr: 0x65E8C, symSize: 0xC0 }
  - { offset: 0xDAFEA, size: 0x8, addend: 0x0, symName: __RNvXsc_NtNtCsATtFUPiRFW_3syn4expr8printingNtB7_9ExprGroupNtNtCs62MdaZFMefA_5quote9to_tokens8ToTokens9to_tokens, symObjAddr: 0xFDFC, symBinAddr: 0x65F4C, symSize: 0x58 }
  - { offset: 0xDB029, size: 0x8, addend: 0x0, symName: __RNvXsd_NtNtCsATtFUPiRFW_3syn4expr8printingNtB7_6ExprIfNtNtCs62MdaZFMefA_5quote9to_tokens8ToTokens9to_tokens, symObjAddr: 0xFE54, symBinAddr: 0x65FA4, symSize: 0x1DC }
  - { offset: 0xDB0FF, size: 0x8, addend: 0x0, symName: __RNvXse_NtNtCsATtFUPiRFW_3syn4expr8printingNtB7_9ExprIndexNtNtCs62MdaZFMefA_5quote9to_tokens8ToTokens9to_tokens, symObjAddr: 0x10030, symBinAddr: 0x66180, symSize: 0x58 }
  - { offset: 0xDB13E, size: 0x8, addend: 0x0, symName: __RNvXsf_NtNtCsATtFUPiRFW_3syn4expr8printingNtB7_9ExprInferNtNtCs62MdaZFMefA_5quote9to_tokens8ToTokens9to_tokens, symObjAddr: 0x10088, symBinAddr: 0x661D8, symSize: 0x54 }
  - { offset: 0xDB17D, size: 0x8, addend: 0x0, symName: __RNvXsg_NtNtCsATtFUPiRFW_3syn4expr8printingNtB7_7ExprLetNtNtCs62MdaZFMefA_5quote9to_tokens8ToTokens9to_tokens, symObjAddr: 0x100DC, symBinAddr: 0x6622C, symSize: 0x58 }
  - { offset: 0xDB1BC, size: 0x8, addend: 0x0, symName: __RNvXsh_NtNtCsATtFUPiRFW_3syn4expr8printingNtB7_7ExprLitNtNtCs62MdaZFMefA_5quote9to_tokens8ToTokens9to_tokens, symObjAddr: 0x10134, symBinAddr: 0x66284, symSize: 0x54 }
  - { offset: 0xDB1FB, size: 0x8, addend: 0x0, symName: __RNvXsi_NtNtCsATtFUPiRFW_3syn4expr8printingNtB7_8ExprLoopNtNtCs62MdaZFMefA_5quote9to_tokens8ToTokens9to_tokens, symObjAddr: 0x10188, symBinAddr: 0x662D8, symSize: 0x78 }
  - { offset: 0xDB23A, size: 0x8, addend: 0x0, symName: __RNvXsj_NtNtCsATtFUPiRFW_3syn4expr8printingNtB7_9ExprMacroNtNtCs62MdaZFMefA_5quote9to_tokens8ToTokens9to_tokens, symObjAddr: 0x10200, symBinAddr: 0x66350, symSize: 0x54 }
  - { offset: 0xDB279, size: 0x8, addend: 0x0, symName: __RNvXsk_NtNtCsATtFUPiRFW_3syn4expr8printingNtB7_9ExprMatchNtNtCs62MdaZFMefA_5quote9to_tokens8ToTokens9to_tokens, symObjAddr: 0x10254, symBinAddr: 0x663A4, symSize: 0x90 }
  - { offset: 0xDB2B8, size: 0x8, addend: 0x0, symName: __RNvXsl_NtNtCsATtFUPiRFW_3syn4expr8printingNtB7_14ExprMethodCallNtNtCs62MdaZFMefA_5quote9to_tokens8ToTokens9to_tokens, symObjAddr: 0x102E4, symBinAddr: 0x66434, symSize: 0x58 }
  - { offset: 0xDB2F7, size: 0x8, addend: 0x0, symName: __RNvXsm_NtNtCsATtFUPiRFW_3syn4expr8printingNtB7_9ExprParenNtNtCs62MdaZFMefA_5quote9to_tokens8ToTokens9to_tokens, symObjAddr: 0x1033C, symBinAddr: 0x6648C, symSize: 0x58 }
  - { offset: 0xDB336, size: 0x8, addend: 0x0, symName: __RNvXsn_NtNtCsATtFUPiRFW_3syn4expr8printingNtB7_8ExprPathNtNtCs62MdaZFMefA_5quote9to_tokens8ToTokens9to_tokens, symObjAddr: 0x10394, symBinAddr: 0x664E4, symSize: 0x64 }
  - { offset: 0xDB375, size: 0x8, addend: 0x0, symName: __RNvXso_NtNtCsATtFUPiRFW_3syn4expr8printingNtB7_9ExprRangeNtNtCs62MdaZFMefA_5quote9to_tokens8ToTokens9to_tokens, symObjAddr: 0x103F8, symBinAddr: 0x66548, symSize: 0x58 }
  - { offset: 0xDB3B4, size: 0x8, addend: 0x0, symName: __RNvXsp_NtNtCsATtFUPiRFW_3syn4expr8printingNtB7_11ExprRawAddrNtNtCs62MdaZFMefA_5quote9to_tokens8ToTokens9to_tokens, symObjAddr: 0x10450, symBinAddr: 0x665A0, symSize: 0x58 }
  - { offset: 0xDB3F3, size: 0x8, addend: 0x0, symName: __RNvXsq_NtNtCsATtFUPiRFW_3syn4expr8printingNtB7_13ExprReferenceNtNtCs62MdaZFMefA_5quote9to_tokens8ToTokens9to_tokens, symObjAddr: 0x104A8, symBinAddr: 0x665F8, symSize: 0x58 }
  - { offset: 0xDB432, size: 0x8, addend: 0x0, symName: __RNvXsr_NtNtCsATtFUPiRFW_3syn4expr8printingNtB7_10ExprRepeatNtNtCs62MdaZFMefA_5quote9to_tokens8ToTokens9to_tokens, symObjAddr: 0x10500, symBinAddr: 0x66650, symSize: 0x58 }
  - { offset: 0xDB471, size: 0x8, addend: 0x0, symName: __RNvXss_NtNtCsATtFUPiRFW_3syn4expr8printingNtB7_10ExprReturnNtNtCs62MdaZFMefA_5quote9to_tokens8ToTokens9to_tokens, symObjAddr: 0x10558, symBinAddr: 0x666A8, symSize: 0x58 }
  - { offset: 0xDB4B0, size: 0x8, addend: 0x0, symName: __RNvXst_NtNtCsATtFUPiRFW_3syn4expr8printingNtB7_10ExprStructNtNtCs62MdaZFMefA_5quote9to_tokens8ToTokens9to_tokens, symObjAddr: 0x105B0, symBinAddr: 0x66700, symSize: 0x78 }
  - { offset: 0xDB4EF, size: 0x8, addend: 0x0, symName: __RNvXsu_NtNtCsATtFUPiRFW_3syn4expr8printingNtB7_7ExprTryNtNtCs62MdaZFMefA_5quote9to_tokens8ToTokens9to_tokens, symObjAddr: 0x10628, symBinAddr: 0x66778, symSize: 0x58 }
  - { offset: 0xDB52E, size: 0x8, addend: 0x0, symName: __RNvXsv_NtNtCsATtFUPiRFW_3syn4expr8printingNtB7_12ExprTryBlockNtNtCs62MdaZFMefA_5quote9to_tokens8ToTokens9to_tokens, symObjAddr: 0x10680, symBinAddr: 0x667D0, symSize: 0x64 }
  - { offset: 0xDB56D, size: 0x8, addend: 0x0, symName: __RNvXsw_NtNtCsATtFUPiRFW_3syn4expr8printingNtB7_9ExprTupleNtNtCs62MdaZFMefA_5quote9to_tokens8ToTokens9to_tokens, symObjAddr: 0x106E4, symBinAddr: 0x66834, symSize: 0x58 }
  - { offset: 0xDB5AC, size: 0x8, addend: 0x0, symName: __RNvXsx_NtNtCsATtFUPiRFW_3syn4expr8printingNtB7_9ExprUnaryNtNtCs62MdaZFMefA_5quote9to_tokens8ToTokens9to_tokens, symObjAddr: 0x1073C, symBinAddr: 0x6688C, symSize: 0x58 }
  - { offset: 0xDB5EB, size: 0x8, addend: 0x0, symName: __RNvXsy_NtNtCsATtFUPiRFW_3syn4expr8printingNtB7_10ExprUnsafeNtNtCs62MdaZFMefA_5quote9to_tokens8ToTokens9to_tokens, symObjAddr: 0x10794, symBinAddr: 0x668E4, symSize: 0x68 }
  - { offset: 0xDB62A, size: 0x8, addend: 0x0, symName: __RNvXsz_NtNtCsATtFUPiRFW_3syn4expr8printingNtB7_9ExprWhileNtNtCs62MdaZFMefA_5quote9to_tokens8ToTokens9to_tokens, symObjAddr: 0x107FC, symBinAddr: 0x6694C, symSize: 0xA0 }
  - { offset: 0xDB669, size: 0x8, addend: 0x0, symName: __RNvXsA_NtNtCsATtFUPiRFW_3syn4expr8printingNtB7_9ExprYieldNtNtCs62MdaZFMefA_5quote9to_tokens8ToTokens9to_tokens, symObjAddr: 0x1089C, symBinAddr: 0x669EC, symSize: 0x58 }
  - { offset: 0xDB6A8, size: 0x8, addend: 0x0, symName: __RNvXsB_NtNtCsATtFUPiRFW_3syn4expr8printingNtB7_3ArmNtNtCs62MdaZFMefA_5quote9to_tokens8ToTokens9to_tokens, symObjAddr: 0x108F4, symBinAddr: 0x66A44, symSize: 0x10C }
  - { offset: 0xDB715, size: 0x8, addend: 0x0, symName: __RNvXsC_NtNtCsATtFUPiRFW_3syn4expr8printingNtB7_10FieldValueNtNtCs62MdaZFMefA_5quote9to_tokens8ToTokens9to_tokens, symObjAddr: 0x10A00, symBinAddr: 0x66B50, symSize: 0xB0 }
  - { offset: 0xDB772, size: 0x8, addend: 0x0, symName: __RNvXsD_NtNtCsATtFUPiRFW_3syn4expr8printingNtB7_5IndexNtNtCs62MdaZFMefA_5quote9to_tokens8ToTokens9to_tokens, symObjAddr: 0x10AB0, symBinAddr: 0x66C00, symSize: 0xD4 }
  - { offset: 0xDB7C7, size: 0x8, addend: 0x0, symName: __RNvXsE_NtNtCsATtFUPiRFW_3syn4expr8printingNtB7_5LabelNtNtCs62MdaZFMefA_5quote9to_tokens8ToTokens9to_tokens, symObjAddr: 0x10B84, symBinAddr: 0x66CD4, symSize: 0x50 }
  - { offset: 0xDB806, size: 0x8, addend: 0x0, symName: __RNvXsF_NtNtCsATtFUPiRFW_3syn4expr8printingNtB7_6MemberNtNtCs62MdaZFMefA_5quote9to_tokens8ToTokens9to_tokens, symObjAddr: 0x10BD4, symBinAddr: 0x66D24, symSize: 0x98 }
  - { offset: 0xDB879, size: 0x8, addend: 0x0, symName: __RNvXsG_NtNtCsATtFUPiRFW_3syn4expr8printingNtB7_11RangeLimitsNtNtCs62MdaZFMefA_5quote9to_tokens8ToTokens9to_tokens, symObjAddr: 0x10C6C, symBinAddr: 0x66DBC, symSize: 0x94 }
  - { offset: 0xDB8EC, size: 0x8, addend: 0x0, symName: __RNvXsH_NtNtCsATtFUPiRFW_3syn4expr8printingNtB7_17PointerMutabilityNtNtCs62MdaZFMefA_5quote9to_tokens8ToTokens9to_tokens, symObjAddr: 0x10D00, symBinAddr: 0x66E50, symSize: 0x94 }
  - { offset: 0xDB965, size: 0x8, addend: 0x0, symName: __RNcNtNtNtCsATtFUPiRFW_3syn4expr4Expr5Async0B7_, symObjAddr: 0x10D94, symBinAddr: 0x66EE4, symSize: 0x3C }
  - { offset: 0xDB994, size: 0x8, addend: 0x0, symName: __RNcNtNtNtCsATtFUPiRFW_3syn4expr4Expr5Block0B7_, symObjAddr: 0x10DD0, symBinAddr: 0x66F20, symSize: 0x3C }
  - { offset: 0xDB9C3, size: 0x8, addend: 0x0, symName: __RNcNtNtNtCsATtFUPiRFW_3syn4expr4Expr5Break0B7_, symObjAddr: 0x10E0C, symBinAddr: 0x66F5C, symSize: 0x3C }
  - { offset: 0xDB9F2, size: 0x8, addend: 0x0, symName: __RNcNtNtNtCsATtFUPiRFW_3syn4expr4Expr7Closure0B7_, symObjAddr: 0x10E48, symBinAddr: 0x66F98, symSize: 0x3C }
  - { offset: 0xDBA21, size: 0x8, addend: 0x0, symName: __RNcNtNtNtCsATtFUPiRFW_3syn4expr4Expr5Const0B7_, symObjAddr: 0x10E84, symBinAddr: 0x66FD4, symSize: 0x3C }
  - { offset: 0xDBA50, size: 0x8, addend: 0x0, symName: __RNcNtNtNtCsATtFUPiRFW_3syn4expr4Expr8Continue0B7_, symObjAddr: 0x10EC0, symBinAddr: 0x67010, symSize: 0x3C }
  - { offset: 0xDBA7F, size: 0x8, addend: 0x0, symName: __RNcNtNtNtCsATtFUPiRFW_3syn4expr4Expr7ForLoop0B7_, symObjAddr: 0x10EFC, symBinAddr: 0x6704C, symSize: 0x3C }
  - { offset: 0xDBAAE, size: 0x8, addend: 0x0, symName: __RNcNtNtNtCsATtFUPiRFW_3syn4expr4Expr2If0B7_, symObjAddr: 0x10F38, symBinAddr: 0x67088, symSize: 0x3C }
  - { offset: 0xDBADD, size: 0x8, addend: 0x0, symName: __RNcNtNtNtCsATtFUPiRFW_3syn4expr4Expr5Infer0B7_, symObjAddr: 0x10F74, symBinAddr: 0x670C4, symSize: 0x20 }
  - { offset: 0xDBB0B, size: 0x8, addend: 0x0, symName: __RNcNtNtNtCsATtFUPiRFW_3syn4expr4Expr3Let0B7_, symObjAddr: 0x10F94, symBinAddr: 0x670E4, symSize: 0x3C }
  - { offset: 0xDBB3A, size: 0x8, addend: 0x0, symName: __RNcNtNtNtCsATtFUPiRFW_3syn4expr4Expr3Lit0B7_, symObjAddr: 0x10FD0, symBinAddr: 0x67120, symSize: 0x3C }
  - { offset: 0xDBB69, size: 0x8, addend: 0x0, symName: __RNcNtNtNtCsATtFUPiRFW_3syn4expr4Expr4Loop0B7_, symObjAddr: 0x1100C, symBinAddr: 0x6715C, symSize: 0x3C }
  - { offset: 0xDBB98, size: 0x8, addend: 0x0, symName: __RNcNtNtNtCsATtFUPiRFW_3syn4expr4Expr5Match0B7_, symObjAddr: 0x11048, symBinAddr: 0x67198, symSize: 0x3C }
  - { offset: 0xDBBC7, size: 0x8, addend: 0x0, symName: __RNcNtNtNtCsATtFUPiRFW_3syn4expr4Expr5Range0B7_, symObjAddr: 0x11084, symBinAddr: 0x671D4, symSize: 0x3C }
  - { offset: 0xDBBF6, size: 0x8, addend: 0x0, symName: __RNcNtNtNtCsATtFUPiRFW_3syn4expr4Expr6Return0B7_, symObjAddr: 0x110C0, symBinAddr: 0x67210, symSize: 0x3C }
  - { offset: 0xDBC25, size: 0x8, addend: 0x0, symName: __RNcNtNtNtCsATtFUPiRFW_3syn4expr4Expr6Struct0B7_, symObjAddr: 0x110FC, symBinAddr: 0x6724C, symSize: 0x3C }
  - { offset: 0xDBC54, size: 0x8, addend: 0x0, symName: __RNcNtNtNtCsATtFUPiRFW_3syn4expr4Expr8TryBlock0B7_, symObjAddr: 0x11138, symBinAddr: 0x67288, symSize: 0x3C }
  - { offset: 0xDBC83, size: 0x8, addend: 0x0, symName: __RNcNtNtNtCsATtFUPiRFW_3syn4expr4Expr5Unary0B7_, symObjAddr: 0x11174, symBinAddr: 0x672C4, symSize: 0x3C }
  - { offset: 0xDBCB2, size: 0x8, addend: 0x0, symName: __RNcNtNtNtCsATtFUPiRFW_3syn4expr4Expr6Unsafe0B7_, symObjAddr: 0x111B0, symBinAddr: 0x67300, symSize: 0x3C }
  - { offset: 0xDBCE1, size: 0x8, addend: 0x0, symName: __RNcNtNtNtCsATtFUPiRFW_3syn4expr4Expr5While0B7_, symObjAddr: 0x111EC, symBinAddr: 0x6733C, symSize: 0x3C }
  - { offset: 0xDBD10, size: 0x8, addend: 0x0, symName: __RNcNtNtNtCsATtFUPiRFW_3syn4expr4Expr5Yield0B7_, symObjAddr: 0x11228, symBinAddr: 0x67378, symSize: 0x3C }
  - { offset: 0xDBD40, size: 0x8, addend: 0x0, symName: __RNvXsc_NtCsATtFUPiRFW_3syn4exprNtB5_4ExprINtNtCs9f3LFPSIp77_4core7convert4FromNtB5_9ExprArrayE4from, symObjAddr: 0x11264, symBinAddr: 0x673B4, symSize: 0x48 }
  - { offset: 0xDBD73, size: 0x8, addend: 0x0, symName: __RNvXsd_NtCsATtFUPiRFW_3syn4exprNtB5_4ExprINtNtCs9f3LFPSIp77_4core7convert4FromNtB5_10ExprAssignE4from, symObjAddr: 0x112AC, symBinAddr: 0x673FC, symSize: 0x50 }
  - { offset: 0xDBDA6, size: 0x8, addend: 0x0, symName: __RNvXse_NtCsATtFUPiRFW_3syn4exprNtB5_4ExprINtNtCs9f3LFPSIp77_4core7convert4FromNtB5_9ExprAsyncE4from, symObjAddr: 0x112FC, symBinAddr: 0x6744C, symSize: 0x4C }
  - { offset: 0xDBDD9, size: 0x8, addend: 0x0, symName: __RNvXsf_NtCsATtFUPiRFW_3syn4exprNtB5_4ExprINtNtCs9f3LFPSIp77_4core7convert4FromNtB5_9ExprAwaitE4from, symObjAddr: 0x11348, symBinAddr: 0x67498, symSize: 0x4C }
  - { offset: 0xDBE0C, size: 0x8, addend: 0x0, symName: __RNvXsg_NtCsATtFUPiRFW_3syn4exprNtB5_4ExprINtNtCs9f3LFPSIp77_4core7convert4FromNtB5_10ExprBinaryE4from, symObjAddr: 0x11394, symBinAddr: 0x674E4, symSize: 0x4C }
  - { offset: 0xDBE3F, size: 0x8, addend: 0x0, symName: __RNvXsh_NtCsATtFUPiRFW_3syn4exprNtB5_4ExprINtNtCs9f3LFPSIp77_4core7convert4FromNtB5_9ExprBlockE4from, symObjAddr: 0x113E0, symBinAddr: 0x67530, symSize: 0x4C }
  - { offset: 0xDBE72, size: 0x8, addend: 0x0, symName: __RNvXsi_NtCsATtFUPiRFW_3syn4exprNtB5_4ExprINtNtCs9f3LFPSIp77_4core7convert4FromNtB5_9ExprBreakE4from, symObjAddr: 0x1142C, symBinAddr: 0x6757C, symSize: 0x4C }
  - { offset: 0xDBEA5, size: 0x8, addend: 0x0, symName: __RNvXsj_NtCsATtFUPiRFW_3syn4exprNtB5_4ExprINtNtCs9f3LFPSIp77_4core7convert4FromNtB5_8ExprCallE4from, symObjAddr: 0x11478, symBinAddr: 0x675C8, symSize: 0x4C }
  - { offset: 0xDBED8, size: 0x8, addend: 0x0, symName: __RNvXsk_NtCsATtFUPiRFW_3syn4exprNtB5_4ExprINtNtCs9f3LFPSIp77_4core7convert4FromNtB5_8ExprCastE4from, symObjAddr: 0x114C4, symBinAddr: 0x67614, symSize: 0x4C }
  - { offset: 0xDBF0B, size: 0x8, addend: 0x0, symName: __RNvXsl_NtCsATtFUPiRFW_3syn4exprNtB5_4ExprINtNtCs9f3LFPSIp77_4core7convert4FromNtB5_11ExprClosureE4from, symObjAddr: 0x11510, symBinAddr: 0x67660, symSize: 0x4C }
  - { offset: 0xDBF3E, size: 0x8, addend: 0x0, symName: __RNvXsm_NtCsATtFUPiRFW_3syn4exprNtB5_4ExprINtNtCs9f3LFPSIp77_4core7convert4FromNtB5_9ExprConstE4from, symObjAddr: 0x1155C, symBinAddr: 0x676AC, symSize: 0x4C }
  - { offset: 0xDBF71, size: 0x8, addend: 0x0, symName: __RNvXsn_NtCsATtFUPiRFW_3syn4exprNtB5_4ExprINtNtCs9f3LFPSIp77_4core7convert4FromNtB5_12ExprContinueE4from, symObjAddr: 0x115A8, symBinAddr: 0x676F8, symSize: 0x4C }
  - { offset: 0xDBFA4, size: 0x8, addend: 0x0, symName: __RNvXso_NtCsATtFUPiRFW_3syn4exprNtB5_4ExprINtNtCs9f3LFPSIp77_4core7convert4FromNtB5_9ExprFieldE4from, symObjAddr: 0x115F4, symBinAddr: 0x67744, symSize: 0x4C }
  - { offset: 0xDBFD7, size: 0x8, addend: 0x0, symName: __RNvXsp_NtCsATtFUPiRFW_3syn4exprNtB5_4ExprINtNtCs9f3LFPSIp77_4core7convert4FromNtB5_11ExprForLoopE4from, symObjAddr: 0x11640, symBinAddr: 0x67790, symSize: 0x4C }
  - { offset: 0xDC00A, size: 0x8, addend: 0x0, symName: __RNvXsq_NtCsATtFUPiRFW_3syn4exprNtB5_4ExprINtNtCs9f3LFPSIp77_4core7convert4FromNtB5_9ExprGroupE4from, symObjAddr: 0x1168C, symBinAddr: 0x677DC, symSize: 0x4C }
  - { offset: 0xDC03D, size: 0x8, addend: 0x0, symName: __RNvXsr_NtCsATtFUPiRFW_3syn4exprNtB5_4ExprINtNtCs9f3LFPSIp77_4core7convert4FromNtB5_6ExprIfE4from, symObjAddr: 0x116D8, symBinAddr: 0x67828, symSize: 0x4C }
  - { offset: 0xDC070, size: 0x8, addend: 0x0, symName: __RNvXss_NtCsATtFUPiRFW_3syn4exprNtB5_4ExprINtNtCs9f3LFPSIp77_4core7convert4FromNtB5_9ExprIndexE4from, symObjAddr: 0x11724, symBinAddr: 0x67874, symSize: 0x4C }
  - { offset: 0xDC0A3, size: 0x8, addend: 0x0, symName: __RNvXst_NtCsATtFUPiRFW_3syn4exprNtB5_4ExprINtNtCs9f3LFPSIp77_4core7convert4FromNtB5_9ExprInferE4from, symObjAddr: 0x11770, symBinAddr: 0x678C0, symSize: 0x30 }
  - { offset: 0xDC0D5, size: 0x8, addend: 0x0, symName: __RNvXsu_NtCsATtFUPiRFW_3syn4exprNtB5_4ExprINtNtCs9f3LFPSIp77_4core7convert4FromNtB5_7ExprLetE4from, symObjAddr: 0x117A0, symBinAddr: 0x678F0, symSize: 0x4C }
  - { offset: 0xDC108, size: 0x8, addend: 0x0, symName: __RNvXsv_NtCsATtFUPiRFW_3syn4exprNtB5_4ExprINtNtCs9f3LFPSIp77_4core7convert4FromNtB5_7ExprLitE4from, symObjAddr: 0x117EC, symBinAddr: 0x6793C, symSize: 0x4C }
  - { offset: 0xDC13B, size: 0x8, addend: 0x0, symName: __RNvXsw_NtCsATtFUPiRFW_3syn4exprNtB5_4ExprINtNtCs9f3LFPSIp77_4core7convert4FromNtB5_8ExprLoopE4from, symObjAddr: 0x11838, symBinAddr: 0x67988, symSize: 0x4C }
  - { offset: 0xDC16E, size: 0x8, addend: 0x0, symName: __RNvXsx_NtCsATtFUPiRFW_3syn4exprNtB5_4ExprINtNtCs9f3LFPSIp77_4core7convert4FromNtB5_9ExprMacroE4from, symObjAddr: 0x11884, symBinAddr: 0x679D4, symSize: 0x4C }
  - { offset: 0xDC1A1, size: 0x8, addend: 0x0, symName: __RNvXsy_NtCsATtFUPiRFW_3syn4exprNtB5_4ExprINtNtCs9f3LFPSIp77_4core7convert4FromNtB5_9ExprMatchE4from, symObjAddr: 0x118D0, symBinAddr: 0x67A20, symSize: 0x4C }
  - { offset: 0xDC1D4, size: 0x8, addend: 0x0, symName: __RNvXsz_NtCsATtFUPiRFW_3syn4exprNtB5_4ExprINtNtCs9f3LFPSIp77_4core7convert4FromNtB5_14ExprMethodCallE4from, symObjAddr: 0x1191C, symBinAddr: 0x67A6C, symSize: 0x4C }
  - { offset: 0xDC207, size: 0x8, addend: 0x0, symName: __RNvXsA_NtCsATtFUPiRFW_3syn4exprNtB5_4ExprINtNtCs9f3LFPSIp77_4core7convert4FromNtB5_9ExprParenE4from, symObjAddr: 0x11968, symBinAddr: 0x67AB8, symSize: 0x4C }
  - { offset: 0xDC23A, size: 0x8, addend: 0x0, symName: __RNvXsB_NtCsATtFUPiRFW_3syn4exprNtB5_4ExprINtNtCs9f3LFPSIp77_4core7convert4FromNtB5_8ExprPathE4from, symObjAddr: 0x119B4, symBinAddr: 0x67B04, symSize: 0x4C }
  - { offset: 0xDC26D, size: 0x8, addend: 0x0, symName: __RNvXsC_NtCsATtFUPiRFW_3syn4exprNtB5_4ExprINtNtCs9f3LFPSIp77_4core7convert4FromNtB5_9ExprRangeE4from, symObjAddr: 0x11A00, symBinAddr: 0x67B50, symSize: 0x4C }
  - { offset: 0xDC2A0, size: 0x8, addend: 0x0, symName: __RNvXsD_NtCsATtFUPiRFW_3syn4exprNtB5_4ExprINtNtCs9f3LFPSIp77_4core7convert4FromNtB5_11ExprRawAddrE4from, symObjAddr: 0x11A4C, symBinAddr: 0x67B9C, symSize: 0x4C }
  - { offset: 0xDC2D3, size: 0x8, addend: 0x0, symName: __RNvXsE_NtCsATtFUPiRFW_3syn4exprNtB5_4ExprINtNtCs9f3LFPSIp77_4core7convert4FromNtB5_13ExprReferenceE4from, symObjAddr: 0x11A98, symBinAddr: 0x67BE8, symSize: 0x4C }
  - { offset: 0xDC306, size: 0x8, addend: 0x0, symName: __RNvXsF_NtCsATtFUPiRFW_3syn4exprNtB5_4ExprINtNtCs9f3LFPSIp77_4core7convert4FromNtB5_10ExprRepeatE4from, symObjAddr: 0x11AE4, symBinAddr: 0x67C34, symSize: 0x4C }
  - { offset: 0xDC339, size: 0x8, addend: 0x0, symName: __RNvXsG_NtCsATtFUPiRFW_3syn4exprNtB5_4ExprINtNtCs9f3LFPSIp77_4core7convert4FromNtB5_10ExprReturnE4from, symObjAddr: 0x11B30, symBinAddr: 0x67C80, symSize: 0x4C }
  - { offset: 0xDC36C, size: 0x8, addend: 0x0, symName: __RNvXsH_NtCsATtFUPiRFW_3syn4exprNtB5_4ExprINtNtCs9f3LFPSIp77_4core7convert4FromNtB5_10ExprStructE4from, symObjAddr: 0x11B7C, symBinAddr: 0x67CCC, symSize: 0x4C }
  - { offset: 0xDC39F, size: 0x8, addend: 0x0, symName: __RNvXsI_NtCsATtFUPiRFW_3syn4exprNtB5_4ExprINtNtCs9f3LFPSIp77_4core7convert4FromNtB5_7ExprTryE4from, symObjAddr: 0x11BC8, symBinAddr: 0x67D18, symSize: 0x4C }
  - { offset: 0xDC3D2, size: 0x8, addend: 0x0, symName: __RNvXsJ_NtCsATtFUPiRFW_3syn4exprNtB5_4ExprINtNtCs9f3LFPSIp77_4core7convert4FromNtB5_12ExprTryBlockE4from, symObjAddr: 0x11C14, symBinAddr: 0x67D64, symSize: 0x4C }
  - { offset: 0xDC405, size: 0x8, addend: 0x0, symName: __RNvXsK_NtCsATtFUPiRFW_3syn4exprNtB5_4ExprINtNtCs9f3LFPSIp77_4core7convert4FromNtB5_9ExprTupleE4from, symObjAddr: 0x11C60, symBinAddr: 0x67DB0, symSize: 0x4C }
  - { offset: 0xDC438, size: 0x8, addend: 0x0, symName: __RNvXsL_NtCsATtFUPiRFW_3syn4exprNtB5_4ExprINtNtCs9f3LFPSIp77_4core7convert4FromNtB5_9ExprUnaryE4from, symObjAddr: 0x11CAC, symBinAddr: 0x67DFC, symSize: 0x4C }
  - { offset: 0xDC46B, size: 0x8, addend: 0x0, symName: __RNvXsM_NtCsATtFUPiRFW_3syn4exprNtB5_4ExprINtNtCs9f3LFPSIp77_4core7convert4FromNtB5_10ExprUnsafeE4from, symObjAddr: 0x11CF8, symBinAddr: 0x67E48, symSize: 0x4C }
  - { offset: 0xDC49E, size: 0x8, addend: 0x0, symName: __RNvXsN_NtCsATtFUPiRFW_3syn4exprNtB5_4ExprINtNtCs9f3LFPSIp77_4core7convert4FromNtB5_9ExprWhileE4from, symObjAddr: 0x11D44, symBinAddr: 0x67E94, symSize: 0x4C }
  - { offset: 0xDC4D1, size: 0x8, addend: 0x0, symName: __RNvXsO_NtCsATtFUPiRFW_3syn4exprNtB5_4ExprINtNtCs9f3LFPSIp77_4core7convert4FromNtB5_9ExprYieldE4from, symObjAddr: 0x11D90, symBinAddr: 0x67EE0, symSize: 0x4C }
  - { offset: 0xDC504, size: 0x8, addend: 0x0, symName: __RNvXsP_NtCsATtFUPiRFW_3syn4exprNtB5_4ExprNtNtCs62MdaZFMefA_5quote9to_tokens8ToTokens9to_tokens, symObjAddr: 0x11DDC, symBinAddr: 0x67F2C, symSize: 0x7D8 }
  - { offset: 0xDC9E5, size: 0x8, addend: 0x0, symName: __RNcNtNtNtCsATtFUPiRFW_3syn4expr6Member5Named0B7_, symObjAddr: 0x125B4, symBinAddr: 0x68704, symSize: 0x18 }
  - { offset: 0xDCA15, size: 0x8, addend: 0x0, symName: __RNcNtNtNtCsATtFUPiRFW_3syn4expr6Member7Unnamed0B7_, symObjAddr: 0x125CC, symBinAddr: 0x6871C, symSize: 0x28 }
  - { offset: 0xDCA4B, size: 0x8, addend: 0x0, symName: __RNcNtNtNtCsATtFUPiRFW_3syn4expr11RangeLimits8HalfOpen0B7_, symObjAddr: 0x125F4, symBinAddr: 0x68744, symSize: 0x24 }
  - { offset: 0xDCA7B, size: 0x8, addend: 0x0, symName: __RNcNtNtNtCsATtFUPiRFW_3syn4expr11RangeLimits6Closed0B7_, symObjAddr: 0x12618, symBinAddr: 0x68768, symSize: 0x20 }
  - { offset: 0xDF433, size: 0x8, addend: 0x0, symName: __RNvXs0_NtNtCsATtFUPiRFW_3syn3gen5cloneNtNtB9_4expr3ArmNtNtCs9f3LFPSIp77_4core5clone5Clone5clone, symObjAddr: 0x1557C, symBinAddr: 0x6B6CC, symSize: 0x1B4 }
  - { offset: 0xDF465, size: 0x8, addend: 0x0, symName: __RNvXsk_NtNtCsATtFUPiRFW_3syn3gen5cloneNtNtB9_4expr4ExprNtNtCs9f3LFPSIp77_4core5clone5Clone5clone, symObjAddr: 0x15730, symBinAddr: 0x6B880, symSize: 0xE14 }
  - { offset: 0xDF95A, size: 0x8, addend: 0x0, symName: __RNvXsl_NtNtCsATtFUPiRFW_3syn3gen5cloneNtNtB9_4expr9ExprArrayNtNtCs9f3LFPSIp77_4core5clone5Clone5clone, symObjAddr: 0x16544, symBinAddr: 0x6C694, symSize: 0xC0 }
  - { offset: 0xDF98E, size: 0x8, addend: 0x0, symName: __RNvXsm_NtNtCsATtFUPiRFW_3syn3gen5cloneNtNtB9_4expr10ExprAssignNtNtCs9f3LFPSIp77_4core5clone5Clone5clone, symObjAddr: 0x16604, symBinAddr: 0x6C754, symSize: 0x100 }
  - { offset: 0xDF9C2, size: 0x8, addend: 0x0, symName: __RNvXsn_NtNtCsATtFUPiRFW_3syn3gen5cloneNtNtB9_4expr9ExprAsyncNtNtCs9f3LFPSIp77_4core5clone5Clone5clone, symObjAddr: 0x16704, symBinAddr: 0x6C854, symSize: 0xE4 }
  - { offset: 0xDF9F6, size: 0x8, addend: 0x0, symName: __RNvXso_NtNtCsATtFUPiRFW_3syn3gen5cloneNtNtB9_4expr9ExprAwaitNtNtCs9f3LFPSIp77_4core5clone5Clone5clone, symObjAddr: 0x167E8, symBinAddr: 0x6C938, symSize: 0x100 }
  - { offset: 0xDFA2A, size: 0x8, addend: 0x0, symName: __RNvXsp_NtNtCsATtFUPiRFW_3syn3gen5cloneNtNtB9_4expr10ExprBinaryNtNtCs9f3LFPSIp77_4core5clone5Clone5clone, symObjAddr: 0x168E8, symBinAddr: 0x6CA38, symSize: 0xF0 }
  - { offset: 0xDFA5E, size: 0x8, addend: 0x0, symName: __RNvXsq_NtNtCsATtFUPiRFW_3syn3gen5cloneNtNtB9_4expr9ExprBlockNtNtCs9f3LFPSIp77_4core5clone5Clone5clone, symObjAddr: 0x169D8, symBinAddr: 0x6CB28, symSize: 0xE8 }
  - { offset: 0xDFA92, size: 0x8, addend: 0x0, symName: __RNvXsr_NtNtCsATtFUPiRFW_3syn3gen5cloneNtNtB9_4expr9ExprBreakNtNtCs9f3LFPSIp77_4core5clone5Clone5clone, symObjAddr: 0x16AC0, symBinAddr: 0x6CC10, symSize: 0xF0 }
  - { offset: 0xDFAC6, size: 0x8, addend: 0x0, symName: __RNvXss_NtNtCsATtFUPiRFW_3syn3gen5cloneNtNtB9_4expr8ExprCallNtNtCs9f3LFPSIp77_4core5clone5Clone5clone, symObjAddr: 0x16BB0, symBinAddr: 0x6CD00, symSize: 0x100 }
  - { offset: 0xDFAFA, size: 0x8, addend: 0x0, symName: __RNvXst_NtNtCsATtFUPiRFW_3syn3gen5cloneNtNtB9_4expr8ExprCastNtNtCs9f3LFPSIp77_4core5clone5Clone5clone, symObjAddr: 0x16CB0, symBinAddr: 0x6CE00, symSize: 0xF0 }
  - { offset: 0xDFB2E, size: 0x8, addend: 0x0, symName: __RNvXsu_NtNtCsATtFUPiRFW_3syn3gen5cloneNtNtB9_4expr11ExprClosureNtNtCs9f3LFPSIp77_4core5clone5Clone5clone, symObjAddr: 0x16DA0, symBinAddr: 0x6CEF0, symSize: 0x254 }
  - { offset: 0xDFB62, size: 0x8, addend: 0x0, symName: __RNvXsv_NtNtCsATtFUPiRFW_3syn3gen5cloneNtNtB9_4expr9ExprConstNtNtCs9f3LFPSIp77_4core5clone5Clone5clone, symObjAddr: 0x16FF4, symBinAddr: 0x6D144, symSize: 0xBC }
  - { offset: 0xDFB96, size: 0x8, addend: 0x0, symName: __RNvXsw_NtNtCsATtFUPiRFW_3syn3gen5cloneNtNtB9_4expr12ExprContinueNtNtCs9f3LFPSIp77_4core5clone5Clone5clone, symObjAddr: 0x170B0, symBinAddr: 0x6D200, symSize: 0xB8 }
  - { offset: 0xDFBCA, size: 0x8, addend: 0x0, symName: __RNvXsx_NtNtCsATtFUPiRFW_3syn3gen5cloneNtNtB9_4expr9ExprFieldNtNtCs9f3LFPSIp77_4core5clone5Clone5clone, symObjAddr: 0x17168, symBinAddr: 0x6D2B8, symSize: 0x108 }
  - { offset: 0xDFBFE, size: 0x8, addend: 0x0, symName: __RNvXsy_NtNtCsATtFUPiRFW_3syn3gen5cloneNtNtB9_4expr11ExprForLoopNtNtCs9f3LFPSIp77_4core5clone5Clone5clone, symObjAddr: 0x17270, symBinAddr: 0x6D3C0, symSize: 0x1A0 }
  - { offset: 0xDFC32, size: 0x8, addend: 0x0, symName: __RNvXsz_NtNtCsATtFUPiRFW_3syn3gen5cloneNtNtB9_4expr9ExprGroupNtNtCs9f3LFPSIp77_4core5clone5Clone5clone, symObjAddr: 0x17410, symBinAddr: 0x6D560, symSize: 0xB0 }
  - { offset: 0xDFC66, size: 0x8, addend: 0x0, symName: __RNvXsA_NtNtCsATtFUPiRFW_3syn3gen5cloneNtNtB9_4expr6ExprIfNtNtCs9f3LFPSIp77_4core5clone5Clone5clone, symObjAddr: 0x174C0, symBinAddr: 0x6D610, symSize: 0x144 }
  - { offset: 0xDFC9A, size: 0x8, addend: 0x0, symName: __RNvXsB_NtNtCsATtFUPiRFW_3syn3gen5cloneNtNtB9_4expr9ExprIndexNtNtCs9f3LFPSIp77_4core5clone5Clone5clone, symObjAddr: 0x17604, symBinAddr: 0x6D754, symSize: 0xF8 }
  - { offset: 0xDFCCE, size: 0x8, addend: 0x0, symName: __RNvXsC_NtNtCsATtFUPiRFW_3syn3gen5cloneNtNtB9_4expr9ExprInferNtNtCs9f3LFPSIp77_4core5clone5Clone5clone, symObjAddr: 0x176FC, symBinAddr: 0x6D84C, symSize: 0xA4 }
  - { offset: 0xDFD02, size: 0x8, addend: 0x0, symName: __RNvXsD_NtNtCsATtFUPiRFW_3syn3gen5cloneNtNtB9_4expr7ExprLetNtNtCs9f3LFPSIp77_4core5clone5Clone5clone, symObjAddr: 0x177A0, symBinAddr: 0x6D8F0, symSize: 0x11C }
  - { offset: 0xDFD36, size: 0x8, addend: 0x0, symName: __RNvXsE_NtNtCsATtFUPiRFW_3syn3gen5cloneNtNtB9_4expr7ExprLitNtNtCs9f3LFPSIp77_4core5clone5Clone5clone, symObjAddr: 0x178BC, symBinAddr: 0x6DA0C, symSize: 0x9C }
  - { offset: 0xDFD6A, size: 0x8, addend: 0x0, symName: __RNvXsF_NtNtCsATtFUPiRFW_3syn3gen5cloneNtNtB9_4expr8ExprLoopNtNtCs9f3LFPSIp77_4core5clone5Clone5clone, symObjAddr: 0x17958, symBinAddr: 0x6DAA8, symSize: 0x104 }
  - { offset: 0xDFD9E, size: 0x8, addend: 0x0, symName: __RNvXsG_NtNtCsATtFUPiRFW_3syn3gen5cloneNtNtB9_4expr9ExprMacroNtNtCs9f3LFPSIp77_4core5clone5Clone5clone, symObjAddr: 0x17A5C, symBinAddr: 0x6DBAC, symSize: 0xA0 }
  - { offset: 0xDFDD2, size: 0x8, addend: 0x0, symName: __RNvXsH_NtNtCsATtFUPiRFW_3syn3gen5cloneNtNtB9_4expr9ExprMatchNtNtCs9f3LFPSIp77_4core5clone5Clone5clone, symObjAddr: 0x17AFC, symBinAddr: 0x6DC4C, symSize: 0x11C }
  - { offset: 0xDFE06, size: 0x8, addend: 0x0, symName: __RNvXsI_NtNtCsATtFUPiRFW_3syn3gen5cloneNtNtB9_4expr14ExprMethodCallNtNtCs9f3LFPSIp77_4core5clone5Clone5clone, symObjAddr: 0x17C18, symBinAddr: 0x6DD68, symSize: 0x1C8 }
  - { offset: 0xDFE3A, size: 0x8, addend: 0x0, symName: __RNvXsJ_NtNtCsATtFUPiRFW_3syn3gen5cloneNtNtB9_4expr9ExprParenNtNtCs9f3LFPSIp77_4core5clone5Clone5clone, symObjAddr: 0x17DE0, symBinAddr: 0x6DF30, symSize: 0xB8 }
  - { offset: 0xDFE6E, size: 0x8, addend: 0x0, symName: __RNvXsK_NtNtCsATtFUPiRFW_3syn3gen5cloneNtNtB9_4expr8ExprPathNtNtCs9f3LFPSIp77_4core5clone5Clone5clone, symObjAddr: 0x17E98, symBinAddr: 0x6DFE8, symSize: 0xE0 }
  - { offset: 0xDFEA2, size: 0x8, addend: 0x0, symName: __RNvXsL_NtNtCsATtFUPiRFW_3syn3gen5cloneNtNtB9_4expr9ExprRangeNtNtCs9f3LFPSIp77_4core5clone5Clone5clone, symObjAddr: 0x17F78, symBinAddr: 0x6E0C8, symSize: 0xF0 }
  - { offset: 0xDFED6, size: 0x8, addend: 0x0, symName: __RNvXsM_NtNtCsATtFUPiRFW_3syn3gen5cloneNtNtB9_4expr11ExprRawAddrNtNtCs9f3LFPSIp77_4core5clone5Clone5clone, symObjAddr: 0x18068, symBinAddr: 0x6E1B8, symSize: 0x104 }
  - { offset: 0xDFF0A, size: 0x8, addend: 0x0, symName: __RNvXsN_NtNtCsATtFUPiRFW_3syn3gen5cloneNtNtB9_4expr13ExprReferenceNtNtCs9f3LFPSIp77_4core5clone5Clone5clone, symObjAddr: 0x1816C, symBinAddr: 0x6E2BC, symSize: 0xE8 }
  - { offset: 0xDFF3E, size: 0x8, addend: 0x0, symName: __RNvXsO_NtNtCsATtFUPiRFW_3syn3gen5cloneNtNtB9_4expr10ExprRepeatNtNtCs9f3LFPSIp77_4core5clone5Clone5clone, symObjAddr: 0x18254, symBinAddr: 0x6E3A4, symSize: 0x124 }
  - { offset: 0xDFF72, size: 0x8, addend: 0x0, symName: __RNvXsP_NtNtCsATtFUPiRFW_3syn3gen5cloneNtNtB9_4expr10ExprReturnNtNtCs9f3LFPSIp77_4core5clone5Clone5clone, symObjAddr: 0x18378, symBinAddr: 0x6E4C8, symSize: 0xB0 }
  - { offset: 0xDFFA6, size: 0x8, addend: 0x0, symName: __RNvXsQ_NtNtCsATtFUPiRFW_3syn3gen5cloneNtNtB9_4expr10ExprStructNtNtCs9f3LFPSIp77_4core5clone5Clone5clone, symObjAddr: 0x18428, symBinAddr: 0x6E578, symSize: 0x1B0 }
  - { offset: 0xDFFDA, size: 0x8, addend: 0x0, symName: __RNvXsR_NtNtCsATtFUPiRFW_3syn3gen5cloneNtNtB9_4expr7ExprTryNtNtCs9f3LFPSIp77_4core5clone5Clone5clone, symObjAddr: 0x185D8, symBinAddr: 0x6E728, symSize: 0xE4 }
  - { offset: 0xE000E, size: 0x8, addend: 0x0, symName: __RNvXsS_NtNtCsATtFUPiRFW_3syn3gen5cloneNtNtB9_4expr12ExprTryBlockNtNtCs9f3LFPSIp77_4core5clone5Clone5clone, symObjAddr: 0x186BC, symBinAddr: 0x6E80C, symSize: 0xBC }
  - { offset: 0xE0042, size: 0x8, addend: 0x0, symName: __RNvXsT_NtNtCsATtFUPiRFW_3syn3gen5cloneNtNtB9_4expr9ExprTupleNtNtCs9f3LFPSIp77_4core5clone5Clone5clone, symObjAddr: 0x18778, symBinAddr: 0x6E8C8, symSize: 0xC0 }
  - { offset: 0xE0076, size: 0x8, addend: 0x0, symName: __RNvXsU_NtNtCsATtFUPiRFW_3syn3gen5cloneNtNtB9_4expr9ExprUnaryNtNtCs9f3LFPSIp77_4core5clone5Clone5clone, symObjAddr: 0x18838, symBinAddr: 0x6E988, symSize: 0xC0 }
  - { offset: 0xE00AA, size: 0x8, addend: 0x0, symName: __RNvXsV_NtNtCsATtFUPiRFW_3syn3gen5cloneNtNtB9_4expr10ExprUnsafeNtNtCs9f3LFPSIp77_4core5clone5Clone5clone, symObjAddr: 0x188F8, symBinAddr: 0x6EA48, symSize: 0xBC }
  - { offset: 0xE00DE, size: 0x8, addend: 0x0, symName: __RNvXsW_NtNtCsATtFUPiRFW_3syn3gen5cloneNtNtB9_4expr9ExprWhileNtNtCs9f3LFPSIp77_4core5clone5Clone5clone, symObjAddr: 0x189B4, symBinAddr: 0x6EB04, symSize: 0x144 }
  - { offset: 0xE0112, size: 0x8, addend: 0x0, symName: __RNvXsX_NtNtCsATtFUPiRFW_3syn3gen5cloneNtNtB9_4expr9ExprYieldNtNtCs9f3LFPSIp77_4core5clone5Clone5clone, symObjAddr: 0x18AF8, symBinAddr: 0x6EC48, symSize: 0xB0 }
  - { offset: 0xE0146, size: 0x8, addend: 0x0, symName: __RNvXs11_NtNtCsATtFUPiRFW_3syn3gen5cloneNtNtBa_4expr10FieldValueNtNtCs9f3LFPSIp77_4core5clone5Clone5clone, symObjAddr: 0x18BA8, symBinAddr: 0x6ECF8, symSize: 0x110 }
  - { offset: 0xE017A, size: 0x8, addend: 0x0, symName: __RNvXs1l_NtNtCsATtFUPiRFW_3syn3gen5cloneNtNtBa_4expr5IndexNtNtCs9f3LFPSIp77_4core5clone5Clone5clone, symObjAddr: 0x18CB8, symBinAddr: 0x6EE08, symSize: 0x48 }
  - { offset: 0xE01AE, size: 0x8, addend: 0x0, symName: __RNvXs1C_NtNtCsATtFUPiRFW_3syn3gen5cloneNtNtBa_4expr5LabelNtNtCs9f3LFPSIp77_4core5clone5Clone5clone, symObjAddr: 0x18D00, symBinAddr: 0x6EE50, symSize: 0xA4 }
  - { offset: 0xE01E2, size: 0x8, addend: 0x0, symName: __RNvXs1K_NtNtCsATtFUPiRFW_3syn3gen5cloneNtNtBa_4expr6MemberNtNtCs9f3LFPSIp77_4core5clone5Clone5clone, symObjAddr: 0x18DA4, symBinAddr: 0x6EEF4, symSize: 0xB8 }
  - { offset: 0xE024A, size: 0x8, addend: 0x0, symName: __RNvXs24_NtNtCsATtFUPiRFW_3syn3gen5cloneNtNtBa_4expr17PointerMutabilityNtNtCs9f3LFPSIp77_4core5clone5Clone5clone, symObjAddr: 0x18E5C, symBinAddr: 0x6EFAC, symSize: 0xA0 }
  - { offset: 0xE02B2, size: 0x8, addend: 0x0, symName: __RNvXs2a_NtNtCsATtFUPiRFW_3syn3gen5cloneNtNtBa_4expr11RangeLimitsNtNtCs9f3LFPSIp77_4core5clone5Clone5clone, symObjAddr: 0x18EFC, symBinAddr: 0x6F04C, symSize: 0x2C }
  - { offset: 0xE02EC, size: 0x8, addend: 0x0, symName: __RNvXs1_NtNtCsATtFUPiRFW_3syn3gen5debugNtNtB9_4expr3ArmNtNtCs9f3LFPSIp77_4core3fmt5Debug3fmt, symObjAddr: 0x18F28, symBinAddr: 0x6F078, symSize: 0x14C }
  - { offset: 0xE0349, size: 0x8, addend: 0x0, symName: __RNvXsm_NtNtCsATtFUPiRFW_3syn3gen5debugNtNtB9_4expr4ExprNtNtCs9f3LFPSIp77_4core3fmt5Debug3fmt, symObjAddr: 0x19074, symBinAddr: 0x6F1C4, symSize: 0xC14 }
  - { offset: 0xE0895, size: 0x8, addend: 0x0, symName: __RNvXsn_NtNtCsATtFUPiRFW_3syn3gen5debugNtNtB9_4expr9ExprArrayNtNtCs9f3LFPSIp77_4core3fmt5Debug3fmt, symObjAddr: 0x19C88, symBinAddr: 0x6FDD8, symSize: 0x4C }
  - { offset: 0xE08D8, size: 0x8, addend: 0x0, symName: __RNvXsp_NtNtCsATtFUPiRFW_3syn3gen5debugNtNtB9_4expr10ExprAssignNtNtCs9f3LFPSIp77_4core3fmt5Debug3fmt, symObjAddr: 0x19DB0, symBinAddr: 0x6FF00, symSize: 0x4C }
  - { offset: 0xE091B, size: 0x8, addend: 0x0, symName: __RNvXsr_NtNtCsATtFUPiRFW_3syn3gen5debugNtNtB9_4expr9ExprAsyncNtNtCs9f3LFPSIp77_4core3fmt5Debug3fmt, symObjAddr: 0x19F00, symBinAddr: 0x70050, symSize: 0x4C }
  - { offset: 0xE095E, size: 0x8, addend: 0x0, symName: __RNvXst_NtNtCsATtFUPiRFW_3syn3gen5debugNtNtB9_4expr9ExprAwaitNtNtCs9f3LFPSIp77_4core3fmt5Debug3fmt, symObjAddr: 0x1A050, symBinAddr: 0x701A0, symSize: 0x4C }
  - { offset: 0xE09A1, size: 0x8, addend: 0x0, symName: __RNvXsv_NtNtCsATtFUPiRFW_3syn3gen5debugNtNtB9_4expr10ExprBinaryNtNtCs9f3LFPSIp77_4core3fmt5Debug3fmt, symObjAddr: 0x1A1A0, symBinAddr: 0x702F0, symSize: 0x4C }
  - { offset: 0xE09E4, size: 0x8, addend: 0x0, symName: __RNvXsx_NtNtCsATtFUPiRFW_3syn3gen5debugNtNtB9_4expr9ExprBlockNtNtCs9f3LFPSIp77_4core3fmt5Debug3fmt, symObjAddr: 0x1A2F0, symBinAddr: 0x70440, symSize: 0x4C }
  - { offset: 0xE0A27, size: 0x8, addend: 0x0, symName: __RNvXsz_NtNtCsATtFUPiRFW_3syn3gen5debugNtNtB9_4expr9ExprBreakNtNtCs9f3LFPSIp77_4core3fmt5Debug3fmt, symObjAddr: 0x1A414, symBinAddr: 0x70564, symSize: 0x4C }
  - { offset: 0xE0A6A, size: 0x8, addend: 0x0, symName: __RNvXsB_NtNtCsATtFUPiRFW_3syn3gen5debugNtNtB9_4expr8ExprCallNtNtCs9f3LFPSIp77_4core3fmt5Debug3fmt, symObjAddr: 0x1A564, symBinAddr: 0x706B4, symSize: 0x4C }
  - { offset: 0xE0AAD, size: 0x8, addend: 0x0, symName: __RNvXsD_NtNtCsATtFUPiRFW_3syn3gen5debugNtNtB9_4expr8ExprCastNtNtCs9f3LFPSIp77_4core3fmt5Debug3fmt, symObjAddr: 0x1A6B4, symBinAddr: 0x70804, symSize: 0x4C }
  - { offset: 0xE0AF0, size: 0x8, addend: 0x0, symName: __RNvXsF_NtNtCsATtFUPiRFW_3syn3gen5debugNtNtB9_4expr11ExprClosureNtNtCs9f3LFPSIp77_4core3fmt5Debug3fmt, symObjAddr: 0x1A804, symBinAddr: 0x70954, symSize: 0x4C }
  - { offset: 0xE0B33, size: 0x8, addend: 0x0, symName: __RNvXsH_NtNtCsATtFUPiRFW_3syn3gen5debugNtNtB9_4expr9ExprConstNtNtCs9f3LFPSIp77_4core3fmt5Debug3fmt, symObjAddr: 0x1AA60, symBinAddr: 0x70BB0, symSize: 0x4C }
  - { offset: 0xE0B76, size: 0x8, addend: 0x0, symName: __RNvXsJ_NtNtCsATtFUPiRFW_3syn3gen5debugNtNtB9_4expr12ExprContinueNtNtCs9f3LFPSIp77_4core3fmt5Debug3fmt, symObjAddr: 0x1AB88, symBinAddr: 0x70CD8, symSize: 0x4C }
  - { offset: 0xE0BB9, size: 0x8, addend: 0x0, symName: __RNvXsL_NtNtCsATtFUPiRFW_3syn3gen5debugNtNtB9_4expr9ExprFieldNtNtCs9f3LFPSIp77_4core3fmt5Debug3fmt, symObjAddr: 0x1ACB0, symBinAddr: 0x70E00, symSize: 0x4C }
  - { offset: 0xE0BFC, size: 0x8, addend: 0x0, symName: __RNvXsN_NtNtCsATtFUPiRFW_3syn3gen5debugNtNtB9_4expr11ExprForLoopNtNtCs9f3LFPSIp77_4core3fmt5Debug3fmt, symObjAddr: 0x1AE00, symBinAddr: 0x70F50, symSize: 0x4C }
  - { offset: 0xE0C3F, size: 0x8, addend: 0x0, symName: __RNvXsP_NtNtCsATtFUPiRFW_3syn3gen5debugNtNtB9_4expr9ExprGroupNtNtCs9f3LFPSIp77_4core3fmt5Debug3fmt, symObjAddr: 0x1AFC8, symBinAddr: 0x71118, symSize: 0x4C }
  - { offset: 0xE0C82, size: 0x8, addend: 0x0, symName: __RNvXsR_NtNtCsATtFUPiRFW_3syn3gen5debugNtNtB9_4expr6ExprIfNtNtCs9f3LFPSIp77_4core3fmt5Debug3fmt, symObjAddr: 0x1B0F0, symBinAddr: 0x71240, symSize: 0x4C }
  - { offset: 0xE0CC5, size: 0x8, addend: 0x0, symName: __RNvXsT_NtNtCsATtFUPiRFW_3syn3gen5debugNtNtB9_4expr9ExprIndexNtNtCs9f3LFPSIp77_4core3fmt5Debug3fmt, symObjAddr: 0x1B268, symBinAddr: 0x713B8, symSize: 0x4C }
  - { offset: 0xE0D08, size: 0x8, addend: 0x0, symName: __RNvXsV_NtNtCsATtFUPiRFW_3syn3gen5debugNtNtB9_4expr9ExprInferNtNtCs9f3LFPSIp77_4core3fmt5Debug3fmt, symObjAddr: 0x1B3B8, symBinAddr: 0x71508, symSize: 0x4C }
  - { offset: 0xE0D4B, size: 0x8, addend: 0x0, symName: __RNvXsX_NtNtCsATtFUPiRFW_3syn3gen5debugNtNtB9_4expr7ExprLetNtNtCs9f3LFPSIp77_4core3fmt5Debug3fmt, symObjAddr: 0x1B4B8, symBinAddr: 0x71608, symSize: 0x4C }
  - { offset: 0xE0D8E, size: 0x8, addend: 0x0, symName: __RNvXsZ_NtNtCsATtFUPiRFW_3syn3gen5debugNtNtB9_4expr7ExprLitNtNtCs9f3LFPSIp77_4core3fmt5Debug3fmt, symObjAddr: 0x1B630, symBinAddr: 0x71780, symSize: 0x4C }
  - { offset: 0xE0DD1, size: 0x8, addend: 0x0, symName: __RNvXs11_NtNtCsATtFUPiRFW_3syn3gen5debugNtNtBa_4expr8ExprLoopNtNtCs9f3LFPSIp77_4core3fmt5Debug3fmt, symObjAddr: 0x1B730, symBinAddr: 0x71880, symSize: 0x4C }
  - { offset: 0xE0E14, size: 0x8, addend: 0x0, symName: __RNvXs13_NtNtCsATtFUPiRFW_3syn3gen5debugNtNtBa_4expr9ExprMacroNtNtCs9f3LFPSIp77_4core3fmt5Debug3fmt, symObjAddr: 0x1B880, symBinAddr: 0x719D0, symSize: 0x4C }
  - { offset: 0xE0E57, size: 0x8, addend: 0x0, symName: __RNvXs15_NtNtCsATtFUPiRFW_3syn3gen5debugNtNtBa_4expr9ExprMatchNtNtCs9f3LFPSIp77_4core3fmt5Debug3fmt, symObjAddr: 0x1B980, symBinAddr: 0x71AD0, symSize: 0x4C }
  - { offset: 0xE0E9A, size: 0x8, addend: 0x0, symName: __RNvXs17_NtNtCsATtFUPiRFW_3syn3gen5debugNtNtBa_4expr14ExprMethodCallNtNtCs9f3LFPSIp77_4core3fmt5Debug3fmt, symObjAddr: 0x1BAF8, symBinAddr: 0x71C48, symSize: 0x4C }
  - { offset: 0xE0EDD, size: 0x8, addend: 0x0, symName: __RNvXs19_NtNtCsATtFUPiRFW_3syn3gen5debugNtNtBa_4expr9ExprParenNtNtCs9f3LFPSIp77_4core3fmt5Debug3fmt, symObjAddr: 0x1BCC0, symBinAddr: 0x71E10, symSize: 0x4C }
  - { offset: 0xE0F20, size: 0x8, addend: 0x0, symName: __RNvXs1b_NtNtCsATtFUPiRFW_3syn3gen5debugNtNtBa_4expr8ExprPathNtNtCs9f3LFPSIp77_4core3fmt5Debug3fmt, symObjAddr: 0x1BDE8, symBinAddr: 0x71F38, symSize: 0x4C }
  - { offset: 0xE0F63, size: 0x8, addend: 0x0, symName: __RNvXs1d_NtNtCsATtFUPiRFW_3syn3gen5debugNtNtBa_4expr9ExprRangeNtNtCs9f3LFPSIp77_4core3fmt5Debug3fmt, symObjAddr: 0x1BF10, symBinAddr: 0x72060, symSize: 0x4C }
  - { offset: 0xE0FA6, size: 0x8, addend: 0x0, symName: __RNvXs1f_NtNtCsATtFUPiRFW_3syn3gen5debugNtNtBa_4expr11ExprRawAddrNtNtCs9f3LFPSIp77_4core3fmt5Debug3fmt, symObjAddr: 0x1C060, symBinAddr: 0x721B0, symSize: 0x4C }
  - { offset: 0xE0FE9, size: 0x8, addend: 0x0, symName: __RNvXs1h_NtNtCsATtFUPiRFW_3syn3gen5debugNtNtBa_4expr13ExprReferenceNtNtCs9f3LFPSIp77_4core3fmt5Debug3fmt, symObjAddr: 0x1C1D8, symBinAddr: 0x72328, symSize: 0x4C }
  - { offset: 0xE102C, size: 0x8, addend: 0x0, symName: __RNvXs1j_NtNtCsATtFUPiRFW_3syn3gen5debugNtNtBa_4expr10ExprRepeatNtNtCs9f3LFPSIp77_4core3fmt5Debug3fmt, symObjAddr: 0x1C328, symBinAddr: 0x72478, symSize: 0x4C }
  - { offset: 0xE106F, size: 0x8, addend: 0x0, symName: __RNvXs1l_NtNtCsATtFUPiRFW_3syn3gen5debugNtNtBa_4expr10ExprReturnNtNtCs9f3LFPSIp77_4core3fmt5Debug3fmt, symObjAddr: 0x1C4A0, symBinAddr: 0x725F0, symSize: 0x4C }
  - { offset: 0xE10B2, size: 0x8, addend: 0x0, symName: __RNvXs1n_NtNtCsATtFUPiRFW_3syn3gen5debugNtNtBa_4expr10ExprStructNtNtCs9f3LFPSIp77_4core3fmt5Debug3fmt, symObjAddr: 0x1C5C8, symBinAddr: 0x72718, symSize: 0x4C }
  - { offset: 0xE10F5, size: 0x8, addend: 0x0, symName: __RNvXs1p_NtNtCsATtFUPiRFW_3syn3gen5debugNtNtBa_4expr7ExprTryNtNtCs9f3LFPSIp77_4core3fmt5Debug3fmt, symObjAddr: 0x1C790, symBinAddr: 0x728E0, symSize: 0x4C }
  - { offset: 0xE1138, size: 0x8, addend: 0x0, symName: __RNvXs1r_NtNtCsATtFUPiRFW_3syn3gen5debugNtNtBa_4expr12ExprTryBlockNtNtCs9f3LFPSIp77_4core3fmt5Debug3fmt, symObjAddr: 0x1C8B8, symBinAddr: 0x72A08, symSize: 0x4C }
  - { offset: 0xE117B, size: 0x8, addend: 0x0, symName: __RNvXs1t_NtNtCsATtFUPiRFW_3syn3gen5debugNtNtBa_4expr9ExprTupleNtNtCs9f3LFPSIp77_4core3fmt5Debug3fmt, symObjAddr: 0x1C9E0, symBinAddr: 0x72B30, symSize: 0x4C }
  - { offset: 0xE11BE, size: 0x8, addend: 0x0, symName: __RNvXs1v_NtNtCsATtFUPiRFW_3syn3gen5debugNtNtBa_4expr9ExprUnaryNtNtCs9f3LFPSIp77_4core3fmt5Debug3fmt, symObjAddr: 0x1CB08, symBinAddr: 0x72C58, symSize: 0x4C }
  - { offset: 0xE1201, size: 0x8, addend: 0x0, symName: __RNvXs1x_NtNtCsATtFUPiRFW_3syn3gen5debugNtNtBa_4expr10ExprUnsafeNtNtCs9f3LFPSIp77_4core3fmt5Debug3fmt, symObjAddr: 0x1CC30, symBinAddr: 0x72D80, symSize: 0x4C }
  - { offset: 0xE1244, size: 0x8, addend: 0x0, symName: __RNvXs1z_NtNtCsATtFUPiRFW_3syn3gen5debugNtNtBa_4expr9ExprWhileNtNtCs9f3LFPSIp77_4core3fmt5Debug3fmt, symObjAddr: 0x1CD58, symBinAddr: 0x72EA8, symSize: 0x4C }
  - { offset: 0xE1287, size: 0x8, addend: 0x0, symName: __RNvXs1B_NtNtCsATtFUPiRFW_3syn3gen5debugNtNtBa_4expr9ExprYieldNtNtCs9f3LFPSIp77_4core3fmt5Debug3fmt, symObjAddr: 0x1CED0, symBinAddr: 0x73020, symSize: 0x4C }
  - { offset: 0xE12CA, size: 0x8, addend: 0x0, symName: __RNvXs1G_NtNtCsATtFUPiRFW_3syn3gen5debugNtNtBa_4expr10FieldValueNtNtCs9f3LFPSIp77_4core3fmt5Debug3fmt, symObjAddr: 0x1CFF8, symBinAddr: 0x73148, symSize: 0x100 }
  - { offset: 0xE132B, size: 0x8, addend: 0x0, symName: __RNvXs2a_NtNtCsATtFUPiRFW_3syn3gen5debugNtNtBa_4expr5IndexNtNtCs9f3LFPSIp77_4core3fmt5Debug3fmt, symObjAddr: 0x1D0F8, symBinAddr: 0x73248, symSize: 0xB0 }
  - { offset: 0xE138C, size: 0x8, addend: 0x0, symName: __RNvXs2G_NtNtCsATtFUPiRFW_3syn3gen5debugNtNtBa_4expr5LabelNtNtCs9f3LFPSIp77_4core3fmt5Debug3fmt, symObjAddr: 0x1D1A8, symBinAddr: 0x732F8, symSize: 0xB0 }
  - { offset: 0xE13ED, size: 0x8, addend: 0x0, symName: __RNvXs2Q_NtNtCsATtFUPiRFW_3syn3gen5debugNtNtBa_4expr6MemberNtNtCs9f3LFPSIp77_4core3fmt5Debug3fmt, symObjAddr: 0x1D258, symBinAddr: 0x733A8, symSize: 0x178 }
  - { offset: 0xE14BE, size: 0x8, addend: 0x0, symName: __RNvXs3p_NtNtCsATtFUPiRFW_3syn3gen5debugNtNtBa_4expr17PointerMutabilityNtNtCs9f3LFPSIp77_4core3fmt5Debug3fmt, symObjAddr: 0x1D3D0, symBinAddr: 0x73520, symSize: 0x17C }
  - { offset: 0xE158E, size: 0x8, addend: 0x0, symName: __RNvXs3u_NtNtCsATtFUPiRFW_3syn3gen5debugNtNtBa_4expr11RangeLimitsNtNtCs9f3LFPSIp77_4core3fmt5Debug3fmt, symObjAddr: 0x1D54C, symBinAddr: 0x7369C, symSize: 0x17C }
  - { offset: 0xE1664, size: 0x8, addend: 0x0, symName: __RNvXs3_NtNtCsATtFUPiRFW_3syn3gen2eqNtNtB9_4expr3ArmNtNtCs9f3LFPSIp77_4core3cmp9PartialEq2eq, symObjAddr: 0x1D6C8, symBinAddr: 0x73818, symSize: 0x134 }
  - { offset: 0xE16A4, size: 0x8, addend: 0x0, symName: __RNvXsD_NtNtCsATtFUPiRFW_3syn3gen2eqNtNtB9_4expr4ExprNtNtCs9f3LFPSIp77_4core3cmp9PartialEq2eq, symObjAddr: 0x1D7FC, symBinAddr: 0x7394C, symSize: 0x1508 }
  - { offset: 0xE1E61, size: 0x8, addend: 0x0, symName: __RNvXsF_NtNtCsATtFUPiRFW_3syn3gen2eqNtNtB9_4expr9ExprArrayNtNtCs9f3LFPSIp77_4core3cmp9PartialEq2eq, symObjAddr: 0x1ED04, symBinAddr: 0x74E54, symSize: 0x84 }
  - { offset: 0xE1EA4, size: 0x8, addend: 0x0, symName: __RNvXsH_NtNtCsATtFUPiRFW_3syn3gen2eqNtNtB9_4expr10ExprAssignNtNtCs9f3LFPSIp77_4core3cmp9PartialEq2eq, symObjAddr: 0x1ED88, symBinAddr: 0x74ED8, symSize: 0xCC }
  - { offset: 0xE1EE7, size: 0x8, addend: 0x0, symName: __RNvXsJ_NtNtCsATtFUPiRFW_3syn3gen2eqNtNtB9_4expr9ExprAsyncNtNtCs9f3LFPSIp77_4core3cmp9PartialEq2eq, symObjAddr: 0x1EE54, symBinAddr: 0x74FA4, symSize: 0xCC }
  - { offset: 0xE1F2A, size: 0x8, addend: 0x0, symName: __RNvXsL_NtNtCsATtFUPiRFW_3syn3gen2eqNtNtB9_4expr9ExprAwaitNtNtCs9f3LFPSIp77_4core3cmp9PartialEq2eq, symObjAddr: 0x1EF20, symBinAddr: 0x75070, symSize: 0x84 }
  - { offset: 0xE1F6D, size: 0x8, addend: 0x0, symName: __RNvXsN_NtNtCsATtFUPiRFW_3syn3gen2eqNtNtB9_4expr10ExprBinaryNtNtCs9f3LFPSIp77_4core3cmp9PartialEq2eq, symObjAddr: 0x1EFA4, symBinAddr: 0x750F4, symSize: 0x100 }
  - { offset: 0xE1FB0, size: 0x8, addend: 0x0, symName: __RNvXsP_NtNtCsATtFUPiRFW_3syn3gen2eqNtNtB9_4expr9ExprBlockNtNtCs9f3LFPSIp77_4core3cmp9PartialEq2eq, symObjAddr: 0x1F0A4, symBinAddr: 0x751F4, symSize: 0xCC }
  - { offset: 0xE1FF3, size: 0x8, addend: 0x0, symName: __RNvXsR_NtNtCsATtFUPiRFW_3syn3gen2eqNtNtB9_4expr9ExprBreakNtNtCs9f3LFPSIp77_4core3cmp9PartialEq2eq, symObjAddr: 0x1F170, symBinAddr: 0x752C0, symSize: 0xCC }
  - { offset: 0xE2036, size: 0x8, addend: 0x0, symName: __RNvXsT_NtNtCsATtFUPiRFW_3syn3gen2eqNtNtB9_4expr8ExprCallNtNtCs9f3LFPSIp77_4core3cmp9PartialEq2eq, symObjAddr: 0x1F23C, symBinAddr: 0x7538C, symSize: 0xCC }
  - { offset: 0xE2079, size: 0x8, addend: 0x0, symName: __RNvXsV_NtNtCsATtFUPiRFW_3syn3gen2eqNtNtB9_4expr8ExprCastNtNtCs9f3LFPSIp77_4core3cmp9PartialEq2eq, symObjAddr: 0x1F308, symBinAddr: 0x75458, symSize: 0xCC }
  - { offset: 0xE20BC, size: 0x8, addend: 0x0, symName: __RNvXsX_NtNtCsATtFUPiRFW_3syn3gen2eqNtNtB9_4expr11ExprClosureNtNtCs9f3LFPSIp77_4core3cmp9PartialEq2eq, symObjAddr: 0x1F3D4, symBinAddr: 0x75524, symSize: 0x204 }
  - { offset: 0xE20FF, size: 0x8, addend: 0x0, symName: __RNvXsZ_NtNtCsATtFUPiRFW_3syn3gen2eqNtNtB9_4expr9ExprConstNtNtCs9f3LFPSIp77_4core3cmp9PartialEq2eq, symObjAddr: 0x1F5D8, symBinAddr: 0x75728, symSize: 0x84 }
  - { offset: 0xE2142, size: 0x8, addend: 0x0, symName: __RNvXs11_NtNtCsATtFUPiRFW_3syn3gen2eqNtNtBa_4expr12ExprContinueNtNtCs9f3LFPSIp77_4core3cmp9PartialEq2eq, symObjAddr: 0x1F65C, symBinAddr: 0x757AC, symSize: 0x84 }
  - { offset: 0xE2185, size: 0x8, addend: 0x0, symName: __RNvXs13_NtNtCsATtFUPiRFW_3syn3gen2eqNtNtBa_4expr9ExprFieldNtNtCs9f3LFPSIp77_4core3cmp9PartialEq2eq, symObjAddr: 0x1F6E0, symBinAddr: 0x75830, symSize: 0xCC }
  - { offset: 0xE21C8, size: 0x8, addend: 0x0, symName: __RNvXs15_NtNtCsATtFUPiRFW_3syn3gen2eqNtNtBa_4expr11ExprForLoopNtNtCs9f3LFPSIp77_4core3cmp9PartialEq2eq, symObjAddr: 0x1F7AC, symBinAddr: 0x758FC, symSize: 0x134 }
  - { offset: 0xE220B, size: 0x8, addend: 0x0, symName: __RNvXs17_NtNtCsATtFUPiRFW_3syn3gen2eqNtNtBa_4expr9ExprGroupNtNtCs9f3LFPSIp77_4core3cmp9PartialEq2eq, symObjAddr: 0x1F8E0, symBinAddr: 0x75A30, symSize: 0x84 }
  - { offset: 0xE224E, size: 0x8, addend: 0x0, symName: __RNvXs19_NtNtCsATtFUPiRFW_3syn3gen2eqNtNtBa_4expr6ExprIfNtNtCs9f3LFPSIp77_4core3cmp9PartialEq2eq, symObjAddr: 0x1F964, symBinAddr: 0x75AB4, symSize: 0x100 }
  - { offset: 0xE2291, size: 0x8, addend: 0x0, symName: __RNvXs1b_NtNtCsATtFUPiRFW_3syn3gen2eqNtNtBa_4expr9ExprIndexNtNtCs9f3LFPSIp77_4core3cmp9PartialEq2eq, symObjAddr: 0x1FA64, symBinAddr: 0x75BB4, symSize: 0xCC }
  - { offset: 0xE22D4, size: 0x8, addend: 0x0, symName: __RNvXs1d_NtNtCsATtFUPiRFW_3syn3gen2eqNtNtBa_4expr9ExprInferNtNtCs9f3LFPSIp77_4core3cmp9PartialEq2eq, symObjAddr: 0x1FB30, symBinAddr: 0x75C80, symSize: 0x3C }
  - { offset: 0xE2317, size: 0x8, addend: 0x0, symName: __RNvXs1f_NtNtCsATtFUPiRFW_3syn3gen2eqNtNtBa_4expr7ExprLetNtNtCs9f3LFPSIp77_4core3cmp9PartialEq2eq, symObjAddr: 0x1FB6C, symBinAddr: 0x75CBC, symSize: 0xCC }
  - { offset: 0xE235A, size: 0x8, addend: 0x0, symName: __RNvXs1h_NtNtCsATtFUPiRFW_3syn3gen2eqNtNtBa_4expr7ExprLitNtNtCs9f3LFPSIp77_4core3cmp9PartialEq2eq, symObjAddr: 0x1FC38, symBinAddr: 0x75D88, symSize: 0x84 }
  - { offset: 0xE239D, size: 0x8, addend: 0x0, symName: __RNvXs1j_NtNtCsATtFUPiRFW_3syn3gen2eqNtNtBa_4expr8ExprLoopNtNtCs9f3LFPSIp77_4core3cmp9PartialEq2eq, symObjAddr: 0x1FCBC, symBinAddr: 0x75E0C, symSize: 0xCC }
  - { offset: 0xE23E0, size: 0x8, addend: 0x0, symName: __RNvXs1l_NtNtCsATtFUPiRFW_3syn3gen2eqNtNtBa_4expr9ExprMacroNtNtCs9f3LFPSIp77_4core3cmp9PartialEq2eq, symObjAddr: 0x1FD88, symBinAddr: 0x75ED8, symSize: 0x84 }
  - { offset: 0xE2423, size: 0x8, addend: 0x0, symName: __RNvXs1n_NtNtCsATtFUPiRFW_3syn3gen2eqNtNtBa_4expr9ExprMatchNtNtCs9f3LFPSIp77_4core3cmp9PartialEq2eq, symObjAddr: 0x1FE0C, symBinAddr: 0x75F5C, symSize: 0xCC }
  - { offset: 0xE2466, size: 0x8, addend: 0x0, symName: __RNvXs1p_NtNtCsATtFUPiRFW_3syn3gen2eqNtNtBa_4expr14ExprMethodCallNtNtCs9f3LFPSIp77_4core3cmp9PartialEq2eq, symObjAddr: 0x1FED8, symBinAddr: 0x76028, symSize: 0x134 }
  - { offset: 0xE24A9, size: 0x8, addend: 0x0, symName: __RNvXs1r_NtNtCsATtFUPiRFW_3syn3gen2eqNtNtBa_4expr9ExprParenNtNtCs9f3LFPSIp77_4core3cmp9PartialEq2eq, symObjAddr: 0x2000C, symBinAddr: 0x7615C, symSize: 0x84 }
  - { offset: 0xE24EC, size: 0x8, addend: 0x0, symName: __RNvXs1t_NtNtCsATtFUPiRFW_3syn3gen2eqNtNtBa_4expr8ExprPathNtNtCs9f3LFPSIp77_4core3cmp9PartialEq2eq, symObjAddr: 0x20090, symBinAddr: 0x761E0, symSize: 0xCC }
  - { offset: 0xE252F, size: 0x8, addend: 0x0, symName: __RNvXs1v_NtNtCsATtFUPiRFW_3syn3gen2eqNtNtBa_4expr9ExprRangeNtNtCs9f3LFPSIp77_4core3cmp9PartialEq2eq, symObjAddr: 0x2015C, symBinAddr: 0x762AC, symSize: 0x100 }
  - { offset: 0xE2572, size: 0x8, addend: 0x0, symName: __RNvXs1x_NtNtCsATtFUPiRFW_3syn3gen2eqNtNtBa_4expr11ExprRawAddrNtNtCs9f3LFPSIp77_4core3cmp9PartialEq2eq, symObjAddr: 0x2025C, symBinAddr: 0x763AC, symSize: 0xCC }
  - { offset: 0xE25B5, size: 0x8, addend: 0x0, symName: __RNvXs1z_NtNtCsATtFUPiRFW_3syn3gen2eqNtNtBa_4expr13ExprReferenceNtNtCs9f3LFPSIp77_4core3cmp9PartialEq2eq, symObjAddr: 0x20328, symBinAddr: 0x76478, symSize: 0xCC }
  - { offset: 0xE25F8, size: 0x8, addend: 0x0, symName: __RNvXs1B_NtNtCsATtFUPiRFW_3syn3gen2eqNtNtBa_4expr10ExprRepeatNtNtCs9f3LFPSIp77_4core3cmp9PartialEq2eq, symObjAddr: 0x203F4, symBinAddr: 0x76544, symSize: 0xCC }
  - { offset: 0xE263B, size: 0x8, addend: 0x0, symName: __RNvXs1D_NtNtCsATtFUPiRFW_3syn3gen2eqNtNtBa_4expr10ExprReturnNtNtCs9f3LFPSIp77_4core3cmp9PartialEq2eq, symObjAddr: 0x204C0, symBinAddr: 0x76610, symSize: 0x84 }
  - { offset: 0xE267E, size: 0x8, addend: 0x0, symName: __RNvXs1F_NtNtCsATtFUPiRFW_3syn3gen2eqNtNtBa_4expr10ExprStructNtNtCs9f3LFPSIp77_4core3cmp9PartialEq2eq, symObjAddr: 0x20544, symBinAddr: 0x76694, symSize: 0x168 }
  - { offset: 0xE26C1, size: 0x8, addend: 0x0, symName: __RNvXs1H_NtNtCsATtFUPiRFW_3syn3gen2eqNtNtBa_4expr7ExprTryNtNtCs9f3LFPSIp77_4core3cmp9PartialEq2eq, symObjAddr: 0x206AC, symBinAddr: 0x767FC, symSize: 0x84 }
  - { offset: 0xE2704, size: 0x8, addend: 0x0, symName: __RNvXs1J_NtNtCsATtFUPiRFW_3syn3gen2eqNtNtBa_4expr12ExprTryBlockNtNtCs9f3LFPSIp77_4core3cmp9PartialEq2eq, symObjAddr: 0x20730, symBinAddr: 0x76880, symSize: 0x84 }
  - { offset: 0xE2747, size: 0x8, addend: 0x0, symName: __RNvXs1L_NtNtCsATtFUPiRFW_3syn3gen2eqNtNtBa_4expr9ExprTupleNtNtCs9f3LFPSIp77_4core3cmp9PartialEq2eq, symObjAddr: 0x207B4, symBinAddr: 0x76904, symSize: 0x84 }
  - { offset: 0xE278A, size: 0x8, addend: 0x0, symName: __RNvXs1N_NtNtCsATtFUPiRFW_3syn3gen2eqNtNtBa_4expr9ExprUnaryNtNtCs9f3LFPSIp77_4core3cmp9PartialEq2eq, symObjAddr: 0x20838, symBinAddr: 0x76988, symSize: 0xCC }
  - { offset: 0xE27CD, size: 0x8, addend: 0x0, symName: __RNvXs1P_NtNtCsATtFUPiRFW_3syn3gen2eqNtNtBa_4expr10ExprUnsafeNtNtCs9f3LFPSIp77_4core3cmp9PartialEq2eq, symObjAddr: 0x20904, symBinAddr: 0x76A54, symSize: 0x84 }
  - { offset: 0xE2810, size: 0x8, addend: 0x0, symName: __RNvXs1R_NtNtCsATtFUPiRFW_3syn3gen2eqNtNtBa_4expr9ExprWhileNtNtCs9f3LFPSIp77_4core3cmp9PartialEq2eq, symObjAddr: 0x20988, symBinAddr: 0x76AD8, symSize: 0x100 }
  - { offset: 0xE2853, size: 0x8, addend: 0x0, symName: __RNvXs1T_NtNtCsATtFUPiRFW_3syn3gen2eqNtNtBa_4expr9ExprYieldNtNtCs9f3LFPSIp77_4core3cmp9PartialEq2eq, symObjAddr: 0x20A88, symBinAddr: 0x76BD8, symSize: 0x84 }
  - { offset: 0xE2896, size: 0x8, addend: 0x0, symName: __RNvXs21_NtNtCsATtFUPiRFW_3syn3gen2eqNtNtBa_4expr10FieldValueNtNtCs9f3LFPSIp77_4core3cmp9PartialEq2eq, symObjAddr: 0x20B0C, symBinAddr: 0x76C5C, symSize: 0x100 }
  - { offset: 0xE28D9, size: 0x8, addend: 0x0, symName: __RNvXs3b_NtNtCsATtFUPiRFW_3syn3gen2eqNtNtBa_4expr5LabelNtNtCs9f3LFPSIp77_4core3cmp9PartialEq2eq, symObjAddr: 0x20C0C, symBinAddr: 0x76D5C, symSize: 0x3C }
  - { offset: 0xE291C, size: 0x8, addend: 0x0, symName: __RNvXs4a_NtNtCsATtFUPiRFW_3syn3gen2eqNtNtBa_4expr17PointerMutabilityNtNtCs9f3LFPSIp77_4core3cmp9PartialEq2eq, symObjAddr: 0x20C48, symBinAddr: 0x76D98, symSize: 0xFC }
  - { offset: 0xE295F, size: 0x8, addend: 0x0, symName: __RNvXs4k_NtNtCsATtFUPiRFW_3syn3gen2eqNtNtBa_4expr11RangeLimitsNtNtCs9f3LFPSIp77_4core3cmp9PartialEq2eq, symObjAddr: 0x20D44, symBinAddr: 0x76E94, symSize: 0xFC }
  - { offset: 0xE5A50, size: 0x8, addend: 0x0, symName: __RNvXsP_NtCs9f3LFPSIp77_4core3fmtRNtNtCsATtFUPiRFW_3syn4expr3ArmNtB5_5Debug3fmtBz_, symObjAddr: 0x175C, symBinAddr: 0x578AC, symSize: 0x30 }
  - { offset: 0xE5A96, size: 0x8, addend: 0x0, symName: __RNvXsP_NtCs9f3LFPSIp77_4core3fmtRNtNtCsATtFUPiRFW_3syn4expr4ExprNtB5_5Debug3fmtBz_, symObjAddr: 0x178C, symBinAddr: 0x578DC, symSize: 0x30 }
  - { offset: 0xE5ADC, size: 0x8, addend: 0x0, symName: __RNvXsP_NtCs9f3LFPSIp77_4core3fmtRNtNtCsATtFUPiRFW_3syn4expr5LabelNtB5_5Debug3fmtBz_, symObjAddr: 0x17BC, symBinAddr: 0x5790C, symSize: 0x30 }
  - { offset: 0xE5B28, size: 0x8, addend: 0x0, symName: __RNvXso_NtCs9f3LFPSIp77_4core3fmtSNtNtCsATtFUPiRFW_3syn4expr3ArmNtB5_5Debug3fmtBz_, symObjAddr: 0x17EC, symBinAddr: 0x5793C, symSize: 0x90 }
  - { offset: 0xE5EB0, size: 0x8, addend: 0x0, symName: __RNvMNtCs9f3LFPSIp77_4core5sliceSNtNtCsATtFUPiRFW_3syn4expr3Arm4iterBy_, symObjAddr: 0x83C, symBinAddr: 0x5698C, symSize: 0x28 }
  - { offset: 0xE5EE7, size: 0x8, addend: 0x0, symName: __RNvMNtCs9f3LFPSIp77_4core5sliceSTNtNtCsATtFUPiRFW_3syn4expr10FieldValueNtNtBz_5token5CommaE4iterBz_, symObjAddr: 0x864, symBinAddr: 0x569B4, symSize: 0x28 }
  - { offset: 0xE5F1E, size: 0x8, addend: 0x0, symName: __RNvMNtCs9f3LFPSIp77_4core5sliceSTNtNtCsATtFUPiRFW_3syn4expr4ExprNtNtBz_5token5CommaE4iterBz_, symObjAddr: 0x88C, symBinAddr: 0x569DC, symSize: 0x28 }
  - { offset: 0xE5F87, size: 0x8, addend: 0x0, symName: __RNvXs2_NtNtCs9f3LFPSIp77_4core5slice3cmpSNtNtCsATtFUPiRFW_3syn4expr3ArmINtB5_14SlicePartialEqBD_E5equalBH_, symObjAddr: 0x9CC, symBinAddr: 0x56B1C, symSize: 0x17C }
  - { offset: 0xE6067, size: 0x8, addend: 0x0, symName: __RNvXs2_NtNtCs9f3LFPSIp77_4core5slice3cmpSTNtNtCsATtFUPiRFW_3syn4expr10FieldValueNtNtBI_5token5CommaEINtB5_14SlicePartialEqBD_E5equalBI_, symObjAddr: 0xB48, symBinAddr: 0x56C98, symSize: 0x17C }
  - { offset: 0xE6147, size: 0x8, addend: 0x0, symName: __RNvXs2_NtNtCs9f3LFPSIp77_4core5slice3cmpSTNtNtCsATtFUPiRFW_3syn4expr4ExprNtNtBI_5token5CommaEINtB5_14SlicePartialEqBD_E5equalBI_, symObjAddr: 0xCC4, symBinAddr: 0x56E14, symSize: 0x17C }
  - { offset: 0xE68D2, size: 0x8, addend: 0x0, symName: __RNvXNtNtCs9f3LFPSIp77_4core5clone6uninitNtNtCsATtFUPiRFW_3syn4expr10FieldValueNtB2_8CopySpec9clone_oneBG_, symObjAddr: 0x934, symBinAddr: 0x56A84, symSize: 0x50 }
  - { offset: 0xE6936, size: 0x8, addend: 0x0, symName: __RNvXNtNtCs9f3LFPSIp77_4core5clone6uninitNtNtCsATtFUPiRFW_3syn4expr4ExprNtB2_8CopySpec9clone_oneBG_, symObjAddr: 0x984, symBinAddr: 0x56AD4, symSize: 0x48 }
  - { offset: 0xE69A1, size: 0x8, addend: 0x0, symName: __RNvYNtNtCsATtFUPiRFW_3syn4expr10ExprAssignNtNtCs9f3LFPSIp77_4core5clone5Clone10clone_fromB6_, symObjAddr: 0x19AC, symBinAddr: 0x57AFC, symSize: 0x84 }
  - { offset: 0xE69E0, size: 0x8, addend: 0x0, symName: __RNvYNtNtCsATtFUPiRFW_3syn4expr10ExprBinaryNtNtCs9f3LFPSIp77_4core5clone5Clone10clone_fromB6_, symObjAddr: 0x1B60, symBinAddr: 0x57CB0, symSize: 0x84 }
  - { offset: 0xE6A1F, size: 0x8, addend: 0x0, symName: __RNvYNtNtCsATtFUPiRFW_3syn4expr10ExprRepeatNtNtCs9f3LFPSIp77_4core5clone5Clone10clone_fromB6_, symObjAddr: 0x1D14, symBinAddr: 0x57E64, symSize: 0x84 }
  - { offset: 0xE6A5E, size: 0x8, addend: 0x0, symName: __RNvYNtNtCsATtFUPiRFW_3syn4expr10ExprReturnNtNtCs9f3LFPSIp77_4core5clone5Clone10clone_fromB6_, symObjAddr: 0x1EC8, symBinAddr: 0x58018, symSize: 0x84 }
  - { offset: 0xE6A9D, size: 0x8, addend: 0x0, symName: __RNvYNtNtCsATtFUPiRFW_3syn4expr10ExprStructNtNtCs9f3LFPSIp77_4core5clone5Clone10clone_fromB6_, symObjAddr: 0x207C, symBinAddr: 0x581CC, symSize: 0x84 }
  - { offset: 0xE6ADC, size: 0x8, addend: 0x0, symName: __RNvYNtNtCsATtFUPiRFW_3syn4expr10ExprUnsafeNtNtCs9f3LFPSIp77_4core5clone5Clone10clone_fromB6_, symObjAddr: 0x2230, symBinAddr: 0x58380, symSize: 0x84 }
  - { offset: 0xE6B1B, size: 0x8, addend: 0x0, symName: __RNvYNtNtCsATtFUPiRFW_3syn4expr10FieldValueNtNtCs9f3LFPSIp77_4core5clone5Clone10clone_fromB6_, symObjAddr: 0x23E4, symBinAddr: 0x58534, symSize: 0x8C }
  - { offset: 0xE6B5A, size: 0x8, addend: 0x0, symName: __RNvYNtNtCsATtFUPiRFW_3syn4expr11ExprClosureNtNtCs9f3LFPSIp77_4core5clone5Clone10clone_fromB6_, symObjAddr: 0x25A0, symBinAddr: 0x586F0, symSize: 0x84 }
  - { offset: 0xE6B99, size: 0x8, addend: 0x0, symName: __RNvYNtNtCsATtFUPiRFW_3syn4expr11ExprForLoopNtNtCs9f3LFPSIp77_4core5clone5Clone10clone_fromB6_, symObjAddr: 0x2754, symBinAddr: 0x588A4, symSize: 0x84 }
  - { offset: 0xE6BD8, size: 0x8, addend: 0x0, symName: __RNvYNtNtCsATtFUPiRFW_3syn4expr11ExprRawAddrNtNtCs9f3LFPSIp77_4core5clone5Clone10clone_fromB6_, symObjAddr: 0x2908, symBinAddr: 0x58A58, symSize: 0x84 }
  - { offset: 0xE6C17, size: 0x8, addend: 0x0, symName: __RNvYNtNtCsATtFUPiRFW_3syn4expr11RangeLimitsNtNtCs9f3LFPSIp77_4core5clone5Clone10clone_fromB6_, symObjAddr: 0x2AA0, symBinAddr: 0x58BF0, symSize: 0x48 }
  - { offset: 0xE6C56, size: 0x8, addend: 0x0, symName: __RNvYNtNtCsATtFUPiRFW_3syn4expr12ExprContinueNtNtCs9f3LFPSIp77_4core5clone5Clone10clone_fromB6_, symObjAddr: 0x2C18, symBinAddr: 0x58D68, symSize: 0x84 }
  - { offset: 0xE6C95, size: 0x8, addend: 0x0, symName: __RNvYNtNtCsATtFUPiRFW_3syn4expr12ExprTryBlockNtNtCs9f3LFPSIp77_4core5clone5Clone10clone_fromB6_, symObjAddr: 0x2DCC, symBinAddr: 0x58F1C, symSize: 0x84 }
  - { offset: 0xE6CD4, size: 0x8, addend: 0x0, symName: __RNvYNtNtCsATtFUPiRFW_3syn4expr13ExprReferenceNtNtCs9f3LFPSIp77_4core5clone5Clone10clone_fromB6_, symObjAddr: 0x2F80, symBinAddr: 0x590D0, symSize: 0x84 }
  - { offset: 0xE6D13, size: 0x8, addend: 0x0, symName: __RNvYNtNtCsATtFUPiRFW_3syn4expr14ExprMethodCallNtNtCs9f3LFPSIp77_4core5clone5Clone10clone_fromB6_, symObjAddr: 0x3134, symBinAddr: 0x59284, symSize: 0x84 }
  - { offset: 0xE6D52, size: 0x8, addend: 0x0, symName: __RNvYNtNtCsATtFUPiRFW_3syn4expr17PointerMutabilityNtNtCs9f3LFPSIp77_4core5clone5Clone10clone_fromB6_, symObjAddr: 0x32DC, symBinAddr: 0x5942C, symSize: 0x54 }
  - { offset: 0xE6D91, size: 0x8, addend: 0x0, symName: __RNvYNtNtCsATtFUPiRFW_3syn4expr3ArmNtNtCs9f3LFPSIp77_4core5clone5Clone10clone_fromB6_, symObjAddr: 0x3460, symBinAddr: 0x595B0, symSize: 0x8C }
  - { offset: 0xE6DD0, size: 0x8, addend: 0x0, symName: __RNvYNtNtCsATtFUPiRFW_3syn4expr4ExprNtNtCs9f3LFPSIp77_4core5clone5Clone10clone_fromB6_, symObjAddr: 0x361C, symBinAddr: 0x5976C, symSize: 0x84 }
  - { offset: 0xE6E0F, size: 0x8, addend: 0x0, symName: __RNvYNtNtCsATtFUPiRFW_3syn4expr5IndexNtNtCs9f3LFPSIp77_4core5clone5Clone10clone_fromB6_, symObjAddr: 0x37C4, symBinAddr: 0x59914, symSize: 0x54 }
  - { offset: 0xE6E4E, size: 0x8, addend: 0x0, symName: __RNvYNtNtCsATtFUPiRFW_3syn4expr5LabelNtNtCs9f3LFPSIp77_4core5clone5Clone10clone_fromB6_, symObjAddr: 0x3948, symBinAddr: 0x59A98, symSize: 0x84 }
  - { offset: 0xE6E8D, size: 0x8, addend: 0x0, symName: __RNvYNtNtCsATtFUPiRFW_3syn4expr6ExprIfNtNtCs9f3LFPSIp77_4core5clone5Clone10clone_fromB6_, symObjAddr: 0x3AFC, symBinAddr: 0x59C4C, symSize: 0x84 }
  - { offset: 0xE6ECC, size: 0x8, addend: 0x0, symName: __RNvYNtNtCsATtFUPiRFW_3syn4expr6MemberNtNtCs9f3LFPSIp77_4core5clone5Clone10clone_fromB6_, symObjAddr: 0x3CB0, symBinAddr: 0x59E00, symSize: 0x84 }
  - { offset: 0xE6F0B, size: 0x8, addend: 0x0, symName: __RNvYNtNtCsATtFUPiRFW_3syn4expr7ExprLetNtNtCs9f3LFPSIp77_4core5clone5Clone10clone_fromB6_, symObjAddr: 0x3E64, symBinAddr: 0x59FB4, symSize: 0x84 }
  - { offset: 0xE6F4A, size: 0x8, addend: 0x0, symName: __RNvYNtNtCsATtFUPiRFW_3syn4expr7ExprLitNtNtCs9f3LFPSIp77_4core5clone5Clone10clone_fromB6_, symObjAddr: 0x4018, symBinAddr: 0x5A168, symSize: 0x84 }
  - { offset: 0xE6F89, size: 0x8, addend: 0x0, symName: __RNvYNtNtCsATtFUPiRFW_3syn4expr7ExprTryNtNtCs9f3LFPSIp77_4core5clone5Clone10clone_fromB6_, symObjAddr: 0x41CC, symBinAddr: 0x5A31C, symSize: 0x84 }
  - { offset: 0xE6FC8, size: 0x8, addend: 0x0, symName: __RNvYNtNtCsATtFUPiRFW_3syn4expr8ExprCallNtNtCs9f3LFPSIp77_4core5clone5Clone10clone_fromB6_, symObjAddr: 0x4380, symBinAddr: 0x5A4D0, symSize: 0x84 }
  - { offset: 0xE7007, size: 0x8, addend: 0x0, symName: __RNvYNtNtCsATtFUPiRFW_3syn4expr8ExprCastNtNtCs9f3LFPSIp77_4core5clone5Clone10clone_fromB6_, symObjAddr: 0x4534, symBinAddr: 0x5A684, symSize: 0x84 }
  - { offset: 0xE7046, size: 0x8, addend: 0x0, symName: __RNvYNtNtCsATtFUPiRFW_3syn4expr8ExprLoopNtNtCs9f3LFPSIp77_4core5clone5Clone10clone_fromB6_, symObjAddr: 0x46E8, symBinAddr: 0x5A838, symSize: 0x84 }
  - { offset: 0xE7085, size: 0x8, addend: 0x0, symName: __RNvYNtNtCsATtFUPiRFW_3syn4expr8ExprPathNtNtCs9f3LFPSIp77_4core5clone5Clone10clone_fromB6_, symObjAddr: 0x489C, symBinAddr: 0x5A9EC, symSize: 0x84 }
  - { offset: 0xE70C4, size: 0x8, addend: 0x0, symName: __RNvYNtNtCsATtFUPiRFW_3syn4expr9ExprArrayNtNtCs9f3LFPSIp77_4core5clone5Clone10clone_fromB6_, symObjAddr: 0x4A50, symBinAddr: 0x5ABA0, symSize: 0x84 }
  - { offset: 0xE7103, size: 0x8, addend: 0x0, symName: __RNvYNtNtCsATtFUPiRFW_3syn4expr9ExprAsyncNtNtCs9f3LFPSIp77_4core5clone5Clone10clone_fromB6_, symObjAddr: 0x4C04, symBinAddr: 0x5AD54, symSize: 0x84 }
  - { offset: 0xE7142, size: 0x8, addend: 0x0, symName: __RNvYNtNtCsATtFUPiRFW_3syn4expr9ExprAwaitNtNtCs9f3LFPSIp77_4core5clone5Clone10clone_fromB6_, symObjAddr: 0x4DB8, symBinAddr: 0x5AF08, symSize: 0x84 }
  - { offset: 0xE7181, size: 0x8, addend: 0x0, symName: __RNvYNtNtCsATtFUPiRFW_3syn4expr9ExprBlockNtNtCs9f3LFPSIp77_4core5clone5Clone10clone_fromB6_, symObjAddr: 0x4F6C, symBinAddr: 0x5B0BC, symSize: 0x84 }
  - { offset: 0xE71C0, size: 0x8, addend: 0x0, symName: __RNvYNtNtCsATtFUPiRFW_3syn4expr9ExprBreakNtNtCs9f3LFPSIp77_4core5clone5Clone10clone_fromB6_, symObjAddr: 0x5120, symBinAddr: 0x5B270, symSize: 0x84 }
  - { offset: 0xE71FF, size: 0x8, addend: 0x0, symName: __RNvYNtNtCsATtFUPiRFW_3syn4expr9ExprConstNtNtCs9f3LFPSIp77_4core5clone5Clone10clone_fromB6_, symObjAddr: 0x52D4, symBinAddr: 0x5B424, symSize: 0x84 }
  - { offset: 0xE723E, size: 0x8, addend: 0x0, symName: __RNvYNtNtCsATtFUPiRFW_3syn4expr9ExprFieldNtNtCs9f3LFPSIp77_4core5clone5Clone10clone_fromB6_, symObjAddr: 0x5488, symBinAddr: 0x5B5D8, symSize: 0x84 }
  - { offset: 0xE727D, size: 0x8, addend: 0x0, symName: __RNvYNtNtCsATtFUPiRFW_3syn4expr9ExprGroupNtNtCs9f3LFPSIp77_4core5clone5Clone10clone_fromB6_, symObjAddr: 0x563C, symBinAddr: 0x5B78C, symSize: 0x84 }
  - { offset: 0xE72BC, size: 0x8, addend: 0x0, symName: __RNvYNtNtCsATtFUPiRFW_3syn4expr9ExprIndexNtNtCs9f3LFPSIp77_4core5clone5Clone10clone_fromB6_, symObjAddr: 0x57F0, symBinAddr: 0x5B940, symSize: 0x84 }
  - { offset: 0xE72FB, size: 0x8, addend: 0x0, symName: __RNvYNtNtCsATtFUPiRFW_3syn4expr9ExprInferNtNtCs9f3LFPSIp77_4core5clone5Clone10clone_fromB6_, symObjAddr: 0x59A4, symBinAddr: 0x5BAF4, symSize: 0x84 }
  - { offset: 0xE733A, size: 0x8, addend: 0x0, symName: __RNvYNtNtCsATtFUPiRFW_3syn4expr9ExprMacroNtNtCs9f3LFPSIp77_4core5clone5Clone10clone_fromB6_, symObjAddr: 0x5B58, symBinAddr: 0x5BCA8, symSize: 0x84 }
  - { offset: 0xE7379, size: 0x8, addend: 0x0, symName: __RNvYNtNtCsATtFUPiRFW_3syn4expr9ExprMatchNtNtCs9f3LFPSIp77_4core5clone5Clone10clone_fromB6_, symObjAddr: 0x5D0C, symBinAddr: 0x5BE5C, symSize: 0x84 }
  - { offset: 0xE73B8, size: 0x8, addend: 0x0, symName: __RNvYNtNtCsATtFUPiRFW_3syn4expr9ExprParenNtNtCs9f3LFPSIp77_4core5clone5Clone10clone_fromB6_, symObjAddr: 0x5EC0, symBinAddr: 0x5C010, symSize: 0x84 }
  - { offset: 0xE73F7, size: 0x8, addend: 0x0, symName: __RNvYNtNtCsATtFUPiRFW_3syn4expr9ExprRangeNtNtCs9f3LFPSIp77_4core5clone5Clone10clone_fromB6_, symObjAddr: 0x6074, symBinAddr: 0x5C1C4, symSize: 0x84 }
  - { offset: 0xE7436, size: 0x8, addend: 0x0, symName: __RNvYNtNtCsATtFUPiRFW_3syn4expr9ExprTupleNtNtCs9f3LFPSIp77_4core5clone5Clone10clone_fromB6_, symObjAddr: 0x6228, symBinAddr: 0x5C378, symSize: 0x84 }
  - { offset: 0xE7475, size: 0x8, addend: 0x0, symName: __RNvYNtNtCsATtFUPiRFW_3syn4expr9ExprUnaryNtNtCs9f3LFPSIp77_4core5clone5Clone10clone_fromB6_, symObjAddr: 0x63DC, symBinAddr: 0x5C52C, symSize: 0x84 }
  - { offset: 0xE74B4, size: 0x8, addend: 0x0, symName: __RNvYNtNtCsATtFUPiRFW_3syn4expr9ExprWhileNtNtCs9f3LFPSIp77_4core5clone5Clone10clone_fromB6_, symObjAddr: 0x6590, symBinAddr: 0x5C6E0, symSize: 0x84 }
  - { offset: 0xE74F3, size: 0x8, addend: 0x0, symName: __RNvYNtNtCsATtFUPiRFW_3syn4expr9ExprYieldNtNtCs9f3LFPSIp77_4core5clone5Clone10clone_fromB6_, symObjAddr: 0x6744, symBinAddr: 0x5C894, symSize: 0x84 }
  - { offset: 0xE75FD, size: 0x8, addend: 0x0, symName: __RNvXs7_NtNtCs9f3LFPSIp77_4core3cmp5implsRNtNtCsATtFUPiRFW_3syn4expr10ExprAssignNtB7_9PartialEq2eqBH_, symObjAddr: 0xE40, symBinAddr: 0x56F90, symSize: 0x34 }
  - { offset: 0xE764C, size: 0x8, addend: 0x0, symName: __RNvXs7_NtNtCs9f3LFPSIp77_4core3cmp5implsRNtNtCsATtFUPiRFW_3syn4expr10ExprBinaryNtB7_9PartialEq2eqBH_, symObjAddr: 0xE74, symBinAddr: 0x56FC4, symSize: 0x34 }
  - { offset: 0xE769B, size: 0x8, addend: 0x0, symName: __RNvXs7_NtNtCs9f3LFPSIp77_4core3cmp5implsRNtNtCsATtFUPiRFW_3syn4expr10ExprRepeatNtB7_9PartialEq2eqBH_, symObjAddr: 0xEA8, symBinAddr: 0x56FF8, symSize: 0x34 }
  - { offset: 0xE76EA, size: 0x8, addend: 0x0, symName: __RNvXs7_NtNtCs9f3LFPSIp77_4core3cmp5implsRNtNtCsATtFUPiRFW_3syn4expr10ExprReturnNtB7_9PartialEq2eqBH_, symObjAddr: 0xEDC, symBinAddr: 0x5702C, symSize: 0x34 }
  - { offset: 0xE7739, size: 0x8, addend: 0x0, symName: __RNvXs7_NtNtCs9f3LFPSIp77_4core3cmp5implsRNtNtCsATtFUPiRFW_3syn4expr10ExprStructNtB7_9PartialEq2eqBH_, symObjAddr: 0xF10, symBinAddr: 0x57060, symSize: 0x34 }
  - { offset: 0xE7788, size: 0x8, addend: 0x0, symName: __RNvXs7_NtNtCs9f3LFPSIp77_4core3cmp5implsRNtNtCsATtFUPiRFW_3syn4expr10ExprUnsafeNtB7_9PartialEq2eqBH_, symObjAddr: 0xF44, symBinAddr: 0x57094, symSize: 0x34 }
  - { offset: 0xE77D7, size: 0x8, addend: 0x0, symName: __RNvXs7_NtNtCs9f3LFPSIp77_4core3cmp5implsRNtNtCsATtFUPiRFW_3syn4expr11ExprClosureNtB7_9PartialEq2eqBH_, symObjAddr: 0xF78, symBinAddr: 0x570C8, symSize: 0x34 }
  - { offset: 0xE7826, size: 0x8, addend: 0x0, symName: __RNvXs7_NtNtCs9f3LFPSIp77_4core3cmp5implsRNtNtCsATtFUPiRFW_3syn4expr11ExprForLoopNtB7_9PartialEq2eqBH_, symObjAddr: 0xFAC, symBinAddr: 0x570FC, symSize: 0x34 }
  - { offset: 0xE7875, size: 0x8, addend: 0x0, symName: __RNvXs7_NtNtCs9f3LFPSIp77_4core3cmp5implsRNtNtCsATtFUPiRFW_3syn4expr11ExprRawAddrNtB7_9PartialEq2eqBH_, symObjAddr: 0xFE0, symBinAddr: 0x57130, symSize: 0x34 }
  - { offset: 0xE78C4, size: 0x8, addend: 0x0, symName: __RNvXs7_NtNtCs9f3LFPSIp77_4core3cmp5implsRNtNtCsATtFUPiRFW_3syn4expr12ExprContinueNtB7_9PartialEq2eqBH_, symObjAddr: 0x1014, symBinAddr: 0x57164, symSize: 0x34 }
  - { offset: 0xE7913, size: 0x8, addend: 0x0, symName: __RNvXs7_NtNtCs9f3LFPSIp77_4core3cmp5implsRNtNtCsATtFUPiRFW_3syn4expr12ExprTryBlockNtB7_9PartialEq2eqBH_, symObjAddr: 0x1048, symBinAddr: 0x57198, symSize: 0x34 }
  - { offset: 0xE7962, size: 0x8, addend: 0x0, symName: __RNvXs7_NtNtCs9f3LFPSIp77_4core3cmp5implsRNtNtCsATtFUPiRFW_3syn4expr13ExprReferenceNtB7_9PartialEq2eqBH_, symObjAddr: 0x107C, symBinAddr: 0x571CC, symSize: 0x34 }
  - { offset: 0xE79B1, size: 0x8, addend: 0x0, symName: __RNvXs7_NtNtCs9f3LFPSIp77_4core3cmp5implsRNtNtCsATtFUPiRFW_3syn4expr14ExprMethodCallNtB7_9PartialEq2eqBH_, symObjAddr: 0x10B0, symBinAddr: 0x57200, symSize: 0x34 }
  - { offset: 0xE7A00, size: 0x8, addend: 0x0, symName: __RNvXs7_NtNtCs9f3LFPSIp77_4core3cmp5implsRNtNtCsATtFUPiRFW_3syn4expr4ExprNtB7_9PartialEq2eqBH_, symObjAddr: 0x10E4, symBinAddr: 0x57234, symSize: 0x34 }
  - { offset: 0xE7A4F, size: 0x8, addend: 0x0, symName: __RNvXs7_NtNtCs9f3LFPSIp77_4core3cmp5implsRNtNtCsATtFUPiRFW_3syn4expr5IndexNtB7_9PartialEq2eqBH_, symObjAddr: 0x1118, symBinAddr: 0x57268, symSize: 0x34 }
  - { offset: 0xE7A9E, size: 0x8, addend: 0x0, symName: __RNvXs7_NtNtCs9f3LFPSIp77_4core3cmp5implsRNtNtCsATtFUPiRFW_3syn4expr6ExprIfNtB7_9PartialEq2eqBH_, symObjAddr: 0x114C, symBinAddr: 0x5729C, symSize: 0x34 }
  - { offset: 0xE7AED, size: 0x8, addend: 0x0, symName: __RNvXs7_NtNtCs9f3LFPSIp77_4core3cmp5implsRNtNtCsATtFUPiRFW_3syn4expr7ExprLetNtB7_9PartialEq2eqBH_, symObjAddr: 0x1180, symBinAddr: 0x572D0, symSize: 0x34 }
  - { offset: 0xE7B3C, size: 0x8, addend: 0x0, symName: __RNvXs7_NtNtCs9f3LFPSIp77_4core3cmp5implsRNtNtCsATtFUPiRFW_3syn4expr7ExprLitNtB7_9PartialEq2eqBH_, symObjAddr: 0x11B4, symBinAddr: 0x57304, symSize: 0x34 }
  - { offset: 0xE7B8B, size: 0x8, addend: 0x0, symName: __RNvXs7_NtNtCs9f3LFPSIp77_4core3cmp5implsRNtNtCsATtFUPiRFW_3syn4expr7ExprTryNtB7_9PartialEq2eqBH_, symObjAddr: 0x11E8, symBinAddr: 0x57338, symSize: 0x34 }
  - { offset: 0xE7BDA, size: 0x8, addend: 0x0, symName: __RNvXs7_NtNtCs9f3LFPSIp77_4core3cmp5implsRNtNtCsATtFUPiRFW_3syn4expr8ExprCallNtB7_9PartialEq2eqBH_, symObjAddr: 0x121C, symBinAddr: 0x5736C, symSize: 0x34 }
  - { offset: 0xE7C29, size: 0x8, addend: 0x0, symName: __RNvXs7_NtNtCs9f3LFPSIp77_4core3cmp5implsRNtNtCsATtFUPiRFW_3syn4expr8ExprCastNtB7_9PartialEq2eqBH_, symObjAddr: 0x1250, symBinAddr: 0x573A0, symSize: 0x34 }
  - { offset: 0xE7C78, size: 0x8, addend: 0x0, symName: __RNvXs7_NtNtCs9f3LFPSIp77_4core3cmp5implsRNtNtCsATtFUPiRFW_3syn4expr8ExprLoopNtB7_9PartialEq2eqBH_, symObjAddr: 0x1284, symBinAddr: 0x573D4, symSize: 0x34 }
  - { offset: 0xE7CC7, size: 0x8, addend: 0x0, symName: __RNvXs7_NtNtCs9f3LFPSIp77_4core3cmp5implsRNtNtCsATtFUPiRFW_3syn4expr8ExprPathNtB7_9PartialEq2eqBH_, symObjAddr: 0x12B8, symBinAddr: 0x57408, symSize: 0x34 }
  - { offset: 0xE7D16, size: 0x8, addend: 0x0, symName: __RNvXs7_NtNtCs9f3LFPSIp77_4core3cmp5implsRNtNtCsATtFUPiRFW_3syn4expr9ExprArrayNtB7_9PartialEq2eqBH_, symObjAddr: 0x12EC, symBinAddr: 0x5743C, symSize: 0x34 }
  - { offset: 0xE7D65, size: 0x8, addend: 0x0, symName: __RNvXs7_NtNtCs9f3LFPSIp77_4core3cmp5implsRNtNtCsATtFUPiRFW_3syn4expr9ExprAsyncNtB7_9PartialEq2eqBH_, symObjAddr: 0x1320, symBinAddr: 0x57470, symSize: 0x34 }
  - { offset: 0xE7DB4, size: 0x8, addend: 0x0, symName: __RNvXs7_NtNtCs9f3LFPSIp77_4core3cmp5implsRNtNtCsATtFUPiRFW_3syn4expr9ExprAwaitNtB7_9PartialEq2eqBH_, symObjAddr: 0x1354, symBinAddr: 0x574A4, symSize: 0x34 }
  - { offset: 0xE7E03, size: 0x8, addend: 0x0, symName: __RNvXs7_NtNtCs9f3LFPSIp77_4core3cmp5implsRNtNtCsATtFUPiRFW_3syn4expr9ExprBlockNtB7_9PartialEq2eqBH_, symObjAddr: 0x1388, symBinAddr: 0x574D8, symSize: 0x34 }
  - { offset: 0xE7E52, size: 0x8, addend: 0x0, symName: __RNvXs7_NtNtCs9f3LFPSIp77_4core3cmp5implsRNtNtCsATtFUPiRFW_3syn4expr9ExprBreakNtB7_9PartialEq2eqBH_, symObjAddr: 0x13BC, symBinAddr: 0x5750C, symSize: 0x34 }
  - { offset: 0xE7EA1, size: 0x8, addend: 0x0, symName: __RNvXs7_NtNtCs9f3LFPSIp77_4core3cmp5implsRNtNtCsATtFUPiRFW_3syn4expr9ExprConstNtB7_9PartialEq2eqBH_, symObjAddr: 0x13F0, symBinAddr: 0x57540, symSize: 0x34 }
  - { offset: 0xE7EF0, size: 0x8, addend: 0x0, symName: __RNvXs7_NtNtCs9f3LFPSIp77_4core3cmp5implsRNtNtCsATtFUPiRFW_3syn4expr9ExprFieldNtB7_9PartialEq2eqBH_, symObjAddr: 0x1424, symBinAddr: 0x57574, symSize: 0x34 }
  - { offset: 0xE7F3F, size: 0x8, addend: 0x0, symName: __RNvXs7_NtNtCs9f3LFPSIp77_4core3cmp5implsRNtNtCsATtFUPiRFW_3syn4expr9ExprGroupNtB7_9PartialEq2eqBH_, symObjAddr: 0x1458, symBinAddr: 0x575A8, symSize: 0x34 }
  - { offset: 0xE7F8E, size: 0x8, addend: 0x0, symName: __RNvXs7_NtNtCs9f3LFPSIp77_4core3cmp5implsRNtNtCsATtFUPiRFW_3syn4expr9ExprIndexNtB7_9PartialEq2eqBH_, symObjAddr: 0x148C, symBinAddr: 0x575DC, symSize: 0x34 }
  - { offset: 0xE7FDD, size: 0x8, addend: 0x0, symName: __RNvXs7_NtNtCs9f3LFPSIp77_4core3cmp5implsRNtNtCsATtFUPiRFW_3syn4expr9ExprInferNtB7_9PartialEq2eqBH_, symObjAddr: 0x14C0, symBinAddr: 0x57610, symSize: 0x34 }
  - { offset: 0xE802C, size: 0x8, addend: 0x0, symName: __RNvXs7_NtNtCs9f3LFPSIp77_4core3cmp5implsRNtNtCsATtFUPiRFW_3syn4expr9ExprMacroNtB7_9PartialEq2eqBH_, symObjAddr: 0x14F4, symBinAddr: 0x57644, symSize: 0x34 }
  - { offset: 0xE807B, size: 0x8, addend: 0x0, symName: __RNvXs7_NtNtCs9f3LFPSIp77_4core3cmp5implsRNtNtCsATtFUPiRFW_3syn4expr9ExprMatchNtB7_9PartialEq2eqBH_, symObjAddr: 0x1528, symBinAddr: 0x57678, symSize: 0x34 }
  - { offset: 0xE80CA, size: 0x8, addend: 0x0, symName: __RNvXs7_NtNtCs9f3LFPSIp77_4core3cmp5implsRNtNtCsATtFUPiRFW_3syn4expr9ExprParenNtB7_9PartialEq2eqBH_, symObjAddr: 0x155C, symBinAddr: 0x576AC, symSize: 0x34 }
  - { offset: 0xE8119, size: 0x8, addend: 0x0, symName: __RNvXs7_NtNtCs9f3LFPSIp77_4core3cmp5implsRNtNtCsATtFUPiRFW_3syn4expr9ExprRangeNtB7_9PartialEq2eqBH_, symObjAddr: 0x1590, symBinAddr: 0x576E0, symSize: 0x34 }
  - { offset: 0xE8168, size: 0x8, addend: 0x0, symName: __RNvXs7_NtNtCs9f3LFPSIp77_4core3cmp5implsRNtNtCsATtFUPiRFW_3syn4expr9ExprTupleNtB7_9PartialEq2eqBH_, symObjAddr: 0x15C4, symBinAddr: 0x57714, symSize: 0x34 }
  - { offset: 0xE81B7, size: 0x8, addend: 0x0, symName: __RNvXs7_NtNtCs9f3LFPSIp77_4core3cmp5implsRNtNtCsATtFUPiRFW_3syn4expr9ExprUnaryNtB7_9PartialEq2eqBH_, symObjAddr: 0x15F8, symBinAddr: 0x57748, symSize: 0x34 }
  - { offset: 0xE8206, size: 0x8, addend: 0x0, symName: __RNvXs7_NtNtCs9f3LFPSIp77_4core3cmp5implsRNtNtCsATtFUPiRFW_3syn4expr9ExprWhileNtB7_9PartialEq2eqBH_, symObjAddr: 0x162C, symBinAddr: 0x5777C, symSize: 0x34 }
  - { offset: 0xE8255, size: 0x8, addend: 0x0, symName: __RNvXs7_NtNtCs9f3LFPSIp77_4core3cmp5implsRNtNtCsATtFUPiRFW_3syn4expr9ExprYieldNtB7_9PartialEq2eqBH_, symObjAddr: 0x1660, symBinAddr: 0x577B0, symSize: 0x34 }
  - { offset: 0xE82AB, size: 0x8, addend: 0x0, symName: __RNvYNtNtCsATtFUPiRFW_3syn4expr10ExprAssignNtNtCs9f3LFPSIp77_4core3cmp2Eq27assert_receiver_is_total_eqB6_, symObjAddr: 0x196C, symBinAddr: 0x57ABC, symSize: 0x10 }
  - { offset: 0xE82DE, size: 0x8, addend: 0x0, symName: __RNvYNtNtCsATtFUPiRFW_3syn4expr10ExprBinaryNtNtCs9f3LFPSIp77_4core3cmp2Eq27assert_receiver_is_total_eqB6_, symObjAddr: 0x1B20, symBinAddr: 0x57C70, symSize: 0x10 }
  - { offset: 0xE8311, size: 0x8, addend: 0x0, symName: __RNvYNtNtCsATtFUPiRFW_3syn4expr10ExprRepeatNtNtCs9f3LFPSIp77_4core3cmp2Eq27assert_receiver_is_total_eqB6_, symObjAddr: 0x1CD4, symBinAddr: 0x57E24, symSize: 0x10 }
  - { offset: 0xE8344, size: 0x8, addend: 0x0, symName: __RNvYNtNtCsATtFUPiRFW_3syn4expr10ExprReturnNtNtCs9f3LFPSIp77_4core3cmp2Eq27assert_receiver_is_total_eqB6_, symObjAddr: 0x1E88, symBinAddr: 0x57FD8, symSize: 0x10 }
  - { offset: 0xE8377, size: 0x8, addend: 0x0, symName: __RNvYNtNtCsATtFUPiRFW_3syn4expr10ExprStructNtNtCs9f3LFPSIp77_4core3cmp2Eq27assert_receiver_is_total_eqB6_, symObjAddr: 0x203C, symBinAddr: 0x5818C, symSize: 0x10 }
  - { offset: 0xE83AA, size: 0x8, addend: 0x0, symName: __RNvYNtNtCsATtFUPiRFW_3syn4expr10ExprUnsafeNtNtCs9f3LFPSIp77_4core3cmp2Eq27assert_receiver_is_total_eqB6_, symObjAddr: 0x21F0, symBinAddr: 0x58340, symSize: 0x10 }
  - { offset: 0xE83DD, size: 0x8, addend: 0x0, symName: __RNvYNtNtCsATtFUPiRFW_3syn4expr10FieldValueNtNtCs9f3LFPSIp77_4core3cmp2Eq27assert_receiver_is_total_eqB6_, symObjAddr: 0x23A4, symBinAddr: 0x584F4, symSize: 0x10 }
  - { offset: 0xE8410, size: 0x8, addend: 0x0, symName: __RNvYNtNtCsATtFUPiRFW_3syn4expr11ExprClosureNtNtCs9f3LFPSIp77_4core3cmp2Eq27assert_receiver_is_total_eqB6_, symObjAddr: 0x2560, symBinAddr: 0x586B0, symSize: 0x10 }
  - { offset: 0xE8443, size: 0x8, addend: 0x0, symName: __RNvYNtNtCsATtFUPiRFW_3syn4expr11ExprForLoopNtNtCs9f3LFPSIp77_4core3cmp2Eq27assert_receiver_is_total_eqB6_, symObjAddr: 0x2714, symBinAddr: 0x58864, symSize: 0x10 }
  - { offset: 0xE8476, size: 0x8, addend: 0x0, symName: __RNvYNtNtCsATtFUPiRFW_3syn4expr11ExprRawAddrNtNtCs9f3LFPSIp77_4core3cmp2Eq27assert_receiver_is_total_eqB6_, symObjAddr: 0x28C8, symBinAddr: 0x58A18, symSize: 0x10 }
  - { offset: 0xE84A9, size: 0x8, addend: 0x0, symName: __RNvYNtNtCsATtFUPiRFW_3syn4expr11RangeLimitsNtNtCs9f3LFPSIp77_4core3cmp2Eq27assert_receiver_is_total_eqB6_, symObjAddr: 0x2A60, symBinAddr: 0x58BB0, symSize: 0x10 }
  - { offset: 0xE84DC, size: 0x8, addend: 0x0, symName: __RNvYNtNtCsATtFUPiRFW_3syn4expr12ExprContinueNtNtCs9f3LFPSIp77_4core3cmp2Eq27assert_receiver_is_total_eqB6_, symObjAddr: 0x2BD8, symBinAddr: 0x58D28, symSize: 0x10 }
  - { offset: 0xE850F, size: 0x8, addend: 0x0, symName: __RNvYNtNtCsATtFUPiRFW_3syn4expr12ExprTryBlockNtNtCs9f3LFPSIp77_4core3cmp2Eq27assert_receiver_is_total_eqB6_, symObjAddr: 0x2D8C, symBinAddr: 0x58EDC, symSize: 0x10 }
  - { offset: 0xE8542, size: 0x8, addend: 0x0, symName: __RNvYNtNtCsATtFUPiRFW_3syn4expr13ExprReferenceNtNtCs9f3LFPSIp77_4core3cmp2Eq27assert_receiver_is_total_eqB6_, symObjAddr: 0x2F40, symBinAddr: 0x59090, symSize: 0x10 }
  - { offset: 0xE8575, size: 0x8, addend: 0x0, symName: __RNvYNtNtCsATtFUPiRFW_3syn4expr14ExprMethodCallNtNtCs9f3LFPSIp77_4core3cmp2Eq27assert_receiver_is_total_eqB6_, symObjAddr: 0x30F4, symBinAddr: 0x59244, symSize: 0x10 }
  - { offset: 0xE85A8, size: 0x8, addend: 0x0, symName: __RNvYNtNtCsATtFUPiRFW_3syn4expr17PointerMutabilityNtNtCs9f3LFPSIp77_4core3cmp2Eq27assert_receiver_is_total_eqB6_, symObjAddr: 0x329C, symBinAddr: 0x593EC, symSize: 0x10 }
  - { offset: 0xE85DB, size: 0x8, addend: 0x0, symName: __RNvYNtNtCsATtFUPiRFW_3syn4expr3ArmNtNtCs9f3LFPSIp77_4core3cmp2Eq27assert_receiver_is_total_eqB6_, symObjAddr: 0x3420, symBinAddr: 0x59570, symSize: 0x10 }
  - { offset: 0xE860E, size: 0x8, addend: 0x0, symName: __RNvYNtNtCsATtFUPiRFW_3syn4expr4ExprNtNtCs9f3LFPSIp77_4core3cmp2Eq27assert_receiver_is_total_eqB6_, symObjAddr: 0x35DC, symBinAddr: 0x5972C, symSize: 0x10 }
  - { offset: 0xE8641, size: 0x8, addend: 0x0, symName: __RNvYNtNtCsATtFUPiRFW_3syn4expr5IndexNtNtCs9f3LFPSIp77_4core3cmp2Eq27assert_receiver_is_total_eqB6_, symObjAddr: 0x3784, symBinAddr: 0x598D4, symSize: 0x10 }
  - { offset: 0xE8674, size: 0x8, addend: 0x0, symName: __RNvYNtNtCsATtFUPiRFW_3syn4expr5LabelNtNtCs9f3LFPSIp77_4core3cmp2Eq27assert_receiver_is_total_eqB6_, symObjAddr: 0x3908, symBinAddr: 0x59A58, symSize: 0x10 }
  - { offset: 0xE86A7, size: 0x8, addend: 0x0, symName: __RNvYNtNtCsATtFUPiRFW_3syn4expr6ExprIfNtNtCs9f3LFPSIp77_4core3cmp2Eq27assert_receiver_is_total_eqB6_, symObjAddr: 0x3ABC, symBinAddr: 0x59C0C, symSize: 0x10 }
  - { offset: 0xE86DA, size: 0x8, addend: 0x0, symName: __RNvYNtNtCsATtFUPiRFW_3syn4expr6MemberNtNtCs9f3LFPSIp77_4core3cmp2Eq27assert_receiver_is_total_eqB6_, symObjAddr: 0x3C70, symBinAddr: 0x59DC0, symSize: 0x10 }
  - { offset: 0xE870D, size: 0x8, addend: 0x0, symName: __RNvYNtNtCsATtFUPiRFW_3syn4expr7ExprLetNtNtCs9f3LFPSIp77_4core3cmp2Eq27assert_receiver_is_total_eqB6_, symObjAddr: 0x3E24, symBinAddr: 0x59F74, symSize: 0x10 }
  - { offset: 0xE8740, size: 0x8, addend: 0x0, symName: __RNvYNtNtCsATtFUPiRFW_3syn4expr7ExprLitNtNtCs9f3LFPSIp77_4core3cmp2Eq27assert_receiver_is_total_eqB6_, symObjAddr: 0x3FD8, symBinAddr: 0x5A128, symSize: 0x10 }
  - { offset: 0xE8773, size: 0x8, addend: 0x0, symName: __RNvYNtNtCsATtFUPiRFW_3syn4expr7ExprTryNtNtCs9f3LFPSIp77_4core3cmp2Eq27assert_receiver_is_total_eqB6_, symObjAddr: 0x418C, symBinAddr: 0x5A2DC, symSize: 0x10 }
  - { offset: 0xE87A6, size: 0x8, addend: 0x0, symName: __RNvYNtNtCsATtFUPiRFW_3syn4expr8ExprCallNtNtCs9f3LFPSIp77_4core3cmp2Eq27assert_receiver_is_total_eqB6_, symObjAddr: 0x4340, symBinAddr: 0x5A490, symSize: 0x10 }
  - { offset: 0xE87D9, size: 0x8, addend: 0x0, symName: __RNvYNtNtCsATtFUPiRFW_3syn4expr8ExprCastNtNtCs9f3LFPSIp77_4core3cmp2Eq27assert_receiver_is_total_eqB6_, symObjAddr: 0x44F4, symBinAddr: 0x5A644, symSize: 0x10 }
  - { offset: 0xE880C, size: 0x8, addend: 0x0, symName: __RNvYNtNtCsATtFUPiRFW_3syn4expr8ExprLoopNtNtCs9f3LFPSIp77_4core3cmp2Eq27assert_receiver_is_total_eqB6_, symObjAddr: 0x46A8, symBinAddr: 0x5A7F8, symSize: 0x10 }
  - { offset: 0xE883F, size: 0x8, addend: 0x0, symName: __RNvYNtNtCsATtFUPiRFW_3syn4expr8ExprPathNtNtCs9f3LFPSIp77_4core3cmp2Eq27assert_receiver_is_total_eqB6_, symObjAddr: 0x485C, symBinAddr: 0x5A9AC, symSize: 0x10 }
  - { offset: 0xE8872, size: 0x8, addend: 0x0, symName: __RNvYNtNtCsATtFUPiRFW_3syn4expr9ExprArrayNtNtCs9f3LFPSIp77_4core3cmp2Eq27assert_receiver_is_total_eqB6_, symObjAddr: 0x4A10, symBinAddr: 0x5AB60, symSize: 0x10 }
  - { offset: 0xE88A5, size: 0x8, addend: 0x0, symName: __RNvYNtNtCsATtFUPiRFW_3syn4expr9ExprAsyncNtNtCs9f3LFPSIp77_4core3cmp2Eq27assert_receiver_is_total_eqB6_, symObjAddr: 0x4BC4, symBinAddr: 0x5AD14, symSize: 0x10 }
  - { offset: 0xE88D8, size: 0x8, addend: 0x0, symName: __RNvYNtNtCsATtFUPiRFW_3syn4expr9ExprAwaitNtNtCs9f3LFPSIp77_4core3cmp2Eq27assert_receiver_is_total_eqB6_, symObjAddr: 0x4D78, symBinAddr: 0x5AEC8, symSize: 0x10 }
  - { offset: 0xE890B, size: 0x8, addend: 0x0, symName: __RNvYNtNtCsATtFUPiRFW_3syn4expr9ExprBlockNtNtCs9f3LFPSIp77_4core3cmp2Eq27assert_receiver_is_total_eqB6_, symObjAddr: 0x4F2C, symBinAddr: 0x5B07C, symSize: 0x10 }
  - { offset: 0xE893E, size: 0x8, addend: 0x0, symName: __RNvYNtNtCsATtFUPiRFW_3syn4expr9ExprBreakNtNtCs9f3LFPSIp77_4core3cmp2Eq27assert_receiver_is_total_eqB6_, symObjAddr: 0x50E0, symBinAddr: 0x5B230, symSize: 0x10 }
  - { offset: 0xE8971, size: 0x8, addend: 0x0, symName: __RNvYNtNtCsATtFUPiRFW_3syn4expr9ExprConstNtNtCs9f3LFPSIp77_4core3cmp2Eq27assert_receiver_is_total_eqB6_, symObjAddr: 0x5294, symBinAddr: 0x5B3E4, symSize: 0x10 }
  - { offset: 0xE89A4, size: 0x8, addend: 0x0, symName: __RNvYNtNtCsATtFUPiRFW_3syn4expr9ExprFieldNtNtCs9f3LFPSIp77_4core3cmp2Eq27assert_receiver_is_total_eqB6_, symObjAddr: 0x5448, symBinAddr: 0x5B598, symSize: 0x10 }
  - { offset: 0xE89D7, size: 0x8, addend: 0x0, symName: __RNvYNtNtCsATtFUPiRFW_3syn4expr9ExprGroupNtNtCs9f3LFPSIp77_4core3cmp2Eq27assert_receiver_is_total_eqB6_, symObjAddr: 0x55FC, symBinAddr: 0x5B74C, symSize: 0x10 }
  - { offset: 0xE8A0A, size: 0x8, addend: 0x0, symName: __RNvYNtNtCsATtFUPiRFW_3syn4expr9ExprIndexNtNtCs9f3LFPSIp77_4core3cmp2Eq27assert_receiver_is_total_eqB6_, symObjAddr: 0x57B0, symBinAddr: 0x5B900, symSize: 0x10 }
