---
triple:          'arm64-apple-darwin'
binary-path:     '/Users/teddy/code/zero_to_production/newsletter_server/target/debug/deps/libpaste-d46d7af3fe405ae6.dylib'
relocations:
  - { offset: 0x1E, size: 0x8, addend: 0x0, symName: __RINvMs3_NtNtCsjLJ1XWNSM6u_10proc_macro6bridge6bufferNtB6_6Buffer17extend_from_arrayKj4_ECs2rQdhMmkUY8_5paste, symObjAddr: 0x0, symBinAddr: 0x3390, symSize: 0x210 }
  - { offset: 0x7F9, size: 0x8, addend: 0x0, symName: __RNvXs5_NtNtCs9f3LFPSIp77_4core3num5errorNtB5_15TryFromIntErrorNtNtB9_3fmt5Debug3fmtCs2rQdhMmkUY8_5paste, symObjAddr: 0x2974, symBinAddr: 0x5CC8, symSize: 0x54 }
  - { offset: 0x95E, size: 0x8, addend: 0x0, symName: __RNvNvMs9_NtCs9f3LFPSIp77_4core3numj13unchecked_sub18precondition_checkCs2rQdhMmkUY8_5paste, symObjAddr: 0x19B4, symBinAddr: 0x4D08, symSize: 0x54 }
  - { offset: 0xB36, size: 0x8, addend: 0x0, symName: __RNvNvMs4_NtCs9f3LFPSIp77_4core3numh13unchecked_add18precondition_checkCs2rQdhMmkUY8_5paste, symObjAddr: 0x195C, symBinAddr: 0x4CB0, symSize: 0x58 }
  - { offset: 0xE3E, size: 0x8, addend: 0x0, symName: __RINvNtCs9f3LFPSIp77_4core3cmp6min_byjNvYjNtB2_3Ord3cmpECs2rQdhMmkUY8_5paste, symObjAddr: 0x420, symBinAddr: 0x37B0, symSize: 0xC8 }
  - { offset: 0xF44, size: 0x8, addend: 0x0, symName: __RINvNtCs9f3LFPSIp77_4core9panicking13assert_failedINtNtB4_6option6OptionjEBM_ECs2rQdhMmkUY8_5paste, symObjAddr: 0x4E8, symBinAddr: 0xCF0D0, symSize: 0x3C }
  - { offset: 0x1D80, size: 0x8, addend: 0x0, symName: __RNvNvNtCs9f3LFPSIp77_4core3ptr13read_volatile18precondition_checkCs2rQdhMmkUY8_5paste, symObjAddr: 0x1D9C, symBinAddr: 0x50F0, symSize: 0xEC }
  - { offset: 0x25BF, size: 0x8, addend: 0x0, symName: __RNvNtCs9f3LFPSIp77_4core10intrinsics8unlikelyCs2rQdhMmkUY8_5paste, symObjAddr: 0x1230, symBinAddr: 0x4584, symSize: 0x10 }
  - { offset: 0x25F2, size: 0x8, addend: 0x0, symName: __RNvNvNtCs9f3LFPSIp77_4core10intrinsics19copy_nonoverlapping18precondition_checkCs2rQdhMmkUY8_5paste, symObjAddr: 0x1A08, symBinAddr: 0x4D5C, symSize: 0x1EC }
  - { offset: 0x2843, size: 0x8, addend: 0x0, symName: __RNvNvNtCs9f3LFPSIp77_4core10intrinsics4copy18precondition_checkCs2rQdhMmkUY8_5paste, symObjAddr: 0x1BF4, symBinAddr: 0x4F48, symSize: 0x1A8 }
  - { offset: 0x2CC6, size: 0x8, addend: 0x0, symName: __RNvNtNtCs9f3LFPSIp77_4core5slice6memchr6memchrCs2rQdhMmkUY8_5paste, symObjAddr: 0x1240, symBinAddr: 0x4594, symSize: 0x114 }
  - { offset: 0x2D3B, size: 0x8, addend: 0x0, symName: __RNvNvXs0_NtNtCs9f3LFPSIp77_4core5slice5indexjINtB7_10SliceIndexSpE13get_unchecked18precondition_checkCs2rQdhMmkUY8_5paste, symObjAddr: 0x1E88, symBinAddr: 0x51DC, symSize: 0x40 }
  - { offset: 0x2E16, size: 0x8, addend: 0x0, symName: __RNvNvXs1_NtNtCs9f3LFPSIp77_4core5slice5indexNtNtNtBb_3ops11index_range10IndexRangeINtB7_10SliceIndexSpE17get_unchecked_mut18precondition_checkCs2rQdhMmkUY8_5paste, symObjAddr: 0x1EC8, symBinAddr: 0x521C, symSize: 0x40 }
  - { offset: 0x2E58, size: 0x8, addend: 0x0, symName: __RNvNvXs2_NtNtCs9f3LFPSIp77_4core5slice5indexINtNtNtBb_3ops5range5RangejEINtB7_10SliceIndexSpE13get_unchecked18precondition_checkCs2rQdhMmkUY8_5paste, symObjAddr: 0x1F08, symBinAddr: 0x525C, symSize: 0x60 }
  - { offset: 0x33AF, size: 0x8, addend: 0x0, symName: __RNvXs_NtNtCs9f3LFPSIp77_4core5slice4iterRSNtNtCs2rQdhMmkUY8_5paste7segment7SegmentNtNtNtNtB8_4iter6traits7collect12IntoIterator9into_iterBI_, symObjAddr: 0x3690, symBinAddr: 0x69E4, symSize: 0x58 }
  - { offset: 0x3581, size: 0x8, addend: 0x0, symName: __RINvXs1_NtNtNtCs9f3LFPSIp77_4core4iter8adapters7inspectINtB6_7InspectNtNtCsjLJ1XWNSM6u_10proc_macro12token_stream8IntoIterNCNvNtCs2rQdhMmkUY8_5paste4attr11expand_attr0ENtNtNtBa_6traits8iterator8Iterator8try_folduNCINvNvB2G_3all5checkNtB19_9TokenTreeNCB1Y_s_0E0INtNtNtBc_3ops12control_flow11ControlFlowuEEB22_, symObjAddr: 0x810, symBinAddr: 0x3B64, symSize: 0x30 }
  - { offset: 0x35FC, size: 0x8, addend: 0x0, symName: __RNCINvNtNtNtCs9f3LFPSIp77_4core4iter8adapters7inspect16inspect_try_foldNtCsjLJ1XWNSM6u_10proc_macro9TokenTreeuINtNtNtBa_3ops12control_flow11ControlFlowuENCNvNtCs2rQdhMmkUY8_5paste4attr11expand_attr0NCINvNvNtNtNtB8_6traits8iterator8Iterator3all5checkB17_NCB2t_s_0E0E0B2x_, symObjAddr: 0x964, symBinAddr: 0x3CB8, symSize: 0xCC }
  - { offset: 0x36FA, size: 0x8, addend: 0x0, symName: __RINvYINtNtNtNtCs9f3LFPSIp77_4core4iter8adapters7inspect7InspectNtNtCsjLJ1XWNSM6u_10proc_macro12token_stream8IntoIterNCNvNtCs2rQdhMmkUY8_5paste4attr11expand_attr0ENtNtNtBa_6traits8iterator8Iterator3allNCB1S_s_0EB1W_, symObjAddr: 0x928, symBinAddr: 0x3C7C, symSize: 0x3C }
  - { offset: 0x3774, size: 0x8, addend: 0x0, symName: __RNvXs_NtNtNtCs9f3LFPSIp77_4core4iter6traits7collectNtNtNtBa_3str4iter5CharsNtB4_12IntoIterator9into_iterCs2rQdhMmkUY8_5paste, symObjAddr: 0x36E8, symBinAddr: 0x6A3C, symSize: 0x1C }
  - { offset: 0x38E1, size: 0x8, addend: 0x0, symName: __RNCNvMsp_NtNtCs9f3LFPSIp77_4core3str4iterINtB7_20MatchIndicesInternalcE4next0Cs2rQdhMmkUY8_5paste, symObjAddr: 0xA30, symBinAddr: 0x3D84, symSize: 0xA0 }
  - { offset: 0x3A69, size: 0x8, addend: 0x0, symName: __RNvXNtNtCs9f3LFPSIp77_4core3str4iterNtB2_5CharsNtNtNtNtB6_4iter6traits8iterator8Iterator4nextCs2rQdhMmkUY8_5paste, symObjAddr: 0x1F68, symBinAddr: 0x52BC, symSize: 0x70 }
  - { offset: 0x3B37, size: 0x8, addend: 0x0, symName: __RNvXs3_NtNtCs9f3LFPSIp77_4core3str4iterNtB5_11CharIndicesNtNtNtNtB9_4iter6traits8iterator8Iterator4nextCs2rQdhMmkUY8_5paste, symObjAddr: 0x27E0, symBinAddr: 0x5B34, symSize: 0x194 }
  - { offset: 0x3DE6, size: 0x8, addend: 0x0, symName: __RNCNvXs6_NtNtCs9f3LFPSIp77_4core3str7patternRScNtB7_11MultiCharEq7matches0Cs2rQdhMmkUY8_5paste, symObjAddr: 0xB04, symBinAddr: 0x3E58, symSize: 0x34 }
  - { offset: 0x3E3F, size: 0x8, addend: 0x0, symName: __RNvXs6_NtNtCs9f3LFPSIp77_4core3str7patternRScNtB5_11MultiCharEq7matchesCs2rQdhMmkUY8_5paste, symObjAddr: 0x2B00, symBinAddr: 0x5E54, symSize: 0x68 }
  - { offset: 0x3FE3, size: 0x8, addend: 0x0, symName: __RNvXs0_NtNtCs9f3LFPSIp77_4core3str7patternNtB5_12CharSearcherNtB5_15ReverseSearcher15next_match_backCs2rQdhMmkUY8_5paste, symObjAddr: 0x1FD8, symBinAddr: 0x532C, symSize: 0x3DC }
  - { offset: 0x4622, size: 0x8, addend: 0x0, symName: __RNvXst_NtNtCs9f3LFPSIp77_4core3str7patternReNtB5_7Pattern12is_prefix_ofCs2rQdhMmkUY8_5paste, symObjAddr: 0x39A4, symBinAddr: 0x6CF8, symSize: 0x4C }
  - { offset: 0x4665, size: 0x8, addend: 0x0, symName: __RNvXs2_NtNtCs9f3LFPSIp77_4core3str7patterncNtB5_7Pattern12is_prefix_ofCs2rQdhMmkUY8_5paste, symObjAddr: 0x257C, symBinAddr: 0x58D0, symSize: 0x78 }
  - { offset: 0x470C, size: 0x8, addend: 0x0, symName: __RNvXs2_NtNtCs9f3LFPSIp77_4core3str7patterncNtB5_7Pattern12is_suffix_ofCs2rQdhMmkUY8_5paste, symObjAddr: 0x25F4, symBinAddr: 0x5948, symSize: 0x78 }
  - { offset: 0x47B3, size: 0x8, addend: 0x0, symName: __RNvXs2_NtNtCs9f3LFPSIp77_4core3str7patterncNtB5_7Pattern13into_searcherCs2rQdhMmkUY8_5paste, symObjAddr: 0x266C, symBinAddr: 0x59C0, symSize: 0x114 }
  - { offset: 0x48CF, size: 0x8, addend: 0x0, symName: __RNvXs7_NtNtCs9f3LFPSIp77_4core3str7patternINtB5_18MultiCharEqPatternNCNvCs2rQdhMmkUY8_5paste16pasted_to_tokens0ENtB5_7Pattern13into_searcherB18_, symObjAddr: 0x2B68, symBinAddr: 0x5EBC, symSize: 0x90 }
  - { offset: 0x492B, size: 0x8, addend: 0x0, symName: __RNvXs7_NtNtCs9f3LFPSIp77_4core3str7patternINtB5_18MultiCharEqPatternRScENtB5_7Pattern13into_searcherCs2rQdhMmkUY8_5paste, symObjAddr: 0x2BF8, symBinAddr: 0x5F4C, symSize: 0xC0 }
  - { offset: 0x498D, size: 0x8, addend: 0x0, symName: __RNvXs8_NtNtCs9f3LFPSIp77_4core3str7patternINtB5_19MultiCharEqSearcherNCNvCs2rQdhMmkUY8_5paste16pasted_to_tokens0ENtB5_8Searcher4nextB19_, symObjAddr: 0x2D14, symBinAddr: 0x6068, symSize: 0x1B0 }
  - { offset: 0x4BA4, size: 0x8, addend: 0x0, symName: __RNvXs8_NtNtCs9f3LFPSIp77_4core3str7patternINtB5_19MultiCharEqSearcherRScENtB5_8Searcher4nextCs2rQdhMmkUY8_5paste, symObjAddr: 0x2EC4, symBinAddr: 0x6218, symSize: 0x1AC }
  - { offset: 0x4DC1, size: 0x8, addend: 0x0, symName: __RNvXs_NtNtCs9f3LFPSIp77_4core3str7patternNtB4_12CharSearcherNtB4_8Searcher10next_matchCs2rQdhMmkUY8_5paste, symObjAddr: 0x32A4, symBinAddr: 0x65F8, symSize: 0x3CC }
  - { offset: 0x5339, size: 0x8, addend: 0x0, symName: __RNvXs_NtNtCs9f3LFPSIp77_4core3str7patternNtB4_12CharSearcherNtB4_8Searcher8haystackCs2rQdhMmkUY8_5paste, symObjAddr: 0x3670, symBinAddr: 0x69C4, symSize: 0x20 }
  - { offset: 0x536D, size: 0x8, addend: 0x0, symName: __RNvXsm_NtNtCs9f3LFPSIp77_4core3str7patternRScNtB5_7Pattern12is_prefix_ofCs2rQdhMmkUY8_5paste, symObjAddr: 0x3704, symBinAddr: 0x6A58, symSize: 0x34 }
  - { offset: 0x53AA, size: 0x8, addend: 0x0, symName: __RNvXsm_NtNtCs9f3LFPSIp77_4core3str7patternRScNtB5_7Pattern15is_contained_inCs2rQdhMmkUY8_5paste, symObjAddr: 0x3738, symBinAddr: 0x6A8C, symSize: 0x34 }
  - { offset: 0x53ED, size: 0x8, addend: 0x0, symName: __RNvYINtNtNtCs9f3LFPSIp77_4core3str7pattern18MultiCharEqPatternNCNvCs2rQdhMmkUY8_5paste16pasted_to_tokens0ENtB5_7Pattern12is_prefix_ofB12_, symObjAddr: 0x39F0, symBinAddr: 0x6D44, symSize: 0x88 }
  - { offset: 0x5430, size: 0x8, addend: 0x0, symName: __RNvYINtNtNtCs9f3LFPSIp77_4core3str7pattern18MultiCharEqPatternRScENtB5_7Pattern12is_prefix_ofCs2rQdhMmkUY8_5paste, symObjAddr: 0x3A78, symBinAddr: 0x6DCC, symSize: 0x94 }
  - { offset: 0x5473, size: 0x8, addend: 0x0, symName: __RNvYINtNtNtCs9f3LFPSIp77_4core3str7pattern18MultiCharEqPatternRScENtB5_7Pattern15is_contained_inCs2rQdhMmkUY8_5paste, symObjAddr: 0x3B0C, symBinAddr: 0x6E60, symSize: 0x98 }
  - { offset: 0x54D9, size: 0x8, addend: 0x0, symName: __RNvYINtNtNtCs9f3LFPSIp77_4core3str7pattern19MultiCharEqSearcherRScENtB5_8Searcher10next_matchCs2rQdhMmkUY8_5paste, symObjAddr: 0x3BA4, symBinAddr: 0x6EF8, symSize: 0x90 }
  - { offset: 0x5BCD, size: 0x8, addend: 0x0, symName: __RNvXso_NtCs9f3LFPSIp77_4core6resultINtB5_6ResultINtNtCsdze8u8oDPro_5alloc3vec3VecNtNtCs2rQdhMmkUY8_5paste7segment7SegmentENtNtB1l_5error5ErrorENtNtNtB7_3ops9try_trait3Try6branchB1l_, symObjAddr: 0x376C, symBinAddr: 0x6AC0, symSize: 0x9C }
  - { offset: 0x5C4A, size: 0x8, addend: 0x0, symName: __RNvXso_NtCs9f3LFPSIp77_4core6resultINtB5_6ResultNtCsjLJ1XWNSM6u_10proc_macro11TokenStreamNtNtCs2rQdhMmkUY8_5paste5error5ErrorENtNtNtB7_3ops9try_trait3Try6branchB1t_, symObjAddr: 0x3808, symBinAddr: 0x6B5C, symSize: 0x88 }
  - { offset: 0x5CC7, size: 0x8, addend: 0x0, symName: __RNvXso_NtCs9f3LFPSIp77_4core6resultINtB5_6ResultNtNtCsdze8u8oDPro_5alloc6string6StringNtNtCs2rQdhMmkUY8_5paste5error5ErrorENtNtNtB7_3ops9try_trait3Try6branchB1q_, symObjAddr: 0x3890, symBinAddr: 0x6BE4, symSize: 0x9C }
  - { offset: 0x5D4A, size: 0x8, addend: 0x0, symName: __RNvXsp_NtCs9f3LFPSIp77_4core6resultINtB5_6ResultINtNtCsdze8u8oDPro_5alloc3vec3VecNtNtCs2rQdhMmkUY8_5paste7segment7SegmentENtNtB1l_5error5ErrorEINtNtNtB7_3ops9try_trait12FromResidualIBy_NtNtB7_7convert10InfallibleB1W_EE13from_residualB1l_, symObjAddr: 0x392C, symBinAddr: 0x6C80, symSize: 0x3C }
  - { offset: 0x5DCF, size: 0x8, addend: 0x0, symName: __RNvXsp_NtCs9f3LFPSIp77_4core6resultINtB5_6ResultNtCsjLJ1XWNSM6u_10proc_macro11TokenStreamNtNtCs2rQdhMmkUY8_5paste5error5ErrorEINtNtNtB7_3ops9try_trait12FromResidualIBy_NtNtB7_7convert10InfallibleB1p_EE13from_residualB1t_, symObjAddr: 0x3968, symBinAddr: 0x6CBC, symSize: 0x3C }
  - { offset: 0x651A, size: 0x8, addend: 0x0, symName: __RNvXs1_NtNtCs9f3LFPSIp77_4core5array4iterINtB5_8IntoItercKj3_ENtNtNtNtB9_4iter6traits12double_ended19DoubleEndedIterator9next_backCs2rQdhMmkUY8_5paste, symObjAddr: 0x23B4, symBinAddr: 0x5708, symSize: 0xC0 }
  - { offset: 0x66DA, size: 0x8, addend: 0x0, symName: __RNvXs2_NtNtCs9f3LFPSIp77_4core5array4iterINtB5_8IntoItercKj3_ENtNtNtB9_3ops4drop4Drop4dropCs2rQdhMmkUY8_5paste, symObjAddr: 0x2780, symBinAddr: 0x5AD4, symSize: 0x60 }
  - { offset: 0x6903, size: 0x8, addend: 0x0, symName: __RNCNvXs1_NtNtNtCs27l1GJC5rMQ_3std2io5error14repr_bitpackedNtB7_4ReprNtNtNtCs9f3LFPSIp77_4core3ops4drop4Drop4drop0Cs2rQdhMmkUY8_5paste, symObjAddr: 0xAD0, symBinAddr: 0x3E24, symSize: 0x34 }
  - { offset: 0x69B8, size: 0x8, addend: 0x0, symName: __RNvXs1_NtNtNtCs27l1GJC5rMQ_3std2io5error14repr_bitpackedNtB5_4ReprNtNtNtCs9f3LFPSIp77_4core3ops4drop4Drop4dropCs2rQdhMmkUY8_5paste, symObjAddr: 0x2474, symBinAddr: 0x57C8, symSize: 0x38 }
  - { offset: 0x69E1, size: 0x8, addend: 0x0, symName: __RINvNtNtNtCs27l1GJC5rMQ_3std2io5error14repr_bitpacked11decode_reprINtNtCsdze8u8oDPro_5alloc5boxed3BoxNtB4_6CustomENCNvXs1_B2_NtB2_4ReprNtNtNtCs9f3LFPSIp77_4core3ops4drop4Drop4drop0ECs2rQdhMmkUY8_5paste, symObjAddr: 0x5DC, symBinAddr: 0x3930, symSize: 0x234 }
  - { offset: 0x6CAA, size: 0x8, addend: 0x0, symName: __RNvNtNtNtCs27l1GJC5rMQ_3std2io5error14repr_bitpacked14kind_from_primCs2rQdhMmkUY8_5paste, symObjAddr: 0x1354, symBinAddr: 0x46A8, symSize: 0x608 }
  - { offset: 0x787C, size: 0x8, addend: 0x0, symName: __RNvXs5_NtNtCsjLJ1XWNSM6u_10proc_macro6bridge6bufferNtB5_6BufferNtNtNtCs9f3LFPSIp77_4core3ops4drop4Drop4dropCs2rQdhMmkUY8_5paste, symObjAddr: 0x29C8, symBinAddr: 0x5D1C, symSize: 0x138 }
  - { offset: 0x7EED, size: 0x8, addend: 0x0, symName: __RNvXs7_NtNtCsjLJ1XWNSM6u_10proc_macro6bridge3rpcINtNtNtCs9f3LFPSIp77_4core3num7nonzero7NonZeromEINtB5_9DecodeMutuE6decodeCs2rQdhMmkUY8_5paste, symObjAddr: 0x2CB8, symBinAddr: 0x600C, symSize: 0x5C }
  - { offset: 0x804E, size: 0x8, addend: 0x0, symName: __RNvXsV_NtCsjLJ1XWNSM6u_10proc_macro6bridgeINtNtCs9f3LFPSIp77_4core6result6ResultINtNtBJ_6option6OptionNtNtB5_6client11TokenStreamEuEINtNtB5_3rpc6EncodeuE6encodeCs2rQdhMmkUY8_5paste, symObjAddr: 0x3070, symBinAddr: 0x63C4, symSize: 0x108 }
  - { offset: 0x810F, size: 0x8, addend: 0x0, symName: __RNvXsV_NtCsjLJ1XWNSM6u_10proc_macro6bridgeINtNtCs9f3LFPSIp77_4core6result6ResultuNtNtB5_3rpc12PanicMessageEINtB1j_6EncodeuE6encodeCs2rQdhMmkUY8_5paste, symObjAddr: 0x3178, symBinAddr: 0x64CC, symSize: 0x12C }
  - { offset: 0x87CD, size: 0x8, addend: 0x0, symName: __RNvXs2_NtCsdze8u8oDPro_5alloc7raw_vecINtB5_6RawVecINtNtCsjLJ1XWNSM6u_10proc_macro6bridge9TokenTreeNtNtBP_6client11TokenStreamNtB1A_4SpanNtNtBP_6symbol6SymbolEENtNtNtCs9f3LFPSIp77_4core3ops4drop4Drop4dropCs2rQdhMmkUY8_5paste, symObjAddr: 0x24AC, symBinAddr: 0x5800, symSize: 0x34 }
  - { offset: 0x8809, size: 0x8, addend: 0x0, symName: __RNvXs2_NtCsdze8u8oDPro_5alloc7raw_vecINtB5_6RawVecNtCsjLJ1XWNSM6u_10proc_macro9TokenTreeENtNtNtCs9f3LFPSIp77_4core3ops4drop4Drop4dropCs2rQdhMmkUY8_5paste, symObjAddr: 0x24E0, symBinAddr: 0x5834, symSize: 0x34 }
  - { offset: 0x8845, size: 0x8, addend: 0x0, symName: __RNvXs2_NtCsdze8u8oDPro_5alloc7raw_vecINtB5_6RawVecNtNtB7_6string6StringENtNtNtCs9f3LFPSIp77_4core3ops4drop4Drop4dropCs2rQdhMmkUY8_5paste, symObjAddr: 0x2514, symBinAddr: 0x5868, symSize: 0x34 }
  - { offset: 0x8881, size: 0x8, addend: 0x0, symName: __RNvXs2_NtCsdze8u8oDPro_5alloc7raw_vecINtB5_6RawVecNtNtCs2rQdhMmkUY8_5paste7segment7SegmentENtNtNtCs9f3LFPSIp77_4core3ops4drop4Drop4dropBQ_, symObjAddr: 0x2548, symBinAddr: 0x589C, symSize: 0x34 }
  - { offset: 0x8C35, size: 0x8, addend: 0x0, symName: __RINvNtNtCsdze8u8oDPro_5alloc5slice4hack8into_vecNtCsjLJ1XWNSM6u_10proc_macro9TokenTreeNtNtB6_5alloc6GlobalECs2rQdhMmkUY8_5paste, symObjAddr: 0x524, symBinAddr: 0x3878, symSize: 0xB8 }
  - { offset: 0x8E66, size: 0x8, addend: 0x0, symName: __RINvXs_NtNtCsdze8u8oDPro_5alloc5slice4hackhNtB5_10ConvertVec6to_vecNtNtB9_5alloc6GlobalECs2rQdhMmkUY8_5paste, symObjAddr: 0x840, symBinAddr: 0x3B94, symSize: 0xE8 }
  - { offset: 0x944E, size: 0x8, addend: 0x0, symName: __RINvMs3_NtNtCsjLJ1XWNSM6u_10proc_macro6bridge6bufferNtB6_6Buffer17extend_from_arrayKj4_ECs2rQdhMmkUY8_5paste, symObjAddr: 0x0, symBinAddr: 0x3390, symSize: 0x210 }
  - { offset: 0x9AC0, size: 0x8, addend: 0x0, symName: __RINvMs3_NtNtCsjLJ1XWNSM6u_10proc_macro6bridge6bufferNtB6_6Buffer17extend_from_arrayKj8_ECs2rQdhMmkUY8_5paste, symObjAddr: 0x210, symBinAddr: 0x35A0, symSize: 0x210 }
  - { offset: 0xA434, size: 0x8, addend: 0x0, symName: __RNvMNtCs9f3LFPSIp77_4core6resultINtB2_6ResultPuNtNtNtCs27l1GJC5rMQ_3std6thread5local11AccessErrorE6expectCs2rQdhMmkUY8_5paste, symObjAddr: 0xB38, symBinAddr: 0x3E8C, symSize: 0x84 }
  - { offset: 0xA495, size: 0x8, addend: 0x0, symName: __RNvMNtCs9f3LFPSIp77_4core6resultINtB2_6ResulthNtNtNtB4_3num5error15TryFromIntErrorE6expectCs2rQdhMmkUY8_5paste, symObjAddr: 0xBBC, symBinAddr: 0x3F10, symSize: 0x84 }
  - { offset: 0xA548, size: 0x8, addend: 0x0, symName: __RNvMs1_NtCsdze8u8oDPro_5alloc7raw_vecINtB5_6RawVecNtNtB7_6string6StringE8grow_oneCs2rQdhMmkUY8_5paste, symObjAddr: 0xC40, symBinAddr: 0x3F94, symSize: 0x88 }
  - { offset: 0xA6D7, size: 0x8, addend: 0x0, symName: __RNvNtCs2rQdhMmkUY8_5paste7segment5parse, symObjAddr: 0x4050, symBinAddr: 0x73A4, symSize: 0x1760 }
  - { offset: 0xA9BA, size: 0x8, addend: 0x0, symName: __RNvNtCs2rQdhMmkUY8_5paste7segment5paste, symObjAddr: 0x57B0, symBinAddr: 0x8B04, symSize: 0xEB0 }
  - { offset: 0xAD82, size: 0x8, addend: 0x0, symName: __RNvMs1_NtCsdze8u8oDPro_5alloc7raw_vecINtB5_6RawVecNtNtCs2rQdhMmkUY8_5paste7segment7SegmentE8grow_oneBQ_, symObjAddr: 0xCC8, symBinAddr: 0x401C, symSize: 0x88 }
  - { offset: 0xAE73, size: 0x8, addend: 0x0, symName: __RNvMs3_NtCsdze8u8oDPro_5alloc7raw_vecNtB5_11RawVecInner16with_capacity_inCs2rQdhMmkUY8_5paste, symObjAddr: 0xD50, symBinAddr: 0x40A4, symSize: 0xF8 }
  - { offset: 0xB1D8, size: 0x8, addend: 0x0, symName: __RNvMs3_NtNtCsjLJ1XWNSM6u_10proc_macro6bridge6bufferNtB5_6Buffer17extend_from_sliceCs2rQdhMmkUY8_5paste, symObjAddr: 0xE48, symBinAddr: 0x419C, symSize: 0x208 }
  - { offset: 0xB842, size: 0x8, addend: 0x0, symName: __RNvMs3_NtNtCsjLJ1XWNSM6u_10proc_macro6bridge6bufferNtB5_6Buffer4pushCs2rQdhMmkUY8_5paste, symObjAddr: 0x1050, symBinAddr: 0x43A4, symSize: 0x1E0 }
  - { offset: 0xC4F4, size: 0x8, addend: 0x0, symName: __RNvMNtCs2rQdhMmkUY8_5paste5errorNtB2_5Error3new, symObjAddr: 0x3C34, symBinAddr: 0x6F88, symSize: 0x58 }
  - { offset: 0xC524, size: 0x8, addend: 0x0, symName: __RNvMNtCs2rQdhMmkUY8_5paste5errorNtB2_5Error4new2, symObjAddr: 0x3C8C, symBinAddr: 0x6FE0, symSize: 0x84 }
  - { offset: 0xC56F, size: 0x8, addend: 0x0, symName: __RNvMNtCs2rQdhMmkUY8_5paste5errorNtB2_5Error16to_compile_error, symObjAddr: 0x3D10, symBinAddr: 0x7064, symSize: 0x340 }
  - { offset: 0xC837, size: 0x8, addend: 0x0, symName: __RINvXsh_NtCsdze8u8oDPro_5alloc3vecINtB6_3VecNtNtCs2rQdhMmkUY8_5paste7segment7SegmentEINtNtNtNtCs9f3LFPSIp77_4core4iter6traits7collect6ExtendBG_E6extendBw_EBK_, symObjAddr: 0x0, symBinAddr: 0x99C0, symSize: 0x40 }
  - { offset: 0xC859, size: 0x8, addend: 0x0, symName: ___rustc_proc_macro_decls_1c869adae4de61f2__, symObjAddr: 0x4EB0, symBinAddr: 0x1284B8, symSize: 0x0 }
  - { offset: 0xC8D1, size: 0x8, addend: 0x0, symName: __RNvXs_NvCs2rQdhMmkUY8_5paste29is_single_interpolation_groupNtB4_5StateNtNtCs9f3LFPSIp77_4core3cmp9PartialEq2eqB6_, symObjAddr: 0x464C, symBinAddr: 0xE00C, symSize: 0x34 }
  - { offset: 0xCA36, size: 0x8, addend: 0x0, symName: __RNvCs2rQdhMmkUY8_5paste5paste, symObjAddr: 0x1080, symBinAddr: 0xAA40, symSize: 0x1C4 }
  - { offset: 0xCAB4, size: 0x8, addend: 0x0, symName: __RNvCs2rQdhMmkUY8_5paste4item, symObjAddr: 0x1244, symBinAddr: 0xAC04, symSize: 0x30 }
  - { offset: 0xCAE0, size: 0x8, addend: 0x0, symName: __RNvCs2rQdhMmkUY8_5paste4expr, symObjAddr: 0x1274, symBinAddr: 0xAC34, symSize: 0x30 }
  - { offset: 0xCB0C, size: 0x8, addend: 0x0, symName: __RNvCs2rQdhMmkUY8_5paste6expand, symObjAddr: 0x12A4, symBinAddr: 0xAC64, symSize: 0x147C }
  - { offset: 0xCE0D, size: 0x8, addend: 0x0, symName: __RNvCs2rQdhMmkUY8_5paste29is_single_interpolation_group, symObjAddr: 0x2720, symBinAddr: 0xC0E0, symSize: 0x6EC }
  - { offset: 0xCF0B, size: 0x8, addend: 0x0, symName: __RNvCs2rQdhMmkUY8_5paste18is_paste_operation, symObjAddr: 0x2E0C, symBinAddr: 0xC7CC, symSize: 0x3B4 }
  - { offset: 0xCF8D, size: 0x8, addend: 0x0, symName: __RNvCs2rQdhMmkUY8_5paste25parse_bracket_as_segments, symObjAddr: 0x31C0, symBinAddr: 0xCB80, symSize: 0xCA4 }
  - { offset: 0xD12E, size: 0x8, addend: 0x0, symName: __RNvCs2rQdhMmkUY8_5paste16pasted_to_tokens, symObjAddr: 0x3E64, symBinAddr: 0xD824, symSize: 0x6EC }
  - { offset: 0xD318, size: 0x8, addend: 0x0, symName: __RNCNvCs2rQdhMmkUY8_5paste16pasted_to_tokens0B3_, symObjAddr: 0x4550, symBinAddr: 0xDF10, symSize: 0x3C }
  - { offset: 0xD351, size: 0x8, addend: 0x0, symName: __RNCNvCs2rQdhMmkUY8_5paste16pasted_to_tokenss_0B3_, symObjAddr: 0x458C, symBinAddr: 0xDF4C, symSize: 0x40 }
  - { offset: 0xD381, size: 0x8, addend: 0x0, symName: __RNCNvCs2rQdhMmkUY8_5paste16pasted_to_tokenss0_0B3_, symObjAddr: 0x45CC, symBinAddr: 0xDF8C, symSize: 0x4C }
  - { offset: 0xD3D0, size: 0x8, addend: 0x0, symName: __RNvXs_Cs2rQdhMmkUY8_5pasteNtB4_10LookbehindNtNtCs9f3LFPSIp77_4core3cmp9PartialEq2eqB4_, symObjAddr: 0x4618, symBinAddr: 0xDFD8, symSize: 0x34 }
  - { offset: 0xF1EB, size: 0x8, addend: 0x0, symName: __RNvXs3_NtNtCs9f3LFPSIp77_4core3str7patternNCNvCs2rQdhMmkUY8_5paste16pasted_to_tokens0NtB5_11MultiCharEq7matchesBI_, symObjAddr: 0xB00, symBinAddr: 0xA4C0, symSize: 0x28 }
  - { offset: 0xF237, size: 0x8, addend: 0x0, symName: __RNvXsr_NtNtCs9f3LFPSIp77_4core3str7patternNCNvCs2rQdhMmkUY8_5paste16pasted_to_tokens0NtB5_7Pattern12is_prefix_ofBI_, symObjAddr: 0xFF8, symBinAddr: 0xA9B8, symSize: 0x28 }
  - { offset: 0xF28A, size: 0x8, addend: 0x0, symName: __RNvYNtCs2rQdhMmkUY8_5paste10LookbehindNtNtCs9f3LFPSIp77_4core3cmp9PartialEq2neB4_, symObjAddr: 0x1020, symBinAddr: 0xA9E0, symSize: 0x30 }
  - { offset: 0xF2D9, size: 0x8, addend: 0x0, symName: __RNvYNtNvCs2rQdhMmkUY8_5paste29is_single_interpolation_group5StateNtNtCs9f3LFPSIp77_4core3cmp9PartialEq2neB6_, symObjAddr: 0x1050, symBinAddr: 0xAA10, symSize: 0x30 }
  - { offset: 0xF769, size: 0x8, addend: 0x0, symName: __RINvXsh_NtCsdze8u8oDPro_5alloc3vecINtB6_3VecNtNtCs2rQdhMmkUY8_5paste7segment7SegmentEINtNtNtNtCs9f3LFPSIp77_4core4iter6traits7collect6ExtendBG_E6extendBw_EBK_, symObjAddr: 0x0, symBinAddr: 0x99C0, symSize: 0x40 }
  - { offset: 0xFEB9, size: 0x8, addend: 0x0, symName: __RNvXs0_NtNtCsdze8u8oDPro_5alloc3vec11spec_extendINtB7_3VecNtNtCs2rQdhMmkUY8_5paste7segment7SegmentEINtB5_10SpecExtendBU_INtNtB7_9into_iter8IntoIterBU_EE11spec_extendBY_, symObjAddr: 0xA6C, symBinAddr: 0xA42C, symSize: 0x94 }
  - { offset: 0xFF26, size: 0x8, addend: 0x0, symName: __RNvXs6_NtCsdze8u8oDPro_5alloc3vecINtB5_3VecNtNtCs2rQdhMmkUY8_5paste7segment7SegmentENtNtNtCs9f3LFPSIp77_4core3ops5deref5Deref5derefBJ_, symObjAddr: 0xB28, symBinAddr: 0xA4E8, symSize: 0x24 }
  - { offset: 0xFFEF, size: 0x8, addend: 0x0, symName: __RNvXse_NtCsdze8u8oDPro_5alloc3vecINtB5_3VecNtCsjLJ1XWNSM6u_10proc_macro9TokenTreeENtNtNtNtCs9f3LFPSIp77_4core4iter6traits7collect12IntoIterator9into_iterCs2rQdhMmkUY8_5paste, symObjAddr: 0xB4C, symBinAddr: 0xA50C, symSize: 0x100 }
  - { offset: 0x102BE, size: 0x8, addend: 0x0, symName: __RNvXse_NtCsdze8u8oDPro_5alloc3vecINtB5_3VecNtNtB7_6string6StringENtNtNtNtCs9f3LFPSIp77_4core4iter6traits7collect12IntoIterator9into_iterCs2rQdhMmkUY8_5paste, symObjAddr: 0xC4C, symBinAddr: 0xA60C, symSize: 0x100 }
  - { offset: 0x1058D, size: 0x8, addend: 0x0, symName: __RNvXse_NtCsdze8u8oDPro_5alloc3vecINtB5_3VecNtNtCs2rQdhMmkUY8_5paste7segment7SegmentENtNtNtNtCs9f3LFPSIp77_4core4iter6traits7collect12IntoIterator9into_iterBJ_, symObjAddr: 0xD4C, symBinAddr: 0xA70C, symSize: 0x100 }
  - { offset: 0x10898, size: 0x8, addend: 0x0, symName: __RNvXsg_NtCsdze8u8oDPro_5alloc3vecQINtB5_3VecNtNtCs2rQdhMmkUY8_5paste7segment7SegmentENtNtNtNtCs9f3LFPSIp77_4core4iter6traits7collect12IntoIterator9into_iterBK_, symObjAddr: 0xE4C, symBinAddr: 0xA80C, symSize: 0xBC }
  - { offset: 0x10B67, size: 0x8, addend: 0x0, symName: __RNvXsn_NtCsdze8u8oDPro_5alloc3vecINtB5_3VecINtNtCsjLJ1XWNSM6u_10proc_macro6bridge9TokenTreeNtNtBI_6client11TokenStreamNtB1t_4SpanNtNtBI_6symbol6SymbolEENtNtNtCs9f3LFPSIp77_4core3ops4drop4Drop4dropCs2rQdhMmkUY8_5paste, symObjAddr: 0xF08, symBinAddr: 0xA8C8, symSize: 0x50 }
  - { offset: 0x10C74, size: 0x8, addend: 0x0, symName: __RNvXsn_NtCsdze8u8oDPro_5alloc3vecINtB5_3VecNtNtB7_6string6StringENtNtNtCs9f3LFPSIp77_4core3ops4drop4Drop4dropCs2rQdhMmkUY8_5paste, symObjAddr: 0xF58, symBinAddr: 0xA918, symSize: 0x50 }
  - { offset: 0x10D81, size: 0x8, addend: 0x0, symName: __RNvXsn_NtCsdze8u8oDPro_5alloc3vecINtB5_3VecNtNtCs2rQdhMmkUY8_5paste7segment7SegmentENtNtNtCs9f3LFPSIp77_4core3ops4drop4Drop4dropBJ_, symObjAddr: 0xFA8, symBinAddr: 0xA968, symSize: 0x50 }
  - { offset: 0x115DB, size: 0x8, addend: 0x0, symName: __RNvMNtCsdze8u8oDPro_5alloc3vecINtB2_3VecNtNtB4_6string6StringE3newCs2rQdhMmkUY8_5paste, symObjAddr: 0x40, symBinAddr: 0x9A00, symSize: 0x28 }
  - { offset: 0x116CF, size: 0x8, addend: 0x0, symName: __RNvMNtCsdze8u8oDPro_5alloc3vecINtB2_3VecNtNtCs2rQdhMmkUY8_5paste7segment7SegmentE3newBG_, symObjAddr: 0x68, symBinAddr: 0x9A28, symSize: 0x28 }
  - { offset: 0x1191B, size: 0x8, addend: 0x0, symName: __RNvMs_NtCsdze8u8oDPro_5alloc3vecINtB4_3VecNtNtB6_6string6StringE3popCs2rQdhMmkUY8_5paste, symObjAddr: 0x90, symBinAddr: 0x9A50, symSize: 0x114 }
  - { offset: 0x11C30, size: 0x8, addend: 0x0, symName: __RNvMs_NtCsdze8u8oDPro_5alloc3vecINtB4_3VecNtNtB6_6string6StringE4pushCs2rQdhMmkUY8_5paste, symObjAddr: 0x1A4, symBinAddr: 0x9B64, symSize: 0x114 }
  - { offset: 0x11FAB, size: 0x8, addend: 0x0, symName: __RNvMs_NtCsdze8u8oDPro_5alloc3vecINtB4_3VecNtNtCs2rQdhMmkUY8_5paste7segment7SegmentE15append_elementsBI_, symObjAddr: 0x2B8, symBinAddr: 0x9C78, symSize: 0xF4 }
  - { offset: 0x122A7, size: 0x8, addend: 0x0, symName: __RNvMs_NtCsdze8u8oDPro_5alloc3vecINtB4_3VecNtNtCs2rQdhMmkUY8_5paste7segment7SegmentE4pushBI_, symObjAddr: 0x3AC, symBinAddr: 0x9D6C, symSize: 0x124 }
  - { offset: 0x125BC, size: 0x8, addend: 0x0, symName: __RNvMs_NtCsdze8u8oDPro_5alloc3vecINtB4_3VecNtNtCs2rQdhMmkUY8_5paste7segment7SegmentE7reserveBI_, symObjAddr: 0x4D0, symBinAddr: 0x9E90, symSize: 0xC4 }
  - { offset: 0x12804, size: 0x8, addend: 0x0, symName: __RNvMs_NtCsdze8u8oDPro_5alloc3vecINtB4_3VecNtNtCs2rQdhMmkUY8_5paste7segment7SegmentE8as_sliceBI_, symObjAddr: 0x594, symBinAddr: 0x9F54, symSize: 0x7C }
  - { offset: 0x12A76, size: 0x8, addend: 0x0, symName: __RNvMs_NtCsdze8u8oDPro_5alloc3vecINtB4_3VechE15append_elementsCs2rQdhMmkUY8_5paste, symObjAddr: 0x610, symBinAddr: 0x9FD0, symSize: 0xE4 }
  - { offset: 0x12D72, size: 0x8, addend: 0x0, symName: __RNvMs_NtCsdze8u8oDPro_5alloc3vecINtB4_3VechE4pushCs2rQdhMmkUY8_5paste, symObjAddr: 0x6F4, symBinAddr: 0xA0B4, symSize: 0xE8 }
  - { offset: 0x130BE, size: 0x8, addend: 0x0, symName: __RNvMs_NtCsdze8u8oDPro_5alloc3vecINtB4_3VechE5clearCs2rQdhMmkUY8_5paste, symObjAddr: 0x7DC, symBinAddr: 0xA19C, symSize: 0x8C }
  - { offset: 0x1336B, size: 0x8, addend: 0x0, symName: __RNvMs_NtCsdze8u8oDPro_5alloc3vecINtB4_3VechE8truncateCs2rQdhMmkUY8_5paste, symObjAddr: 0x868, symBinAddr: 0xA228, symSize: 0x80 }
  - { offset: 0x1377D, size: 0x8, addend: 0x0, symName: __RNvMs_NtCsdze8u8oDPro_5alloc3vecINtB4_3VechE9split_offCs2rQdhMmkUY8_5paste, symObjAddr: 0x8E8, symBinAddr: 0xA2A8, symSize: 0x184 }
  - { offset: 0x146C8, size: 0x8, addend: 0x0, symName: __RINvXs3_NtNtCsdze8u8oDPro_5alloc3vec9into_iterINtB6_8IntoIterNtCsjLJ1XWNSM6u_10proc_macro9TokenTreeENtNtNtNtCs9f3LFPSIp77_4core4iter6traits8iterator8Iterator4folduNCINvNvB1A_8for_each4callBX_NCINvXsh_BZ_NtBZ_11TokenStreamINtNtB1E_7collect12FromIteratorBX_E9from_iterINtB8_3VecBX_EE0E0ECs2rQdhMmkUY8_5paste, symObjAddr: 0x0, symBinAddr: 0xE040, symSize: 0x12C }
  - { offset: 0x168B8, size: 0x8, addend: 0x0, symName: __RINvYINtNtNtCsdze8u8oDPro_5alloc3vec9into_iter8IntoIterNtCsjLJ1XWNSM6u_10proc_macro9TokenTreeENtNtNtNtCs9f3LFPSIp77_4core4iter6traits8iterator8Iterator8for_eachNCINvXsh_BT_NtBT_11TokenStreamINtNtB1y_7collect12FromIteratorBR_E9from_iterINtB8_3VecBR_EE0ECs2rQdhMmkUY8_5paste, symObjAddr: 0x428, symBinAddr: 0xE468, symSize: 0x24 }
  - { offset: 0x16904, size: 0x8, addend: 0x0, symName: __RINvYINtNtNtCsdze8u8oDPro_5alloc3vec9into_iter8IntoIterNtNtBa_6string6StringENtNtNtNtCs9f3LFPSIp77_4core4iter6traits8iterator8Iterator7collectBR_ECs2rQdhMmkUY8_5paste, symObjAddr: 0x44C, symBinAddr: 0xE48C, symSize: 0x14 }
  - { offset: 0x16945, size: 0x8, addend: 0x0, symName: __RINvYINtNtNtCsdze8u8oDPro_5alloc3vec9into_iter8IntoIterNtNtBa_6string6StringENtNtNtNtCs9f3LFPSIp77_4core4iter6traits8iterator8Iterator8for_eachNCINvXsf_BT_BR_INtNtB1h_7collect6ExtendBR_E6extendB3_E0ECs2rQdhMmkUY8_5paste, symObjAddr: 0x460, symBinAddr: 0xE4A0, symSize: 0x24 }
  - { offset: 0x169CF, size: 0x8, addend: 0x0, symName: __RNvXs_NtNtNtCs9f3LFPSIp77_4core4iter6traits7collectINtNtNtCsdze8u8oDPro_5alloc3vec9into_iter8IntoIterNtNtBU_6string6StringENtB4_12IntoIterator9into_iterCs2rQdhMmkUY8_5paste, symObjAddr: 0x17A0, symBinAddr: 0xF7E0, symSize: 0x14 }
  - { offset: 0x16AAC, size: 0x8, addend: 0x0, symName: __RNvYINtNtNtCsdze8u8oDPro_5alloc3vec9into_iter8IntoIterINtNtCsjLJ1XWNSM6u_10proc_macro6bridge9TokenTreeNtNtBT_6client11TokenStreamNtB1E_4SpanNtNtBT_6symbol6SymbolEENtNtNtNtCs9f3LFPSIp77_4core4iter6traits10exact_size17ExactSizeIterator3lenCs2rQdhMmkUY8_5paste, symObjAddr: 0x1CB0, symBinAddr: 0xFCF0, symSize: 0xC4 }
  - { offset: 0x16B9E, size: 0x8, addend: 0x0, symName: __RNvYINtNtNtCsdze8u8oDPro_5alloc3vec9into_iter8IntoIterNtCsjLJ1XWNSM6u_10proc_macro9TokenTreeENtNtNtNtCs9f3LFPSIp77_4core4iter6traits10exact_size17ExactSizeIterator3lenCs2rQdhMmkUY8_5paste, symObjAddr: 0x1D74, symBinAddr: 0xFDB4, symSize: 0xC4 }
  - { offset: 0x16C90, size: 0x8, addend: 0x0, symName: __RNvYINtNtNtCsdze8u8oDPro_5alloc3vec9into_iter8IntoIterNtNtB9_6string6StringENtNtNtNtCs9f3LFPSIp77_4core4iter6traits10exact_size17ExactSizeIterator3lenCs2rQdhMmkUY8_5paste, symObjAddr: 0x1E38, symBinAddr: 0xFE78, symSize: 0xC4 }
  - { offset: 0x16D82, size: 0x8, addend: 0x0, symName: __RNvYINtNtNtCsdze8u8oDPro_5alloc3vec9into_iter8IntoIterNtNtCs2rQdhMmkUY8_5paste7segment7SegmentENtNtNtNtCs9f3LFPSIp77_4core4iter6traits10exact_size17ExactSizeIterator3lenBU_, symObjAddr: 0x1EFC, symBinAddr: 0xFF3C, symSize: 0xC4 }
  - { offset: 0x1793F, size: 0x8, addend: 0x0, symName: __RNvXNtCs9f3LFPSIp77_4core7convertRNtNtCsdze8u8oDPro_5alloc6string6StringINtB2_5AsRefNtNtNtCs27l1GJC5rMQ_3std3ffi6os_str5OsStrE6as_refCs2rQdhMmkUY8_5paste, symObjAddr: 0x106C, symBinAddr: 0xF0AC, symSize: 0x28 }
  - { offset: 0x17B08, size: 0x8, addend: 0x0, symName: __RINvXs3_NtNtCsdze8u8oDPro_5alloc3vec9into_iterINtB6_8IntoIterNtCsjLJ1XWNSM6u_10proc_macro9TokenTreeENtNtNtNtCs9f3LFPSIp77_4core4iter6traits8iterator8Iterator4folduNCINvNvB1A_8for_each4callBX_NCINvXsh_BZ_NtBZ_11TokenStreamINtNtB1E_7collect12FromIteratorBX_E9from_iterINtB8_3VecBX_EE0E0ECs2rQdhMmkUY8_5paste, symObjAddr: 0x0, symBinAddr: 0xE040, symSize: 0x12C }
  - { offset: 0x17D0E, size: 0x8, addend: 0x0, symName: __RINvXs3_NtNtCsdze8u8oDPro_5alloc3vec9into_iterINtB6_8IntoIterNtNtBa_6string6StringENtNtNtNtCs9f3LFPSIp77_4core4iter6traits8iterator8Iterator4folduNCINvNvB1j_8for_each4callBX_NCINvXsf_BZ_BX_INtNtB1n_7collect6ExtendBX_E6extendBI_E0E0ECs2rQdhMmkUY8_5paste, symObjAddr: 0x12C, symBinAddr: 0xE16C, symSize: 0x12C }
  - { offset: 0x17F16, size: 0x8, addend: 0x0, symName: __RNvXs3_NtNtCsdze8u8oDPro_5alloc3vec9into_iterINtB5_8IntoIterINtNtCsjLJ1XWNSM6u_10proc_macro6bridge9TokenTreeNtNtBZ_6client11TokenStreamNtB1K_4SpanNtNtBZ_6symbol6SymbolEENtNtNtNtCs9f3LFPSIp77_4core4iter6traits8iterator8Iterator9size_hintCs2rQdhMmkUY8_5paste, symObjAddr: 0x133C, symBinAddr: 0xF37C, symSize: 0xB8 }
  - { offset: 0x17FE7, size: 0x8, addend: 0x0, symName: __RNvXs3_NtNtCsdze8u8oDPro_5alloc3vec9into_iterINtB5_8IntoIterNtCsjLJ1XWNSM6u_10proc_macro9TokenTreeENtNtNtNtCs9f3LFPSIp77_4core4iter6traits8iterator8Iterator9size_hintCs2rQdhMmkUY8_5paste, symObjAddr: 0x13F4, symBinAddr: 0xF434, symSize: 0xB8 }
  - { offset: 0x180B8, size: 0x8, addend: 0x0, symName: __RNvXs3_NtNtCsdze8u8oDPro_5alloc3vec9into_iterINtB5_8IntoIterNtNtB9_6string6StringENtNtNtNtCs9f3LFPSIp77_4core4iter6traits8iterator8Iterator4nextCs2rQdhMmkUY8_5paste, symObjAddr: 0x14AC, symBinAddr: 0xF4EC, symSize: 0xE4 }
  - { offset: 0x1826D, size: 0x8, addend: 0x0, symName: __RNvXs3_NtNtCsdze8u8oDPro_5alloc3vec9into_iterINtB5_8IntoIterNtNtB9_6string6StringENtNtNtNtCs9f3LFPSIp77_4core4iter6traits8iterator8Iterator9size_hintCs2rQdhMmkUY8_5paste, symObjAddr: 0x1590, symBinAddr: 0xF5D0, symSize: 0xB8 }
  - { offset: 0x1833E, size: 0x8, addend: 0x0, symName: __RNvXs3_NtNtCsdze8u8oDPro_5alloc3vec9into_iterINtB5_8IntoIterNtNtCs2rQdhMmkUY8_5paste7segment7SegmentENtNtNtNtCs9f3LFPSIp77_4core4iter6traits8iterator8Iterator9size_hintB10_, symObjAddr: 0x1648, symBinAddr: 0xF688, symSize: 0xB8 }
  - { offset: 0x1855A, size: 0x8, addend: 0x0, symName: __RNvXNvXsd_NtNtCsdze8u8oDPro_5alloc3vec9into_iterINtB8_8IntoIterppENtNtNtCs9f3LFPSIp77_4core3ops4drop4Drop4dropINtB2_9DropGuardINtNtCsjLJ1XWNSM6u_10proc_macro6bridge9TokenTreeNtNtB23_6client11TokenStreamNtB2O_4SpanNtNtB23_6symbol6SymbolENtNtBc_5alloc6GlobalEB12_4dropCs2rQdhMmkUY8_5paste, symObjAddr: 0x1094, symBinAddr: 0xF0D4, symSize: 0x88 }
  - { offset: 0x18667, size: 0x8, addend: 0x0, symName: __RNvXNvXsd_NtNtCsdze8u8oDPro_5alloc3vec9into_iterINtB8_8IntoIterppENtNtNtCs9f3LFPSIp77_4core3ops4drop4Drop4dropINtB2_9DropGuardNtCsjLJ1XWNSM6u_10proc_macro9TokenTreeNtNtBc_5alloc6GlobalEB12_4dropCs2rQdhMmkUY8_5paste, symObjAddr: 0x111C, symBinAddr: 0xF15C, symSize: 0x88 }
  - { offset: 0x18774, size: 0x8, addend: 0x0, symName: __RNvXNvXsd_NtNtCsdze8u8oDPro_5alloc3vec9into_iterINtB8_8IntoIterppENtNtNtCs9f3LFPSIp77_4core3ops4drop4Drop4dropINtB2_9DropGuardNtNtBc_6string6StringNtNtBc_5alloc6GlobalEB12_4dropCs2rQdhMmkUY8_5paste, symObjAddr: 0x11A4, symBinAddr: 0xF1E4, symSize: 0x88 }
  - { offset: 0x18881, size: 0x8, addend: 0x0, symName: __RNvXNvXsd_NtNtCsdze8u8oDPro_5alloc3vec9into_iterINtB8_8IntoIterppENtNtNtCs9f3LFPSIp77_4core3ops4drop4Drop4dropINtB2_9DropGuardNtNtCs2rQdhMmkUY8_5paste7segment7SegmentNtNtBc_5alloc6GlobalEB12_4dropB24_, symObjAddr: 0x122C, symBinAddr: 0xF26C, symSize: 0x88 }
  - { offset: 0x18A2C, size: 0x8, addend: 0x0, symName: __RNvXsd_NtNtCsdze8u8oDPro_5alloc3vec9into_iterINtB5_8IntoIterINtNtCsjLJ1XWNSM6u_10proc_macro6bridge9TokenTreeNtNtBZ_6client11TokenStreamNtB1K_4SpanNtNtBZ_6symbol6SymbolEENtNtNtCs9f3LFPSIp77_4core3ops4drop4Drop4dropCs2rQdhMmkUY8_5paste, symObjAddr: 0x17B4, symBinAddr: 0xF7F4, symSize: 0x98 }
  - { offset: 0x18AC6, size: 0x8, addend: 0x0, symName: __RNvXsd_NtNtCsdze8u8oDPro_5alloc3vec9into_iterINtB5_8IntoIterNtCsjLJ1XWNSM6u_10proc_macro9TokenTreeENtNtNtCs9f3LFPSIp77_4core3ops4drop4Drop4dropCs2rQdhMmkUY8_5paste, symObjAddr: 0x184C, symBinAddr: 0xF88C, symSize: 0x98 }
  - { offset: 0x18B60, size: 0x8, addend: 0x0, symName: __RNvXsd_NtNtCsdze8u8oDPro_5alloc3vec9into_iterINtB5_8IntoIterNtNtB9_6string6StringENtNtNtCs9f3LFPSIp77_4core3ops4drop4Drop4dropCs2rQdhMmkUY8_5paste, symObjAddr: 0x18E4, symBinAddr: 0xF924, symSize: 0x98 }
  - { offset: 0x18BFA, size: 0x8, addend: 0x0, symName: __RNvXsd_NtNtCsdze8u8oDPro_5alloc3vec9into_iterINtB5_8IntoIterNtNtCs2rQdhMmkUY8_5paste7segment7SegmentENtNtNtCs9f3LFPSIp77_4core3ops4drop4Drop4dropB10_, symObjAddr: 0x197C, symBinAddr: 0xF9BC, symSize: 0x98 }
  - { offset: 0x19114, size: 0x8, addend: 0x0, symName: __RNCINvXsf_NtCsdze8u8oDPro_5alloc6stringNtB8_6StringINtNtNtNtCs9f3LFPSIp77_4core4iter6traits7collect6ExtendBB_E6extendINtNtNtBa_3vec9into_iter8IntoIterBB_EE0Cs2rQdhMmkUY8_5paste, symObjAddr: 0x4B0, symBinAddr: 0xE4F0, symSize: 0x1A4 }
  - { offset: 0x19629, size: 0x8, addend: 0x0, symName: __RINvXs8_NtCsdze8u8oDPro_5alloc6stringNtB6_6StringINtNtNtNtCs9f3LFPSIp77_4core4iter6traits7collect12FromIteratorBz_E9from_iterINtNtNtB8_3vec9into_iter8IntoIterBz_EECs2rQdhMmkUY8_5paste, symObjAddr: 0x258, symBinAddr: 0xE298, symSize: 0x124 }
  - { offset: 0x19745, size: 0x8, addend: 0x0, symName: __RINvXsb_NtCsdze8u8oDPro_5alloc6stringNtB6_6StringINtNtNtNtCs9f3LFPSIp77_4core4iter6traits7collect6ExtendcE6extendNtNtBU_4char13EscapeDefaultECs2rQdhMmkUY8_5paste, symObjAddr: 0x37C, symBinAddr: 0xE3BC, symSize: 0xAC }
  - { offset: 0x197E6, size: 0x8, addend: 0x0, symName: __RNCINvXsb_NtCsdze8u8oDPro_5alloc6stringNtB8_6StringINtNtNtNtCs9f3LFPSIp77_4core4iter6traits7collect6ExtendcE6extendNtNtBW_4char13EscapeDefaultE0Cs2rQdhMmkUY8_5paste, symObjAddr: 0x484, symBinAddr: 0xE4C4, symSize: 0x2C }
  - { offset: 0x198E5, size: 0x8, addend: 0x0, symName: __RNvXsq_NtCsdze8u8oDPro_5alloc6stringNtB5_6StringNtNtNtCs9f3LFPSIp77_4core3ops5deref5Deref5derefCs2rQdhMmkUY8_5paste, symObjAddr: 0x1C8C, symBinAddr: 0xFCCC, symSize: 0x24 }
  - { offset: 0x19919, size: 0x8, addend: 0x0, symName: __RNvXs1i_NtCsdze8u8oDPro_5alloc6stringNtB6_6StringINtNtCs9f3LFPSIp77_4core3cmp9PartialEqReE2eqCs2rQdhMmkUY8_5paste, symObjAddr: 0x12B4, symBinAddr: 0xF2F4, symSize: 0x88 }
  - { offset: 0x19A07, size: 0x8, addend: 0x0, symName: __RNvXsk_NtCsdze8u8oDPro_5alloc6stringNtB5_6StringNtNtCs9f3LFPSIp77_4core3fmt5Debug3fmtCs2rQdhMmkUY8_5paste, symObjAddr: 0x1A14, symBinAddr: 0xFA54, symSize: 0x98 }
  - { offset: 0x19BE6, size: 0x8, addend: 0x0, symName: __RNvXso_NtCsdze8u8oDPro_5alloc6stringNtB5_6StringINtNtNtCs9f3LFPSIp77_4core3ops5index5IndexINtNtBP_5range5RangejEE5indexCs2rQdhMmkUY8_5paste, symObjAddr: 0x1AAC, symBinAddr: 0xFAEC, symSize: 0xAC }
  - { offset: 0x19DAC, size: 0x8, addend: 0x0, symName: __RNvXso_NtCsdze8u8oDPro_5alloc6stringNtB5_6StringINtNtNtCs9f3LFPSIp77_4core3ops5index5IndexINtNtBP_5range9RangeFromjEE5indexCs2rQdhMmkUY8_5paste, symObjAddr: 0x1B58, symBinAddr: 0xFB98, symSize: 0xA0 }
  - { offset: 0x19F71, size: 0x8, addend: 0x0, symName: __RNvXso_NtCsdze8u8oDPro_5alloc6stringNtB5_6StringINtNtNtCs9f3LFPSIp77_4core3ops5index5IndexNtNtBP_5range9RangeFullE5indexCs2rQdhMmkUY8_5paste, symObjAddr: 0x1BF8, symBinAddr: 0xFC38, symSize: 0x94 }
  - { offset: 0x1A95A, size: 0x8, addend: 0x0, symName: __RNvMNtCsdze8u8oDPro_5alloc6stringNtB2_6String3lenCs2rQdhMmkUY8_5paste, symObjAddr: 0x654, symBinAddr: 0xE694, symSize: 0x20 }
  - { offset: 0x1AA17, size: 0x8, addend: 0x0, symName: __RNvMNtCsdze8u8oDPro_5alloc6stringNtB2_6String3newCs2rQdhMmkUY8_5paste, symObjAddr: 0x674, symBinAddr: 0xE6B4, symSize: 0x3C }
  - { offset: 0x1ABE2, size: 0x8, addend: 0x0, symName: __RNvMNtCsdze8u8oDPro_5alloc6stringNtB2_6String4pushCs2rQdhMmkUY8_5paste, symObjAddr: 0x6B0, symBinAddr: 0xE6F0, symSize: 0x180 }
  - { offset: 0x1AF6C, size: 0x8, addend: 0x0, symName: __RNvMNtCsdze8u8oDPro_5alloc6stringNtB2_6String5clearCs2rQdhMmkUY8_5paste, symObjAddr: 0x830, symBinAddr: 0xE870, symSize: 0x24 }
  - { offset: 0x1B0AE, size: 0x8, addend: 0x0, symName: __RNvMNtCsdze8u8oDPro_5alloc6stringNtB2_6String6as_strCs2rQdhMmkUY8_5paste, symObjAddr: 0x854, symBinAddr: 0xE894, symSize: 0x88 }
  - { offset: 0x1B36A, size: 0x8, addend: 0x0, symName: __RNvMNtCsdze8u8oDPro_5alloc6stringNtB2_6String6insertCs2rQdhMmkUY8_5paste, symObjAddr: 0x8DC, symBinAddr: 0xE91C, symSize: 0x1B8 }
  - { offset: 0x1BA85, size: 0x8, addend: 0x0, symName: __RNvMNtCsdze8u8oDPro_5alloc6stringNtB2_6String6removeCs2rQdhMmkUY8_5paste, symObjAddr: 0xA94, symBinAddr: 0xEAD4, symSize: 0x298 }
  - { offset: 0x1C137, size: 0x8, addend: 0x0, symName: __RNvMNtCsdze8u8oDPro_5alloc6stringNtB2_6String8truncateCs2rQdhMmkUY8_5paste, symObjAddr: 0xD2C, symBinAddr: 0xED6C, symSize: 0x168 }
  - { offset: 0x1C577, size: 0x8, addend: 0x0, symName: __RNvMNtCsdze8u8oDPro_5alloc6stringNtB2_6String9split_offCs2rQdhMmkUY8_5paste, symObjAddr: 0xE94, symBinAddr: 0xEED4, symSize: 0x170 }
  - { offset: 0x1C9F5, size: 0x8, addend: 0x0, symName: __RNvMs_NtNtCsdze8u8oDPro_5alloc3vec9into_iterINtB4_8IntoIterNtNtCs2rQdhMmkUY8_5paste7segment7SegmentE8as_sliceBZ_, symObjAddr: 0x1004, symBinAddr: 0xF044, symSize: 0x68 }
  - { offset: 0x1D03C, size: 0x8, addend: 0x0, symName: __RNvXsU_NtNtCs27l1GJC5rMQ_3std3ffi6os_strNtNtCsdze8u8oDPro_5alloc6string6StringINtNtCs9f3LFPSIp77_4core7convert5AsRefNtB5_5OsStrE6as_refCs2rQdhMmkUY8_5paste, symObjAddr: 0x1700, symBinAddr: 0xF740, symSize: 0xA0 }
  - { offset: 0x1DAD8, size: 0x8, addend: 0x0, symName: __RINvMs2_NtNtCs27l1GJC5rMQ_3std6thread5localINtB6_8LocalKeyINtNtCs9f3LFPSIp77_4core4cell4CellPuEE8try_withNCNvMs3_B6_BF_7replace0B1s_ECs2rQdhMmkUY8_5paste, symObjAddr: 0x0, symBinAddr: 0x10000, symSize: 0xE8 }
  - { offset: 0x1DCDB, size: 0x8, addend: 0x0, symName: __RNCINvNtNtCsjLJ1XWNSM6u_10proc_macro6bridge6client10run_clientNtB4_11TokenStreamINtNtCs9f3LFPSIp77_4core6option6OptionBY_ENCNCINvMs7_B4_INtB4_6ClientNtB8_11TokenStreamB2n_E7expand1NvCs2rQdhMmkUY8_5paste4exprE00E0B2U_, symObjAddr: 0x7CC, symBinAddr: 0x107CC, symSize: 0x3DC }
  - { offset: 0x1E235, size: 0x8, addend: 0x0, symName: __RNCINvNtNtCsjLJ1XWNSM6u_10proc_macro6bridge6client10run_clientNtB4_11TokenStreamINtNtCs9f3LFPSIp77_4core6option6OptionBY_ENCNCINvMs7_B4_INtB4_6ClientNtB8_11TokenStreamB2n_E7expand1NvCs2rQdhMmkUY8_5paste4itemE00E0B2U_, symObjAddr: 0xBA8, symBinAddr: 0x10BA8, symSize: 0x3DC }
  - { offset: 0x1E78F, size: 0x8, addend: 0x0, symName: __RNCINvNtNtCsjLJ1XWNSM6u_10proc_macro6bridge6client10run_clientNtB4_11TokenStreamINtNtCs9f3LFPSIp77_4core6option6OptionBY_ENCNCINvMs7_B4_INtB4_6ClientNtB8_11TokenStreamB2n_E7expand1NvCs2rQdhMmkUY8_5paste5pasteE00E0B2U_, symObjAddr: 0xF84, symBinAddr: 0x10F84, symSize: 0x3DC }
  - { offset: 0x1ECEE, size: 0x8, addend: 0x0, symName: __RNCNCINvNtNtCsjLJ1XWNSM6u_10proc_macro6bridge6client10run_clientNtB6_11TokenStreamINtNtCs9f3LFPSIp77_4core6option6OptionB10_ENCNCINvMs7_B6_INtB6_6ClientNtBa_11TokenStreamB2q_E7expand1NvCs2rQdhMmkUY8_5paste4exprE00E00B2X_, symObjAddr: 0x13F0, symBinAddr: 0x113F0, symSize: 0x28 }
  - { offset: 0x1ED47, size: 0x8, addend: 0x0, symName: __RNCNCINvNtNtCsjLJ1XWNSM6u_10proc_macro6bridge6client10run_clientNtB6_11TokenStreamINtNtCs9f3LFPSIp77_4core6option6OptionB10_ENCNCINvMs7_B6_INtB6_6ClientNtBa_11TokenStreamB2q_E7expand1NvCs2rQdhMmkUY8_5paste4itemE00E00B2X_, symObjAddr: 0x1418, symBinAddr: 0x11418, symSize: 0x28 }
  - { offset: 0x1EDA0, size: 0x8, addend: 0x0, symName: __RNCNCINvNtNtCsjLJ1XWNSM6u_10proc_macro6bridge6client10run_clientNtB6_11TokenStreamINtNtCs9f3LFPSIp77_4core6option6OptionB10_ENCNCINvMs7_B6_INtB6_6ClientNtBa_11TokenStreamB2q_E7expand1NvCs2rQdhMmkUY8_5paste5pasteE00E00B2X_, symObjAddr: 0x1440, symBinAddr: 0x11440, symSize: 0x28 }
  - { offset: 0x1EE43, size: 0x8, addend: 0x0, symName: __RNCNCINvMs7_NtNtCsjLJ1XWNSM6u_10proc_macro6bridge6clientINtBa_6ClientNtBe_11TokenStreamB15_E7expand1NvCs2rQdhMmkUY8_5paste4exprE00B1C_, symObjAddr: 0x1360, symBinAddr: 0x11360, symSize: 0x30 }
  - { offset: 0x1EE8A, size: 0x8, addend: 0x0, symName: __RNCNCINvMs7_NtNtCsjLJ1XWNSM6u_10proc_macro6bridge6clientINtBa_6ClientNtBe_11TokenStreamB15_E7expand1NvCs2rQdhMmkUY8_5paste4itemE00B1C_, symObjAddr: 0x1390, symBinAddr: 0x11390, symSize: 0x30 }
  - { offset: 0x1EED1, size: 0x8, addend: 0x0, symName: __RNCNCINvMs7_NtNtCsjLJ1XWNSM6u_10proc_macro6bridge6clientINtBa_6ClientNtBe_11TokenStreamB15_E7expand1NvCs2rQdhMmkUY8_5paste5pasteE00B1C_, symObjAddr: 0x13C0, symBinAddr: 0x113C0, symSize: 0x30 }
  - { offset: 0x1EF19, size: 0x8, addend: 0x0, symName: __RNCINvMs7_NtNtCsjLJ1XWNSM6u_10proc_macro6bridge6clientINtB8_6ClientNtBc_11TokenStreamB13_E7expand1NvCs2rQdhMmkUY8_5paste4exprE0B1A_, symObjAddr: 0x73C, symBinAddr: 0x1073C, symSize: 0x30 }
  - { offset: 0x1EF61, size: 0x8, addend: 0x0, symName: __RNCINvMs7_NtNtCsjLJ1XWNSM6u_10proc_macro6bridge6clientINtB8_6ClientNtBc_11TokenStreamB13_E7expand1NvCs2rQdhMmkUY8_5paste4itemE0B1A_, symObjAddr: 0x76C, symBinAddr: 0x1076C, symSize: 0x30 }
  - { offset: 0x1EFA9, size: 0x8, addend: 0x0, symName: __RNCINvMs7_NtNtCsjLJ1XWNSM6u_10proc_macro6bridge6clientINtB8_6ClientNtBc_11TokenStreamB13_E7expand1NvCs2rQdhMmkUY8_5paste5pasteE0B1A_, symObjAddr: 0x79C, symBinAddr: 0x1079C, symSize: 0x30 }
  - { offset: 0x1F014, size: 0x8, addend: 0x0, symName: __RINvNtNtCsjLJ1XWNSM6u_10proc_macro6bridge6client10run_clientNtB2_11TokenStreamINtNtCs9f3LFPSIp77_4core6option6OptionBW_ENCNCINvMs7_B2_INtB2_6ClientNtB6_11TokenStreamB2l_E7expand1NvCs2rQdhMmkUY8_5paste4exprE00EB2S_, symObjAddr: 0xE8, symBinAddr: 0x100E8, symSize: 0x21C }
  - { offset: 0x1F1D3, size: 0x8, addend: 0x0, symName: __RINvNtNtCsjLJ1XWNSM6u_10proc_macro6bridge6client10run_clientNtB2_11TokenStreamINtNtCs9f3LFPSIp77_4core6option6OptionBW_ENCNCINvMs7_B2_INtB2_6ClientNtB6_11TokenStreamB2l_E7expand1NvCs2rQdhMmkUY8_5paste4itemE00EB2S_, symObjAddr: 0x304, symBinAddr: 0x10304, symSize: 0x21C }
  - { offset: 0x1F392, size: 0x8, addend: 0x0, symName: __RINvNtNtCsjLJ1XWNSM6u_10proc_macro6bridge6client10run_clientNtB2_11TokenStreamINtNtCs9f3LFPSIp77_4core6option6OptionBW_ENCNCINvMs7_B2_INtB2_6ClientNtB6_11TokenStreamB2l_E7expand1NvCs2rQdhMmkUY8_5paste5pasteE00EB2S_, symObjAddr: 0x520, symBinAddr: 0x10520, symSize: 0x21C }
  - { offset: 0x1F5EC, size: 0x8, addend: 0x0, symName: __RNvXsh_NtNtCsjLJ1XWNSM6u_10proc_macro6bridge6clientNtB5_11TokenStreamINtNtB7_3rpc6EncodeuE6encodeCs2rQdhMmkUY8_5paste, symObjAddr: 0x18F0, symBinAddr: 0x118F0, symSize: 0x50 }
  - { offset: 0x1F706, size: 0x8, addend: 0x0, symName: __RNvXsk_NtNtCsjLJ1XWNSM6u_10proc_macro6bridge6clientNtB5_11TokenStreamINtNtB7_3rpc9DecodeMutuE6decodeCs2rQdhMmkUY8_5paste, symObjAddr: 0x1940, symBinAddr: 0x11940, symSize: 0x2C }
  - { offset: 0x1F74F, size: 0x8, addend: 0x0, symName: __RNvXsr_NtNtCsjLJ1XWNSM6u_10proc_macro6bridge6clientNtB5_4SpanINtNtB7_3rpc9DecodeMutuE6decodeCs2rQdhMmkUY8_5paste, symObjAddr: 0x196C, symBinAddr: 0x1196C, symSize: 0x2C }
  - { offset: 0x1F798, size: 0x8, addend: 0x0, symName: __RNvXst_NtNtCsjLJ1XWNSM6u_10proc_macro6bridge6clientNtB5_4SpanNtNtCs9f3LFPSIp77_4core5clone5Clone5cloneCs2rQdhMmkUY8_5paste, symObjAddr: 0x1998, symBinAddr: 0x11998, symSize: 0x18 }
  - { offset: 0x20285, size: 0x8, addend: 0x0, symName: __RNvXNtNtCs9f3LFPSIp77_4core3cmp5implsuNtB4_9PartialEq2eqCs2rQdhMmkUY8_5paste, symObjAddr: 0x1824, symBinAddr: 0x11824, symSize: 0x1C }
  - { offset: 0x202C8, size: 0x8, addend: 0x0, symName: __RNvXsV_NtNtCs9f3LFPSIp77_4core3cmp5implsjNtB7_3Ord3cmpCs2rQdhMmkUY8_5paste, symObjAddr: 0x1840, symBinAddr: 0x11840, symSize: 0x38 }
  - { offset: 0x21B7A, size: 0x8, addend: 0x0, symName: __RNvNvNtNtCs9f3LFPSIp77_4core5slice3raw14from_raw_parts18precondition_checkCs2rQdhMmkUY8_5paste, symObjAddr: 0x155C, symBinAddr: 0x1155C, symSize: 0x164 }
  - { offset: 0x21CD4, size: 0x8, addend: 0x0, symName: __RNvNvNtNtCs9f3LFPSIp77_4core5slice3raw18from_raw_parts_mut18precondition_checkCs2rQdhMmkUY8_5paste, symObjAddr: 0x16C0, symBinAddr: 0x116C0, symSize: 0x164 }
  - { offset: 0x21E7D, size: 0x8, addend: 0x0, symName: __RNvMNtCs9f3LFPSIp77_4core5sliceSh15copy_from_sliceCs2rQdhMmkUY8_5paste, symObjAddr: 0x14AC, symBinAddr: 0x114AC, symSize: 0xA4 }
  - { offset: 0x22104, size: 0x8, addend: 0x0, symName: __RNvXsd_NtCs9f3LFPSIp77_4core5arrayAcj2_INtNtNtB7_3ops5index5IndexNtNtBG_5range9RangeFullE5indexCs2rQdhMmkUY8_5paste, symObjAddr: 0x1878, symBinAddr: 0x11878, symSize: 0x3C }
  - { offset: 0x22171, size: 0x8, addend: 0x0, symName: __RNvXsd_NtCs9f3LFPSIp77_4core5arrayAcj4_INtNtNtB7_3ops5index5IndexNtNtBG_5range9RangeFullE5indexCs2rQdhMmkUY8_5paste, symObjAddr: 0x18B4, symBinAddr: 0x118B4, symSize: 0x3C }
  - { offset: 0x222F5, size: 0x8, addend: 0x0, symName: __RNCNvMs3_NtNtCs27l1GJC5rMQ_3std6thread5localINtB7_8LocalKeyINtNtCs9f3LFPSIp77_4core4cell4CellPuEE7replace0Cs2rQdhMmkUY8_5paste, symObjAddr: 0x1468, symBinAddr: 0x11468, symSize: 0x44 }
  - { offset: 0x226B4, size: 0x8, addend: 0x0, symName: __RINvMs2_NtNtCs27l1GJC5rMQ_3std6thread5localINtB6_8LocalKeyINtNtCs9f3LFPSIp77_4core4cell4CellPuEE8try_withNCNvMs3_B6_BF_7replace0B1s_ECs2rQdhMmkUY8_5paste, symObjAddr: 0x0, symBinAddr: 0x10000, symSize: 0xE8 }
  - { offset: 0x238FF, size: 0x8, addend: 0x0, symName: __RNvMsa_NtNtCsjLJ1XWNSM6u_10proc_macro6bridge6clientNtB5_14HandleCounters3getCs2rQdhMmkUY8_5paste, symObjAddr: 0x1550, symBinAddr: 0x11550, symSize: 0xC }
  - { offset: 0x23AC4, size: 0x8, addend: 0x0, symName: __RNvNtCs2rQdhMmkUY8_5paste4attr11expand_attr, symObjAddr: 0x19B0, symBinAddr: 0x119B0, symSize: 0x10A0 }
  - { offset: 0x23CF2, size: 0x8, addend: 0x0, symName: __RNCNvNtCs2rQdhMmkUY8_5paste4attr11expand_attr0B5_, symObjAddr: 0x2A50, symBinAddr: 0x12A50, symSize: 0x70 }
  - { offset: 0x23D26, size: 0x8, addend: 0x0, symName: __RNCNvNtCs2rQdhMmkUY8_5paste4attr11expand_attrs_0B5_, symObjAddr: 0x2AC0, symBinAddr: 0x12AC0, symSize: 0x78 }
  - { offset: 0x23D65, size: 0x8, addend: 0x0, symName: __RNvNtCs2rQdhMmkUY8_5paste4attr24do_paste_name_value_attr, symObjAddr: 0x2B38, symBinAddr: 0x12B38, symSize: 0x918 }
  - { offset: 0x23FD0, size: 0x8, addend: 0x0, symName: __RNvNtCs2rQdhMmkUY8_5paste4attr13is_stringlike, symObjAddr: 0x3450, symBinAddr: 0x13450, symSize: 0x470 }
  - { offset: 0x2435A, size: 0x8, addend: 0x0, symName: __RINvMNtCs9f3LFPSIp77_4core3stre11starts_withNCNvCs2rQdhMmkUY8_5paste16pasted_to_tokens0EBK_, symObjAddr: 0x0, symBinAddr: 0x13914, symSize: 0x28 }
  - { offset: 0x24702, size: 0x8, addend: 0x0, symName: __RINvNtCs27l1GJC5rMQ_3std5panic12catch_unwindNCNvCs2rQdhMmkUY8_5paste16pasted_to_tokenss0_0NtCsjLJ1XWNSM6u_10proc_macro5IdentEBK_, symObjAddr: 0x324, symBinAddr: 0x13C38, symSize: 0xCC }
  - { offset: 0x247AA, size: 0x8, addend: 0x0, symName: __RINvNtCs27l1GJC5rMQ_3std5panic12catch_unwindNCNvCs2rQdhMmkUY8_5paste16pasted_to_tokenss_0INtNtCs9f3LFPSIp77_4core6result6ResultNtCsjLJ1XWNSM6u_10proc_macro7LiteralNtB23_8LexErrorEEBK_, symObjAddr: 0x3F0, symBinAddr: 0x13D04, symSize: 0xA4 }
  - { offset: 0x24A1D, size: 0x8, addend: 0x0, symName: __RNvNvMNtNtCs9f3LFPSIp77_4core3ptr9const_ptrPp7sub_ptr18precondition_checkCs2rQdhMmkUY8_5paste, symObjAddr: 0x1EC0, symBinAddr: 0x157D4, symSize: 0x40 }
  - { offset: 0x24E89, size: 0x8, addend: 0x0, symName: __RINvMNtCs9f3LFPSIp77_4core3stre11starts_withNCNvCs2rQdhMmkUY8_5paste16pasted_to_tokens0EBK_, symObjAddr: 0x0, symBinAddr: 0x13914, symSize: 0x28 }
  - { offset: 0x24ECF, size: 0x8, addend: 0x0, symName: __RINvMNtCs9f3LFPSIp77_4core3stre11starts_withRScECs2rQdhMmkUY8_5paste, symObjAddr: 0x28, symBinAddr: 0x1393C, symSize: 0x4C }
  - { offset: 0x24F15, size: 0x8, addend: 0x0, symName: __RINvMNtCs9f3LFPSIp77_4core3stre11starts_withReECs2rQdhMmkUY8_5paste, symObjAddr: 0x74, symBinAddr: 0x13988, symSize: 0x4C }
  - { offset: 0x24F5B, size: 0x8, addend: 0x0, symName: __RINvMNtCs9f3LFPSIp77_4core3stre11starts_withcECs2rQdhMmkUY8_5paste, symObjAddr: 0xC0, symBinAddr: 0x139D4, symSize: 0x44 }
  - { offset: 0x24FAE, size: 0x8, addend: 0x0, symName: __RINvMNtCs9f3LFPSIp77_4core3stre4findcECs2rQdhMmkUY8_5paste, symObjAddr: 0x104, symBinAddr: 0x13A18, symSize: 0xC8 }
  - { offset: 0x25043, size: 0x8, addend: 0x0, symName: __RINvMNtCs9f3LFPSIp77_4core3stre5rfindcECs2rQdhMmkUY8_5paste, symObjAddr: 0x1CC, symBinAddr: 0x13AE0, symSize: 0xC8 }
  - { offset: 0x250CB, size: 0x8, addend: 0x0, symName: __RINvMNtCs9f3LFPSIp77_4core3stre8containsRScECs2rQdhMmkUY8_5paste, symObjAddr: 0x294, symBinAddr: 0x13BA8, symSize: 0x4C }
  - { offset: 0x25111, size: 0x8, addend: 0x0, symName: __RINvMNtCs9f3LFPSIp77_4core3stre9ends_withcECs2rQdhMmkUY8_5paste, symObjAddr: 0x2E0, symBinAddr: 0x13BF4, symSize: 0x44 }
  - { offset: 0x25175, size: 0x8, addend: 0x0, symName: __RNvMNtCs9f3LFPSIp77_4core3stre5charsCs2rQdhMmkUY8_5paste, symObjAddr: 0x1564, symBinAddr: 0x14E78, symSize: 0x38 }
  - { offset: 0x25F07, size: 0x8, addend: 0x0, symName: __RINvNtCs9f3LFPSIp77_4core6escape10hex_escapeKja_ECs2rQdhMmkUY8_5paste, symObjAddr: 0x494, symBinAddr: 0x13DA8, symSize: 0x134 }
  - { offset: 0x25FC9, size: 0x8, addend: 0x0, symName: __RINvNtCs9f3LFPSIp77_4core6escape12escape_asciiKja_ECs2rQdhMmkUY8_5paste, symObjAddr: 0x5C8, symBinAddr: 0x13EDC, symSize: 0x174 }
  - { offset: 0x260B8, size: 0x8, addend: 0x0, symName: __RINvNtCs9f3LFPSIp77_4core6escape14escape_unicodeKja_ECs2rQdhMmkUY8_5paste, symObjAddr: 0x73C, symBinAddr: 0x14050, symSize: 0x37C }
  - { offset: 0x2655F, size: 0x8, addend: 0x0, symName: __RNCINvMNtNtCs9f3LFPSIp77_4core3ops9try_traitINtB5_17NeverShortCircuituE10wrap_mut_2uNtCsjLJ1XWNSM6u_10proc_macro9TokenTreeQNCINvNvNtNtNtNtB9_4iter6traits8iterator8Iterator8for_each4callB1k_NCINvXsh_B1m_NtB1m_11TokenStreamINtNtB28_7collect12FromIteratorB1k_E9from_iterINtNtNtB2a_8adapters5chain5ChainINtNtB4m_4take4TakeNtNtB1m_12token_stream8IntoIterEINtNtNtB2a_7sources4once4OnceB1k_EEE0E0E0Cs2rQdhMmkUY8_5paste, symObjAddr: 0x13FC, symBinAddr: 0x14D10, symSize: 0x3C }
  - { offset: 0x265F2, size: 0x8, addend: 0x0, symName: __RNvXs0_NtNtCs9f3LFPSIp77_4core3ops9try_traitINtB5_17NeverShortCircuituEINtB5_12FromResidualNtB5_25NeverShortCircuitResidualE13from_residualCs2rQdhMmkUY8_5paste, symObjAddr: 0x1FFC, symBinAddr: 0x15910, symSize: 0x8 }
  - { offset: 0x26636, size: 0x8, addend: 0x0, symName: __RNvXs_NtNtCs9f3LFPSIp77_4core3ops9try_traitINtB4_17NeverShortCircuituENtB4_3Try11from_outputCs2rQdhMmkUY8_5paste, symObjAddr: 0x237C, symBinAddr: 0x15C90, symSize: 0xC }
  - { offset: 0x26669, size: 0x8, addend: 0x0, symName: __RNvXs_NtNtCs9f3LFPSIp77_4core3ops9try_traitINtB4_17NeverShortCircuituENtB4_3Try6branchCs2rQdhMmkUY8_5paste, symObjAddr: 0x2388, symBinAddr: 0x15C9C, symSize: 0xC }
  - { offset: 0x266EF, size: 0x8, addend: 0x0, symName: __RINvXs7_NtNtNtCs9f3LFPSIp77_4core4iter8adapters4takeINtB6_4TakeNtNtCsjLJ1XWNSM6u_10proc_macro12token_stream8IntoIterENtB6_8SpecTake9spec_folduQNCINvNvNtNtNtBa_6traits8iterator8Iterator8for_each4callNtB13_9TokenTreeNCINvXsh_B13_NtB13_11TokenStreamINtNtB2s_7collect12FromIteratorB3a_E9from_iterINtNtB8_5chain5ChainBO_INtNtNtBa_7sources4once4OnceB3a_EEE0E0ECs2rQdhMmkUY8_5paste, symObjAddr: 0xAB8, symBinAddr: 0x143CC, symSize: 0x5C }
  - { offset: 0x26753, size: 0x8, addend: 0x0, symName: __RINvXs7_NtNtNtCs9f3LFPSIp77_4core4iter8adapters4takeINtB6_4TakeQINtNtB8_8peekable8PeekableNtNtCsjLJ1XWNSM6u_10proc_macro12token_stream8IntoIterEENtB6_8SpecTake13spec_for_eachNCINvXsj_B1u_NtB1u_11TokenStreamINtNtNtBa_6traits7collect6ExtendNtB1u_9TokenTreeE6extendBO_E0ECs2rQdhMmkUY8_5paste, symObjAddr: 0xB14, symBinAddr: 0x14428, symSize: 0x80 }
  - { offset: 0x267BE, size: 0x8, addend: 0x0, symName: __RNCINvNvXs7_NtNtNtCs9f3LFPSIp77_4core4iter8adapters4takeINtBa_4TakepENtBa_8SpecTake13spec_for_each5checkNtCsjLJ1XWNSM6u_10proc_macro9TokenTreeNCINvXsj_B1G_NtB1G_11TokenStreamINtNtNtBe_6traits7collect6ExtendB1E_E6extendIBT_QINtNtBc_8peekable8PeekableNtNtB1G_12token_stream8IntoIterEEE0E0Cs2rQdhMmkUY8_5paste, symObjAddr: 0x1438, symBinAddr: 0x14D4C, symSize: 0x98 }
  - { offset: 0x26858, size: 0x8, addend: 0x0, symName: __RINvXs_NtNtNtCs9f3LFPSIp77_4core4iter8adapters4takeINtB5_4TakeNtNtCsjLJ1XWNSM6u_10proc_macro12token_stream8IntoIterENtNtNtB9_6traits8iterator8Iterator4folduQNCINvNvB1Q_8for_each4callNtB12_9TokenTreeNCINvXsh_B12_NtB12_11TokenStreamINtNtB1U_7collect12FromIteratorB2U_E9from_iterINtNtB7_5chain5ChainBN_INtNtNtB9_7sources4once4OnceB2U_EEE0E0ECs2rQdhMmkUY8_5paste, symObjAddr: 0xB94, symBinAddr: 0x144A8, symSize: 0x24 }
  - { offset: 0x268B8, size: 0x8, addend: 0x0, symName: __RINvXs_NtNtNtCs9f3LFPSIp77_4core4iter8adapters4takeINtB5_4TakeNtNtCsjLJ1XWNSM6u_10proc_macro12token_stream8IntoIterENtNtNtB9_6traits8iterator8Iterator8try_folduNCINvMNtNtBb_3ops9try_traitINtB2E_17NeverShortCircuituE10wrap_mut_2uNtB12_9TokenTreeQNCINvNvB1Q_8for_each4callB3E_NCINvXsh_B12_NtB12_11TokenStreamINtNtB1U_7collect12FromIteratorB3E_E9from_iterINtNtB7_5chain5ChainBN_INtNtNtB9_7sources4once4OnceB3E_EEE0E0E0B2Z_ECs2rQdhMmkUY8_5paste, symObjAddr: 0xBB8, symBinAddr: 0x144CC, symSize: 0xC4 }
  - { offset: 0x26968, size: 0x8, addend: 0x0, symName: __RINvXs_NtNtNtCs9f3LFPSIp77_4core4iter8adapters4takeINtB5_4TakeQINtNtB7_8peekable8PeekableNtNtCsjLJ1XWNSM6u_10proc_macro12token_stream8IntoIterEENtNtNtB9_6traits8iterator8Iterator8for_eachNCINvXsj_B1t_NtB1t_11TokenStreamINtNtB2m_7collect6ExtendNtB1t_9TokenTreeE6extendBN_E0ECs2rQdhMmkUY8_5paste, symObjAddr: 0xC7C, symBinAddr: 0x14590, symSize: 0x30 }
  - { offset: 0x269BA, size: 0x8, addend: 0x0, symName: __RNCINvNvXs_NtNtNtCs9f3LFPSIp77_4core4iter8adapters4takeINtB9_4TakepENtNtNtBd_6traits8iterator8Iterator8try_fold5checkNtCsjLJ1XWNSM6u_10proc_macro9TokenTreeuINtNtNtBf_3ops9try_trait17NeverShortCircuituENCINvMB2x_B2u_10wrap_mut_2uB1R_QNCINvNvB14_8for_each4callB1R_NCINvXsh_B1T_NtB1T_11TokenStreamINtNtB18_7collect12FromIteratorB1R_E9from_iterINtNtBb_5chain5ChainIBS_NtNtB1T_12token_stream8IntoIterEINtNtNtBd_7sources4once4OnceB1R_EEE0E0E0E0Cs2rQdhMmkUY8_5paste, symObjAddr: 0x14D0, symBinAddr: 0x14DE4, symSize: 0x94 }
  - { offset: 0x26A9A, size: 0x8, addend: 0x0, symName: __RNvXs_NtNtNtCs9f3LFPSIp77_4core4iter8adapters4takeINtB4_4TakeNtNtCsjLJ1XWNSM6u_10proc_macro12token_stream8IntoIterENtNtNtB8_6traits8iterator8Iterator9size_hintCs2rQdhMmkUY8_5paste, symObjAddr: 0x23EC, symBinAddr: 0x15D00, symSize: 0x124 }
  - { offset: 0x26B9C, size: 0x8, addend: 0x0, symName: __RNvXs_NtNtNtCs9f3LFPSIp77_4core4iter8adapters4takeINtB4_4TakeQINtNtB6_8peekable8PeekableNtNtCsjLJ1XWNSM6u_10proc_macro12token_stream8IntoIterEENtNtNtB8_6traits8iterator8Iterator9size_hintCs2rQdhMmkUY8_5paste, symObjAddr: 0x2510, symBinAddr: 0x15E24, symSize: 0x124 }
  - { offset: 0x26E8D, size: 0x8, addend: 0x0, symName: __RINvYINtNtNtNtCs9f3LFPSIp77_4core4iter8adapters4take4TakeNtNtCsjLJ1XWNSM6u_10proc_macro12token_stream8IntoIterENtNtNtBa_6traits8iterator8Iterator5chainINtNtNtBa_7sources4once4OnceNtBX_9TokenTreeEECs2rQdhMmkUY8_5paste, symObjAddr: 0xCAC, symBinAddr: 0x145C0, symSize: 0xC4 }
  - { offset: 0x26F05, size: 0x8, addend: 0x0, symName: __RINvYNtNtCs9f3LFPSIp77_4core4char13EscapeDefaultNtNtNtNtB7_4iter6traits8iterator8Iterator4folduNCINvNvBK_8for_each4callcNCINvXsb_NtCsdze8u8oDPro_5alloc6stringNtB23_6StringINtNtBO_7collect6ExtendcE6extendB3_E0E0ECs2rQdhMmkUY8_5paste, symObjAddr: 0xD70, symBinAddr: 0x14684, symSize: 0xB4 }
  - { offset: 0x26F93, size: 0x8, addend: 0x0, symName: __RINvYNtNtCs9f3LFPSIp77_4core4char13EscapeDefaultNtNtNtNtB7_4iter6traits8iterator8Iterator8for_eachNCINvXsb_NtCsdze8u8oDPro_5alloc6stringNtB1H_6StringINtNtBO_7collect6ExtendcE6extendB3_E0ECs2rQdhMmkUY8_5paste, symObjAddr: 0xE24, symBinAddr: 0x14738, symSize: 0x24 }
  - { offset: 0x26FDF, size: 0x8, addend: 0x0, symName: __RINvYNtNtCsjLJ1XWNSM6u_10proc_macro12token_stream8IntoIterNtNtNtNtCs9f3LFPSIp77_4core4iter6traits8iterator8Iterator4folduNCINvNvBU_8for_each4callNtB7_9TokenTreeNCINvXsj_B7_NtB7_11TokenStreamINtNtBY_7collect6ExtendB2j_E6extendB2K_E0E0ECs2rQdhMmkUY8_5paste, symObjAddr: 0xE48, symBinAddr: 0x1475C, symSize: 0x10C }
  - { offset: 0x2706E, size: 0x8, addend: 0x0, symName: __RINvYNtNtCsjLJ1XWNSM6u_10proc_macro12token_stream8IntoIterNtNtNtNtCs9f3LFPSIp77_4core4iter6traits8iterator8Iterator7inspectNCNvNtCs2rQdhMmkUY8_5paste4attr11expand_attr0EB23_, symObjAddr: 0xF54, symBinAddr: 0x14868, symSize: 0x28 }
  - { offset: 0x270E3, size: 0x8, addend: 0x0, symName: __RINvYNtNtCsjLJ1XWNSM6u_10proc_macro12token_stream8IntoIterNtNtNtNtCs9f3LFPSIp77_4core4iter6traits8iterator8Iterator8for_eachNCINvXsj_B7_NtB7_11TokenStreamINtNtBY_7collect6ExtendNtB7_9TokenTreeE6extendB2a_E0ECs2rQdhMmkUY8_5paste, symObjAddr: 0xF7C, symBinAddr: 0x14890, symSize: 0x24 }
  - { offset: 0x2712F, size: 0x8, addend: 0x0, symName: __RINvYNtNtCsjLJ1XWNSM6u_10proc_macro12token_stream8IntoIterNtNtNtNtCs9f3LFPSIp77_4core4iter6traits8iterator8Iterator8try_foldjNCINvNvXs7_NtNtB10_8adapters4takeINtB2a_4TakepENtB2a_8SpecTake13spec_for_each5checkNtB7_9TokenTreeNCINvXsj_B7_NtB7_11TokenStreamINtNtBY_7collect6ExtendB3k_E6extendIB2x_QINtNtB2c_8peekable8PeekableB3_EEE0E0INtNtB12_6option6OptionjEECs2rQdhMmkUY8_5paste, symObjAddr: 0xFA0, symBinAddr: 0x148B4, symSize: 0x1B0 }
  - { offset: 0x271EA, size: 0x8, addend: 0x0, symName: __RINvYNtNtCsjLJ1XWNSM6u_10proc_macro12token_stream8IntoIterNtNtNtNtCs9f3LFPSIp77_4core4iter6traits8iterator8Iterator8try_folduNCINvNtNtB10_8adapters7inspect16inspect_try_foldNtB7_9TokenTreeuINtNtNtB12_3ops12control_flow11ControlFlowuENCNvNtCs2rQdhMmkUY8_5paste4attr11expand_attr0NCINvNvBU_3all5checkB2L_NCB3L_s_0E0E0B31_EB3P_, symObjAddr: 0x1150, symBinAddr: 0x14A64, symSize: 0x154 }
  - { offset: 0x272A2, size: 0x8, addend: 0x0, symName: __RINvYNtNtCsjLJ1XWNSM6u_10proc_macro12token_stream8IntoIterNtNtNtNtCs9f3LFPSIp77_4core4iter6traits8iterator8Iterator8try_folduNCINvNvXs_NtNtB10_8adapters4takeINtB29_4TakepEBU_8try_fold5checkNtB7_9TokenTreeuINtNtNtB12_3ops9try_trait17NeverShortCircuituENCINvMB3k_B3h_10wrap_mut_2uB31_QNCINvNvBU_8for_each4callB31_NCINvXsh_B7_NtB7_11TokenStreamINtNtBY_7collect12FromIteratorB31_E9from_iterINtNtB2b_5chain5ChainIB2w_B3_EINtNtNtB10_7sources4once4OnceB31_EEE0E0E0E0INtNtB3m_12control_flow11ControlFlowB3h_EECs2rQdhMmkUY8_5paste, symObjAddr: 0x12A4, symBinAddr: 0x14BB8, symSize: 0x158 }
  - { offset: 0x2735A, size: 0x8, addend: 0x0, symName: __RNvYNtNtCsjLJ1XWNSM6u_10proc_macro12token_stream8IntoIterNtNtNtNtCs9f3LFPSIp77_4core4iter6traits8iterator8Iterator4takeCs2rQdhMmkUY8_5paste, symObjAddr: 0x2A38, symBinAddr: 0x1634C, symSize: 0x24 }
  - { offset: 0x273C6, size: 0x8, addend: 0x0, symName: __RNvYNtNtCsjLJ1XWNSM6u_10proc_macro12token_stream8IntoIterNtNtNtNtCs9f3LFPSIp77_4core4iter6traits8iterator8Iterator8peekableCs2rQdhMmkUY8_5paste, symObjAddr: 0x2A5C, symBinAddr: 0x16370, symSize: 0x38 }
  - { offset: 0x2748B, size: 0x8, addend: 0x0, symName: __RNvXs_NtNtNtCs9f3LFPSIp77_4core4iter6traits7collectINtNtNtB8_8adapters4take4TakeQINtNtBS_8peekable8PeekableNtNtCsjLJ1XWNSM6u_10proc_macro12token_stream8IntoIterEENtB4_12IntoIterator9into_iterCs2rQdhMmkUY8_5paste, symObjAddr: 0x2394, symBinAddr: 0x15CA8, symSize: 0x18 }
  - { offset: 0x274C2, size: 0x8, addend: 0x0, symName: __RNvXs_NtNtNtCs9f3LFPSIp77_4core4iter6traits7collectNtNtBa_4char11ToLowercaseNtB4_12IntoIterator9into_iterCs2rQdhMmkUY8_5paste, symObjAddr: 0x23AC, symBinAddr: 0x15CC0, symSize: 0x14 }
  - { offset: 0x274F9, size: 0x8, addend: 0x0, symName: __RNvXs_NtNtNtCs9f3LFPSIp77_4core4iter6traits7collectNtNtBa_4char11ToUppercaseNtB4_12IntoIterator9into_iterCs2rQdhMmkUY8_5paste, symObjAddr: 0x23C0, symBinAddr: 0x15CD4, symSize: 0x14 }
  - { offset: 0x27530, size: 0x8, addend: 0x0, symName: __RNvXs_NtNtNtCs9f3LFPSIp77_4core4iter6traits7collectNtNtBa_4char13EscapeDefaultNtB4_12IntoIterator9into_iterCs2rQdhMmkUY8_5paste, symObjAddr: 0x23D4, symBinAddr: 0x15CE8, symSize: 0x18 }
  - { offset: 0x27AA0, size: 0x8, addend: 0x0, symName: __RNvMNtNtCs9f3LFPSIp77_4core4char7methodsc12is_uppercaseCs2rQdhMmkUY8_5paste, symObjAddr: 0x173C, symBinAddr: 0x15050, symSize: 0x80 }
  - { offset: 0x27AE3, size: 0x8, addend: 0x0, symName: __RNvMNtNtCs9f3LFPSIp77_4core4char7methodsc12to_lowercaseCs2rQdhMmkUY8_5paste, symObjAddr: 0x17BC, symBinAddr: 0x150D0, symSize: 0x4C }
  - { offset: 0x27B11, size: 0x8, addend: 0x0, symName: __RNvMNtNtCs9f3LFPSIp77_4core4char7methodsc12to_uppercaseCs2rQdhMmkUY8_5paste, symObjAddr: 0x1808, symBinAddr: 0x1511C, symSize: 0x4C }
  - { offset: 0x27B7B, size: 0x8, addend: 0x0, symName: __RNvMNtNtCs9f3LFPSIp77_4core4char7methodsc14escape_defaultCs2rQdhMmkUY8_5paste, symObjAddr: 0x1854, symBinAddr: 0x15168, symSize: 0x294 }
  - { offset: 0x27D6C, size: 0x8, addend: 0x0, symName: __RNvMNtNtCs9f3LFPSIp77_4core4char7methodsc14is_ascii_digitCs2rQdhMmkUY8_5paste, symObjAddr: 0x1AE8, symBinAddr: 0x153FC, symSize: 0x54 }
  - { offset: 0x27DB9, size: 0x8, addend: 0x0, symName: __RNvNtNtCs9f3LFPSIp77_4core4char7methods15encode_utf8_rawCs2rQdhMmkUY8_5paste, symObjAddr: 0x1CA4, symBinAddr: 0x155B8, symSize: 0x21C }
  - { offset: 0x27FBA, size: 0x8, addend: 0x0, symName: __RNvNtCs9f3LFPSIp77_4core4char8from_u32Cs2rQdhMmkUY8_5paste, symObjAddr: 0x1C1C, symBinAddr: 0x15530, symSize: 0x20 }
  - { offset: 0x2801C, size: 0x8, addend: 0x0, symName: __RNvNtNtCs9f3LFPSIp77_4core4char7convert8from_u32Cs2rQdhMmkUY8_5paste, symObjAddr: 0x1C3C, symBinAddr: 0x15550, symSize: 0x68 }
  - { offset: 0x280BF, size: 0x8, addend: 0x0, symName: __RNvNvNtNtCs9f3LFPSIp77_4core4char7convert18from_u32_unchecked18precondition_checkCs2rQdhMmkUY8_5paste, symObjAddr: 0x1F50, symBinAddr: 0x15864, symSize: 0x98 }
  - { offset: 0x28144, size: 0x8, addend: 0x0, symName: __RNvXs3_NtNtCs9f3LFPSIp77_4core4char7convertcINtNtB9_7convert4FromhE4fromCs2rQdhMmkUY8_5paste, symObjAddr: 0x2228, symBinAddr: 0x15B3C, symSize: 0x14 }
  - { offset: 0x28177, size: 0x8, addend: 0x0, symName: __RNvXs4_NtCs9f3LFPSIp77_4core4charNtB5_13EscapeDefaultNtNtNtNtB7_4iter6traits8iterator8Iterator4nextCs2rQdhMmkUY8_5paste, symObjAddr: 0x223C, symBinAddr: 0x15B50, symSize: 0x60 }
  - { offset: 0x281DE, size: 0x8, addend: 0x0, symName: __RNvXs4_NtCs9f3LFPSIp77_4core4charNtB5_13EscapeDefaultNtNtNtNtB7_4iter6traits8iterator8Iterator9size_hintCs2rQdhMmkUY8_5paste, symObjAddr: 0x229C, symBinAddr: 0x15BB0, symSize: 0x5C }
  - { offset: 0x282CF, size: 0x8, addend: 0x0, symName: __RNvXsn_NtNtCs9f3LFPSIp77_4core5panic11unwind_safeINtB5_16AssertUnwindSafeNCINvNtNtCsjLJ1XWNSM6u_10proc_macro6bridge6client10run_clientNtB1e_11TokenStreamINtNtB9_6option6OptionB28_ENCNCINvMs7_B1e_INtB1e_6ClientNtB1i_11TokenStreamB3l_E7expand1NvCs2rQdhMmkUY8_5paste4exprE00E0EINtNtNtB9_3ops8function6FnOnceuE9call_onceB3T_, symObjAddr: 0x287C, symBinAddr: 0x16190, symSize: 0x38 }
  - { offset: 0x28326, size: 0x8, addend: 0x0, symName: __RNvXsn_NtNtCs9f3LFPSIp77_4core5panic11unwind_safeINtB5_16AssertUnwindSafeNCINvNtNtCsjLJ1XWNSM6u_10proc_macro6bridge6client10run_clientNtB1e_11TokenStreamINtNtB9_6option6OptionB28_ENCNCINvMs7_B1e_INtB1e_6ClientNtB1i_11TokenStreamB3l_E7expand1NvCs2rQdhMmkUY8_5paste4itemE00E0EINtNtNtB9_3ops8function6FnOnceuE9call_onceB3T_, symObjAddr: 0x28B4, symBinAddr: 0x161C8, symSize: 0x38 }
  - { offset: 0x2837D, size: 0x8, addend: 0x0, symName: __RNvXsn_NtNtCs9f3LFPSIp77_4core5panic11unwind_safeINtB5_16AssertUnwindSafeNCINvNtNtCsjLJ1XWNSM6u_10proc_macro6bridge6client10run_clientNtB1e_11TokenStreamINtNtB9_6option6OptionB28_ENCNCINvMs7_B1e_INtB1e_6ClientNtB1i_11TokenStreamB3l_E7expand1NvCs2rQdhMmkUY8_5paste5pasteE00E0EINtNtNtB9_3ops8function6FnOnceuE9call_onceB3T_, symObjAddr: 0x28EC, symBinAddr: 0x16200, symSize: 0x38 }
  - { offset: 0x284B3, size: 0x8, addend: 0x0, symName: __RNvNvMNtNtCs9f3LFPSIp77_4core5alloc6layoutNtB4_6Layout25from_size_align_unchecked18precondition_checkCs2rQdhMmkUY8_5paste, symObjAddr: 0x1F00, symBinAddr: 0x15814, symSize: 0x50 }
  - { offset: 0x28A9A, size: 0x8, addend: 0x0, symName: __RNvXNtNtCsjLJ1XWNSM6u_10proc_macro6bridge3rpcuINtB2_6EncodeuE6encodeCs2rQdhMmkUY8_5paste, symObjAddr: 0x1FE8, symBinAddr: 0x158FC, symSize: 0x14 }
  - { offset: 0x28AEF, size: 0x8, addend: 0x0, symName: __RNvXs9_NtNtCsjLJ1XWNSM6u_10proc_macro6bridge3rpcTINtB7_11ExpnGlobalsNtNtB7_6client4SpanENtB16_11TokenStreamEINtB5_9DecodeMutuE6decodeCs2rQdhMmkUY8_5paste, symObjAddr: 0x22F8, symBinAddr: 0x15C0C, symSize: 0x84 }
  - { offset: 0x28B7C, size: 0x8, addend: 0x0, symName: __RNvXsa_NtNtCsjLJ1XWNSM6u_10proc_macro6bridge3rpcRShINtB5_6EncodeuE6encodeCs2rQdhMmkUY8_5paste, symObjAddr: 0x2634, symBinAddr: 0x15F48, symSize: 0xD0 }
  - { offset: 0x28C87, size: 0x8, addend: 0x0, symName: __RNvXsc_NtNtCsjLJ1XWNSM6u_10proc_macro6bridge3rpcReINtB5_6EncodeuE6encodeCs2rQdhMmkUY8_5paste, symObjAddr: 0x2704, symBinAddr: 0x16018, symSize: 0x38 }
  - { offset: 0x28D6F, size: 0x8, addend: 0x0, symName: __RNvXsl_NtNtCsjLJ1XWNSM6u_10proc_macro6bridge3rpcNtB5_12PanicMessageINtB5_6EncodeuE6encodeCs2rQdhMmkUY8_5paste, symObjAddr: 0x273C, symBinAddr: 0x16050, symSize: 0x140 }
  - { offset: 0x28FB7, size: 0x8, addend: 0x0, symName: __RNvXso_NtNtCsjLJ1XWNSM6u_10proc_macro6bridge3rpcmINtB5_9DecodeMutuE6decodeCs2rQdhMmkUY8_5paste, symObjAddr: 0x2924, symBinAddr: 0x16238, symSize: 0x114 }
  - { offset: 0x29176, size: 0x8, addend: 0x0, symName: __RNvXs10_NtCsjLJ1XWNSM6u_10proc_macro6bridgeINtB6_9DelimSpanNtNtB6_6client4SpanENtNtCs9f3LFPSIp77_4core5clone5Clone5cloneCs2rQdhMmkUY8_5paste, symObjAddr: 0x2004, symBinAddr: 0x15918, symSize: 0xA0 }
  - { offset: 0x291B3, size: 0x8, addend: 0x0, symName: __RNvXs15_NtCsjLJ1XWNSM6u_10proc_macro6bridgeINtB6_5GroupNtNtB6_6client11TokenStreamNtBT_4SpanENtNtCs9f3LFPSIp77_4core5clone5Clone5cloneCs2rQdhMmkUY8_5paste, symObjAddr: 0x20A4, symBinAddr: 0x159B8, symSize: 0xD4 }
  - { offset: 0x2924B, size: 0x8, addend: 0x0, symName: __RNvXs1J_NtCsjLJ1XWNSM6u_10proc_macro6bridgeINtB6_11ExpnGlobalsNtNtB6_6client4SpanEINtNtB6_3rpc9DecodeMutuE6decodeCs2rQdhMmkUY8_5paste, symObjAddr: 0x2178, symBinAddr: 0x15A8C, symSize: 0xB0 }
  - { offset: 0x29C73, size: 0x8, addend: 0x0, symName: __RNvMNtCs9f3LFPSIp77_4core6escapeINtB2_15EscapeIterInnerKja_E4nextCs2rQdhMmkUY8_5paste, symObjAddr: 0x159C, symBinAddr: 0x14EB0, symSize: 0x144 }
  - { offset: 0x29E2D, size: 0x8, addend: 0x0, symName: __RNvMNtCs9f3LFPSIp77_4core6escapeINtB2_15EscapeIterInnerKja_E9backslashCs2rQdhMmkUY8_5paste, symObjAddr: 0x16E0, symBinAddr: 0x14FF4, symSize: 0x5C }
  - { offset: 0x29FD2, size: 0x8, addend: 0x0, symName: __RNvMsd_NtCs9f3LFPSIp77_4core4charNtB5_15CaseMappingIter3newCs2rQdhMmkUY8_5paste, symObjAddr: 0x1B3C, symBinAddr: 0x15450, symSize: 0xE0 }
  - { offset: 0x2A59F, size: 0x8, addend: 0x0, symName: __RINvMNtCs9f3LFPSIp77_4core6optionINtB3_6OptionIBw_NtCsjLJ1XWNSM6u_10proc_macro9TokenTreeEE18get_or_insert_withNCNvMs3_NtNtNtB5_4iter8adapters8peekableINtB1S_8PeekableNtNtBO_12token_stream8IntoIterE4peek0ECs2rQdhMmkUY8_5paste, symObjAddr: 0x0, symBinAddr: 0x163FC, symSize: 0x138 }
  - { offset: 0x2A770, size: 0x8, addend: 0x0, symName: __RINvNtNtNtCsjLJ1XWNSM6u_10proc_macro6bridge6client5state3setINtNtCs9f3LFPSIp77_4core6option6OptionNtB4_11TokenStreamENCNCINvB4_10run_clientB1y_BW_NCNCINvMs7_B4_INtB4_6ClientNtB8_11TokenStreamB2L_E7expand1NvCs2rQdhMmkUY8_5paste4exprE00E00EB3i_, symObjAddr: 0xA78, symBinAddr: 0x16E74, symSize: 0x128 }
  - { offset: 0x2A864, size: 0x8, addend: 0x0, symName: __RINvNtNtNtCsjLJ1XWNSM6u_10proc_macro6bridge6client5state3setINtNtCs9f3LFPSIp77_4core6option6OptionNtB4_11TokenStreamENCNCINvB4_10run_clientB1y_BW_NCNCINvMs7_B4_INtB4_6ClientNtB8_11TokenStreamB2L_E7expand1NvCs2rQdhMmkUY8_5paste4itemE00E00EB3i_, symObjAddr: 0xBA0, symBinAddr: 0x16F9C, symSize: 0x128 }
  - { offset: 0x2A958, size: 0x8, addend: 0x0, symName: __RINvNtNtNtCsjLJ1XWNSM6u_10proc_macro6bridge6client5state3setINtNtCs9f3LFPSIp77_4core6option6OptionNtB4_11TokenStreamENCNCINvB4_10run_clientB1y_BW_NCNCINvMs7_B4_INtB4_6ClientNtB8_11TokenStreamB2L_E7expand1NvCs2rQdhMmkUY8_5paste5pasteE00E00EB3i_, symObjAddr: 0xCC8, symBinAddr: 0x170C4, symSize: 0x128 }
  - { offset: 0x2AA56, size: 0x8, addend: 0x0, symName: __RNCNkNvNtNtNtCsjLJ1XWNSM6u_10proc_macro6bridge6client5state12BRIDGE_STATE0s_0Cs2rQdhMmkUY8_5paste, symObjAddr: 0x11C4, symBinAddr: 0x175C0, symSize: 0x34 }
  - { offset: 0x2AFBD, size: 0x8, addend: 0x0, symName: __RINvNvNtNtCsjLJ1XWNSM6u_10proc_macro6bridge14selfless_reify31reify_to_extern_c_fn_hrt_bridge7wrapperNtNtB6_6buffer6BufferNCINvMs7_NtB6_6clientINtB24_6ClientNtB8_11TokenStreamB2u_E7expand1NvCs2rQdhMmkUY8_5paste4exprE0EB31_, symObjAddr: 0xDF0, symBinAddr: 0x171EC, symSize: 0x4C }
  - { offset: 0x2B018, size: 0x8, addend: 0x0, symName: __RINvNvNtNtCsjLJ1XWNSM6u_10proc_macro6bridge14selfless_reify31reify_to_extern_c_fn_hrt_bridge7wrapperNtNtB6_6buffer6BufferNCINvMs7_NtB6_6clientINtB24_6ClientNtB8_11TokenStreamB2u_E7expand1NvCs2rQdhMmkUY8_5paste4itemE0EB31_, symObjAddr: 0xE3C, symBinAddr: 0x17238, symSize: 0x4C }
  - { offset: 0x2B073, size: 0x8, addend: 0x0, symName: __RINvNvNtNtCsjLJ1XWNSM6u_10proc_macro6bridge14selfless_reify31reify_to_extern_c_fn_hrt_bridge7wrapperNtNtB6_6buffer6BufferNCINvMs7_NtB6_6clientINtB24_6ClientNtB8_11TokenStreamB2u_E7expand1NvCs2rQdhMmkUY8_5paste5pasteE0EB31_, symObjAddr: 0xE88, symBinAddr: 0x17284, symSize: 0x4C }
  - { offset: 0x2B139, size: 0x8, addend: 0x0, symName: __RNvXsR_NtCsjLJ1XWNSM6u_10proc_macro6bridgeINtNtCs9f3LFPSIp77_4core6option6OptionNtNtB5_6client11TokenStreamEINtNtB5_3rpc6EncodeuE6encodeCs2rQdhMmkUY8_5paste, symObjAddr: 0x2100, symBinAddr: 0x184FC, symSize: 0xCC }
  - { offset: 0x2B1DD, size: 0x8, addend: 0x0, symName: __RNvXsR_NtCsjLJ1XWNSM6u_10proc_macro6bridgeINtNtCs9f3LFPSIp77_4core6option6OptionReEINtNtB5_3rpc6EncodeuE6encodeCs2rQdhMmkUY8_5paste, symObjAddr: 0x21CC, symBinAddr: 0x185C8, symSize: 0xD8 }
  - { offset: 0x2B5D7, size: 0x8, addend: 0x0, symName: __RNvXs1p_NtNtCs9f3LFPSIp77_4core3fmt3numjNtB8_5Debug3fmtCs2rQdhMmkUY8_5paste, symObjAddr: 0x16CC, symBinAddr: 0x17AC8, symSize: 0x90 }
  - { offset: 0x2B652, size: 0x8, addend: 0x0, symName: __RNvXsP_NtCs9f3LFPSIp77_4core3fmtRINtNtB7_6option6OptionjENtB5_5Debug3fmtCs2rQdhMmkUY8_5paste, symObjAddr: 0x20D0, symBinAddr: 0x184CC, symSize: 0x30 }
  - { offset: 0x2BCC7, size: 0x8, addend: 0x0, symName: __RNvXsB_NtCs9f3LFPSIp77_4core6optionINtB5_6OptionjENtNtNtB7_3ops9try_trait3Try11from_outputCs2rQdhMmkUY8_5paste, symObjAddr: 0x1FB4, symBinAddr: 0x183B0, symSize: 0x24 }
  - { offset: 0x2BCFE, size: 0x8, addend: 0x0, symName: __RNvXsB_NtCs9f3LFPSIp77_4core6optionINtB5_6OptionjENtNtNtB7_3ops9try_trait3Try6branchCs2rQdhMmkUY8_5paste, symObjAddr: 0x1FD8, symBinAddr: 0x183D4, symSize: 0x48 }
  - { offset: 0x2BE5A, size: 0x8, addend: 0x0, symName: __RNvXsC_NtCs9f3LFPSIp77_4core6optionINtB5_6OptionjEINtNtNtB7_3ops9try_trait12FromResidualIBy_NtNtB7_7convert10InfallibleEE13from_residualCs2rQdhMmkUY8_5paste, symObjAddr: 0x2020, symBinAddr: 0x1841C, symSize: 0x18 }
  - { offset: 0x2C194, size: 0x8, addend: 0x0, symName: __RNvXsI_NtCs9f3LFPSIp77_4core6optionINtB5_6OptionjENtNtB7_3fmt5Debug3fmtCs2rQdhMmkUY8_5paste, symObjAddr: 0x2038, symBinAddr: 0x18434, symSize: 0x98 }
  - { offset: 0x2C622, size: 0x8, addend: 0x0, symName: __RINvNtNtNtCs9f3LFPSIp77_4core4iter7sources4once4onceNtCsjLJ1XWNSM6u_10proc_macro9TokenTreeECs2rQdhMmkUY8_5paste, symObjAddr: 0xA28, symBinAddr: 0x16E24, symSize: 0x50 }
  - { offset: 0x2C679, size: 0x8, addend: 0x0, symName: __RNvXNtNtNtCs9f3LFPSIp77_4core4iter7sources4onceINtB2_4OnceNtCsjLJ1XWNSM6u_10proc_macro9TokenTreeENtNtNtB6_6traits8iterator8Iterator4nextCs2rQdhMmkUY8_5paste, symObjAddr: 0x145C, symBinAddr: 0x17858, symSize: 0x58 }
  - { offset: 0x2C787, size: 0x8, addend: 0x0, symName: __RNvXNtNtNtCs9f3LFPSIp77_4core4iter7sources4onceINtB2_4OnceNtCsjLJ1XWNSM6u_10proc_macro9TokenTreeENtNtNtB6_6traits8iterator8Iterator9size_hintCs2rQdhMmkUY8_5paste, symObjAddr: 0x14B4, symBinAddr: 0x178B0, symSize: 0x64 }
  - { offset: 0x2C88F, size: 0x8, addend: 0x0, symName: __RINvYINtNtNtNtCs9f3LFPSIp77_4core4iter7sources4once4OnceNtCsjLJ1XWNSM6u_10proc_macro9TokenTreeENtNtNtBa_6traits8iterator8Iterator4folduNCINvNvB1v_8for_each4callBS_NCINvXsh_BU_NtBU_11TokenStreamINtNtB1z_7collect12FromIteratorBS_E9from_iterINtNtNtBa_8adapters5chain5ChainINtNtB3T_4take4TakeNtNtBU_12token_stream8IntoIterEB3_EE0E0ECs2rQdhMmkUY8_5paste, symObjAddr: 0xF88, symBinAddr: 0x17384, symSize: 0x10C }
  - { offset: 0x2C91E, size: 0x8, addend: 0x0, symName: __RINvYINtNtNtNtCs9f3LFPSIp77_4core4iter7sources4once4OnceNtCsjLJ1XWNSM6u_10proc_macro9TokenTreeENtNtNtBa_6traits8iterator8Iterator4folduNCINvNvB1v_8for_each4callBS_NCINvXsj_BU_NtBU_11TokenStreamINtNtB1z_7collect6ExtendBS_E6extendB3_E0E0ECs2rQdhMmkUY8_5paste, symObjAddr: 0x1094, symBinAddr: 0x17490, symSize: 0x10C }
  - { offset: 0x2C9AD, size: 0x8, addend: 0x0, symName: __RINvYINtNtNtNtCs9f3LFPSIp77_4core4iter7sources4once4OnceNtCsjLJ1XWNSM6u_10proc_macro9TokenTreeENtNtNtBa_6traits8iterator8Iterator8for_eachNCINvXsj_BU_NtBU_11TokenStreamINtNtB1z_7collect6ExtendBS_E6extendB3_E0ECs2rQdhMmkUY8_5paste, symObjAddr: 0x11A0, symBinAddr: 0x1759C, symSize: 0x24 }
  - { offset: 0x2CA68, size: 0x8, addend: 0x0, symName: __RNvXs_NtNtNtCs9f3LFPSIp77_4core4iter6traits7collectINtNtNtB8_7sources4once4OnceNtCsjLJ1XWNSM6u_10proc_macro9TokenTreeENtB4_12IntoIterator9into_iterCs2rQdhMmkUY8_5paste, symObjAddr: 0x2308, symBinAddr: 0x18704, symSize: 0x18 }
  - { offset: 0x2CAAC, size: 0x8, addend: 0x0, symName: __RNvXsx_NtNtCs9f3LFPSIp77_4core4iter5rangehNtB5_4Step17forward_uncheckedCs2rQdhMmkUY8_5paste, symObjAddr: 0x2320, symBinAddr: 0x1871C, symSize: 0x54 }
  - { offset: 0x2D88C, size: 0x8, addend: 0x0, symName: __RNvNvXs5_NtNtCs9f3LFPSIp77_4core3str6traitsINtNtNtBb_3ops5range5RangejEINtNtNtBb_5slice5index10SliceIndexeE13get_unchecked18precondition_checkCs2rQdhMmkUY8_5paste, symObjAddr: 0x13FC, symBinAddr: 0x177F8, symSize: 0x60 }
  - { offset: 0x2D915, size: 0x8, addend: 0x0, symName: __RNvXs5_NtNtCs9f3LFPSIp77_4core3str6traitsINtNtNtB9_3ops5range5RangejEINtNtNtB9_5slice5index10SliceIndexeE3getCs2rQdhMmkUY8_5paste, symObjAddr: 0x1AF4, symBinAddr: 0x17EF0, symSize: 0x1D0 }
  - { offset: 0x2DBB8, size: 0x8, addend: 0x0, symName: __RNvXs5_NtNtCs9f3LFPSIp77_4core3str6traitsINtNtNtB9_3ops5range5RangejEINtNtNtB9_5slice5index10SliceIndexeE5indexCs2rQdhMmkUY8_5paste, symObjAddr: 0x1CC4, symBinAddr: 0x180C0, symSize: 0x90 }
  - { offset: 0x2DC69, size: 0x8, addend: 0x0, symName: __RNvXs4_NtNtCs9f3LFPSIp77_4core3str6traitsNtNtNtB9_3ops5range9RangeFullINtNtNtB9_5slice5index10SliceIndexeE5indexCs2rQdhMmkUY8_5paste, symObjAddr: 0x1ADC, symBinAddr: 0x17ED8, symSize: 0x18 }
  - { offset: 0x2DCED, size: 0x8, addend: 0x0, symName: __RNvXs9_NtNtCs9f3LFPSIp77_4core3str6traitsINtNtNtB9_3ops5range9RangeFromjEINtNtNtB9_5slice5index10SliceIndexeE3getCs2rQdhMmkUY8_5paste, symObjAddr: 0x1DFC, symBinAddr: 0x181F8, symSize: 0x130 }
  - { offset: 0x2DF0A, size: 0x8, addend: 0x0, symName: __RNvXs9_NtNtCs9f3LFPSIp77_4core3str6traitsINtNtNtB9_3ops5range9RangeFromjEINtNtNtB9_5slice5index10SliceIndexeE5indexCs2rQdhMmkUY8_5paste, symObjAddr: 0x1F2C, symBinAddr: 0x18328, symSize: 0x88 }
  - { offset: 0x2DF99, size: 0x8, addend: 0x0, symName: __RNvXs_NtNtCs9f3LFPSIp77_4core3str6traitseNtNtB8_3cmp9PartialEq2eqCs2rQdhMmkUY8_5paste, symObjAddr: 0x22A4, symBinAddr: 0x186A0, symSize: 0x64 }
  - { offset: 0x2E0AD, size: 0x8, addend: 0x0, symName: __RINvNtNtCs9f3LFPSIp77_4core3str11validations15next_code_pointINtNtNtB6_5slice4iter4IterhEECs2rQdhMmkUY8_5paste, symObjAddr: 0x81C, symBinAddr: 0x16C18, symSize: 0x20C }
  - { offset: 0x2E4FE, size: 0x8, addend: 0x0, symName: __RNvXs0_NtNtCs9f3LFPSIp77_4core3ops11index_rangeNtB5_10IndexRangeNtNtNtNtB9_4iter6traits12double_ended19DoubleEndedIterator9next_backCs2rQdhMmkUY8_5paste, symObjAddr: 0x1518, symBinAddr: 0x17914, symSize: 0xEC }
  - { offset: 0x2E6B3, size: 0x8, addend: 0x0, symName: __RINvXs2U_NtNtCs9f3LFPSIp77_4core5slice4iterINtB7_4ItercENtNtNtNtBb_4iter6traits8iterator8Iterator3anyNCNvXs6_NtNtBb_3str7patternRScNtB1J_11MultiCharEq7matches0ECs2rQdhMmkUY8_5paste, symObjAddr: 0xED4, symBinAddr: 0x172D0, symSize: 0xB4 }
  - { offset: 0x2E718, size: 0x8, addend: 0x0, symName: __RNvXs2U_NtNtCs9f3LFPSIp77_4core5slice4iterINtB6_4IterNtNtCs2rQdhMmkUY8_5paste7segment7SegmentENtNtNtNtBa_4iter6traits8iterator8Iterator4nextBT_, symObjAddr: 0x175C, symBinAddr: 0x17B58, symSize: 0xCC }
  - { offset: 0x2E879, size: 0x8, addend: 0x0, symName: __RNvXs2U_NtNtCs9f3LFPSIp77_4core5slice4iterINtB6_4ItercENtNtNtNtBa_4iter6traits8iterator8Iterator4nextCs2rQdhMmkUY8_5paste, symObjAddr: 0x1828, symBinAddr: 0x17C24, symSize: 0xCC }
  - { offset: 0x2E9DA, size: 0x8, addend: 0x0, symName: __RNvXs2U_NtNtCs9f3LFPSIp77_4core5slice4iterINtB6_4IterhENtNtNtNtBa_4iter6traits8iterator8Iterator4nextCs2rQdhMmkUY8_5paste, symObjAddr: 0x18F4, symBinAddr: 0x17CF0, symSize: 0xCC }
  - { offset: 0x2ECF4, size: 0x8, addend: 0x0, symName: __RNvXs32_NtNtCs9f3LFPSIp77_4core5slice4iterINtB6_7IterMutNtNtCs2rQdhMmkUY8_5paste7segment7SegmentENtNtNtNtBa_4iter6traits8iterator8Iterator4nextBW_, symObjAddr: 0x1A10, symBinAddr: 0x17E0C, symSize: 0xCC }
  - { offset: 0x2EFA5, size: 0x8, addend: 0x0, symName: __RNvXs1_NtNtCs9f3LFPSIp77_4core5slice5indexNtNtNtB9_3ops11index_range10IndexRangeINtB5_10SliceIndexSINtNtNtB9_3mem12maybe_uninit11MaybeUninitcEE17get_unchecked_mutCs2rQdhMmkUY8_5paste, symObjAddr: 0x1604, symBinAddr: 0x17A00, symSize: 0xC8 }
  - { offset: 0x2F227, size: 0x8, addend: 0x0, symName: __RNvXs5_NtNtCs9f3LFPSIp77_4core5slice5indexINtNtNtB9_3ops5range9RangeFromjEINtB5_10SliceIndexShE5indexCs2rQdhMmkUY8_5paste, symObjAddr: 0x1D54, symBinAddr: 0x18150, symSize: 0x90 }
  - { offset: 0x2F3BB, size: 0x8, addend: 0x0, symName: __RNvXs7_NtNtCs9f3LFPSIp77_4core5slice5indexNtNtNtB9_3ops5range9RangeFullINtB5_10SliceIndexScE5indexCs2rQdhMmkUY8_5paste, symObjAddr: 0x1DE4, symBinAddr: 0x181E0, symSize: 0x18 }
  - { offset: 0x2F572, size: 0x8, addend: 0x0, symName: __RNvNvNtCs9f3LFPSIp77_4core9ub_checks17is_nonoverlapping7runtimeCs2rQdhMmkUY8_5paste, symObjAddr: 0x1318, symBinAddr: 0x17714, symSize: 0xE4 }
  - { offset: 0x2FB6D, size: 0x8, addend: 0x0, symName: __RINvMs3_NtCsdze8u8oDPro_5alloc3stre7replacecECs2rQdhMmkUY8_5paste, symObjAddr: 0x2AC, symBinAddr: 0x166A8, symSize: 0x50C }
  - { offset: 0x3084E, size: 0x8, addend: 0x0, symName: __RNvXs2_NtCsdze8u8oDPro_5alloc3streNtNtB7_6borrow7ToOwned8to_ownedCs2rQdhMmkUY8_5paste, symObjAddr: 0x19C0, symBinAddr: 0x17DBC, symSize: 0x50 }
  - { offset: 0x30A26, size: 0x8, addend: 0x0, symName: __RINvMNtCs9f3LFPSIp77_4core6optionINtB3_6OptionIBw_NtCsjLJ1XWNSM6u_10proc_macro9TokenTreeEE18get_or_insert_withNCNvMs3_NtNtNtB5_4iter8adapters8peekableINtB1S_8PeekableNtNtBO_12token_stream8IntoIterE4peek0ECs2rQdhMmkUY8_5paste, symObjAddr: 0x0, symBinAddr: 0x163FC, symSize: 0x138 }
  - { offset: 0x30AE6, size: 0x8, addend: 0x0, symName: __RINvMNtCs9f3LFPSIp77_4core6optionINtB3_6OptionRNtCsjLJ1XWNSM6u_10proc_macro9TokenTreeE6map_orNtBL_4SpanNvMsv_BL_BJ_4spanECs2rQdhMmkUY8_5paste, symObjAddr: 0x138, symBinAddr: 0x16534, symSize: 0xA8 }
  - { offset: 0x30C8C, size: 0x8, addend: 0x0, symName: __RINvMNtCs9f3LFPSIp77_4core6optionINtB3_6OptionReE11map_or_elseNtNtCsdze8u8oDPro_5alloc6string6StringNCNvNtB12_3fmt6format0NvYeNtNtB12_6borrow7ToOwned8to_ownedECs2rQdhMmkUY8_5paste, symObjAddr: 0x1E0, symBinAddr: 0x165DC, symSize: 0xCC }
  - { offset: 0x310CB, size: 0x8, addend: 0x0, symName: __RINvNtCs27l1GJC5rMQ_3std3env3varRNtNtCsdze8u8oDPro_5alloc6string6StringECs2rQdhMmkUY8_5paste, symObjAddr: 0x7B8, symBinAddr: 0x16BB4, symSize: 0x64 }
  - { offset: 0x3148C, size: 0x8, addend: 0x0, symName: __RNvMNtCs9f3LFPSIp77_4core6optionINtB2_6OptionNtCsjLJ1XWNSM6u_10proc_macro5GroupE4takeCs2rQdhMmkUY8_5paste, symObjAddr: 0x11F8, symBinAddr: 0x175F4, symSize: 0x40 }
  - { offset: 0x31545, size: 0x8, addend: 0x0, symName: __RNvMNtCs9f3LFPSIp77_4core6optionINtB2_6OptionNtCsjLJ1XWNSM6u_10proc_macro9TokenTreeE6as_refCs2rQdhMmkUY8_5paste, symObjAddr: 0x1238, symBinAddr: 0x17634, symSize: 0x4C }
  - { offset: 0x315AB, size: 0x8, addend: 0x0, symName: __RNvMNtCs9f3LFPSIp77_4core6optionINtB2_6OptionNtCsjLJ1XWNSM6u_10proc_macro9TokenTreeE7is_noneCs2rQdhMmkUY8_5paste, symObjAddr: 0x1284, symBinAddr: 0x17680, symSize: 0x4C }
  - { offset: 0x315F5, size: 0x8, addend: 0x0, symName: __RNvMNtCs9f3LFPSIp77_4core6optionINtB2_6OptionNtCsjLJ1XWNSM6u_10proc_macro9TokenTreeE7is_someCs2rQdhMmkUY8_5paste, symObjAddr: 0x12D0, symBinAddr: 0x176CC, symSize: 0x48 }
  - { offset: 0x31DA3, size: 0x8, addend: 0x0, symName: __RINvMNtCsdze8u8oDPro_5alloc5sliceSNtCsjLJ1XWNSM6u_10proc_macro9TokenTree8into_vecNtNtB5_5alloc6GlobalECs2rQdhMmkUY8_5paste, symObjAddr: 0x0, symBinAddr: 0x18770, symSize: 0x28 }
  - { offset: 0x32749, size: 0x8, addend: 0x0, symName: __RINvXsh_CsjLJ1XWNSM6u_10proc_macroNtB6_11TokenStreamINtNtNtNtCs9f3LFPSIp77_4core4iter6traits7collect12FromIteratorNtB6_9TokenTreeE9from_iterINtNtCsdze8u8oDPro_5alloc3vec3VecB1O_EECs2rQdhMmkUY8_5paste, symObjAddr: 0x1BB8, symBinAddr: 0x1A328, symSize: 0xFC }
  - { offset: 0x327AD, size: 0x8, addend: 0x0, symName: __RINvXsh_CsjLJ1XWNSM6u_10proc_macroNtB6_11TokenStreamINtNtNtNtCs9f3LFPSIp77_4core4iter6traits7collect12FromIteratorNtB6_9TokenTreeE9from_iterINtNtNtBV_8adapters5chain5ChainINtNtB2j_4take4TakeNtNtB6_12token_stream8IntoIterEINtNtNtBV_7sources4once4OnceB1O_EEECs2rQdhMmkUY8_5paste, symObjAddr: 0x1CB4, symBinAddr: 0x1A424, symSize: 0x10C }
  - { offset: 0x32817, size: 0x8, addend: 0x0, symName: __RNCINvXsh_CsjLJ1XWNSM6u_10proc_macroNtB8_11TokenStreamINtNtNtNtCs9f3LFPSIp77_4core4iter6traits7collect12FromIteratorNtB8_9TokenTreeE9from_iterINtNtCsdze8u8oDPro_5alloc3vec3VecB1Q_EE0Cs2rQdhMmkUY8_5paste, symObjAddr: 0x22DC, symBinAddr: 0x1AA4C, symSize: 0x28 }
  - { offset: 0x3285D, size: 0x8, addend: 0x0, symName: __RNCINvXsh_CsjLJ1XWNSM6u_10proc_macroNtB8_11TokenStreamINtNtNtNtCs9f3LFPSIp77_4core4iter6traits7collect12FromIteratorNtB8_9TokenTreeE9from_iterINtNtNtBX_8adapters5chain5ChainINtNtB2l_4take4TakeNtNtB8_12token_stream8IntoIterEINtNtNtBX_7sources4once4OnceB1Q_EEE0Cs2rQdhMmkUY8_5paste, symObjAddr: 0x2304, symBinAddr: 0x1AA74, symSize: 0x28 }
  - { offset: 0x328D0, size: 0x8, addend: 0x0, symName: __RINvXsj_CsjLJ1XWNSM6u_10proc_macroNtB6_11TokenStreamINtNtNtNtCs9f3LFPSIp77_4core4iter6traits7collect6ExtendNtB6_9TokenTreeE6extendBw_ECs2rQdhMmkUY8_5paste, symObjAddr: 0x1DC0, symBinAddr: 0x1A530, symSize: 0x10C }
  - { offset: 0x3293E, size: 0x8, addend: 0x0, symName: __RINvXsj_CsjLJ1XWNSM6u_10proc_macroNtB6_11TokenStreamINtNtNtNtCs9f3LFPSIp77_4core4iter6traits7collect6ExtendNtB6_9TokenTreeE6extendINtNtNtBV_7sources4once4OnceB1H_EECs2rQdhMmkUY8_5paste, symObjAddr: 0x1ECC, symBinAddr: 0x1A63C, symSize: 0x11C }
  - { offset: 0x329AC, size: 0x8, addend: 0x0, symName: __RINvXsj_CsjLJ1XWNSM6u_10proc_macroNtB6_11TokenStreamINtNtNtNtCs9f3LFPSIp77_4core4iter6traits7collect6ExtendNtB6_9TokenTreeE6extendINtNtNtBV_8adapters4take4TakeQINtNtB29_8peekable8PeekableNtNtB6_12token_stream8IntoIterEEECs2rQdhMmkUY8_5paste, symObjAddr: 0x1FE8, symBinAddr: 0x1A758, symSize: 0x108 }
  - { offset: 0x32A1F, size: 0x8, addend: 0x0, symName: __RNCINvXsj_CsjLJ1XWNSM6u_10proc_macroNtB8_11TokenStreamINtNtNtNtCs9f3LFPSIp77_4core4iter6traits7collect6ExtendNtB8_9TokenTreeE6extendBy_E0Cs2rQdhMmkUY8_5paste, symObjAddr: 0x232C, symBinAddr: 0x1AA9C, symSize: 0x28 }
  - { offset: 0x32A65, size: 0x8, addend: 0x0, symName: __RNCINvXsj_CsjLJ1XWNSM6u_10proc_macroNtB8_11TokenStreamINtNtNtNtCs9f3LFPSIp77_4core4iter6traits7collect6ExtendNtB8_9TokenTreeE6extendINtNtNtBX_7sources4once4OnceB1J_EE0Cs2rQdhMmkUY8_5paste, symObjAddr: 0x2354, symBinAddr: 0x1AAC4, symSize: 0x28 }
  - { offset: 0x32AAB, size: 0x8, addend: 0x0, symName: __RNCINvXsj_CsjLJ1XWNSM6u_10proc_macroNtB8_11TokenStreamINtNtNtNtCs9f3LFPSIp77_4core4iter6traits7collect6ExtendNtB8_9TokenTreeE6extendINtNtNtBX_8adapters4take4TakeQINtNtB2b_8peekable8PeekableNtNtB8_12token_stream8IntoIterEEE0Cs2rQdhMmkUY8_5paste, symObjAddr: 0x237C, symBinAddr: 0x1AAEC, symSize: 0x28 }
  - { offset: 0x32B4C, size: 0x8, addend: 0x0, symName: __RNvXs10_CsjLJ1XWNSM6u_10proc_macroNtB6_11TokenStreamNtNtCs9f3LFPSIp77_4core5clone5Clone5cloneCs2rQdhMmkUY8_5paste, symObjAddr: 0x2D10, symBinAddr: 0x1B480, symSize: 0x64 }
  - { offset: 0x32BB1, size: 0x8, addend: 0x0, symName: __RNvXs11_CsjLJ1XWNSM6u_10proc_macroNtB6_8LexErrorNtNtCs9f3LFPSIp77_4core3fmt5Debug3fmtCs2rQdhMmkUY8_5paste, symObjAddr: 0x2D74, symBinAddr: 0x1B4E4, symSize: 0x40 }
  - { offset: 0x32BF1, size: 0x8, addend: 0x0, symName: __RNvXs17_CsjLJ1XWNSM6u_10proc_macroNtB6_5GroupNtNtCs9f3LFPSIp77_4core5clone5Clone5cloneCs2rQdhMmkUY8_5paste, symObjAddr: 0x2DB4, symBinAddr: 0x1B524, symSize: 0x40 }
  - { offset: 0x32C25, size: 0x8, addend: 0x0, symName: __RNvXs1c_CsjLJ1XWNSM6u_10proc_macroNtB6_9DelimiterNtNtCs9f3LFPSIp77_4core3cmp9PartialEq2eqCs2rQdhMmkUY8_5paste, symObjAddr: 0x2E44, symBinAddr: 0x1B5B4, symSize: 0x34 }
  - { offset: 0x32CA4, size: 0x8, addend: 0x0, symName: __RNvXs1j_CsjLJ1XWNSM6u_10proc_macroNtB6_7SpacingNtNtCs9f3LFPSIp77_4core3cmp9PartialEq2eqCs2rQdhMmkUY8_5paste, symObjAddr: 0x2E78, symBinAddr: 0x1B5E8, symSize: 0x3C }
  - { offset: 0x32F91, size: 0x8, addend: 0x0, symName: __RNvXsP_NtCs9f3LFPSIp77_4core3fmtRjNtB5_5Debug3fmtCs2rQdhMmkUY8_5paste, symObjAddr: 0x3338, symBinAddr: 0x1BAA8, symSize: 0x30 }
  - { offset: 0x32FD7, size: 0x8, addend: 0x0, symName: __RNvXsP_NtCs9f3LFPSIp77_4core3fmtRuNtB5_5Debug3fmtCs2rQdhMmkUY8_5paste, symObjAddr: 0x3368, symBinAddr: 0x1BAD8, symSize: 0x30 }
  - { offset: 0x33023, size: 0x8, addend: 0x0, symName: __RNvXsp_NtCs9f3LFPSIp77_4core3fmtuNtB5_5Debug3fmtCs2rQdhMmkUY8_5paste, symObjAddr: 0x38EC, symBinAddr: 0x1C05C, symSize: 0x40 }
  - { offset: 0x334B2, size: 0x8, addend: 0x0, symName: __RNvNvMs1_NtNtCs9f3LFPSIp77_4core3ptr8non_nullINtB7_7NonNullpE13new_unchecked18precondition_checkCs2rQdhMmkUY8_5paste, symObjAddr: 0x2BB4, symBinAddr: 0x1B324, symSize: 0x40 }
  - { offset: 0x33A38, size: 0x8, addend: 0x0, symName: __RINvNtCs9f3LFPSIp77_4core3ptr13drop_in_placeDNtNtB4_3any3AnyNtNtB4_6marker4SendEL_ECs2rQdhMmkUY8_5paste, symObjAddr: 0x104, symBinAddr: 0x18874, symSize: 0x48 }
  - { offset: 0x33A67, size: 0x8, addend: 0x0, symName: __RINvNtCs9f3LFPSIp77_4core3ptr13drop_in_placeDNtNtB4_5error5ErrorNtNtB4_6marker4SendNtB12_4SyncEL_ECs2rQdhMmkUY8_5paste, symObjAddr: 0x14C, symBinAddr: 0x188BC, symSize: 0x48 }
  - { offset: 0x33A96, size: 0x8, addend: 0x0, symName: __RINvNtCs9f3LFPSIp77_4core3ptr13drop_in_placeINtNtB4_4cell10UnsafeCellNtNtNtCsjLJ1XWNSM6u_10proc_macro6bridge6client6BridgeEECs2rQdhMmkUY8_5paste, symObjAddr: 0x194, symBinAddr: 0x18904, symSize: 0x24 }
  - { offset: 0x33AC5, size: 0x8, addend: 0x0, symName: __RINvNtCs9f3LFPSIp77_4core3ptr13drop_in_placeINtNtB4_4cell7RefCellNtNtNtCsjLJ1XWNSM6u_10proc_macro6bridge6client6BridgeEECs2rQdhMmkUY8_5paste, symObjAddr: 0x1B8, symBinAddr: 0x18928, symSize: 0x24 }
  - { offset: 0x33AF4, size: 0x8, addend: 0x0, symName: __RINvNtCs9f3LFPSIp77_4core3ptr13drop_in_placeINtNtB4_6option4ItemNtCsjLJ1XWNSM6u_10proc_macro9TokenTreeEECs2rQdhMmkUY8_5paste, symObjAddr: 0x1DC, symBinAddr: 0x1894C, symSize: 0x24 }
  - { offset: 0x33B23, size: 0x8, addend: 0x0, symName: __RINvNtCs9f3LFPSIp77_4core3ptr13drop_in_placeINtNtB4_6option6OptionIBH_NtCsjLJ1XWNSM6u_10proc_macro9TokenTreeEEECs2rQdhMmkUY8_5paste, symObjAddr: 0x200, symBinAddr: 0x18970, symSize: 0x44 }
  - { offset: 0x33B52, size: 0x8, addend: 0x0, symName: __RINvNtCs9f3LFPSIp77_4core3ptr13drop_in_placeINtNtB4_6option6OptionINtNtNtNtB4_4iter7sources4once4OnceNtCsjLJ1XWNSM6u_10proc_macro9TokenTreeEEECs2rQdhMmkUY8_5paste, symObjAddr: 0x244, symBinAddr: 0x189B4, symSize: 0x44 }
  - { offset: 0x33B81, size: 0x8, addend: 0x0, symName: __RINvNtCs9f3LFPSIp77_4core3ptr13drop_in_placeINtNtB4_6option6OptionINtNtNtNtB4_4iter8adapters4take4TakeNtNtCsjLJ1XWNSM6u_10proc_macro12token_stream8IntoIterEEECs2rQdhMmkUY8_5paste, symObjAddr: 0x288, symBinAddr: 0x189F8, symSize: 0x44 }
  - { offset: 0x33BB0, size: 0x8, addend: 0x0, symName: __RINvNtCs9f3LFPSIp77_4core3ptr13drop_in_placeINtNtB4_6option6OptionNtCsjLJ1XWNSM6u_10proc_macro5GroupEECs2rQdhMmkUY8_5paste, symObjAddr: 0x2CC, symBinAddr: 0x18A3C, symSize: 0x44 }
  - { offset: 0x33BDF, size: 0x8, addend: 0x0, symName: __RINvNtCs9f3LFPSIp77_4core3ptr13drop_in_placeINtNtB4_6option6OptionNtCsjLJ1XWNSM6u_10proc_macro9TokenTreeEECs2rQdhMmkUY8_5paste, symObjAddr: 0x310, symBinAddr: 0x18A80, symSize: 0x44 }
  - { offset: 0x33C0E, size: 0x8, addend: 0x0, symName: __RINvNtCs9f3LFPSIp77_4core3ptr13drop_in_placeINtNtB4_6option6OptionNtNtNtCsjLJ1XWNSM6u_10proc_macro6bridge6client11TokenStreamEECs2rQdhMmkUY8_5paste, symObjAddr: 0x354, symBinAddr: 0x18AC4, symSize: 0x44 }
  - { offset: 0x33C3D, size: 0x8, addend: 0x0, symName: __RINvNtCs9f3LFPSIp77_4core3ptr13drop_in_placeINtNtB4_6option8IntoIterNtCsjLJ1XWNSM6u_10proc_macro9TokenTreeEECs2rQdhMmkUY8_5paste, symObjAddr: 0x398, symBinAddr: 0x18B08, symSize: 0x24 }
  - { offset: 0x33C6C, size: 0x8, addend: 0x0, symName: __RINvNtCs9f3LFPSIp77_4core3ptr13drop_in_placeINtNtB4_6result6ResultIBH_NtCsjLJ1XWNSM6u_10proc_macro7LiteralNtB18_8LexErrorEINtNtCsdze8u8oDPro_5alloc5boxed3BoxDNtNtB4_3any3AnyNtNtB4_6marker4SendEL_EEECs2rQdhMmkUY8_5paste, symObjAddr: 0x3BC, symBinAddr: 0x18B2C, symSize: 0x40 }
  - { offset: 0x33C9B, size: 0x8, addend: 0x0, symName: __RINvNtCs9f3LFPSIp77_4core3ptr13drop_in_placeINtNtB4_6result6ResultNtCsjLJ1XWNSM6u_10proc_macro5IdentINtNtCsdze8u8oDPro_5alloc5boxed3BoxDNtNtB4_3any3AnyNtNtB4_6marker4SendEL_EEECs2rQdhMmkUY8_5paste, symObjAddr: 0x3FC, symBinAddr: 0x18B6C, symSize: 0x40 }
  - { offset: 0x33CCA, size: 0x8, addend: 0x0, symName: __RINvNtCs9f3LFPSIp77_4core3ptr13drop_in_placeINtNtB4_6result6ResultNtNtCsdze8u8oDPro_5alloc6string6StringNtNtCs27l1GJC5rMQ_3std3env8VarErrorEECs2rQdhMmkUY8_5paste, symObjAddr: 0x43C, symBinAddr: 0x18BAC, symSize: 0x50 }
  - { offset: 0x33CF9, size: 0x8, addend: 0x0, symName: __RINvNtCs9f3LFPSIp77_4core3ptr13drop_in_placeINtNtCsdze8u8oDPro_5alloc3vec3VecINtNtCsjLJ1XWNSM6u_10proc_macro6bridge9TokenTreeNtNtB1g_6client11TokenStreamNtB21_4SpanNtNtB1g_6symbol6SymbolEEECs2rQdhMmkUY8_5paste, symObjAddr: 0x48C, symBinAddr: 0x18BFC, symSize: 0x5C }
  - { offset: 0x33D28, size: 0x8, addend: 0x0, symName: __RINvNtCs9f3LFPSIp77_4core3ptr13drop_in_placeINtNtCsdze8u8oDPro_5alloc3vec3VecNtNtBL_6string6StringEECs2rQdhMmkUY8_5paste, symObjAddr: 0x4E8, symBinAddr: 0x18C58, symSize: 0x5C }
  - { offset: 0x33D57, size: 0x8, addend: 0x0, symName: __RINvNtCs9f3LFPSIp77_4core3ptr13drop_in_placeINtNtCsdze8u8oDPro_5alloc3vec3VecNtNtCs2rQdhMmkUY8_5paste7segment7SegmentEEB1h_, symObjAddr: 0x544, symBinAddr: 0x18CB4, symSize: 0x5C }
  - { offset: 0x33D86, size: 0x8, addend: 0x0, symName: __RINvNtCs9f3LFPSIp77_4core3ptr13drop_in_placeINtNtCsdze8u8oDPro_5alloc3vec3VechEECs2rQdhMmkUY8_5paste, symObjAddr: 0x5A0, symBinAddr: 0x18D10, symSize: 0x5C }
  - { offset: 0x33DB5, size: 0x8, addend: 0x0, symName: __RINvNtCs9f3LFPSIp77_4core3ptr13drop_in_placeINtNtCsdze8u8oDPro_5alloc5boxed3BoxDNtNtB4_3any3AnyNtNtB4_6marker4SendEL_EECs2rQdhMmkUY8_5paste, symObjAddr: 0x5FC, symBinAddr: 0x18D6C, symSize: 0x80 }
  - { offset: 0x33DE4, size: 0x8, addend: 0x0, symName: __RINvNtCs9f3LFPSIp77_4core3ptr13drop_in_placeINtNtCsdze8u8oDPro_5alloc5boxed3BoxDNtNtB4_5error5ErrorNtNtB4_6marker4SendNtB1B_4SyncEL_EECs2rQdhMmkUY8_5paste, symObjAddr: 0x67C, symBinAddr: 0x18DEC, symSize: 0x80 }
  - { offset: 0x33E13, size: 0x8, addend: 0x0, symName: __RINvNtCs9f3LFPSIp77_4core3ptr13drop_in_placeINtNtCsdze8u8oDPro_5alloc5boxed3BoxNtNtNtCs27l1GJC5rMQ_3std2io5error6CustomEECs2rQdhMmkUY8_5paste, symObjAddr: 0x6FC, symBinAddr: 0x18E6C, symSize: 0x60 }
  - { offset: 0x33E42, size: 0x8, addend: 0x0, symName: __RINvNtCs9f3LFPSIp77_4core3ptr13drop_in_placeINtNtCsdze8u8oDPro_5alloc7raw_vec6RawVecINtNtCsjLJ1XWNSM6u_10proc_macro6bridge9TokenTreeNtNtB1n_6client11TokenStreamNtB28_4SpanNtNtB1n_6symbol6SymbolEEECs2rQdhMmkUY8_5paste, symObjAddr: 0x75C, symBinAddr: 0x18ECC, symSize: 0x24 }
  - { offset: 0x33E71, size: 0x8, addend: 0x0, symName: __RINvNtCs9f3LFPSIp77_4core3ptr13drop_in_placeINtNtCsdze8u8oDPro_5alloc7raw_vec6RawVecNtCsjLJ1XWNSM6u_10proc_macro9TokenTreeEECs2rQdhMmkUY8_5paste, symObjAddr: 0x780, symBinAddr: 0x18EF0, symSize: 0x24 }
  - { offset: 0x33EA0, size: 0x8, addend: 0x0, symName: __RINvNtCs9f3LFPSIp77_4core3ptr13drop_in_placeINtNtCsdze8u8oDPro_5alloc7raw_vec6RawVecNtNtBL_6string6StringEECs2rQdhMmkUY8_5paste, symObjAddr: 0x7A4, symBinAddr: 0x18F14, symSize: 0x24 }
  - { offset: 0x33ECF, size: 0x8, addend: 0x0, symName: __RINvNtCs9f3LFPSIp77_4core3ptr13drop_in_placeINtNtCsdze8u8oDPro_5alloc7raw_vec6RawVecNtNtCs2rQdhMmkUY8_5paste7segment7SegmentEEB1o_, symObjAddr: 0x7C8, symBinAddr: 0x18F38, symSize: 0x24 }
  - { offset: 0x33EFE, size: 0x8, addend: 0x0, symName: __RINvNtCs9f3LFPSIp77_4core3ptr13drop_in_placeINtNtCsdze8u8oDPro_5alloc7raw_vec6RawVechEECs2rQdhMmkUY8_5paste, symObjAddr: 0x7EC, symBinAddr: 0x18F5C, symSize: 0x24 }
  - { offset: 0x33F2D, size: 0x8, addend: 0x0, symName: __RINvNtCs9f3LFPSIp77_4core3ptr13drop_in_placeINtNtCsjLJ1XWNSM6u_10proc_macro6bridge5GroupNtNtBJ_6client11TokenStreamNtB1q_4SpanEECs2rQdhMmkUY8_5paste, symObjAddr: 0x810, symBinAddr: 0x18F80, symSize: 0x24 }
  - { offset: 0x33F5C, size: 0x8, addend: 0x0, symName: __RINvNtCs9f3LFPSIp77_4core3ptr13drop_in_placeINtNtCsjLJ1XWNSM6u_10proc_macro6bridge9TokenTreeNtNtBJ_6client11TokenStreamNtB1u_4SpanNtNtBJ_6symbol6SymbolEECs2rQdhMmkUY8_5paste, symObjAddr: 0x834, symBinAddr: 0x18FA4, symSize: 0x58 }
  - { offset: 0x33F8B, size: 0x8, addend: 0x0, symName: __RINvNtCs9f3LFPSIp77_4core3ptr13drop_in_placeINtNtNtB4_5array4iter8IntoItercKj3_EECs2rQdhMmkUY8_5paste, symObjAddr: 0x88C, symBinAddr: 0x18FFC, symSize: 0x24 }
  - { offset: 0x33FBA, size: 0x8, addend: 0x0, symName: __RINvNtCs9f3LFPSIp77_4core3ptr13drop_in_placeINtNtNtCs27l1GJC5rMQ_3std2io5error9ErrorDataINtNtCsdze8u8oDPro_5alloc5boxed3BoxNtBJ_6CustomEEECs2rQdhMmkUY8_5paste, symObjAddr: 0x8B0, symBinAddr: 0x19020, symSize: 0x48 }
  - { offset: 0x33FE9, size: 0x8, addend: 0x0, symName: __RINvNtCs9f3LFPSIp77_4core3ptr13drop_in_placeINtNtNtCsdze8u8oDPro_5alloc3vec9into_iter8IntoIterINtNtCsjLJ1XWNSM6u_10proc_macro6bridge9TokenTreeNtNtB1x_6client11TokenStreamNtB2i_4SpanNtNtB1x_6symbol6SymbolEEECs2rQdhMmkUY8_5paste, symObjAddr: 0x8F8, symBinAddr: 0x19068, symSize: 0x24 }
  - { offset: 0x34018, size: 0x8, addend: 0x0, symName: __RINvNtCs9f3LFPSIp77_4core3ptr13drop_in_placeINtNtNtCsdze8u8oDPro_5alloc3vec9into_iter8IntoIterNtCsjLJ1XWNSM6u_10proc_macro9TokenTreeEECs2rQdhMmkUY8_5paste, symObjAddr: 0x91C, symBinAddr: 0x1908C, symSize: 0x24 }
  - { offset: 0x34047, size: 0x8, addend: 0x0, symName: __RINvNtCs9f3LFPSIp77_4core3ptr13drop_in_placeINtNtNtCsdze8u8oDPro_5alloc3vec9into_iter8IntoIterNtNtBN_6string6StringEECs2rQdhMmkUY8_5paste, symObjAddr: 0x940, symBinAddr: 0x190B0, symSize: 0x24 }
  - { offset: 0x34076, size: 0x8, addend: 0x0, symName: __RINvNtCs9f3LFPSIp77_4core3ptr13drop_in_placeINtNtNtCsdze8u8oDPro_5alloc3vec9into_iter8IntoIterNtNtCs2rQdhMmkUY8_5paste7segment7SegmentEEB1y_, symObjAddr: 0x964, symBinAddr: 0x190D4, symSize: 0x24 }
  - { offset: 0x340A5, size: 0x8, addend: 0x0, symName: __RINvNtCs9f3LFPSIp77_4core3ptr13drop_in_placeINtNtNtNtB4_4iter7sources4once4OnceNtCsjLJ1XWNSM6u_10proc_macro9TokenTreeEECs2rQdhMmkUY8_5paste, symObjAddr: 0x988, symBinAddr: 0x190F8, symSize: 0x24 }
  - { offset: 0x340D4, size: 0x8, addend: 0x0, symName: __RINvNtCs9f3LFPSIp77_4core3ptr13drop_in_placeINtNtNtNtB4_4iter8adapters4take4TakeNtNtCsjLJ1XWNSM6u_10proc_macro12token_stream8IntoIterEECs2rQdhMmkUY8_5paste, symObjAddr: 0x9AC, symBinAddr: 0x1911C, symSize: 0x24 }
  - { offset: 0x34103, size: 0x8, addend: 0x0, symName: __RINvNtCs9f3LFPSIp77_4core3ptr13drop_in_placeINtNtNtNtB4_4iter8adapters5chain5ChainINtNtBL_4take4TakeNtNtCsjLJ1XWNSM6u_10proc_macro12token_stream8IntoIterEINtNtNtBN_7sources4once4OnceNtB1E_9TokenTreeEEECs2rQdhMmkUY8_5paste, symObjAddr: 0x9D0, symBinAddr: 0x19140, symSize: 0x60 }
  - { offset: 0x34132, size: 0x8, addend: 0x0, symName: __RINvNtCs9f3LFPSIp77_4core3ptr13drop_in_placeINtNtNtNtB4_4iter8adapters7inspect7InspectNtNtCsjLJ1XWNSM6u_10proc_macro12token_stream8IntoIterNCNvNtCs2rQdhMmkUY8_5paste4attr11expand_attr0EEB2j_, symObjAddr: 0xA30, symBinAddr: 0x191A0, symSize: 0x24 }
  - { offset: 0x34161, size: 0x8, addend: 0x0, symName: __RINvNtCs9f3LFPSIp77_4core3ptr13drop_in_placeINtNtNtNtB4_4iter8adapters8peekable8PeekableNtNtCsjLJ1XWNSM6u_10proc_macro12token_stream8IntoIterEECs2rQdhMmkUY8_5paste, symObjAddr: 0xA54, symBinAddr: 0x191C4, symSize: 0x60 }
  - { offset: 0x34190, size: 0x8, addend: 0x0, symName: __RINvNtCs9f3LFPSIp77_4core3ptr13drop_in_placeINtNvXsd_NtNtCsdze8u8oDPro_5alloc3vec9into_iterINtBP_8IntoIterppENtNtNtB4_3ops4drop4Drop4drop9DropGuardINtNtCsjLJ1XWNSM6u_10proc_macro6bridge9TokenTreeNtNtB2o_6client11TokenStreamNtB39_4SpanNtNtB2o_6symbol6SymbolENtNtBT_5alloc6GlobalEECs2rQdhMmkUY8_5paste, symObjAddr: 0xAB4, symBinAddr: 0x19224, symSize: 0x24 }
  - { offset: 0x341BF, size: 0x8, addend: 0x0, symName: __RINvNtCs9f3LFPSIp77_4core3ptr13drop_in_placeINtNvXsd_NtNtCsdze8u8oDPro_5alloc3vec9into_iterINtBP_8IntoIterppENtNtNtB4_3ops4drop4Drop4drop9DropGuardNtCsjLJ1XWNSM6u_10proc_macro9TokenTreeNtNtBT_5alloc6GlobalEECs2rQdhMmkUY8_5paste, symObjAddr: 0xAD8, symBinAddr: 0x19248, symSize: 0x24 }
  - { offset: 0x341EE, size: 0x8, addend: 0x0, symName: __RINvNtCs9f3LFPSIp77_4core3ptr13drop_in_placeINtNvXsd_NtNtCsdze8u8oDPro_5alloc3vec9into_iterINtBP_8IntoIterppENtNtNtB4_3ops4drop4Drop4drop9DropGuardNtNtBT_6string6StringNtNtBT_5alloc6GlobalEECs2rQdhMmkUY8_5paste, symObjAddr: 0xAFC, symBinAddr: 0x1926C, symSize: 0x24 }
  - { offset: 0x3421D, size: 0x8, addend: 0x0, symName: __RINvNtCs9f3LFPSIp77_4core3ptr13drop_in_placeINtNvXsd_NtNtCsdze8u8oDPro_5alloc3vec9into_iterINtBP_8IntoIterppENtNtNtB4_3ops4drop4Drop4drop9DropGuardNtNtCs2rQdhMmkUY8_5paste7segment7SegmentNtNtBT_5alloc6GlobalEEB2p_, symObjAddr: 0xB20, symBinAddr: 0x19290, symSize: 0x24 }
  - { offset: 0x3424C, size: 0x8, addend: 0x0, symName: __RINvNtCs9f3LFPSIp77_4core3ptr13drop_in_placeNCNCINvNtNtCsjLJ1XWNSM6u_10proc_macro6bridge6client10run_clientNtBN_11TokenStreamINtNtB4_6option6OptionB1H_ENCNCINvMs7_BN_INtBN_6ClientNtBR_11TokenStreamB2R_E7expand1NvCs2rQdhMmkUY8_5paste4exprE00E00EB3o_, symObjAddr: 0xB44, symBinAddr: 0x192B4, symSize: 0x24 }
  - { offset: 0x3427B, size: 0x8, addend: 0x0, symName: __RINvNtCs9f3LFPSIp77_4core3ptr13drop_in_placeNCNCINvNtNtCsjLJ1XWNSM6u_10proc_macro6bridge6client10run_clientNtBN_11TokenStreamINtNtB4_6option6OptionB1H_ENCNCINvMs7_BN_INtBN_6ClientNtBR_11TokenStreamB2R_E7expand1NvCs2rQdhMmkUY8_5paste4itemE00E00EB3o_, symObjAddr: 0xB68, symBinAddr: 0x192D8, symSize: 0x24 }
  - { offset: 0x342AA, size: 0x8, addend: 0x0, symName: __RINvNtCs9f3LFPSIp77_4core3ptr13drop_in_placeNCNCINvNtNtCsjLJ1XWNSM6u_10proc_macro6bridge6client10run_clientNtBN_11TokenStreamINtNtB4_6option6OptionB1H_ENCNCINvMs7_BN_INtBN_6ClientNtBR_11TokenStreamB2R_E7expand1NvCs2rQdhMmkUY8_5paste5pasteE00E00EB3o_, symObjAddr: 0xB8C, symBinAddr: 0x192FC, symSize: 0x24 }
  - { offset: 0x342D9, size: 0x8, addend: 0x0, symName: __RINvNtCs9f3LFPSIp77_4core3ptr13drop_in_placeNtCsjLJ1XWNSM6u_10proc_macro11TokenStreamECs2rQdhMmkUY8_5paste, symObjAddr: 0xBB0, symBinAddr: 0x19320, symSize: 0x24 }
  - { offset: 0x34308, size: 0x8, addend: 0x0, symName: __RINvNtCs9f3LFPSIp77_4core3ptr13drop_in_placeNtCsjLJ1XWNSM6u_10proc_macro17ConcatTreesHelperECs2rQdhMmkUY8_5paste, symObjAddr: 0xBD4, symBinAddr: 0x19344, symSize: 0x24 }
  - { offset: 0x34337, size: 0x8, addend: 0x0, symName: __RINvNtCs9f3LFPSIp77_4core3ptr13drop_in_placeNtCsjLJ1XWNSM6u_10proc_macro5GroupECs2rQdhMmkUY8_5paste, symObjAddr: 0xBF8, symBinAddr: 0x19368, symSize: 0x24 }
  - { offset: 0x34366, size: 0x8, addend: 0x0, symName: __RINvNtCs9f3LFPSIp77_4core3ptr13drop_in_placeNtCsjLJ1XWNSM6u_10proc_macro8LexErrorECs2rQdhMmkUY8_5paste, symObjAddr: 0xC1C, symBinAddr: 0x1938C, symSize: 0x10 }
  - { offset: 0x34395, size: 0x8, addend: 0x0, symName: __RINvNtCs9f3LFPSIp77_4core3ptr13drop_in_placeNtCsjLJ1XWNSM6u_10proc_macro9TokenTreeECs2rQdhMmkUY8_5paste, symObjAddr: 0xC2C, symBinAddr: 0x1939C, symSize: 0x58 }
  - { offset: 0x343C4, size: 0x8, addend: 0x0, symName: __RINvNtCs9f3LFPSIp77_4core3ptr13drop_in_placeNtNtB4_4char11ToLowercaseECs2rQdhMmkUY8_5paste, symObjAddr: 0xC84, symBinAddr: 0x193F4, symSize: 0x24 }
  - { offset: 0x343F3, size: 0x8, addend: 0x0, symName: __RINvNtCs9f3LFPSIp77_4core3ptr13drop_in_placeNtNtB4_4char11ToUppercaseECs2rQdhMmkUY8_5paste, symObjAddr: 0xCA8, symBinAddr: 0x19418, symSize: 0x24 }
  - { offset: 0x34422, size: 0x8, addend: 0x0, symName: __RINvNtCs9f3LFPSIp77_4core3ptr13drop_in_placeNtNtB4_4char15CaseMappingIterECs2rQdhMmkUY8_5paste, symObjAddr: 0xCCC, symBinAddr: 0x1943C, symSize: 0x24 }
  - { offset: 0x34451, size: 0x8, addend: 0x0, symName: __RINvNtCs9f3LFPSIp77_4core3ptr13drop_in_placeNtNtCs27l1GJC5rMQ_3std3env8VarErrorECs2rQdhMmkUY8_5paste, symObjAddr: 0xCF0, symBinAddr: 0x19460, symSize: 0x48 }
  - { offset: 0x34480, size: 0x8, addend: 0x0, symName: __RINvNtCs9f3LFPSIp77_4core3ptr13drop_in_placeNtNtCs2rQdhMmkUY8_5paste5error5ErrorEBK_, symObjAddr: 0xD38, symBinAddr: 0x194A8, symSize: 0x24 }
  - { offset: 0x344AF, size: 0x8, addend: 0x0, symName: __RINvNtCs9f3LFPSIp77_4core3ptr13drop_in_placeNtNtCs2rQdhMmkUY8_5paste7segment6LitStrEBK_, symObjAddr: 0xD5C, symBinAddr: 0x194CC, symSize: 0x24 }
  - { offset: 0x344DE, size: 0x8, addend: 0x0, symName: __RINvNtCs9f3LFPSIp77_4core3ptr13drop_in_placeNtNtCs2rQdhMmkUY8_5paste7segment7SegmentEBK_, symObjAddr: 0xD80, symBinAddr: 0x194F0, symSize: 0x64 }
  - { offset: 0x3450D, size: 0x8, addend: 0x0, symName: __RINvNtCs9f3LFPSIp77_4core3ptr13drop_in_placeNtNtCsdze8u8oDPro_5alloc6string6StringECs2rQdhMmkUY8_5paste, symObjAddr: 0xDE4, symBinAddr: 0x19554, symSize: 0x24 }
  - { offset: 0x3453C, size: 0x8, addend: 0x0, symName: __RINvNtCs9f3LFPSIp77_4core3ptr13drop_in_placeNtNtCsjLJ1XWNSM6u_10proc_macro12token_stream8IntoIterECs2rQdhMmkUY8_5paste, symObjAddr: 0xE08, symBinAddr: 0x19578, symSize: 0x24 }
  - { offset: 0x3456B, size: 0x8, addend: 0x0, symName: __RINvNtCs9f3LFPSIp77_4core3ptr13drop_in_placeNtNtNtB4_3num5error15TryFromIntErrorECs2rQdhMmkUY8_5paste, symObjAddr: 0xE2C, symBinAddr: 0x1959C, symSize: 0x10 }
  - { offset: 0x3459A, size: 0x8, addend: 0x0, symName: __RINvNtCs9f3LFPSIp77_4core3ptr13drop_in_placeNtNtNtCs27l1GJC5rMQ_3std2io5error5ErrorECs2rQdhMmkUY8_5paste, symObjAddr: 0xE3C, symBinAddr: 0x195AC, symSize: 0x24 }
  - { offset: 0x345C9, size: 0x8, addend: 0x0, symName: __RINvNtCs9f3LFPSIp77_4core3ptr13drop_in_placeNtNtNtCs27l1GJC5rMQ_3std2io5error6CustomECs2rQdhMmkUY8_5paste, symObjAddr: 0xE60, symBinAddr: 0x195D0, symSize: 0x24 }
  - { offset: 0x345F8, size: 0x8, addend: 0x0, symName: __RINvNtCs9f3LFPSIp77_4core3ptr13drop_in_placeNtNtNtCs27l1GJC5rMQ_3std3ffi6os_str8OsStringECs2rQdhMmkUY8_5paste, symObjAddr: 0xE84, symBinAddr: 0x195F4, symSize: 0x24 }
  - { offset: 0x34627, size: 0x8, addend: 0x0, symName: __RINvNtCs9f3LFPSIp77_4core3ptr13drop_in_placeNtNtNtCs27l1GJC5rMQ_3std6thread5local11AccessErrorECs2rQdhMmkUY8_5paste, symObjAddr: 0xEA8, symBinAddr: 0x19618, symSize: 0x10 }
  - { offset: 0x34656, size: 0x8, addend: 0x0, symName: __RINvNtCs9f3LFPSIp77_4core3ptr13drop_in_placeNtNtNtCsjLJ1XWNSM6u_10proc_macro6bridge3rpc12PanicMessageECs2rQdhMmkUY8_5paste, symObjAddr: 0xEB8, symBinAddr: 0x19628, symSize: 0x50 }
  - { offset: 0x34685, size: 0x8, addend: 0x0, symName: __RINvNtCs9f3LFPSIp77_4core3ptr13drop_in_placeNtNtNtCsjLJ1XWNSM6u_10proc_macro6bridge6buffer6BufferECs2rQdhMmkUY8_5paste, symObjAddr: 0xF08, symBinAddr: 0x19678, symSize: 0x24 }
  - { offset: 0x346B4, size: 0x8, addend: 0x0, symName: __RINvNtCs9f3LFPSIp77_4core3ptr13drop_in_placeNtNtNtCsjLJ1XWNSM6u_10proc_macro6bridge6client11TokenStreamECs2rQdhMmkUY8_5paste, symObjAddr: 0xF2C, symBinAddr: 0x1969C, symSize: 0x24 }
  - { offset: 0x346E3, size: 0x8, addend: 0x0, symName: __RINvNtCs9f3LFPSIp77_4core3ptr13drop_in_placeNtNtNtCsjLJ1XWNSM6u_10proc_macro6bridge6client6BridgeECs2rQdhMmkUY8_5paste, symObjAddr: 0xF50, symBinAddr: 0x196C0, symSize: 0x24 }
  - { offset: 0x34712, size: 0x8, addend: 0x0, symName: __RINvNtCs9f3LFPSIp77_4core3ptr13drop_in_placeNtNtNtNtCs27l1GJC5rMQ_3std2io5error14repr_bitpacked4ReprECs2rQdhMmkUY8_5paste, symObjAddr: 0xF74, symBinAddr: 0x196E4, symSize: 0x24 }
  - { offset: 0x34741, size: 0x8, addend: 0x0, symName: __RINvNtCs9f3LFPSIp77_4core3ptr13drop_in_placeNtNtNtNtCs27l1GJC5rMQ_3std3sys6os_str5bytes3BufECs2rQdhMmkUY8_5paste, symObjAddr: 0xF98, symBinAddr: 0x19708, symSize: 0x24 }
  - { offset: 0x34770, size: 0x8, addend: 0x0, symName: __RINvNtCs9f3LFPSIp77_4core3ptr13drop_in_placeNtNvNtNtNtCsjLJ1XWNSM6u_10proc_macro6bridge6client5state3set13RestoreOnDropECs2rQdhMmkUY8_5paste, symObjAddr: 0xFBC, symBinAddr: 0x1972C, symSize: 0x24 }
  - { offset: 0x3479F, size: 0x8, addend: 0x0, symName: __RINvNtCs9f3LFPSIp77_4core3ptr13drop_in_placeRINtNtB4_6option6OptionjEECs2rQdhMmkUY8_5paste, symObjAddr: 0xFE0, symBinAddr: 0x19750, symSize: 0x10 }
  - { offset: 0x347CE, size: 0x8, addend: 0x0, symName: __RINvNtCs9f3LFPSIp77_4core3ptr13drop_in_placeRjECs2rQdhMmkUY8_5paste, symObjAddr: 0xFF0, symBinAddr: 0x19760, symSize: 0x10 }
  - { offset: 0x347FD, size: 0x8, addend: 0x0, symName: __RINvNtCs9f3LFPSIp77_4core3ptr13drop_in_placeRuECs2rQdhMmkUY8_5paste, symObjAddr: 0x1000, symBinAddr: 0x19770, symSize: 0x10 }
  - { offset: 0x3482C, size: 0x8, addend: 0x0, symName: __RINvNtCs9f3LFPSIp77_4core3ptr13drop_in_placeSINtNtCsjLJ1XWNSM6u_10proc_macro6bridge9TokenTreeNtNtBK_6client11TokenStreamNtB1v_4SpanNtNtBK_6symbol6SymbolEECs2rQdhMmkUY8_5paste, symObjAddr: 0x1010, symBinAddr: 0x19780, symSize: 0xC4 }
  - { offset: 0x3485B, size: 0x8, addend: 0x0, symName: __RINvNtCs9f3LFPSIp77_4core3ptr13drop_in_placeSNtCsjLJ1XWNSM6u_10proc_macro9TokenTreeECs2rQdhMmkUY8_5paste, symObjAddr: 0x10D4, symBinAddr: 0x19844, symSize: 0xC4 }
  - { offset: 0x3488A, size: 0x8, addend: 0x0, symName: __RINvNtCs9f3LFPSIp77_4core3ptr13drop_in_placeSNtNtCs2rQdhMmkUY8_5paste7segment7SegmentEBL_, symObjAddr: 0x1198, symBinAddr: 0x19908, symSize: 0xC4 }
  - { offset: 0x348B9, size: 0x8, addend: 0x0, symName: __RINvNtCs9f3LFPSIp77_4core3ptr13drop_in_placeSNtNtCsdze8u8oDPro_5alloc6string6StringECs2rQdhMmkUY8_5paste, symObjAddr: 0x125C, symBinAddr: 0x199CC, symSize: 0xC4 }
  - { offset: 0x34C9B, size: 0x8, addend: 0x0, symName: __RNvYNtCsjLJ1XWNSM6u_10proc_macro9DelimiterNtNtCs9f3LFPSIp77_4core3cmp9PartialEq2neCs2rQdhMmkUY8_5paste, symObjAddr: 0x398C, symBinAddr: 0x1C0FC, symSize: 0x30 }
  - { offset: 0x35917, size: 0x8, addend: 0x0, symName: __RINvNtCs9f3LFPSIp77_4core3mem7replaceNtNtCsdze8u8oDPro_5alloc6string6StringECs2rQdhMmkUY8_5paste, symObjAddr: 0xCC, symBinAddr: 0x1883C, symSize: 0x38 }
  - { offset: 0x35F9F, size: 0x8, addend: 0x0, symName: __RINvXNtNtNtCs9f3LFPSIp77_4core4iter6traits8iteratorQINtNtNtB7_8adapters8peekable8PeekableNtNtCsjLJ1XWNSM6u_10proc_macro12token_stream8IntoIterENtB3_8Iterator8try_foldjNCINvNvXs7_NtBT_4takeINtB2Q_4TakepENtB2Q_8SpecTake13spec_for_each5checkNtB1t_9TokenTreeNCINvXsj_B1t_NtB1t_11TokenStreamINtNtB5_7collect6ExtendB3O_E6extendIB31_BN_EE0E0INtNtB9_6option6OptionjEECs2rQdhMmkUY8_5paste, symObjAddr: 0x1734, symBinAddr: 0x19EA4, symSize: 0x30 }
  - { offset: 0x3600F, size: 0x8, addend: 0x0, symName: __RNvXNtNtNtCs9f3LFPSIp77_4core4iter6traits8iteratorQINtNtNtB6_8adapters8peekable8PeekableNtNtCsjLJ1XWNSM6u_10proc_macro12token_stream8IntoIterENtB2_8Iterator9size_hintCs2rQdhMmkUY8_5paste, symObjAddr: 0x2CE8, symBinAddr: 0x1B458, symSize: 0x28 }
  - { offset: 0x3604C, size: 0x8, addend: 0x0, symName: __RINvXs0_NtNtNtCs9f3LFPSIp77_4core4iter6traits8iteratorQINtNtNtBa_8adapters8peekable8PeekableNtNtCsjLJ1XWNSM6u_10proc_macro12token_stream8IntoIterENtB6_15IteratorRefSpec13spec_try_foldjNCINvNvXs7_NtBW_4takeINtB37_4TakepENtB37_8SpecTake13spec_for_each5checkNtB1w_9TokenTreeNCINvXsj_B1w_NtB1w_11TokenStreamINtNtB8_7collect6ExtendB45_E6extendIB3i_BQ_EE0E0INtNtBc_6option6OptionjEECs2rQdhMmkUY8_5paste, symObjAddr: 0x1764, symBinAddr: 0x19ED4, symSize: 0x34 }
  - { offset: 0x360C2, size: 0x8, addend: 0x0, symName: __RINvYINtNtNtNtCs9f3LFPSIp77_4core4iter8adapters5chain5ChainINtNtB8_4take4TakeNtNtCsjLJ1XWNSM6u_10proc_macro12token_stream8IntoIterEINtNtNtBa_7sources4once4OnceNtB1h_9TokenTreeEENtNtNtBa_6traits8iterator8Iterator7collectNtB1h_11TokenStreamECs2rQdhMmkUY8_5paste, symObjAddr: 0x20F0, symBinAddr: 0x1A860, symSize: 0x14 }
  - { offset: 0x36103, size: 0x8, addend: 0x0, symName: __RINvYINtNtNtNtCs9f3LFPSIp77_4core4iter8adapters5chain5ChainINtNtB8_4take4TakeNtNtCsjLJ1XWNSM6u_10proc_macro12token_stream8IntoIterEINtNtNtBa_7sources4once4OnceNtB1h_9TokenTreeEENtNtNtBa_6traits8iterator8Iterator8for_eachNCINvXsh_B1h_NtB1h_11TokenStreamINtNtB2T_7collect12FromIteratorB2x_E9from_iterB3_E0ECs2rQdhMmkUY8_5paste, symObjAddr: 0x2104, symBinAddr: 0x1A874, symSize: 0x24 }
  - { offset: 0x36159, size: 0x8, addend: 0x0, symName: __RNCINvNvNtNtNtNtCs9f3LFPSIp77_4core4iter6traits8iterator8Iterator3all5checkNtCsjLJ1XWNSM6u_10proc_macro9TokenTreeNCNvNtCs2rQdhMmkUY8_5paste4attr11expand_attrs_0E0B1T_, symObjAddr: 0x2128, symBinAddr: 0x1A898, symSize: 0x60 }
  - { offset: 0x361C1, size: 0x8, addend: 0x0, symName: __RNCINvNvNtNtNtNtCs9f3LFPSIp77_4core4iter6traits8iterator8Iterator8for_each4callNtCsjLJ1XWNSM6u_10proc_macro9TokenTreeNCINvXsh_B1h_NtB1h_11TokenStreamINtNtBa_7collect12FromIteratorB1f_E9from_iterINtNtCsdze8u8oDPro_5alloc3vec3VecB1f_EE0E0Cs2rQdhMmkUY8_5paste, symObjAddr: 0x2188, symBinAddr: 0x1A8F8, symSize: 0x3C }
  - { offset: 0x3621A, size: 0x8, addend: 0x0, symName: __RNCINvNvNtNtNtNtCs9f3LFPSIp77_4core4iter6traits8iterator8Iterator8for_each4callNtCsjLJ1XWNSM6u_10proc_macro9TokenTreeNCINvXsh_B1h_NtB1h_11TokenStreamINtNtBa_7collect12FromIteratorB1f_E9from_iterINtNtNtBc_8adapters5chain5ChainINtNtB3b_4take4TakeNtNtB1h_12token_stream8IntoIterEINtNtNtBc_7sources4once4OnceB1f_EEE0E0Cs2rQdhMmkUY8_5paste, symObjAddr: 0x21C4, symBinAddr: 0x1A934, symSize: 0x3C }
  - { offset: 0x36273, size: 0x8, addend: 0x0, symName: __RNCINvNvNtNtNtNtCs9f3LFPSIp77_4core4iter6traits8iterator8Iterator8for_each4callNtCsjLJ1XWNSM6u_10proc_macro9TokenTreeNCINvXsj_B1h_NtB1h_11TokenStreamINtNtBa_7collect6ExtendB1f_E6extendB24_E0E0Cs2rQdhMmkUY8_5paste, symObjAddr: 0x2200, symBinAddr: 0x1A970, symSize: 0x3C }
  - { offset: 0x362CC, size: 0x8, addend: 0x0, symName: __RNCINvNvNtNtNtNtCs9f3LFPSIp77_4core4iter6traits8iterator8Iterator8for_each4callNtCsjLJ1XWNSM6u_10proc_macro9TokenTreeNCINvXsj_B1h_NtB1h_11TokenStreamINtNtBa_7collect6ExtendB1f_E6extendINtNtNtBc_7sources4once4OnceB1f_EE0E0Cs2rQdhMmkUY8_5paste, symObjAddr: 0x223C, symBinAddr: 0x1A9AC, symSize: 0x3C }
  - { offset: 0x36325, size: 0x8, addend: 0x0, symName: __RNCINvNvNtNtNtNtCs9f3LFPSIp77_4core4iter6traits8iterator8Iterator8for_each4callNtNtCsdze8u8oDPro_5alloc6string6StringNCINvXsf_B1h_B1f_INtNtBa_7collect6ExtendB1f_E6extendINtNtNtB1j_3vec9into_iter8IntoIterB1f_EE0E0Cs2rQdhMmkUY8_5paste, symObjAddr: 0x2278, symBinAddr: 0x1A9E8, symSize: 0x3C }
  - { offset: 0x3637E, size: 0x8, addend: 0x0, symName: __RNCINvNvNtNtNtNtCs9f3LFPSIp77_4core4iter6traits8iterator8Iterator8for_each4callcNCINvXsb_NtCsdze8u8oDPro_5alloc6stringNtB1p_6StringINtNtBa_7collect6ExtendcE6extendNtNtBe_4char13EscapeDefaultE0E0Cs2rQdhMmkUY8_5paste, symObjAddr: 0x22B4, symBinAddr: 0x1AA24, symSize: 0x28 }
  - { offset: 0x363EB, size: 0x8, addend: 0x0, symName: __RNvYINtNtNtNtCs9f3LFPSIp77_4core4iter8adapters8peekable8PeekableNtNtCsjLJ1XWNSM6u_10proc_macro12token_stream8IntoIterENtNtNtB9_6traits8iterator8Iterator6by_refCs2rQdhMmkUY8_5paste, symObjAddr: 0x392C, symBinAddr: 0x1C09C, symSize: 0x14 }
  - { offset: 0x36422, size: 0x8, addend: 0x0, symName: __RNvYQINtNtNtNtCs9f3LFPSIp77_4core4iter8adapters8peekable8PeekableNtNtCsjLJ1XWNSM6u_10proc_macro12token_stream8IntoIterENtNtNtBa_6traits8iterator8Iterator4takeCs2rQdhMmkUY8_5paste, symObjAddr: 0x3B00, symBinAddr: 0x1C270, symSize: 0x18 }
  - { offset: 0x36474, size: 0x8, addend: 0x0, symName: __RNvXs_NtNtNtCs9f3LFPSIp77_4core4iter6traits7collectINtNtNtB8_8adapters5chain5ChainINtNtBS_4take4TakeNtNtCsjLJ1XWNSM6u_10proc_macro12token_stream8IntoIterEINtNtNtB8_7sources4once4OnceNtB1E_9TokenTreeEENtB4_12IntoIterator9into_iterCs2rQdhMmkUY8_5paste, symObjAddr: 0x345C, symBinAddr: 0x1BBCC, symSize: 0x30 }
  - { offset: 0x364BE, size: 0x8, addend: 0x0, symName: __RINvXs_NtNtNtCs9f3LFPSIp77_4core4iter8adapters5chainINtB5_5ChainINtNtB7_4take4TakeNtNtCsjLJ1XWNSM6u_10proc_macro12token_stream8IntoIterEINtNtNtB9_7sources4once4OnceNtB1m_9TokenTreeEENtNtNtB9_6traits8iterator8Iterator4folduNCINvNvB2U_8for_each4callB2C_NCINvXsh_B1m_NtB1m_11TokenStreamINtNtB2Y_7collect12FromIteratorB2C_E9from_iterBO_E0E0ECs2rQdhMmkUY8_5paste, symObjAddr: 0x1798, symBinAddr: 0x19F08, symSize: 0x220 }
  - { offset: 0x36558, size: 0x8, addend: 0x0, symName: __RNvXs_NtNtNtCs9f3LFPSIp77_4core4iter8adapters5chainINtB4_5ChainINtNtB6_4take4TakeNtNtCsjLJ1XWNSM6u_10proc_macro12token_stream8IntoIterEINtNtNtB8_7sources4once4OnceNtB1l_9TokenTreeEENtNtNtB8_6traits8iterator8Iterator9size_hintCs2rQdhMmkUY8_5paste, symObjAddr: 0x348C, symBinAddr: 0x1BBFC, symSize: 0x224 }
  - { offset: 0x3674D, size: 0x8, addend: 0x0, symName: __RINvXs_NtNtNtCs9f3LFPSIp77_4core4iter8adapters8peekableINtB5_8PeekableNtNtCsjLJ1XWNSM6u_10proc_macro12token_stream8IntoIterENtNtNtB9_6traits8iterator8Iterator8try_foldjNCINvNvXs7_NtB7_4takeINtB2R_4TakepENtB2R_8SpecTake13spec_for_each5checkNtB1a_9TokenTreeNCINvXsj_B1a_NtB1a_11TokenStreamINtNtB22_7collect6ExtendB3P_E6extendIB32_QBR_EE0E0INtNtBb_6option6OptionjEECs2rQdhMmkUY8_5paste, symObjAddr: 0x19B8, symBinAddr: 0x1A128, symSize: 0x200 }
  - { offset: 0x368B7, size: 0x8, addend: 0x0, symName: __RNvXs_NtNtNtCs9f3LFPSIp77_4core4iter8adapters8peekableINtB4_8PeekableNtNtCsjLJ1XWNSM6u_10proc_macro12token_stream8IntoIterENtNtNtB8_6traits8iterator8Iterator4nextCs2rQdhMmkUY8_5paste, symObjAddr: 0x36B0, symBinAddr: 0x1BE20, symSize: 0xA4 }
  - { offset: 0x369A5, size: 0x8, addend: 0x0, symName: __RNvXs_NtNtNtCs9f3LFPSIp77_4core4iter8adapters8peekableINtB4_8PeekableNtNtCsjLJ1XWNSM6u_10proc_macro12token_stream8IntoIterENtNtNtB8_6traits8iterator8Iterator9size_hintCs2rQdhMmkUY8_5paste, symObjAddr: 0x3754, symBinAddr: 0x1BEC4, symSize: 0x198 }
  - { offset: 0x36AA8, size: 0x8, addend: 0x0, symName: __RNCNvMs3_NtNtNtCs9f3LFPSIp77_4core4iter8adapters8peekableINtB7_8PeekableNtNtCsjLJ1XWNSM6u_10proc_macro12token_stream8IntoIterE4peek0Cs2rQdhMmkUY8_5paste, symObjAddr: 0x23A4, symBinAddr: 0x1AB14, symSize: 0x24 }
  - { offset: 0x36DD0, size: 0x8, addend: 0x0, symName: __RNvXNtNtCs9f3LFPSIp77_4core3ops12control_flowINtB2_11ControlFlowINtNtB4_9try_trait17NeverShortCircuituEENtB13_3Try11from_outputCs2rQdhMmkUY8_5paste, symObjAddr: 0x2C48, symBinAddr: 0x1B3B8, symSize: 0x18 }
  - { offset: 0x36E0E, size: 0x8, addend: 0x0, symName: __RNvXNtNtCs9f3LFPSIp77_4core3ops12control_flowINtB2_11ControlFlowINtNtB4_9try_trait17NeverShortCircuituEENtB13_3Try6branchCs2rQdhMmkUY8_5paste, symObjAddr: 0x2C60, symBinAddr: 0x1B3D0, symSize: 0x38 }
  - { offset: 0x36E84, size: 0x8, addend: 0x0, symName: __RNvXNtNtCs9f3LFPSIp77_4core3ops12control_flowINtB2_11ControlFlowuENtNtB4_9try_trait3Try11from_outputCs2rQdhMmkUY8_5paste, symObjAddr: 0x2C98, symBinAddr: 0x1B408, symSize: 0x18 }
  - { offset: 0x36EC2, size: 0x8, addend: 0x0, symName: __RNvXNtNtCs9f3LFPSIp77_4core3ops12control_flowINtB2_11ControlFlowuENtNtB4_9try_trait3Try6branchCs2rQdhMmkUY8_5paste, symObjAddr: 0x2CB0, symBinAddr: 0x1B420, symSize: 0x38 }
  - { offset: 0x36F3E, size: 0x8, addend: 0x0, symName: __RNvXs7_NtNtCs9f3LFPSIp77_4core3ops12control_flowINtB5_11ControlFlowuENtNtB9_3cmp9PartialEq2eqCs2rQdhMmkUY8_5paste, symObjAddr: 0x324C, symBinAddr: 0x1B9BC, symSize: 0xEC }
  - { offset: 0x3705D, size: 0x8, addend: 0x0, symName: __RNvXs_NtNtCs9f3LFPSIp77_4core3ops12control_flowINtB4_11ControlFlowINtNtB6_9try_trait17NeverShortCircuituEEINtB15_12FromResidualIBK_B12_NtNtB8_7convert10InfallibleEE13from_residualCs2rQdhMmkUY8_5paste, symObjAddr: 0x3424, symBinAddr: 0x1BB94, symSize: 0x1C }
  - { offset: 0x370B7, size: 0x8, addend: 0x0, symName: __RNvXs_NtNtCs9f3LFPSIp77_4core3ops12control_flowINtB4_11ControlFlowuEINtNtB6_9try_trait12FromResidualIBK_uNtNtB8_7convert10InfallibleEE13from_residualCs2rQdhMmkUY8_5paste, symObjAddr: 0x3440, symBinAddr: 0x1BBB0, symSize: 0x1C }
  - { offset: 0x37408, size: 0x8, addend: 0x0, symName: __RNvXs1_NtNtNtCs9f3LFPSIp77_4core3ops8function5implsQNCINvNvNtNtNtNtBb_4iter6traits8iterator8Iterator8for_each4callNtCsjLJ1XWNSM6u_10proc_macro9TokenTreeNCINvXsh_B1Q_NtB1Q_11TokenStreamINtNtBZ_7collect12FromIteratorB1O_E9from_iterINtNtNtB11_8adapters5chain5ChainINtNtB3K_4take4TakeNtNtB1Q_12token_stream8IntoIterEINtNtNtB11_7sources4once4OnceB1O_EEE0E0INtB7_5FnMutTuB1O_EE8call_mutCs2rQdhMmkUY8_5paste, symObjAddr: 0x2E04, symBinAddr: 0x1B574, symSize: 0x40 }
  - { offset: 0x3745A, size: 0x8, addend: 0x0, symName: __RNvYNCNkNvNtNtNtCsjLJ1XWNSM6u_10proc_macro6bridge6client5state12BRIDGE_STATE0s_0INtNtNtCs9f3LFPSIp77_4core3ops8function6FnOnceTINtNtB1n_6option6OptionQIB22_INtNtB1n_4cell4CellPuEEEEE9call_onceCs2rQdhMmkUY8_5paste, symObjAddr: 0x3940, symBinAddr: 0x1C0B0, symSize: 0x4C }
  - { offset: 0x3749E, size: 0x8, addend: 0x0, symName: __RNvYNvMsv_CsjLJ1XWNSM6u_10proc_macroNtB8_9TokenTree4spanINtNtNtCs9f3LFPSIp77_4core3ops8function6FnOnceTRBy_EE9call_onceCs2rQdhMmkUY8_5paste, symObjAddr: 0x3A34, symBinAddr: 0x1C1A4, symSize: 0x24 }
  - { offset: 0x374E2, size: 0x8, addend: 0x0, symName: __RNvYNvYNtNtNtCsjLJ1XWNSM6u_10proc_macro6bridge3rpc12PanicMessageINtNtCs9f3LFPSIp77_4core7convert4FromINtNtCsdze8u8oDPro_5alloc5boxed3BoxDNtNtB15_3any3AnyNtNtB15_6marker4SendEL_EE4fromINtNtNtB15_3ops8function6FnOnceTB1B_EE9call_onceCs2rQdhMmkUY8_5paste, symObjAddr: 0x3A58, symBinAddr: 0x1C1C8, symSize: 0x2C }
  - { offset: 0x37526, size: 0x8, addend: 0x0, symName: __RNvYNvYcINtNtCs9f3LFPSIp77_4core7convert4FromhE4fromINtNtNtBb_3ops8function6FnOnceThEE9call_onceCs2rQdhMmkUY8_5paste, symObjAddr: 0x3A84, symBinAddr: 0x1C1F4, symSize: 0x24 }
  - { offset: 0x3756A, size: 0x8, addend: 0x0, symName: __RNvYNvYeNtNtCsdze8u8oDPro_5alloc6borrow7ToOwned8to_ownedINtNtNtCs9f3LFPSIp77_4core3ops8function6FnOnceTReEE9call_onceCs2rQdhMmkUY8_5paste, symObjAddr: 0x3AA8, symBinAddr: 0x1C218, symSize: 0x2C }
  - { offset: 0x375AE, size: 0x8, addend: 0x0, symName: __RNvYNvYjNtNtCs9f3LFPSIp77_4core3cmp3Ord3cmpINtNtNtBa_3ops8function6FnOnceTRjB1a_EE9call_onceCs2rQdhMmkUY8_5paste, symObjAddr: 0x3AD4, symBinAddr: 0x1C244, symSize: 0x2C }
  - { offset: 0x375F8, size: 0x8, addend: 0x0, symName: __RNvYNvCs2rQdhMmkUY8_5paste4exprINtNtNtCs9f3LFPSIp77_4core3ops8function2FnTNtCsjLJ1XWNSM6u_10proc_macro11TokenStreamEE4callB4_, symObjAddr: 0x39BC, symBinAddr: 0x1C12C, symSize: 0x28 }
  - { offset: 0x3763C, size: 0x8, addend: 0x0, symName: __RNvYNvCs2rQdhMmkUY8_5paste4itemINtNtNtCs9f3LFPSIp77_4core3ops8function2FnTNtCsjLJ1XWNSM6u_10proc_macro11TokenStreamEE4callB4_, symObjAddr: 0x39E4, symBinAddr: 0x1C154, symSize: 0x28 }
  - { offset: 0x37680, size: 0x8, addend: 0x0, symName: __RNvYNvCs2rQdhMmkUY8_5paste5pasteINtNtNtCs9f3LFPSIp77_4core3ops8function2FnTNtCsjLJ1XWNSM6u_10proc_macro11TokenStreamEE4callB4_, symObjAddr: 0x3A0C, symBinAddr: 0x1C17C, symSize: 0x28 }
  - { offset: 0x3771C, size: 0x8, addend: 0x0, symName: __RNvNvNtCs9f3LFPSIp77_4core4hint16assert_unchecked18precondition_checkCs2rQdhMmkUY8_5paste, symObjAddr: 0x2BF4, symBinAddr: 0x1B364, symSize: 0x38 }
  - { offset: 0x3774A, size: 0x8, addend: 0x0, symName: __RNvNvNtCs9f3LFPSIp77_4core4hint21unreachable_unchecked18precondition_checkCs2rQdhMmkUY8_5paste, symObjAddr: 0x2C2C, symBinAddr: 0x1B39C, symSize: 0x1C }
  - { offset: 0x37B0E, size: 0x8, addend: 0x0, symName: __RINvNvNtCs27l1GJC5rMQ_3std9panicking3try7do_callINtNtNtCs9f3LFPSIp77_4core5panic11unwind_safe16AssertUnwindSafeNCINvNtNtCsjLJ1XWNSM6u_10proc_macro6bridge6client10run_clientNtB1Q_11TokenStreamINtNtBR_6option6OptionB2K_ENCNCINvMs7_B1Q_INtB1Q_6ClientNtB1U_11TokenStreamB3X_E7expand1NvCs2rQdhMmkUY8_5paste4exprE00E0EuEB4v_, symObjAddr: 0x1320, symBinAddr: 0x19A90, symSize: 0x58 }
  - { offset: 0x37BDF, size: 0x8, addend: 0x0, symName: __RINvNvNtCs27l1GJC5rMQ_3std9panicking3try7do_callINtNtNtCs9f3LFPSIp77_4core5panic11unwind_safe16AssertUnwindSafeNCINvNtNtCsjLJ1XWNSM6u_10proc_macro6bridge6client10run_clientNtB1Q_11TokenStreamINtNtBR_6option6OptionB2K_ENCNCINvMs7_B1Q_INtB1Q_6ClientNtB1U_11TokenStreamB3X_E7expand1NvCs2rQdhMmkUY8_5paste4itemE00E0EuEB4v_, symObjAddr: 0x1378, symBinAddr: 0x19AE8, symSize: 0x58 }
  - { offset: 0x37CB0, size: 0x8, addend: 0x0, symName: __RINvNvNtCs27l1GJC5rMQ_3std9panicking3try7do_callINtNtNtCs9f3LFPSIp77_4core5panic11unwind_safe16AssertUnwindSafeNCINvNtNtCsjLJ1XWNSM6u_10proc_macro6bridge6client10run_clientNtB1Q_11TokenStreamINtNtBR_6option6OptionB2K_ENCNCINvMs7_B1Q_INtB1Q_6ClientNtB1U_11TokenStreamB3X_E7expand1NvCs2rQdhMmkUY8_5paste5pasteE00E0EuEB4v_, symObjAddr: 0x13D0, symBinAddr: 0x19B40, symSize: 0x58 }
  - { offset: 0x37D81, size: 0x8, addend: 0x0, symName: __RINvNvNtCs27l1GJC5rMQ_3std9panicking3try7do_callNCNvCs2rQdhMmkUY8_5paste16pasted_to_tokenss0_0NtCsjLJ1XWNSM6u_10proc_macro5IdentEBO_, symObjAddr: 0x1428, symBinAddr: 0x19B98, symSize: 0x7C }
  - { offset: 0x37E70, size: 0x8, addend: 0x0, symName: __RINvNvNtCs27l1GJC5rMQ_3std9panicking3try7do_callNCNvCs2rQdhMmkUY8_5paste16pasted_to_tokenss_0INtNtCs9f3LFPSIp77_4core6result6ResultNtCsjLJ1XWNSM6u_10proc_macro7LiteralNtB27_8LexErrorEEBO_, symObjAddr: 0x14A4, symBinAddr: 0x19C14, symSize: 0x60 }
  - { offset: 0x37F5F, size: 0x8, addend: 0x0, symName: __RINvNvNtCs27l1GJC5rMQ_3std9panicking3try8do_catchINtNtNtCs9f3LFPSIp77_4core5panic11unwind_safe16AssertUnwindSafeNCINvNtNtCsjLJ1XWNSM6u_10proc_macro6bridge6client10run_clientNtB1R_11TokenStreamINtNtBS_6option6OptionB2L_ENCNCINvMs7_B1R_INtB1R_6ClientNtB1V_11TokenStreamB3Y_E7expand1NvCs2rQdhMmkUY8_5paste4exprE00E0EuEB4w_, symObjAddr: 0x1504, symBinAddr: 0x19C74, symSize: 0x70 }
  - { offset: 0x37FF4, size: 0x8, addend: 0x0, symName: __RINvNvNtCs27l1GJC5rMQ_3std9panicking3try8do_catchINtNtNtCs9f3LFPSIp77_4core5panic11unwind_safe16AssertUnwindSafeNCINvNtNtCsjLJ1XWNSM6u_10proc_macro6bridge6client10run_clientNtB1R_11TokenStreamINtNtBS_6option6OptionB2L_ENCNCINvMs7_B1R_INtB1R_6ClientNtB1V_11TokenStreamB3Y_E7expand1NvCs2rQdhMmkUY8_5paste4itemE00E0EuEB4w_, symObjAddr: 0x1574, symBinAddr: 0x19CE4, symSize: 0x70 }
  - { offset: 0x38089, size: 0x8, addend: 0x0, symName: __RINvNvNtCs27l1GJC5rMQ_3std9panicking3try8do_catchINtNtNtCs9f3LFPSIp77_4core5panic11unwind_safe16AssertUnwindSafeNCINvNtNtCsjLJ1XWNSM6u_10proc_macro6bridge6client10run_clientNtB1R_11TokenStreamINtNtBS_6option6OptionB2L_ENCNCINvMs7_B1R_INtB1R_6ClientNtB1V_11TokenStreamB3Y_E7expand1NvCs2rQdhMmkUY8_5paste5pasteE00E0EuEB4w_, symObjAddr: 0x15E4, symBinAddr: 0x19D54, symSize: 0x70 }
  - { offset: 0x3811E, size: 0x8, addend: 0x0, symName: __RINvNvNtCs27l1GJC5rMQ_3std9panicking3try8do_catchNCNvCs2rQdhMmkUY8_5paste16pasted_to_tokenss0_0NtCsjLJ1XWNSM6u_10proc_macro5IdentEBP_, symObjAddr: 0x1654, symBinAddr: 0x19DC4, symSize: 0x70 }
  - { offset: 0x381B3, size: 0x8, addend: 0x0, symName: __RINvNvNtCs27l1GJC5rMQ_3std9panicking3try8do_catchNCNvCs2rQdhMmkUY8_5paste16pasted_to_tokenss_0INtNtCs9f3LFPSIp77_4core6result6ResultNtCsjLJ1XWNSM6u_10proc_macro7LiteralNtB28_8LexErrorEEBP_, symObjAddr: 0x16C4, symBinAddr: 0x19E34, symSize: 0x70 }
  - { offset: 0x38446, size: 0x8, addend: 0x0, symName: __RINvMNtCsdze8u8oDPro_5alloc5sliceSNtCsjLJ1XWNSM6u_10proc_macro9TokenTree8into_vecNtNtB5_5alloc6GlobalECs2rQdhMmkUY8_5paste, symObjAddr: 0x0, symBinAddr: 0x18770, symSize: 0x28 }
  - { offset: 0x3884D, size: 0x8, addend: 0x0, symName: __RNvNtCsdze8u8oDPro_5alloc5alloc12alloc_zeroedCs2rQdhMmkUY8_5paste, symObjAddr: 0x2A0C, symBinAddr: 0x1B17C, symSize: 0x80 }
  - { offset: 0x3891A, size: 0x8, addend: 0x0, symName: __RNvXs_NtCsdze8u8oDPro_5alloc5allocNtB4_6GlobalNtNtCs9f3LFPSIp77_4core5alloc9Allocator10deallocateCs2rQdhMmkUY8_5paste, symObjAddr: 0x3398, symBinAddr: 0x1BB08, symSize: 0x8C }
  - { offset: 0x389FF, size: 0x8, addend: 0x0, symName: __RNvNtCsdze8u8oDPro_5alloc5alloc15exchange_mallocCs2rQdhMmkUY8_5paste, symObjAddr: 0x2A8C, symBinAddr: 0x1B1FC, symSize: 0xA8 }
  - { offset: 0x38B0E, size: 0x8, addend: 0x0, symName: __RNvNtCsdze8u8oDPro_5alloc5alloc5allocCs2rQdhMmkUY8_5paste, symObjAddr: 0x2B34, symBinAddr: 0x1B2A4, symSize: 0x80 }
  - { offset: 0x38BB3, size: 0x8, addend: 0x0, symName: __RNvXs1_NtCsdze8u8oDPro_5alloc5allocNtB5_6GlobalNtNtCs9f3LFPSIp77_4core5clone5Clone5cloneCs2rQdhMmkUY8_5paste, symObjAddr: 0x2DF4, symBinAddr: 0x1B564, symSize: 0x10 }
  - { offset: 0x38D5A, size: 0x8, addend: 0x0, symName: __RNCNvNtCsdze8u8oDPro_5alloc3fmt6format0Cs2rQdhMmkUY8_5paste, symObjAddr: 0x23C8, symBinAddr: 0x1AB38, symSize: 0x48 }
  - { offset: 0x38D8B, size: 0x8, addend: 0x0, symName: __RNvNtCsdze8u8oDPro_5alloc3fmt6formatCs2rQdhMmkUY8_5paste, symObjAddr: 0x2938, symBinAddr: 0x1B0A8, symSize: 0xD4 }
  - { offset: 0x38DF1, size: 0x8, addend: 0x0, symName: __RNvXs6_NtCsdze8u8oDPro_5alloc5boxedINtB5_3BoxANtCsjLJ1XWNSM6u_10proc_macro9TokenTreej1_ENtNtNtCs9f3LFPSIp77_4core3ops4drop4Drop4dropCs2rQdhMmkUY8_5paste, symObjAddr: 0x2EB4, symBinAddr: 0x1B624, symSize: 0xB0 }
  - { offset: 0x38F6F, size: 0x8, addend: 0x0, symName: __RNvXs6_NtCsdze8u8oDPro_5alloc5boxedINtB5_3BoxANtCsjLJ1XWNSM6u_10proc_macro9TokenTreej3_ENtNtNtCs9f3LFPSIp77_4core3ops4drop4Drop4dropCs2rQdhMmkUY8_5paste, symObjAddr: 0x2F64, symBinAddr: 0x1B6D4, symSize: 0xB0 }
  - { offset: 0x390ED, size: 0x8, addend: 0x0, symName: __RNvXs6_NtCsdze8u8oDPro_5alloc5boxedINtB5_3BoxDNtNtCs9f3LFPSIp77_4core3any3AnyNtNtBM_6marker4SendEL_ENtNtNtBM_3ops4drop4Drop4dropCs2rQdhMmkUY8_5paste, symObjAddr: 0x3014, symBinAddr: 0x1B784, symSize: 0xC4 }
  - { offset: 0x3926B, size: 0x8, addend: 0x0, symName: __RNvXs6_NtCsdze8u8oDPro_5alloc5boxedINtB5_3BoxDNtNtCs9f3LFPSIp77_4core5error5ErrorNtNtBM_6marker4SendNtB1j_4SyncEL_ENtNtNtBM_3ops4drop4Drop4dropCs2rQdhMmkUY8_5paste, symObjAddr: 0x30D8, symBinAddr: 0x1B848, symSize: 0xC4 }
  - { offset: 0x393E9, size: 0x8, addend: 0x0, symName: __RNvXs6_NtCsdze8u8oDPro_5alloc5boxedINtB5_3BoxNtNtNtCs27l1GJC5rMQ_3std2io5error6CustomENtNtNtCs9f3LFPSIp77_4core3ops4drop4Drop4dropCs2rQdhMmkUY8_5paste, symObjAddr: 0x319C, symBinAddr: 0x1B90C, symSize: 0xB0 }
  - { offset: 0x396E9, size: 0x8, addend: 0x0, symName: __RINvMs0_NtCs9f3LFPSIp77_4core3fmtNtB6_9Arguments6new_v1Kj1_KBS_ECs2rQdhMmkUY8_5paste, symObjAddr: 0x28, symBinAddr: 0x18798, symSize: 0x50 }
  - { offset: 0x39735, size: 0x8, addend: 0x0, symName: __RINvMs0_NtCs9f3LFPSIp77_4core3fmtNtB6_9Arguments6new_v1Kj2_Kj1_ECs2rQdhMmkUY8_5paste, symObjAddr: 0x78, symBinAddr: 0x187E8, symSize: 0x54 }
  - { offset: 0x39CD8, size: 0x8, addend: 0x0, symName: __RNvMNtCsdze8u8oDPro_5alloc5allocNtB2_6Global10alloc_implCs2rQdhMmkUY8_5paste, symObjAddr: 0x2410, symBinAddr: 0x1AB80, symSize: 0x1BC }
  - { offset: 0x3A0E9, size: 0x8, addend: 0x0, symName: __RNvMs3_NtNtNtCs9f3LFPSIp77_4core4iter8adapters8peekableINtB5_8PeekableNtNtCsjLJ1XWNSM6u_10proc_macro12token_stream8IntoIterE4peekCs2rQdhMmkUY8_5paste, symObjAddr: 0x25CC, symBinAddr: 0x1AD3C, symSize: 0x70 }
  - { offset: 0x3A164, size: 0x8, addend: 0x0, symName: __RNvMs8_CsjLJ1XWNSM6u_10proc_macroNtB5_11TokenStream3newCs2rQdhMmkUY8_5paste, symObjAddr: 0x263C, symBinAddr: 0x1ADAC, symSize: 0x8 }
  - { offset: 0x3A184, size: 0x8, addend: 0x0, symName: __RNvMsF_CsjLJ1XWNSM6u_10proc_macroNtB5_5Group4spanCs2rQdhMmkUY8_5paste, symObjAddr: 0x2644, symBinAddr: 0x1ADB4, symSize: 0x18 }
  - { offset: 0x3A1D0, size: 0x8, addend: 0x0, symName: __RNvMsF_CsjLJ1XWNSM6u_10proc_macroNtB5_5Group8set_spanCs2rQdhMmkUY8_5paste, symObjAddr: 0x265C, symBinAddr: 0x1ADCC, symSize: 0x38 }
  - { offset: 0x3A220, size: 0x8, addend: 0x0, symName: __RNvMsF_CsjLJ1XWNSM6u_10proc_macroNtB5_5Group9delimiterCs2rQdhMmkUY8_5paste, symObjAddr: 0x2694, symBinAddr: 0x1AE04, symSize: 0x18 }
  - { offset: 0x3A250, size: 0x8, addend: 0x0, symName: __RNvMsL_CsjLJ1XWNSM6u_10proc_macroNtB5_5Punct4spanCs2rQdhMmkUY8_5paste, symObjAddr: 0x26AC, symBinAddr: 0x1AE1C, symSize: 0x18 }
  - { offset: 0x3A273, size: 0x8, addend: 0x0, symName: __RNvMsL_CsjLJ1XWNSM6u_10proc_macroNtB5_5Punct7as_charCs2rQdhMmkUY8_5paste, symObjAddr: 0x26C4, symBinAddr: 0x1AE34, symSize: 0x18 }
  - { offset: 0x3A296, size: 0x8, addend: 0x0, symName: __RNvMsL_CsjLJ1XWNSM6u_10proc_macroNtB5_5Punct7spacingCs2rQdhMmkUY8_5paste, symObjAddr: 0x26DC, symBinAddr: 0x1AE4C, symSize: 0x3C }
  - { offset: 0x3A2C6, size: 0x8, addend: 0x0, symName: __RNvMsL_CsjLJ1XWNSM6u_10proc_macroNtB5_5Punct8set_spanCs2rQdhMmkUY8_5paste, symObjAddr: 0x2718, symBinAddr: 0x1AE88, symSize: 0x1C }
  - { offset: 0x3A305, size: 0x8, addend: 0x0, symName: __RNvMsR_CsjLJ1XWNSM6u_10proc_macroNtB5_5Ident4spanCs2rQdhMmkUY8_5paste, symObjAddr: 0x2734, symBinAddr: 0x1AEA4, symSize: 0x18 }
  - { offset: 0x3A335, size: 0x8, addend: 0x0, symName: __RNvMsV_CsjLJ1XWNSM6u_10proc_macroNtB5_7Literal4spanCs2rQdhMmkUY8_5paste, symObjAddr: 0x274C, symBinAddr: 0x1AEBC, symSize: 0x18 }
  - { offset: 0x3A365, size: 0x8, addend: 0x0, symName: __RNvMsV_CsjLJ1XWNSM6u_10proc_macroNtB5_7Literal8set_spanCs2rQdhMmkUY8_5paste, symObjAddr: 0x2764, symBinAddr: 0x1AED4, symSize: 0x1C }
  - { offset: 0x3A3E3, size: 0x8, addend: 0x0, symName: __RNvMsv_CsjLJ1XWNSM6u_10proc_macroNtB5_9TokenTree4spanCs2rQdhMmkUY8_5paste, symObjAddr: 0x2780, symBinAddr: 0x1AEF0, symSize: 0xCC }
  - { offset: 0x3A5A8, size: 0x8, addend: 0x0, symName: __RNvMsv_CsjLJ1XWNSM6u_10proc_macroNtB5_9TokenTree8set_spanCs2rQdhMmkUY8_5paste, symObjAddr: 0x284C, symBinAddr: 0x1AFBC, symSize: 0xEC }
  - { offset: 0x3B683, size: 0x8, addend: 0x0, symName: ___llvm_profile_set_timestamp, symObjAddr: 0x0, symBinAddr: 0x1C29C, symSize: 0x28 }
  - { offset: 0x3B68B, size: 0x8, addend: 0x0, symName: ___llvm_profile_global_timestamp, symObjAddr: 0x130, symBinAddr: 0x134618, symSize: 0x0 }
  - { offset: 0x3B6A0, size: 0x8, addend: 0x0, symName: ___llvm_profile_global_timestamp, symObjAddr: 0x130, symBinAddr: 0x134618, symSize: 0x0 }
  - { offset: 0x3B725, size: 0x8, addend: 0x0, symName: ___llvm_profile_set_timestamp, symObjAddr: 0x0, symBinAddr: 0x1C29C, symSize: 0x28 }
  - { offset: 0x3B72D, size: 0x8, addend: 0x0, symName: ___llvm_profile_get_magic, symObjAddr: 0x28, symBinAddr: 0x1C2C4, symSize: 0x14 }
  - { offset: 0x3B750, size: 0x8, addend: 0x0, symName: ___llvm_profile_get_magic, symObjAddr: 0x28, symBinAddr: 0x1C2C4, symSize: 0x14 }
  - { offset: 0x3B758, size: 0x8, addend: 0x0, symName: ___llvm_profile_set_dumped, symObjAddr: 0x3C, symBinAddr: 0x1C2D8, symSize: 0x8 }
  - { offset: 0x3B771, size: 0x8, addend: 0x0, symName: ___llvm_profile_set_dumped, symObjAddr: 0x3C, symBinAddr: 0x1C2D8, symSize: 0x8 }
  - { offset: 0x3B779, size: 0x8, addend: 0x0, symName: ___llvm_profile_get_num_padding_bytes, symObjAddr: 0x44, symBinAddr: 0x1C2E0, symSize: 0xC }
  - { offset: 0x3B78D, size: 0x8, addend: 0x0, symName: ___llvm_profile_get_num_padding_bytes, symObjAddr: 0x44, symBinAddr: 0x1C2E0, symSize: 0xC }
  - { offset: 0x3B795, size: 0x8, addend: 0x0, symName: ___llvm_profile_get_version, symObjAddr: 0x50, symBinAddr: 0x1C2EC, symSize: 0xC }
  - { offset: 0x3B7BE, size: 0x8, addend: 0x0, symName: ___llvm_profile_get_version, symObjAddr: 0x50, symBinAddr: 0x1C2EC, symSize: 0xC }
  - { offset: 0x3B7C6, size: 0x8, addend: 0x0, symName: ___llvm_profile_reset_counters, symObjAddr: 0x5C, symBinAddr: 0x1C2F8, symSize: 0xD4 }
  - { offset: 0x3B7E5, size: 0x8, addend: 0x0, symName: ___llvm_profile_reset_counters, symObjAddr: 0x5C, symBinAddr: 0x1C2F8, symSize: 0xD4 }
  - { offset: 0x3B7ED, size: 0x8, addend: 0x0, symName: ___llvm_profile_global_timestamp, symObjAddr: 0x130, symBinAddr: 0x134618, symSize: 0x0 }
  - { offset: 0x3BA20, size: 0x8, addend: 0x0, symName: ___llvm_profile_is_continuous_mode_enabled, symObjAddr: 0x0, symBinAddr: 0x1C3CC, symSize: 0x20 }
  - { offset: 0x3BA3D, size: 0x8, addend: 0x0, symName: __MergedGlobals, symObjAddr: 0x3E20, symBinAddr: 0x13E920, symSize: 0x0 }
  - { offset: 0x3BA5F, size: 0x8, addend: 0x0, symName: __MergedGlobals, symObjAddr: 0x3E20, symBinAddr: 0x13E920, symSize: 0x0 }
  - { offset: 0x3BA8F, size: 0x8, addend: 0x0, symName: ___llvm_profile_is_continuous_mode_enabled, symObjAddr: 0x0, symBinAddr: 0x1C3CC, symSize: 0x20 }
  - { offset: 0x3BA97, size: 0x8, addend: 0x0, symName: ___llvm_profile_enable_continuous_mode, symObjAddr: 0x20, symBinAddr: 0x1C3EC, symSize: 0x10 }
  - { offset: 0x3BAA7, size: 0x8, addend: 0x0, symName: ___llvm_profile_enable_continuous_mode, symObjAddr: 0x20, symBinAddr: 0x1C3EC, symSize: 0x10 }
  - { offset: 0x3BAAF, size: 0x8, addend: 0x0, symName: ___llvm_profile_disable_continuous_mode, symObjAddr: 0x30, symBinAddr: 0x1C3FC, symSize: 0xC }
  - { offset: 0x3BAC4, size: 0x8, addend: 0x0, symName: ___llvm_profile_disable_continuous_mode, symObjAddr: 0x30, symBinAddr: 0x1C3FC, symSize: 0xC }
  - { offset: 0x3BACC, size: 0x8, addend: 0x0, symName: ___llvm_profile_set_page_size, symObjAddr: 0x3C, symBinAddr: 0x1C408, symSize: 0xC }
  - { offset: 0x3BAE1, size: 0x8, addend: 0x0, symName: ___llvm_profile_set_page_size, symObjAddr: 0x3C, symBinAddr: 0x1C408, symSize: 0xC }
  - { offset: 0x3BAE9, size: 0x8, addend: 0x0, symName: ___llvm_profile_get_size_for_buffer, symObjAddr: 0x48, symBinAddr: 0x1C414, symSize: 0xC4 }
  - { offset: 0x3BB0C, size: 0x8, addend: 0x0, symName: ___llvm_profile_get_size_for_buffer, symObjAddr: 0x48, symBinAddr: 0x1C414, symSize: 0xC4 }
  - { offset: 0x3BB14, size: 0x8, addend: 0x0, symName: ___llvm_profile_get_size_for_buffer_internal, symObjAddr: 0x10C, symBinAddr: 0x1C4D8, symSize: 0x1C0 }
  - { offset: 0x3BF77, size: 0x8, addend: 0x0, symName: ___llvm_profile_get_size_for_buffer_internal, symObjAddr: 0x10C, symBinAddr: 0x1C4D8, symSize: 0x1C0 }
  - { offset: 0x3BF7F, size: 0x8, addend: 0x0, symName: ___llvm_profile_get_num_data, symObjAddr: 0x2CC, symBinAddr: 0x1C698, symSize: 0x10 }
  - { offset: 0x3C36E, size: 0x8, addend: 0x0, symName: ___llvm_profile_get_num_data, symObjAddr: 0x2CC, symBinAddr: 0x1C698, symSize: 0x10 }
  - { offset: 0x3C376, size: 0x8, addend: 0x0, symName: ___llvm_profile_get_data_size, symObjAddr: 0x2DC, symBinAddr: 0x1C6A8, symSize: 0x10 }
  - { offset: 0x3C3A7, size: 0x8, addend: 0x0, symName: ___llvm_profile_get_data_size, symObjAddr: 0x2DC, symBinAddr: 0x1C6A8, symSize: 0x10 }
  - { offset: 0x3C3AF, size: 0x8, addend: 0x0, symName: ___llvm_profile_get_num_vtable, symObjAddr: 0x2EC, symBinAddr: 0x1C6B8, symSize: 0x18 }
  - { offset: 0x3C3D3, size: 0x8, addend: 0x0, symName: ___llvm_profile_get_data_size, symObjAddr: 0x2DC, symBinAddr: 0x1C6A8, symSize: 0x10 }
  - { offset: 0x3C405, size: 0x8, addend: 0x0, symName: ___llvm_profile_get_num_vtable, symObjAddr: 0x2EC, symBinAddr: 0x1C6B8, symSize: 0x18 }
  - { offset: 0x3C40D, size: 0x8, addend: 0x0, symName: ___llvm_profile_get_vtable_section_size, symObjAddr: 0x304, symBinAddr: 0x1C6D0, symSize: 0x8 }
  - { offset: 0x3C45F, size: 0x8, addend: 0x0, symName: ___llvm_profile_get_vtable_section_size, symObjAddr: 0x304, symBinAddr: 0x1C6D0, symSize: 0x8 }
  - { offset: 0x3C467, size: 0x8, addend: 0x0, symName: ___llvm_profile_counter_entry_size, symObjAddr: 0x30C, symBinAddr: 0x1C6D8, symSize: 0x1C }
  - { offset: 0x3C488, size: 0x8, addend: 0x0, symName: ___llvm_profile_counter_entry_size, symObjAddr: 0x30C, symBinAddr: 0x1C6D8, symSize: 0x1C }
  - { offset: 0x3C490, size: 0x8, addend: 0x0, symName: ___llvm_profile_get_num_counters, symObjAddr: 0x328, symBinAddr: 0x1C6F4, symSize: 0x48 }
  - { offset: 0x3C4A0, size: 0x8, addend: 0x0, symName: ___llvm_profile_get_num_counters, symObjAddr: 0x328, symBinAddr: 0x1C6F4, symSize: 0x48 }
  - { offset: 0x3C4A8, size: 0x8, addend: 0x0, symName: ___llvm_profile_get_counters_size, symObjAddr: 0x370, symBinAddr: 0x1C73C, symSize: 0x5C }
  - { offset: 0x3C50D, size: 0x8, addend: 0x0, symName: ___llvm_profile_get_counters_size, symObjAddr: 0x370, symBinAddr: 0x1C73C, symSize: 0x5C }
  - { offset: 0x3C515, size: 0x8, addend: 0x0, symName: ___llvm_profile_get_num_bitmap_bytes, symObjAddr: 0x3CC, symBinAddr: 0x1C798, symSize: 0x8 }
  - { offset: 0x3C5B9, size: 0x8, addend: 0x0, symName: ___llvm_profile_get_num_bitmap_bytes, symObjAddr: 0x3CC, symBinAddr: 0x1C798, symSize: 0x8 }
  - { offset: 0x3C5C1, size: 0x8, addend: 0x0, symName: ___llvm_profile_get_name_size, symObjAddr: 0x3D4, symBinAddr: 0x1C7A0, symSize: 0x8 }
  - { offset: 0x3C5E2, size: 0x8, addend: 0x0, symName: ___llvm_profile_get_name_size, symObjAddr: 0x3D4, symBinAddr: 0x1C7A0, symSize: 0x8 }
  - { offset: 0x3C5EA, size: 0x8, addend: 0x0, symName: ___llvm_profile_get_padding_sizes_for_counters, symObjAddr: 0x3DC, symBinAddr: 0x1C7A8, symSize: 0x15C }
  - { offset: 0x3C60B, size: 0x8, addend: 0x0, symName: ___llvm_profile_get_padding_sizes_for_counters, symObjAddr: 0x3DC, symBinAddr: 0x1C7A8, symSize: 0x15C }
  - { offset: 0x3C613, size: 0x8, addend: 0x0, symName: _initBufferWriter, symObjAddr: 0x538, symBinAddr: 0x1C904, symSize: 0x10 }
  - { offset: 0x3C767, size: 0x8, addend: 0x0, symName: _initBufferWriter, symObjAddr: 0x538, symBinAddr: 0x1C904, symSize: 0x10 }
  - { offset: 0x3C76F, size: 0x8, addend: 0x0, symName: ___llvm_profile_write_buffer, symObjAddr: 0x548, symBinAddr: 0x1C914, symSize: 0x30 }
  - { offset: 0x3C86C, size: 0x8, addend: 0x0, symName: ___llvm_profile_write_buffer, symObjAddr: 0x548, symBinAddr: 0x1C914, symSize: 0x30 }
  - { offset: 0x3C874, size: 0x8, addend: 0x0, symName: ___llvm_profile_write_buffer_internal, symObjAddr: 0x578, symBinAddr: 0x1C944, symSize: 0x40 }
  - { offset: 0x3C8D2, size: 0x8, addend: 0x0, symName: ___llvm_profile_write_buffer_internal, symObjAddr: 0x578, symBinAddr: 0x1C944, symSize: 0x40 }
  - { offset: 0x3C9D6, size: 0x8, addend: 0x0, symName: _lprofCreateBufferIOInternal, symObjAddr: 0x0, symBinAddr: 0x1C984, symSize: 0x74 }
  - { offset: 0x3CA01, size: 0x8, addend: 0x0, symName: ___llvm_profile_register_write_file_atexit, symObjAddr: 0xBF8, symBinAddr: 0x1D57C, symSize: 0x44 }
  - { offset: 0x3CA09, size: 0x8, addend: 0x0, symName: ___llvm_profile_set_filename, symObjAddr: 0xC3C, symBinAddr: 0x1D5C0, symSize: 0x38 }
  - { offset: 0x3CA26, size: 0x8, addend: 0x0, symName: ___llvm_profile_register_write_file_atexit.HasBeenRegistered, symObjAddr: 0xA4E8, symBinAddr: 0x13E928, symSize: 0x0 }
  - { offset: 0x3CA49, size: 0x8, addend: 0x0, symName: __MergedGlobals, symObjAddr: 0xA4F0, symBinAddr: 0x13E930, symSize: 0x0 }
  - { offset: 0x3CB66, size: 0x8, addend: 0x0, symName: __MergedGlobals, symObjAddr: 0xA4F0, symBinAddr: 0x13E930, symSize: 0x0 }
  - { offset: 0x3CD97, size: 0x8, addend: 0x0, symName: __MergedGlobals, symObjAddr: 0xA4F0, symBinAddr: 0x13E930, symSize: 0x0 }
  - { offset: 0x3CECE, size: 0x8, addend: 0x0, symName: _lprofCreateBufferIOInternal, symObjAddr: 0x0, symBinAddr: 0x1C984, symSize: 0x74 }
  - { offset: 0x3CED6, size: 0x8, addend: 0x0, symName: ___llvm_profile_get_path_prefix, symObjAddr: 0x74, symBinAddr: 0x1C9F8, symSize: 0x154 }
  - { offset: 0x3CF5F, size: 0x8, addend: 0x0, symName: ___llvm_profile_get_path_prefix, symObjAddr: 0x74, symBinAddr: 0x1C9F8, symSize: 0x154 }
  - { offset: 0x3CF67, size: 0x8, addend: 0x0, symName: _getCurFilenameLength, symObjAddr: 0x1C8, symBinAddr: 0x1CB4C, symSize: 0x108 }
  - { offset: 0x3CFD7, size: 0x8, addend: 0x0, symName: _getCurFilenameLength, symObjAddr: 0x1C8, symBinAddr: 0x1CB4C, symSize: 0x108 }
  - { offset: 0x3CFDF, size: 0x8, addend: 0x0, symName: _getCurFilename, symObjAddr: 0x2D0, symBinAddr: 0x1CC54, symSize: 0x2B8 }
  - { offset: 0x3D05F, size: 0x8, addend: 0x0, symName: _getCurFilename, symObjAddr: 0x2D0, symBinAddr: 0x1CC54, symSize: 0x2B8 }
  - { offset: 0x3D067, size: 0x8, addend: 0x0, symName: ___llvm_profile_get_filename, symObjAddr: 0x588, symBinAddr: 0x1CF0C, symSize: 0x88 }
  - { offset: 0x3D18E, size: 0x8, addend: 0x0, symName: ___llvm_profile_get_filename, symObjAddr: 0x588, symBinAddr: 0x1CF0C, symSize: 0x88 }
  - { offset: 0x3D196, size: 0x8, addend: 0x0, symName: ___llvm_profile_initialize_file, symObjAddr: 0x610, symBinAddr: 0x1CF94, symSize: 0x78 }
  - { offset: 0x3D200, size: 0x8, addend: 0x0, symName: ___llvm_profile_initialize_file, symObjAddr: 0x610, symBinAddr: 0x1CF94, symSize: 0x78 }
  - { offset: 0x3D208, size: 0x8, addend: 0x0, symName: _parseAndSetFilename, symObjAddr: 0x688, symBinAddr: 0x1D00C, symSize: 0x4B8 }
  - { offset: 0x3D339, size: 0x8, addend: 0x0, symName: _parseAndSetFilename, symObjAddr: 0x688, symBinAddr: 0x1D00C, symSize: 0x4B8 }
  - { offset: 0x3D341, size: 0x8, addend: 0x0, symName: ___llvm_profile_initialize, symObjAddr: 0xB40, symBinAddr: 0x1D4C4, symSize: 0xB8 }
  - { offset: 0x3D525, size: 0x8, addend: 0x0, symName: ___llvm_profile_initialize, symObjAddr: 0xB40, symBinAddr: 0x1D4C4, symSize: 0xB8 }
  - { offset: 0x3D52D, size: 0x8, addend: 0x0, symName: ___llvm_profile_register_write_file_atexit, symObjAddr: 0xBF8, symBinAddr: 0x1D57C, symSize: 0x44 }
  - { offset: 0x3D5A1, size: 0x8, addend: 0x0, symName: ___llvm_profile_set_filename, symObjAddr: 0xC3C, symBinAddr: 0x1D5C0, symSize: 0x38 }
  - { offset: 0x3D5A9, size: 0x8, addend: 0x0, symName: ___llvm_profile_write_file, symObjAddr: 0xC74, symBinAddr: 0x1D5F8, symSize: 0x1B4 }
  - { offset: 0x3D5D2, size: 0x8, addend: 0x0, symName: ___llvm_profile_write_file, symObjAddr: 0xC74, symBinAddr: 0x1D5F8, symSize: 0x1B4 }
  - { offset: 0x3D5DA, size: 0x8, addend: 0x0, symName: _writeFile, symObjAddr: 0xE28, symBinAddr: 0x1D7AC, symSize: 0x294 }
  - { offset: 0x3D72F, size: 0x8, addend: 0x0, symName: _writeFile, symObjAddr: 0xE28, symBinAddr: 0x1D7AC, symSize: 0x294 }
  - { offset: 0x3D737, size: 0x8, addend: 0x0, symName: ___llvm_profile_dump, symObjAddr: 0x10BC, symBinAddr: 0x1DA40, symSize: 0x6C }
  - { offset: 0x3D89D, size: 0x8, addend: 0x0, symName: ___llvm_profile_dump, symObjAddr: 0x10BC, symBinAddr: 0x1DA40, symSize: 0x6C }
  - { offset: 0x3D8A5, size: 0x8, addend: 0x0, symName: ___llvm_orderfile_write_file, symObjAddr: 0x1128, symBinAddr: 0x1DAAC, symSize: 0x260 }
  - { offset: 0x3D960, size: 0x8, addend: 0x0, symName: ___llvm_orderfile_write_file, symObjAddr: 0x1128, symBinAddr: 0x1DAAC, symSize: 0x260 }
  - { offset: 0x3D968, size: 0x8, addend: 0x0, symName: ___llvm_orderfile_dump, symObjAddr: 0x1388, symBinAddr: 0x1DD0C, symSize: 0x4 }
  - { offset: 0x3DA65, size: 0x8, addend: 0x0, symName: ___llvm_orderfile_dump, symObjAddr: 0x1388, symBinAddr: 0x1DD0C, symSize: 0x4 }
  - { offset: 0x3DA6D, size: 0x8, addend: 0x0, symName: _writeFileWithoutReturn, symObjAddr: 0x138C, symBinAddr: 0x1DD10, symSize: 0x4 }
  - { offset: 0x3DA95, size: 0x8, addend: 0x0, symName: _writeFileWithoutReturn, symObjAddr: 0x138C, symBinAddr: 0x1DD10, symSize: 0x4 }
  - { offset: 0x3DA9D, size: 0x8, addend: 0x0, symName: ___llvm_profile_set_file_object, symObjAddr: 0x1390, symBinAddr: 0x1DD14, symSize: 0x1E4 }
  - { offset: 0x3DAE5, size: 0x8, addend: 0x0, symName: ___llvm_profile_set_file_object, symObjAddr: 0x1390, symBinAddr: 0x1DD14, symSize: 0x1E4 }
  - { offset: 0x3DAED, size: 0x8, addend: 0x0, symName: _getProfileFileSizeForMerging, symObjAddr: 0x1574, symBinAddr: 0x1DEF8, symSize: 0x110 }
  - { offset: 0x3DC0C, size: 0x8, addend: 0x0, symName: _getProfileFileSizeForMerging, symObjAddr: 0x1574, symBinAddr: 0x1DEF8, symSize: 0x110 }
  - { offset: 0x3DC14, size: 0x8, addend: 0x0, symName: _mmapProfileForMerging, symObjAddr: 0x1684, symBinAddr: 0x1E008, symSize: 0xBC }
  - { offset: 0x3DC51, size: 0x8, addend: 0x0, symName: _mmapProfileForMerging, symObjAddr: 0x1684, symBinAddr: 0x1E008, symSize: 0xBC }
  - { offset: 0x3DC59, size: 0x8, addend: 0x0, symName: _mmapForContinuousMode, symObjAddr: 0x1740, symBinAddr: 0x1E0C4, symSize: 0x264 }
  - { offset: 0x3DCA7, size: 0x8, addend: 0x0, symName: _mmapForContinuousMode, symObjAddr: 0x1740, symBinAddr: 0x1E0C4, symSize: 0x264 }
  - { offset: 0x3DCAF, size: 0x8, addend: 0x0, symName: _fileWriter, symObjAddr: 0x19A4, symBinAddr: 0x1E328, symSize: 0x140 }
  - { offset: 0x3DE6E, size: 0x8, addend: 0x0, symName: _fileWriter, symObjAddr: 0x19A4, symBinAddr: 0x1E328, symSize: 0x140 }
  - { offset: 0x3DE76, size: 0x8, addend: 0x0, symName: _truncateCurrentFile, symObjAddr: 0x1AE4, symBinAddr: 0x1E468, symSize: 0xD8 }
  - { offset: 0x3DF3C, size: 0x8, addend: 0x0, symName: _truncateCurrentFile, symObjAddr: 0x1AE4, symBinAddr: 0x1E468, symSize: 0xD8 }
  - { offset: 0x3DF44, size: 0x8, addend: 0x0, symName: _initializeProfileForContinuousMode, symObjAddr: 0x1BBC, symBinAddr: 0x1E540, symSize: 0x25C }
  - { offset: 0x3DFE0, size: 0x8, addend: 0x0, symName: _initializeProfileForContinuousMode, symObjAddr: 0x1BBC, symBinAddr: 0x1E540, symSize: 0x25C }
  - { offset: 0x3DFE8, size: 0x8, addend: 0x0, symName: _createProfileDir, symObjAddr: 0x1E18, symBinAddr: 0x1E79C, symSize: 0xA4 }
  - { offset: 0x3E1B4, size: 0x8, addend: 0x0, symName: _createProfileDir, symObjAddr: 0x1E18, symBinAddr: 0x1E79C, symSize: 0xA4 }
  - { offset: 0x3E1BC, size: 0x8, addend: 0x0, symName: _parseAndSetFilename.cold.1, symObjAddr: 0x1EBC, symBinAddr: 0xCF10C, symSize: 0x24 }
  - { offset: 0x3E218, size: 0x8, addend: 0x0, symName: _parseAndSetFilename.cold.1, symObjAddr: 0x1EBC, symBinAddr: 0xCF10C, symSize: 0x24 }
  - { offset: 0x3E220, size: 0x8, addend: 0x0, symName: _parseAndSetFilename.cold.2, symObjAddr: 0x1EE0, symBinAddr: 0xCF130, symSize: 0x24 }
  - { offset: 0x3E242, size: 0x8, addend: 0x0, symName: _parseAndSetFilename.cold.2, symObjAddr: 0x1EE0, symBinAddr: 0xCF130, symSize: 0x24 }
  - { offset: 0x3E25C, size: 0x8, addend: 0x0, symName: _parseAndSetFilename.cold.2, symObjAddr: 0x1EE0, symBinAddr: 0xCF130, symSize: 0x24 }
  - { offset: 0x3E26C, size: 0x8, addend: 0x0, symName: _parseAndSetFilename.cold.2, symObjAddr: 0x1EE0, symBinAddr: 0xCF130, symSize: 0x24 }
  - { offset: 0x3E430, size: 0x8, addend: 0x0, symName: _lprofProfileDumped, symObjAddr: 0x0, symBinAddr: 0x1E840, symSize: 0xC }
  - { offset: 0x3E44D, size: 0x8, addend: 0x0, symName: _ProfileDumped, symObjAddr: 0x4E0, symBinAddr: 0x13EA00, symSize: 0x0 }
  - { offset: 0x3E45D, size: 0x8, addend: 0x0, symName: _lprofProfileDumped, symObjAddr: 0x0, symBinAddr: 0x1E840, symSize: 0xC }
  - { offset: 0x3E465, size: 0x8, addend: 0x0, symName: _lprofSetProfileDumped, symObjAddr: 0xC, symBinAddr: 0x1E84C, symSize: 0xC }
  - { offset: 0x3E47E, size: 0x8, addend: 0x0, symName: _lprofSetProfileDumped, symObjAddr: 0xC, symBinAddr: 0x1E84C, symSize: 0xC }
  - { offset: 0x3E4D0, size: 0x8, addend: 0x0, symName: _lprofGetLoadModuleSignature, symObjAddr: 0x0, symBinAddr: 0x1E858, symSize: 0xD0 }
  - { offset: 0x3E4FD, size: 0x8, addend: 0x0, symName: _VPMergeHook, symBinAddr: 0x13E8A8, symSize: 0x0 }
  - { offset: 0x3E761, size: 0x8, addend: 0x0, symName: _lprofGetLoadModuleSignature, symObjAddr: 0x0, symBinAddr: 0x1E858, symSize: 0xD0 }
  - { offset: 0x3E769, size: 0x8, addend: 0x0, symName: ___llvm_profile_check_compatibility, symObjAddr: 0xD0, symBinAddr: 0x1E928, symSize: 0x1CC }
  - { offset: 0x3E7D8, size: 0x8, addend: 0x0, symName: ___llvm_profile_check_compatibility, symObjAddr: 0xD0, symBinAddr: 0x1E928, symSize: 0x1CC }
  - { offset: 0x3E7E0, size: 0x8, addend: 0x0, symName: ___llvm_profile_merge_from_buffer, symObjAddr: 0x29C, symBinAddr: 0x1EAF4, symSize: 0x48C }
  - { offset: 0x3E8B8, size: 0x8, addend: 0x0, symName: ___llvm_profile_merge_from_buffer, symObjAddr: 0x29C, symBinAddr: 0x1EAF4, symSize: 0x48C }
  - { offset: 0x3EB1C, size: 0x8, addend: 0x0, symName: _lprofMergeValueProfData, symObjAddr: 0x0, symBinAddr: 0x1EF80, symSize: 0xF0 }
  - { offset: 0x3EB2D, size: 0x8, addend: 0x0, symName: _lprofMergeValueProfData, symObjAddr: 0x0, symBinAddr: 0x1EF80, symSize: 0xF0 }
  - { offset: 0x3EDF8, size: 0x8, addend: 0x0, symName: ___llvm_profile_begin_data, symObjAddr: 0x0, symBinAddr: 0x1F070, symSize: 0xC }
  - { offset: 0x3EE17, size: 0x8, addend: 0x0, symName: _CurrentVNode, symObjAddr: 0xC0, symBinAddr: 0x134620, symSize: 0x0 }
  - { offset: 0x3EE93, size: 0x8, addend: 0x0, symName: _EndVNode, symObjAddr: 0xC8, symBinAddr: 0x134628, symSize: 0x0 }
  - { offset: 0x3EE9C, size: 0x8, addend: 0x0, symName: ___llvm_profile_begin_data, symObjAddr: 0x0, symBinAddr: 0x1F070, symSize: 0xC }
  - { offset: 0x3EEA4, size: 0x8, addend: 0x0, symName: ___llvm_profile_end_data, symObjAddr: 0xC, symBinAddr: 0x1F07C, symSize: 0xC }
  - { offset: 0x3EEBD, size: 0x8, addend: 0x0, symName: ___llvm_profile_end_data, symObjAddr: 0xC, symBinAddr: 0x1F07C, symSize: 0xC }
  - { offset: 0x3EEC5, size: 0x8, addend: 0x0, symName: ___llvm_profile_begin_names, symObjAddr: 0x18, symBinAddr: 0x1F088, symSize: 0xC }
  - { offset: 0x3EEDE, size: 0x8, addend: 0x0, symName: ___llvm_profile_begin_names, symObjAddr: 0x18, symBinAddr: 0x1F088, symSize: 0xC }
  - { offset: 0x3EEE6, size: 0x8, addend: 0x0, symName: ___llvm_profile_end_names, symObjAddr: 0x24, symBinAddr: 0x1F094, symSize: 0xC }
  - { offset: 0x3EEFF, size: 0x8, addend: 0x0, symName: ___llvm_profile_end_names, symObjAddr: 0x24, symBinAddr: 0x1F094, symSize: 0xC }
  - { offset: 0x3EF07, size: 0x8, addend: 0x0, symName: ___llvm_profile_begin_counters, symObjAddr: 0x30, symBinAddr: 0x1F0A0, symSize: 0xC }
  - { offset: 0x3EF20, size: 0x8, addend: 0x0, symName: ___llvm_profile_begin_counters, symObjAddr: 0x30, symBinAddr: 0x1F0A0, symSize: 0xC }
  - { offset: 0x3EF28, size: 0x8, addend: 0x0, symName: ___llvm_profile_end_counters, symObjAddr: 0x3C, symBinAddr: 0x1F0AC, symSize: 0xC }
  - { offset: 0x3EF41, size: 0x8, addend: 0x0, symName: ___llvm_profile_end_counters, symObjAddr: 0x3C, symBinAddr: 0x1F0AC, symSize: 0xC }
  - { offset: 0x3EF49, size: 0x8, addend: 0x0, symName: ___llvm_profile_begin_bitmap, symObjAddr: 0x48, symBinAddr: 0x1F0B8, symSize: 0xC }
  - { offset: 0x3EF62, size: 0x8, addend: 0x0, symName: ___llvm_profile_begin_bitmap, symObjAddr: 0x48, symBinAddr: 0x1F0B8, symSize: 0xC }
  - { offset: 0x3EF6A, size: 0x8, addend: 0x0, symName: ___llvm_profile_end_bitmap, symObjAddr: 0x54, symBinAddr: 0x1F0C4, symSize: 0xC }
  - { offset: 0x3EF83, size: 0x8, addend: 0x0, symName: ___llvm_profile_end_bitmap, symObjAddr: 0x54, symBinAddr: 0x1F0C4, symSize: 0xC }
  - { offset: 0x3EF8B, size: 0x8, addend: 0x0, symName: ___llvm_profile_begin_vtables, symObjAddr: 0x60, symBinAddr: 0x1F0D0, symSize: 0xC }
  - { offset: 0x3EFA5, size: 0x8, addend: 0x0, symName: ___llvm_profile_begin_vtables, symObjAddr: 0x60, symBinAddr: 0x1F0D0, symSize: 0xC }
  - { offset: 0x3EFAD, size: 0x8, addend: 0x0, symName: ___llvm_profile_end_vtables, symObjAddr: 0x6C, symBinAddr: 0x1F0DC, symSize: 0xC }
  - { offset: 0x3EFC6, size: 0x8, addend: 0x0, symName: ___llvm_profile_end_vtables, symObjAddr: 0x6C, symBinAddr: 0x1F0DC, symSize: 0xC }
  - { offset: 0x3EFCE, size: 0x8, addend: 0x0, symName: ___llvm_profile_begin_vtabnames, symObjAddr: 0x78, symBinAddr: 0x1F0E8, symSize: 0xC }
  - { offset: 0x3EFE6, size: 0x8, addend: 0x0, symName: ___llvm_profile_begin_vtabnames, symObjAddr: 0x78, symBinAddr: 0x1F0E8, symSize: 0xC }
  - { offset: 0x3EFEE, size: 0x8, addend: 0x0, symName: ___llvm_profile_end_vtabnames, symObjAddr: 0x84, symBinAddr: 0x1F0F4, symSize: 0xC }
  - { offset: 0x3F007, size: 0x8, addend: 0x0, symName: ___llvm_profile_end_vtabnames, symObjAddr: 0x84, symBinAddr: 0x1F0F4, symSize: 0xC }
  - { offset: 0x3F00F, size: 0x8, addend: 0x0, symName: ___llvm_profile_begin_orderfile, symObjAddr: 0x90, symBinAddr: 0x1F100, symSize: 0xC }
  - { offset: 0x3F029, size: 0x8, addend: 0x0, symName: ___llvm_profile_begin_orderfile, symObjAddr: 0x90, symBinAddr: 0x1F100, symSize: 0xC }
  - { offset: 0x3F031, size: 0x8, addend: 0x0, symName: ___llvm_profile_begin_vnodes, symObjAddr: 0x9C, symBinAddr: 0x1F10C, symSize: 0xC }
  - { offset: 0x3F04A, size: 0x8, addend: 0x0, symName: ___llvm_profile_begin_vnodes, symObjAddr: 0x9C, symBinAddr: 0x1F10C, symSize: 0xC }
  - { offset: 0x3F052, size: 0x8, addend: 0x0, symName: ___llvm_profile_end_vnodes, symObjAddr: 0xA8, symBinAddr: 0x1F118, symSize: 0xC }
  - { offset: 0x3F06B, size: 0x8, addend: 0x0, symName: ___llvm_profile_end_vnodes, symObjAddr: 0xA8, symBinAddr: 0x1F118, symSize: 0xC }
  - { offset: 0x3F073, size: 0x8, addend: 0x0, symName: ___llvm_write_binary_ids, symObjAddr: 0xB4, symBinAddr: 0x1F124, symSize: 0x8 }
  - { offset: 0x3F08B, size: 0x8, addend: 0x0, symName: ___llvm_write_binary_ids, symObjAddr: 0xB4, symBinAddr: 0x1F124, symSize: 0x8 }
  - { offset: 0x3F32A, size: 0x8, addend: 0x0, symName: ___llvm_profile_runtime, symObjAddr: 0x590, symBinAddr: 0x13E8B0, symSize: 0x0 }
  - { offset: 0x3F361, size: 0x8, addend: 0x0, symName: ___llvm_profile_recursive_mkdir, symObjAddr: 0x0, symBinAddr: 0x1F144, symSize: 0x58 }
  - { offset: 0x3F369, size: 0x8, addend: 0x0, symName: _lprofDirMode, symObjAddr: 0x5A8, symBinAddr: 0x134630, symSize: 0x0 }
  - { offset: 0x3F380, size: 0x8, addend: 0x0, symName: _lprofDirMode, symObjAddr: 0x5A8, symBinAddr: 0x134630, symSize: 0x0 }
  - { offset: 0x3F3C0, size: 0x8, addend: 0x0, symName: ___llvm_profile_recursive_mkdir, symObjAddr: 0x0, symBinAddr: 0x1F144, symSize: 0x58 }
  - { offset: 0x3F3C8, size: 0x8, addend: 0x0, symName: ___llvm_profile_get_dir_mode, symObjAddr: 0x58, symBinAddr: 0x1F19C, symSize: 0xC }
  - { offset: 0x3F43E, size: 0x8, addend: 0x0, symName: ___llvm_profile_get_dir_mode, symObjAddr: 0x58, symBinAddr: 0x1F19C, symSize: 0xC }
  - { offset: 0x3F446, size: 0x8, addend: 0x0, symName: ___llvm_profile_set_dir_mode, symObjAddr: 0x64, symBinAddr: 0x1F1A8, symSize: 0xC }
  - { offset: 0x3F456, size: 0x8, addend: 0x0, symName: ___llvm_profile_set_dir_mode, symObjAddr: 0x64, symBinAddr: 0x1F1A8, symSize: 0xC }
  - { offset: 0x3F45E, size: 0x8, addend: 0x0, symName: _lprofGetHostName, symObjAddr: 0x70, symBinAddr: 0x1F1B4, symSize: 0x80 }
  - { offset: 0x3F481, size: 0x8, addend: 0x0, symName: _lprofGetHostName, symObjAddr: 0x70, symBinAddr: 0x1F1B4, symSize: 0x80 }
  - { offset: 0x3F489, size: 0x8, addend: 0x0, symName: _lprofLockFd, symObjAddr: 0xF0, symBinAddr: 0x1F234, symSize: 0x8C }
  - { offset: 0x3F4DE, size: 0x8, addend: 0x0, symName: _lprofLockFd, symObjAddr: 0xF0, symBinAddr: 0x1F234, symSize: 0x8C }
  - { offset: 0x3F4E6, size: 0x8, addend: 0x0, symName: _lprofUnlockFd, symObjAddr: 0x17C, symBinAddr: 0x1F2C0, symSize: 0x8C }
  - { offset: 0x3F508, size: 0x8, addend: 0x0, symName: _lprofUnlockFd, symObjAddr: 0x17C, symBinAddr: 0x1F2C0, symSize: 0x8C }
  - { offset: 0x3F510, size: 0x8, addend: 0x0, symName: _lprofLockFileHandle, symObjAddr: 0x208, symBinAddr: 0x1F34C, symSize: 0x90 }
  - { offset: 0x3F60A, size: 0x8, addend: 0x0, symName: _lprofLockFileHandle, symObjAddr: 0x208, symBinAddr: 0x1F34C, symSize: 0x90 }
  - { offset: 0x3F612, size: 0x8, addend: 0x0, symName: _lprofUnlockFileHandle, symObjAddr: 0x298, symBinAddr: 0x1F3DC, symSize: 0x90 }
  - { offset: 0x3F698, size: 0x8, addend: 0x0, symName: _lprofUnlockFileHandle, symObjAddr: 0x298, symBinAddr: 0x1F3DC, symSize: 0x90 }
  - { offset: 0x3F6A0, size: 0x8, addend: 0x0, symName: _lprofOpenFileEx, symObjAddr: 0x328, symBinAddr: 0x1F46C, symSize: 0xD0 }
  - { offset: 0x3F700, size: 0x8, addend: 0x0, symName: _lprofOpenFileEx, symObjAddr: 0x328, symBinAddr: 0x1F46C, symSize: 0xD0 }
  - { offset: 0x3F708, size: 0x8, addend: 0x0, symName: _lprofGetPathPrefix, symObjAddr: 0x3F8, symBinAddr: 0x1F53C, symSize: 0x98 }
  - { offset: 0x3F777, size: 0x8, addend: 0x0, symName: _lprofGetPathPrefix, symObjAddr: 0x3F8, symBinAddr: 0x1F53C, symSize: 0x98 }
  - { offset: 0x3F77F, size: 0x8, addend: 0x0, symName: _lprofApplyPathPrefix, symObjAddr: 0x490, symBinAddr: 0x1F5D4, symSize: 0xA8 }
  - { offset: 0x3F7DC, size: 0x8, addend: 0x0, symName: _lprofApplyPathPrefix, symObjAddr: 0x490, symBinAddr: 0x1F5D4, symSize: 0xA8 }
  - { offset: 0x3F7E4, size: 0x8, addend: 0x0, symName: _lprofFindFirstDirSeparator, symObjAddr: 0x538, symBinAddr: 0x1F67C, symSize: 0x8 }
  - { offset: 0x3F87F, size: 0x8, addend: 0x0, symName: _lprofFindFirstDirSeparator, symObjAddr: 0x538, symBinAddr: 0x1F67C, symSize: 0x8 }
  - { offset: 0x3F887, size: 0x8, addend: 0x0, symName: _lprofFindLastDirSeparator, symObjAddr: 0x540, symBinAddr: 0x1F684, symSize: 0x8 }
  - { offset: 0x3F8BE, size: 0x8, addend: 0x0, symName: _lprofFindLastDirSeparator, symObjAddr: 0x540, symBinAddr: 0x1F684, symSize: 0x8 }
  - { offset: 0x3F8C6, size: 0x8, addend: 0x0, symName: _lprofSuspendSigKill, symObjAddr: 0x548, symBinAddr: 0x1F68C, symSize: 0x8 }
  - { offset: 0x3F8FD, size: 0x8, addend: 0x0, symName: _lprofSuspendSigKill, symObjAddr: 0x548, symBinAddr: 0x1F68C, symSize: 0x8 }
  - { offset: 0x3F905, size: 0x8, addend: 0x0, symName: _lprofRestoreSigKill, symObjAddr: 0x550, symBinAddr: 0x1F694, symSize: 0x4 }
  - { offset: 0x3F91F, size: 0x8, addend: 0x0, symName: _lprofRestoreSigKill, symObjAddr: 0x550, symBinAddr: 0x1F694, symSize: 0x4 }
  - { offset: 0x3F927, size: 0x8, addend: 0x0, symName: _lprofReleaseMemoryPagesToOS, symObjAddr: 0x554, symBinAddr: 0x1F698, symSize: 0x54 }
  - { offset: 0x3F99D, size: 0x8, addend: 0x0, symName: _lprofReleaseMemoryPagesToOS, symObjAddr: 0x554, symBinAddr: 0x1F698, symSize: 0x54 }
  - { offset: 0x3F9A5, size: 0x8, addend: 0x0, symName: _lprofDirMode, symObjAddr: 0x5A8, symBinAddr: 0x134630, symSize: 0x0 }
  - { offset: 0x3FCFA, size: 0x8, addend: 0x0, symName: _getValueProfRecordHeaderSize, symObjAddr: 0x0, symBinAddr: 0x1F6EC, symSize: 0xC }
  - { offset: 0x3FD19, size: 0x8, addend: 0x0, symName: _VPMaxNumValsPerSite, symObjAddr: 0x1740, symBinAddr: 0x134638, symSize: 0x0 }
  - { offset: 0x3FD50, size: 0x8, addend: 0x0, symName: _lprofValueProfNodes, symObjAddr: 0x18C0, symBinAddr: 0x138610, symSize: 0x0 }
  - { offset: 0x3FDD3, size: 0x8, addend: 0x0, symName: __MergedGlobals, symObjAddr: 0xEF68, symBinAddr: 0x13EA30, symSize: 0x0 }
  - { offset: 0x3FDFA, size: 0x8, addend: 0x0, symName: __MergedGlobals, symObjAddr: 0xEF68, symBinAddr: 0x13EA30, symSize: 0x0 }
  - { offset: 0x3FE11, size: 0x8, addend: 0x0, symName: __MergedGlobals, symObjAddr: 0xEF68, symBinAddr: 0x13EA30, symSize: 0x0 }
  - { offset: 0x3FE30, size: 0x8, addend: 0x0, symName: _TheVPDataReader, symObjAddr: 0x1748, symBinAddr: 0x134640, symSize: 0x0 }
  - { offset: 0x400D0, size: 0x8, addend: 0x0, symName: _RTRecord, symObjAddr: 0xEF40, symBinAddr: 0x13EA08, symSize: 0x0 }
  - { offset: 0x402C4, size: 0x8, addend: 0x0, symName: _getValueProfRecordHeaderSize, symObjAddr: 0x0, symBinAddr: 0x1F6EC, symSize: 0xC }
  - { offset: 0x402CC, size: 0x8, addend: 0x0, symName: _getValueProfRecordSize, symObjAddr: 0xC, symBinAddr: 0x1F6F8, symSize: 0x10 }
  - { offset: 0x40319, size: 0x8, addend: 0x0, symName: _getValueProfRecordSize, symObjAddr: 0xC, symBinAddr: 0x1F6F8, symSize: 0x10 }
  - { offset: 0x40321, size: 0x8, addend: 0x0, symName: _getValueProfRecordValueData, symObjAddr: 0x1C, symBinAddr: 0x1F708, symSize: 0x14 }
  - { offset: 0x40346, size: 0x8, addend: 0x0, symName: _getValueProfRecordSize, symObjAddr: 0xC, symBinAddr: 0x1F6F8, symSize: 0x10 }
  - { offset: 0x4036D, size: 0x8, addend: 0x0, symName: _getValueProfRecordValueData, symObjAddr: 0x1C, symBinAddr: 0x1F708, symSize: 0x14 }
  - { offset: 0x40375, size: 0x8, addend: 0x0, symName: _getValueProfRecordNumValueData, symObjAddr: 0x30, symBinAddr: 0x1F71C, symSize: 0x184 }
  - { offset: 0x403B9, size: 0x8, addend: 0x0, symName: _getValueProfRecordNumValueData, symObjAddr: 0x30, symBinAddr: 0x1F71C, symSize: 0x184 }
  - { offset: 0x403C1, size: 0x8, addend: 0x0, symName: _getValueProfRecordNext, symObjAddr: 0x1B4, symBinAddr: 0x1F8A0, symSize: 0x1A4 }
  - { offset: 0x4044D, size: 0x8, addend: 0x0, symName: _getValueProfRecordNext, symObjAddr: 0x1B4, symBinAddr: 0x1F8A0, symSize: 0x1A4 }
  - { offset: 0x40455, size: 0x8, addend: 0x0, symName: _getFirstValueProfRecord, symObjAddr: 0x358, symBinAddr: 0x1FA44, symSize: 0x8 }
  - { offset: 0x404BC, size: 0x8, addend: 0x0, symName: _getFirstValueProfRecord, symObjAddr: 0x358, symBinAddr: 0x1FA44, symSize: 0x8 }
  - { offset: 0x404C4, size: 0x8, addend: 0x0, symName: _getValueProfDataSize, symObjAddr: 0x360, symBinAddr: 0x1FA4C, symSize: 0xEC }
  - { offset: 0x404DE, size: 0x8, addend: 0x0, symName: _getValueProfDataSize, symObjAddr: 0x360, symBinAddr: 0x1FA4C, symSize: 0xEC }
  - { offset: 0x404E6, size: 0x8, addend: 0x0, symName: _serializeValueProfRecordFrom, symObjAddr: 0x44C, symBinAddr: 0x1FB38, symSize: 0x9C }
  - { offset: 0x4058B, size: 0x8, addend: 0x0, symName: _serializeValueProfRecordFrom, symObjAddr: 0x44C, symBinAddr: 0x1FB38, symSize: 0x9C }
  - { offset: 0x40593, size: 0x8, addend: 0x0, symName: _serializeValueProfDataFrom, symObjAddr: 0x4E8, symBinAddr: 0x1FBD4, symSize: 0x5CC }
  - { offset: 0x40756, size: 0x8, addend: 0x0, symName: _serializeValueProfDataFrom, symObjAddr: 0x4E8, symBinAddr: 0x1FBD4, symSize: 0x5CC }
  - { offset: 0x4075E, size: 0x8, addend: 0x0, symName: _InstProfClzll, symObjAddr: 0xAB4, symBinAddr: 0x201A0, symSize: 0x8 }
  - { offset: 0x40988, size: 0x8, addend: 0x0, symName: _InstProfClzll, symObjAddr: 0xAB4, symBinAddr: 0x201A0, symSize: 0x8 }
  - { offset: 0x40990, size: 0x8, addend: 0x0, symName: _InstProfPopcountll, symObjAddr: 0xABC, symBinAddr: 0x201A8, symSize: 0x14 }
  - { offset: 0x409AA, size: 0x8, addend: 0x0, symName: _InstProfPopcountll, symObjAddr: 0xABC, symBinAddr: 0x201A8, symSize: 0x14 }
  - { offset: 0x409B2, size: 0x8, addend: 0x0, symName: _InstrProfGetRangeRepValue, symObjAddr: 0xAD0, symBinAddr: 0x201BC, symSize: 0x48 }
  - { offset: 0x40A08, size: 0x8, addend: 0x0, symName: _InstrProfGetRangeRepValue, symObjAddr: 0xAD0, symBinAddr: 0x201BC, symSize: 0x48 }
  - { offset: 0x40A10, size: 0x8, addend: 0x0, symName: _InstrProfIsSingleValRange, symObjAddr: 0xB18, symBinAddr: 0x20204, symSize: 0x20 }
  - { offset: 0x40A6F, size: 0x8, addend: 0x0, symName: _InstrProfIsSingleValRange, symObjAddr: 0xB18, symBinAddr: 0x20204, symSize: 0x20 }
  - { offset: 0x40A77, size: 0x8, addend: 0x0, symName: _lprofSetupValueProfiler, symObjAddr: 0xB38, symBinAddr: 0x20224, symSize: 0x64 }
  - { offset: 0x40AA4, size: 0x8, addend: 0x0, symName: _lprofSetupValueProfiler, symObjAddr: 0xB38, symBinAddr: 0x20224, symSize: 0x64 }
  - { offset: 0x40AAC, size: 0x8, addend: 0x0, symName: _lprofSetMaxValsPerSite, symObjAddr: 0xB9C, symBinAddr: 0x20288, symSize: 0x18 }
  - { offset: 0x40AD0, size: 0x8, addend: 0x0, symName: _lprofSetMaxValsPerSite, symObjAddr: 0xB9C, symBinAddr: 0x20288, symSize: 0x18 }
  - { offset: 0x40AD8, size: 0x8, addend: 0x0, symName: ___llvm_profile_set_num_value_sites, symObjAddr: 0xBB4, symBinAddr: 0x202A0, symSize: 0xC }
  - { offset: 0x40AFB, size: 0x8, addend: 0x0, symName: ___llvm_profile_set_num_value_sites, symObjAddr: 0xBB4, symBinAddr: 0x202A0, symSize: 0xC }
  - { offset: 0x40B03, size: 0x8, addend: 0x0, symName: ___llvm_profile_iterate_data, symObjAddr: 0xBC0, symBinAddr: 0x202AC, symSize: 0x8 }
  - { offset: 0x40B40, size: 0x8, addend: 0x0, symName: ___llvm_profile_iterate_data, symObjAddr: 0xBC0, symBinAddr: 0x202AC, symSize: 0x8 }
  - { offset: 0x40B48, size: 0x8, addend: 0x0, symName: ___llvm_get_function_addr, symObjAddr: 0xBC8, symBinAddr: 0x202B4, symSize: 0x8 }
  - { offset: 0x40B71, size: 0x8, addend: 0x0, symName: ___llvm_get_function_addr, symObjAddr: 0xBC8, symBinAddr: 0x202B4, symSize: 0x8 }
  - { offset: 0x40B79, size: 0x8, addend: 0x0, symName: ___llvm_profile_instrument_target, symObjAddr: 0xBD0, symBinAddr: 0x202BC, symSize: 0x260 }
  - { offset: 0x40C87, size: 0x8, addend: 0x0, symName: ___llvm_profile_instrument_target, symObjAddr: 0xBD0, symBinAddr: 0x202BC, symSize: 0x260 }
  - { offset: 0x40C8F, size: 0x8, addend: 0x0, symName: ___llvm_profile_instrument_target_value, symObjAddr: 0xE30, symBinAddr: 0x2051C, symSize: 0x290 }
  - { offset: 0x40D95, size: 0x8, addend: 0x0, symName: ___llvm_profile_instrument_target_value, symObjAddr: 0xE30, symBinAddr: 0x2051C, symSize: 0x290 }
  - { offset: 0x40D9D, size: 0x8, addend: 0x0, symName: ___llvm_profile_instrument_memop, symObjAddr: 0x10C0, symBinAddr: 0x207AC, symSize: 0x48 }
  - { offset: 0x40ED1, size: 0x8, addend: 0x0, symName: ___llvm_profile_instrument_memop, symObjAddr: 0x10C0, symBinAddr: 0x207AC, symSize: 0x48 }
  - { offset: 0x40ED9, size: 0x8, addend: 0x0, symName: _lprofGetVPDataReader, symObjAddr: 0x1108, symBinAddr: 0x207F4, symSize: 0xC }
  - { offset: 0x40F8D, size: 0x8, addend: 0x0, symName: _lprofGetVPDataReader, symObjAddr: 0x1108, symBinAddr: 0x207F4, symSize: 0xC }
  - { offset: 0x40F95, size: 0x8, addend: 0x0, symName: _initializeValueProfRuntimeRecord, symObjAddr: 0x1114, symBinAddr: 0x20800, symSize: 0x210 }
  - { offset: 0x40FAF, size: 0x8, addend: 0x0, symName: _initializeValueProfRuntimeRecord, symObjAddr: 0x1114, symBinAddr: 0x20800, symSize: 0x210 }
  - { offset: 0x40FB7, size: 0x8, addend: 0x0, symName: _getNumValueDataForSiteWrapper, symObjAddr: 0x1324, symBinAddr: 0x20A10, symSize: 0x14 }
  - { offset: 0x410CF, size: 0x8, addend: 0x0, symName: _getNumValueDataForSiteWrapper, symObjAddr: 0x1324, symBinAddr: 0x20A10, symSize: 0x14 }
  - { offset: 0x410D7, size: 0x8, addend: 0x0, symName: _getValueProfDataSizeWrapper, symObjAddr: 0x1338, symBinAddr: 0x20A24, symSize: 0xDC }
  - { offset: 0x41115, size: 0x8, addend: 0x0, symName: _getNumValueDataForSiteWrapper, symObjAddr: 0x1324, symBinAddr: 0x20A10, symSize: 0x14 }
  - { offset: 0x4113B, size: 0x8, addend: 0x0, symName: _getValueProfDataSizeWrapper, symObjAddr: 0x1338, symBinAddr: 0x20A24, symSize: 0xDC }
  - { offset: 0x41143, size: 0x8, addend: 0x0, symName: _getNextNValueData, symObjAddr: 0x1414, symBinAddr: 0x20B00, symSize: 0x44 }
  - { offset: 0x411DA, size: 0x8, addend: 0x0, symName: _getNextNValueData, symObjAddr: 0x1414, symBinAddr: 0x20B00, symSize: 0x44 }
  - { offset: 0x411E2, size: 0x8, addend: 0x0, symName: _getNumValueSitesRT, symObjAddr: 0x1458, symBinAddr: 0x20B44, symSize: 0x10 }
  - { offset: 0x41270, size: 0x8, addend: 0x0, symName: _getNumValueSitesRT, symObjAddr: 0x1458, symBinAddr: 0x20B44, symSize: 0x10 }
  - { offset: 0x41278, size: 0x8, addend: 0x0, symName: _getNumValueDataRT, symObjAddr: 0x1468, symBinAddr: 0x20B54, symSize: 0x190 }
  - { offset: 0x412B3, size: 0x8, addend: 0x0, symName: _getNumValueDataRT, symObjAddr: 0x1468, symBinAddr: 0x20B54, symSize: 0x190 }
  - { offset: 0x412BB, size: 0x8, addend: 0x0, symName: ___llvm_profile_instrument_target.cold.1, symObjAddr: 0x15F8, symBinAddr: 0xCF154, symSize: 0x24 }
  - { offset: 0x41329, size: 0x8, addend: 0x0, symName: ___llvm_profile_instrument_target.cold.1, symObjAddr: 0x15F8, symBinAddr: 0xCF154, symSize: 0x24 }
  - { offset: 0x41331, size: 0x8, addend: 0x0, symName: ___llvm_profile_instrument_target_value.cold.1, symObjAddr: 0x161C, symBinAddr: 0xCF178, symSize: 0x24 }
  - { offset: 0x41352, size: 0x8, addend: 0x0, symName: ___llvm_profile_instrument_target_value.cold.1, symObjAddr: 0x161C, symBinAddr: 0xCF178, symSize: 0x24 }
  - { offset: 0x4136A, size: 0x8, addend: 0x0, symName: ___llvm_profile_instrument_target_value.cold.1, symObjAddr: 0x161C, symBinAddr: 0xCF178, symSize: 0x24 }
  - { offset: 0x41379, size: 0x8, addend: 0x0, symName: ___llvm_profile_instrument_target_value.cold.1, symObjAddr: 0x161C, symBinAddr: 0xCF178, symSize: 0x24 }
  - { offset: 0x41409, size: 0x8, addend: 0x0, symName: ___llvm_profile_raw_version, symObjAddr: 0x0, symBinAddr: 0x134670, symSize: 0x0 }
  - { offset: 0x4144B, size: 0x8, addend: 0x0, symName: _lprofBufferWriter, symObjAddr: 0x0, symBinAddr: 0x20CE4, symSize: 0x6C }
  - { offset: 0x4146A, size: 0x8, addend: 0x0, symName: _FreeHook, symObjAddr: 0x4F30, symBinAddr: 0x13E8B8, symSize: 0x0 }
  - { offset: 0x41490, size: 0x8, addend: 0x0, symName: _DynamicBufferIOBuffer, symObjAddr: 0x4F38, symBinAddr: 0x13E8C0, symSize: 0x0 }
  - { offset: 0x414BE, size: 0x8, addend: 0x0, symName: _VPBufferSize, symObjAddr: 0x4F40, symBinAddr: 0x13E8C8, symSize: 0x0 }
  - { offset: 0x414E5, size: 0x8, addend: 0x0, symName: __MergedGlobals, symObjAddr: 0x6F48, symBinAddr: 0x140A40, symSize: 0x0 }
  - { offset: 0x4162F, size: 0x8, addend: 0x0, symName: _BufferIOBuffer, symObjAddr: 0x4F48, symBinAddr: 0x13EA40, symSize: 0x0 }
  - { offset: 0x41659, size: 0x8, addend: 0x0, symName: __MergedGlobals, symObjAddr: 0x6F48, symBinAddr: 0x140A40, symSize: 0x0 }
  - { offset: 0x416D5, size: 0x8, addend: 0x0, symName: _lprofBufferWriter, symObjAddr: 0x0, symBinAddr: 0x20CE4, symSize: 0x6C }
  - { offset: 0x416DD, size: 0x8, addend: 0x0, symName: _lprofCreateBufferIO, symObjAddr: 0x6C, symBinAddr: 0x20D50, symSize: 0x48 }
  - { offset: 0x41765, size: 0x8, addend: 0x0, symName: _lprofCreateBufferIO, symObjAddr: 0x6C, symBinAddr: 0x20D50, symSize: 0x48 }
  - { offset: 0x4176D, size: 0x8, addend: 0x0, symName: _lprofDeleteBufferIO, symObjAddr: 0xB4, symBinAddr: 0x20D98, symSize: 0x4C }
  - { offset: 0x417C0, size: 0x8, addend: 0x0, symName: _lprofDeleteBufferIO, symObjAddr: 0xB4, symBinAddr: 0x20D98, symSize: 0x4C }
  - { offset: 0x417C8, size: 0x8, addend: 0x0, symName: _lprofBufferIOWrite, symObjAddr: 0x100, symBinAddr: 0x20DE4, symSize: 0x134 }
  - { offset: 0x4186A, size: 0x8, addend: 0x0, symName: _lprofBufferIOWrite, symObjAddr: 0x100, symBinAddr: 0x20DE4, symSize: 0x134 }
  - { offset: 0x41872, size: 0x8, addend: 0x0, symName: _lprofBufferIOFlush, symObjAddr: 0x234, symBinAddr: 0x20F18, symSize: 0xC0 }
  - { offset: 0x41967, size: 0x8, addend: 0x0, symName: _lprofBufferIOFlush, symObjAddr: 0x234, symBinAddr: 0x20F18, symSize: 0xC0 }
  - { offset: 0x4196F, size: 0x8, addend: 0x0, symName: _lprofWriteData, symObjAddr: 0x2F4, symBinAddr: 0x20FD8, symSize: 0xD4 }
  - { offset: 0x41998, size: 0x8, addend: 0x0, symName: _lprofWriteData, symObjAddr: 0x2F4, symBinAddr: 0x20FD8, symSize: 0xD4 }
  - { offset: 0x419A0, size: 0x8, addend: 0x0, symName: _lprofWriteDataImpl, symObjAddr: 0x3C8, symBinAddr: 0x210AC, symSize: 0x46C }
  - { offset: 0x41DC6, size: 0x8, addend: 0x0, symName: _lprofWriteDataImpl, symObjAddr: 0x3C8, symBinAddr: 0x210AC, symSize: 0x46C }
  - { offset: 0x41DCE, size: 0x8, addend: 0x0, symName: _lprofWriteOneBinaryId, symObjAddr: 0x834, symBinAddr: 0x21518, symSize: 0x8C }
  - { offset: 0x420EF, size: 0x8, addend: 0x0, symName: _lprofWriteOneBinaryId, symObjAddr: 0x834, symBinAddr: 0x21518, symSize: 0x8C }
  - { offset: 0x420F7, size: 0x8, addend: 0x0, symName: _writeOneValueProfData, symObjAddr: 0x8C0, symBinAddr: 0x215A4, symSize: 0x4A8 }
  - { offset: 0x42167, size: 0x8, addend: 0x0, symName: _writeOneValueProfData, symObjAddr: 0x8C0, symBinAddr: 0x215A4, symSize: 0x4A8 }
  - { offset: 0x42437, size: 0x8, addend: 0x0, symName: '__ZN36_$LT$T$u20$as$u20$core..any..Any$GT$7type_id17h21e4e8d2fad3819fE', symObjAddr: 0x0, symBinAddr: 0x21A4C, symSize: 0x30 }
  - { offset: 0x42454, size: 0x8, addend: 0x0, symName: '__ZN36_$LT$T$u20$as$u20$core..any..Any$GT$7type_id17h21e4e8d2fad3819fE', symObjAddr: 0x0, symBinAddr: 0x21A4C, symSize: 0x30 }
  - { offset: 0x4246E, size: 0x8, addend: 0x0, symName: '__ZN36_$LT$T$u20$as$u20$core..any..Any$GT$7type_id17h4bdd119c075af887E', symObjAddr: 0x30, symBinAddr: 0x21A7C, symSize: 0x30 }
  - { offset: 0x42488, size: 0x8, addend: 0x0, symName: '__ZN36_$LT$T$u20$as$u20$core..any..Any$GT$7type_id17hcb91cee7acc095eaE', symObjAddr: 0x60, symBinAddr: 0x21AAC, symSize: 0x30 }
  - { offset: 0x428BB, size: 0x8, addend: 0x0, symName: '__ZN66_$LT$core..option..Option$LT$T$GT$$u20$as$u20$core..fmt..Debug$GT$3fmt17hcdb1625c51a882bfE', symObjAddr: 0x3134, symBinAddr: 0x2499C, symSize: 0x5C }
  - { offset: 0x42C6E, size: 0x8, addend: 0x0, symName: '__ZN4core3ptr101drop_in_place$LT$$u5b$proc_macro..bridge..Diagnostic$LT$proc_macro..bridge..client..Span$GT$$u5d$$GT$17h1393771f5c3b2fafE', symObjAddr: 0x794, symBinAddr: 0x2209C, symSize: 0xDC }
  - { offset: 0x42F64, size: 0x8, addend: 0x0, symName: '__ZN4core3ptr103drop_in_place$LT$proc_macro..bridge..client..TokenStream..concat_trees..$u7b$$u7b$closure$u7d$$u7d$$GT$17hf104043ff4e29281E', symObjAddr: 0x870, symBinAddr: 0x22178, symSize: 0x84 }
  - { offset: 0x43102, size: 0x8, addend: 0x0, symName: '__ZN4core3ptr105drop_in_place$LT$proc_macro..bridge..client..TokenStream..concat_streams..$u7b$$u7b$closure$u7d$$u7d$$GT$17hc35b86c47bb30550E', symObjAddr: 0x8F4, symBinAddr: 0x221FC, symSize: 0x84 }
  - { offset: 0x434E6, size: 0x8, addend: 0x0, symName: '__ZN4core3ptr130drop_in_place$LT$alloc..vec..into_iter..IntoIter$LT$proc_macro..bridge..Diagnostic$LT$proc_macro..bridge..client..Span$GT$$GT$$GT$17h6d504460d4d942c4E', symObjAddr: 0x978, symBinAddr: 0x22280, symSize: 0x88 }
  - { offset: 0x436D0, size: 0x8, addend: 0x0, symName: '__ZN4core3ptr131drop_in_place$LT$proc_macro..bridge..client..maybe_install_panic_hook..$u7b$$u7b$closure$u7d$$u7d$..$u7b$$u7b$closure$u7d$$u7d$$GT$17h87700cc4f87e5cdeE', symObjAddr: 0xA00, symBinAddr: 0x22308, symSize: 0x6C }
  - { offset: 0x4389B, size: 0x8, addend: 0x0, symName: '__ZN4core3ptr146drop_in_place$LT$std..sys..thread_local..native..lazy..State$LT$core..cell..RefCell$LT$proc_macro..bridge..symbol..Interner$GT$$C$$LP$$RP$$GT$$GT$17h844ebdcdba5a183eE', symObjAddr: 0xA6C, symBinAddr: 0x22374, symSize: 0xD0 }
  - { offset: 0x43C10, size: 0x8, addend: 0x0, symName: '__ZN4core3ptr187drop_in_place$LT$alloc..vec..in_place_drop..InPlaceDstDataSrcBufDrop$LT$proc_macro..diagnostic..Diagnostic$C$proc_macro..bridge..Diagnostic$LT$proc_macro..bridge..client..Span$GT$$GT$$GT$17h98c29205f1c5f3acE', symObjAddr: 0xB3C, symBinAddr: 0x22444, symSize: 0x70 }
  - { offset: 0x43D84, size: 0x8, addend: 0x0, symName: '__ZN4core3ptr188drop_in_place$LT$core..iter..adapters..map..Map$LT$alloc..vec..into_iter..IntoIter$LT$proc_macro..diagnostic..Diagnostic$GT$$C$proc_macro..diagnostic..Diagnostic..emit..to_internal$GT$$GT$17hfad2858eb8582b20E', symObjAddr: 0xBAC, symBinAddr: 0x224B4, symSize: 0x88 }
  - { offset: 0x43FBB, size: 0x8, addend: 0x0, symName: '__ZN4core3ptr192drop_in_place$LT$alloc..vec..Vec$LT$proc_macro..bridge..TokenTree$LT$proc_macro..bridge..client..TokenStream$C$proc_macro..bridge..client..Span$C$proc_macro..bridge..symbol..Symbol$GT$$GT$$GT$17h911d4916351d114cE', symObjAddr: 0xC34, symBinAddr: 0x2253C, symSize: 0x148 }
  - { offset: 0x44303, size: 0x8, addend: 0x0, symName: '__ZN4core3ptr208drop_in_place$LT$alloc..vec..into_iter..IntoIter$LT$proc_macro..bridge..TokenTree$LT$proc_macro..bridge..client..TokenStream$C$proc_macro..bridge..client..Span$C$proc_macro..bridge..symbol..Symbol$GT$$GT$$GT$17h5e5f315eba8a11f4E', symObjAddr: 0xD7C, symBinAddr: 0x22684, symSize: 0x144 }
  - { offset: 0x446F0, size: 0x8, addend: 0x0, symName: '__ZN4core3ptr39drop_in_place$LT$std..path..PathBuf$GT$17hc109b5ed94d546fcE', symObjAddr: 0xEC0, symBinAddr: 0x227C8, symSize: 0x28 }
  - { offset: 0x447A7, size: 0x8, addend: 0x0, symName: '__ZN4core3ptr42drop_in_place$LT$proc_macro..TokenTree$GT$17h37b5771b8427ee16E', symObjAddr: 0xEE8, symBinAddr: 0x227F0, symSize: 0x40 }
  - { offset: 0x448A9, size: 0x8, addend: 0x0, symName: '__ZN4core3ptr44drop_in_place$LT$proc_macro..TokenStream$GT$17h55740d6a252e049fE', symObjAddr: 0xF28, symBinAddr: 0x22830, symSize: 0x34 }
  - { offset: 0x449A9, size: 0x8, addend: 0x0, symName: '__ZN4core3ptr55drop_in_place$LT$proc_macro..diagnostic..Diagnostic$GT$17hb2a71a3745e915b5E', symObjAddr: 0xF5C, symBinAddr: 0x22864, symSize: 0xAC }
  - { offset: 0x44C8B, size: 0x8, addend: 0x0, symName: '__ZN4core3ptr63drop_in_place$LT$$u5b$proc_macro..TokenTree$u3b$$u20$2$u5d$$GT$17heb6ae23ecb22880fE', symObjAddr: 0x1008, symBinAddr: 0x22910, symSize: 0xCC }
  - { offset: 0x44E5D, size: 0x8, addend: 0x0, symName: '__ZN4core3ptr65drop_in_place$LT$$u5b$proc_macro..TokenStream$u3b$$u20$2$u5d$$GT$17hfdbc0351499e9398E', symObjAddr: 0x10D4, symBinAddr: 0x229DC, symSize: 0xA4 }
  - { offset: 0x44FD9, size: 0x8, addend: 0x0, symName: '__ZN4core3ptr65drop_in_place$LT$$u5b$proc_macro..TokenStream$u3b$$u20$3$u5d$$GT$17hb50942f5ebd9b2ffE', symObjAddr: 0x1178, symBinAddr: 0x22A80, symSize: 0xFC }
  - { offset: 0x4510D, size: 0x8, addend: 0x0, symName: '__ZN4core3ptr65drop_in_place$LT$$u5b$proc_macro..TokenStream$u3b$$u20$4$u5d$$GT$17hd470142623cadfc8E', symObjAddr: 0x1274, symBinAddr: 0x22B7C, symSize: 0x14C }
  - { offset: 0x45241, size: 0x8, addend: 0x0, symName: '__ZN4core3ptr65drop_in_place$LT$$u5b$proc_macro..TokenStream$u3b$$u20$5$u5d$$GT$17hd15f9e1fd4e153e9E', symObjAddr: 0x13C0, symBinAddr: 0x22CC8, symSize: 0x19C }
  - { offset: 0x45375, size: 0x8, addend: 0x0, symName: '__ZN4core3ptr65drop_in_place$LT$$u5b$proc_macro..TokenStream$u3b$$u20$6$u5d$$GT$17hf4e44ac1327a3551E', symObjAddr: 0x155C, symBinAddr: 0x22E64, symSize: 0x1EC }
  - { offset: 0x454A9, size: 0x8, addend: 0x0, symName: '__ZN4core3ptr65drop_in_place$LT$$u5b$proc_macro..TokenStream$u3b$$u20$7$u5d$$GT$17h52d7e2d770bbf755E', symObjAddr: 0x1748, symBinAddr: 0x23050, symSize: 0x23C }
  - { offset: 0x455DD, size: 0x8, addend: 0x0, symName: '__ZN4core3ptr65drop_in_place$LT$$u5b$proc_macro..TokenStream$u3b$$u20$9$u5d$$GT$17h5f338fb6237a92bbE', symObjAddr: 0x1984, symBinAddr: 0x2328C, symSize: 0x2DC }
  - { offset: 0x4571F, size: 0x8, addend: 0x0, symName: '__ZN4core3ptr65drop_in_place$LT$$u5b$proc_macro..diagnostic..Diagnostic$u5d$$GT$17ha150572694d463d0E', symObjAddr: 0x1C60, symBinAddr: 0x23568, symSize: 0xDC }
  - { offset: 0x459F9, size: 0x8, addend: 0x0, symName: '__ZN4core3ptr66drop_in_place$LT$$u5b$proc_macro..TokenStream$u3b$$u20$11$u5d$$GT$17h5a11e63a945d7575E', symObjAddr: 0x1D3C, symBinAddr: 0x23644, symSize: 0x218 }
  - { offset: 0x45B6C, size: 0x8, addend: 0x0, symName: '__ZN4core3ptr66drop_in_place$LT$$u5b$proc_macro..TokenStream$u3b$$u20$16$u5d$$GT$17h8079d21b49007fa9E', symObjAddr: 0x1F54, symBinAddr: 0x2385C, symSize: 0x2CC }
  - { offset: 0x45CDF, size: 0x8, addend: 0x0, symName: '__ZN4core3ptr66drop_in_place$LT$$u5b$proc_macro..TokenStream$u3b$$u20$29$u5d$$GT$17h903ce022fe1df87aE', symObjAddr: 0x2220, symBinAddr: 0x23B28, symSize: 0x4A0 }
  - { offset: 0x45E6E, size: 0x8, addend: 0x0, symName: '__ZN4core3ptr83drop_in_place$LT$alloc..vec..Vec$LT$proc_macro..bridge..client..TokenStream$GT$$GT$17hb7cafeb4c3e7d8f9E', symObjAddr: 0x26C0, symBinAddr: 0x23FC8, symSize: 0xF4 }
  - { offset: 0x4612C, size: 0x8, addend: 0x0, symName: '__ZN4core3ptr91drop_in_place$LT$alloc..boxed..Box$LT$dyn$u20$core..any..Any$u2b$core..marker..Send$GT$$GT$17h25daacde3cfc5e86E', symObjAddr: 0x27B4, symBinAddr: 0x240BC, symSize: 0x78 }
  - { offset: 0x46217, size: 0x8, addend: 0x0, symName: '__ZN4core3ptr91drop_in_place$LT$proc_macro..bridge..Diagnostic$LT$proc_macro..bridge..client..Span$GT$$GT$17h4e9bae3551639223E', symObjAddr: 0x282C, symBinAddr: 0x24134, symSize: 0xAC }
  - { offset: 0x47388, size: 0x8, addend: 0x0, symName: '__ZN4core3ops8function6FnOnce40call_once$u7b$$u7b$vtable.shim$u7d$$u7d$17h08221703fa375a29E', symObjAddr: 0x618, symBinAddr: 0x21F20, symSize: 0xA8 }
  - { offset: 0x474B9, size: 0x8, addend: 0x0, symName: '__ZN4core3ops8function6FnOnce40call_once$u7b$$u7b$vtable.shim$u7d$$u7d$17hf8f80c22252cf66cE', symObjAddr: 0x6C0, symBinAddr: 0x21FC8, symSize: 0xD4 }
  - { offset: 0x4798D, size: 0x8, addend: 0x0, symName: '__ZN41_$LT$bool$u20$as$u20$core..fmt..Debug$GT$3fmt17h9e9b2eff902fdd93E', symObjAddr: 0x2C4, symBinAddr: 0x21BCC, symSize: 0x10 }
  - { offset: 0x479AE, size: 0x8, addend: 0x0, symName: '__ZN42_$LT$$RF$T$u20$as$u20$core..fmt..Debug$GT$3fmt17h51a656df8639341cE', symObjAddr: 0x2D4, symBinAddr: 0x21BDC, symSize: 0x1C }
  - { offset: 0x479C9, size: 0x8, addend: 0x0, symName: '__ZN42_$LT$$RF$T$u20$as$u20$core..fmt..Debug$GT$3fmt17h7514063eee4df562E', symObjAddr: 0x2F0, symBinAddr: 0x21BF8, symSize: 0x30 }
  - { offset: 0x47A0F, size: 0x8, addend: 0x0, symName: '__ZN42_$LT$$RF$T$u20$as$u20$core..fmt..Debug$GT$3fmt17h7959a1118bd54ce5E', symObjAddr: 0x320, symBinAddr: 0x21C28, symSize: 0x14 }
  - { offset: 0x47A2A, size: 0x8, addend: 0x0, symName: '__ZN42_$LT$$RF$T$u20$as$u20$core..fmt..Debug$GT$3fmt17hc71c7cbea73d16a2E', symObjAddr: 0x334, symBinAddr: 0x21C3C, symSize: 0x64 }
  - { offset: 0x47B4A, size: 0x8, addend: 0x0, symName: '__ZN4core3fmt3num52_$LT$impl$u20$core..fmt..Debug$u20$for$u20$usize$GT$3fmt17hbcf940b80966635eE', symObjAddr: 0x5D0, symBinAddr: 0x21ED8, symSize: 0x2C }
  - { offset: 0x47B80, size: 0x8, addend: 0x0, symName: '__ZN44_$LT$$RF$T$u20$as$u20$core..fmt..Display$GT$3fmt17h24a9dcff090f1c77E', symObjAddr: 0x398, symBinAddr: 0x21CA0, symSize: 0x1C }
  - { offset: 0x47BC8, size: 0x8, addend: 0x0, symName: __ZN4core3fmt5Write9write_fmt17hc847918b387a1827E, symObjAddr: 0x5FC, symBinAddr: 0x21F04, symSize: 0x1C }
  - { offset: 0x47BFD, size: 0x8, addend: 0x0, symName: '__ZN53_$LT$core..fmt..Error$u20$as$u20$core..fmt..Debug$GT$3fmt17he86a5143693380e6E', symObjAddr: 0x28D8, symBinAddr: 0x241E0, symSize: 0x20 }
  - { offset: 0x4A11A, size: 0x8, addend: 0x0, symName: '__ZN64_$LT$core..str..error..Utf8Error$u20$as$u20$core..fmt..Debug$GT$3fmt17h67e66537ef126eedE', symObjAddr: 0x30C4, symBinAddr: 0x2492C, symSize: 0x70 }
  - { offset: 0x4A73E, size: 0x8, addend: 0x0, symName: __ZN10proc_macro6bridge6symbol8Interner3get17hc6f58f610795eb19E, symObjAddr: 0x61D8, symBinAddr: 0x272F4, symSize: 0x5C }
  - { offset: 0x4A876, size: 0x8, addend: 0x0, symName: __ZN10proc_macro6bridge6symbol6Symbol3new17h7c5dcb74576d64daE, symObjAddr: 0x4C34, symBinAddr: 0x25D50, symSize: 0x678 }
  - { offset: 0x4BBE4, size: 0x8, addend: 0x0, symName: __ZN10proc_macro6bridge6symbol6Symbol9new_ident17h75c03e9570bb140aE, symObjAddr: 0x52AC, symBinAddr: 0x263C8, symSize: 0x628 }
  - { offset: 0x4C862, size: 0x8, addend: 0x0, symName: __ZN10proc_macro6bridge6symbol6Symbol14invalidate_all17ha75a1aedd0781effE, symObjAddr: 0x58D4, symBinAddr: 0x269F0, symSize: 0x1A8 }
  - { offset: 0x4CE06, size: 0x8, addend: 0x0, symName: '__ZN71_$LT$proc_macro..bridge..symbol..Symbol$u20$as$u20$core..fmt..Debug$GT$3fmt17hea15f79d4742721cE', symObjAddr: 0x5A7C, symBinAddr: 0x26B98, symSize: 0x174 }
  - { offset: 0x4D13A, size: 0x8, addend: 0x0, symName: '__ZN78_$LT$proc_macro..bridge..symbol..Symbol$u20$as$u20$alloc..string..ToString$GT$9to_string17h190df9340fff9187E', symObjAddr: 0x5BF0, symBinAddr: 0x26D0C, symSize: 0x1D8 }
  - { offset: 0x4D598, size: 0x8, addend: 0x0, symName: '__ZN73_$LT$proc_macro..bridge..symbol..Symbol$u20$as$u20$core..fmt..Display$GT$3fmt17haad6e6c72ee42d0cE', symObjAddr: 0x5DC8, symBinAddr: 0x26EE4, symSize: 0x174 }
  - { offset: 0x4D8CC, size: 0x8, addend: 0x0, symName: '__ZN95_$LT$proc_macro..bridge..symbol..Symbol$u20$as$u20$proc_macro..bridge..rpc..Encode$LT$S$GT$$GT$6encode17hc6736302cb0e29a4E', symObjAddr: 0x5F3C, symBinAddr: 0x27058, symSize: 0x29C }
  - { offset: 0x4DECF, size: 0x8, addend: 0x0, symName: '__ZN10proc_macro6bridge6client24maybe_install_panic_hook28_$u7b$$u7b$closure$u7d$$u7d$28_$u7b$$u7b$closure$u7d$$u7d$17hf925219c7ea418b0E', symObjAddr: 0x4840, symBinAddr: 0x2595C, symSize: 0x50 }
  - { offset: 0x4DF53, size: 0x8, addend: 0x0, symName: '__ZN95_$LT$proc_macro..bridge..client..state..set..RestoreOnDrop$u20$as$u20$core..ops..drop..Drop$GT$4drop17h86ced5f08e8f852aE', symObjAddr: 0x4108, symBinAddr: 0x25224, symSize: 0x28 }
  - { offset: 0x4E465, size: 0x8, addend: 0x0, symName: __ZN10proc_macro6bridge6client11TokenStream12concat_trees17h68480a020efbde22E, symObjAddr: 0x202A4, symBinAddr: 0x413C0, symSize: 0x3D4 }
  - { offset: 0x4EB3A, size: 0x8, addend: 0x0, symName: __ZN10proc_macro6bridge6client11TokenStream14concat_streams17hf8557c2b38f07c33E, symObjAddr: 0x20678, symBinAddr: 0x41794, symSize: 0x490 }
  - { offset: 0x4F6F0, size: 0x8, addend: 0x0, symName: '__ZN81_$LT$proc_macro..bridge..client..TokenStream$u20$as$u20$core..ops..drop..Drop$GT$4drop17ha05bdd1c561470c2E', symObjAddr: 0x1F5C4, symBinAddr: 0x406E0, symSize: 0x2C }
  - { offset: 0x4F7B6, size: 0x8, addend: 0x0, symName: '__ZN10proc_macro6bridge6client6Bridge4with28_$u7b$$u7b$closure$u7d$$u7d$17h7841b5b666137055E', symObjAddr: 0x4130, symBinAddr: 0x2524C, symSize: 0x354 }
  - { offset: 0x4FF0F, size: 0x8, addend: 0x0, symName: '__ZN10proc_macro6bridge6client6Bridge4with28_$u7b$$u7b$closure$u7d$$u7d$17habeccb47f6797608E', symObjAddr: 0x4484, symBinAddr: 0x255A0, symSize: 0x354 }
  - { offset: 0x509F2, size: 0x8, addend: 0x0, symName: '__ZN78_$LT$proc_macro..bridge..client..TokenStream$u20$as$u20$core..clone..Clone$GT$5clone17h2e0376df6e69cf4eE', symObjAddr: 0x3978, symBinAddr: 0x24A94, symSize: 0x274 }
  - { offset: 0x510D2, size: 0x8, addend: 0x0, symName: '__ZN77_$LT$proc_macro..bridge..client..SourceFile$u20$as$u20$core..clone..Clone$GT$5clone17h936a1d06178c39c1E', symObjAddr: 0x3BEC, symBinAddr: 0x24D08, symSize: 0x274 }
  - { offset: 0x5174A, size: 0x8, addend: 0x0, symName: __ZN10proc_macro6bridge6client4Span7subspan17hda4d2579f0256c05E, symObjAddr: 0x20B08, symBinAddr: 0x41C24, symSize: 0x2B4 }
  - { offset: 0x51FE1, size: 0x8, addend: 0x0, symName: '__ZN69_$LT$proc_macro..bridge..client..Span$u20$as$u20$core..fmt..Debug$GT$3fmt17haf5dc91869f1d788E', symObjAddr: 0x3E60, symBinAddr: 0x24F7C, symSize: 0x2A8 }
  - { offset: 0x52734, size: 0x8, addend: 0x0, symName: '__ZN80_$LT$proc_macro..bridge..client..SourceFile$u20$as$u20$core..ops..drop..Drop$GT$4drop17h9ba818fcafe95145E', symObjAddr: 0x1F5F0, symBinAddr: 0x4070C, symSize: 0x2C }
  - { offset: 0x527F6, size: 0x8, addend: 0x0, symName: __ZN10proc_macro6bridge6client24maybe_install_panic_hook17hdb50640cb4fe52bcE, symObjAddr: 0x47D8, symBinAddr: 0x258F4, symSize: 0x68 }
  - { offset: 0x528B7, size: 0x8, addend: 0x0, symName: __ZN10proc_macro6bridge6client13FreeFunctions16injected_env_var17h3767e66b92b4a6beE, symObjAddr: 0x1F61C, symBinAddr: 0x40738, symSize: 0x3A4 }
  - { offset: 0x5302D, size: 0x8, addend: 0x0, symName: __ZN10proc_macro6bridge6client13FreeFunctions13track_env_var17h8857cdb5ee4c7a95E, symObjAddr: 0x1F9C0, symBinAddr: 0x40ADC, symSize: 0x584 }
  - { offset: 0x53C59, size: 0x8, addend: 0x0, symName: __ZN10proc_macro6bridge6client13FreeFunctions10track_path17h03272103aef2986eE, symObjAddr: 0x1FF44, symBinAddr: 0x41060, symSize: 0x360 }
  - { offset: 0x5451F, size: 0x8, addend: 0x0, symName: '__ZN83_$LT$proc_macro..bridge..client..FreeFunctions$u20$as$u20$core..ops..drop..Drop$GT$4drop17hf884e93c4b705a31E', symObjAddr: 0x1F264, symBinAddr: 0x40380, symSize: 0x360 }
  - { offset: 0x54C29, size: 0x8, addend: 0x0, symName: __ZN10proc_macro6bridge5arena5Arena4grow17h6a1ce91c314c8fb2E, symObjAddr: 0x3780, symBinAddr: 0xCF970, symSize: 0x15C }
  - { offset: 0x55140, size: 0x8, addend: 0x0, symName: '__ZN107_$LT$proc_macro..bridge..buffer..Buffer$u20$as$u20$core..convert..From$LT$alloc..vec..Vec$LT$u8$GT$$GT$$GT$4from7reserve17hb30bd2b6b4b12458E', symObjAddr: 0x38DC, symBinAddr: 0x249F8, symSize: 0x74 }
  - { offset: 0x55227, size: 0x8, addend: 0x0, symName: '__ZN107_$LT$proc_macro..bridge..buffer..Buffer$u20$as$u20$core..convert..From$LT$alloc..vec..Vec$LT$u8$GT$$GT$$GT$4from4drop17h1c337db37d8e1827E', symObjAddr: 0x3950, symBinAddr: 0x24A6C, symSize: 0x28 }
  - { offset: 0x55C69, size: 0x8, addend: 0x0, symName: '__ZN71_$LT$$RF$str$u20$as$u20$proc_macro..bridge..rpc..DecodeMut$LT$S$GT$$GT$6decode17h8a4e0d14f1ca7a32E', symObjAddr: 0x4890, symBinAddr: 0x259AC, symSize: 0xB4 }
  - { offset: 0x55E07, size: 0x8, addend: 0x0, symName: '__ZN155_$LT$proc_macro..bridge..rpc..PanicMessage$u20$as$u20$core..convert..From$LT$alloc..boxed..Box$LT$dyn$u20$core..any..Any$u2b$core..marker..Send$GT$$GT$$GT$4from17h221bf1b045012433E', symObjAddr: 0x4944, symBinAddr: 0x25A60, symSize: 0x180 }
  - { offset: 0x55FFB, size: 0x8, addend: 0x0, symName: '__ZN10proc_macro6bridge3rpc165_$LT$impl$u20$core..convert..From$LT$proc_macro..bridge..rpc..PanicMessage$GT$$u20$for$u20$alloc..boxed..Box$LT$dyn$u20$core..any..Any$u2b$core..marker..Send$GT$$GT$4from17h06ee9e8ba1997835E', symObjAddr: 0x4AC4, symBinAddr: 0x25BE0, symSize: 0xE8 }
  - { offset: 0x56678, size: 0x8, addend: 0x0, symName: '__ZN10proc_macro6bridge107_$LT$impl$u20$proc_macro..bridge..rpc..DecodeMut$LT$S$GT$$u20$for$u20$core..result..Result$LT$T$C$E$GT$$GT$6decode17h1eff07ca79ef9e3fE', symObjAddr: 0x220C4, symBinAddr: 0x431E0, symSize: 0xFC }
  - { offset: 0x56808, size: 0x8, addend: 0x0, symName: '__ZN10proc_macro6bridge107_$LT$impl$u20$proc_macro..bridge..rpc..DecodeMut$LT$S$GT$$u20$for$u20$core..result..Result$LT$T$C$E$GT$$GT$6decode17h53fc671fc3ec5bf6E', symObjAddr: 0x221C0, symBinAddr: 0x432DC, symSize: 0x13C }
  - { offset: 0x56A42, size: 0x8, addend: 0x0, symName: '__ZN10proc_macro6bridge107_$LT$impl$u20$proc_macro..bridge..rpc..DecodeMut$LT$S$GT$$u20$for$u20$core..result..Result$LT$T$C$E$GT$$GT$6decode17h9556fca4a1f9cd67E', symObjAddr: 0x222FC, symBinAddr: 0x43418, symSize: 0x138 }
  - { offset: 0x56C25, size: 0x8, addend: 0x0, symName: '__ZN10proc_macro6bridge107_$LT$impl$u20$proc_macro..bridge..rpc..DecodeMut$LT$S$GT$$u20$for$u20$core..result..Result$LT$T$C$E$GT$$GT$6decode17ha253651f739d0f53E', symObjAddr: 0x22434, symBinAddr: 0x43550, symSize: 0x104 }
  - { offset: 0x56D59, size: 0x8, addend: 0x0, symName: '__ZN10proc_macro6bridge107_$LT$impl$u20$proc_macro..bridge..rpc..DecodeMut$LT$S$GT$$u20$for$u20$core..result..Result$LT$T$C$E$GT$$GT$6decode17hc35c76475c26aee5E', symObjAddr: 0x22538, symBinAddr: 0x43654, symSize: 0xE8 }
  - { offset: 0x56ECD, size: 0x8, addend: 0x0, symName: __ZN10proc_macro6bridge6server22RunningSameThreadGuard3new17h4216d44c843c2824E, symObjAddr: 0x4BAC, symBinAddr: 0x25CC8, symSize: 0x64 }
  - { offset: 0x56FAF, size: 0x8, addend: 0x0, symName: '__ZN92_$LT$proc_macro..bridge..server..RunningSameThreadGuard$u20$as$u20$core..ops..drop..Drop$GT$4drop17h28e0c44f183c8259E', symObjAddr: 0x4C10, symBinAddr: 0x25D2C, symSize: 0x24 }
  - { offset: 0x570C2, size: 0x8, addend: 0x0, symName: '__ZN10proc_macro6bridge103_$LT$impl$u20$proc_macro..bridge..rpc..DecodeMut$LT$S$GT$$u20$for$u20$core..option..Option$LT$T$GT$$GT$6decode17hd5c88443684bc83dE', symObjAddr: 0x21FD0, symBinAddr: 0x430EC, symSize: 0xF4 }
  - { offset: 0x57326, size: 0x8, addend: 0x0, symName: '__ZN10proc_macro6bridge100_$LT$impl$u20$proc_macro..bridge..rpc..Encode$LT$S$GT$$u20$for$u20$core..option..Option$LT$T$GT$$GT$6encode17h1ec0de485cb34fa9E', symObjAddr: 0x21DF8, symBinAddr: 0x42F14, symSize: 0x1D8 }
  - { offset: 0x57748, size: 0x8, addend: 0x0, symName: '__ZN97_$LT$proc_macro..bridge..api_tags..Method$u20$as$u20$proc_macro..bridge..rpc..Encode$LT$S$GT$$GT$6encode17h39a1fd7d37702b72E', symObjAddr: 0x20DBC, symBinAddr: 0x41ED8, symSize: 0xC3C }
  - { offset: 0x582BA, size: 0x8, addend: 0x0, symName: '__ZN64_$LT$proc_macro..bridge..LitKind$u20$as$u20$core..fmt..Debug$GT$3fmt17h75156b0e0c057f2dE', symObjAddr: 0x219F8, symBinAddr: 0x42B14, symSize: 0x174 }
  - { offset: 0x582DB, size: 0x8, addend: 0x0, symName: '__ZN10proc_macro6bridge103_$LT$impl$u20$proc_macro..bridge..rpc..Encode$LT$S$GT$$u20$for$u20$core..ops..range..Bound$LT$T$GT$$GT$6encode17hb116228638604803E', symObjAddr: 0x21B6C, symBinAddr: 0x42C88, symSize: 0x28C }
  - { offset: 0x5877E, size: 0x8, addend: 0x0, symName: '__ZN106_$LT$proc_macro..bridge..Literal$LT$Sp$C$Sy$GT$$u20$as$u20$proc_macro..bridge..rpc..DecodeMut$LT$S$GT$$GT$6decode17ha57724b2a140c3dcE', symObjAddr: 0x22620, symBinAddr: 0x4373C, symSize: 0x188 }
  - { offset: 0x58AAA, size: 0x8, addend: 0x0, symName: '__ZN125_$LT$proc_macro..bridge..TokenTree$LT$TokenStream$C$Span$C$Symbol$GT$$u20$as$u20$proc_macro..bridge..rpc..Encode$LT$S$GT$$GT$6encode17hdd6d53b1bbee7d83E', symObjAddr: 0x227A8, symBinAddr: 0x438C4, symSize: 0x12D4 }
  - { offset: 0x5ADDD, size: 0x8, addend: 0x0, symName: '__ZN103_$LT$proc_macro..bridge..Diagnostic$LT$Span$GT$$u20$as$u20$proc_macro..bridge..rpc..Encode$LT$S$GT$$GT$6encode17h1a11e91b196fda97E', symObjAddr: 0x23A7C, symBinAddr: 0x44B98, symSize: 0x71C }
  - { offset: 0x5BD41, size: 0x8, addend: 0x0, symName: '__ZN70_$LT$proc_macro..Span$u20$as$u20$proc_macro..diagnostic..MultiSpan$GT$10into_spans17hea49b1a4e81c0e00E', symObjAddr: 0x6234, symBinAddr: 0x27350, symSize: 0x58 }
  - { offset: 0x5BE02, size: 0x8, addend: 0x0, symName: '__ZN84_$LT$$RF$$u5b$proc_macro..Span$u5d$$u20$as$u20$proc_macro..diagnostic..MultiSpan$GT$10into_spans17h0e7cc79757bc2284E', symObjAddr: 0x628C, symBinAddr: 0x273A8, symSize: 0xB0 }
  - { offset: 0x5BFBA, size: 0x8, addend: 0x0, symName: '__ZN91_$LT$proc_macro..diagnostic..Children$u20$as$u20$core..iter..traits..iterator..Iterator$GT$4next17hf6121875b1f849c9E', symObjAddr: 0x633C, symBinAddr: 0x27458, symSize: 0x30 }
  - { offset: 0x5C02F, size: 0x8, addend: 0x0, symName: __ZN10proc_macro10diagnostic10Diagnostic4emit17hd8ce04abcc2751f4E, symObjAddr: 0x636C, symBinAddr: 0x27488, symSize: 0x2C0 }
  - { offset: 0x5C533, size: 0x8, addend: 0x0, symName: __ZN10proc_macro10diagnostic10Diagnostic4emit11to_internal17h47d997076852ba36E, symObjAddr: 0x662C, symBinAddr: 0x27748, symSize: 0x1B0 }
  - { offset: 0x5CA18, size: 0x8, addend: 0x0, symName: __ZN10proc_macro6escape12escape_bytes17h50a7e7d38f60229cE, symObjAddr: 0x67DC, symBinAddr: 0x278F8, symSize: 0x900 }
  - { offset: 0x5DAEF, size: 0x8, addend: 0x0, symName: __ZN10proc_macro12is_available17ha50352f00472b7f9E, symObjAddr: 0x70DC, symBinAddr: 0x281F8, symSize: 0x2C }
  - { offset: 0x5DBA2, size: 0x8, addend: 0x0, symName: '__ZN59_$LT$proc_macro..LexError$u20$as$u20$core..fmt..Display$GT$3fmt17h4f41e6cf569bf8ddE', symObjAddr: 0x7108, symBinAddr: 0x28224, symSize: 0x20 }
  - { offset: 0x5DBC2, size: 0x8, addend: 0x0, symName: '__ZN62_$LT$proc_macro..ExpandError$u20$as$u20$core..fmt..Display$GT$3fmt17h20e0adaaec6a27faE', symObjAddr: 0x7128, symBinAddr: 0x28244, symSize: 0x20 }
  - { offset: 0x5DBFB, size: 0x8, addend: 0x0, symName: __ZN10proc_macro11TokenStream8is_empty17hfc0410b082d81324E, symObjAddr: 0x7148, symBinAddr: 0x28264, symSize: 0x284 }
  - { offset: 0x5E1BF, size: 0x8, addend: 0x0, symName: __ZN10proc_macro11TokenStream11expand_expr17h6bbebee4a896ba06E, symObjAddr: 0x73CC, symBinAddr: 0x284E8, symSize: 0x364 }
  - { offset: 0x5E891, size: 0x8, addend: 0x0, symName: '__ZN70_$LT$proc_macro..TokenStream$u20$as$u20$core..str..traits..FromStr$GT$8from_str17h12e41caf1263fd67E', symObjAddr: 0x7730, symBinAddr: 0x2884C, symSize: 0x308 }
  - { offset: 0x5EFB1, size: 0x8, addend: 0x0, symName: '__ZN67_$LT$proc_macro..TokenStream$u20$as$u20$alloc..string..ToString$GT$9to_string17h4ad7f6adfb8e9f1fE', symObjAddr: 0x7A38, symBinAddr: 0x28B54, symSize: 0x284 }
  - { offset: 0x5F5BB, size: 0x8, addend: 0x0, symName: '__ZN62_$LT$proc_macro..TokenStream$u20$as$u20$core..fmt..Display$GT$3fmt17hac776cc5996cf7ecE', symObjAddr: 0x7CBC, symBinAddr: 0x28DD8, symSize: 0x78 }
  - { offset: 0x5F822, size: 0x8, addend: 0x0, symName: '__ZN93_$LT$proc_macro..token_stream..IntoIter$u20$as$u20$core..iter..traits..iterator..Iterator$GT$4next17he18bf6fd86330db8E', symObjAddr: 0x87E8, symBinAddr: 0x29904, symSize: 0xB4 }
  - { offset: 0x5F839, size: 0x8, addend: 0x0, symName: '__ZN93_$LT$proc_macro..token_stream..IntoIter$u20$as$u20$core..iter..traits..iterator..Iterator$GT$4next17he18bf6fd86330db8E', symObjAddr: 0x87E8, symBinAddr: 0x29904, symSize: 0xB4 }
  - { offset: 0x5F8C2, size: 0x8, addend: 0x0, symName: '__ZN93_$LT$proc_macro..token_stream..IntoIter$u20$as$u20$core..iter..traits..iterator..Iterator$GT$9size_hint17h254f27fa1e84ea2aE', symObjAddr: 0x889C, symBinAddr: 0x299B8, symSize: 0x38 }
  - { offset: 0x5F91E, size: 0x8, addend: 0x0, symName: '__ZN93_$LT$proc_macro..token_stream..IntoIter$u20$as$u20$core..iter..traits..iterator..Iterator$GT$5count17h1b74b52eb20c0b15E', symObjAddr: 0x88D4, symBinAddr: 0x299F0, symSize: 0x3C }
  - { offset: 0x5F9BF, size: 0x8, addend: 0x0, symName: '__ZN10proc_macro12token_stream95_$LT$impl$u20$core..iter..traits..collect..IntoIterator$u20$for$u20$proc_macro..TokenStream$GT$9into_iter17hdbcca16b7579337fE', symObjAddr: 0x8910, symBinAddr: 0x29A2C, symSize: 0x850 }
  - { offset: 0x60FBE, size: 0x8, addend: 0x0, symName: '__ZN60_$LT$proc_macro..TokenStream$u20$as$u20$core..fmt..Debug$GT$3fmt17h4f01b17bc0d85c32E', symObjAddr: 0x7D34, symBinAddr: 0x28E50, symSize: 0x210 }
  - { offset: 0x612E3, size: 0x8, addend: 0x0, symName: '__ZN92_$LT$proc_macro..TokenStream$u20$as$u20$core..convert..From$LT$proc_macro..TokenTree$GT$$GT$4from17h3d4fd27dcc55c183E', symObjAddr: 0x7F44, symBinAddr: 0x29060, symSize: 0x308 }
  - { offset: 0x61935, size: 0x8, addend: 0x0, symName: __ZN10proc_macro17ConcatTreesHelper3new17h1d0890c1111eda17E, symObjAddr: 0x824C, symBinAddr: 0x29368, symSize: 0x90 }
  - { offset: 0x61A78, size: 0x8, addend: 0x0, symName: __ZN10proc_macro17ConcatTreesHelper4push17h4892352d969ba411E, symObjAddr: 0x82DC, symBinAddr: 0x293F8, symSize: 0x164 }
  - { offset: 0x61C3A, size: 0x8, addend: 0x0, symName: __ZN10proc_macro17ConcatTreesHelper5build17hb8f126a83595014bE, symObjAddr: 0x8440, symBinAddr: 0x2955C, symSize: 0x30 }
  - { offset: 0x61C7A, size: 0x8, addend: 0x0, symName: __ZN10proc_macro17ConcatTreesHelper9append_to17ha3e549f161f12615E, symObjAddr: 0x8470, symBinAddr: 0x2958C, symSize: 0x44 }
  - { offset: 0x61D5B, size: 0x8, addend: 0x0, symName: __ZN10proc_macro19ConcatStreamsHelper3new17h5942148012f4a396E, symObjAddr: 0x84B4, symBinAddr: 0x295D0, symSize: 0x84 }
  - { offset: 0x61E9E, size: 0x8, addend: 0x0, symName: __ZN10proc_macro19ConcatStreamsHelper4push17he65ece89b404b516E, symObjAddr: 0x8538, symBinAddr: 0x29654, symSize: 0x80 }
  - { offset: 0x62003, size: 0x8, addend: 0x0, symName: __ZN10proc_macro19ConcatStreamsHelper5build17hce9468544a06d698E, symObjAddr: 0x85B8, symBinAddr: 0x296D4, symSize: 0x58 }
  - { offset: 0x620AF, size: 0x8, addend: 0x0, symName: __ZN10proc_macro19ConcatStreamsHelper9append_to17hecf11cf3fe1e8c19E, symObjAddr: 0x8610, symBinAddr: 0x2972C, symSize: 0x60 }
  - { offset: 0x620CD, size: 0x8, addend: 0x0, symName: __ZN10proc_macro19ConcatStreamsHelper9append_to17hecf11cf3fe1e8c19E, symObjAddr: 0x8610, symBinAddr: 0x2972C, symSize: 0x60 }
  - { offset: 0x620E2, size: 0x8, addend: 0x0, symName: __ZN10proc_macro19ConcatStreamsHelper9append_to17hecf11cf3fe1e8c19E, symObjAddr: 0x8610, symBinAddr: 0x2972C, symSize: 0x60 }
  - { offset: 0x6224B, size: 0x8, addend: 0x0, symName: '__ZN116_$LT$proc_macro..TokenStream$u20$as$u20$core..iter..traits..collect..FromIterator$LT$proc_macro..TokenStream$GT$$GT$9from_iter17h3335dcdb40ce7650E', symObjAddr: 0x8670, symBinAddr: 0x2978C, symSize: 0x178 }
  - { offset: 0x6266D, size: 0x8, addend: 0x0, symName: __ZN10proc_macro4Span8def_site17hd4246a0c73e2d72fE, symObjAddr: 0x19BC0, symBinAddr: 0x3ACDC, symSize: 0x78 }
  - { offset: 0x62758, size: 0x8, addend: 0x0, symName: __ZN10proc_macro4Span9call_site17h0942a7ac58109d37E, symObjAddr: 0x19C38, symBinAddr: 0x3AD54, symSize: 0x78 }
  - { offset: 0x62843, size: 0x8, addend: 0x0, symName: __ZN10proc_macro4Span10mixed_site17haf43d8c8526960b4E, symObjAddr: 0x19CB0, symBinAddr: 0x3ADCC, symSize: 0x78 }
  - { offset: 0x62935, size: 0x8, addend: 0x0, symName: __ZN10proc_macro4Span11source_file17hf85c4ae0e0f02621E, symObjAddr: 0x19D28, symBinAddr: 0x3AE44, symSize: 0x274 }
  - { offset: 0x62ECC, size: 0x8, addend: 0x0, symName: __ZN10proc_macro4Span6parent17he30cda04c17da65cE, symObjAddr: 0x19F9C, symBinAddr: 0x3B0B8, symSize: 0x274 }
  - { offset: 0x63463, size: 0x8, addend: 0x0, symName: __ZN10proc_macro4Span6source17h83a14d8715ce86b4E, symObjAddr: 0x1A210, symBinAddr: 0x3B32C, symSize: 0x274 }
  - { offset: 0x639FA, size: 0x8, addend: 0x0, symName: __ZN10proc_macro4Span10byte_range17hb2a33f17fa31a435E, symObjAddr: 0x1A484, symBinAddr: 0x3B5A0, symSize: 0x30C }
  - { offset: 0x64161, size: 0x8, addend: 0x0, symName: __ZN10proc_macro4Span5start17h21db8c9b144a5c4dE, symObjAddr: 0x1A790, symBinAddr: 0x3B8AC, symSize: 0x274 }
  - { offset: 0x646F8, size: 0x8, addend: 0x0, symName: __ZN10proc_macro4Span3end17hb6c3c83640b88b29E, symObjAddr: 0x1AA04, symBinAddr: 0x3BB20, symSize: 0x274 }
  - { offset: 0x64C8F, size: 0x8, addend: 0x0, symName: __ZN10proc_macro4Span4line17hf787825fdda2f016E, symObjAddr: 0x1AC78, symBinAddr: 0x3BD94, symSize: 0x264 }
  - { offset: 0x65226, size: 0x8, addend: 0x0, symName: __ZN10proc_macro4Span6column17hcc647d2e6273376aE, symObjAddr: 0x1AEDC, symBinAddr: 0x3BFF8, symSize: 0x264 }
  - { offset: 0x657BD, size: 0x8, addend: 0x0, symName: __ZN10proc_macro4Span4join17h116aa000566a6209E, symObjAddr: 0x1B140, symBinAddr: 0x3C25C, symSize: 0x300 }
  - { offset: 0x65E9D, size: 0x8, addend: 0x0, symName: __ZN10proc_macro4Span11resolved_at17h542caf5b2937ac6eE, symObjAddr: 0x1B440, symBinAddr: 0x3C55C, symSize: 0x300 }
  - { offset: 0x6657D, size: 0x8, addend: 0x0, symName: __ZN10proc_macro4Span10located_at17hf01dd5f90375a132E, symObjAddr: 0x1B740, symBinAddr: 0x3C85C, symSize: 0x28 }
  - { offset: 0x66598, size: 0x8, addend: 0x0, symName: __ZN10proc_macro4Span11source_text17hb218ebdc00ddddcbE, symObjAddr: 0x1B768, symBinAddr: 0x3C884, symSize: 0x314 }
  - { offset: 0x66BAB, size: 0x8, addend: 0x0, symName: __ZN10proc_macro4Span9save_span17h79c835d748afd6b1E, symObjAddr: 0x1BA7C, symBinAddr: 0x3CB98, symSize: 0x264 }
  - { offset: 0x67142, size: 0x8, addend: 0x0, symName: __ZN10proc_macro4Span23recover_proc_macro_span17h18636c098110c949E, symObjAddr: 0x1BCE0, symBinAddr: 0x3CDFC, symSize: 0x274 }
  - { offset: 0x676E1, size: 0x8, addend: 0x0, symName: __ZN10proc_macro5Ident3new17h76d649cd801c13a0E, symObjAddr: 0x1D1B4, symBinAddr: 0x3E2D0, symSize: 0x30 }
  - { offset: 0x676F5, size: 0x8, addend: 0x0, symName: __ZN10proc_macro5Ident7new_raw17hd970057401e6fbb9E, symObjAddr: 0x1D1E4, symBinAddr: 0x3E300, symSize: 0x3C }
  - { offset: 0x677A8, size: 0x8, addend: 0x0, symName: __ZN10proc_macro5Punct3new17h136aeb666c035605E, symObjAddr: 0x1CEFC, symBinAddr: 0x3E018, symSize: 0x10C }
  - { offset: 0x67FA9, size: 0x8, addend: 0x0, symName: '__ZN10proc_macro5quote5quote28_$u7b$$u7b$closure$u7d$$u7d$17hac8b0405edd6bf59E', symObjAddr: 0xAD7C, symBinAddr: 0x2BE98, symSize: 0xE618 }
  - { offset: 0x9CA9E, size: 0x8, addend: 0x0, symName: __ZN10proc_macro5quote5quote17hb1972219c2d41064E, symObjAddr: 0x9160, symBinAddr: 0x2A27C, symSize: 0x1C1C }
  - { offset: 0xA2009, size: 0x8, addend: 0x0, symName: __ZN10proc_macro5quote10quote_span17h4868852220d3d0d8E, symObjAddr: 0x19394, symBinAddr: 0x3A4B0, symSize: 0x82C }
  - { offset: 0xA38F7, size: 0x8, addend: 0x0, symName: __ZN10proc_macro5Group3new17hd7e74d554a7d2c34E, symObjAddr: 0x1CB70, symBinAddr: 0x3DC8C, symSize: 0xDC }
  - { offset: 0xA3AB1, size: 0x8, addend: 0x0, symName: __ZN10proc_macro5Group6stream17hb6bcb91462233384E, symObjAddr: 0x1CC4C, symBinAddr: 0x3DD68, symSize: 0x24 }
  - { offset: 0xA3B9B, size: 0x8, addend: 0x0, symName: __ZN10proc_macro7Literal14f32_unsuffixed17hae17f7b96e1b220bE, symObjAddr: 0x1D58C, symBinAddr: 0x3E6A8, symSize: 0x250 }
  - { offset: 0xA40E9, size: 0x8, addend: 0x0, symName: __ZN10proc_macro7Literal12f32_suffixed17h844366cfffd11156E, symObjAddr: 0x1D7DC, symBinAddr: 0x3E8F8, symSize: 0x1D4 }
  - { offset: 0xA4470, size: 0x8, addend: 0x0, symName: __ZN10proc_macro7Literal14f64_unsuffixed17h1b07ed93d5932531E, symObjAddr: 0x1D9B0, symBinAddr: 0x3EACC, symSize: 0x250 }
  - { offset: 0xA49BE, size: 0x8, addend: 0x0, symName: __ZN10proc_macro7Literal12f64_suffixed17h79130e1a4f798a77E, symObjAddr: 0x1DC00, symBinAddr: 0x3ED1C, symSize: 0x1D4 }
  - { offset: 0xA4D45, size: 0x8, addend: 0x0, symName: __ZN10proc_macro7Literal6string17ha0a7cfb5797efa45E, symObjAddr: 0x1DDD4, symBinAddr: 0x3EEF0, symSize: 0x100 }
  - { offset: 0xA5048, size: 0x8, addend: 0x0, symName: __ZN10proc_macro7Literal9character17h3b6fa474d193390cE, symObjAddr: 0x1DED4, symBinAddr: 0x3EFF0, symSize: 0x198 }
  - { offset: 0xA5385, size: 0x8, addend: 0x0, symName: __ZN10proc_macro7Literal14byte_character17hecbc86add0ce6833E, symObjAddr: 0x1E06C, symBinAddr: 0x3F188, symSize: 0xF4 }
  - { offset: 0xA5688, size: 0x8, addend: 0x0, symName: __ZN10proc_macro7Literal11byte_string17h714c243ed8aabc4cE, symObjAddr: 0x1E160, symBinAddr: 0x3F27C, symSize: 0x104 }
  - { offset: 0xA598B, size: 0x8, addend: 0x0, symName: __ZN10proc_macro7Literal8c_string17h28169f32215cb96cE, symObjAddr: 0x1E264, symBinAddr: 0x3F380, symSize: 0x104 }
  - { offset: 0xA5CDB, size: 0x8, addend: 0x0, symName: __ZN10proc_macro7Literal11u8_suffixed17h5a70b4230a52e2a0E, symObjAddr: 0x24204, symBinAddr: 0x45320, symSize: 0x11C }
  - { offset: 0xA5FD0, size: 0x8, addend: 0x0, symName: __ZN10proc_macro7Literal12u16_suffixed17hce732aeafe00a316E, symObjAddr: 0x24320, symBinAddr: 0x4543C, symSize: 0x184 }
  - { offset: 0xA62F5, size: 0x8, addend: 0x0, symName: __ZN10proc_macro7Literal12u32_suffixed17hccb2c128a9ef45dbE, symObjAddr: 0x244A4, symBinAddr: 0x455C0, symSize: 0x184 }
  - { offset: 0xA661A, size: 0x8, addend: 0x0, symName: __ZN10proc_macro7Literal12u64_suffixed17h21b0a449c661dd6fE, symObjAddr: 0x24628, symBinAddr: 0x45744, symSize: 0x184 }
  - { offset: 0xA693F, size: 0x8, addend: 0x0, symName: __ZN10proc_macro7Literal13u128_suffixed17h61295ac2a0ae685eE, symObjAddr: 0x247AC, symBinAddr: 0x458C8, symSize: 0x184 }
  - { offset: 0xA6C64, size: 0x8, addend: 0x0, symName: __ZN10proc_macro7Literal14usize_suffixed17h64a11cd3187b6472E, symObjAddr: 0x24930, symBinAddr: 0x45A4C, symSize: 0x184 }
  - { offset: 0xA6F89, size: 0x8, addend: 0x0, symName: __ZN10proc_macro7Literal11i8_suffixed17h41367877a10d739eE, symObjAddr: 0x24AB4, symBinAddr: 0x45BD0, symSize: 0x11C }
  - { offset: 0xA727E, size: 0x8, addend: 0x0, symName: __ZN10proc_macro7Literal12i16_suffixed17h3bad14204c4c7fedE, symObjAddr: 0x24BD0, symBinAddr: 0x45CEC, symSize: 0x184 }
  - { offset: 0xA75A3, size: 0x8, addend: 0x0, symName: __ZN10proc_macro7Literal12i32_suffixed17he7911be25d2bd6beE, symObjAddr: 0x24D54, symBinAddr: 0x45E70, symSize: 0x184 }
  - { offset: 0xA78C8, size: 0x8, addend: 0x0, symName: __ZN10proc_macro7Literal12i64_suffixed17h670cb3c3897924b9E, symObjAddr: 0x24ED8, symBinAddr: 0x45FF4, symSize: 0x184 }
  - { offset: 0xA7BED, size: 0x8, addend: 0x0, symName: __ZN10proc_macro7Literal13i128_suffixed17h972655b2577ae5aeE, symObjAddr: 0x2505C, symBinAddr: 0x46178, symSize: 0x184 }
  - { offset: 0xA7F12, size: 0x8, addend: 0x0, symName: __ZN10proc_macro7Literal14isize_suffixed17h019c186ce5753c4fE, symObjAddr: 0x251E0, symBinAddr: 0x462FC, symSize: 0x184 }
  - { offset: 0xA8237, size: 0x8, addend: 0x0, symName: __ZN10proc_macro7Literal13u8_unsuffixed17he8f9416e70e4bfaaE, symObjAddr: 0x25364, symBinAddr: 0x46480, symSize: 0xFC }
  - { offset: 0xA852C, size: 0x8, addend: 0x0, symName: __ZN10proc_macro7Literal14u16_unsuffixed17hfc9ca922d3b6088bE, symObjAddr: 0x25460, symBinAddr: 0x4657C, symSize: 0x170 }
  - { offset: 0xA8851, size: 0x8, addend: 0x0, symName: __ZN10proc_macro7Literal14u32_unsuffixed17hab6d7c57a384fc64E, symObjAddr: 0x255D0, symBinAddr: 0x466EC, symSize: 0x170 }
  - { offset: 0xA8B76, size: 0x8, addend: 0x0, symName: __ZN10proc_macro7Literal14u64_unsuffixed17hf49f93d2a8947f3dE, symObjAddr: 0x25740, symBinAddr: 0x4685C, symSize: 0x170 }
  - { offset: 0xA8E9B, size: 0x8, addend: 0x0, symName: __ZN10proc_macro7Literal15u128_unsuffixed17hff9d104277a9871fE, symObjAddr: 0x258B0, symBinAddr: 0x469CC, symSize: 0x170 }
  - { offset: 0xA91C0, size: 0x8, addend: 0x0, symName: __ZN10proc_macro7Literal16usize_unsuffixed17h51649fae7ace103dE, symObjAddr: 0x25A20, symBinAddr: 0x46B3C, symSize: 0x170 }
  - { offset: 0xA94E5, size: 0x8, addend: 0x0, symName: __ZN10proc_macro7Literal13i8_unsuffixed17h71518c3885578a55E, symObjAddr: 0x25B90, symBinAddr: 0x46CAC, symSize: 0xFC }
  - { offset: 0xA97DA, size: 0x8, addend: 0x0, symName: __ZN10proc_macro7Literal14i16_unsuffixed17h5e60c56469fe0a21E, symObjAddr: 0x25C8C, symBinAddr: 0x46DA8, symSize: 0x170 }
  - { offset: 0xA9AFF, size: 0x8, addend: 0x0, symName: __ZN10proc_macro7Literal14i32_unsuffixed17ha5c8f1218377f0b2E, symObjAddr: 0x25DFC, symBinAddr: 0x46F18, symSize: 0x170 }
  - { offset: 0xA9E24, size: 0x8, addend: 0x0, symName: __ZN10proc_macro7Literal14i64_unsuffixed17h049b6474807f3bf1E, symObjAddr: 0x25F6C, symBinAddr: 0x47088, symSize: 0x170 }
  - { offset: 0xAA149, size: 0x8, addend: 0x0, symName: __ZN10proc_macro7Literal15i128_unsuffixed17h49ff3d81bc39af3dE, symObjAddr: 0x260DC, symBinAddr: 0x471F8, symSize: 0x170 }
  - { offset: 0xAA46E, size: 0x8, addend: 0x0, symName: __ZN10proc_macro7Literal16isize_unsuffixed17h588bfc896d21126aE, symObjAddr: 0x2624C, symBinAddr: 0x47368, symSize: 0x170 }
  - { offset: 0xAA799, size: 0x8, addend: 0x0, symName: '__ZN53_$LT$proc_macro..Span$u20$as$u20$core..fmt..Debug$GT$3fmt17ha855d399cccccd0aE', symObjAddr: 0x1BF54, symBinAddr: 0x3D070, symSize: 0x10 }
  - { offset: 0xAA7BA, size: 0x8, addend: 0x0, symName: __ZN10proc_macro10SourceFile4path17h4bb86e03cb5f2a37E, symObjAddr: 0x1BF64, symBinAddr: 0x3D080, symSize: 0x270 }
  - { offset: 0xAAD51, size: 0x8, addend: 0x0, symName: __ZN10proc_macro10SourceFile7is_real17hb21dd2eeb06acf04E, symObjAddr: 0x1C1D4, symBinAddr: 0x3D2F0, symSize: 0x278 }
  - { offset: 0xAB2EE, size: 0x8, addend: 0x0, symName: '__ZN59_$LT$proc_macro..SourceFile$u20$as$u20$core..fmt..Debug$GT$3fmt17hd54c12b1655049a7E', symObjAddr: 0x1C44C, symBinAddr: 0x3D568, symSize: 0xE0 }
  - { offset: 0xAB464, size: 0x8, addend: 0x0, symName: '__ZN63_$LT$proc_macro..SourceFile$u20$as$u20$core..cmp..PartialEq$GT$2eq17h4804af496f495906E', symObjAddr: 0x1C52C, symBinAddr: 0x3D648, symSize: 0x304 }
  - { offset: 0xABB58, size: 0x8, addend: 0x0, symName: '__ZN54_$LT$proc_macro..Punct$u20$as$u20$core..fmt..Debug$GT$3fmt17h91cd7abde84343dcE', symObjAddr: 0x1D0FC, symBinAddr: 0x3E218, symSize: 0xB8 }
  - { offset: 0xABBC0, size: 0x8, addend: 0x0, symName: '__ZN56_$LT$proc_macro..Literal$u20$as$u20$core..fmt..Debug$GT$3fmt17h0019fa7553e1bacdE', symObjAddr: 0x1F158, symBinAddr: 0x40274, symSize: 0x10C }
  - { offset: 0xABC83, size: 0x8, addend: 0x0, symName: '__ZN58_$LT$proc_macro..TokenTree$u20$as$u20$core..fmt..Debug$GT$3fmt17hd7265638b27c3026E', symObjAddr: 0x1C830, symBinAddr: 0x3D94C, symSize: 0x1C8 }
  - { offset: 0xABDC6, size: 0x8, addend: 0x0, symName: '__ZN61_$LT$proc_macro..Punct$u20$as$u20$alloc..string..ToString$GT$9to_string17h3ac2aa50ced94668E', symObjAddr: 0x1D008, symBinAddr: 0x3E124, symSize: 0x9C }
  - { offset: 0xABF75, size: 0x8, addend: 0x0, symName: '__ZN65_$LT$proc_macro..TokenTree$u20$as$u20$alloc..string..ToString$GT$9to_string17h8309639d20805380E', symObjAddr: 0x1C9F8, symBinAddr: 0x3DB14, symSize: 0x100 }
  - { offset: 0xAC129, size: 0x8, addend: 0x0, symName: '__ZN60_$LT$proc_macro..TokenTree$u20$as$u20$core..fmt..Display$GT$3fmt17hb0f4cf9148ce5911E', symObjAddr: 0x1CAF8, symBinAddr: 0x3DC14, symSize: 0x78 }
  - { offset: 0xAC368, size: 0x8, addend: 0x0, symName: '__ZN61_$LT$proc_macro..Group$u20$as$u20$alloc..string..ToString$GT$9to_string17hb22c32a172b78865E', symObjAddr: 0x1CC70, symBinAddr: 0x3DD8C, symSize: 0xD8 }
  - { offset: 0xAC5B1, size: 0x8, addend: 0x0, symName: '__ZN56_$LT$proc_macro..Group$u20$as$u20$core..fmt..Display$GT$3fmt17h097de5d7a34820ddE', symObjAddr: 0x1CD48, symBinAddr: 0x3DE64, symSize: 0x78 }
  - { offset: 0xAC7C8, size: 0x8, addend: 0x0, symName: '__ZN54_$LT$proc_macro..Group$u20$as$u20$core..fmt..Debug$GT$3fmt17hc3ccadef1f65e330E', symObjAddr: 0x1CDC0, symBinAddr: 0x3DEDC, symSize: 0x13C }
  - { offset: 0xAC9ED, size: 0x8, addend: 0x0, symName: '__ZN56_$LT$proc_macro..Punct$u20$as$u20$core..fmt..Display$GT$3fmt17hb875c4e867390550E', symObjAddr: 0x1D0A4, symBinAddr: 0x3E1C0, symSize: 0x58 }
  - { offset: 0xACA62, size: 0x8, addend: 0x0, symName: '__ZN61_$LT$proc_macro..Ident$u20$as$u20$alloc..string..ToString$GT$9to_string17h38fa424a128a85e7E', symObjAddr: 0x1D220, symBinAddr: 0x3E33C, symSize: 0x240 }
  - { offset: 0xACEC6, size: 0x8, addend: 0x0, symName: '__ZN56_$LT$proc_macro..Ident$u20$as$u20$core..fmt..Display$GT$3fmt17he144f77933bb1b90E', symObjAddr: 0x1D460, symBinAddr: 0x3E57C, symSize: 0x58 }
  - { offset: 0xACEFD, size: 0x8, addend: 0x0, symName: '__ZN54_$LT$proc_macro..Ident$u20$as$u20$core..fmt..Debug$GT$3fmt17h508052fd0ead6704E', symObjAddr: 0x1D4B8, symBinAddr: 0x3E5D4, symSize: 0xD4 }
  - { offset: 0xAD064, size: 0x8, addend: 0x0, symName: '__ZN63_$LT$proc_macro..Literal$u20$as$u20$alloc..string..ToString$GT$9to_string17h2de15adc1d9e15a6E', symObjAddr: 0x1EB14, symBinAddr: 0x3FC30, symSize: 0x344 }
  - { offset: 0xAD663, size: 0x8, addend: 0x0, symName: '__ZN10proc_macro7Literal20with_stringify_parts28_$u7b$$u7b$closure$u7d$$u7d$17haebe5b67975fbebeE', symObjAddr: 0x1E368, symBinAddr: 0x3F484, symSize: 0x190 }
  - { offset: 0xAD734, size: 0x8, addend: 0x0, symName: '__ZN10proc_macro7Literal20with_stringify_parts28_$u7b$$u7b$closure$u7d$$u7d$17hc793253fa8c3f068E', symObjAddr: 0x1E4F8, symBinAddr: 0x3F614, symSize: 0x24C }
  - { offset: 0xAD97C, size: 0x8, addend: 0x0, symName: '__ZN58_$LT$proc_macro..Literal$u20$as$u20$core..fmt..Display$GT$3fmt17h15fc5ac866404d7fE', symObjAddr: 0x1EE58, symBinAddr: 0x3FF74, symSize: 0x300 }
  - { offset: 0xADF95, size: 0x8, addend: 0x0, symName: '__ZN66_$LT$proc_macro..Literal$u20$as$u20$core..str..traits..FromStr$GT$8from_str17hbd1bfc46d69e015aE', symObjAddr: 0x1E744, symBinAddr: 0x3F860, symSize: 0x3D0 }
  - { offset: 0xAE7C9, size: 0x8, addend: 0x0, symName: '__ZN58_$LT$proc_macro..Delimiter$u20$as$u20$core..fmt..Debug$GT$3fmt17h86fd5c65db32aa8eE', symObjAddr: 0x24198, symBinAddr: 0x452B4, symSize: 0x34 }
  - { offset: 0xAE7EA, size: 0x8, addend: 0x0, symName: '__ZN56_$LT$proc_macro..Spacing$u20$as$u20$core..fmt..Debug$GT$3fmt17hb3a11c754bc3df41E', symObjAddr: 0x241CC, symBinAddr: 0x452E8, symSize: 0x38 }
  - { offset: 0xAE838, size: 0x8, addend: 0x0, symName: '__ZN3std3sys12thread_local6native4lazy20Storage$LT$T$C$D$GT$10initialize17h5d9c925af1bfcf36E', symObjAddr: 0x90, symBinAddr: 0xCF19C, symSize: 0x144 }
  - { offset: 0xAE9C8, size: 0x8, addend: 0x0, symName: __ZN3std3sys12thread_local6native4lazy7destroy17h2ce144f0b75f5ef1E, symObjAddr: 0x1D4, symBinAddr: 0x21ADC, symSize: 0x48 }
  - { offset: 0xAEAD6, size: 0x8, addend: 0x0, symName: '__ZN3std4sync4once4Once9call_once28_$u7b$$u7b$closure$u7d$$u7d$17hd321b4566364732eE', symObjAddr: 0x21C, symBinAddr: 0x21B24, symSize: 0xA8 }
  - { offset: 0xAF9C1, size: 0x8, addend: 0x0, symName: '__ZN5alloc7raw_vec19RawVec$LT$T$C$A$GT$8grow_one17h7c75976137859742E', symObjAddr: 0x2D50, symBinAddr: 0x24658, symSize: 0xA0 }
  - { offset: 0xAFAEC, size: 0x8, addend: 0x0, symName: '__ZN5alloc7raw_vec19RawVec$LT$T$C$A$GT$8grow_one17ha2c3affc6a40c11dE', symObjAddr: 0x2DF0, symBinAddr: 0x246F8, symSize: 0xB4 }
  - { offset: 0xAFC6E, size: 0x8, addend: 0x0, symName: '__ZN5alloc7raw_vec19RawVec$LT$T$C$A$GT$8grow_one17hadaa60a95d1d1915E', symObjAddr: 0x2EA4, symBinAddr: 0x247AC, symSize: 0xB4 }
  - { offset: 0xAFDF0, size: 0x8, addend: 0x0, symName: '__ZN5alloc7raw_vec19RawVec$LT$T$C$A$GT$8grow_one17hfb4cf4d816097670E', symObjAddr: 0x2F58, symBinAddr: 0x24860, symSize: 0xCC }
  - { offset: 0xB01B1, size: 0x8, addend: 0x0, symName: __ZN5alloc7raw_vec11finish_grow17h794c8cc84893dbdeE, symObjAddr: 0x2CC8, symBinAddr: 0x245D0, symSize: 0x88 }
  - { offset: 0xB023E, size: 0x8, addend: 0x0, symName: '__ZN5alloc7raw_vec20RawVecInner$LT$A$GT$7reserve21do_reserve_and_handle17h10b432c354ee92f4E', symObjAddr: 0x3024, symBinAddr: 0xCF2E0, symSize: 0xA0 }
  - { offset: 0xB0BF5, size: 0x8, addend: 0x0, symName: __ZN5alloc6string6String4push17h76c5e5355fc7a650E, symObjAddr: 0x2B88, symBinAddr: 0x24490, symSize: 0x140 }
  - { offset: 0xB1043, size: 0x8, addend: 0x0, symName: '__ZN46_$LT$i8$u20$as$u20$alloc..string..ToString$GT$9to_string17h542bf6d0655a2986E', symObjAddr: 0x3B4, symBinAddr: 0x21CBC, symSize: 0x120 }
  - { offset: 0xB127B, size: 0x8, addend: 0x0, symName: '__ZN46_$LT$u8$u20$as$u20$alloc..string..ToString$GT$9to_string17hc504dddfa0598867E', symObjAddr: 0x4D4, symBinAddr: 0x21DDC, symSize: 0xFC }
  - { offset: 0xB14C0, size: 0x8, addend: 0x0, symName: '__ZN58_$LT$alloc..string..String$u20$as$u20$core..fmt..Debug$GT$3fmt17hdfa762a84976360aE', symObjAddr: 0x28F8, symBinAddr: 0x24200, symSize: 0x1C }
  - { offset: 0xB157B, size: 0x8, addend: 0x0, symName: '__ZN58_$LT$alloc..string..String$u20$as$u20$core..fmt..Write$GT$10write_char17hd93e9ff1698e117fE', symObjAddr: 0x2914, symBinAddr: 0x2421C, symSize: 0x18 }
  - { offset: 0xB1596, size: 0x8, addend: 0x0, symName: '__ZN58_$LT$alloc..string..String$u20$as$u20$core..fmt..Write$GT$9write_str17h0e58f50c5cceb6ccE', symObjAddr: 0x292C, symBinAddr: 0x24234, symSize: 0x78 }
  - { offset: 0xB1859, size: 0x8, addend: 0x0, symName: __ZN5alloc3str17join_generic_copy17h79d2583fff1de204E, symObjAddr: 0x29A4, symBinAddr: 0x242AC, symSize: 0x1E4 }
  - { offset: 0xB23FB, size: 0x8, addend: 0x0, symName: '__ZN9hashbrown3raw21RawTable$LT$T$C$A$GT$14reserve_rehash17h352df7250c692039E', symObjAddr: 0x3190, symBinAddr: 0xCF380, symSize: 0x5F0 }
  - { offset: 0xB3BAF, size: 0x8, addend: 0x0, symName: '__ZN108_$LT$alloc..collections..btree..map..Iter$LT$K$C$V$GT$$u20$as$u20$core..iter..traits..iterator..Iterator$GT$4next17h72af6d586fb705daE', symObjAddr: 0x0, symBinAddr: 0x474D8, symSize: 0x13C }
  - { offset: 0xB4078, size: 0x8, addend: 0x0, symName: '__ZN5alloc11collections5btree4node208Handle$LT$alloc..collections..btree..node..NodeRef$LT$alloc..collections..btree..node..marker..Mut$C$K$C$V$C$alloc..collections..btree..node..marker..Leaf$GT$$C$alloc..collections..btree..node..marker..KV$GT$5split17h83cb0d4b5dcc386eE', symObjAddr: 0xE474, symBinAddr: 0x55784, symSize: 0x1D8 }
  - { offset: 0xB4555, size: 0x8, addend: 0x0, symName: '__ZN5alloc11collections5btree4node208Handle$LT$alloc..collections..btree..node..NodeRef$LT$alloc..collections..btree..node..marker..Mut$C$K$C$V$C$alloc..collections..btree..node..marker..Leaf$GT$$C$alloc..collections..btree..node..marker..KV$GT$5split17hc6f87347b433a116E', symObjAddr: 0xE64C, symBinAddr: 0x5595C, symSize: 0x1CC }
  - { offset: 0xB4A09, size: 0x8, addend: 0x0, symName: '__ZN5alloc11collections5btree4node212Handle$LT$alloc..collections..btree..node..NodeRef$LT$alloc..collections..btree..node..marker..Mut$C$K$C$V$C$alloc..collections..btree..node..marker..Internal$GT$$C$alloc..collections..btree..node..marker..KV$GT$5split17h2e83c4e5af9f09d0E', symObjAddr: 0xE818, symBinAddr: 0x55B28, symSize: 0x2A8 }
  - { offset: 0xB5109, size: 0x8, addend: 0x0, symName: '__ZN5alloc11collections5btree4node212Handle$LT$alloc..collections..btree..node..NodeRef$LT$alloc..collections..btree..node..marker..Mut$C$K$C$V$C$alloc..collections..btree..node..marker..Internal$GT$$C$alloc..collections..btree..node..marker..KV$GT$5split17h99bf6663766894d1E', symObjAddr: 0xEAC0, symBinAddr: 0x55DD0, symSize: 0x29C }
  - { offset: 0xB5818, size: 0x8, addend: 0x0, symName: '__ZN5alloc11collections5btree6remove259_$LT$impl$u20$alloc..collections..btree..node..Handle$LT$alloc..collections..btree..node..NodeRef$LT$alloc..collections..btree..node..marker..Mut$C$K$C$V$C$alloc..collections..btree..node..marker..Leaf$GT$$C$alloc..collections..btree..node..marker..KV$GT$$GT$14remove_leaf_kv17h5572f2f2101eea06E', symObjAddr: 0xF4E4, symBinAddr: 0x567F4, symSize: 0x5B8 }
  - { offset: 0xB64D0, size: 0x8, addend: 0x0, symName: '__ZN5alloc11collections5btree6remove259_$LT$impl$u20$alloc..collections..btree..node..Handle$LT$alloc..collections..btree..node..NodeRef$LT$alloc..collections..btree..node..marker..Mut$C$K$C$V$C$alloc..collections..btree..node..marker..Leaf$GT$$C$alloc..collections..btree..node..marker..KV$GT$$GT$14remove_leaf_kv17h621c038cfd960be5E', symObjAddr: 0xFA9C, symBinAddr: 0x56DAC, symSize: 0x5B8 }
  - { offset: 0xB7FEA, size: 0x8, addend: 0x0, symName: '__ZN5alloc11collections5btree4node29BalancingContext$LT$K$C$V$GT$15bulk_steal_left17h5ad73c5a1cd4fc61E', symObjAddr: 0xED5C, symBinAddr: 0x5606C, symSize: 0x288 }
  - { offset: 0xB8623, size: 0x8, addend: 0x0, symName: '__ZN5alloc11collections5btree4node29BalancingContext$LT$K$C$V$GT$16bulk_steal_right17hd17767b56be9ca08E', symObjAddr: 0xEFE4, symBinAddr: 0x562F4, symSize: 0x2A8 }
  - { offset: 0xB8D41, size: 0x8, addend: 0x0, symName: '__ZN5alloc11collections5btree4node29BalancingContext$LT$K$C$V$GT$8do_merge17h9664da17306ee4f1E', symObjAddr: 0xF28C, symBinAddr: 0x5659C, symSize: 0x258 }
  - { offset: 0xB951D, size: 0x8, addend: 0x0, symName: '__ZN108_$LT$alloc..collections..btree..map..Iter$LT$K$C$V$GT$$u20$as$u20$core..iter..traits..iterator..Iterator$GT$4next17h72af6d586fb705daE', symObjAddr: 0x0, symBinAddr: 0x474D8, symSize: 0x13C }
  - { offset: 0xB98D7, size: 0x8, addend: 0x0, symName: '__ZN5alloc11collections5btree3map25BTreeMap$LT$K$C$V$C$A$GT$6insert17h5a0071cde28f6078E', symObjAddr: 0xCA54, symBinAddr: 0x53D64, symSize: 0x9BC }
  - { offset: 0xBB0C5, size: 0x8, addend: 0x0, symName: '__ZN5alloc11collections5btree3map25BTreeMap$LT$K$C$V$C$A$GT$6insert17h82fa5985676a7aa2E', symObjAddr: 0xD410, symBinAddr: 0x54720, symSize: 0x9F8 }
  - { offset: 0xBCA38, size: 0x8, addend: 0x0, symName: '__ZN5alloc11collections5btree3map25IntoIter$LT$K$C$V$C$A$GT$10dying_next17h12e3dcf500453660E', symObjAddr: 0xDE08, symBinAddr: 0x55118, symSize: 0x224 }
  - { offset: 0xBCE27, size: 0x8, addend: 0x0, symName: '__ZN5alloc11collections5btree3map25IntoIter$LT$K$C$V$C$A$GT$10dying_next17h792957020d65e57cE', symObjAddr: 0xE02C, symBinAddr: 0x5533C, symSize: 0x224 }
  - { offset: 0xBD216, size: 0x8, addend: 0x0, symName: '__ZN5alloc11collections5btree3map25IntoIter$LT$K$C$V$C$A$GT$10dying_next17hb31974b0eaedc10cE', symObjAddr: 0xE250, symBinAddr: 0x55560, symSize: 0x224 }
  - { offset: 0xBD60B, size: 0x8, addend: 0x0, symName: '__ZN94_$LT$alloc..collections..btree..map..BTreeMap$LT$K$C$V$C$A$GT$$u20$as$u20$core..fmt..Debug$GT$3fmt17hc35a8022216a2258E', symObjAddr: 0x18980, symBinAddr: 0x5FBAC, symSize: 0xB8 }
  - { offset: 0xBE93B, size: 0x8, addend: 0x0, symName: '__ZN5alloc7raw_vec19RawVec$LT$T$C$A$GT$8grow_one17h075c6c7443abaefeE', symObjAddr: 0x10450, symBinAddr: 0x57760, symSize: 0xB4 }
  - { offset: 0xBEABD, size: 0x8, addend: 0x0, symName: '__ZN5alloc7raw_vec19RawVec$LT$T$C$A$GT$8grow_one17h166a1991bc1b1d4bE', symObjAddr: 0x10504, symBinAddr: 0x57814, symSize: 0xB4 }
  - { offset: 0xBEC3F, size: 0x8, addend: 0x0, symName: '__ZN5alloc7raw_vec19RawVec$LT$T$C$A$GT$8grow_one17h16773fc118d04764E', symObjAddr: 0x105B8, symBinAddr: 0x578C8, symSize: 0xCC }
  - { offset: 0xBEDC1, size: 0x8, addend: 0x0, symName: '__ZN5alloc7raw_vec19RawVec$LT$T$C$A$GT$8grow_one17h26d3c3e0c0035d3aE', symObjAddr: 0x10684, symBinAddr: 0x57994, symSize: 0xB4 }
  - { offset: 0xBEF43, size: 0x8, addend: 0x0, symName: '__ZN5alloc7raw_vec19RawVec$LT$T$C$A$GT$8grow_one17h2dcc28b3ce16ceb9E', symObjAddr: 0x10738, symBinAddr: 0x57A48, symSize: 0xC8 }
  - { offset: 0xBF0C5, size: 0x8, addend: 0x0, symName: '__ZN5alloc7raw_vec19RawVec$LT$T$C$A$GT$8grow_one17h34433ccfa33c1548E', symObjAddr: 0x10800, symBinAddr: 0x57B10, symSize: 0xCC }
  - { offset: 0xBF247, size: 0x8, addend: 0x0, symName: '__ZN5alloc7raw_vec19RawVec$LT$T$C$A$GT$8grow_one17h39d85b90b601d05aE', symObjAddr: 0x108CC, symBinAddr: 0x57BDC, symSize: 0xC8 }
  - { offset: 0xBF3C9, size: 0x8, addend: 0x0, symName: '__ZN5alloc7raw_vec19RawVec$LT$T$C$A$GT$8grow_one17h3c721d352546eaf3E', symObjAddr: 0x10994, symBinAddr: 0x57CA4, symSize: 0xCC }
  - { offset: 0xBF54B, size: 0x8, addend: 0x0, symName: '__ZN5alloc7raw_vec19RawVec$LT$T$C$A$GT$8grow_one17h586e05289c1bd44cE', symObjAddr: 0x10A60, symBinAddr: 0x57D70, symSize: 0xA0 }
  - { offset: 0xBF676, size: 0x8, addend: 0x0, symName: '__ZN5alloc7raw_vec19RawVec$LT$T$C$A$GT$8grow_one17h5f91a7a76a6c09aeE', symObjAddr: 0x10B00, symBinAddr: 0x57E10, symSize: 0xCC }
  - { offset: 0xBF7F8, size: 0x8, addend: 0x0, symName: '__ZN5alloc7raw_vec19RawVec$LT$T$C$A$GT$8grow_one17h80e9c1852df717ecE', symObjAddr: 0x10BCC, symBinAddr: 0x57EDC, symSize: 0xD4 }
  - { offset: 0xBF97A, size: 0x8, addend: 0x0, symName: '__ZN5alloc7raw_vec19RawVec$LT$T$C$A$GT$8grow_one17hc17bf94f7bc0544cE', symObjAddr: 0x10CA0, symBinAddr: 0x57FB0, symSize: 0xB4 }
  - { offset: 0xBFAFC, size: 0x8, addend: 0x0, symName: '__ZN5alloc7raw_vec19RawVec$LT$T$C$A$GT$8grow_one17hc3a6727d65a81183E', symObjAddr: 0x10D54, symBinAddr: 0x58064, symSize: 0xCC }
  - { offset: 0xBFC7E, size: 0x8, addend: 0x0, symName: '__ZN5alloc7raw_vec19RawVec$LT$T$C$A$GT$8grow_one17hf967a23dcc49c53fE', symObjAddr: 0x10E20, symBinAddr: 0x58130, symSize: 0xB4 }
  - { offset: 0xC092A, size: 0x8, addend: 0x0, symName: __ZN5alloc7raw_vec11finish_grow17h862ca5a250277ca2E, symObjAddr: 0x103C8, symBinAddr: 0x576D8, symSize: 0x88 }
  - { offset: 0xC09C4, size: 0x8, addend: 0x0, symName: '__ZN5alloc7raw_vec20RawVecInner$LT$A$GT$7reserve21do_reserve_and_handle17h5bd7c8b81169b16eE', symObjAddr: 0x10ED4, symBinAddr: 0xCFC94, symSize: 0xE4 }
  - { offset: 0xC214E, size: 0x8, addend: 0x0, symName: '__ZN65_$LT$alloc..vec..Vec$LT$T$C$A$GT$$u20$as$u20$core..fmt..Debug$GT$3fmt17h7c2ad0cf10328a44E', symObjAddr: 0x17C40, symBinAddr: 0x5EE6C, symSize: 0x74 }
  - { offset: 0xC227A, size: 0x8, addend: 0x0, symName: '__ZN65_$LT$alloc..vec..Vec$LT$T$C$A$GT$$u20$as$u20$core..fmt..Debug$GT$3fmt17hc81b2c0dfcc69ebaE', symObjAddr: 0x17CB4, symBinAddr: 0x5EEE0, symSize: 0x70 }
  - { offset: 0xC2A48, size: 0x8, addend: 0x0, symName: '__ZN5alloc4sync16Arc$LT$T$C$A$GT$9drop_slow17h0aa5665700f36d09E', symObjAddr: 0x10054, symBinAddr: 0x57364, symSize: 0x44 }
  - { offset: 0xC2B49, size: 0x8, addend: 0x0, symName: '__ZN5alloc4sync16Arc$LT$T$C$A$GT$9drop_slow17h387c17a8068f8b46E', symObjAddr: 0x10098, symBinAddr: 0x573A8, symSize: 0x7C }
  - { offset: 0xC2D4E, size: 0x8, addend: 0x0, symName: '__ZN5alloc4sync16Arc$LT$T$C$A$GT$9drop_slow17h8140ef5e91500a1cE', symObjAddr: 0x10114, symBinAddr: 0x57424, symSize: 0xC4 }
  - { offset: 0xC2FF6, size: 0x8, addend: 0x0, symName: '__ZN5alloc4sync16Arc$LT$T$C$A$GT$9drop_slow17h838bbef7addedadcE', symObjAddr: 0x101D8, symBinAddr: 0x574E8, symSize: 0xC0 }
  - { offset: 0xC317C, size: 0x8, addend: 0x0, symName: '__ZN5alloc4sync16Arc$LT$T$C$A$GT$9drop_slow17hd93bb8d0d3f31befE', symObjAddr: 0x10298, symBinAddr: 0x575A8, symSize: 0xA0 }
  - { offset: 0xC349B, size: 0x8, addend: 0x0, symName: '__ZN5alloc4sync16Arc$LT$T$C$A$GT$9drop_slow17hf04d07aeddb693f2E', symObjAddr: 0x10338, symBinAddr: 0x57648, symSize: 0x90 }
  - { offset: 0xC3C71, size: 0x8, addend: 0x0, symName: '__ZN64_$LT$alloc..ffi..c_str..NulError$u20$as$u20$core..fmt..Debug$GT$3fmt17h73df61ef3778c398E', symObjAddr: 0x17BF4, symBinAddr: 0x5EE20, symSize: 0x4C }
  - { offset: 0xC441E, size: 0x8, addend: 0x0, symName: '__ZN58_$LT$alloc..string..String$u20$as$u20$core..fmt..Debug$GT$3fmt17hdfa762a84976360aE', symObjAddr: 0xC86C, symBinAddr: 0x53B7C, symSize: 0x1C }
  - { offset: 0xC44D9, size: 0x8, addend: 0x0, symName: '__ZN58_$LT$alloc..string..String$u20$as$u20$core..fmt..Write$GT$10write_char17hd93e9ff1698e117fE', symObjAddr: 0xC888, symBinAddr: 0x53B98, symSize: 0x14C }
  - { offset: 0xC473E, size: 0x8, addend: 0x0, symName: '__ZN58_$LT$alloc..string..String$u20$as$u20$core..fmt..Write$GT$9write_str17h0e58f50c5cceb6ccE', symObjAddr: 0xC9D4, symBinAddr: 0x53CE4, symSize: 0x80 }
  - { offset: 0xC4897, size: 0x8, addend: 0x0, symName: '__ZN60_$LT$alloc..string..String$u20$as$u20$core..fmt..Display$GT$3fmt17hb1770a38898258b9E', symObjAddr: 0x17BD8, symBinAddr: 0x5EE04, symSize: 0x1C }
  - { offset: 0xC49A8, size: 0x8, addend: 0x0, symName: '__ZN66_$LT$alloc..borrow..Cow$LT$B$GT$$u20$as$u20$core..fmt..Display$GT$3fmt17h934f636a5b650a82E', symObjAddr: 0x17D24, symBinAddr: 0x5EF50, symSize: 0x1C }
  - { offset: 0xC58A1, size: 0x8, addend: 0x0, symName: '__ZN66_$LT$core..option..Option$LT$T$GT$$u20$as$u20$core..fmt..Debug$GT$3fmt17h0d22586c1d7cf264E', symObjAddr: 0x17D40, symBinAddr: 0x5EF6C, symSize: 0x60 }
  - { offset: 0xC58BC, size: 0x8, addend: 0x0, symName: '__ZN66_$LT$core..option..Option$LT$T$GT$$u20$as$u20$core..fmt..Debug$GT$3fmt17h1d04b85820ad1c64E', symObjAddr: 0x17DA0, symBinAddr: 0x5EFCC, symSize: 0x5C }
  - { offset: 0xC58D7, size: 0x8, addend: 0x0, symName: '__ZN66_$LT$core..option..Option$LT$T$GT$$u20$as$u20$core..fmt..Debug$GT$3fmt17h3070b5aff61757efE', symObjAddr: 0x17DFC, symBinAddr: 0x5F028, symSize: 0x5C }
  - { offset: 0xC58F2, size: 0x8, addend: 0x0, symName: '__ZN66_$LT$core..option..Option$LT$T$GT$$u20$as$u20$core..fmt..Debug$GT$3fmt17h508bebe52f9eac05E', symObjAddr: 0x17E58, symBinAddr: 0x5F084, symSize: 0x60 }
  - { offset: 0xC590D, size: 0x8, addend: 0x0, symName: '__ZN66_$LT$core..option..Option$LT$T$GT$$u20$as$u20$core..fmt..Debug$GT$3fmt17h5c0325d17553f2d8E', symObjAddr: 0x17EB8, symBinAddr: 0x5F0E4, symSize: 0x60 }
  - { offset: 0xC5928, size: 0x8, addend: 0x0, symName: '__ZN66_$LT$core..option..Option$LT$T$GT$$u20$as$u20$core..fmt..Debug$GT$3fmt17h6cba7647c1409c4eE', symObjAddr: 0x17F18, symBinAddr: 0x5F144, symSize: 0x60 }
  - { offset: 0xC5943, size: 0x8, addend: 0x0, symName: '__ZN66_$LT$core..option..Option$LT$T$GT$$u20$as$u20$core..fmt..Debug$GT$3fmt17h6d1b1bba33696c84E', symObjAddr: 0x17F78, symBinAddr: 0x5F1A4, symSize: 0x5C }
  - { offset: 0xC595E, size: 0x8, addend: 0x0, symName: '__ZN66_$LT$core..option..Option$LT$T$GT$$u20$as$u20$core..fmt..Debug$GT$3fmt17h98c512daf50572b8E', symObjAddr: 0x17FD4, symBinAddr: 0x5F200, symSize: 0x60 }
  - { offset: 0xC5979, size: 0x8, addend: 0x0, symName: '__ZN66_$LT$core..option..Option$LT$T$GT$$u20$as$u20$core..fmt..Debug$GT$3fmt17hc0b8a09cde12bbabE', symObjAddr: 0x18034, symBinAddr: 0x5F260, symSize: 0x60 }
  - { offset: 0xC6D98, size: 0x8, addend: 0x0, symName: '__ZN4core3ptr100drop_in_place$LT$core..option..Option$LT$std..sys..pal..unix..process..process_common..Stdio$GT$$GT$17h390c4c4b36e9449aE', symObjAddr: 0x1888, symBinAddr: 0x48D60, symSize: 0x28 }
  - { offset: 0xC6E04, size: 0x8, addend: 0x0, symName: '__ZN4core3ptr101drop_in_place$LT$alloc..sync..Arc$LT$std..sync..mutex..Mutex$LT$alloc..vec..Vec$LT$u8$GT$$GT$$GT$$GT$17he47baf29b04fcdf3E', symObjAddr: 0x18B0, symBinAddr: 0x48D88, symSize: 0x30 }
  - { offset: 0xC6EC3, size: 0x8, addend: 0x0, symName: '__ZN4core3ptr104drop_in_place$LT$alloc..vec..Vec$LT$$LP$usize$C$std..backtrace_rs..symbolize..gimli..Mapping$RP$$GT$$GT$17h3724f6026d57679bE', symObjAddr: 0x18E0, symBinAddr: 0x48DB8, symSize: 0xC4 }
  - { offset: 0xC707F, size: 0x8, addend: 0x0, symName: '__ZN4core3ptr107drop_in_place$LT$alloc..vec..Vec$LT$$LP$std..ffi..os_str..OsString$C$std..ffi..os_str..OsString$RP$$GT$$GT$17hfc68f09190e14b8aE', symObjAddr: 0x19A4, symBinAddr: 0x48E7C, symSize: 0x94 }
  - { offset: 0xC7306, size: 0x8, addend: 0x0, symName: '__ZN4core3ptr107drop_in_place$LT$core..option..Option$LT$std..sys..pal..unix..process..process_common..CStringArray$GT$$GT$17hc04f4be0667d32faE', symObjAddr: 0x1A38, symBinAddr: 0x48F10, symSize: 0xAC }
  - { offset: 0xC754F, size: 0x8, addend: 0x0, symName: '__ZN4core3ptr108drop_in_place$LT$alloc..collections..btree..map..BTreeMap$LT$u64$C$gimli..read..abbrev..Abbreviation$GT$$GT$17hdd51dbb9038dd43cE', symObjAddr: 0x1AE4, symBinAddr: 0x48FBC, symSize: 0xB0 }
  - { offset: 0xC7702, size: 0x8, addend: 0x0, symName: '__ZN4core3ptr112drop_in_place$LT$$LP$std..ffi..os_str..OsString$C$core..option..Option$LT$std..ffi..os_str..OsString$GT$$RP$$GT$17h2ec7e858acbba68fE', symObjAddr: 0x1B94, symBinAddr: 0x4906C, symSize: 0x58 }
  - { offset: 0xC7877, size: 0x8, addend: 0x0, symName: '__ZN4core3ptr118drop_in_place$LT$$LT$std..backtrace..Backtrace$u20$as$u20$core..fmt..Display$GT$..fmt..$u7b$$u7b$closure$u7d$$u7d$$GT$17h29129ac2cd345645E', symObjAddr: 0x1BEC, symBinAddr: 0x490C4, symSize: 0x40 }
  - { offset: 0xC798C, size: 0x8, addend: 0x0, symName: '__ZN4core3ptr123drop_in_place$LT$addr2line..Context$LT$gimli..read..endian_slice..EndianSlice$LT$gimli..endianity..LittleEndian$GT$$GT$$GT$17hda46d454f19ff930E', symObjAddr: 0x1C2C, symBinAddr: 0x49104, symSize: 0x120 }
  - { offset: 0xC7CAC, size: 0x8, addend: 0x0, symName: '__ZN4core3ptr123drop_in_place$LT$addr2line..ResUnit$LT$gimli..read..endian_slice..EndianSlice$LT$gimli..endianity..LittleEndian$GT$$GT$$GT$17h140d0dcd1acd9019E', symObjAddr: 0x1D4C, symBinAddr: 0x49224, symSize: 0xE4 }
  - { offset: 0xC7E86, size: 0x8, addend: 0x0, symName: '__ZN4core3ptr123drop_in_place$LT$addr2line..SupUnit$LT$gimli..read..endian_slice..EndianSlice$LT$gimli..endianity..LittleEndian$GT$$GT$$GT$17h8a819a68b5060ec8E', symObjAddr: 0x1E30, symBinAddr: 0x49308, symSize: 0x54 }
  - { offset: 0xC7F53, size: 0x8, addend: 0x0, symName: '__ZN4core3ptr124drop_in_place$LT$alloc..collections..btree..map..BTreeMap$LT$std..ffi..os_str..OsString$C$std..ffi..os_str..OsString$GT$$GT$17ha893cf0c42a9c308E', symObjAddr: 0x1E84, symBinAddr: 0x4935C, symSize: 0xC4 }
  - { offset: 0xC815A, size: 0x8, addend: 0x0, symName: '__ZN4core3ptr124drop_in_place$LT$alloc..collections..btree..map..IntoIter$LT$std..ffi..os_str..OsString$C$std..ffi..os_str..OsString$GT$$GT$17hbedd65009acb7ebfE', symObjAddr: 0x1F48, symBinAddr: 0x49420, symSize: 0x94 }
  - { offset: 0xC830D, size: 0x8, addend: 0x0, symName: '__ZN4core3ptr127drop_in_place$LT$std..sync..poison..PoisonError$LT$std..sync..mutex..MutexGuard$LT$std..sync..barrier..BarrierState$GT$$GT$$GT$17hcab5faa07d09967aE', symObjAddr: 0x1FDC, symBinAddr: 0x494B4, symSize: 0x4C }
  - { offset: 0xC8459, size: 0x8, addend: 0x0, symName: '__ZN4core3ptr130drop_in_place$LT$gimli..read..dwarf..Dwarf$LT$gimli..read..endian_slice..EndianSlice$LT$gimli..endianity..LittleEndian$GT$$GT$$GT$17h7eb35384c5128c5bE', symObjAddr: 0x2028, symBinAddr: 0x49500, symSize: 0x58 }
  - { offset: 0xC84EF, size: 0x8, addend: 0x0, symName: '__ZN4core3ptr131drop_in_place$LT$alloc..boxed..Box$LT$dyn$u20$core..ops..function..FnOnce$LT$$LP$$RP$$GT$$u2b$Output$u20$$u3d$$u20$$LP$$RP$$GT$$GT$17h5d8ec31e29fde23dE', symObjAddr: 0x2080, symBinAddr: 0x49558, symSize: 0x78 }
  - { offset: 0xC85DA, size: 0x8, addend: 0x0, symName: '__ZN4core3ptr137drop_in_place$LT$gimli..read..dwarf..Unit$LT$gimli..read..endian_slice..EndianSlice$LT$gimli..endianity..LittleEndian$GT$$C$usize$GT$$GT$17h3d24796a2679cbf6E', symObjAddr: 0x20F8, symBinAddr: 0x495D0, symSize: 0x54 }
  - { offset: 0xC86AD, size: 0x8, addend: 0x0, symName: '__ZN4core3ptr144drop_in_place$LT$alloc..vec..Vec$LT$core..option..Option$LT$core..option..Option$LT$std..backtrace_rs..symbolize..gimli..Mapping$GT$$GT$$GT$$GT$17h0e8af9afa59793f6E', symObjAddr: 0x214C, symBinAddr: 0x49624, symSize: 0x10C }
  - { offset: 0xC8871, size: 0x8, addend: 0x0, symName: '__ZN4core3ptr146drop_in_place$LT$alloc..vec..Vec$LT$addr2line..ResUnit$LT$gimli..read..endian_slice..EndianSlice$LT$gimli..endianity..LittleEndian$GT$$GT$$GT$$GT$17hf181f44a2a3444f1E', symObjAddr: 0x2258, symBinAddr: 0x49730, symSize: 0xC4 }
  - { offset: 0xC89FC, size: 0x8, addend: 0x0, symName: '__ZN4core3ptr146drop_in_place$LT$alloc..vec..Vec$LT$addr2line..SupUnit$LT$gimli..read..endian_slice..EndianSlice$LT$gimli..endianity..LittleEndian$GT$$GT$$GT$$GT$17hc91732f1d0903df2E', symObjAddr: 0x231C, symBinAddr: 0x497F4, symSize: 0xF4 }
  - { offset: 0xC8C22, size: 0x8, addend: 0x0, symName: '__ZN4core3ptr152drop_in_place$LT$alloc..collections..btree..map..BTreeMap$LT$std..ffi..os_str..OsString$C$core..option..Option$LT$std..ffi..os_str..OsString$GT$$GT$$GT$17hb355194dd4ca3852E', symObjAddr: 0x2410, symBinAddr: 0x498E8, symSize: 0xD0 }
  - { offset: 0xC8E4A, size: 0x8, addend: 0x0, symName: '__ZN4core3ptr158drop_in_place$LT$alloc..boxed..Box$LT$$u5b$addr2line..ResUnit$LT$gimli..read..endian_slice..EndianSlice$LT$gimli..endianity..LittleEndian$GT$$GT$$u5d$$GT$$GT$17h4bf939d7a7f1ac07E', symObjAddr: 0x24E0, symBinAddr: 0x499B8, symSize: 0xB4 }
  - { offset: 0xC8F43, size: 0x8, addend: 0x0, symName: '__ZN4core3ptr158drop_in_place$LT$alloc..boxed..Box$LT$$u5b$addr2line..SupUnit$LT$gimli..read..endian_slice..EndianSlice$LT$gimli..endianity..LittleEndian$GT$$GT$$u5d$$GT$$GT$17hcbd148f67d377a72E', symObjAddr: 0x2594, symBinAddr: 0x49A6C, symSize: 0xE4 }
  - { offset: 0xC90F3, size: 0x8, addend: 0x0, symName: '__ZN4core3ptr159drop_in_place$LT$alloc..sync..ArcInner$LT$gimli..read..dwarf..Dwarf$LT$gimli..read..endian_slice..EndianSlice$LT$gimli..endianity..LittleEndian$GT$$GT$$GT$$GT$17h350dc7a25fa01851E', symObjAddr: 0x2678, symBinAddr: 0x49B50, symSize: 0x58 }
  - { offset: 0xC9208, size: 0x8, addend: 0x0, symName: '__ZN4core3ptr174drop_in_place$LT$core..result..Result$LT$addr2line..FrameIter$LT$gimli..read..endian_slice..EndianSlice$LT$gimli..endianity..LittleEndian$GT$$GT$$C$gimli..read..Error$GT$$GT$17h20520c9c39e2d0f6E', symObjAddr: 0x26D0, symBinAddr: 0x49BA8, symSize: 0x44 }
  - { offset: 0xC938C, size: 0x8, addend: 0x0, symName: '__ZN4core3ptr181drop_in_place$LT$core..option..Option$LT$gimli..read..line..IncompleteLineProgram$LT$gimli..read..endian_slice..EndianSlice$LT$gimli..endianity..LittleEndian$GT$$C$usize$GT$$GT$$GT$17heefdf74aaf21e555E', symObjAddr: 0x2714, symBinAddr: 0x49BEC, symSize: 0x94 }
  - { offset: 0xC968D, size: 0x8, addend: 0x0, symName: '__ZN4core3ptr184drop_in_place$LT$core..result..Result$LT$addr2line..function..Functions$LT$gimli..read..endian_slice..EndianSlice$LT$gimli..endianity..LittleEndian$GT$$GT$$C$gimli..read..Error$GT$$GT$17h8a8e7727ae990110E', symObjAddr: 0x27A8, symBinAddr: 0x49C80, symSize: 0xD8 }
  - { offset: 0xC992B, size: 0x8, addend: 0x0, symName: '__ZN4core3ptr205drop_in_place$LT$$LT$alloc..boxed..Box$LT$dyn$u20$core..error..Error$u2b$core..marker..Send$u2b$core..marker..Sync$GT$$u20$as$u20$core..convert..From$LT$alloc..string..String$GT$$GT$..from..StringError$GT$17h83ef85c47549147cE', symObjAddr: 0x2880, symBinAddr: 0x49D58, symSize: 0x28 }
  - { offset: 0xC9A0E, size: 0x8, addend: 0x0, symName: '__ZN4core3ptr215drop_in_place$LT$std..sys..thread_local..native..lazy..State$LT$core..cell..Cell$LT$core..option..Option$LT$alloc..sync..Arc$LT$std..sync..mutex..Mutex$LT$alloc..vec..Vec$LT$u8$GT$$GT$$GT$$GT$$GT$$C$$LP$$RP$$GT$$GT$17h359053fe13b33dfcE', symObjAddr: 0x28A8, symBinAddr: 0x49D80, symSize: 0x40 }
  - { offset: 0xC9AD0, size: 0x8, addend: 0x0, symName: '__ZN4core3ptr250drop_in_place$LT$$LP$gimli..read..UnitOffset$C$addr2line..lazy..LazyCell$LT$core..result..Result$LT$addr2line..function..Function$LT$gimli..read..endian_slice..EndianSlice$LT$gimli..endianity..LittleEndian$GT$$GT$$C$gimli..read..Error$GT$$GT$$RP$$GT$17h9a2b3fa9b348f67fE', symObjAddr: 0x28E8, symBinAddr: 0x49DC0, symSize: 0x64 }
  - { offset: 0xC9AE7, size: 0x8, addend: 0x0, symName: '__ZN4core3ptr250drop_in_place$LT$$LP$gimli..read..UnitOffset$C$addr2line..lazy..LazyCell$LT$core..result..Result$LT$addr2line..function..Function$LT$gimli..read..endian_slice..EndianSlice$LT$gimli..endianity..LittleEndian$GT$$GT$$C$gimli..read..Error$GT$$GT$$RP$$GT$17h9a2b3fa9b348f67fE', symObjAddr: 0x28E8, symBinAddr: 0x49DC0, symSize: 0x64 }
  - { offset: 0xC9AFC, size: 0x8, addend: 0x0, symName: '__ZN4core3ptr250drop_in_place$LT$$LP$gimli..read..UnitOffset$C$addr2line..lazy..LazyCell$LT$core..result..Result$LT$addr2line..function..Function$LT$gimli..read..endian_slice..EndianSlice$LT$gimli..endianity..LittleEndian$GT$$GT$$C$gimli..read..Error$GT$$GT$$RP$$GT$17h9a2b3fa9b348f67fE', symObjAddr: 0x28E8, symBinAddr: 0x49DC0, symSize: 0x64 }
  - { offset: 0xC9B11, size: 0x8, addend: 0x0, symName: '__ZN4core3ptr250drop_in_place$LT$$LP$gimli..read..UnitOffset$C$addr2line..lazy..LazyCell$LT$core..result..Result$LT$addr2line..function..Function$LT$gimli..read..endian_slice..EndianSlice$LT$gimli..endianity..LittleEndian$GT$$GT$$C$gimli..read..Error$GT$$GT$$RP$$GT$17h9a2b3fa9b348f67fE', symObjAddr: 0x28E8, symBinAddr: 0x49DC0, symSize: 0x64 }
  - { offset: 0xC9C53, size: 0x8, addend: 0x0, symName: '__ZN4core3ptr273drop_in_place$LT$alloc..vec..Vec$LT$$LP$gimli..read..UnitOffset$C$addr2line..lazy..LazyCell$LT$core..result..Result$LT$addr2line..function..Function$LT$gimli..read..endian_slice..EndianSlice$LT$gimli..endianity..LittleEndian$GT$$GT$$C$gimli..read..Error$GT$$GT$$RP$$GT$$GT$17ha71c34fa9df1ee80E', symObjAddr: 0x294C, symBinAddr: 0x49E24, symSize: 0xAC }
  - { offset: 0xC9E82, size: 0x8, addend: 0x0, symName: '__ZN4core3ptr275drop_in_place$LT$gimli..read..line..LineRows$LT$gimli..read..endian_slice..EndianSlice$LT$gimli..endianity..LittleEndian$GT$$C$gimli..read..line..IncompleteLineProgram$LT$gimli..read..endian_slice..EndianSlice$LT$gimli..endianity..LittleEndian$GT$$C$usize$GT$$C$usize$GT$$GT$17hbb9d7d3d040ba386E', symObjAddr: 0x29F8, symBinAddr: 0x49ED0, symSize: 0x88 }
  - { offset: 0xCA0E9, size: 0x8, addend: 0x0, symName: '__ZN4core3ptr280drop_in_place$LT$$LT$alloc..collections..btree..map..IntoIter$LT$K$C$V$C$A$GT$$u20$as$u20$core..ops..drop..Drop$GT$..drop..DropGuard$LT$u64$C$core..result..Result$LT$alloc..sync..Arc$LT$gimli..read..abbrev..Abbreviations$GT$$C$gimli..read..Error$GT$$C$alloc..alloc..Global$GT$$GT$17h74b13c23f0977491E', symObjAddr: 0x2A80, symBinAddr: 0x49F58, symSize: 0x84 }
  - { offset: 0xCA234, size: 0x8, addend: 0x0, symName: '__ZN4core3ptr285drop_in_place$LT$alloc..boxed..Box$LT$$u5b$$LP$gimli..read..UnitOffset$C$addr2line..lazy..LazyCell$LT$core..result..Result$LT$addr2line..function..Function$LT$gimli..read..endian_slice..EndianSlice$LT$gimli..endianity..LittleEndian$GT$$GT$$C$gimli..read..Error$GT$$GT$$RP$$u5d$$GT$$GT$17h4c0e5fff1642bc53E', symObjAddr: 0x2B04, symBinAddr: 0x49FDC, symSize: 0x9C }
  - { offset: 0xCA24B, size: 0x8, addend: 0x0, symName: '__ZN4core3ptr285drop_in_place$LT$alloc..boxed..Box$LT$$u5b$$LP$gimli..read..UnitOffset$C$addr2line..lazy..LazyCell$LT$core..result..Result$LT$addr2line..function..Function$LT$gimli..read..endian_slice..EndianSlice$LT$gimli..endianity..LittleEndian$GT$$GT$$C$gimli..read..Error$GT$$GT$$RP$$u5d$$GT$$GT$17h4c0e5fff1642bc53E', symObjAddr: 0x2B04, symBinAddr: 0x49FDC, symSize: 0x9C }
  - { offset: 0xCACDD, size: 0x8, addend: 0x0, symName: '__ZN4core3ptr37drop_in_place$LT$std..env..VarsOs$GT$17ha2a13263ce231697E', symObjAddr: 0x2BA0, symBinAddr: 0x4A078, symSize: 0xAC }
  - { offset: 0xCAFC6, size: 0x8, addend: 0x0, symName: '__ZN4core3ptr383drop_in_place$LT$core..result..Result$LT$core..option..Option$LT$alloc..boxed..Box$LT$$LP$alloc..sync..Arc$LT$gimli..read..dwarf..Dwarf$LT$gimli..read..endian_slice..EndianSlice$LT$gimli..endianity..LittleEndian$GT$$GT$$GT$$C$gimli..read..dwarf..Unit$LT$gimli..read..endian_slice..EndianSlice$LT$gimli..endianity..LittleEndian$GT$$C$usize$GT$$RP$$GT$$GT$$C$gimli..read..Error$GT$$GT$17h724d051af7e3a1c4E', symObjAddr: 0x2C4C, symBinAddr: 0x4A124, symSize: 0xD4 }
  - { offset: 0xCB1B1, size: 0x8, addend: 0x0, symName: '__ZN4core3ptr39drop_in_place$LT$std..path..PathBuf$GT$17h29ea4d3650142468E', symObjAddr: 0x2D20, symBinAddr: 0x4A1F8, symSize: 0x28 }
  - { offset: 0xCB2C4, size: 0x8, addend: 0x0, symName: '__ZN4core3ptr40drop_in_place$LT$std..process..Child$GT$17ha28c2d8694893892E', symObjAddr: 0x2D48, symBinAddr: 0x4A220, symSize: 0x54 }
  - { offset: 0xCB47E, size: 0x8, addend: 0x0, symName: '__ZN4core3ptr40drop_in_place$LT$std..thread..Thread$GT$17hf9ac34a9babe1e81E', symObjAddr: 0x2D9C, symBinAddr: 0x4A274, symSize: 0x30 }
  - { offset: 0xCB54D, size: 0x8, addend: 0x0, symName: '__ZN4core3ptr41drop_in_place$LT$std..panicking..Hook$GT$17h8ea2bbaad34def32E', symObjAddr: 0x2DCC, symBinAddr: 0x4A2A4, symSize: 0x7C }
  - { offset: 0xCB646, size: 0x8, addend: 0x0, symName: '__ZN4core3ptr42drop_in_place$LT$alloc..string..String$GT$17h61495ec7b922a046E', symObjAddr: 0x2E48, symBinAddr: 0x4A320, symSize: 0x28 }
  - { offset: 0xCB721, size: 0x8, addend: 0x0, symName: '__ZN4core3ptr42drop_in_place$LT$std..io..error..Error$GT$17h924dbebc5083d819E', symObjAddr: 0x2E70, symBinAddr: 0x4A348, symSize: 0xAC }
  - { offset: 0xCB93B, size: 0x8, addend: 0x0, symName: '__ZN4core3ptr44drop_in_place$LT$object..read..ObjectMap$GT$17h9f6d8c9bbe8676a4E', symObjAddr: 0x2F1C, symBinAddr: 0x4A3F4, symSize: 0x58 }
  - { offset: 0xCBA94, size: 0x8, addend: 0x0, symName: '__ZN4core3ptr44drop_in_place$LT$std..backtrace..Capture$GT$17h4396dcd7c24d0d65E', symObjAddr: 0x2F74, symBinAddr: 0x4A44C, symSize: 0x6C }
  - { offset: 0xCBB89, size: 0x8, addend: 0x0, symName: '__ZN4core3ptr44drop_in_place$LT$std..thread..PanicGuard$GT$17h65c4bc54c991acbeE', symObjAddr: 0x2FE0, symBinAddr: 0x4A4B8, symSize: 0x44 }
  - { offset: 0xCBBDD, size: 0x8, addend: 0x0, symName: '__ZN4core3ptr44drop_in_place$LT$std..thread..ThreadName$GT$17he9179243778e7ac8E', symObjAddr: 0x3024, symBinAddr: 0x4A4FC, symSize: 0x3C }
  - { offset: 0xCBC8A, size: 0x8, addend: 0x0, symName: '__ZN4core3ptr46drop_in_place$LT$alloc..vec..Vec$LT$u8$GT$$GT$17h13af7ebb5aaf6ccbE', symObjAddr: 0x3060, symBinAddr: 0x4A538, symSize: 0x28 }
  - { offset: 0xCBD17, size: 0x8, addend: 0x0, symName: '__ZN4core3ptr46drop_in_place$LT$std..io..stdio..StdinLock$GT$17h25432cf1b9b631dbE', symObjAddr: 0x3088, symBinAddr: 0x4A560, symSize: 0x54 }
  - { offset: 0xCBD2E, size: 0x8, addend: 0x0, symName: '__ZN4core3ptr46drop_in_place$LT$std..io..stdio..StdinLock$GT$17h25432cf1b9b631dbE', symObjAddr: 0x3088, symBinAddr: 0x4A560, symSize: 0x54 }
  - { offset: 0xCBD43, size: 0x8, addend: 0x0, symName: '__ZN4core3ptr46drop_in_place$LT$std..io..stdio..StdinLock$GT$17h25432cf1b9b631dbE', symObjAddr: 0x3088, symBinAddr: 0x4A560, symSize: 0x54 }
  - { offset: 0xCBE27, size: 0x8, addend: 0x0, symName: '__ZN4core3ptr47drop_in_place$LT$alloc..ffi..c_str..CString$GT$17h6d50cff863a8567eE', symObjAddr: 0x30DC, symBinAddr: 0x4A5B4, symSize: 0x30 }
  - { offset: 0xCBEA8, size: 0x8, addend: 0x0, symName: '__ZN4core3ptr47drop_in_place$LT$std..ffi..os_str..OsString$GT$17h3d977e70f01e62acE', symObjAddr: 0x310C, symBinAddr: 0x4A5E4, symSize: 0x28 }
  - { offset: 0xCBF43, size: 0x8, addend: 0x0, symName: '__ZN4core3ptr48drop_in_place$LT$alloc..ffi..c_str..NulError$GT$17h170c9316592988dfE', symObjAddr: 0x3134, symBinAddr: 0x4A60C, symSize: 0x28 }
  - { offset: 0xCBFD8, size: 0x8, addend: 0x0, symName: '__ZN4core3ptr49drop_in_place$LT$std..sys..pal..unix..os..Env$GT$17h6181626924e3fdd9E', symObjAddr: 0x315C, symBinAddr: 0x4A634, symSize: 0xAC }
  - { offset: 0xCC2FF, size: 0x8, addend: 0x0, symName: '__ZN4core3ptr51drop_in_place$LT$std..backtrace..BacktraceFrame$GT$17hbc2143e5e5b18343E', symObjAddr: 0x3208, symBinAddr: 0x4A6E0, symSize: 0xE4 }
  - { offset: 0xCC5B6, size: 0x8, addend: 0x0, symName: '__ZN4core3ptr52drop_in_place$LT$std..backtrace..BacktraceSymbol$GT$17h7d0f6a62cf2fd49aE', symObjAddr: 0x32EC, symBinAddr: 0x4A7C4, symSize: 0x90 }
  - { offset: 0xCC7BE, size: 0x8, addend: 0x0, symName: '__ZN4core3ptr52drop_in_place$LT$std..sys..pal..unix..args..Args$GT$17h3073c13bc92f9695E', symObjAddr: 0x337C, symBinAddr: 0x4A854, symSize: 0x98 }
  - { offset: 0xCC9C4, size: 0x8, addend: 0x0, symName: '__ZN4core3ptr54drop_in_place$LT$std..sys..pal..unix..fd..FileDesc$GT$17hcab0674bd3465431E', symObjAddr: 0x3414, symBinAddr: 0x4A8EC, symSize: 0x14 }
  - { offset: 0xCCA2E, size: 0x8, addend: 0x0, symName: '__ZN4core3ptr55drop_in_place$LT$gimli..read..abbrev..Abbreviations$GT$17he9582e6a4b4189b0E', symObjAddr: 0x3428, symBinAddr: 0x4A900, symSize: 0x84 }
  - { offset: 0xCCBBF, size: 0x8, addend: 0x0, symName: '__ZN4core3ptr57drop_in_place$LT$std..sys_common..process..CommandEnv$GT$17ha6790f433a4385d0E', symObjAddr: 0x34AC, symBinAddr: 0x4A984, symSize: 0x10 }
  - { offset: 0xCCC04, size: 0x8, addend: 0x0, symName: '__ZN4core3ptr60drop_in_place$LT$gimli..read..abbrev..AbbreviationsCache$GT$17h9d0eba5c9dda23c4E', symObjAddr: 0x34BC, symBinAddr: 0x4A994, symSize: 0xCC }
  - { offset: 0xCCD98, size: 0x8, addend: 0x0, symName: '__ZN4core3ptr62drop_in_place$LT$std..sys..sync..rwlock..queue..PanicGuard$GT$17hce38602be2122707E', symObjAddr: 0x3588, symBinAddr: 0x4AA60, symSize: 0x44 }
  - { offset: 0xCCDFA, size: 0x8, addend: 0x0, symName: '__ZN4core3ptr65drop_in_place$LT$alloc..vec..Vec$LT$alloc..string..String$GT$$GT$17h2f36e88bfd8770e1E', symObjAddr: 0x35CC, symBinAddr: 0x4AAA4, symSize: 0x80 }
  - { offset: 0xCCF6E, size: 0x8, addend: 0x0, symName: '__ZN4core3ptr65drop_in_place$LT$std..backtrace_rs..symbolize..gimli..Mapping$GT$17h31344005bd4b7e99E', symObjAddr: 0x364C, symBinAddr: 0x4AB24, symSize: 0x70 }
  - { offset: 0xCD026, size: 0x8, addend: 0x0, symName: '__ZN4core3ptr67drop_in_place$LT$alloc..vec..Vec$LT$addr2line..LineSequence$GT$$GT$17heb663068d829c259E', symObjAddr: 0x36BC, symBinAddr: 0x4AB94, symSize: 0x84 }
  - { offset: 0xCD18C, size: 0x8, addend: 0x0, symName: '__ZN4core3ptr68drop_in_place$LT$core..option..Option$LT$std..thread..Thread$GT$$GT$17h2b48afe567b2e886E', symObjAddr: 0x3740, symBinAddr: 0x4AC18, symSize: 0x34 }
  - { offset: 0xCD238, size: 0x8, addend: 0x0, symName: '__ZN4core3ptr70drop_in_place$LT$alloc..vec..Vec$LT$alloc..ffi..c_str..CString$GT$$GT$17h3b9160088b32d04dE', symObjAddr: 0x3774, symBinAddr: 0x4AC4C, symSize: 0x7C }
  - { offset: 0xCD37B, size: 0x8, addend: 0x0, symName: '__ZN4core3ptr70drop_in_place$LT$alloc..vec..Vec$LT$std..ffi..os_str..OsString$GT$$GT$17h524967ec3c4e93cbE', symObjAddr: 0x37F0, symBinAddr: 0x4ACC8, symSize: 0x80 }
  - { offset: 0xCD558, size: 0x8, addend: 0x0, symName: '__ZN4core3ptr70drop_in_place$LT$std..backtrace_rs..symbolize..gimli..stash..Stash$GT$17h849b9347acaa4f9dE', symObjAddr: 0x3870, symBinAddr: 0x4AD48, symSize: 0xB8 }
  - { offset: 0xCD836, size: 0x8, addend: 0x0, symName: '__ZN4core3ptr71drop_in_place$LT$std..backtrace_rs..symbolize..gimli..macho..Object$GT$17he464dace0837fc07E', symObjAddr: 0x3928, symBinAddr: 0x4AE00, symSize: 0x15C }
  - { offset: 0xCDB6C, size: 0x8, addend: 0x0, symName: '__ZN4core3ptr71drop_in_place$LT$std..panicking..rust_panic_without_hook..RewrapBox$GT$17h308d01dbab3d6c7dE', symObjAddr: 0x3A84, symBinAddr: 0x4AF5C, symSize: 0x6C }
  - { offset: 0xCDC65, size: 0x8, addend: 0x0, symName: '__ZN4core3ptr71drop_in_place$LT$std..sync..rwlock..RwLockReadGuard$LT$$LP$$RP$$GT$$GT$17h33a87c778f6ff8acE', symObjAddr: 0x3AF0, symBinAddr: 0x4AFC8, symSize: 0x44 }
  - { offset: 0xCDD17, size: 0x8, addend: 0x0, symName: '__ZN4core3ptr72drop_in_place$LT$core..option..Option$LT$object..read..ObjectMap$GT$$GT$17h15a58a385d75b662E', symObjAddr: 0x3B34, symBinAddr: 0x4B00C, symSize: 0x64 }
  - { offset: 0xCDE5C, size: 0x8, addend: 0x0, symName: '__ZN4core3ptr73drop_in_place$LT$core..option..Option$LT$std..process..ChildStdin$GT$$GT$17h1c52abee359a693fE', symObjAddr: 0x3B98, symBinAddr: 0x4B070, symSize: 0x24 }
  - { offset: 0xCDEDE, size: 0x8, addend: 0x0, symName: '__ZN4core3ptr75drop_in_place$LT$core..option..Option$LT$alloc..ffi..c_str..CString$GT$$GT$17h52c93e5af4b1ec14E', symObjAddr: 0x3BBC, symBinAddr: 0x4B094, symSize: 0x34 }
  - { offset: 0xCDF75, size: 0x8, addend: 0x0, symName: '__ZN4core3ptr77drop_in_place$LT$alloc..boxed..Box$LT$$u5b$alloc..string..String$u5d$$GT$$GT$17hb20cef3002c71789E', symObjAddr: 0x3BF0, symBinAddr: 0x4B0C8, symSize: 0x70 }
  - { offset: 0xCDF8C, size: 0x8, addend: 0x0, symName: '__ZN4core3ptr77drop_in_place$LT$alloc..boxed..Box$LT$$u5b$alloc..string..String$u5d$$GT$$GT$17hb20cef3002c71789E', symObjAddr: 0x3BF0, symBinAddr: 0x4B0C8, symSize: 0x70 }
  - { offset: 0xCE098, size: 0x8, addend: 0x0, symName: '__ZN4core3ptr77drop_in_place$LT$std..panicking..begin_panic_handler..FormatStringPayload$GT$17h6ebba54a748b8d0eE', symObjAddr: 0x3C60, symBinAddr: 0x4B138, symSize: 0x34 }
  - { offset: 0xCE162, size: 0x8, addend: 0x0, symName: '__ZN4core3ptr77drop_in_place$LT$std..sys..pal..unix..process..process_common..ChildPipes$GT$17hf391d66dbdcd733dE', symObjAddr: 0x3C94, symBinAddr: 0x4B16C, symSize: 0x78 }
  - { offset: 0xCE272, size: 0x8, addend: 0x0, symName: '__ZN4core3ptr77drop_in_place$LT$std..sys..pal..unix..process..process_common..StdioPipes$GT$17h184b157db316495bE', symObjAddr: 0x3D0C, symBinAddr: 0x4B1E4, symSize: 0x54 }
  - { offset: 0xCE3CE, size: 0x8, addend: 0x0, symName: '__ZN4core3ptr78drop_in_place$LT$core..result..Result$LT$usize$C$std..io..error..Error$GT$$GT$17hbb84f5e706f52986E', symObjAddr: 0x3D60, symBinAddr: 0x4B238, symSize: 0x24 }
  - { offset: 0xCE3E2, size: 0x8, addend: 0x0, symName: '__ZN4core3ptr79drop_in_place$LT$std..sys..pal..unix..process..process_common..CStringArray$GT$17h95c7f0f7786fc7e5E', symObjAddr: 0x3D84, symBinAddr: 0x4B25C, symSize: 0x94 }
  - { offset: 0xCE5C1, size: 0x8, addend: 0x0, symName: '__ZN4core3ptr81drop_in_place$LT$core..result..Result$LT$$LP$$RP$$C$std..io..error..Error$GT$$GT$17hbb03115a4eeb66a9E', symObjAddr: 0x3E18, symBinAddr: 0x4B2F0, symSize: 0x20 }
  - { offset: 0xCE5D5, size: 0x8, addend: 0x0, symName: '__ZN4core3ptr84drop_in_place$LT$$LP$std..ffi..os_str..OsString$C$std..ffi..os_str..OsString$RP$$GT$17h8d473b7a70bf8406E', symObjAddr: 0x3E38, symBinAddr: 0x4B310, symSize: 0x4C }
  - { offset: 0xCE730, size: 0x8, addend: 0x0, symName: '__ZN4core3ptr84drop_in_place$LT$alloc..sync..ArcInner$LT$gimli..read..abbrev..Abbreviations$GT$$GT$17h09919f3cea72f38fE', symObjAddr: 0x3E84, symBinAddr: 0x4B35C, symSize: 0x84 }
  - { offset: 0xCE908, size: 0x8, addend: 0x0, symName: '__ZN4core3ptr86drop_in_place$LT$core..result..Result$LT$addr2line..Lines$C$gimli..read..Error$GT$$GT$17h696468a68b624ac5E', symObjAddr: 0x3F08, symBinAddr: 0x4B3E0, symSize: 0xE4 }
  - { offset: 0xCEB6A, size: 0x8, addend: 0x0, symName: '__ZN4core3ptr87drop_in_place$LT$alloc..sync..ArcInner$LT$std..sys..pal..unix..fs..InnerReadDir$GT$$GT$17hfabe36cee593aef6E', symObjAddr: 0x3FEC, symBinAddr: 0x4B4C4, symSize: 0x60 }
  - { offset: 0xCED1B, size: 0x8, addend: 0x0, symName: '__ZN4core3ptr87drop_in_place$LT$core..option..Option$LT$alloc..boxed..Box$LT$$u5b$u32$u5d$$GT$$GT$$GT$17hf51293850919e573E', symObjAddr: 0x404C, symBinAddr: 0x4B524, symSize: 0x34 }
  - { offset: 0xCEDF7, size: 0x8, addend: 0x0, symName: '__ZN4core3ptr88drop_in_place$LT$alloc..vec..Vec$LT$std..backtrace_rs..symbolize..gimli..Library$GT$$GT$17hd7628073410dd88cE', symObjAddr: 0x4080, symBinAddr: 0x4B558, symSize: 0x98 }
  - { offset: 0xCEFF1, size: 0x8, addend: 0x0, symName: '__ZN4core3ptr88drop_in_place$LT$std..io..Write..write_fmt..Adapter$LT$alloc..vec..Vec$LT$u8$GT$$GT$$GT$17h0ba66fdde445a72aE', symObjAddr: 0x4118, symBinAddr: 0x4B5F0, symSize: 0x20 }
  - { offset: 0xCF037, size: 0x8, addend: 0x0, symName: '__ZN4core3ptr90drop_in_place$LT$std..io..buffered..bufwriter..BufWriter$LT$W$GT$..flush_buf..BufGuard$GT$17h754dc72f05aa7ca1E', symObjAddr: 0x4138, symBinAddr: 0x4B610, symSize: 0x60 }
  - { offset: 0xCF1DC, size: 0x8, addend: 0x0, symName: '__ZN4core3ptr91drop_in_place$LT$core..result..Result$LT$alloc..string..String$C$std..env..VarError$GT$$GT$17hbf7a65496cd0550fE', symObjAddr: 0x4198, symBinAddr: 0x4B670, symSize: 0x3C }
  - { offset: 0xCF289, size: 0x8, addend: 0x0, symName: '__ZN4core3ptr91drop_in_place$LT$core..result..Result$LT$std..path..PathBuf$C$std..io..error..Error$GT$$GT$17h737c67071e1fc1aeE', symObjAddr: 0x41D4, symBinAddr: 0x4B6AC, symSize: 0x40 }
  - { offset: 0xCF35E, size: 0x8, addend: 0x0, symName: '__ZN4core3ptr92drop_in_place$LT$alloc..boxed..Box$LT$std..sys..sync..mutex..pthread..AllocatedMutex$GT$$GT$17h9dd5aab7a942150fE', symObjAddr: 0x4214, symBinAddr: 0x4B6EC, symSize: 0x2C }
  - { offset: 0xCF3FB, size: 0x8, addend: 0x0, symName: '__ZN4core3ptr95drop_in_place$LT$core..option..IntoIter$LT$std..backtrace_rs..symbolize..gimli..Library$GT$$GT$17h3a42cf7a46444decE', symObjAddr: 0x4240, symBinAddr: 0x4B718, symSize: 0x5C }
  - { offset: 0xCF419, size: 0x8, addend: 0x0, symName: '__ZN4core3ptr95drop_in_place$LT$core..option..IntoIter$LT$std..backtrace_rs..symbolize..gimli..Library$GT$$GT$17h3a42cf7a46444decE', symObjAddr: 0x4240, symBinAddr: 0x4B718, symSize: 0x5C }
  - { offset: 0xCF42E, size: 0x8, addend: 0x0, symName: '__ZN4core3ptr95drop_in_place$LT$core..option..IntoIter$LT$std..backtrace_rs..symbolize..gimli..Library$GT$$GT$17h3a42cf7a46444decE', symObjAddr: 0x4240, symBinAddr: 0x4B718, symSize: 0x5C }
  - { offset: 0xCF597, size: 0x8, addend: 0x0, symName: '__ZN4core3ptr95drop_in_place$LT$std..io..buffered..linewriter..LineWriter$LT$std..io..stdio..StdoutRaw$GT$$GT$17hd24c1063f9cfa17bE', symObjAddr: 0x429C, symBinAddr: 0x4B774, symSize: 0xF0 }
  - { offset: 0xD32F4, size: 0x8, addend: 0x0, symName: __ZN4core5slice4sort6shared5pivot11median3_rec17h001c9adca1ce03d7E, symObjAddr: 0x4658, symBinAddr: 0x4BA1C, symSize: 0xD0 }
  - { offset: 0xD33EF, size: 0x8, addend: 0x0, symName: __ZN4core5slice4sort6shared5pivot11median3_rec17h37b7dffe14755907E, symObjAddr: 0x4728, symBinAddr: 0x4BAEC, symSize: 0xCC }
  - { offset: 0xD34EA, size: 0x8, addend: 0x0, symName: __ZN4core5slice4sort6shared5pivot11median3_rec17h3e2c744abf11ed91E, symObjAddr: 0x47F4, symBinAddr: 0x4BBB8, symSize: 0xD0 }
  - { offset: 0xD35E5, size: 0x8, addend: 0x0, symName: __ZN4core5slice4sort6shared5pivot11median3_rec17h46f11f9d50e51431E, symObjAddr: 0x48C4, symBinAddr: 0x4BC88, symSize: 0x134 }
  - { offset: 0xD380C, size: 0x8, addend: 0x0, symName: __ZN4core5slice4sort6shared5pivot11median3_rec17h5170fde408f06997E, symObjAddr: 0x49F8, symBinAddr: 0x4BDBC, symSize: 0x11C }
  - { offset: 0xD390B, size: 0x8, addend: 0x0, symName: __ZN4core5slice4sort6shared5pivot11median3_rec17h992825939e560474E, symObjAddr: 0x4B14, symBinAddr: 0x4BED8, symSize: 0xCC }
  - { offset: 0xD3A5C, size: 0x8, addend: 0x0, symName: __ZN4core5slice4sort6shared5pivot11median3_rec17hd01de3caf36e971aE, symObjAddr: 0x4BE0, symBinAddr: 0x4BFA4, symSize: 0xD0 }
  - { offset: 0xD3B57, size: 0x8, addend: 0x0, symName: __ZN4core5slice4sort6shared5pivot11median3_rec17hebd71e6e10af7f96E, symObjAddr: 0x4CB0, symBinAddr: 0x4C074, symSize: 0xCC }
  - { offset: 0xD3D29, size: 0x8, addend: 0x0, symName: __ZN4core5slice4sort6shared9smallsort12sort4_stable17h500d0959a0c776afE, symObjAddr: 0x4D7C, symBinAddr: 0x4C140, symSize: 0x1B4 }
  - { offset: 0xD3ED4, size: 0x8, addend: 0x0, symName: __ZN4core5slice4sort6shared9smallsort12sort4_stable17h575b1b9a90e5d5d6E, symObjAddr: 0x4F30, symBinAddr: 0x4C2F4, symSize: 0x180 }
  - { offset: 0xD42F6, size: 0x8, addend: 0x0, symName: __ZN4core5slice4sort6shared9smallsort12sort8_stable17hf52532f2ad9efec4E, symObjAddr: 0x50B0, symBinAddr: 0x4C474, symSize: 0x2B8 }
  - { offset: 0xD487F, size: 0x8, addend: 0x0, symName: __ZN4core5slice4sort6shared9smallsort18small_sort_general17h1b187870bc21ec9cE, symObjAddr: 0x5368, symBinAddr: 0x4C72C, symSize: 0x3E0 }
  - { offset: 0xD4DDA, size: 0x8, addend: 0x0, symName: __ZN4core5slice4sort6shared9smallsort18small_sort_general17hf99124f86d438951E, symObjAddr: 0x5748, symBinAddr: 0x4CB0C, symSize: 0x490 }
  - { offset: 0xD57C5, size: 0x8, addend: 0x0, symName: __ZN4core5slice4sort6stable14driftsort_main17h336c0b6e9b4b9d03E, symObjAddr: 0x5BD8, symBinAddr: 0x4CF9C, symSize: 0x14C }
  - { offset: 0xD5B01, size: 0x8, addend: 0x0, symName: __ZN4core5slice4sort6stable14driftsort_main17h5acccd599c2d49beE, symObjAddr: 0x5D24, symBinAddr: 0x4D0E8, symSize: 0x14C }
  - { offset: 0xD5E3D, size: 0x8, addend: 0x0, symName: __ZN4core5slice4sort6stable14driftsort_main17h7c78856ad3a60825E, symObjAddr: 0x5E70, symBinAddr: 0x4D234, symSize: 0x134 }
  - { offset: 0xD6123, size: 0x8, addend: 0x0, symName: __ZN4core5slice4sort6stable14driftsort_main17h84941de99c019b23E, symObjAddr: 0x5FA4, symBinAddr: 0x4D368, symSize: 0x134 }
  - { offset: 0xD6387, size: 0x8, addend: 0x0, symName: __ZN4core5slice4sort6stable14driftsort_main17ha2d4c6ddba5a32c0E, symObjAddr: 0x60D8, symBinAddr: 0x4D49C, symSize: 0x134 }
  - { offset: 0xD666D, size: 0x8, addend: 0x0, symName: __ZN4core5slice4sort6stable14driftsort_main17hd36e3da279c0caf2E, symObjAddr: 0x620C, symBinAddr: 0x4D5D0, symSize: 0x134 }
  - { offset: 0xD6B44, size: 0x8, addend: 0x0, symName: __ZN4core5slice4sort6stable5drift4sort17h0910c22a7aed7d80E, symObjAddr: 0x6340, symBinAddr: 0x4D704, symSize: 0x53C }
  - { offset: 0xD7267, size: 0x8, addend: 0x0, symName: __ZN4core5slice4sort6stable5drift4sort17h332562468c2be195E, symObjAddr: 0x687C, symBinAddr: 0x4DC40, symSize: 0x618 }
  - { offset: 0xD793B, size: 0x8, addend: 0x0, symName: __ZN4core5slice4sort6stable5drift4sort17h71452eb72df08de3E, symObjAddr: 0x6E94, symBinAddr: 0x4E258, symSize: 0x6DC }
  - { offset: 0xD805C, size: 0x8, addend: 0x0, symName: __ZN4core5slice4sort6stable5drift4sort17h783f7383454d67d0E, symObjAddr: 0x7570, symBinAddr: 0x4E934, symSize: 0x4DC }
  - { offset: 0xD86F7, size: 0x8, addend: 0x0, symName: __ZN4core5slice4sort6stable5drift4sort17ha690b9c547494817E, symObjAddr: 0x7A4C, symBinAddr: 0x4EE10, symSize: 0x5A8 }
  - { offset: 0xD8DB7, size: 0x8, addend: 0x0, symName: __ZN4core5slice4sort6stable5drift4sort17heeed68b538603972E, symObjAddr: 0x7FF4, symBinAddr: 0x4F3B8, symSize: 0x5B0 }
  - { offset: 0xD96A3, size: 0x8, addend: 0x0, symName: __ZN4core5slice4sort6stable9quicksort9quicksort17h07609bc7b46cc4c3E, symObjAddr: 0x85A4, symBinAddr: 0x4F968, symSize: 0x80C }
  - { offset: 0xDA26A, size: 0x8, addend: 0x0, symName: __ZN4core5slice4sort6stable9quicksort9quicksort17h2208f4fd7ef38689E, symObjAddr: 0x8DB0, symBinAddr: 0x50174, symSize: 0x730 }
  - { offset: 0xDA986, size: 0x8, addend: 0x0, symName: __ZN4core5slice4sort6stable9quicksort9quicksort17h698d50eee9524539E, symObjAddr: 0x94E0, symBinAddr: 0x508A4, symSize: 0x7F0 }
  - { offset: 0xDB54D, size: 0x8, addend: 0x0, symName: __ZN4core5slice4sort6stable9quicksort9quicksort17h71557a9ccb20f345E, symObjAddr: 0x9CD0, symBinAddr: 0x51094, symSize: 0x6BC }
  - { offset: 0xDBFD4, size: 0x8, addend: 0x0, symName: __ZN4core5slice4sort6stable9quicksort9quicksort17h7d18675e56ccfb08E, symObjAddr: 0xA38C, symBinAddr: 0x51750, symSize: 0x81C }
  - { offset: 0xDD08F, size: 0x8, addend: 0x0, symName: __ZN4core5slice4sort6stable9quicksort9quicksort17ha6ab4781e3122c0bE, symObjAddr: 0xABA8, symBinAddr: 0x51F6C, symSize: 0x6E4 }
  - { offset: 0xDDB51, size: 0x8, addend: 0x0, symName: __ZN4core5slice4sort8unstable7ipnsort17h0c1df14bd3af3f85E, symObjAddr: 0xB28C, symBinAddr: 0x52650, symSize: 0x288 }
  - { offset: 0xDDDE3, size: 0x8, addend: 0x0, symName: __ZN4core5slice4sort8unstable7ipnsort17h1f03437c860126fdE, symObjAddr: 0xB514, symBinAddr: 0x528D8, symSize: 0x1E4 }
  - { offset: 0xDDF06, size: 0x8, addend: 0x0, symName: __ZN4core5slice4sort8unstable8heapsort8heapsort17h6c6484d3e7d22d28E, symObjAddr: 0xB6F8, symBinAddr: 0x52ABC, symSize: 0x160 }
  - { offset: 0xDE218, size: 0x8, addend: 0x0, symName: __ZN4core5slice4sort8unstable8heapsort8heapsort17hc2e0562e52d73606E, symObjAddr: 0xB858, symBinAddr: 0x52C1C, symSize: 0x10C }
  - { offset: 0xDE4A9, size: 0x8, addend: 0x0, symName: __ZN4core5slice4sort8unstable9quicksort9quicksort17h340ba531f4e54d1bE, symObjAddr: 0xB964, symBinAddr: 0x52D28, symSize: 0x5B4 }
  - { offset: 0xDF0D4, size: 0x8, addend: 0x0, symName: __ZN4core5slice4sort8unstable9quicksort9quicksort17h91c5d9a2f27051c0E, symObjAddr: 0xBF18, symBinAddr: 0x532DC, symSize: 0x440 }
  - { offset: 0xDFB05, size: 0x8, addend: 0x0, symName: '__ZN36_$LT$T$u20$as$u20$core..any..Any$GT$7type_id17h05f8617bbf325208E', symObjAddr: 0x13C, symBinAddr: 0x47614, symSize: 0x30 }
  - { offset: 0xDFB1F, size: 0x8, addend: 0x0, symName: '__ZN36_$LT$T$u20$as$u20$core..any..Any$GT$7type_id17h691ab2dff0fbe812E', symObjAddr: 0x16C, symBinAddr: 0x47644, symSize: 0x30 }
  - { offset: 0xDFB39, size: 0x8, addend: 0x0, symName: '__ZN36_$LT$T$u20$as$u20$core..any..Any$GT$7type_id17h9ca45d236155799cE', symObjAddr: 0x19C, symBinAddr: 0x47674, symSize: 0x30 }
  - { offset: 0xDFBD5, size: 0x8, addend: 0x0, symName: '__ZN41_$LT$bool$u20$as$u20$core..fmt..Debug$GT$3fmt17h9e9b2eff902fdd93E', symObjAddr: 0x1CC, symBinAddr: 0x476A4, symSize: 0x10 }
  - { offset: 0xDFBF6, size: 0x8, addend: 0x0, symName: '__ZN42_$LT$$RF$T$u20$as$u20$core..fmt..Debug$GT$3fmt17h0c83902e8ea752acE', symObjAddr: 0x1DC, symBinAddr: 0x476B4, symSize: 0x58 }
  - { offset: 0xDFC27, size: 0x8, addend: 0x0, symName: '__ZN42_$LT$$RF$T$u20$as$u20$core..fmt..Debug$GT$3fmt17h177df7372056bd30E', symObjAddr: 0x234, symBinAddr: 0x4770C, symSize: 0x30 }
  - { offset: 0xDFC6D, size: 0x8, addend: 0x0, symName: '__ZN42_$LT$$RF$T$u20$as$u20$core..fmt..Debug$GT$3fmt17h178dbf31caae2ffeE', symObjAddr: 0x264, symBinAddr: 0x4773C, symSize: 0x78 }
  - { offset: 0xDFD2C, size: 0x8, addend: 0x0, symName: '__ZN42_$LT$$RF$T$u20$as$u20$core..fmt..Debug$GT$3fmt17h245b5f550df0d893E', symObjAddr: 0x2DC, symBinAddr: 0x477B4, symSize: 0xC8 }
  - { offset: 0xDFD56, size: 0x8, addend: 0x0, symName: '__ZN42_$LT$$RF$T$u20$as$u20$core..fmt..Debug$GT$3fmt17h2b4369e16ec214b1E', symObjAddr: 0x3A4, symBinAddr: 0x4787C, symSize: 0x74 }
  - { offset: 0xDFEA6, size: 0x8, addend: 0x0, symName: '__ZN42_$LT$$RF$T$u20$as$u20$core..fmt..Debug$GT$3fmt17h2f7cb0653a474c6fE', symObjAddr: 0x418, symBinAddr: 0x478F0, symSize: 0x9C }
  - { offset: 0xDFF50, size: 0x8, addend: 0x0, symName: '__ZN42_$LT$$RF$T$u20$as$u20$core..fmt..Debug$GT$3fmt17h3b4c7e82f91c2851E', symObjAddr: 0x4B4, symBinAddr: 0x4798C, symSize: 0x14 }
  - { offset: 0xDFF6B, size: 0x8, addend: 0x0, symName: '__ZN42_$LT$$RF$T$u20$as$u20$core..fmt..Debug$GT$3fmt17h3e34b492a7e96395E', symObjAddr: 0x4C8, symBinAddr: 0x479A0, symSize: 0x64 }
  - { offset: 0xDFF9C, size: 0x8, addend: 0x0, symName: '__ZN42_$LT$$RF$T$u20$as$u20$core..fmt..Debug$GT$3fmt17h46a456e504746f37E', symObjAddr: 0x52C, symBinAddr: 0x47A04, symSize: 0x14 }
  - { offset: 0xDFFB7, size: 0x8, addend: 0x0, symName: '__ZN42_$LT$$RF$T$u20$as$u20$core..fmt..Debug$GT$3fmt17h6017eb553f555eeaE', symObjAddr: 0x540, symBinAddr: 0x47A18, symSize: 0x30 }
  - { offset: 0xE000B, size: 0x8, addend: 0x0, symName: '__ZN42_$LT$$RF$T$u20$as$u20$core..fmt..Debug$GT$3fmt17h6fe4a21a5a9dc639E', symObjAddr: 0x570, symBinAddr: 0x47A48, symSize: 0x1C }
  - { offset: 0xE003C, size: 0x8, addend: 0x0, symName: '__ZN42_$LT$$RF$T$u20$as$u20$core..fmt..Debug$GT$3fmt17h7483ad4d5a6f3c17E', symObjAddr: 0x58C, symBinAddr: 0x47A64, symSize: 0x44 }
  - { offset: 0xE006D, size: 0x8, addend: 0x0, symName: '__ZN42_$LT$$RF$T$u20$as$u20$core..fmt..Debug$GT$3fmt17h77a5695ac77f08b5E', symObjAddr: 0x5D0, symBinAddr: 0x47AA8, symSize: 0x4C }
  - { offset: 0xE00DC, size: 0x8, addend: 0x0, symName: '__ZN42_$LT$$RF$T$u20$as$u20$core..fmt..Debug$GT$3fmt17h85d76e334d46ea19E', symObjAddr: 0x61C, symBinAddr: 0x47AF4, symSize: 0x1C }
  - { offset: 0xE010D, size: 0x8, addend: 0x0, symName: '__ZN42_$LT$$RF$T$u20$as$u20$core..fmt..Debug$GT$3fmt17h9393fbad5eb3bf13E', symObjAddr: 0x638, symBinAddr: 0x47B10, symSize: 0x1C }
  - { offset: 0xE012F, size: 0x8, addend: 0x0, symName: '__ZN42_$LT$$RF$T$u20$as$u20$core..fmt..Debug$GT$3fmt17h97369a355d5a0815E', symObjAddr: 0x654, symBinAddr: 0x47B2C, symSize: 0x74 }
  - { offset: 0xE01EE, size: 0x8, addend: 0x0, symName: '__ZN42_$LT$$RF$T$u20$as$u20$core..fmt..Debug$GT$3fmt17h9b3910cf5098e39aE', symObjAddr: 0x6C8, symBinAddr: 0x47BA0, symSize: 0x30 }
  - { offset: 0xE0234, size: 0x8, addend: 0x0, symName: '__ZN42_$LT$$RF$T$u20$as$u20$core..fmt..Debug$GT$3fmt17hab1bf34c3776e549E', symObjAddr: 0x6F8, symBinAddr: 0x47BD0, symSize: 0x38 }
  - { offset: 0xE0265, size: 0x8, addend: 0x0, symName: '__ZN42_$LT$$RF$T$u20$as$u20$core..fmt..Debug$GT$3fmt17hb5e58b4cf471debeE', symObjAddr: 0x730, symBinAddr: 0x47C08, symSize: 0x30 }
  - { offset: 0xE02AB, size: 0x8, addend: 0x0, symName: '__ZN42_$LT$$RF$T$u20$as$u20$core..fmt..Debug$GT$3fmt17hba34b26fb7987f8bE', symObjAddr: 0x760, symBinAddr: 0x47C38, symSize: 0x64 }
  - { offset: 0xE02DC, size: 0x8, addend: 0x0, symName: '__ZN42_$LT$$RF$T$u20$as$u20$core..fmt..Debug$GT$3fmt17hbd10464c890b4696E', symObjAddr: 0x7C4, symBinAddr: 0x47C9C, symSize: 0x14 }
  - { offset: 0xE02F7, size: 0x8, addend: 0x0, symName: '__ZN42_$LT$$RF$T$u20$as$u20$core..fmt..Debug$GT$3fmt17hbeb26db500e53543E', symObjAddr: 0x7D8, symBinAddr: 0x47CB0, symSize: 0x1C }
  - { offset: 0xE0312, size: 0x8, addend: 0x0, symName: '__ZN42_$LT$$RF$T$u20$as$u20$core..fmt..Debug$GT$3fmt17hc36902adef03794fE', symObjAddr: 0x7F4, symBinAddr: 0x47CCC, symSize: 0x70 }
  - { offset: 0xE0343, size: 0x8, addend: 0x0, symName: '__ZN42_$LT$$RF$T$u20$as$u20$core..fmt..Debug$GT$3fmt17hc56882e380cb3f1cE', symObjAddr: 0x864, symBinAddr: 0x47D3C, symSize: 0x144 }
  - { offset: 0xE0382, size: 0x8, addend: 0x0, symName: '__ZN42_$LT$$RF$T$u20$as$u20$core..fmt..Debug$GT$3fmt17hd3ffafe468f6f39dE', symObjAddr: 0x9A8, symBinAddr: 0x47E80, symSize: 0x2C }
  - { offset: 0xE03F4, size: 0x8, addend: 0x0, symName: '__ZN42_$LT$$RF$T$u20$as$u20$core..fmt..Debug$GT$3fmt17hd6fff32b815d6c00E', symObjAddr: 0x9D4, symBinAddr: 0x47EAC, symSize: 0x74 }
  - { offset: 0xE0425, size: 0x8, addend: 0x0, symName: '__ZN42_$LT$$RF$T$u20$as$u20$core..fmt..Debug$GT$3fmt17hd793938e439b1e01E', symObjAddr: 0xA48, symBinAddr: 0x47F20, symSize: 0x38 }
  - { offset: 0xE0456, size: 0x8, addend: 0x0, symName: '__ZN42_$LT$$RF$T$u20$as$u20$core..fmt..Debug$GT$3fmt17hd81565514df3c78bE', symObjAddr: 0xA80, symBinAddr: 0x47F58, symSize: 0x6C }
  - { offset: 0xE0487, size: 0x8, addend: 0x0, symName: '__ZN42_$LT$$RF$T$u20$as$u20$core..fmt..Debug$GT$3fmt17hee44d9bace0a9d8dE', symObjAddr: 0xAEC, symBinAddr: 0x47FC4, symSize: 0x68 }
  - { offset: 0xE04B8, size: 0x8, addend: 0x0, symName: '__ZN42_$LT$$RF$T$u20$as$u20$core..fmt..Debug$GT$3fmt17hf09abca958d0012bE', symObjAddr: 0xB54, symBinAddr: 0x4802C, symSize: 0x2C }
  - { offset: 0xE05EE, size: 0x8, addend: 0x0, symName: '__ZN42_$LT$$RF$T$u20$as$u20$core..fmt..Debug$GT$3fmt17hf8e4e8e01235cb62E', symObjAddr: 0xB80, symBinAddr: 0x48058, symSize: 0x38 }
  - { offset: 0xE061F, size: 0x8, addend: 0x0, symName: '__ZN42_$LT$$RF$T$u20$as$u20$core..fmt..Debug$GT$3fmt17hf9f0136a72e97d04E', symObjAddr: 0xBB8, symBinAddr: 0x48090, symSize: 0x20 }
  - { offset: 0xE0708, size: 0x8, addend: 0x0, symName: '__ZN4core3fmt3num52_$LT$impl$u20$core..fmt..Debug$u20$for$u20$usize$GT$3fmt17hbcf940b80966635eE', symObjAddr: 0xD58, symBinAddr: 0x48230, symSize: 0x2C }
  - { offset: 0xE0744, size: 0x8, addend: 0x0, symName: '__ZN4core3fmt3num50_$LT$impl$u20$core..fmt..Debug$u20$for$u20$i32$GT$3fmt17hd380ad7a4fef2800E', symObjAddr: 0xCA8, symBinAddr: 0x48180, symSize: 0x2C }
  - { offset: 0xE0780, size: 0x8, addend: 0x0, symName: '__ZN4core3fmt3num50_$LT$impl$u20$core..fmt..Debug$u20$for$u20$u64$GT$3fmt17hcf93b17fc1abb0a9E', symObjAddr: 0xD2C, symBinAddr: 0x48204, symSize: 0x2C }
  - { offset: 0xE07BC, size: 0x8, addend: 0x0, symName: '__ZN4core3fmt3num49_$LT$impl$u20$core..fmt..Debug$u20$for$u20$u8$GT$3fmt17hdc70f7e91b6e92feE', symObjAddr: 0xC7C, symBinAddr: 0x48154, symSize: 0x2C }
  - { offset: 0xE07F8, size: 0x8, addend: 0x0, symName: '__ZN4core3fmt3num50_$LT$impl$u20$core..fmt..Debug$u20$for$u20$u32$GT$3fmt17h20423420560f3e4aE', symObjAddr: 0xD00, symBinAddr: 0x481D8, symSize: 0x2C }
  - { offset: 0xE0827, size: 0x8, addend: 0x0, symName: '__ZN4core3fmt3num50_$LT$impl$u20$core..fmt..Debug$u20$for$u20$i64$GT$3fmt17hec167f918c8ef705E', symObjAddr: 0xCD4, symBinAddr: 0x481AC, symSize: 0x2C }
  - { offset: 0xE0947, size: 0x8, addend: 0x0, symName: '__ZN50_$LT$$LP$U$C$T$RP$$u20$as$u20$core..fmt..Debug$GT$3fmt17h98d36de4e34baa2eE', symObjAddr: 0xC420, symBinAddr: 0x53730, symSize: 0x74 }
  - { offset: 0xE0976, size: 0x8, addend: 0x0, symName: '__ZN45_$LT$$LP$$RP$$u20$as$u20$core..fmt..Debug$GT$3fmt17h51ca4bbc42111efeE', symObjAddr: 0xC5C, symBinAddr: 0x48134, symSize: 0x20 }
  - { offset: 0xE0990, size: 0x8, addend: 0x0, symName: '__ZN44_$LT$$RF$T$u20$as$u20$core..fmt..Display$GT$3fmt17h78eac1383a7063d7E', symObjAddr: 0xBD8, symBinAddr: 0x480B0, symSize: 0x1C }
  - { offset: 0xE09AB, size: 0x8, addend: 0x0, symName: '__ZN44_$LT$$RF$T$u20$as$u20$core..fmt..Display$GT$3fmt17hcf9db2113d250371E', symObjAddr: 0xBF4, symBinAddr: 0x480CC, symSize: 0x68 }
  - { offset: 0xE0FE5, size: 0x8, addend: 0x0, symName: __ZN4core3fmt5Write10write_char17h4f2ce982b115088dE, symObjAddr: 0xD84, symBinAddr: 0x4825C, symSize: 0x17C }
  - { offset: 0xE116F, size: 0x8, addend: 0x0, symName: __ZN4core3fmt5Write10write_char17h561dbab5b5c32ca3E, symObjAddr: 0xF00, symBinAddr: 0x483D8, symSize: 0x140 }
  - { offset: 0xE11D5, size: 0x8, addend: 0x0, symName: __ZN4core3fmt5Write10write_char17h5faeed758c2200efE, symObjAddr: 0x1040, symBinAddr: 0x48518, symSize: 0x128 }
  - { offset: 0xE136D, size: 0x8, addend: 0x0, symName: __ZN4core3fmt5Write10write_char17h902297fe9019c92dE, symObjAddr: 0x1168, symBinAddr: 0x48640, symSize: 0x17C }
  - { offset: 0xE14F7, size: 0x8, addend: 0x0, symName: __ZN4core3fmt5Write10write_char17hc47f3f15ef1db82aE, symObjAddr: 0x12E4, symBinAddr: 0x487BC, symSize: 0x140 }
  - { offset: 0xE15B7, size: 0x8, addend: 0x0, symName: __ZN4core3fmt5Write9write_fmt17h273b6f5d029be9e0E, symObjAddr: 0x1424, symBinAddr: 0x488FC, symSize: 0x1C }
  - { offset: 0xE15E6, size: 0x8, addend: 0x0, symName: __ZN4core3fmt5Write9write_fmt17h4a87f4fec52c05fcE, symObjAddr: 0x1440, symBinAddr: 0x48918, symSize: 0x1C }
  - { offset: 0xE1615, size: 0x8, addend: 0x0, symName: __ZN4core3fmt5Write9write_fmt17h710862463af65ce5E, symObjAddr: 0x145C, symBinAddr: 0x48934, symSize: 0x1C }
  - { offset: 0xE1644, size: 0x8, addend: 0x0, symName: __ZN4core3fmt5Write9write_fmt17hb8ba3d0d23b58844E, symObjAddr: 0x1478, symBinAddr: 0x48950, symSize: 0x1C }
  - { offset: 0xE1673, size: 0x8, addend: 0x0, symName: __ZN4core3fmt5Write9write_fmt17hc8a95e3c90fe4721E, symObjAddr: 0x1494, symBinAddr: 0x4896C, symSize: 0x1C }
  - { offset: 0xE16A2, size: 0x8, addend: 0x0, symName: __ZN4core3fmt5Write9write_fmt17he65f057c4ddb1bf2E, symObjAddr: 0x14B0, symBinAddr: 0x48988, symSize: 0x1C }
  - { offset: 0xE16FF, size: 0x8, addend: 0x0, symName: '__ZN50_$LT$$BP$mut$u20$T$u20$as$u20$core..fmt..Debug$GT$3fmt17he21299819320e252E', symObjAddr: 0xC40C, symBinAddr: 0x5371C, symSize: 0x14 }
  - { offset: 0xE174C, size: 0x8, addend: 0x0, symName: '__ZN52_$LT$$RF$mut$u20$T$u20$as$u20$core..fmt..Display$GT$3fmt17h7c765da0058d0c3fE', symObjAddr: 0xC494, symBinAddr: 0x537A4, symSize: 0x1C }
  - { offset: 0xE1781, size: 0x8, addend: 0x0, symName: '__ZN4core5array69_$LT$impl$u20$core..fmt..Debug$u20$for$u20$$u5b$T$u3b$$u20$N$u5d$$GT$3fmt17h82acd2cb7f141bddE', symObjAddr: 0x44A0, symBinAddr: 0x4B864, symSize: 0xFC }
  - { offset: 0xE1E7A, size: 0x8, addend: 0x0, symName: '__ZN73_$LT$core..num..nonzero..NonZero$LT$T$GT$$u20$as$u20$core..fmt..Debug$GT$3fmt17hddcefe0dccb396cdE', symObjAddr: 0x18488, symBinAddr: 0x5F6B4, symSize: 0x48 }
  - { offset: 0xE24C4, size: 0x8, addend: 0x0, symName: '__ZN70_$LT$core..num..error..TryFromIntError$u20$as$u20$core..fmt..Debug$GT$3fmt17hd581645ad523dbd4E', symObjAddr: 0x1842C, symBinAddr: 0x5F658, symSize: 0x40 }
  - { offset: 0xE24E4, size: 0x8, addend: 0x0, symName: '__ZN72_$LT$core..num..error..TryFromIntError$u20$as$u20$core..error..Error$GT$11description17h6516769c44e1ac39E', symObjAddr: 0x1846C, symBinAddr: 0x5F698, symSize: 0x1C }
  - { offset: 0xE2750, size: 0x8, addend: 0x0, symName: '__ZN55_$LT$$RF$str$u20$as$u20$core..str..pattern..Pattern$GT$15is_contained_in17h61deb4b8b00e9356E', symObjAddr: 0xC4B0, symBinAddr: 0x537C0, symSize: 0x3BC }
  - { offset: 0xE2C34, size: 0x8, addend: 0x0, symName: __ZN4core5panic12PanicPayload6as_str17h7a58625bedad2dd7E, symObjAddr: 0x4644, symBinAddr: 0x4BA08, symSize: 0x14 }
  - { offset: 0xE44CE, size: 0x8, addend: 0x0, symName: __ZN4core3ops8function2Fn4call17h5a9d1a4a112cc64dE, symObjAddr: 0x14CC, symBinAddr: 0x489A4, symSize: 0x14 }
  - { offset: 0xE44EE, size: 0x8, addend: 0x0, symName: __ZN4core3ops8function5FnMut8call_mut17h9b398cd5398202c3E, symObjAddr: 0x14E0, symBinAddr: 0x489B8, symSize: 0x14 }
  - { offset: 0xE454F, size: 0x8, addend: 0x0, symName: '__ZN4core3ops8function6FnOnce40call_once$u7b$$u7b$vtable.shim$u7d$$u7d$17h0eb852fd7c380454E', symObjAddr: 0x14F4, symBinAddr: 0x489CC, symSize: 0x18 }
  - { offset: 0xE45A0, size: 0x8, addend: 0x0, symName: '__ZN4core3ops8function6FnOnce40call_once$u7b$$u7b$vtable.shim$u7d$$u7d$17h1e3c31538c4557bcE', symObjAddr: 0x150C, symBinAddr: 0x489E4, symSize: 0x74 }
  - { offset: 0xE4719, size: 0x8, addend: 0x0, symName: '__ZN4core3ops8function6FnOnce40call_once$u7b$$u7b$vtable.shim$u7d$$u7d$17h2d847a7cd888d5d5E', symObjAddr: 0x1580, symBinAddr: 0x48A58, symSize: 0x18 }
  - { offset: 0xE476A, size: 0x8, addend: 0x0, symName: '__ZN4core3ops8function6FnOnce40call_once$u7b$$u7b$vtable.shim$u7d$$u7d$17h3750d9ec770c10b1E', symObjAddr: 0x1598, symBinAddr: 0x48A70, symSize: 0xB0 }
  - { offset: 0xE48BB, size: 0x8, addend: 0x0, symName: '__ZN4core3ops8function6FnOnce40call_once$u7b$$u7b$vtable.shim$u7d$$u7d$17h4dab06bdd193d52eE', symObjAddr: 0x1648, symBinAddr: 0x48B20, symSize: 0x14 }
  - { offset: 0xE48F7, size: 0x8, addend: 0x0, symName: '__ZN4core3ops8function6FnOnce40call_once$u7b$$u7b$vtable.shim$u7d$$u7d$17h5e1873a29e148d92E', symObjAddr: 0x165C, symBinAddr: 0x48B34, symSize: 0x18 }
  - { offset: 0xE4933, size: 0x8, addend: 0x0, symName: '__ZN4core3ops8function6FnOnce40call_once$u7b$$u7b$vtable.shim$u7d$$u7d$17h921122b90dd376f4E', symObjAddr: 0x1674, symBinAddr: 0x48B4C, symSize: 0x28 }
  - { offset: 0xE496F, size: 0x8, addend: 0x0, symName: '__ZN4core3ops8function6FnOnce40call_once$u7b$$u7b$vtable.shim$u7d$$u7d$17ha9e675c9b3024f0cE', symObjAddr: 0x169C, symBinAddr: 0x48B74, symSize: 0x10 }
  - { offset: 0xE49AB, size: 0x8, addend: 0x0, symName: '__ZN4core3ops8function6FnOnce40call_once$u7b$$u7b$vtable.shim$u7d$$u7d$17hb3bffd20ef83a1afE', symObjAddr: 0x16AC, symBinAddr: 0x48B84, symSize: 0x78 }
  - { offset: 0xE4B40, size: 0x8, addend: 0x0, symName: '__ZN4core3ops8function6FnOnce40call_once$u7b$$u7b$vtable.shim$u7d$$u7d$17hce554f1a6421566bE', symObjAddr: 0x1724, symBinAddr: 0x48BFC, symSize: 0x28 }
  - { offset: 0xE4B7C, size: 0x8, addend: 0x0, symName: '__ZN4core3ops8function6FnOnce40call_once$u7b$$u7b$vtable.shim$u7d$$u7d$17hd3f4c9f3cd25c962E', symObjAddr: 0x174C, symBinAddr: 0x48C24, symSize: 0xA4 }
  - { offset: 0xE4CC2, size: 0x8, addend: 0x0, symName: '__ZN4core3ops8function6FnOnce40call_once$u7b$$u7b$vtable.shim$u7d$$u7d$17hd455b8914116fed3E', symObjAddr: 0x17F0, symBinAddr: 0x48CC8, symSize: 0x10 }
  - { offset: 0xE4CFE, size: 0x8, addend: 0x0, symName: '__ZN4core3ops8function6FnOnce40call_once$u7b$$u7b$vtable.shim$u7d$$u7d$17hedaaa27097ec661bE', symObjAddr: 0x1800, symBinAddr: 0x48CD8, symSize: 0x60 }
  - { offset: 0xE4E0D, size: 0x8, addend: 0x0, symName: '__ZN4core3ops8function6FnOnce40call_once$u7b$$u7b$vtable.shim$u7d$$u7d$17hf3f69d97b1da84c4E', symObjAddr: 0x1860, symBinAddr: 0x48D38, symSize: 0x28 }
  - { offset: 0xE8F60, size: 0x8, addend: 0x0, symName: '__ZN4core4cell4once17OnceCell$LT$T$GT$8try_init17hc4adabb9fa3e8a4dE', symObjAddr: 0x438C, symBinAddr: 0xCFACC, symSize: 0x114 }
  - { offset: 0xE953A, size: 0x8, addend: 0x0, symName: __ZN4core5error5Error5cause17he5f5866634b34abeE, symObjAddr: 0x459C, symBinAddr: 0x4B960, symSize: 0x14 }
  - { offset: 0xE9554, size: 0x8, addend: 0x0, symName: __ZN4core5error5Error5cause17hed71aa76d36b00cbE, symObjAddr: 0x45B0, symBinAddr: 0x4B974, symSize: 0x14 }
  - { offset: 0xE956E, size: 0x8, addend: 0x0, symName: __ZN4core5error5Error7provide17hbb88aaecb7888c77E, symObjAddr: 0x45C4, symBinAddr: 0x4B988, symSize: 0x10 }
  - { offset: 0xE9588, size: 0x8, addend: 0x0, symName: __ZN4core5error5Error7provide17hd090dbf8d04f3e78E, symObjAddr: 0x45D4, symBinAddr: 0x4B998, symSize: 0x10 }
  - { offset: 0xE95A2, size: 0x8, addend: 0x0, symName: __ZN4core5error5Error7type_id17h9bbf77c273b002ecE, symObjAddr: 0x45E4, symBinAddr: 0x4B9A8, symSize: 0x30 }
  - { offset: 0xE95BC, size: 0x8, addend: 0x0, symName: __ZN4core5error5Error7type_id17hcb9f32e88d3ef938E, symObjAddr: 0x4614, symBinAddr: 0x4B9D8, symSize: 0x30 }
  - { offset: 0xE95DD, size: 0x8, addend: 0x0, symName: __ZN4core9panicking13assert_failed17h44dfa2b6b0a073dcE, symObjAddr: 0xC358, symBinAddr: 0xCFBE0, symSize: 0x44 }
  - { offset: 0xE95F9, size: 0x8, addend: 0x0, symName: __ZN4core9panicking13assert_failed17h5af2e1f3f6cf3b70E, symObjAddr: 0xC39C, symBinAddr: 0xCFC24, symSize: 0x40 }
  - { offset: 0xE9615, size: 0x8, addend: 0x0, symName: __ZN4core9panicking13assert_failed17h69463876ec72e065E, symObjAddr: 0xC3DC, symBinAddr: 0xCFC64, symSize: 0x30 }
  - { offset: 0xE9E33, size: 0x8, addend: 0x0, symName: '__ZN92_$LT$std..sys..pal..unix..process..process_inner..ExitStatus$u20$as$u20$core..fmt..Debug$GT$3fmt17h119e992c6eb699a5E', symObjAddr: 0x4212C, symBinAddr: 0x883E8, symSize: 0x58 }
  - { offset: 0xE9E93, size: 0x8, addend: 0x0, symName: __ZN3std3sys3pal4unix7process13process_inner7Process4wait17h325cd4976e583510E, symObjAddr: 0x4208C, symBinAddr: 0x88348, symSize: 0xA0 }
  - { offset: 0xEA030, size: 0x8, addend: 0x0, symName: '__ZN193_$LT$std..sys..pal..unix..process..process_inner..$LT$impl$u20$std..sys..pal..unix..process..process_common..Command$GT$..posix_spawn..PosixSpawnFileActions$u20$as$u20$core..ops..drop..Drop$GT$4drop17hab4e80a4f6e4a5deE', symObjAddr: 0x42064, symBinAddr: 0x88320, symSize: 0x14 }
  - { offset: 0xEA058, size: 0x8, addend: 0x0, symName: '__ZN186_$LT$std..sys..pal..unix..process..process_inner..$LT$impl$u20$std..sys..pal..unix..process..process_common..Command$GT$..posix_spawn..PosixSpawnattr$u20$as$u20$core..ops..drop..Drop$GT$4drop17heead820de25b879eE', symObjAddr: 0x42078, symBinAddr: 0x88334, symSize: 0x14 }
  - { offset: 0xEA0BE, size: 0x8, addend: 0x0, symName: '__ZN173_$LT$std..sys..pal..unix..process..process_inner..$LT$impl$u20$std..sys..pal..unix..process..process_common..Command$GT$..do_exec..Reset$u20$as$u20$core..ops..drop..Drop$GT$4drop17h5a7ac91c7eca8b6eE', symObjAddr: 0x42040, symBinAddr: 0x882FC, symSize: 0x24 }
  - { offset: 0xEA118, size: 0x8, addend: 0x0, symName: '__ZN94_$LT$std..sys..pal..unix..process..process_inner..ExitStatus$u20$as$u20$core..fmt..Display$GT$3fmt17h71f65b4645dd1f42E', symObjAddr: 0x42184, symBinAddr: 0x88440, symSize: 0x1B4 }
  - { offset: 0xEA2B8, size: 0x8, addend: 0x0, symName: '__ZN97_$LT$std..sys..pal..unix..process..process_inner..ExitStatusError$u20$as$u20$core..fmt..Debug$GT$3fmt17hdb01f360f0679bbaE', symObjAddr: 0x42338, symBinAddr: 0x885F4, symSize: 0x58 }
  - { offset: 0xEA352, size: 0x8, addend: 0x0, symName: __ZN3std3sys3pal4unix7process14process_common7Command3new17h13672917ae485a29E, symObjAddr: 0x3E838, symBinAddr: 0x84AF4, symSize: 0x234 }
  - { offset: 0xEA73D, size: 0x8, addend: 0x0, symName: __ZN3std3sys3pal4unix7process14process_common7Command9set_arg_017hee26392c083e5594E, symObjAddr: 0x3EA6C, symBinAddr: 0x84D28, symSize: 0xCC }
  - { offset: 0xEA8AA, size: 0x8, addend: 0x0, symName: __ZN3std3sys3pal4unix7process14process_common7Command3arg17h622a73bda66b03c8E, symObjAddr: 0x3EB38, symBinAddr: 0x84DF4, symSize: 0xEC }
  - { offset: 0xEAA33, size: 0x8, addend: 0x0, symName: __ZN3std3sys3pal4unix7process14process_common7Command3cwd17h26cafd8b8f9a653eE, symObjAddr: 0x3EC24, symBinAddr: 0x84EE0, symSize: 0x60 }
  - { offset: 0xEAAE5, size: 0x8, addend: 0x0, symName: __ZN3std3sys3pal4unix7process14process_common7Command8pre_exec17h8fbda1b127efca37E, symObjAddr: 0x3EC84, symBinAddr: 0x84F40, symSize: 0x70 }
  - { offset: 0xEABBB, size: 0x8, addend: 0x0, symName: __ZN3std3sys3pal4unix7process14process_common7Command5stdin17h2d29b891b3e6b449E, symObjAddr: 0x3ECF4, symBinAddr: 0x84FB0, symSize: 0x44 }
  - { offset: 0xEAC44, size: 0x8, addend: 0x0, symName: __ZN3std3sys3pal4unix7process14process_common7Command6stdout17hd3f7b58da7056ed1E, symObjAddr: 0x3ED38, symBinAddr: 0x84FF4, symSize: 0x44 }
  - { offset: 0xEACCD, size: 0x8, addend: 0x0, symName: __ZN3std3sys3pal4unix7process14process_common7Command6stderr17h60f395c88f8fe6c9E, symObjAddr: 0x3ED7C, symBinAddr: 0x85038, symSize: 0x44 }
  - { offset: 0xEAD56, size: 0x8, addend: 0x0, symName: __ZN3std3sys3pal4unix7process14process_common7Command11capture_env17h787ff731e01e6cefE, symObjAddr: 0x3EDC0, symBinAddr: 0x8507C, symSize: 0xA60 }
  - { offset: 0xEC9A1, size: 0x8, addend: 0x0, symName: __ZN3std3sys3pal4unix7process14process_common7Command8setup_io17h823e3e9ebaf4453eE, symObjAddr: 0x3F820, symBinAddr: 0x85ADC, symSize: 0x2F0 }
  - { offset: 0xECE81, size: 0x8, addend: 0x0, symName: '__ZN3std3sys3pal4unix7process13process_inner71_$LT$impl$u20$std..sys..pal..unix..process..process_common..Command$GT$5spawn17h5d451167e50d386fE', symObjAddr: 0x4132C, symBinAddr: 0x875E8, symSize: 0x9B4 }
  - { offset: 0xEE10C, size: 0x8, addend: 0x0, symName: '__ZN3std3sys3pal4unix7process13process_inner71_$LT$impl$u20$std..sys..pal..unix..process..process_common..Command$GT$7do_exec17haa393386a4cc0c22E', symObjAddr: 0x41CE0, symBinAddr: 0x87F9C, symSize: 0x360 }
  - { offset: 0xEE9D0, size: 0x8, addend: 0x0, symName: '__ZN116_$LT$std..sys..pal..unix..process..process_common..CommandArgs$u20$as$u20$core..iter..traits..iterator..Iterator$GT$4next17h963e2f9af6b20000E', symObjAddr: 0x40488, symBinAddr: 0x86744, symSize: 0x34 }
  - { offset: 0xEE9E7, size: 0x8, addend: 0x0, symName: '__ZN116_$LT$std..sys..pal..unix..process..process_common..CommandArgs$u20$as$u20$core..iter..traits..iterator..Iterator$GT$4next17h963e2f9af6b20000E', symObjAddr: 0x40488, symBinAddr: 0x86744, symSize: 0x34 }
  - { offset: 0xEEA7B, size: 0x8, addend: 0x0, symName: '__ZN116_$LT$std..sys..pal..unix..process..process_common..CommandArgs$u20$as$u20$core..iter..traits..iterator..Iterator$GT$9size_hint17h4a07d16a7e5b1de7E', symObjAddr: 0x404BC, symBinAddr: 0x86778, symSize: 0x28 }
  - { offset: 0xEEAE4, size: 0x8, addend: 0x0, symName: '__ZN127_$LT$std..sys..pal..unix..process..process_common..CommandArgs$u20$as$u20$core..iter..traits..exact_size..ExactSizeIterator$GT$3len17hdc3073d741c6fa55E', symObjAddr: 0x404E4, symBinAddr: 0x867A0, symSize: 0x1C }
  - { offset: 0xEEBDB, size: 0x8, addend: 0x0, symName: __ZN3std3sys3pal4unix7process14process_common4os2c17hab5722c37a201f70E, symObjAddr: 0x3FB10, symBinAddr: 0x85DCC, symSize: 0x10C }
  - { offset: 0xEEE42, size: 0x8, addend: 0x0, symName: __ZN3std3sys3pal4unix7process14process_common5Stdio14to_child_stdio17hfb2b89b82b9db403E, symObjAddr: 0x3FC1C, symBinAddr: 0x85ED8, symSize: 0x154 }
  - { offset: 0xEEF63, size: 0x8, addend: 0x0, symName: '__ZN90_$LT$std..sys..pal..unix..process..process_common..Command$u20$as$u20$core..fmt..Debug$GT$3fmt17hb44da7dbd632b33bE', symObjAddr: 0x3FD70, symBinAddr: 0x8602C, symSize: 0x6C0 }
  - { offset: 0xEF563, size: 0x8, addend: 0x0, symName: '__ZN91_$LT$std..sys..pal..unix..process..process_common..ExitCode$u20$as$u20$core..fmt..Debug$GT$3fmt17h9f632dc3c7ee331bE', symObjAddr: 0x40430, symBinAddr: 0x866EC, symSize: 0x58 }
  - { offset: 0xEF584, size: 0x8, addend: 0x0, symName: '__ZN94_$LT$std..sys..pal..unix..process..process_common..CommandArgs$u20$as$u20$core..fmt..Debug$GT$3fmt17h6ff63ba1900d0c7eE', symObjAddr: 0x40500, symBinAddr: 0x867BC, symSize: 0x78 }
  - { offset: 0xEF654, size: 0x8, addend: 0x0, symName: '__ZN70_$LT$std..sys..pal..unix..fd..FileDesc$u20$as$u20$core..fmt..Debug$GT$3fmt17h45787680a0859c59E', symObjAddr: 0x412EC, symBinAddr: 0x875A8, symSize: 0x40 }
  - { offset: 0xEF72D, size: 0x8, addend: 0x0, symName: __ZN3std3sys3pal4unix2fd8FileDesc4read17h90c48124debd7791E, symObjAddr: 0x39DD0, symBinAddr: 0x8008C, symSize: 0x4C }
  - { offset: 0xEF817, size: 0x8, addend: 0x0, symName: __ZN3std3sys3pal4unix2fd8FileDesc13read_vectored17h54ed93f4c17c4f18E, symObjAddr: 0x39E1C, symBinAddr: 0x800D8, symSize: 0x4C }
  - { offset: 0xEF901, size: 0x8, addend: 0x0, symName: __ZN3std3sys3pal4unix2fd8FileDesc11read_to_end17h9ea6c331881a94ebE, symObjAddr: 0x39E68, symBinAddr: 0x80124, symSize: 0x23C }
  - { offset: 0xEFD55, size: 0x8, addend: 0x0, symName: __ZN3std3sys3pal4unix2fd8FileDesc7read_at17hbf768989317d5a5eE, symObjAddr: 0x3A0A4, symBinAddr: 0x80360, symSize: 0x4C }
  - { offset: 0xEFE3F, size: 0x8, addend: 0x0, symName: __ZN3std3sys3pal4unix2fd8FileDesc8read_buf17h32381f6ce0c6485dE, symObjAddr: 0x3A0F0, symBinAddr: 0x803AC, symSize: 0x78 }
  - { offset: 0xF0003, size: 0x8, addend: 0x0, symName: __ZN3std3sys3pal4unix2fd8FileDesc16read_vectored_at17hef0c6763fa7c4a56E, symObjAddr: 0x3A168, symBinAddr: 0x80424, symSize: 0x10C }
  - { offset: 0xF01A4, size: 0x8, addend: 0x0, symName: __ZN3std3sys3pal4unix2fd8FileDesc5write17h63a709af80a65a02E, symObjAddr: 0x3A274, symBinAddr: 0x80530, symSize: 0x4C }
  - { offset: 0xF0291, size: 0x8, addend: 0x0, symName: __ZN3std3sys3pal4unix2fd8FileDesc14write_vectored17h656b27771d6be626E, symObjAddr: 0x3A2C0, symBinAddr: 0x8057C, symSize: 0x4C }
  - { offset: 0xF037E, size: 0x8, addend: 0x0, symName: __ZN3std3sys3pal4unix2fd8FileDesc8write_at17h16b68f91c6459658E, symObjAddr: 0x3A30C, symBinAddr: 0x805C8, symSize: 0x4C }
  - { offset: 0xF046B, size: 0x8, addend: 0x0, symName: __ZN3std3sys3pal4unix2fd8FileDesc17write_vectored_at17hc35e7a548cda2a22E, symObjAddr: 0x3A358, symBinAddr: 0x80614, symSize: 0x10C }
  - { offset: 0xF060D, size: 0x8, addend: 0x0, symName: __ZN3std3sys3pal4unix2fd8FileDesc11set_cloexec17he0dbf185f3ec21d5E, symObjAddr: 0x3A464, symBinAddr: 0x80720, symSize: 0x40 }
  - { offset: 0xF06B9, size: 0x8, addend: 0x0, symName: __ZN3std3sys3pal4unix2fd8FileDesc15set_nonblocking17h500574ddab38a851E, symObjAddr: 0x3A4A4, symBinAddr: 0x80760, symSize: 0x88 }
  - { offset: 0xF091E, size: 0x8, addend: 0x0, symName: '__ZN78_$LT$std..sys..pal..unix..fd..FileDesc$u20$as$u20$std..os..fd..owned..AsFd$GT$5as_fd17hd283742411f76864E', symObjAddr: 0x3A52C, symBinAddr: 0x807E8, symSize: 0x30 }
  - { offset: 0xF0942, size: 0x8, addend: 0x0, symName: '__ZN78_$LT$std..sys..pal..unix..fd..FileDesc$u20$as$u20$std..os..fd..owned..AsFd$GT$5as_fd17hd283742411f76864E', symObjAddr: 0x3A52C, symBinAddr: 0x807E8, symSize: 0x30 }
  - { offset: 0xF09A0, size: 0x8, addend: 0x0, symName: '__ZN77_$LT$std..sys..pal..unix..fs..FilePermissions$u20$as$u20$core..fmt..Debug$GT$3fmt17h902032d0149dd0f1E', symObjAddr: 0x3A5C8, symBinAddr: 0x80884, symSize: 0x6C }
  - { offset: 0xF0B49, size: 0x8, addend: 0x0, symName: __ZN3std3sys3pal4unix2fs4File6open_c17h8034e496f140d197E, symObjAddr: 0x3AAF0, symBinAddr: 0x80DAC, symSize: 0x1A8 }
  - { offset: 0xF0C2B, size: 0x8, addend: 0x0, symName: __ZN3std3sys3pal4unix2fs4File4read17h8aa089257f1a9f2aE, symObjAddr: 0x3AC98, symBinAddr: 0x80F54, symSize: 0x4C }
  - { offset: 0xF0D2B, size: 0x8, addend: 0x0, symName: __ZN3std3sys3pal4unix2fs4File13read_vectored17h6e76d8d21667602dE, symObjAddr: 0x3ACE4, symBinAddr: 0x80FA0, symSize: 0x4C }
  - { offset: 0xF0E2B, size: 0x8, addend: 0x0, symName: __ZN3std3sys3pal4unix2fs4File8read_buf17hf58c120f1b5c20b0E, symObjAddr: 0x3AD30, symBinAddr: 0x80FEC, symSize: 0x78 }
  - { offset: 0xF11C3, size: 0x8, addend: 0x0, symName: __ZN3std3sys3pal4unix2fs8DirEntry8metadata17hae6f0264f833a24dE, symObjAddr: 0x3A864, symBinAddr: 0x80B20, symSize: 0x16C }
  - { offset: 0xF17A1, size: 0x8, addend: 0x0, symName: '__ZN3std3sys3pal4unix2fs10DirBuilder5mkdir28_$u7b$$u7b$closure$u7d$$u7d$17h6560d605ee2f73cbE', symObjAddr: 0x3ADA8, symBinAddr: 0x81064, symSize: 0x44 }
  - { offset: 0xF1845, size: 0x8, addend: 0x0, symName: '__ZN3std3sys3pal4unix2fs4stat28_$u7b$$u7b$closure$u7d$$u7d$17h70f9192ee568bef6E', symObjAddr: 0x3C260, symBinAddr: 0x8251C, symSize: 0xAC }
  - { offset: 0xF194C, size: 0x8, addend: 0x0, symName: '__ZN3std3sys3pal4unix2fs5lstat28_$u7b$$u7b$closure$u7d$$u7d$17hd0283e1cdef8ce8bE', symObjAddr: 0x3C430, symBinAddr: 0x826EC, symSize: 0xAC }
  - { offset: 0xF1A5F, size: 0x8, addend: 0x0, symName: '__ZN70_$LT$std..sys..pal..unix..fs..FileType$u20$as$u20$core..fmt..Debug$GT$3fmt17h92dd30575d7df99aE', symObjAddr: 0x3A55C, symBinAddr: 0x80818, symSize: 0x6C }
  - { offset: 0xF1A80, size: 0x8, addend: 0x0, symName: '__ZN69_$LT$std..sys..pal..unix..fs..ReadDir$u20$as$u20$core..fmt..Debug$GT$3fmt17hc96cca0d8a532facE', symObjAddr: 0x3A634, symBinAddr: 0x808F0, symSize: 0x2C }
  - { offset: 0xF1C3F, size: 0x8, addend: 0x0, symName: '__ZN91_$LT$std..sys..pal..unix..fs..ReadDir$u20$as$u20$core..iter..traits..iterator..Iterator$GT$4next17hfd848aedf765e6c4E', symObjAddr: 0x3A660, symBinAddr: 0x8091C, symSize: 0x138 }
  - { offset: 0xF1EB6, size: 0x8, addend: 0x0, symName: '__ZN70_$LT$std..sys..pal..unix..fs..Dir$u20$as$u20$core..ops..drop..Drop$GT$4drop17he97ce98f5d03c2b0E', symObjAddr: 0x3A798, symBinAddr: 0x80A54, symSize: 0xCC }
  - { offset: 0xF1F88, size: 0x8, addend: 0x0, symName: '__ZN73_$LT$std..sys..pal..unix..fs..OpenOptions$u20$as$u20$core..fmt..Debug$GT$3fmt17ha06b6c2eff7953ecE', symObjAddr: 0x3A9D0, symBinAddr: 0x80C8C, symSize: 0x120 }
  - { offset: 0xF1FA9, size: 0x8, addend: 0x0, symName: '__ZN72_$LT$std..sys..pal..unix..fs..DirBuilder$u20$as$u20$core..fmt..Debug$GT$3fmt17h85a4248a83adaeacE', symObjAddr: 0x3ADEC, symBinAddr: 0x810A8, symSize: 0x6C }
  - { offset: 0xF201C, size: 0x8, addend: 0x0, symName: '__ZN66_$LT$std..sys..pal..unix..fs..File$u20$as$u20$core..fmt..Debug$GT$3fmt17h6f5f6f71f40e63f3E', symObjAddr: 0x3AE58, symBinAddr: 0x81114, symSize: 0x22C }
  - { offset: 0xF2482, size: 0x8, addend: 0x0, symName: '__ZN66_$LT$std..sys..pal..unix..fs..Mode$u20$as$u20$core..fmt..Debug$GT$3fmt17hd154ad7162f80a67E', symObjAddr: 0x3B084, symBinAddr: 0x81340, symSize: 0x328 }
  - { offset: 0xF24EB, size: 0x8, addend: 0x0, symName: __ZN3std3sys3pal4unix2fs7readdir17h59e2c8552d831ce3E, symObjAddr: 0x3B3AC, symBinAddr: 0x81668, symSize: 0x19C }
  - { offset: 0xF27A2, size: 0x8, addend: 0x0, symName: '__ZN3std3sys3pal4unix2fs6unlink28_$u7b$$u7b$closure$u7d$$u7d$17h904cc607837fa578E', symObjAddr: 0x3B608, symBinAddr: 0x818C4, symSize: 0x38 }
  - { offset: 0xF2824, size: 0x8, addend: 0x0, symName: __ZN3std3sys3pal4unix2fs6unlink17h51654ca4416998bfE, symObjAddr: 0x3B548, symBinAddr: 0x81804, symSize: 0xC0 }
  - { offset: 0xF294E, size: 0x8, addend: 0x0, symName: '__ZN3std3sys3pal4unix2fs6rename28_$u7b$$u7b$closure$u7d$$u7d$28_$u7b$$u7b$closure$u7d$$u7d$17h5eac3de4cd12b91dE', symObjAddr: 0x3B820, symBinAddr: 0x81ADC, symSize: 0x38 }
  - { offset: 0xF29D0, size: 0x8, addend: 0x0, symName: '__ZN3std3sys3pal4unix2fs6rename28_$u7b$$u7b$closure$u7d$$u7d$17h5cb34c4ac39bf188E', symObjAddr: 0x3B764, symBinAddr: 0x81A20, symSize: 0xBC }
  - { offset: 0xF2AE5, size: 0x8, addend: 0x0, symName: __ZN3std3sys3pal4unix2fs6rename17h423f31950d2b69dbE, symObjAddr: 0x3B640, symBinAddr: 0x818FC, symSize: 0x124 }
  - { offset: 0xF2C82, size: 0x8, addend: 0x0, symName: '__ZN3std3sys3pal4unix2fs8set_perm28_$u7b$$u7b$closure$u7d$$u7d$17h332511d630c810aeE', symObjAddr: 0x3B930, symBinAddr: 0x81BEC, symSize: 0x64 }
  - { offset: 0xF2D2F, size: 0x8, addend: 0x0, symName: __ZN3std3sys3pal4unix2fs8set_perm17h0cc9045b929a09c2E, symObjAddr: 0x3B858, symBinAddr: 0x81B14, symSize: 0xD8 }
  - { offset: 0xF2E78, size: 0x8, addend: 0x0, symName: '__ZN3std3sys3pal4unix2fs5rmdir28_$u7b$$u7b$closure$u7d$$u7d$17hdfa7291090e85a51E', symObjAddr: 0x3BA54, symBinAddr: 0x81D10, symSize: 0x38 }
  - { offset: 0xF2EFA, size: 0x8, addend: 0x0, symName: __ZN3std3sys3pal4unix2fs5rmdir17hf9189da7425d3a20E, symObjAddr: 0x3B994, symBinAddr: 0x81C50, symSize: 0xC0 }
  - { offset: 0xF3005, size: 0x8, addend: 0x0, symName: __ZN3std3sys3pal4unix2fs8readlink17ha63c92b4e28c0771E, symObjAddr: 0x3BA8C, symBinAddr: 0x81D48, symSize: 0xA4 }
  - { offset: 0xF3094, size: 0x8, addend: 0x0, symName: '__ZN3std3sys3pal4unix2fs8readlink28_$u7b$$u7b$closure$u7d$$u7d$17hfd52ab05a230d6bdE', symObjAddr: 0x3BB30, symBinAddr: 0x81DEC, symSize: 0x1B4 }
  - { offset: 0xF343E, size: 0x8, addend: 0x0, symName: '__ZN3std3sys3pal4unix2fs7symlink28_$u7b$$u7b$closure$u7d$$u7d$28_$u7b$$u7b$closure$u7d$$u7d$17hb5d7d6a83c638dcaE', symObjAddr: 0x3BEC4, symBinAddr: 0x82180, symSize: 0x38 }
  - { offset: 0xF34C0, size: 0x8, addend: 0x0, symName: '__ZN3std3sys3pal4unix2fs7symlink28_$u7b$$u7b$closure$u7d$$u7d$17h9587199af3cce2bcE', symObjAddr: 0x3BE08, symBinAddr: 0x820C4, symSize: 0xBC }
  - { offset: 0xF35D5, size: 0x8, addend: 0x0, symName: __ZN3std3sys3pal4unix2fs7symlink17hcc38b4e9ae9ad1f4E, symObjAddr: 0x3BCE4, symBinAddr: 0x81FA0, symSize: 0x124 }
  - { offset: 0xF3771, size: 0x8, addend: 0x0, symName: '__ZN3std3sys3pal4unix2fs4link28_$u7b$$u7b$closure$u7d$$u7d$28_$u7b$$u7b$closure$u7d$$u7d$17hf5431f77450cfe6dE', symObjAddr: 0x3C0F4, symBinAddr: 0x823B0, symSize: 0x48 }
  - { offset: 0xF37F3, size: 0x8, addend: 0x0, symName: '__ZN3std3sys3pal4unix2fs4link28_$u7b$$u7b$closure$u7d$$u7d$17h943a14a56d26b6c6E', symObjAddr: 0x3C02C, symBinAddr: 0x822E8, symSize: 0xC8 }
  - { offset: 0xF3908, size: 0x8, addend: 0x0, symName: __ZN3std3sys3pal4unix2fs4link17hb2219213d38fb1d8E, symObjAddr: 0x3BEFC, symBinAddr: 0x821B8, symSize: 0x130 }
  - { offset: 0xF3A7E, size: 0x8, addend: 0x0, symName: __ZN3std3sys3pal4unix2fs4stat17h377df69614e2934aE, symObjAddr: 0x3C13C, symBinAddr: 0x823F8, symSize: 0x124 }
  - { offset: 0xF3BD1, size: 0x8, addend: 0x0, symName: __ZN3std3sys3pal4unix2fs5lstat17h900a4bf8c1264612E, symObjAddr: 0x3C30C, symBinAddr: 0x825C8, symSize: 0x124 }
  - { offset: 0xF3D24, size: 0x8, addend: 0x0, symName: __ZN3std3sys3pal4unix2fs12canonicalize17h2e5842a84e15ba49E, symObjAddr: 0x3C4DC, symBinAddr: 0x82798, symSize: 0x14C }
  - { offset: 0xF3FB1, size: 0x8, addend: 0x0, symName: '__ZN83_$LT$std..sys..pal..unix..fs..copy..FreeOnDrop$u20$as$u20$core..ops..drop..Drop$GT$4drop17hfb70b9f3505e5ae5E', symObjAddr: 0x3C9B8, symBinAddr: 0x82C74, symSize: 0x14 }
  - { offset: 0xF3FC6, size: 0x8, addend: 0x0, symName: '__ZN3std3sys3pal4unix2fs4copy28_$u7b$$u7b$closure$u7d$$u7d$17h98093cb2c36557cdE', symObjAddr: 0x3C9CC, symBinAddr: 0x82C88, symSize: 0x64 }
  - { offset: 0xF40AC, size: 0x8, addend: 0x0, symName: __ZN3std3sys3pal4unix2fs4copy17hd16c887ec02b5327E, symObjAddr: 0x3C628, symBinAddr: 0x828E4, symSize: 0x390 }
  - { offset: 0xF498E, size: 0x8, addend: 0x0, symName: '__ZN3std3sys3pal4unix2fs5chown28_$u7b$$u7b$closure$u7d$$u7d$17h8878573eafe1b90bE', symObjAddr: 0x3CAF8, symBinAddr: 0x82DB4, symSize: 0x48 }
  - { offset: 0xF4A10, size: 0x8, addend: 0x0, symName: __ZN3std3sys3pal4unix2fs5chown17h35d7c6c607c2d877E, symObjAddr: 0x3CA30, symBinAddr: 0x82CEC, symSize: 0xC8 }
  - { offset: 0xF4B2B, size: 0x8, addend: 0x0, symName: __ZN3std3sys3pal4unix2fs6fchown17hf19b0675192098a4E, symObjAddr: 0x3CB40, symBinAddr: 0x82DFC, symSize: 0x34 }
  - { offset: 0xF4BC6, size: 0x8, addend: 0x0, symName: '__ZN3std3sys3pal4unix2fs6lchown28_$u7b$$u7b$closure$u7d$$u7d$17hd37140a6b5c7c39bE', symObjAddr: 0x3CC3C, symBinAddr: 0x82EF8, symSize: 0x48 }
  - { offset: 0xF4C48, size: 0x8, addend: 0x0, symName: __ZN3std3sys3pal4unix2fs6lchown17h625b4f15b6e42471E, symObjAddr: 0x3CB74, symBinAddr: 0x82E30, symSize: 0xC8 }
  - { offset: 0xF4D76, size: 0x8, addend: 0x0, symName: '__ZN3std3sys3pal4unix2fs6chroot28_$u7b$$u7b$closure$u7d$$u7d$17hfd92ada6cd8105fbE', symObjAddr: 0x3CD44, symBinAddr: 0x83000, symSize: 0x38 }
  - { offset: 0xF4DF8, size: 0x8, addend: 0x0, symName: __ZN3std3sys3pal4unix2fs6chroot17h5bf6487a7174953bE, symObjAddr: 0x3CC84, symBinAddr: 0x82F40, symSize: 0xC0 }
  - { offset: 0xF4F54, size: 0x8, addend: 0x0, symName: __ZN3std3sys3pal4unix2fs15remove_dir_impl24remove_dir_all_recursive17h30ffcd62a59917b6E, symObjAddr: 0x3CD7C, symBinAddr: 0x83038, symSize: 0x34C }
  - { offset: 0xF5738, size: 0x8, addend: 0x0, symName: '__ZN3std3sys3pal4unix2fs15remove_dir_impl21remove_dir_all_modern28_$u7b$$u7b$closure$u7d$$u7d$17hbde53dd9c99deaa1E', symObjAddr: 0x3D0C8, symBinAddr: 0x83384, symSize: 0x18 }
  - { offset: 0xF5769, size: 0x8, addend: 0x0, symName: __ZN3std3sys3pal4unix2fs15remove_dir_impl14remove_dir_all17hdfda94a86efc363dE, symObjAddr: 0x3D0E0, symBinAddr: 0x8339C, symSize: 0x228 }
  - { offset: 0xF5B0A, size: 0x8, addend: 0x0, symName: '__ZN87_$LT$std..sys..pal..unix..os..Env$u20$as$u20$core..iter..traits..iterator..Iterator$GT$4next17h961674535a00c810E', symObjAddr: 0x3DB10, symBinAddr: 0x83DCC, symSize: 0x48 }
  - { offset: 0xF5B7F, size: 0x8, addend: 0x0, symName: '__ZN87_$LT$std..sys..pal..unix..os..Env$u20$as$u20$core..iter..traits..iterator..Iterator$GT$9size_hint17h7fd0ba134e6e8605E', symObjAddr: 0x3DB58, symBinAddr: 0x83E14, symSize: 0x38 }
  - { offset: 0xF5C09, size: 0x8, addend: 0x0, symName: '__ZN94_$LT$std..sys..pal..unix..os..SplitPaths$u20$as$u20$core..iter..traits..iterator..Iterator$GT$4next17h8adfb56bf64e97a4E', symObjAddr: 0x3D8BC, symBinAddr: 0x83B78, symSize: 0xA8 }
  - { offset: 0xF5D53, size: 0x8, addend: 0x0, symName: '__ZN78_$LT$std..sys..pal..unix..os..JoinPathsError$u20$as$u20$core..fmt..Display$GT$3fmt17h99e812a4fc7fc885E', symObjAddr: 0x3D964, symBinAddr: 0x83C20, symSize: 0x5C }
  - { offset: 0xF5E2F, size: 0x8, addend: 0x0, symName: __ZN3std3sys3pal4unix2os5errno17hf15802e79216ebd1E, symObjAddr: 0x3D714, symBinAddr: 0x839D0, symSize: 0x18 }
  - { offset: 0xF5E55, size: 0x8, addend: 0x0, symName: '__ZN3std3sys3pal4unix2os5chdir28_$u7b$$u7b$closure$u7d$$u7d$17h9d4313e141ecf218E', symObjAddr: 0x3D804, symBinAddr: 0x83AC0, symSize: 0x28 }
  - { offset: 0xF5E6A, size: 0x8, addend: 0x0, symName: __ZN3std3sys3pal4unix2os5chdir17h7f0db4d9c5a26554E, symObjAddr: 0x3D72C, symBinAddr: 0x839E8, symSize: 0xD8 }
  - { offset: 0xF5F65, size: 0x8, addend: 0x0, symName: __ZN3std3sys3pal4unix2os11split_paths13bytes_to_path17hbca2e3f88d7eafe0E, symObjAddr: 0x3D82C, symBinAddr: 0x83AE8, symSize: 0x90 }
  - { offset: 0xF60E1, size: 0x8, addend: 0x0, symName: '__ZN73_$LT$std..sys..pal..unix..os..EnvStrDebug$u20$as$u20$core..fmt..Debug$GT$3fmt17ha2df699f1968b6dcE', symObjAddr: 0x3D9C0, symBinAddr: 0x83C7C, symSize: 0xD4 }
  - { offset: 0xF639B, size: 0x8, addend: 0x0, symName: '__ZN65_$LT$std..sys..pal..unix..os..Env$u20$as$u20$core..fmt..Debug$GT$3fmt17hf729ffe8cccea148E', symObjAddr: 0x3DA94, symBinAddr: 0x83D50, symSize: 0x7C }
  - { offset: 0xF641B, size: 0x8, addend: 0x0, symName: __ZN3std3sys3pal4unix2os13env_read_lock17heec4de91a1003e89E, symObjAddr: 0x3DB90, symBinAddr: 0x83E4C, symSize: 0x2D4 }
  - { offset: 0xF6AE6, size: 0x8, addend: 0x0, symName: '__ZN3std3sys3pal4unix2os6getenv28_$u7b$$u7b$closure$u7d$$u7d$17h2173bbb195afe723E', symObjAddr: 0x3DE64, symBinAddr: 0x84120, symSize: 0x124 }
  - { offset: 0xF6D0B, size: 0x8, addend: 0x0, symName: '__ZN3std3sys3pal4unix2os6setenv28_$u7b$$u7b$closure$u7d$$u7d$17h4535e32ddfcd29d4E', symObjAddr: 0x3E08C, symBinAddr: 0x84348, symSize: 0x9C }
  - { offset: 0xF6D86, size: 0x8, addend: 0x0, symName: '__ZN3std3sys3pal4unix2os6setenv28_$u7b$$u7b$closure$u7d$$u7d$28_$u7b$$u7b$closure$u7d$$u7d$17h910eee0392f788b0E', symObjAddr: 0x3E128, symBinAddr: 0x843E4, symSize: 0x144 }
  - { offset: 0xF7122, size: 0x8, addend: 0x0, symName: __ZN3std3sys3pal4unix2os6setenv17haf8f7ff42abf18dfE, symObjAddr: 0x3DF88, symBinAddr: 0x84244, symSize: 0x104 }
  - { offset: 0xF720D, size: 0x8, addend: 0x0, symName: __ZN3std3sys3pal4unix2os8unsetenv17h5dba0418dc58f071E, symObjAddr: 0x3E26C, symBinAddr: 0x84528, symSize: 0xA0 }
  - { offset: 0xF728F, size: 0x8, addend: 0x0, symName: '__ZN3std3sys3pal4unix2os8unsetenv28_$u7b$$u7b$closure$u7d$$u7d$17h6bfa87e1d96cb775E', symObjAddr: 0x3E30C, symBinAddr: 0x845C8, symSize: 0x138 }
  - { offset: 0xF762A, size: 0x8, addend: 0x0, symName: __ZN3std3sys3pal4unix2os4exit17h3a3d7ff3160d21ccE, symObjAddr: 0x3E444, symBinAddr: 0x84700, symSize: 0xC }
  - { offset: 0xF7678, size: 0x8, addend: 0x0, symName: '__ZN69_$LT$std..sys..pal..unix..stdio..Stdout$u20$as$u20$std..io..Write$GT$5write17h2c8e99cf8df1b876E', symObjAddr: 0x40A50, symBinAddr: 0x86D0C, symSize: 0x4C }
  - { offset: 0xF774F, size: 0x8, addend: 0x0, symName: '__ZN69_$LT$std..sys..pal..unix..stdio..Stdout$u20$as$u20$std..io..Write$GT$14write_vectored17hc778735c99724205E', symObjAddr: 0x40A9C, symBinAddr: 0x86D58, symSize: 0x4C }
  - { offset: 0xF7846, size: 0x8, addend: 0x0, symName: '__ZN69_$LT$std..sys..pal..unix..stdio..Stderr$u20$as$u20$std..io..Write$GT$5write17h581d052a4ab9b3deE', symObjAddr: 0x40AE8, symBinAddr: 0x86DA4, symSize: 0x4C }
  - { offset: 0xF791D, size: 0x8, addend: 0x0, symName: '__ZN69_$LT$std..sys..pal..unix..stdio..Stderr$u20$as$u20$std..io..Write$GT$14write_vectored17h967e552d16c4a95bE', symObjAddr: 0x40B34, symBinAddr: 0x86DF0, symSize: 0x4C }
  - { offset: 0xF7A21, size: 0x8, addend: 0x0, symName: '__ZN67_$LT$std..sys..pal..unix..stdio..Stdin$u20$as$u20$std..io..Read$GT$4read17h1f7106f5fd232849E', symObjAddr: 0x40940, symBinAddr: 0x86BFC, symSize: 0x4C }
  - { offset: 0xF7AF6, size: 0x8, addend: 0x0, symName: '__ZN67_$LT$std..sys..pal..unix..stdio..Stdin$u20$as$u20$std..io..Read$GT$8read_buf17h839c987ef257d142E', symObjAddr: 0x4098C, symBinAddr: 0x86C48, symSize: 0x78 }
  - { offset: 0xF7CA5, size: 0x8, addend: 0x0, symName: '__ZN67_$LT$std..sys..pal..unix..stdio..Stdin$u20$as$u20$std..io..Read$GT$13read_vectored17he5642246701c7358E', symObjAddr: 0x40A04, symBinAddr: 0x86CC0, symSize: 0x4C }
  - { offset: 0xF7E26, size: 0x8, addend: 0x0, symName: __ZN3std3sys3pal4unix14stack_overflow3imp14signal_handler17hd8f4cd1bd95d9476E, symObjAddr: 0x405D0, symBinAddr: 0x8688C, symSize: 0x190 }
  - { offset: 0xF8183, size: 0x8, addend: 0x0, symName: __ZN3std3sys3pal4unix14stack_overflow3imp12make_handler17hc1d87bb8ee5d5c4cE, symObjAddr: 0x40760, symBinAddr: 0x86A1C, symSize: 0x1E0 }
  - { offset: 0xF8468, size: 0x8, addend: 0x0, symName: '__ZN86_$LT$std..sys..pal..unix..stack_overflow..Handler$u20$as$u20$core..ops..drop..Drop$GT$4drop17h0887be861cc23615E', symObjAddr: 0x40578, symBinAddr: 0x86834, symSize: 0x58 }
  - { offset: 0xF8532, size: 0x8, addend: 0x0, symName: __ZN3std3sys3pal4unix6thread6Thread3new17h7d3072f74311db85E, symObjAddr: 0x40B80, symBinAddr: 0x86E3C, symSize: 0x234 }
  - { offset: 0xF883C, size: 0x8, addend: 0x0, symName: __ZN3std3sys3pal4unix6thread6Thread8set_name17h67d7833f508721f7E, symObjAddr: 0x40E84, symBinAddr: 0x87140, symSize: 0x70 }
  - { offset: 0xF8943, size: 0x8, addend: 0x0, symName: __ZN3std3sys3pal4unix6thread6Thread4join17h8d47e550b49f733bE, symObjAddr: 0x40EF4, symBinAddr: 0x871B0, symSize: 0x90 }
  - { offset: 0xF89AF, size: 0x8, addend: 0x0, symName: __ZN3std3sys3pal4unix6thread6Thread3new12thread_start17h44ebc83f14222f58E, symObjAddr: 0x40DB4, symBinAddr: 0x87070, symSize: 0xD0 }
  - { offset: 0xF8BD7, size: 0x8, addend: 0x0, symName: '__ZN77_$LT$std..sys..pal..unix..thread..Thread$u20$as$u20$core..ops..drop..Drop$GT$4drop17h404423c1980cfc1eE', symObjAddr: 0x40F84, symBinAddr: 0x87240, symSize: 0x14 }
  - { offset: 0xF8C63, size: 0x8, addend: 0x0, symName: __ZN3std3sys3pal4unix4time8Timespec3now17hb800598ec95e3dd7E, symObjAddr: 0x41018, symBinAddr: 0x872D4, symSize: 0x114 }
  - { offset: 0xF8D08, size: 0x8, addend: 0x0, symName: __ZN3std3sys3pal4unix4time8Timespec12sub_timespec17h410a57af25b6c873E, symObjAddr: 0x4112C, symBinAddr: 0x873E8, symSize: 0x104 }
  - { offset: 0xF8E3E, size: 0x8, addend: 0x0, symName: '__ZN71_$LT$std..sys..pal..unix..time..Instant$u20$as$u20$core..fmt..Debug$GT$3fmt17hc9a9167d67939574E', symObjAddr: 0x41230, symBinAddr: 0x874EC, symSize: 0x80 }
  - { offset: 0xF8E65, size: 0x8, addend: 0x0, symName: '__ZN74_$LT$std..sys..pal..unix..time..SystemTime$u20$as$u20$core..fmt..Debug$GT$3fmt17h40a3ed3a2e92c980E', symObjAddr: 0x40F98, symBinAddr: 0x87254, symSize: 0x80 }
  - { offset: 0xF8EE5, size: 0x8, addend: 0x0, symName: '__ZN90_$LT$std..sys..pal..unix..args..Args$u20$as$u20$core..iter..traits..iterator..Iterator$GT$4next17h6dc1f36e5b56ecb4E', symObjAddr: 0x39CDC, symBinAddr: 0x7FF98, symSize: 0x48 }
  - { offset: 0xF8F59, size: 0x8, addend: 0x0, symName: '__ZN90_$LT$std..sys..pal..unix..args..Args$u20$as$u20$core..iter..traits..iterator..Iterator$GT$9size_hint17hc2e721243b57ec39E', symObjAddr: 0x39D24, symBinAddr: 0x7FFE0, symSize: 0x38 }
  - { offset: 0xF8FC0, size: 0x8, addend: 0x0, symName: '__ZN101_$LT$std..sys..pal..unix..args..Args$u20$as$u20$core..iter..traits..exact_size..ExactSizeIterator$GT$3len17hd1c29999101b7a4dE', symObjAddr: 0x39D5C, symBinAddr: 0x80018, symSize: 0x2C }
  - { offset: 0xF903C, size: 0x8, addend: 0x0, symName: '__ZN105_$LT$std..sys..pal..unix..args..Args$u20$as$u20$core..iter..traits..double_ended..DoubleEndedIterator$GT$9next_back17h5dfde64d852e0c84E', symObjAddr: 0x39D88, symBinAddr: 0x80044, symSize: 0x48 }
  - { offset: 0xF90A3, size: 0x8, addend: 0x0, symName: '__ZN68_$LT$std..sys..pal..unix..args..Args$u20$as$u20$core..fmt..Debug$GT$3fmt17h7b05237ccd4bb9f5E', symObjAddr: 0x39C64, symBinAddr: 0x7FF20, symSize: 0x78 }
  - { offset: 0xF9362, size: 0x8, addend: 0x0, symName: __ZN3std3sys3pal4unix3net6Socket7new_raw17hc3cff1fed2cd94dbE, symObjAddr: 0x3D308, symBinAddr: 0x835C4, symSize: 0xF8 }
  - { offset: 0xF9593, size: 0x8, addend: 0x0, symName: __ZN3std3sys3pal4unix3net6Socket8new_pair17hf336db163fd6fb36E, symObjAddr: 0x3D400, symBinAddr: 0x836BC, symSize: 0x150 }
  - { offset: 0xF9805, size: 0x8, addend: 0x0, symName: __ZN3std3sys3pal4unix3net6Socket20recv_from_with_flags17hb31a7c83116cc977E, symObjAddr: 0x3D550, symBinAddr: 0x8380C, symSize: 0x154 }
  - { offset: 0xF998A, size: 0x8, addend: 0x0, symName: __ZN3std3sys3pal4unix3net6Socket10take_error17h826870d320615af0E, symObjAddr: 0x3D6A4, symBinAddr: 0x83960, symSize: 0x70 }
  - { offset: 0xF9B4C, size: 0x8, addend: 0x0, symName: '__ZN3std3sys3pal4unix4weak18DlsymWeak$LT$F$GT$10initialize17h76aaaf986b63e616E', symObjAddr: 0x39BB4, symBinAddr: 0xD0C38, symSize: 0x58 }
  - { offset: 0xF9B9E, size: 0x8, addend: 0x0, symName: '__ZN3std3sys3pal4unix4weak18DlsymWeak$LT$F$GT$10initialize17hc3fe0ee1a7eae5a8E', symObjAddr: 0x39C0C, symBinAddr: 0xD0C90, symSize: 0x58 }
  - { offset: 0xF9C3D, size: 0x8, addend: 0x0, symName: __ZN3std3sys3pal4unix4pipe8AnonPipe5write17hfe3431f78398e153E, symObjAddr: 0x3E598, symBinAddr: 0x84854, symSize: 0x48 }
  - { offset: 0xF9D1B, size: 0x8, addend: 0x0, symName: __ZN3std3sys3pal4unix4pipe9anon_pipe17h40c7c126628bdb8aE, symObjAddr: 0x3E450, symBinAddr: 0x8470C, symSize: 0x148 }
  - { offset: 0xF9FBF, size: 0x8, addend: 0x0, symName: __ZN3std3sys3pal4unix4pipe5read217ha57a074b8fd713b3E, symObjAddr: 0x3E5E0, symBinAddr: 0x8489C, symSize: 0x258 }
  - { offset: 0xFA4FF, size: 0x8, addend: 0x0, symName: __ZN3std3sys3pal4unix17decode_error_kind17h658fcc0fb80bec02E, symObjAddr: 0x412B0, symBinAddr: 0x8756C, symSize: 0x30 }
  - { offset: 0xFA519, size: 0x8, addend: 0x0, symName: __ZN3std3sys3pal4unix14abort_internal17h857d2ad66020786fE, symObjAddr: 0x412E0, symBinAddr: 0x8759C, symSize: 0xC }
  - { offset: 0xFA655, size: 0x8, addend: 0x0, symName: __ZN3std3sys3pal6common14small_c_string24run_with_cstr_allocating17h07c7b1463ef282ffE, symObjAddr: 0x35538, symBinAddr: 0xD0408, symSize: 0xCC }
  - { offset: 0xFA81E, size: 0x8, addend: 0x0, symName: __ZN3std3sys3pal6common14small_c_string24run_with_cstr_allocating17h25f07dd948e5663fE, symObjAddr: 0x35604, symBinAddr: 0xD04D4, symSize: 0xD0 }
  - { offset: 0xFA9E7, size: 0x8, addend: 0x0, symName: __ZN3std3sys3pal6common14small_c_string24run_with_cstr_allocating17h41459cfa947e9fbeE, symObjAddr: 0x356D4, symBinAddr: 0xD05A4, symSize: 0x9C }
  - { offset: 0xFAB56, size: 0x8, addend: 0x0, symName: __ZN3std3sys3pal6common14small_c_string24run_with_cstr_allocating17h4254890aff01fe87E, symObjAddr: 0x35770, symBinAddr: 0xD0640, symSize: 0xE4 }
  - { offset: 0xFAD1F, size: 0x8, addend: 0x0, symName: __ZN3std3sys3pal6common14small_c_string24run_with_cstr_allocating17h8b1440fcb4733dd8E, symObjAddr: 0x35854, symBinAddr: 0xD0724, symSize: 0xBC }
  - { offset: 0xFAEFB, size: 0x8, addend: 0x0, symName: __ZN3std3sys3pal6common14small_c_string24run_with_cstr_allocating17h94e9a16e1340d926E, symObjAddr: 0x35910, symBinAddr: 0xD07E0, symSize: 0xA0 }
  - { offset: 0xFB06A, size: 0x8, addend: 0x0, symName: __ZN3std3sys3pal6common14small_c_string24run_with_cstr_allocating17hae94c44ef5e1b55cE, symObjAddr: 0x359B0, symBinAddr: 0xD0880, symSize: 0xAC }
  - { offset: 0xFB1C6, size: 0x8, addend: 0x0, symName: __ZN3std3sys3pal6common14small_c_string24run_with_cstr_allocating17he36e3b3fe29d10a0E, symObjAddr: 0x35A5C, symBinAddr: 0xD092C, symSize: 0xC0 }
  - { offset: 0xFB38F, size: 0x8, addend: 0x0, symName: __ZN3std3sys3pal6common14small_c_string24run_with_cstr_allocating17hee0f08c345321870E, symObjAddr: 0x35B1C, symBinAddr: 0xD09EC, symSize: 0xC4 }
  - { offset: 0xFB8D7, size: 0x8, addend: 0x0, symName: __ZN3std3sys6os_str5bytes3Buf11into_string17hdc2468d309fa0c98E, symObjAddr: 0x4285C, symBinAddr: 0x88B18, symSize: 0xA0 }
  - { offset: 0xFB9A5, size: 0x8, addend: 0x0, symName: __ZN3std3sys6os_str5bytes3Buf10push_slice17h8a703bbca690c8b4E, symObjAddr: 0x428FC, symBinAddr: 0x88BB8, symSize: 0x7C }
  - { offset: 0xFBB56, size: 0x8, addend: 0x0, symName: __ZN3std3sys6os_str5bytes5Slice15to_string_lossy17h4b48930754b70c94E, symObjAddr: 0x42AB4, symBinAddr: 0x88D70, symSize: 0x10 }
  - { offset: 0xFBB6A, size: 0x8, addend: 0x0, symName: __ZN3std3sys6os_str5bytes5Slice8to_owned17h8393c3ede916cc17E, symObjAddr: 0x42AC4, symBinAddr: 0x88D80, symSize: 0x90 }
  - { offset: 0xFBC88, size: 0x8, addend: 0x0, symName: __ZN3std3sys6os_str5bytes5Slice10clone_into17hd980377dd9f381faE, symObjAddr: 0x42B54, symBinAddr: 0x88E10, symSize: 0x7C }
  - { offset: 0xFBDE9, size: 0x8, addend: 0x0, symName: __ZN3std3sys6os_str5bytes5Slice9empty_box17h575668486f2acf10E, symObjAddr: 0x42BD0, symBinAddr: 0x88E8C, symSize: 0x18 }
  - { offset: 0xFBE1D, size: 0x8, addend: 0x0, symName: '__ZN69_$LT$std..sys..os_str..bytes..Slice$u20$as$u20$core..fmt..Display$GT$3fmt17hfde323060867e81fE', symObjAddr: 0x427A0, symBinAddr: 0x88A5C, symSize: 0xA0 }
  - { offset: 0xFBE66, size: 0x8, addend: 0x0, symName: '__ZN67_$LT$std..sys..os_str..bytes..Buf$u20$as$u20$core..fmt..Display$GT$3fmt17h82497104819e3626E', symObjAddr: 0x42840, symBinAddr: 0x88AFC, symSize: 0x1C }
  - { offset: 0xFBF23, size: 0x8, addend: 0x0, symName: __ZN3std3sys6os_str5bytes5Slice21check_public_boundary9slow_path17hfe90d30f719d6df5E, symObjAddr: 0x42978, symBinAddr: 0x88C34, symSize: 0x13C }
  - { offset: 0xFC0E0, size: 0x8, addend: 0x0, symName: '__ZN3std3sys11personality3gcc14find_eh_action28_$u7b$$u7b$closure$u7d$$u7d$17h305f2ac54b218de4E', symObjAddr: 0x42390, symBinAddr: 0x8864C, symSize: 0x18 }
  - { offset: 0xFC0F4, size: 0x8, addend: 0x0, symName: '__ZN3std3sys11personality3gcc14find_eh_action28_$u7b$$u7b$closure$u7d$$u7d$17h17bcf6bd34e05be0E', symObjAddr: 0x423A8, symBinAddr: 0x88664, symSize: 0x18 }
  - { offset: 0xFC124, size: 0x8, addend: 0x0, symName: _rust_eh_personality, symObjAddr: 0x423C0, symBinAddr: 0x8867C, symSize: 0x368 }
  - { offset: 0xFC441, size: 0x8, addend: 0x0, symName: __ZN3std3sys11personality5dwarf2eh19read_encoded_offset17hffdd6e829f9c05a8E, symObjAddr: 0x35C90, symBinAddr: 0x7C184, symSize: 0x150 }
  - { offset: 0xFC5A0, size: 0x8, addend: 0x0, symName: '__ZN3std3sys9backtrace10_print_fmt28_$u7b$$u7b$closure$u7d$$u7d$17h6a8bb32777d977e8E', symObjAddr: 0x360CC, symBinAddr: 0x7C5C0, symSize: 0x30 }
  - { offset: 0xFC5C9, size: 0x8, addend: 0x0, symName: '__ZN3std3sys9backtrace10_print_fmt28_$u7b$$u7b$closure$u7d$$u7d$17h4acb2355784ec558E', symObjAddr: 0x360FC, symBinAddr: 0x7C5F0, symSize: 0x134 }
  - { offset: 0xFC6DD, size: 0x8, addend: 0x0, symName: '__ZN3std3sys9backtrace10_print_fmt28_$u7b$$u7b$closure$u7d$$u7d$28_$u7b$$u7b$closure$u7d$$u7d$17h4fbd43930ba51a17E', symObjAddr: 0x36230, symBinAddr: 0x7C724, symSize: 0x26C }
  - { offset: 0xFC909, size: 0x8, addend: 0x0, symName: __ZN3std3sys9backtrace4lock17h9c02986e58c7150eE, symObjAddr: 0x35DE0, symBinAddr: 0x7C2D4, symSize: 0x70 }
  - { offset: 0xFCA45, size: 0x8, addend: 0x0, symName: __ZN3std3sys9backtrace13BacktraceLock5print17h8baf33e22611de71E, symObjAddr: 0x35E50, symBinAddr: 0x7C344, symSize: 0x54 }
  - { offset: 0xFCA92, size: 0x8, addend: 0x0, symName: '__ZN98_$LT$std..sys..backtrace..BacktraceLock..print..DisplayBacktrace$u20$as$u20$core..fmt..Display$GT$3fmt17h7adefaad4a31afc0E', symObjAddr: 0x35EA4, symBinAddr: 0x7C398, symSize: 0x228 }
  - { offset: 0xFD012, size: 0x8, addend: 0x0, symName: __ZN3std3sys9backtrace26__rust_end_short_backtrace17heed121414170e0c7E, symObjAddr: 0x3649C, symBinAddr: 0x7C990, symSize: 0xC }
  - { offset: 0xFD02C, size: 0x8, addend: 0x0, symName: __ZN3std3sys9backtrace15output_filename17hc977e54bfca8d5d8E, symObjAddr: 0x364A8, symBinAddr: 0x7C99C, symSize: 0xFC }
  - { offset: 0xFD21B, size: 0x8, addend: 0x0, symName: '__ZN3std3sys4sync8once_box16OnceBox$LT$T$GT$10initialize17hc285a164175f3564E', symObjAddr: 0x36614, symBinAddr: 0xD0AB0, symSize: 0xBC }
  - { offset: 0xFD387, size: 0x8, addend: 0x0, symName: '__ZN3std3sys4sync8once_box16OnceBox$LT$T$GT$10initialize17hd3c004cd62d9b478E', symObjAddr: 0x366D0, symBinAddr: 0xD0B6C, symSize: 0x4C }
  - { offset: 0xFD620, size: 0x8, addend: 0x0, symName: '__ZN79_$LT$std..sys..sync..mutex..pthread..Mutex$u20$as$u20$core..ops..drop..Drop$GT$4drop17h7a9ec4c70d3f823bE', symObjAddr: 0x433D0, symBinAddr: 0x895B0, symSize: 0x58 }
  - { offset: 0xFD733, size: 0x8, addend: 0x0, symName: '__ZN90_$LT$std..sys..sync..mutex..pthread..PthreadMutexAttr$u20$as$u20$core..ops..drop..Drop$GT$4drop17hb588028fd0399639E', symObjAddr: 0x43428, symBinAddr: 0x89608, symSize: 0x14 }
  - { offset: 0xFD74D, size: 0x8, addend: 0x0, symName: __ZN3std3sys4sync5mutex7pthread14AllocatedMutex3new17h0685a95bbf6234c8E, symObjAddr: 0x4312C, symBinAddr: 0x893E8, symSize: 0x1C8 }
  - { offset: 0xFD8AF, size: 0x8, addend: 0x0, symName: __ZN3std3sys4sync5mutex7pthread5Mutex4lock4fail17h65b585fc519334efE, symObjAddr: 0x432F4, symBinAddr: 0xD0CE8, symSize: 0xDC }
  - { offset: 0xFDB0D, size: 0x8, addend: 0x0, symName: '__ZN83_$LT$std..sys..sync..rwlock..queue..PanicGuard$u20$as$u20$core..ops..drop..Drop$GT$4drop17h87bf2687cd460d89E', symObjAddr: 0x43BE8, symBinAddr: 0x89864, symSize: 0x44 }
  - { offset: 0xFDBF2, size: 0x8, addend: 0x0, symName: __ZN3std3sys4sync6rwlock5queue6RwLock14lock_contended17hf7593e321a55ad93E, symObjAddr: 0x43C2C, symBinAddr: 0xD1328, symSize: 0x250 }
  - { offset: 0xFE107, size: 0x8, addend: 0x0, symName: __ZN3std3sys4sync6rwlock5queue6RwLock21read_unlock_contended17h96494ba44518a708E, symObjAddr: 0x43E7C, symBinAddr: 0xD1578, symSize: 0x70 }
  - { offset: 0xFE30D, size: 0x8, addend: 0x0, symName: __ZN3std3sys4sync6rwlock5queue6RwLock16unlock_contended17hf58cac95d821706eE, symObjAddr: 0x43EEC, symBinAddr: 0xD15E8, symSize: 0x38 }
  - { offset: 0xFE3A2, size: 0x8, addend: 0x0, symName: __ZN3std3sys4sync6rwlock5queue6RwLock12unlock_queue17h91b974f598e765f2E, symObjAddr: 0x43F24, symBinAddr: 0x898A8, symSize: 0x17C }
  - { offset: 0xFEB35, size: 0x8, addend: 0x0, symName: __ZN3std3sys4sync6rwlock5queue10write_lock17h81126dfc2e3ae727E, symObjAddr: 0x43BA4, symBinAddr: 0x89820, symSize: 0x18 }
  - { offset: 0xFEB8A, size: 0x8, addend: 0x0, symName: __ZN3std3sys4sync6rwlock5queue9read_lock17h82656e185711842bE, symObjAddr: 0x43BBC, symBinAddr: 0x89838, symSize: 0x2C }
  - { offset: 0xFEBE3, size: 0x8, addend: 0x0, symName: '__ZN88_$LT$std..sys..sync..thread_parking..darwin..Parker$u20$as$u20$core..ops..drop..Drop$GT$4drop17h4a2537d61f71da57E', symObjAddr: 0x440D0, symBinAddr: 0x89A54, symSize: 0x14 }
  - { offset: 0xFEC31, size: 0x8, addend: 0x0, symName: __ZN3std3sys4sync14thread_parking6darwin6Parker6unpark17he31f88f7204e4d70E, symObjAddr: 0x440A0, symBinAddr: 0x89A24, symSize: 0x30 }
  - { offset: 0xFED0C, size: 0x8, addend: 0x0, symName: __ZN3std3sys4sync4once5queue4Once4wait17hdfd6a0b8673eb5d9E, symObjAddr: 0x4343C, symBinAddr: 0xD0DC4, symSize: 0x404 }
  - { offset: 0xFF7FB, size: 0x8, addend: 0x0, symName: __ZN3std3sys4sync4once5queue4Once4call17h37550d946806f870E, symObjAddr: 0x43840, symBinAddr: 0xD11C8, symSize: 0x160 }
  - { offset: 0xFF944, size: 0x8, addend: 0x0, symName: __ZN3std3sys4sync4once5queue4wait17h959a6f4df97f75a9E, symObjAddr: 0x439A0, symBinAddr: 0x8961C, symSize: 0x12C }
  - { offset: 0xFFD88, size: 0x8, addend: 0x0, symName: '__ZN82_$LT$std..sys..sync..once..queue..WaiterQueue$u20$as$u20$core..ops..drop..Drop$GT$4drop17ha1403e3a0b27a600E', symObjAddr: 0x43ACC, symBinAddr: 0x89748, symSize: 0xD8 }
  - { offset: 0xFFFD0, size: 0x8, addend: 0x0, symName: __ZN3std3sys4sync7condvar7pthread7Condvar3get17h234d19e3852d5a67E, symObjAddr: 0x42F60, symBinAddr: 0x8921C, symSize: 0x24 }
  - { offset: 0x100030, size: 0x8, addend: 0x0, symName: __ZN3std3sys4sync7condvar7pthread7Condvar12wait_timeout17hdcd7f84a5af7fdf2E, symObjAddr: 0x42F84, symBinAddr: 0x89240, symSize: 0x1A8 }
  - { offset: 0x1004CF, size: 0x8, addend: 0x0, symName: '__ZN3std3sys12thread_local6native4lazy20Storage$LT$T$C$D$GT$10initialize17h279b4dc40ec31e26E', symObjAddr: 0x440E4, symBinAddr: 0xD1620, symSize: 0xC0 }
  - { offset: 0x1006C5, size: 0x8, addend: 0x0, symName: __ZN3std3sys12thread_local6native4lazy7destroy17hbca9a89daea3b1a7E, symObjAddr: 0x441A4, symBinAddr: 0x89A68, symSize: 0x54 }
  - { offset: 0x100833, size: 0x8, addend: 0x0, symName: __ZN3std3sys12thread_local5guard5apple6enable9run_dtors17h7df97e6abb62bbefE, symObjAddr: 0x44334, symBinAddr: 0x89BF8, symSize: 0x13C }
  - { offset: 0x100D89, size: 0x8, addend: 0x0, symName: __ZN3std3sys12thread_local11destructors4list8register17ha72f6427785942b6E, symObjAddr: 0x441F8, symBinAddr: 0x89ABC, symSize: 0x13C }
  - { offset: 0x101114, size: 0x8, addend: 0x0, symName: __ZN3std3sys4path4unix8absolute17h0ffd76950466d673E, symObjAddr: 0x42BE8, symBinAddr: 0x88EA4, symSize: 0x378 }
  - { offset: 0x101A5C, size: 0x8, addend: 0x0, symName: __ZN3std3sys6random19hashmap_random_keys17h532c9bbf992f4940E, symObjAddr: 0x365A4, symBinAddr: 0x7CA98, symSize: 0x70 }
  - { offset: 0x101B23, size: 0x8, addend: 0x0, symName: __ZN3std3sys5alloc16realloc_fallback17h7b538be94df5836dE, symObjAddr: 0x35BE0, symBinAddr: 0x7C0D4, symSize: 0xB0 }
  - { offset: 0x101C1D, size: 0x8, addend: 0x0, symName: '__ZN3std3sys14anonymous_pipe4unix76_$LT$impl$u20$std..os..fd..owned..AsFd$u20$for$u20$std..pipe..PipeReader$GT$5as_fd17hb4f76b4b9f1d59eeE', symObjAddr: 0x42728, symBinAddr: 0x889E4, symSize: 0x30 }
  - { offset: 0x101C53, size: 0x8, addend: 0x0, symName: '__ZN3std3sys14anonymous_pipe4unix76_$LT$impl$u20$std..os..fd..owned..AsFd$u20$for$u20$std..pipe..PipeReader$GT$5as_fd17hb4f76b4b9f1d59eeE', symObjAddr: 0x42728, symBinAddr: 0x889E4, symSize: 0x30 }
  - { offset: 0x101C7C, size: 0x8, addend: 0x0, symName: '__ZN3std3sys14anonymous_pipe4unix79_$LT$impl$u20$std..os..fd..raw..FromRawFd$u20$for$u20$std..pipe..PipeReader$GT$11from_raw_fd17h467fe91045867c9bE', symObjAddr: 0x42758, symBinAddr: 0x88A14, symSize: 0x48 }
  - { offset: 0x101CD7, size: 0x8, addend: 0x0, symName: '__ZN67_$LT$std..os..fd..owned..BorrowedFd$u20$as$u20$core..fmt..Debug$GT$3fmt17h870b2acb579d6841E', symObjAddr: 0x2F448, symBinAddr: 0x76268, symSize: 0x64 }
  - { offset: 0x101CFE, size: 0x8, addend: 0x0, symName: '__ZN64_$LT$std..os..fd..owned..OwnedFd$u20$as$u20$core..fmt..Debug$GT$3fmt17h9d56aab72f2ddd25E', symObjAddr: 0x2F4AC, symBinAddr: 0x762CC, symSize: 0x64 }
  - { offset: 0x101D45, size: 0x8, addend: 0x0, symName: __ZN3std2os2fd5owned10BorrowedFd18try_clone_to_owned17h75a86df941c5858fE, symObjAddr: 0x2F3E0, symBinAddr: 0x76200, symSize: 0x68 }
  - { offset: 0x101E27, size: 0x8, addend: 0x0, symName: __ZN3std2os2fd5owned7OwnedFd9try_clone17hda3924227bb6fc52E, symObjAddr: 0x2F358, symBinAddr: 0x76178, symSize: 0x88 }
  - { offset: 0x102087, size: 0x8, addend: 0x0, symName: '__ZN60_$LT$std..fs..File$u20$as$u20$std..os..unix..fs..FileExt$GT$7read_at17he473ec3f69be9fe1E', symObjAddr: 0x2D118, symBinAddr: 0x73F38, symSize: 0x4C }
  - { offset: 0x10217A, size: 0x8, addend: 0x0, symName: '__ZN60_$LT$std..fs..File$u20$as$u20$std..os..unix..fs..FileExt$GT$16read_vectored_at17h57d6953fee5b44b0E', symObjAddr: 0x2D164, symBinAddr: 0x73F84, symSize: 0x10C }
  - { offset: 0x10234E, size: 0x8, addend: 0x0, symName: '__ZN60_$LT$std..fs..File$u20$as$u20$std..os..unix..fs..FileExt$GT$8write_at17h22bdadd76db924c2E', symObjAddr: 0x2D270, symBinAddr: 0x74090, symSize: 0x4C }
  - { offset: 0x102443, size: 0x8, addend: 0x0, symName: '__ZN60_$LT$std..fs..File$u20$as$u20$std..os..unix..fs..FileExt$GT$17write_vectored_at17h85b10c10e96d124bE', symObjAddr: 0x2D2BC, symBinAddr: 0x740DC, symSize: 0x10C }
  - { offset: 0x10261E, size: 0x8, addend: 0x0, symName: '__ZN69_$LT$std..fs..DirEntry$u20$as$u20$std..os..unix..fs..DirEntryExt2$GT$13file_name_ref17h71cc60895542f74eE', symObjAddr: 0x2D3C8, symBinAddr: 0x741E8, symSize: 0x18 }
  - { offset: 0x102685, size: 0x8, addend: 0x0, symName: __ZN3std2os4unix3net4addr11sockaddr_un17h663776f7effa1c64E, symObjAddr: 0x2D3E0, symBinAddr: 0x74200, symSize: 0x124 }
  - { offset: 0x102784, size: 0x8, addend: 0x0, symName: __ZN3std2os4unix3net4addr10SocketAddr10is_unnamed17hae824e50ef52267aE, symObjAddr: 0x2D504, symBinAddr: 0x74324, symSize: 0x44 }
  - { offset: 0x1027D4, size: 0x8, addend: 0x0, symName: __ZN3std2os4unix3net4addr10SocketAddr11as_pathname17hae35fc319c094212E, symObjAddr: 0x2D548, symBinAddr: 0x74368, symSize: 0x48 }
  - { offset: 0x102885, size: 0x8, addend: 0x0, symName: '__ZN73_$LT$std..os..unix..net..addr..SocketAddr$u20$as$u20$core..fmt..Debug$GT$3fmt17h9156d6e9c1f71ff6E', symObjAddr: 0x2D590, symBinAddr: 0x743B0, symSize: 0xAC }
  - { offset: 0x10294B, size: 0x8, addend: 0x0, symName: __ZN3std2os4unix3net8datagram12UnixDatagram9bind_addr17h646996cf8dda9b84E, symObjAddr: 0x2D9B8, symBinAddr: 0x747D8, symSize: 0xB0 }
  - { offset: 0x102A77, size: 0x8, addend: 0x0, symName: __ZN3std2os4unix3net8datagram12UnixDatagram7unbound17hffc8bdb5f22a07c0E, symObjAddr: 0x2DA68, symBinAddr: 0x74888, symSize: 0x5C }
  - { offset: 0x102AAD, size: 0x8, addend: 0x0, symName: __ZN3std2os4unix3net8datagram12UnixDatagram4pair17he3f3f48f0d166291E, symObjAddr: 0x2DAC4, symBinAddr: 0x748E4, symSize: 0x58 }
  - { offset: 0x102AE9, size: 0x8, addend: 0x0, symName: __ZN3std2os4unix3net8datagram12UnixDatagram12connect_addr17h1ad0202f53982847E, symObjAddr: 0x2DB1C, symBinAddr: 0x7493C, symSize: 0x3C }
  - { offset: 0x102BBD, size: 0x8, addend: 0x0, symName: __ZN3std2os4unix3net8datagram12UnixDatagram9recv_from17h7f8ab1b146866192E, symObjAddr: 0x2DB58, symBinAddr: 0x74978, symSize: 0x118 }
  - { offset: 0x102D43, size: 0x8, addend: 0x0, symName: __ZN3std2os4unix3net8datagram12UnixDatagram4recv17h3bcd5d2415768c77E, symObjAddr: 0x2DC70, symBinAddr: 0x74A90, symSize: 0x44 }
  - { offset: 0x102DF7, size: 0x8, addend: 0x0, symName: __ZN3std2os4unix3net8datagram12UnixDatagram12send_to_addr17h163b0b1d304f4c3cE, symObjAddr: 0x2DCB4, symBinAddr: 0x74AD4, symSize: 0x4C }
  - { offset: 0x102EC0, size: 0x8, addend: 0x0, symName: __ZN3std2os4unix3net8datagram12UnixDatagram4send17hda31e0b4737ed3a0E, symObjAddr: 0x2DD00, symBinAddr: 0x74B20, symSize: 0x4C }
  - { offset: 0x102FB5, size: 0x8, addend: 0x0, symName: __ZN3std2os4unix3net8datagram12UnixDatagram9peek_from17h1d273869b0bd752cE, symObjAddr: 0x2DD4C, symBinAddr: 0x74B6C, symSize: 0x118 }
  - { offset: 0x103183, size: 0x8, addend: 0x0, symName: '__ZN79_$LT$std..os..unix..net..datagram..UnixDatagram$u20$as$u20$core..fmt..Debug$GT$3fmt17heb52f0dcc6a270e6E', symObjAddr: 0x2D63C, symBinAddr: 0x7445C, symSize: 0x37C }
  - { offset: 0x1037FA, size: 0x8, addend: 0x0, symName: __ZN3std2os4unix3net8listener12UnixListener9bind_addr17ha825ce98acca609aE, symObjAddr: 0x2E068, symBinAddr: 0x74E88, symSize: 0xC4 }
  - { offset: 0x103933, size: 0x8, addend: 0x0, symName: __ZN3std2os4unix3net8listener12UnixListener6accept17h5a02f3f3dd122328E, symObjAddr: 0x2E12C, symBinAddr: 0x74F4C, symSize: 0x148 }
  - { offset: 0x103BA5, size: 0x8, addend: 0x0, symName: '__ZN79_$LT$std..os..unix..net..listener..UnixListener$u20$as$u20$core..fmt..Debug$GT$3fmt17h10580feab0a14512E', symObjAddr: 0x2DE64, symBinAddr: 0x74C84, symSize: 0x204 }
  - { offset: 0x103E8D, size: 0x8, addend: 0x0, symName: '__ZN97_$LT$std..os..unix..net..listener..Incoming$u20$as$u20$core..iter..traits..iterator..Iterator$GT$4next17hbd4410a8bbd60f21E', symObjAddr: 0x2E274, symBinAddr: 0x75094, symSize: 0x40 }
  - { offset: 0x103EE4, size: 0x8, addend: 0x0, symName: __ZN3std2os4unix3net6stream10UnixStream12connect_addr17hda7849bd2fff92b1E, symObjAddr: 0x2E630, symBinAddr: 0x75450, symSize: 0xB0 }
  - { offset: 0x103FED, size: 0x8, addend: 0x0, symName: __ZN3std2os4unix3net6stream10UnixStream4pair17ha3a6080a74019f3cE, symObjAddr: 0x2E6E0, symBinAddr: 0x75500, symSize: 0x58 }
  - { offset: 0x104029, size: 0x8, addend: 0x0, symName: __ZN3std2os4unix3net6stream10UnixStream10local_addr17hb7eda4cb9f9e1dd2E, symObjAddr: 0x2E738, symBinAddr: 0x75558, symSize: 0xE0 }
  - { offset: 0x10412D, size: 0x8, addend: 0x0, symName: __ZN3std2os4unix3net6stream10UnixStream9peer_addr17h68d7f2557d71e96cE, symObjAddr: 0x2E818, symBinAddr: 0x75638, symSize: 0xE0 }
  - { offset: 0x104231, size: 0x8, addend: 0x0, symName: __ZN3std2os4unix3net6stream10UnixStream9peer_cred17h52ee3f57276ec082E, symObjAddr: 0x2E8F8, symBinAddr: 0x75718, symSize: 0xD0 }
  - { offset: 0x10430B, size: 0x8, addend: 0x0, symName: __ZN3std2os4unix3net6stream10UnixStream16set_read_timeout17hb5fb14c01db82e87E, symObjAddr: 0x2E9C8, symBinAddr: 0x757E8, symSize: 0xB4 }
  - { offset: 0x1043CB, size: 0x8, addend: 0x0, symName: __ZN3std2os4unix3net6stream10UnixStream17set_write_timeout17h88881bf6d0f55bc5E, symObjAddr: 0x2EA7C, symBinAddr: 0x7589C, symSize: 0xB4 }
  - { offset: 0x10448B, size: 0x8, addend: 0x0, symName: __ZN3std2os4unix3net6stream10UnixStream12read_timeout17h3065f0969ad3e8b0E, symObjAddr: 0x2EB30, symBinAddr: 0x75950, symSize: 0xFC }
  - { offset: 0x1045B1, size: 0x8, addend: 0x0, symName: __ZN3std2os4unix3net6stream10UnixStream13write_timeout17h51ff5b52a392a6b3E, symObjAddr: 0x2EC2C, symBinAddr: 0x75A4C, symSize: 0xFC }
  - { offset: 0x1046D7, size: 0x8, addend: 0x0, symName: __ZN3std2os4unix3net6stream10UnixStream15set_nonblocking17h0cf9b9830e001df5E, symObjAddr: 0x2ED28, symBinAddr: 0x75B48, symSize: 0x54 }
  - { offset: 0x104775, size: 0x8, addend: 0x0, symName: __ZN3std2os4unix3net6stream10UnixStream10take_error17hb8659af938c5e7f0E, symObjAddr: 0x2ED7C, symBinAddr: 0x75B9C, symSize: 0x74 }
  - { offset: 0x104883, size: 0x8, addend: 0x0, symName: __ZN3std2os4unix3net6stream10UnixStream8shutdown17h93309307659cacd1E, symObjAddr: 0x2EDF0, symBinAddr: 0x75C10, symSize: 0x3C }
  - { offset: 0x104921, size: 0x8, addend: 0x0, symName: __ZN3std2os4unix3net6stream10UnixStream4peek17h294005e8958a2189E, symObjAddr: 0x2EE2C, symBinAddr: 0x75C4C, symSize: 0x44 }
  - { offset: 0x104A07, size: 0x8, addend: 0x0, symName: '__ZN75_$LT$std..os..unix..net..stream..UnixStream$u20$as$u20$core..fmt..Debug$GT$3fmt17h56862e618568ec25E', symObjAddr: 0x2E2B4, symBinAddr: 0x750D4, symSize: 0x37C }
  - { offset: 0x105063, size: 0x8, addend: 0x0, symName: '__ZN76_$LT$$RF$std..os..unix..net..stream..UnixStream$u20$as$u20$std..io..Read$GT$8read_buf17h7c3528c617477d11E', symObjAddr: 0x2EF70, symBinAddr: 0x75D90, symSize: 0x74 }
  - { offset: 0x1051F3, size: 0x8, addend: 0x0, symName: '__ZN72_$LT$std..os..unix..net..stream..UnixStream$u20$as$u20$std..io..Read$GT$4read17h0b930058fe4e7a6dE', symObjAddr: 0x2EE70, symBinAddr: 0x75C90, symSize: 0x44 }
  - { offset: 0x1052BD, size: 0x8, addend: 0x0, symName: '__ZN72_$LT$std..os..unix..net..stream..UnixStream$u20$as$u20$std..io..Read$GT$8read_buf17h98e277f120ae50c9E', symObjAddr: 0x2EEB4, symBinAddr: 0x75CD4, symSize: 0x70 }
  - { offset: 0x105464, size: 0x8, addend: 0x0, symName: '__ZN72_$LT$std..os..unix..net..stream..UnixStream$u20$as$u20$std..io..Read$GT$13read_vectored17hbbe22e0a908249e4E', symObjAddr: 0x2EF24, symBinAddr: 0x75D44, symSize: 0x4C }
  - { offset: 0x105593, size: 0x8, addend: 0x0, symName: '__ZN76_$LT$std..process..Command$u20$as$u20$std..os..unix..process..CommandExt$GT$6groups17h7d529a2dfa98468bE', symObjAddr: 0x2EFE4, symBinAddr: 0x75E04, symSize: 0xD0 }
  - { offset: 0x105750, size: 0x8, addend: 0x0, symName: '__ZN76_$LT$std..process..Command$u20$as$u20$std..os..unix..process..CommandExt$GT$4exec17h93a1ea9d3b4400c1E', symObjAddr: 0x2F0B4, symBinAddr: 0x75ED4, symSize: 0x25C }
  - { offset: 0x105D96, size: 0x8, addend: 0x0, symName: '__ZN87_$LT$std..process..ExitStatusError$u20$as$u20$std..os..unix..process..ExitStatusExt$GT$8from_raw17hc736a082c3d462feE', symObjAddr: 0x2F310, symBinAddr: 0x76130, symSize: 0x38 }
  - { offset: 0x105DC1, size: 0x8, addend: 0x0, symName: __ZN3std2os4unix7process9parent_id17ha7a517664647d5f6E, symObjAddr: 0x2F348, symBinAddr: 0x76168, symSize: 0x10 }
  - { offset: 0x105E0D, size: 0x8, addend: 0x0, symName: '__ZN62_$LT$std..process..ChildStderr$u20$as$u20$core..fmt..Debug$GT$3fmt17h677e54a7a098980cE', symObjAddr: 0x32DD4, symBinAddr: 0x79BF4, symSize: 0x38 }
  - { offset: 0x105E35, size: 0x8, addend: 0x0, symName: '__ZN62_$LT$std..process..ChildStdout$u20$as$u20$core..fmt..Debug$GT$3fmt17h10ce2c4247152729E', symObjAddr: 0x32CD8, symBinAddr: 0x79AF8, symSize: 0x38 }
  - { offset: 0x105E5D, size: 0x8, addend: 0x0, symName: '__ZN61_$LT$std..process..ChildStdin$u20$as$u20$core..fmt..Debug$GT$3fmt17h5f90dbc778df0040E', symObjAddr: 0x32CA0, symBinAddr: 0x79AC0, symSize: 0x38 }
  - { offset: 0x105E77, size: 0x8, addend: 0x0, symName: '__ZN193_$LT$std..process..Child$u20$as$u20$std..sys_common..FromInner$LT$$LP$std..sys..pal..unix..process..process_inner..Process$C$std..sys..pal..unix..process..process_common..StdioPipes$RP$$GT$$GT$10from_inner17h0fba2cdc4d03c302E', symObjAddr: 0x32B74, symBinAddr: 0x79994, symSize: 0x30 }
  - { offset: 0x105E98, size: 0x8, addend: 0x0, symName: '__ZN126_$LT$std..process..Child$u20$as$u20$std..sys_common..IntoInner$LT$std..sys..pal..unix..process..process_inner..Process$GT$$GT$10into_inner17h862dd3674cfec9c5E', symObjAddr: 0x32BA4, symBinAddr: 0x799C4, symSize: 0x60 }
  - { offset: 0x106059, size: 0x8, addend: 0x0, symName: '__ZN56_$LT$std..process..Child$u20$as$u20$core..fmt..Debug$GT$3fmt17h47ab4fe98eda2ceeE', symObjAddr: 0x32C04, symBinAddr: 0x79A24, symSize: 0x9C }
  - { offset: 0x10607A, size: 0x8, addend: 0x0, symName: '__ZN59_$LT$std..process..ChildStderr$u20$as$u20$std..io..Read$GT$4read17hd8af2a4c3c6eeeabE', symObjAddr: 0x32D10, symBinAddr: 0x79B30, symSize: 0x4C }
  - { offset: 0x10616C, size: 0x8, addend: 0x0, symName: '__ZN59_$LT$std..process..ChildStderr$u20$as$u20$std..io..Read$GT$8read_buf17h03ed8e5e001ecc40E', symObjAddr: 0x32D5C, symBinAddr: 0x79B7C, symSize: 0x78 }
  - { offset: 0x10634C, size: 0x8, addend: 0x0, symName: __ZN3std7process7Command9env_clear17h146d4e0649a2b8e8E, symObjAddr: 0x32E0C, symBinAddr: 0x79C2C, symSize: 0x50 }
  - { offset: 0x106404, size: 0x8, addend: 0x0, symName: __ZN3std7process7Command5spawn17h266f02ed69b6b94cE, symObjAddr: 0x32E5C, symBinAddr: 0x79C7C, symSize: 0x78 }
  - { offset: 0x106435, size: 0x8, addend: 0x0, symName: __ZN3std7process7Command6output17h59ad43b401eb7b7aE, symObjAddr: 0x32ED4, symBinAddr: 0x79CF4, symSize: 0x2FC }
  - { offset: 0x106A03, size: 0x8, addend: 0x0, symName: __ZN3std7process7Command6status17hb1476875a54afa3bE, symObjAddr: 0x331D0, symBinAddr: 0x79FF0, symSize: 0x100 }
  - { offset: 0x106CB7, size: 0x8, addend: 0x0, symName: __ZN3std7process7Command11get_program17hb3521bae146b0ee5E, symObjAddr: 0x332D0, symBinAddr: 0x7A0F0, symSize: 0x1C }
  - { offset: 0x106CFE, size: 0x8, addend: 0x0, symName: __ZN3std7process7Command8get_args17hd2a20429ba5b9c9cE, symObjAddr: 0x332EC, symBinAddr: 0x7A10C, symSize: 0x24 }
  - { offset: 0x106D85, size: 0x8, addend: 0x0, symName: __ZN3std7process7Command15get_current_dir17h05434e5d408fd71bE, symObjAddr: 0x33310, symBinAddr: 0x7A130, symSize: 0x1C }
  - { offset: 0x106DE0, size: 0x8, addend: 0x0, symName: __ZN3std7process5Child4kill17hbcc4cd7d18db2e76E, symObjAddr: 0x33634, symBinAddr: 0x7A454, symSize: 0x4C }
  - { offset: 0x106E8B, size: 0x8, addend: 0x0, symName: __ZN3std7process5Child4wait17hfd16e40a21ace0b6E, symObjAddr: 0x33680, symBinAddr: 0x7A4A0, symSize: 0xBC }
  - { offset: 0x107042, size: 0x8, addend: 0x0, symName: __ZN3std7process5Child8try_wait17hab194fd7dcf6164aE, symObjAddr: 0x3373C, symBinAddr: 0x7A55C, symSize: 0xB4 }
  - { offset: 0x107102, size: 0x8, addend: 0x0, symName: __ZN3std7process5Child16wait_with_output17h7f885c4faec66dfaE, symObjAddr: 0x337F0, symBinAddr: 0x7A610, symSize: 0x2DC }
  - { offset: 0x10776B, size: 0x8, addend: 0x0, symName: '__ZN58_$LT$std..process..Command$u20$as$u20$core..fmt..Debug$GT$3fmt17h2eb960460f470b7dE', symObjAddr: 0x3332C, symBinAddr: 0x7A14C, symSize: 0x10 }
  - { offset: 0x10778C, size: 0x8, addend: 0x0, symName: '__ZN84_$LT$std..process..CommandArgs$u20$as$u20$core..iter..traits..iterator..Iterator$GT$4next17h2070c5632d0143b9E', symObjAddr: 0x3333C, symBinAddr: 0x7A15C, symSize: 0x34 }
  - { offset: 0x1077AA, size: 0x8, addend: 0x0, symName: '__ZN84_$LT$std..process..CommandArgs$u20$as$u20$core..iter..traits..iterator..Iterator$GT$4next17h2070c5632d0143b9E', symObjAddr: 0x3333C, symBinAddr: 0x7A15C, symSize: 0x34 }
  - { offset: 0x1077BF, size: 0x8, addend: 0x0, symName: '__ZN84_$LT$std..process..CommandArgs$u20$as$u20$core..iter..traits..iterator..Iterator$GT$4next17h2070c5632d0143b9E', symObjAddr: 0x3333C, symBinAddr: 0x7A15C, symSize: 0x34 }
  - { offset: 0x107854, size: 0x8, addend: 0x0, symName: '__ZN84_$LT$std..process..CommandArgs$u20$as$u20$core..iter..traits..iterator..Iterator$GT$9size_hint17hc63d5b1de5148b9aE', symObjAddr: 0x33370, symBinAddr: 0x7A190, symSize: 0x28 }
  - { offset: 0x1078CC, size: 0x8, addend: 0x0, symName: '__ZN95_$LT$std..process..CommandArgs$u20$as$u20$core..iter..traits..exact_size..ExactSizeIterator$GT$3len17h85bde1d725b5d675E', symObjAddr: 0x33398, symBinAddr: 0x7A1B8, symSize: 0x1C }
  - { offset: 0x107944, size: 0x8, addend: 0x0, symName: '__ZN57_$LT$std..process..Output$u20$as$u20$core..fmt..Debug$GT$3fmt17h4c021b2144c6640cE', symObjAddr: 0x333B4, symBinAddr: 0x7A1D4, symSize: 0x10C }
  - { offset: 0x107A6C, size: 0x8, addend: 0x0, symName: '__ZN56_$LT$std..process..Stdio$u20$as$u20$core..fmt..Debug$GT$3fmt17h2a2f40a49915da3bE', symObjAddr: 0x334C0, symBinAddr: 0x7A2E0, symSize: 0x38 }
  - { offset: 0x107A8D, size: 0x8, addend: 0x0, symName: __ZN3std7process10ExitStatus7exit_ok17h9ce386e50f9e8edeE, symObjAddr: 0x334F8, symBinAddr: 0x7A318, symSize: 0x14 }
  - { offset: 0x107AC4, size: 0x8, addend: 0x0, symName: '__ZN63_$LT$std..process..ExitStatus$u20$as$u20$core..fmt..Display$GT$3fmt17h19f84d8393cf5e65E', symObjAddr: 0x3350C, symBinAddr: 0x7A32C, symSize: 0x10 }
  - { offset: 0x107AF3, size: 0x8, addend: 0x0, symName: __ZN3std7process15ExitStatusError4code17h9a777bce7c488818E, symObjAddr: 0x3351C, symBinAddr: 0x7A33C, symSize: 0x5C }
  - { offset: 0x107BEC, size: 0x8, addend: 0x0, symName: __ZN3std7process15ExitStatusError12code_nonzero17ha3f1d2194e0660f9E, symObjAddr: 0x33578, symBinAddr: 0x7A398, symSize: 0x54 }
  - { offset: 0x107CE4, size: 0x8, addend: 0x0, symName: '__ZN68_$LT$std..process..ExitStatusError$u20$as$u20$core..fmt..Display$GT$3fmt17hc0d2cd6647b1321fE', symObjAddr: 0x335CC, symBinAddr: 0x7A3EC, symSize: 0x58 }
  - { offset: 0x107D53, size: 0x8, addend: 0x0, symName: __ZN3std7process8ExitCode12exit_process17h576189345c2e7791E, symObjAddr: 0x33624, symBinAddr: 0x7A444, symSize: 0x10 }
  - { offset: 0x107DAF, size: 0x8, addend: 0x0, symName: __ZN3std7process4exit17he1a5b98063b2b340E, symObjAddr: 0x33ACC, symBinAddr: 0x7A8EC, symSize: 0x1C }
  - { offset: 0x107DCA, size: 0x8, addend: 0x0, symName: __ZN3std7process5abort17hefc10ade1c26ea0eE, symObjAddr: 0x33AE8, symBinAddr: 0xD0184, symSize: 0xC }
  - { offset: 0x107DE5, size: 0x8, addend: 0x0, symName: __ZN3std7process2id17ha36e775cd374fcadE, symObjAddr: 0x33AF4, symBinAddr: 0x7A908, symSize: 0x10 }
  - { offset: 0x107E1B, size: 0x8, addend: 0x0, symName: '__ZN61_$LT$std..process..ExitStatus$u20$as$u20$core..fmt..Debug$GT$3fmt17h7508feeb417ed04aE', symObjAddr: 0x39B74, symBinAddr: 0x7FEE0, symSize: 0x40 }
  - { offset: 0x107F9B, size: 0x8, addend: 0x0, symName: __ZN3std4path4Path11is_absolute17hd4812f4da80066d7E, symObjAddr: 0x31484, symBinAddr: 0x782A4, symSize: 0x2C }
  - { offset: 0x108006, size: 0x8, addend: 0x0, symName: __ZN3std4path4Path6parent17he35c2f34b9de05cbE, symObjAddr: 0x314B0, symBinAddr: 0x782D0, symSize: 0x84 }
  - { offset: 0x10801D, size: 0x8, addend: 0x0, symName: __ZN3std4path4Path6parent17he35c2f34b9de05cbE, symObjAddr: 0x314B0, symBinAddr: 0x782D0, symSize: 0x84 }
  - { offset: 0x108032, size: 0x8, addend: 0x0, symName: __ZN3std4path4Path6parent17he35c2f34b9de05cbE, symObjAddr: 0x314B0, symBinAddr: 0x782D0, symSize: 0x84 }
  - { offset: 0x108087, size: 0x8, addend: 0x0, symName: __ZN3std4path4Path9file_name17hdaf0803034112d11E, symObjAddr: 0x31534, symBinAddr: 0x78354, symSize: 0x64 }
  - { offset: 0x10809E, size: 0x8, addend: 0x0, symName: __ZN3std4path4Path9file_name17hdaf0803034112d11E, symObjAddr: 0x31534, symBinAddr: 0x78354, symSize: 0x64 }
  - { offset: 0x1080B3, size: 0x8, addend: 0x0, symName: __ZN3std4path4Path9file_name17hdaf0803034112d11E, symObjAddr: 0x31534, symBinAddr: 0x78354, symSize: 0x64 }
  - { offset: 0x1080F2, size: 0x8, addend: 0x0, symName: __ZN3std4path4Path13_strip_prefix17h2da2f8b103717ed8E, symObjAddr: 0x31598, symBinAddr: 0x783B8, symSize: 0x21C }
  - { offset: 0x108224, size: 0x8, addend: 0x0, symName: __ZN3std4path4Path12_starts_with17h7e4134ca947ec556E, symObjAddr: 0x317B4, symBinAddr: 0x785D4, symSize: 0x198 }
  - { offset: 0x108333, size: 0x8, addend: 0x0, symName: __ZN3std4path4Path10_ends_with17h82da21b174d4a9f5E, symObjAddr: 0x3194C, symBinAddr: 0x7876C, symSize: 0x198 }
  - { offset: 0x1084A4, size: 0x8, addend: 0x0, symName: __ZN3std4path4Path9file_stem17he830e8d0e280c6e7E, symObjAddr: 0x31AE4, symBinAddr: 0x78904, symSize: 0xF4 }
  - { offset: 0x1084BB, size: 0x8, addend: 0x0, symName: __ZN3std4path4Path9file_stem17he830e8d0e280c6e7E, symObjAddr: 0x31AE4, symBinAddr: 0x78904, symSize: 0xF4 }
  - { offset: 0x1084D0, size: 0x8, addend: 0x0, symName: __ZN3std4path4Path9file_stem17he830e8d0e280c6e7E, symObjAddr: 0x31AE4, symBinAddr: 0x78904, symSize: 0xF4 }
  - { offset: 0x1084E5, size: 0x8, addend: 0x0, symName: __ZN3std4path4Path9file_stem17he830e8d0e280c6e7E, symObjAddr: 0x31AE4, symBinAddr: 0x78904, symSize: 0xF4 }
  - { offset: 0x108768, size: 0x8, addend: 0x0, symName: __ZN3std4path4Path11file_prefix17h43cf6b8591ab16dfE, symObjAddr: 0x31BD8, symBinAddr: 0x789F8, symSize: 0x130 }
  - { offset: 0x10894A, size: 0x8, addend: 0x0, symName: __ZN3std4path4Path9extension17hb71fa3411a3cead4E, symObjAddr: 0x31D08, symBinAddr: 0x78B28, symSize: 0xC0 }
  - { offset: 0x108961, size: 0x8, addend: 0x0, symName: __ZN3std4path4Path9extension17hb71fa3411a3cead4E, symObjAddr: 0x31D08, symBinAddr: 0x78B28, symSize: 0xC0 }
  - { offset: 0x108976, size: 0x8, addend: 0x0, symName: __ZN3std4path4Path9extension17hb71fa3411a3cead4E, symObjAddr: 0x31D08, symBinAddr: 0x78B28, symSize: 0xC0 }
  - { offset: 0x10898B, size: 0x8, addend: 0x0, symName: __ZN3std4path4Path9extension17hb71fa3411a3cead4E, symObjAddr: 0x31D08, symBinAddr: 0x78B28, symSize: 0xC0 }
  - { offset: 0x108BDB, size: 0x8, addend: 0x0, symName: __ZN3std4path4Path5_join17had3a2b8f4cd3c0dfE, symObjAddr: 0x31DC8, symBinAddr: 0x78BE8, symSize: 0x19C }
  - { offset: 0x109036, size: 0x8, addend: 0x0, symName: __ZN3std4path4Path15_with_file_name17h7cae80f1d26956c7E, symObjAddr: 0x31F64, symBinAddr: 0x78D84, symSize: 0xE8 }
  - { offset: 0x10926F, size: 0x8, addend: 0x0, symName: __ZN3std4path4Path15_with_extension17hdff11c758f17b145E, symObjAddr: 0x3204C, symBinAddr: 0x78E6C, symSize: 0x210 }
  - { offset: 0x109730, size: 0x8, addend: 0x0, symName: __ZN3std4path4Path10components17hab13bcf09bb47166E, symObjAddr: 0x3225C, symBinAddr: 0x7907C, symSize: 0x40 }
  - { offset: 0x109770, size: 0x8, addend: 0x0, symName: __ZN3std4path4Path7is_file17ha3427b3c5fa7d627E, symObjAddr: 0x3229C, symBinAddr: 0x790BC, symSize: 0x1C4 }
  - { offset: 0x109B50, size: 0x8, addend: 0x0, symName: __ZN3std4path4Path6is_dir17hc03774e0a986794eE, symObjAddr: 0x32460, symBinAddr: 0x79280, symSize: 0x1C4 }
  - { offset: 0x109F30, size: 0x8, addend: 0x0, symName: __ZN3std4path4Path10is_symlink17h394c60b15b4bfc42E, symObjAddr: 0x32624, symBinAddr: 0x79444, symSize: 0x1C4 }
  - { offset: 0x10A4E8, size: 0x8, addend: 0x0, symName: '__ZN58_$LT$std..path..Components$u20$as$u20$core..fmt..Debug$GT$3fmt17h45149c18893f9be8E', symObjAddr: 0x2F7C8, symBinAddr: 0x765E8, symSize: 0x64 }
  - { offset: 0x10A50D, size: 0x8, addend: 0x0, symName: '__ZN112_$LT$$LT$std..path..Components$u20$as$u20$core..fmt..Debug$GT$..fmt..DebugHelper$u20$as$u20$core..fmt..Debug$GT$3fmt17h4d4b5f6a2fd9d21eE', symObjAddr: 0x2F82C, symBinAddr: 0x7664C, symSize: 0xD4 }
  - { offset: 0x10A5E1, size: 0x8, addend: 0x0, symName: __ZN3std4path10Components15len_before_body17he1f50228b1838e6aE, symObjAddr: 0x2F900, symBinAddr: 0x76720, symSize: 0x188 }
  - { offset: 0x10A5F8, size: 0x8, addend: 0x0, symName: __ZN3std4path10Components15len_before_body17he1f50228b1838e6aE, symObjAddr: 0x2F900, symBinAddr: 0x76720, symSize: 0x188 }
  - { offset: 0x10A60D, size: 0x8, addend: 0x0, symName: __ZN3std4path10Components15len_before_body17he1f50228b1838e6aE, symObjAddr: 0x2F900, symBinAddr: 0x76720, symSize: 0x188 }
  - { offset: 0x10A7EF, size: 0x8, addend: 0x0, symName: __ZN3std4path10Components7as_path17hc4f4a7b78ce3c07eE, symObjAddr: 0x2FA88, symBinAddr: 0x768A8, symSize: 0x530 }
  - { offset: 0x10ACB9, size: 0x8, addend: 0x0, symName: __ZN3std4path10Components25parse_next_component_back17h20507a478b81ee4cE, symObjAddr: 0x2FFB8, symBinAddr: 0x76DD8, symSize: 0x120 }
  - { offset: 0x10AEC4, size: 0x8, addend: 0x0, symName: '__ZN52_$LT$std..path..Iter$u20$as$u20$core..fmt..Debug$GT$3fmt17ha71445c770876402E', symObjAddr: 0x300D8, symBinAddr: 0x76EF8, symSize: 0x64 }
  - { offset: 0x10AEFF, size: 0x8, addend: 0x0, symName: '__ZN106_$LT$$LT$std..path..Iter$u20$as$u20$core..fmt..Debug$GT$..fmt..DebugHelper$u20$as$u20$core..fmt..Debug$GT$3fmt17haec8913f11ef51c4E', symObjAddr: 0x3013C, symBinAddr: 0x76F5C, symSize: 0x134 }
  - { offset: 0x10AFE7, size: 0x8, addend: 0x0, symName: '__ZN80_$LT$std..path..Components$u20$as$u20$core..iter..traits..iterator..Iterator$GT$4next17h240fe092a2974e44E', symObjAddr: 0x30270, symBinAddr: 0x77090, symSize: 0x364 }
  - { offset: 0x10B334, size: 0x8, addend: 0x0, symName: '__ZN95_$LT$std..path..Components$u20$as$u20$core..iter..traits..double_ended..DoubleEndedIterator$GT$9next_back17h4ddd74a66a548e1dE', symObjAddr: 0x305D4, symBinAddr: 0x773F4, symSize: 0x330 }
  - { offset: 0x10B4BC, size: 0x8, addend: 0x0, symName: __ZN3std4path18compare_components17h864d03ef5af4c3e7E, symObjAddr: 0x30904, symBinAddr: 0x77724, symSize: 0x304 }
  - { offset: 0x10B89B, size: 0x8, addend: 0x0, symName: __ZN3std4path7PathBuf5_push17h5c087d9a4f5c6e83E, symObjAddr: 0x30C08, symBinAddr: 0x77A28, symSize: 0x104 }
  - { offset: 0x10BC34, size: 0x8, addend: 0x0, symName: __ZN3std4path7PathBuf3pop17hfd558862512e7aceE, symObjAddr: 0x30D0C, symBinAddr: 0x77B2C, symSize: 0xA8 }
  - { offset: 0x10BE39, size: 0x8, addend: 0x0, symName: __ZN3std4path7PathBuf14_set_file_name17hd47cb42524c0c55bE, symObjAddr: 0x30DB4, symBinAddr: 0x77BD4, symSize: 0x1C8 }
  - { offset: 0x10C2FD, size: 0x8, addend: 0x0, symName: __ZN3std4path7PathBuf14_set_extension17hb70db3a70ae657adE, symObjAddr: 0x30F7C, symBinAddr: 0x77D9C, symSize: 0x2AC }
  - { offset: 0x10CAB9, size: 0x8, addend: 0x0, symName: __ZN3std4path7PathBuf14_add_extension17h81e5f73615b3c69cE, symObjAddr: 0x31228, symBinAddr: 0x78048, symSize: 0x1B4 }
  - { offset: 0x10D093, size: 0x8, addend: 0x0, symName: '__ZN3std4path117_$LT$impl$u20$core..convert..From$LT$$RF$std..path..Path$GT$$u20$for$u20$alloc..boxed..Box$LT$std..path..Path$GT$$GT$4from17h53d0d4b0c1260136E', symObjAddr: 0x313DC, symBinAddr: 0x781FC, symSize: 0x80 }
  - { offset: 0x10D1C6, size: 0x8, addend: 0x0, symName: '__ZN52_$LT$std..path..Path$u20$as$u20$core..fmt..Debug$GT$3fmt17hd02d5e990aa2db15E', symObjAddr: 0x327E8, symBinAddr: 0x79608, symSize: 0x28 }
  - { offset: 0x10D221, size: 0x8, addend: 0x0, symName: '__ZN55_$LT$std..path..PathBuf$u20$as$u20$core..fmt..Debug$GT$3fmt17h2e6c8b2a7bd3fe27E', symObjAddr: 0x3145C, symBinAddr: 0x7827C, symSize: 0x28 }
  - { offset: 0x10D3C9, size: 0x8, addend: 0x0, symName: '__ZN55_$LT$std..path..Display$u20$as$u20$core..fmt..Debug$GT$3fmt17hc7ac5ba239202d41E', symObjAddr: 0x32810, symBinAddr: 0x79630, symSize: 0x28 }
  - { offset: 0x10D457, size: 0x8, addend: 0x0, symName: '__ZN57_$LT$std..path..Display$u20$as$u20$core..fmt..Display$GT$3fmt17hd78f7f625035d814E', symObjAddr: 0x32838, symBinAddr: 0x79658, symSize: 0x1C }
  - { offset: 0x10D495, size: 0x8, addend: 0x0, symName: '__ZN66_$LT$std..path..StripPrefixError$u20$as$u20$core..fmt..Display$GT$3fmt17hb7925bb09b4b0778E', symObjAddr: 0x32854, symBinAddr: 0x79674, symSize: 0x20 }
  - { offset: 0x10D4DD, size: 0x8, addend: 0x0, symName: '__ZN61_$LT$std..path..Component$u20$as$u20$core..cmp..PartialEq$GT$2eq17h2e109766e714e46fE', symObjAddr: 0x3996C, symBinAddr: 0x7FCD8, symSize: 0x138 }
  - { offset: 0x10D637, size: 0x8, addend: 0x0, symName: '__ZN57_$LT$std..path..Component$u20$as$u20$core..fmt..Debug$GT$3fmt17hc8863aa790253172E', symObjAddr: 0x39AA4, symBinAddr: 0x7FE10, symSize: 0xD0 }
  - { offset: 0x10D89B, size: 0x8, addend: 0x0, symName: __ZN3std3ffi6os_str8OsString17into_boxed_os_str17h7a8d7aea12960c13E, symObjAddr: 0x21918, symBinAddr: 0x68950, symSize: 0x98 }
  - { offset: 0x10DAD7, size: 0x8, addend: 0x0, symName: __ZN3std3ffi6os_str5OsStr14into_os_string17h231a6cccbee9f4c1E, symObjAddr: 0x21A30, symBinAddr: 0x68A68, symSize: 0x18 }
  - { offset: 0x10DAF2, size: 0x8, addend: 0x0, symName: __ZN3std3ffi6os_str5OsStr18to_ascii_lowercase17h8ef059aa7f49c1d9E, symObjAddr: 0x21A48, symBinAddr: 0x68A80, symSize: 0x190 }
  - { offset: 0x10DC77, size: 0x8, addend: 0x0, symName: __ZN3std3ffi6os_str5OsStr18to_ascii_uppercase17h0cd770b92c928a7fE, symObjAddr: 0x21BD8, symBinAddr: 0x68C10, symSize: 0x190 }
  - { offset: 0x10DE8E, size: 0x8, addend: 0x0, symName: '__ZN63_$LT$std..ffi..os_str..OsString$u20$as$u20$core..fmt..Write$GT$9write_str17h88f0e05ad2c9ab2dE', symObjAddr: 0x219B0, symBinAddr: 0x689E8, symSize: 0x80 }
  - { offset: 0x10E016, size: 0x8, addend: 0x0, symName: '__ZN3std3ffi6os_str95_$LT$impl$u20$core..convert..TryFrom$LT$$RF$std..ffi..os_str..OsStr$GT$$u20$for$u20$$RF$str$GT$8try_from17hacf1a48227cba18dE', symObjAddr: 0x21D68, symBinAddr: 0x68DA0, symSize: 0x10 }
  - { offset: 0x10E04D, size: 0x8, addend: 0x0, symName: '__ZN62_$LT$std..ffi..os_str..Display$u20$as$u20$core..fmt..Debug$GT$3fmt17he506d065f9a30d97E', symObjAddr: 0x21D78, symBinAddr: 0x68DB0, symSize: 0x28 }
  - { offset: 0x10E0CC, size: 0x8, addend: 0x0, symName: '__ZN64_$LT$std..ffi..os_str..Display$u20$as$u20$core..fmt..Display$GT$3fmt17h2c9e238ad5a6828eE', symObjAddr: 0x21DA0, symBinAddr: 0x68DD8, symSize: 0x1C }
  - { offset: 0x10E336, size: 0x8, addend: 0x0, symName: __ZN3std2io5error5Error3new17ha6bd369ff0e694abE, symObjAddr: 0x24D90, symBinAddr: 0x6BBB0, symSize: 0x12C }
  - { offset: 0x10E677, size: 0x8, addend: 0x0, symName: __ZN3std2io5error5Error3new17hc24aef2a81b5e04bE, symObjAddr: 0x24EBC, symBinAddr: 0x6BCDC, symSize: 0x80 }
  - { offset: 0x10E73D, size: 0x8, addend: 0x0, symName: __ZN3std2io5error5Error4_new17hb9ca239c11358d50E, symObjAddr: 0x24F3C, symBinAddr: 0x6BD5C, symSize: 0x84 }
  - { offset: 0x10EAC8, size: 0x8, addend: 0x0, symName: __ZN3std2io5error14repr_bitpacked4Repr3new17h6c32bd6df2bb9932E, symObjAddr: 0x24C4C, symBinAddr: 0x6BA6C, symSize: 0x58 }
  - { offset: 0x10ED06, size: 0x8, addend: 0x0, symName: __ZN3std2io5error14repr_bitpacked11decode_repr17h61864a3e30e49abfE, symObjAddr: 0x24CA4, symBinAddr: 0x6BAC4, symSize: 0x64 }
  - { offset: 0x10EDA9, size: 0x8, addend: 0x0, symName: '__ZN58_$LT$std..io..error..Error$u20$as$u20$core..fmt..Debug$GT$3fmt17h8bf91d1757b352fdE', symObjAddr: 0x24D08, symBinAddr: 0x6BB28, symSize: 0x10 }
  - { offset: 0x10EDC9, size: 0x8, addend: 0x0, symName: '__ZN96_$LT$std..io..error..Error$u20$as$u20$core..convert..From$LT$alloc..ffi..c_str..NulError$GT$$GT$4from17h3bdf74734a2b5af8E', symObjAddr: 0x24D18, symBinAddr: 0x6BB38, symSize: 0x2C }
  - { offset: 0x10EDE6, size: 0x8, addend: 0x0, symName: '__ZN96_$LT$std..io..error..Error$u20$as$u20$core..convert..From$LT$alloc..ffi..c_str..NulError$GT$$GT$4from17h3bdf74734a2b5af8E', symObjAddr: 0x24D18, symBinAddr: 0x6BB38, symSize: 0x2C }
  - { offset: 0x10EDFA, size: 0x8, addend: 0x0, symName: '__ZN96_$LT$std..io..error..Error$u20$as$u20$core..convert..From$LT$alloc..ffi..c_str..NulError$GT$$GT$4from17h3bdf74734a2b5af8E', symObjAddr: 0x24D18, symBinAddr: 0x6BB38, symSize: 0x2C }
  - { offset: 0x10EE7F, size: 0x8, addend: 0x0, symName: '__ZN104_$LT$std..io..error..Error$u20$as$u20$core..convert..From$LT$alloc..collections..TryReserveError$GT$$GT$4from17h711c115f3f93aab3E', symObjAddr: 0x24D44, symBinAddr: 0x6BB64, symSize: 0x18 }
  - { offset: 0x10EEB3, size: 0x8, addend: 0x0, symName: '__ZN64_$LT$std..io..error..ErrorKind$u20$as$u20$core..fmt..Display$GT$3fmt17hddd422a0ecfef250E', symObjAddr: 0x24D5C, symBinAddr: 0x6BB7C, symSize: 0x34 }
  - { offset: 0x10EEFD, size: 0x8, addend: 0x0, symName: '__ZN3std2io5error83_$LT$impl$u20$core..fmt..Debug$u20$for$u20$std..io..error..repr_bitpacked..Repr$GT$3fmt17h5a95a85f37e3c23bE', symObjAddr: 0x24FC0, symBinAddr: 0x6BDE0, symSize: 0x294 }
  - { offset: 0x10F148, size: 0x8, addend: 0x0, symName: '__ZN60_$LT$std..io..error..Error$u20$as$u20$core..fmt..Display$GT$3fmt17hf6832004bfff0787E', symObjAddr: 0x25254, symBinAddr: 0x6C074, symSize: 0x204 }
  - { offset: 0x10F3A5, size: 0x8, addend: 0x0, symName: '__ZN60_$LT$std..io..error..Error$u20$as$u20$core..error..Error$GT$11description17hb3150e6eefe42711E', symObjAddr: 0x25458, symBinAddr: 0x6C278, symSize: 0x8C }
  - { offset: 0x10F42F, size: 0x8, addend: 0x0, symName: '__ZN60_$LT$std..io..error..Error$u20$as$u20$core..error..Error$GT$5cause17hf96e89352a6620cdE', symObjAddr: 0x254E4, symBinAddr: 0x6C304, symSize: 0x38 }
  - { offset: 0x10F44D, size: 0x8, addend: 0x0, symName: '__ZN60_$LT$std..io..error..Error$u20$as$u20$core..error..Error$GT$5cause17hf96e89352a6620cdE', symObjAddr: 0x254E4, symBinAddr: 0x6C304, symSize: 0x38 }
  - { offset: 0x10F475, size: 0x8, addend: 0x0, symName: '__ZN60_$LT$std..io..error..Error$u20$as$u20$core..error..Error$GT$6source17h9312daf3ac3f4260E', symObjAddr: 0x2551C, symBinAddr: 0x6C33C, symSize: 0x38 }
  - { offset: 0x10F493, size: 0x8, addend: 0x0, symName: '__ZN60_$LT$std..io..error..Error$u20$as$u20$core..error..Error$GT$6source17h9312daf3ac3f4260E', symObjAddr: 0x2551C, symBinAddr: 0x6C33C, symSize: 0x38 }
  - { offset: 0x10F4C1, size: 0x8, addend: 0x0, symName: '__ZN62_$LT$std..io..error..ErrorKind$u20$as$u20$core..fmt..Debug$GT$3fmt17hb4e443c8fdea1addE', symObjAddr: 0x39938, symBinAddr: 0x7FCA4, symSize: 0x34 }
  - { offset: 0x10F540, size: 0x8, addend: 0x0, symName: '__ZN80_$LT$std..io..Write..write_fmt..Adapter$LT$T$GT$$u20$as$u20$core..fmt..Write$GT$9write_str17h4e3a703fbc391c88E', symObjAddr: 0x2ABFC, symBinAddr: 0x71A1C, symSize: 0x50 }
  - { offset: 0x10F56A, size: 0x8, addend: 0x0, symName: '__ZN80_$LT$std..io..Write..write_fmt..Adapter$LT$T$GT$$u20$as$u20$core..fmt..Write$GT$9write_str17h99ff46d68fae9060E', symObjAddr: 0x2AC4C, symBinAddr: 0x71A6C, symSize: 0xD4 }
  - { offset: 0x10F6A8, size: 0x8, addend: 0x0, symName: '__ZN80_$LT$std..io..Write..write_fmt..Adapter$LT$T$GT$$u20$as$u20$core..fmt..Write$GT$9write_str17hb40acde172c4080dE', symObjAddr: 0x2AD20, symBinAddr: 0x71B40, symSize: 0x80 }
  - { offset: 0x10F7F4, size: 0x8, addend: 0x0, symName: '__ZN80_$LT$std..io..Write..write_fmt..Adapter$LT$T$GT$$u20$as$u20$core..fmt..Write$GT$9write_str17hccd0b6fc5be13c44E', symObjAddr: 0x2ADA0, symBinAddr: 0x71BC0, symSize: 0x50 }
  - { offset: 0x10F81E, size: 0x8, addend: 0x0, symName: '__ZN80_$LT$std..io..Write..write_fmt..Adapter$LT$T$GT$$u20$as$u20$core..fmt..Write$GT$9write_str17hfa3cc98e01093c8dE', symObjAddr: 0x2ADF0, symBinAddr: 0x71C10, symSize: 0xD4 }
  - { offset: 0x10F9C0, size: 0x8, addend: 0x0, symName: __ZN3std2io5Write18write_all_vectored17hdae03fff64c0bf59E, symObjAddr: 0x2A7F8, symBinAddr: 0x71618, symSize: 0x1BC }
  - { offset: 0x10FCA8, size: 0x8, addend: 0x0, symName: __ZN3std2io5Write9write_fmt17h75af97148630d8d3E, symObjAddr: 0x2A9B4, symBinAddr: 0x717D4, symSize: 0x124 }
  - { offset: 0x10FEE6, size: 0x8, addend: 0x0, symName: __ZN3std2io5Write9write_fmt17h9610cdd27cd3672cE, symObjAddr: 0x2AAD8, symBinAddr: 0x718F8, symSize: 0x124 }
  - { offset: 0x110185, size: 0x8, addend: 0x0, symName: '__ZN3std2io5impls83_$LT$impl$u20$std..io..Write$u20$for$u20$core..io..borrowed_buf..BorrowedCursor$GT$5write17he304c4a96d16e78dE', symObjAddr: 0x25554, symBinAddr: 0x6C374, symSize: 0x58 }
  - { offset: 0x110332, size: 0x8, addend: 0x0, symName: __ZN3std2io8buffered9bufreader6buffer6Buffer9backshift17hd61e5f00ca8899a5E, symObjAddr: 0x23D0C, symBinAddr: 0x6AD44, symSize: 0x58 }
  - { offset: 0x110594, size: 0x8, addend: 0x0, symName: '__ZN82_$LT$std..io..buffered..bufreader..BufReader$LT$R$GT$$u20$as$u20$std..io..Read$GT$4read17hb98662383eab68f8E', symObjAddr: 0x23D64, symBinAddr: 0x6AD9C, symSize: 0x1B0 }
  - { offset: 0x110977, size: 0x8, addend: 0x0, symName: '__ZN82_$LT$std..io..buffered..bufreader..BufReader$LT$R$GT$$u20$as$u20$std..io..Read$GT$8read_buf17hb49c2ea41f7ae7aeE', symObjAddr: 0x23F14, symBinAddr: 0x6AF4C, symSize: 0x1B0 }
  - { offset: 0x110FB2, size: 0x8, addend: 0x0, symName: '__ZN82_$LT$std..io..buffered..bufreader..BufReader$LT$R$GT$$u20$as$u20$std..io..Read$GT$11read_to_end17hd33ccd3b46de5a30E', symObjAddr: 0x240C4, symBinAddr: 0x6B0FC, symSize: 0x15C }
  - { offset: 0x111358, size: 0x8, addend: 0x0, symName: '__ZN3std2io8buffered9bufwriter18BufWriter$LT$W$GT$9flush_buf17h8caf5baab3909c0eE', symObjAddr: 0x24220, symBinAddr: 0x6B258, symSize: 0x204 }
  - { offset: 0x1118B6, size: 0x8, addend: 0x0, symName: '__ZN3std2io8buffered9bufwriter18BufWriter$LT$W$GT$10write_cold17hb2cd0c49dfbb647bE', symObjAddr: 0x244B8, symBinAddr: 0xCFF6C, symSize: 0xF8 }
  - { offset: 0x111B0D, size: 0x8, addend: 0x0, symName: '__ZN3std2io8buffered9bufwriter18BufWriter$LT$W$GT$14write_all_cold17h5452cfd42e3caf48E', symObjAddr: 0x245B0, symBinAddr: 0xD0064, symSize: 0x120 }
  - { offset: 0x111DFB, size: 0x8, addend: 0x0, symName: '__ZN111_$LT$std..io..buffered..bufwriter..BufWriter$LT$W$GT$..flush_buf..BufGuard$u20$as$u20$core..ops..drop..Drop$GT$4drop17h69591a2c9f0cb0b2E', symObjAddr: 0x24458, symBinAddr: 0x6B490, symSize: 0x60 }
  - { offset: 0x111FB1, size: 0x8, addend: 0x0, symName: '__ZN3std2io8buffered9bufwriter18BufWriter$LT$W$GT$9flush_buf8BufGuard9remaining17hc0b18bfe3e00374bE', symObjAddr: 0x24424, symBinAddr: 0x6B45C, symSize: 0x34 }
  - { offset: 0x112060, size: 0x8, addend: 0x0, symName: '__ZN83_$LT$std..io..buffered..bufwriter..WriterPanicked$u20$as$u20$core..fmt..Display$GT$3fmt17h0ad0299d24e2616eE', symObjAddr: 0x246D0, symBinAddr: 0x6B4F0, symSize: 0x54 }
  - { offset: 0x1120AC, size: 0x8, addend: 0x0, symName: '__ZN81_$LT$std..io..buffered..bufwriter..WriterPanicked$u20$as$u20$core..fmt..Debug$GT$3fmt17ha1177804a1855087E', symObjAddr: 0x24724, symBinAddr: 0x6B544, symSize: 0xA4 }
  - { offset: 0x112231, size: 0x8, addend: 0x0, symName: '__ZN93_$LT$std..io..buffered..linewritershim..LineWriterShim$LT$W$GT$$u20$as$u20$std..io..Write$GT$14write_vectored17hed0aef1b26992b91E', symObjAddr: 0x247C8, symBinAddr: 0x6B5E8, symSize: 0x45C }
  - { offset: 0x112B22, size: 0x8, addend: 0x0, symName: '__ZN58_$LT$std..io..stdio..StdinRaw$u20$as$u20$std..io..Read$GT$4read17h387e37e377cba61dE', symObjAddr: 0x255AC, symBinAddr: 0x6C3CC, symSize: 0x74 }
  - { offset: 0x112C20, size: 0x8, addend: 0x0, symName: '__ZN58_$LT$std..io..stdio..StdinRaw$u20$as$u20$std..io..Read$GT$8read_buf17h552ce8e9bdc47091E', symObjAddr: 0x25620, symBinAddr: 0x6C440, symSize: 0x88 }
  - { offset: 0x112DF8, size: 0x8, addend: 0x0, symName: '__ZN58_$LT$std..io..stdio..StdinRaw$u20$as$u20$std..io..Read$GT$13read_vectored17hc60583448e868c88E', symObjAddr: 0x256A8, symBinAddr: 0x6C4C8, symSize: 0x74 }
  - { offset: 0x112EF6, size: 0x8, addend: 0x0, symName: '__ZN58_$LT$std..io..stdio..StdinRaw$u20$as$u20$std..io..Read$GT$11read_to_end17h9cc78a1ef7a3dbd8E', symObjAddr: 0x2571C, symBinAddr: 0x6C53C, symSize: 0x44 }
  - { offset: 0x112F33, size: 0x8, addend: 0x0, symName: '__ZN58_$LT$std..io..stdio..StdinRaw$u20$as$u20$std..io..Read$GT$14read_to_string17he2edb8a3a26005d3E', symObjAddr: 0x25760, symBinAddr: 0x6C580, symSize: 0xE0 }
  - { offset: 0x1131C4, size: 0x8, addend: 0x0, symName: '__ZN60_$LT$std..io..stdio..StdoutRaw$u20$as$u20$std..io..Write$GT$5write17h6d80a2315418ce1aE', symObjAddr: 0x25840, symBinAddr: 0x6C660, symSize: 0x7C }
  - { offset: 0x1132C4, size: 0x8, addend: 0x0, symName: '__ZN60_$LT$std..io..stdio..StdoutRaw$u20$as$u20$std..io..Write$GT$14write_vectored17h820c5dfe52b6cdbbE', symObjAddr: 0x258BC, symBinAddr: 0x6C6DC, symSize: 0x100 }
  - { offset: 0x113416, size: 0x8, addend: 0x0, symName: '__ZN60_$LT$std..io..stdio..StdoutRaw$u20$as$u20$std..io..Write$GT$9write_all17hf87f9c7cee071567E', symObjAddr: 0x259BC, symBinAddr: 0x6C7DC, symSize: 0xB8 }
  - { offset: 0x113552, size: 0x8, addend: 0x0, symName: '__ZN60_$LT$std..io..stdio..StdoutRaw$u20$as$u20$std..io..Write$GT$18write_all_vectored17h5d9248b4edae636aE', symObjAddr: 0x25A74, symBinAddr: 0x6C894, symSize: 0x1CC }
  - { offset: 0x11385A, size: 0x8, addend: 0x0, symName: '__ZN60_$LT$std..io..stdio..StdoutRaw$u20$as$u20$std..io..Write$GT$9write_fmt17hb957db6ba19087cbE', symObjAddr: 0x25C40, symBinAddr: 0x6CA60, symSize: 0x134 }
  - { offset: 0x113ACB, size: 0x8, addend: 0x0, symName: '__ZN60_$LT$std..io..stdio..StderrRaw$u20$as$u20$std..io..Write$GT$5write17h85aaae0f35548c00E', symObjAddr: 0x25D74, symBinAddr: 0x6CB94, symSize: 0x7C }
  - { offset: 0x113BDE, size: 0x8, addend: 0x0, symName: '__ZN60_$LT$std..io..stdio..StderrRaw$u20$as$u20$std..io..Write$GT$14write_vectored17hd78174db8fc147a4E', symObjAddr: 0x25DF0, symBinAddr: 0x6CC10, symSize: 0x100 }
  - { offset: 0x113D30, size: 0x8, addend: 0x0, symName: '__ZN60_$LT$std..io..stdio..StderrRaw$u20$as$u20$std..io..Write$GT$5flush17h68ff36f973374809E', symObjAddr: 0x25EF0, symBinAddr: 0x6CD10, symSize: 0x14 }
  - { offset: 0x113D4A, size: 0x8, addend: 0x0, symName: '__ZN60_$LT$std..io..stdio..StderrRaw$u20$as$u20$std..io..Write$GT$9write_all17h9d5354f74368a8c1E', symObjAddr: 0x25F04, symBinAddr: 0x6CD24, symSize: 0xB8 }
  - { offset: 0x113E86, size: 0x8, addend: 0x0, symName: '__ZN60_$LT$std..io..stdio..StderrRaw$u20$as$u20$std..io..Write$GT$18write_all_vectored17hd4d446d85c5d3c9aE', symObjAddr: 0x25FBC, symBinAddr: 0x6CDDC, symSize: 0x28 }
  - { offset: 0x113EAF, size: 0x8, addend: 0x0, symName: '__ZN60_$LT$std..io..stdio..StderrRaw$u20$as$u20$std..io..Write$GT$9write_fmt17h1f221e18c2a1037cE', symObjAddr: 0x25FE4, symBinAddr: 0x6CE04, symSize: 0x28 }
  - { offset: 0x113F20, size: 0x8, addend: 0x0, symName: __ZN3std2io5stdio5stdin17h35bb502fde595575E, symObjAddr: 0x2600C, symBinAddr: 0x6CE2C, symSize: 0x3C }
  - { offset: 0x113F58, size: 0x8, addend: 0x0, symName: __ZN3std2io5stdio5stdin17h35bb502fde595575E, symObjAddr: 0x2600C, symBinAddr: 0x6CE2C, symSize: 0x3C }
  - { offset: 0x113F6D, size: 0x8, addend: 0x0, symName: __ZN3std2io5stdio5stdin17h35bb502fde595575E, symObjAddr: 0x2600C, symBinAddr: 0x6CE2C, symSize: 0x3C }
  - { offset: 0x113F81, size: 0x8, addend: 0x0, symName: __ZN3std2io5stdio5stdin17h35bb502fde595575E, symObjAddr: 0x2600C, symBinAddr: 0x6CE2C, symSize: 0x3C }
  - { offset: 0x113F96, size: 0x8, addend: 0x0, symName: __ZN3std2io5stdio5stdin17h35bb502fde595575E, symObjAddr: 0x2600C, symBinAddr: 0x6CE2C, symSize: 0x3C }
  - { offset: 0x113FAB, size: 0x8, addend: 0x0, symName: __ZN3std2io5stdio5stdin17h35bb502fde595575E, symObjAddr: 0x2600C, symBinAddr: 0x6CE2C, symSize: 0x3C }
  - { offset: 0x113FBF, size: 0x8, addend: 0x0, symName: __ZN3std2io5stdio5stdin17h35bb502fde595575E, symObjAddr: 0x2600C, symBinAddr: 0x6CE2C, symSize: 0x3C }
  - { offset: 0x113FDE, size: 0x8, addend: 0x0, symName: __ZN3std2io5stdio5Stdin4lock17ha4e0539eb022067cE, symObjAddr: 0x26048, symBinAddr: 0x6CE68, symSize: 0x68 }
  - { offset: 0x114124, size: 0x8, addend: 0x0, symName: __ZN3std2io5stdio5Stdin9read_line17h0c6bd250cfaf5e45E, symObjAddr: 0x260B0, symBinAddr: 0x6CED0, symSize: 0x15C }
  - { offset: 0x1145A9, size: 0x8, addend: 0x0, symName: __ZN3std2io5stdio5Stdin5lines17h59cbd7fe24270455E, symObjAddr: 0x2620C, symBinAddr: 0x6D02C, symSize: 0x68 }
  - { offset: 0x11470A, size: 0x8, addend: 0x0, symName: '__ZN62_$LT$std..io..stdio..StdinLock$u20$as$u20$std..io..BufRead$GT$8fill_buf17ha03984886177e0b8E', symObjAddr: 0x27698, symBinAddr: 0x6E4B8, symSize: 0xD0 }
  - { offset: 0x11491E, size: 0x8, addend: 0x0, symName: '__ZN62_$LT$std..io..stdio..StdinLock$u20$as$u20$std..io..BufRead$GT$7consume17hac69548ccca8fcacE', symObjAddr: 0x27768, symBinAddr: 0x6E588, symSize: 0x28 }
  - { offset: 0x1149BB, size: 0x8, addend: 0x0, symName: '__ZN62_$LT$std..io..stdio..StdinLock$u20$as$u20$std..io..BufRead$GT$10read_until17ha39fa5e38bb78c4cE', symObjAddr: 0x27790, symBinAddr: 0x6E5B0, symSize: 0x18 }
  - { offset: 0x114A17, size: 0x8, addend: 0x0, symName: '__ZN62_$LT$std..io..stdio..StdinLock$u20$as$u20$std..io..BufRead$GT$9read_line17h2dc1e74edb12761cE', symObjAddr: 0x277A8, symBinAddr: 0x6E5C8, symSize: 0xC0 }
  - { offset: 0x114C43, size: 0x8, addend: 0x0, symName: '__ZN58_$LT$std..io..stdio..Stdin$u20$as$u20$core..fmt..Debug$GT$3fmt17h18506d32217dd156E', symObjAddr: 0x26274, symBinAddr: 0x6D094, symSize: 0x38 }
  - { offset: 0x114C8E, size: 0x8, addend: 0x0, symName: '__ZN59_$LT$std..io..stdio..StdinLock$u20$as$u20$std..io..Read$GT$4read17h6b490506125ae8cbE', symObjAddr: 0x26EF8, symBinAddr: 0x6DD18, symSize: 0x18 }
  - { offset: 0x114CCE, size: 0x8, addend: 0x0, symName: '__ZN59_$LT$std..io..stdio..StdinLock$u20$as$u20$std..io..Read$GT$8read_buf17h8f9b5467f999e3daE', symObjAddr: 0x26F10, symBinAddr: 0x6DD30, symSize: 0x18 }
  - { offset: 0x114D0E, size: 0x8, addend: 0x0, symName: '__ZN59_$LT$std..io..stdio..StdinLock$u20$as$u20$std..io..Read$GT$13read_vectored17hbc7d58e4612f164aE', symObjAddr: 0x26F28, symBinAddr: 0x6DD48, symSize: 0x284 }
  - { offset: 0x115223, size: 0x8, addend: 0x0, symName: '__ZN59_$LT$std..io..stdio..StdinLock$u20$as$u20$std..io..Read$GT$11read_to_end17h3e8246cdb665890bE', symObjAddr: 0x271AC, symBinAddr: 0x6DFCC, symSize: 0x18 }
  - { offset: 0x115263, size: 0x8, addend: 0x0, symName: '__ZN59_$LT$std..io..stdio..StdinLock$u20$as$u20$std..io..Read$GT$14read_to_string17h654ac4f98cdc5becE', symObjAddr: 0x271C4, symBinAddr: 0x6DFE4, symSize: 0x1B4 }
  - { offset: 0x115814, size: 0x8, addend: 0x0, symName: '__ZN59_$LT$std..io..stdio..StdinLock$u20$as$u20$std..io..Read$GT$10read_exact17h7f1bef035b9584e8E', symObjAddr: 0x27378, symBinAddr: 0x6E198, symSize: 0x194 }
  - { offset: 0x115BF7, size: 0x8, addend: 0x0, symName: '__ZN59_$LT$std..io..stdio..StdinLock$u20$as$u20$std..io..Read$GT$14read_buf_exact17h158cfdefe25dc32dE', symObjAddr: 0x2750C, symBinAddr: 0x6E32C, symSize: 0x18C }
  - { offset: 0x1160CC, size: 0x8, addend: 0x0, symName: '__ZN55_$LT$std..io..stdio..Stdin$u20$as$u20$std..io..Read$GT$4read17hee660d4ff490e299E', symObjAddr: 0x262AC, symBinAddr: 0x6D0CC, symSize: 0xF0 }
  - { offset: 0x11633D, size: 0x8, addend: 0x0, symName: '__ZN55_$LT$std..io..stdio..Stdin$u20$as$u20$std..io..Read$GT$8read_buf17hae8d40d6ce62b485E', symObjAddr: 0x2639C, symBinAddr: 0x6D1BC, symSize: 0xD0 }
  - { offset: 0x1165AE, size: 0x8, addend: 0x0, symName: '__ZN55_$LT$std..io..stdio..Stdin$u20$as$u20$std..io..Read$GT$13read_vectored17hea240284dfd9c325E', symObjAddr: 0x2646C, symBinAddr: 0x6D28C, symSize: 0xD8 }
  - { offset: 0x11681B, size: 0x8, addend: 0x0, symName: '__ZN55_$LT$std..io..stdio..Stdin$u20$as$u20$std..io..Read$GT$11read_to_end17h3066023e07621165E', symObjAddr: 0x26544, symBinAddr: 0x6D364, symSize: 0xD8 }
  - { offset: 0x116AC9, size: 0x8, addend: 0x0, symName: '__ZN55_$LT$std..io..stdio..Stdin$u20$as$u20$std..io..Read$GT$14read_to_string17h84dedb3c483f10b6E', symObjAddr: 0x2661C, symBinAddr: 0x6D43C, symSize: 0xE8 }
  - { offset: 0x116D36, size: 0x8, addend: 0x0, symName: '__ZN55_$LT$std..io..stdio..Stdin$u20$as$u20$std..io..Read$GT$10read_exact17h9bedca47acee2b71E', symObjAddr: 0x26704, symBinAddr: 0x6D524, symSize: 0xE8 }
  - { offset: 0x116FA3, size: 0x8, addend: 0x0, symName: '__ZN55_$LT$std..io..stdio..Stdin$u20$as$u20$std..io..Read$GT$14read_buf_exact17h87765d806fbabebaE', symObjAddr: 0x267EC, symBinAddr: 0x6D60C, symSize: 0xD8 }
  - { offset: 0x117216, size: 0x8, addend: 0x0, symName: '__ZN59_$LT$$RF$std..io..stdio..Stdin$u20$as$u20$std..io..Read$GT$4read17hf096518c72d5cc56E', symObjAddr: 0x268C4, symBinAddr: 0x6D6E4, symSize: 0xF4 }
  - { offset: 0x117487, size: 0x8, addend: 0x0, symName: '__ZN59_$LT$$RF$std..io..stdio..Stdin$u20$as$u20$std..io..Read$GT$8read_buf17he112e687fad55dd9E', symObjAddr: 0x269B8, symBinAddr: 0x6D7D8, symSize: 0xD4 }
  - { offset: 0x1176F8, size: 0x8, addend: 0x0, symName: '__ZN59_$LT$$RF$std..io..stdio..Stdin$u20$as$u20$std..io..Read$GT$13read_vectored17hf7fb5277fb2e0819E', symObjAddr: 0x26A8C, symBinAddr: 0x6D8AC, symSize: 0xDC }
  - { offset: 0x117965, size: 0x8, addend: 0x0, symName: '__ZN59_$LT$$RF$std..io..stdio..Stdin$u20$as$u20$std..io..Read$GT$11read_to_end17h615809d91a599e28E', symObjAddr: 0x26B68, symBinAddr: 0x6D988, symSize: 0xDC }
  - { offset: 0x117C13, size: 0x8, addend: 0x0, symName: '__ZN59_$LT$$RF$std..io..stdio..Stdin$u20$as$u20$std..io..Read$GT$14read_to_string17hbb05555b83851c99E', symObjAddr: 0x26C44, symBinAddr: 0x6DA64, symSize: 0xEC }
  - { offset: 0x117E80, size: 0x8, addend: 0x0, symName: '__ZN59_$LT$$RF$std..io..stdio..Stdin$u20$as$u20$std..io..Read$GT$10read_exact17hfc3057923c143f9cE', symObjAddr: 0x26D30, symBinAddr: 0x6DB50, symSize: 0xEC }
  - { offset: 0x1180ED, size: 0x8, addend: 0x0, symName: '__ZN59_$LT$$RF$std..io..stdio..Stdin$u20$as$u20$std..io..Read$GT$14read_buf_exact17h518c2f93d17d5b8cE', symObjAddr: 0x26E1C, symBinAddr: 0x6DC3C, symSize: 0xDC }
  - { offset: 0x118360, size: 0x8, addend: 0x0, symName: '__ZN62_$LT$std..io..stdio..StdinLock$u20$as$u20$core..fmt..Debug$GT$3fmt17he9ac930417d3455dE', symObjAddr: 0x27868, symBinAddr: 0x6E688, symSize: 0x38 }
  - { offset: 0x11837C, size: 0x8, addend: 0x0, symName: __ZN3std2io5stdio6stdout17h0ff45a09ed3da47aE, symObjAddr: 0x278A0, symBinAddr: 0x6E6C0, symSize: 0x3C }
  - { offset: 0x1183AD, size: 0x8, addend: 0x0, symName: __ZN3std2io5stdio6stdout17h0ff45a09ed3da47aE, symObjAddr: 0x278A0, symBinAddr: 0x6E6C0, symSize: 0x3C }
  - { offset: 0x1183C2, size: 0x8, addend: 0x0, symName: __ZN3std2io5stdio6stdout17h0ff45a09ed3da47aE, symObjAddr: 0x278A0, symBinAddr: 0x6E6C0, symSize: 0x3C }
  - { offset: 0x1183D6, size: 0x8, addend: 0x0, symName: __ZN3std2io5stdio6stdout17h0ff45a09ed3da47aE, symObjAddr: 0x278A0, symBinAddr: 0x6E6C0, symSize: 0x3C }
  - { offset: 0x1183EB, size: 0x8, addend: 0x0, symName: __ZN3std2io5stdio6stdout17h0ff45a09ed3da47aE, symObjAddr: 0x278A0, symBinAddr: 0x6E6C0, symSize: 0x3C }
  - { offset: 0x118400, size: 0x8, addend: 0x0, symName: __ZN3std2io5stdio6stdout17h0ff45a09ed3da47aE, symObjAddr: 0x278A0, symBinAddr: 0x6E6C0, symSize: 0x3C }
  - { offset: 0x118414, size: 0x8, addend: 0x0, symName: __ZN3std2io5stdio6stdout17h0ff45a09ed3da47aE, symObjAddr: 0x278A0, symBinAddr: 0x6E6C0, symSize: 0x3C }
  - { offset: 0x118433, size: 0x8, addend: 0x0, symName: '__ZN59_$LT$std..io..stdio..Stdout$u20$as$u20$core..fmt..Debug$GT$3fmt17h1e4064b9fefd85d1E', symObjAddr: 0x278DC, symBinAddr: 0x6E6FC, symSize: 0x38 }
  - { offset: 0x11847E, size: 0x8, addend: 0x0, symName: '__ZN61_$LT$$RF$std..io..stdio..Stdout$u20$as$u20$std..io..Write$GT$5write17h497d5ec05727f18eE', symObjAddr: 0x27B5C, symBinAddr: 0x6E97C, symSize: 0xA8 }
  - { offset: 0x11866B, size: 0x8, addend: 0x0, symName: '__ZN61_$LT$$RF$std..io..stdio..Stdout$u20$as$u20$std..io..Write$GT$14write_vectored17hede7d3936fce79b2E', symObjAddr: 0x27C04, symBinAddr: 0x6EA24, symSize: 0xDC }
  - { offset: 0x118A99, size: 0x8, addend: 0x0, symName: '__ZN61_$LT$$RF$std..io..stdio..Stdout$u20$as$u20$std..io..Write$GT$5flush17h0985c76f4a38abafE', symObjAddr: 0x27CE0, symBinAddr: 0x6EB00, symSize: 0xBC }
  - { offset: 0x118EDC, size: 0x8, addend: 0x0, symName: '__ZN61_$LT$$RF$std..io..stdio..Stdout$u20$as$u20$std..io..Write$GT$9write_all17haa15cea697b461d7E', symObjAddr: 0x27D9C, symBinAddr: 0x6EBBC, symSize: 0xA0 }
  - { offset: 0x1190C9, size: 0x8, addend: 0x0, symName: '__ZN61_$LT$$RF$std..io..stdio..Stdout$u20$as$u20$std..io..Write$GT$18write_all_vectored17h939b3811c333e049E', symObjAddr: 0x27E3C, symBinAddr: 0x6EC5C, symSize: 0xA0 }
  - { offset: 0x1192B6, size: 0x8, addend: 0x0, symName: '__ZN61_$LT$$RF$std..io..stdio..Stdout$u20$as$u20$std..io..Write$GT$9write_fmt17h952563a5eefc7f25E', symObjAddr: 0x27EDC, symBinAddr: 0x6ECFC, symSize: 0x18C }
  - { offset: 0x1196C8, size: 0x8, addend: 0x0, symName: '__ZN57_$LT$std..io..stdio..Stdout$u20$as$u20$std..io..Write$GT$5write17h35f6effde5df7a9cE', symObjAddr: 0x27914, symBinAddr: 0x6E734, symSize: 0xA4 }
  - { offset: 0x1198CA, size: 0x8, addend: 0x0, symName: '__ZN57_$LT$std..io..stdio..Stdout$u20$as$u20$std..io..Write$GT$14write_vectored17he302611c0b728527E', symObjAddr: 0x279B8, symBinAddr: 0x6E7D8, symSize: 0x24 }
  - { offset: 0x1198E5, size: 0x8, addend: 0x0, symName: '__ZN57_$LT$std..io..stdio..Stdout$u20$as$u20$std..io..Write$GT$5flush17h7d3e849ee1db19bcE', symObjAddr: 0x279DC, symBinAddr: 0x6E7FC, symSize: 0x24 }
  - { offset: 0x119900, size: 0x8, addend: 0x0, symName: '__ZN57_$LT$std..io..stdio..Stdout$u20$as$u20$std..io..Write$GT$9write_all17he35cb3e82310f3d6E', symObjAddr: 0x27A00, symBinAddr: 0x6E820, symSize: 0x9C }
  - { offset: 0x119B02, size: 0x8, addend: 0x0, symName: '__ZN57_$LT$std..io..stdio..Stdout$u20$as$u20$std..io..Write$GT$18write_all_vectored17ha50c9e2cc6870a23E', symObjAddr: 0x27A9C, symBinAddr: 0x6E8BC, symSize: 0x9C }
  - { offset: 0x119D04, size: 0x8, addend: 0x0, symName: '__ZN57_$LT$std..io..stdio..Stdout$u20$as$u20$std..io..Write$GT$9write_fmt17h60fe04718020a3a8E', symObjAddr: 0x27B38, symBinAddr: 0x6E958, symSize: 0x24 }
  - { offset: 0x119D48, size: 0x8, addend: 0x0, symName: '__ZN61_$LT$std..io..stdio..StdoutLock$u20$as$u20$std..io..Write$GT$5write17h8402da5d90828be8E', symObjAddr: 0x28068, symBinAddr: 0x6EE88, symSize: 0x25C }
  - { offset: 0x11A56F, size: 0x8, addend: 0x0, symName: '__ZN61_$LT$std..io..stdio..StdoutLock$u20$as$u20$std..io..Write$GT$14write_vectored17h244e66b61a65bc86E', symObjAddr: 0x282C4, symBinAddr: 0x6F0E4, symSize: 0x5C }
  - { offset: 0x11A7C5, size: 0x8, addend: 0x0, symName: '__ZN61_$LT$std..io..stdio..StdoutLock$u20$as$u20$std..io..Write$GT$5flush17hd24afb935d02ca55E', symObjAddr: 0x28320, symBinAddr: 0x6F140, symSize: 0x5C }
  - { offset: 0x11AA30, size: 0x8, addend: 0x0, symName: '__ZN61_$LT$std..io..stdio..StdoutLock$u20$as$u20$std..io..Write$GT$9write_all17h0b23f87059158e4bE', symObjAddr: 0x2837C, symBinAddr: 0x6F19C, symSize: 0x258 }
  - { offset: 0x11B0E8, size: 0x8, addend: 0x0, symName: '__ZN61_$LT$std..io..stdio..StdoutLock$u20$as$u20$std..io..Write$GT$18write_all_vectored17h7c37768515a10ae7E', symObjAddr: 0x285D4, symBinAddr: 0x6F3F4, symSize: 0x2D8 }
  - { offset: 0x11B7A7, size: 0x8, addend: 0x0, symName: '__ZN63_$LT$std..io..stdio..StdoutLock$u20$as$u20$core..fmt..Debug$GT$3fmt17h14ce944173123ce0E', symObjAddr: 0x288AC, symBinAddr: 0x6F6CC, symSize: 0x38 }
  - { offset: 0x11B7C8, size: 0x8, addend: 0x0, symName: __ZN3std2io5stdio6Stderr4lock17ha3df19dd37ed7051E, symObjAddr: 0x288E4, symBinAddr: 0x6F704, symSize: 0xF0 }
  - { offset: 0x11BA49, size: 0x8, addend: 0x0, symName: '__ZN59_$LT$std..io..stdio..Stderr$u20$as$u20$core..fmt..Debug$GT$3fmt17hd2de10d061b1a8a6E', symObjAddr: 0x289D4, symBinAddr: 0x6F7F4, symSize: 0x38 }
  - { offset: 0x11BA6A, size: 0x8, addend: 0x0, symName: '__ZN57_$LT$std..io..stdio..Stderr$u20$as$u20$std..io..Write$GT$5write17h2900f0f33eff241eE', symObjAddr: 0x28A0C, symBinAddr: 0x6F82C, symSize: 0x24 }
  - { offset: 0x11BA85, size: 0x8, addend: 0x0, symName: '__ZN57_$LT$std..io..stdio..Stderr$u20$as$u20$std..io..Write$GT$14write_vectored17hde43835ab455c89bE', symObjAddr: 0x28A30, symBinAddr: 0x6F850, symSize: 0x24 }
  - { offset: 0x11BAA0, size: 0x8, addend: 0x0, symName: '__ZN57_$LT$std..io..stdio..Stderr$u20$as$u20$std..io..Write$GT$5flush17hea84fa6b8baec6e0E', symObjAddr: 0x28A54, symBinAddr: 0x6F874, symSize: 0x80 }
  - { offset: 0x11BCFF, size: 0x8, addend: 0x0, symName: '__ZN57_$LT$std..io..stdio..Stderr$u20$as$u20$std..io..Write$GT$9write_all17h2469b814dd58888eE', symObjAddr: 0x28AD4, symBinAddr: 0x6F8F4, symSize: 0x9C }
  - { offset: 0x11BF01, size: 0x8, addend: 0x0, symName: '__ZN57_$LT$std..io..stdio..Stderr$u20$as$u20$std..io..Write$GT$18write_all_vectored17h832c413a2a233ae4E', symObjAddr: 0x28B70, symBinAddr: 0x6F990, symSize: 0x24 }
  - { offset: 0x11BF1C, size: 0x8, addend: 0x0, symName: '__ZN57_$LT$std..io..stdio..Stderr$u20$as$u20$std..io..Write$GT$9write_fmt17h606a3fc755d6817aE', symObjAddr: 0x28B94, symBinAddr: 0x6F9B4, symSize: 0x24 }
  - { offset: 0x11BF60, size: 0x8, addend: 0x0, symName: '__ZN61_$LT$$RF$std..io..stdio..Stderr$u20$as$u20$std..io..Write$GT$5write17h357bbf13ec847584E', symObjAddr: 0x28BB8, symBinAddr: 0x6F9D8, symSize: 0x10C }
  - { offset: 0x11C3AF, size: 0x8, addend: 0x0, symName: '__ZN61_$LT$$RF$std..io..stdio..Stderr$u20$as$u20$std..io..Write$GT$14write_vectored17h29a66d029dfa7cc5E', symObjAddr: 0x28CC4, symBinAddr: 0x6FAE4, symSize: 0x190 }
  - { offset: 0x11C850, size: 0x8, addend: 0x0, symName: '__ZN61_$LT$$RF$std..io..stdio..Stderr$u20$as$u20$std..io..Write$GT$5flush17hd8877775a97ed460E', symObjAddr: 0x28E54, symBinAddr: 0x6FC74, symSize: 0x84 }
  - { offset: 0x11CA9A, size: 0x8, addend: 0x0, symName: '__ZN61_$LT$$RF$std..io..stdio..Stderr$u20$as$u20$std..io..Write$GT$9write_all17h30a49fac27e26b55E', symObjAddr: 0x28ED8, symBinAddr: 0x6FCF8, symSize: 0xA0 }
  - { offset: 0x11CC87, size: 0x8, addend: 0x0, symName: '__ZN61_$LT$$RF$std..io..stdio..Stderr$u20$as$u20$std..io..Write$GT$18write_all_vectored17h0331bbc9ec4046acE', symObjAddr: 0x28F78, symBinAddr: 0x6FD98, symSize: 0xE4 }
  - { offset: 0x11D0AD, size: 0x8, addend: 0x0, symName: '__ZN61_$LT$$RF$std..io..stdio..Stderr$u20$as$u20$std..io..Write$GT$9write_fmt17hb13653ece81c305cE', symObjAddr: 0x2905C, symBinAddr: 0x6FE7C, symSize: 0x18C }
  - { offset: 0x11D4F7, size: 0x8, addend: 0x0, symName: '__ZN61_$LT$std..io..stdio..StderrLock$u20$as$u20$std..io..Write$GT$5write17h8f94425c51e84efeE', symObjAddr: 0x291E8, symBinAddr: 0x70008, symSize: 0xA8 }
  - { offset: 0x11D776, size: 0x8, addend: 0x0, symName: '__ZN61_$LT$std..io..stdio..StderrLock$u20$as$u20$std..io..Write$GT$14write_vectored17h9746b7075a3a2496E', symObjAddr: 0x29290, symBinAddr: 0x700B0, symSize: 0x134 }
  - { offset: 0x11DA3F, size: 0x8, addend: 0x0, symName: '__ZN61_$LT$std..io..stdio..StderrLock$u20$as$u20$std..io..Write$GT$5flush17h6c834dc523fc3904E', symObjAddr: 0x293C4, symBinAddr: 0x701E4, symSize: 0x28 }
  - { offset: 0x11DA56, size: 0x8, addend: 0x0, symName: '__ZN61_$LT$std..io..stdio..StderrLock$u20$as$u20$std..io..Write$GT$5flush17h6c834dc523fc3904E', symObjAddr: 0x293C4, symBinAddr: 0x701E4, symSize: 0x28 }
  - { offset: 0x11DAB8, size: 0x8, addend: 0x0, symName: '__ZN61_$LT$std..io..stdio..StderrLock$u20$as$u20$std..io..Write$GT$9write_all17hbcb946b5e19e88f4E', symObjAddr: 0x293EC, symBinAddr: 0x7020C, symSize: 0x100 }
  - { offset: 0x11DE20, size: 0x8, addend: 0x0, symName: '__ZN61_$LT$std..io..stdio..StderrLock$u20$as$u20$std..io..Write$GT$18write_all_vectored17haa5d8ae884b9acf4E', symObjAddr: 0x294EC, symBinAddr: 0x7030C, symSize: 0x6C }
  - { offset: 0x11E07C, size: 0x8, addend: 0x0, symName: '__ZN63_$LT$std..io..stdio..StderrLock$u20$as$u20$core..fmt..Debug$GT$3fmt17hc9ca1b7f8693b83eE', symObjAddr: 0x29558, symBinAddr: 0x70378, symSize: 0x38 }
  - { offset: 0x11E0D3, size: 0x8, addend: 0x0, symName: __ZN3std2io5stdio18set_output_capture17hc31b5c53c6a020cfE, symObjAddr: 0x29590, symBinAddr: 0x703B0, symSize: 0x100 }
  - { offset: 0x11E35C, size: 0x8, addend: 0x0, symName: __ZN3std2io5stdio22try_set_output_capture17h6b911b9bf0ee8251E, symObjAddr: 0x29690, symBinAddr: 0x704B0, symSize: 0xF4 }
  - { offset: 0x11E5DA, size: 0x8, addend: 0x0, symName: __ZN3std2io5stdio31print_to_buffer_if_capture_used17h4f9af32139a0ca49E, symObjAddr: 0x29784, symBinAddr: 0x705A4, symSize: 0x208 }
  - { offset: 0x11ECCA, size: 0x8, addend: 0x0, symName: __ZN3std2io5stdio23attempt_print_to_stderr17h594e6b3929eeb5c4E, symObjAddr: 0x2998C, symBinAddr: 0x707AC, symSize: 0xD0 }
  - { offset: 0x11EEF3, size: 0x8, addend: 0x0, symName: __ZN3std2io5stdio6_print17h94312bde6bc5c430E, symObjAddr: 0x29A5C, symBinAddr: 0x7087C, symSize: 0xE4 }
  - { offset: 0x11EFF8, size: 0x8, addend: 0x0, symName: __ZN3std2io5stdio7_eprint17h3b10a1f297042c6eE, symObjAddr: 0x29B40, symBinAddr: 0x70960, symSize: 0xC8 }
  - { offset: 0x11F169, size: 0x8, addend: 0x0, symName: '__ZN79_$LT$alloc..vec..Vec$LT$u8$GT$$u20$as$u20$std..io..copy..BufferedWriterSpec$GT$11buffer_size17h458740429d1fb006E', symObjAddr: 0x24C24, symBinAddr: 0x6BA44, symSize: 0x28 }
  - { offset: 0x11F2E8, size: 0x8, addend: 0x0, symName: '__ZN55_$LT$std..io..util..Repeat$u20$as$u20$std..io..Read$GT$8read_buf17h5cf1d927af365ed9E', symObjAddr: 0x29C08, symBinAddr: 0x70A28, symSize: 0x4C }
  - { offset: 0x11F3F2, size: 0x8, addend: 0x0, symName: '__ZN55_$LT$std..io..util..Repeat$u20$as$u20$std..io..Read$GT$11read_to_end17h8b4c2a2d465b5e65E', symObjAddr: 0x29C54, symBinAddr: 0x70A74, symSize: 0x1C }
  - { offset: 0x11F412, size: 0x8, addend: 0x0, symName: '__ZN58_$LT$std..io..util..Repeat$u20$as$u20$core..fmt..Debug$GT$3fmt17h7ae86ecc3247476cE', symObjAddr: 0x29C70, symBinAddr: 0x70A90, symSize: 0x38 }
  - { offset: 0x11F45D, size: 0x8, addend: 0x0, symName: __ZN3std2io19default_read_to_end16small_probe_read17h386ab1740b8e088aE, symObjAddr: 0x2A3E8, symBinAddr: 0x71208, symSize: 0xE4 }
  - { offset: 0x11F65E, size: 0x8, addend: 0x0, symName: __ZN3std2io19default_read_to_end16small_probe_read17h9ec7c2c1befd2d15E, symObjAddr: 0x2A4CC, symBinAddr: 0x712EC, symSize: 0xF8 }
  - { offset: 0x11F86D, size: 0x8, addend: 0x0, symName: __ZN3std2io19default_read_to_end16small_probe_read17hab939eab7b17d624E, symObjAddr: 0x2A5C4, symBinAddr: 0x713E4, symSize: 0xE4 }
  - { offset: 0x11FA60, size: 0x8, addend: 0x0, symName: __ZN3std2io19default_read_to_end16small_probe_read17hca71644b21a9be15E, symObjAddr: 0x2A6A8, symBinAddr: 0x714C8, symSize: 0xE0 }
  - { offset: 0x11FC53, size: 0x8, addend: 0x0, symName: __ZN3std2io19default_read_to_end17h1c94036f1fd73146E, symObjAddr: 0x29CA8, symBinAddr: 0x70AC8, symSize: 0x278 }
  - { offset: 0x120106, size: 0x8, addend: 0x0, symName: __ZN3std2io19default_read_to_end17ha6aaeb748dd4b98aE, symObjAddr: 0x29F20, symBinAddr: 0x70D40, symSize: 0x274 }
  - { offset: 0x1205C7, size: 0x8, addend: 0x0, symName: __ZN3std2io19default_read_to_end17hb1d63bc7815a760dE, symObjAddr: 0x2A194, symBinAddr: 0x70FB4, symSize: 0x254 }
  - { offset: 0x120A70, size: 0x8, addend: 0x0, symName: '__ZN53_$LT$std..io..IoSlice$u20$as$u20$core..fmt..Debug$GT$3fmt17haee523fe3a266c7cE', symObjAddr: 0x2A788, symBinAddr: 0x715A8, symSize: 0x70 }
  - { offset: 0x120B2F, size: 0x8, addend: 0x0, symName: __ZN3std2io10read_until17h982791ae7de37757E, symObjAddr: 0x2AEC4, symBinAddr: 0x71CE4, symSize: 0x574 }
  - { offset: 0x121254, size: 0x8, addend: 0x0, symName: '__ZN3std4sync4once4Once15call_once_force28_$u7b$$u7b$closure$u7d$$u7d$17h1fae7beff65a3bbcE', symObjAddr: 0x344FC, symBinAddr: 0x7B1C0, symSize: 0x60 }
  - { offset: 0x121336, size: 0x8, addend: 0x0, symName: '__ZN3std4sync4once4Once15call_once_force28_$u7b$$u7b$closure$u7d$$u7d$17hd0e01547106cd689E', symObjAddr: 0x3455C, symBinAddr: 0x7B220, symSize: 0x74 }
  - { offset: 0x121482, size: 0x8, addend: 0x0, symName: '__ZN3std4sync4once4Once15call_once_force28_$u7b$$u7b$closure$u7d$$u7d$17hd99e267cf82614efE', symObjAddr: 0x345D0, symBinAddr: 0x7B294, symSize: 0x78 }
  - { offset: 0x1215F0, size: 0x8, addend: 0x0, symName: '__ZN3std4sync4once4Once9call_once28_$u7b$$u7b$closure$u7d$$u7d$17h01e395b24de1ff34E', symObjAddr: 0x3411C, symBinAddr: 0x7ADE0, symSize: 0x25C }
  - { offset: 0x121DD9, size: 0x8, addend: 0x0, symName: '__ZN3std4sync4once4Once9call_once28_$u7b$$u7b$closure$u7d$$u7d$17h580b4a612321d029E', symObjAddr: 0x34378, symBinAddr: 0x7B03C, symSize: 0x184 }
  - { offset: 0x1221AA, size: 0x8, addend: 0x0, symName: __ZN3std4sync4once4Once4wait17h853937f230b1a179E, symObjAddr: 0x34648, symBinAddr: 0x7B30C, symSize: 0x30 }
  - { offset: 0x122206, size: 0x8, addend: 0x0, symName: __ZN3std4sync4once4Once10wait_force17hd1bbbb9d1ad25da9E, symObjAddr: 0x34678, symBinAddr: 0x7B33C, symSize: 0x30 }
  - { offset: 0x12228F, size: 0x8, addend: 0x0, symName: '__ZN58_$LT$std..sync..once..Once$u20$as$u20$core..fmt..Debug$GT$3fmt17h32e1042471657d90E', symObjAddr: 0x346A8, symBinAddr: 0x7B36C, symSize: 0x38 }
  - { offset: 0x1222C4, size: 0x8, addend: 0x0, symName: '__ZN63_$LT$std..sync..once..OnceState$u20$as$u20$core..fmt..Debug$GT$3fmt17h48204d1cbbc32447E', symObjAddr: 0x346E0, symBinAddr: 0x7B3A4, symSize: 0x6C }
  - { offset: 0x122407, size: 0x8, addend: 0x0, symName: '__ZN3std4sync9once_lock17OnceLock$LT$T$GT$10initialize17h464bd6847401a71eE', symObjAddr: 0x3474C, symBinAddr: 0xD02E0, symSize: 0x68 }
  - { offset: 0x122432, size: 0x8, addend: 0x0, symName: '__ZN3std4sync9once_lock17OnceLock$LT$T$GT$10initialize17h464bd6847401a71eE', symObjAddr: 0x3474C, symBinAddr: 0xD02E0, symSize: 0x68 }
  - { offset: 0x122446, size: 0x8, addend: 0x0, symName: '__ZN3std4sync9once_lock17OnceLock$LT$T$GT$10initialize17h464bd6847401a71eE', symObjAddr: 0x3474C, symBinAddr: 0xD02E0, symSize: 0x68 }
  - { offset: 0x12245A, size: 0x8, addend: 0x0, symName: '__ZN3std4sync9once_lock17OnceLock$LT$T$GT$10initialize17h464bd6847401a71eE', symObjAddr: 0x3474C, symBinAddr: 0xD02E0, symSize: 0x68 }
  - { offset: 0x122470, size: 0x8, addend: 0x0, symName: '__ZN3std4sync9once_lock17OnceLock$LT$T$GT$10initialize17h4d2568abbe28249dE', symObjAddr: 0x347B4, symBinAddr: 0xD0348, symSize: 0x5C }
  - { offset: 0x12249B, size: 0x8, addend: 0x0, symName: '__ZN3std4sync9once_lock17OnceLock$LT$T$GT$10initialize17h4d2568abbe28249dE', symObjAddr: 0x347B4, symBinAddr: 0xD0348, symSize: 0x5C }
  - { offset: 0x1224AF, size: 0x8, addend: 0x0, symName: '__ZN3std4sync9once_lock17OnceLock$LT$T$GT$10initialize17h4d2568abbe28249dE', symObjAddr: 0x347B4, symBinAddr: 0xD0348, symSize: 0x5C }
  - { offset: 0x1224C3, size: 0x8, addend: 0x0, symName: '__ZN3std4sync9once_lock17OnceLock$LT$T$GT$10initialize17h4d2568abbe28249dE', symObjAddr: 0x347B4, symBinAddr: 0xD0348, symSize: 0x5C }
  - { offset: 0x1224D9, size: 0x8, addend: 0x0, symName: '__ZN3std4sync9once_lock17OnceLock$LT$T$GT$10initialize17h6fce188f1418e336E', symObjAddr: 0x34810, symBinAddr: 0xD03A4, symSize: 0x64 }
  - { offset: 0x122504, size: 0x8, addend: 0x0, symName: '__ZN3std4sync9once_lock17OnceLock$LT$T$GT$10initialize17h6fce188f1418e336E', symObjAddr: 0x34810, symBinAddr: 0xD03A4, symSize: 0x64 }
  - { offset: 0x122518, size: 0x8, addend: 0x0, symName: '__ZN3std4sync9once_lock17OnceLock$LT$T$GT$10initialize17h6fce188f1418e336E', symObjAddr: 0x34810, symBinAddr: 0xD03A4, symSize: 0x64 }
  - { offset: 0x12252C, size: 0x8, addend: 0x0, symName: '__ZN3std4sync9once_lock17OnceLock$LT$T$GT$10initialize17h6fce188f1418e336E', symObjAddr: 0x34810, symBinAddr: 0xD03A4, symSize: 0x64 }
  - { offset: 0x122715, size: 0x8, addend: 0x0, symName: '__ZN76_$LT$std..sync..poison..PoisonError$LT$T$GT$$u20$as$u20$core..fmt..Debug$GT$3fmt17hd2b6c279d37da147E', symObjAddr: 0x34874, symBinAddr: 0x7B410, symSize: 0x38 }
  - { offset: 0x122909, size: 0x8, addend: 0x0, symName: '__ZN3std4sync6rwlock15RwLock$LT$T$GT$5write17h42d42809d61a12b0E', symObjAddr: 0x348AC, symBinAddr: 0x7B448, symSize: 0x27C }
  - { offset: 0x122FF2, size: 0x8, addend: 0x0, symName: '__ZN3std4sync6rwlock15RwLock$LT$T$GT$5write17h9e5b35da47515648E', symObjAddr: 0x34B28, symBinAddr: 0x7B6C4, symSize: 0x27C }
  - { offset: 0x12379F, size: 0x8, addend: 0x0, symName: __ZN3std4sync9lazy_lock14panic_poisoned17h3fefc2b38bd2f68dE, symObjAddr: 0x340E4, symBinAddr: 0xD02A8, symSize: 0x38 }
  - { offset: 0x12382A, size: 0x8, addend: 0x0, symName: __ZN3std4sync4mpmc7context7Context3new17hfd86d24701898f2bE, symObjAddr: 0x33B6C, symBinAddr: 0xD0190, symSize: 0x118 }
  - { offset: 0x123B45, size: 0x8, addend: 0x0, symName: '__ZN69_$LT$std..sync..mpmc..zero..ZeroToken$u20$as$u20$core..fmt..Debug$GT$3fmt17h40fecd985b6d58beE', symObjAddr: 0x33C84, symBinAddr: 0x7A980, symSize: 0x48 }
  - { offset: 0x123B96, size: 0x8, addend: 0x0, symName: '__ZN65_$LT$std..sync..mpsc..RecvError$u20$as$u20$core..fmt..Display$GT$3fmt17h0611be049a7ab45fE', symObjAddr: 0x33CCC, symBinAddr: 0x7A9C8, symSize: 0x20 }
  - { offset: 0x123BB7, size: 0x8, addend: 0x0, symName: '__ZN68_$LT$std..sync..mpsc..TryRecvError$u20$as$u20$core..fmt..Display$GT$3fmt17h01ac5d8d3ebfb131E', symObjAddr: 0x33CEC, symBinAddr: 0x7A9E8, symSize: 0x34 }
  - { offset: 0x123BD8, size: 0x8, addend: 0x0, symName: '__ZN72_$LT$std..sync..mpsc..RecvTimeoutError$u20$as$u20$core..fmt..Display$GT$3fmt17h57526246445363e6E', symObjAddr: 0x33D20, symBinAddr: 0x7AA1C, symSize: 0x3C }
  - { offset: 0x123BFF, size: 0x8, addend: 0x0, symName: '__ZN64_$LT$std..sync..barrier..Barrier$u20$as$u20$core..fmt..Debug$GT$3fmt17h83f7039af54b043dE', symObjAddr: 0x33D5C, symBinAddr: 0x7AA58, symSize: 0x38 }
  - { offset: 0x123C1F, size: 0x8, addend: 0x0, symName: __ZN3std4sync7barrier7Barrier4wait17h7bb201eede0366f0E, symObjAddr: 0x33D94, symBinAddr: 0x7AA90, symSize: 0x25C }
  - { offset: 0x124105, size: 0x8, addend: 0x0, symName: '__ZN74_$LT$std..sync..barrier..BarrierWaitResult$u20$as$u20$core..fmt..Debug$GT$3fmt17h5f66b4ac48c612a3E', symObjAddr: 0x33FF0, symBinAddr: 0x7ACEC, symSize: 0x6C }
  - { offset: 0x124168, size: 0x8, addend: 0x0, symName: __ZN3std4sync7condvar7Condvar10notify_one17ha0ac0fdae85b7983E, symObjAddr: 0x3405C, symBinAddr: 0x7AD58, symSize: 0x28 }
  - { offset: 0x1241F2, size: 0x8, addend: 0x0, symName: __ZN3std4sync7condvar7Condvar10notify_all17hb55b71d932674f22E, symObjAddr: 0x34084, symBinAddr: 0x7AD80, symSize: 0x28 }
  - { offset: 0x12427B, size: 0x8, addend: 0x0, symName: '__ZN64_$LT$std..sync..condvar..Condvar$u20$as$u20$core..fmt..Debug$GT$3fmt17hdbf6bf0d11d5c3b1E', symObjAddr: 0x340AC, symBinAddr: 0x7ADA8, symSize: 0x38 }
  - { offset: 0x1242D3, size: 0x8, addend: 0x0, symName: '__ZN64_$LT$std..backtrace..Backtrace$u20$as$u20$core..fmt..Display$GT$3fmt17h34ba4a73f9b932c0E', symObjAddr: 0x1FDE4, symBinAddr: 0x66E1C, symSize: 0x444 }
  - { offset: 0x124AFF, size: 0x8, addend: 0x0, symName: '__ZN62_$LT$std..backtrace..Backtrace$u20$as$u20$core..fmt..Debug$GT$3fmt17hb7ca1fda4f31ed32E', symObjAddr: 0x1F2E4, symBinAddr: 0x6631C, symSize: 0x1BC }
  - { offset: 0x124CE7, size: 0x8, addend: 0x0, symName: '__ZN67_$LT$std..backtrace..BacktraceFrame$u20$as$u20$core..fmt..Debug$GT$3fmt17h77df4084bdfe2585E', symObjAddr: 0x1F4A0, symBinAddr: 0x664D8, symSize: 0x80 }
  - { offset: 0x124D89, size: 0x8, addend: 0x0, symName: '__ZN68_$LT$std..backtrace..BacktraceSymbol$u20$as$u20$core..fmt..Debug$GT$3fmt17h3cfe3162cca7580dE', symObjAddr: 0x1F520, symBinAddr: 0x66558, symSize: 0x238 }
  - { offset: 0x124F8A, size: 0x8, addend: 0x0, symName: '__ZN64_$LT$std..backtrace..BytesOrWide$u20$as$u20$core..fmt..Debug$GT$3fmt17hb204a5ba8ec64a11E', symObjAddr: 0x1F758, symBinAddr: 0x66790, symSize: 0x120 }
  - { offset: 0x12526C, size: 0x8, addend: 0x0, symName: __ZN3std9backtrace9Backtrace7capture17hea28902c4f4acc3cE, symObjAddr: 0x1F878, symBinAddr: 0x668B0, symSize: 0x228 }
  - { offset: 0x125756, size: 0x8, addend: 0x0, symName: __ZN3std9backtrace9Backtrace13force_capture17ha7ad4b3424b65288E, symObjAddr: 0x1FAA0, symBinAddr: 0x66AD8, symSize: 0x1C }
  - { offset: 0x125771, size: 0x8, addend: 0x0, symName: __ZN3std9backtrace9Backtrace6create17h246802f9febf9dabE, symObjAddr: 0x1FABC, symBinAddr: 0x66AF4, symSize: 0x150 }
  - { offset: 0x125AEA, size: 0x8, addend: 0x0, symName: __ZN3std9backtrace9Backtrace6frames17h2a3f6fd2314cd488E, symObjAddr: 0x1FD54, symBinAddr: 0x66D8C, symSize: 0x90 }
  - { offset: 0x125BCD, size: 0x8, addend: 0x0, symName: '__ZN3std9backtrace9Backtrace6create28_$u7b$$u7b$closure$u7d$$u7d$17ha082505f2d9d0708E', symObjAddr: 0x1FC0C, symBinAddr: 0x66C44, symSize: 0x148 }
  - { offset: 0x125DAB, size: 0x8, addend: 0x0, symName: '__ZN3std9backtrace6helper12lazy_resolve28_$u7b$$u7b$closure$u7d$$u7d$28_$u7b$$u7b$closure$u7d$$u7d$17h749c946dd8de5153E', symObjAddr: 0x20228, symBinAddr: 0x67260, symSize: 0x200 }
  - { offset: 0x126295, size: 0x8, addend: 0x0, symName: __ZN3std9panicking11panic_count8increase17hd263eb8da2264c90E, symObjAddr: 0x3838C, symBinAddr: 0x7E778, symSize: 0x80 }
  - { offset: 0x126378, size: 0x8, addend: 0x0, symName: __ZN3std9panicking11panic_count19finished_panic_hook17hd443de22c0d44e15E, symObjAddr: 0x3840C, symBinAddr: 0x7E7F8, symSize: 0x24 }
  - { offset: 0x126426, size: 0x8, addend: 0x0, symName: __ZN3std9panicking11panic_count8decrease17hb5437bf9038348c9E, symObjAddr: 0x38430, symBinAddr: 0x7E81C, symSize: 0x50 }
  - { offset: 0x126514, size: 0x8, addend: 0x0, symName: __ZN3std9panicking11panic_count9get_count17h5ec086d3ad2d1f92E, symObjAddr: 0x38480, symBinAddr: 0x7E86C, symSize: 0x24 }
  - { offset: 0x126568, size: 0x8, addend: 0x0, symName: __ZN3std9panicking11panic_count17is_zero_slow_path17h1754b5b62a0b9f50E, symObjAddr: 0x384A4, symBinAddr: 0xD0BB8, symSize: 0x2C }
  - { offset: 0x126673, size: 0x8, addend: 0x0, symName: __ZN3std9panicking3try7cleanup17haf3305050ca6c30fE, symObjAddr: 0x384D0, symBinAddr: 0xD0BE4, symSize: 0x54 }
  - { offset: 0x1267CC, size: 0x8, addend: 0x0, symName: ___rust_drop_panic, symObjAddr: 0x37BAC, symBinAddr: 0x7DF98, symSize: 0xB8 }
  - { offset: 0x1269BD, size: 0x8, addend: 0x0, symName: ___rust_foreign_exception, symObjAddr: 0x37C64, symBinAddr: 0x7E050, symSize: 0xB8 }
  - { offset: 0x126BBC, size: 0x8, addend: 0x0, symName: __ZN3std9panicking8set_hook17h5e3698ab236d7613E, symObjAddr: 0x37D1C, symBinAddr: 0x7E108, symSize: 0x198 }
  - { offset: 0x126F3E, size: 0x8, addend: 0x0, symName: __ZN3std9panicking9take_hook17he7e7f6d1a3970e3bE, symObjAddr: 0x37EB4, symBinAddr: 0x7E2A0, symSize: 0x114 }
  - { offset: 0x1271DC, size: 0x8, addend: 0x0, symName: '__ZN3std9panicking12default_hook28_$u7b$$u7b$closure$u7d$$u7d$17h369c7295ef58c5b1E', symObjAddr: 0x38230, symBinAddr: 0x7E61C, symSize: 0x15C }
  - { offset: 0x127277, size: 0x8, addend: 0x0, symName: __ZN3std9panicking12default_hook17h50746358288a9d6aE, symObjAddr: 0x37FC8, symBinAddr: 0x7E3B4, symSize: 0x268 }
  - { offset: 0x127650, size: 0x8, addend: 0x0, symName: _rust_begin_unwind, symObjAddr: 0x38524, symBinAddr: 0x7E890, symSize: 0x20 }
  - { offset: 0x1276B9, size: 0x8, addend: 0x0, symName: '__ZN102_$LT$std..panicking..begin_panic_handler..FormatStringPayload$u20$as$u20$core..panic..PanicPayload$GT$8take_box17h2acdf661b618a275E', symObjAddr: 0x38544, symBinAddr: 0x7E8B0, symSize: 0x110 }
  - { offset: 0x12794B, size: 0x8, addend: 0x0, symName: '__ZN102_$LT$std..panicking..begin_panic_handler..FormatStringPayload$u20$as$u20$core..panic..PanicPayload$GT$3get17h2b54113a97f90f6bE', symObjAddr: 0x38654, symBinAddr: 0x7E9C0, symSize: 0xB0 }
  - { offset: 0x127A82, size: 0x8, addend: 0x0, symName: '__ZN95_$LT$std..panicking..begin_panic_handler..FormatStringPayload$u20$as$u20$core..fmt..Display$GT$3fmt17hac3be7a2cb724666E', symObjAddr: 0x38704, symBinAddr: 0x7EA70, symSize: 0x5C }
  - { offset: 0x127B7D, size: 0x8, addend: 0x0, symName: '__ZN99_$LT$std..panicking..begin_panic_handler..StaticStrPayload$u20$as$u20$core..panic..PanicPayload$GT$8take_box17hcb24f453260bcf12E', symObjAddr: 0x38760, symBinAddr: 0x7EACC, symSize: 0x50 }
  - { offset: 0x127BF4, size: 0x8, addend: 0x0, symName: '__ZN99_$LT$std..panicking..begin_panic_handler..StaticStrPayload$u20$as$u20$core..panic..PanicPayload$GT$3get17hda0e5aec36f6a39eE', symObjAddr: 0x387B0, symBinAddr: 0x7EB1C, symSize: 0x18 }
  - { offset: 0x127C0F, size: 0x8, addend: 0x0, symName: '__ZN99_$LT$std..panicking..begin_panic_handler..StaticStrPayload$u20$as$u20$core..panic..PanicPayload$GT$6as_str17h074c1a2d7e0372ceE', symObjAddr: 0x387C8, symBinAddr: 0x7EB34, symSize: 0x18 }
  - { offset: 0x127C30, size: 0x8, addend: 0x0, symName: '__ZN92_$LT$std..panicking..begin_panic_handler..StaticStrPayload$u20$as$u20$core..fmt..Display$GT$3fmt17h34b3827fbb54675fE', symObjAddr: 0x387E0, symBinAddr: 0x7EB4C, symSize: 0x1C }
  - { offset: 0x127C4C, size: 0x8, addend: 0x0, symName: '__ZN3std9panicking19begin_panic_handler28_$u7b$$u7b$closure$u7d$$u7d$17h36f15310ecbde379E', symObjAddr: 0x387FC, symBinAddr: 0x7EB68, symSize: 0xC4 }
  - { offset: 0x127DA4, size: 0x8, addend: 0x0, symName: __ZN3std9panicking14payload_as_str17hd572ab7b51c466f5E, symObjAddr: 0x388C0, symBinAddr: 0x7EC2C, symSize: 0xB0 }
  - { offset: 0x127E8F, size: 0x8, addend: 0x0, symName: __ZN3std9panicking20rust_panic_with_hook17h7d795911432661cbE, symObjAddr: 0x38970, symBinAddr: 0x7ECDC, symSize: 0x3E0 }
  - { offset: 0x128698, size: 0x8, addend: 0x0, symName: __ZN3std9panicking23rust_panic_without_hook17ha5b359e245c580f7E, symObjAddr: 0x38D50, symBinAddr: 0x7F0BC, symSize: 0xD4 }
  - { offset: 0x1288A8, size: 0x8, addend: 0x0, symName: '__ZN96_$LT$std..panicking..rust_panic_without_hook..RewrapBox$u20$as$u20$core..panic..PanicPayload$GT$8take_box17he6bc60a3f1ab3c3aE', symObjAddr: 0x38E24, symBinAddr: 0x7F190, symSize: 0x28 }
  - { offset: 0x128904, size: 0x8, addend: 0x0, symName: '__ZN96_$LT$std..panicking..rust_panic_without_hook..RewrapBox$u20$as$u20$core..panic..PanicPayload$GT$3get17h3dde59947af94813E', symObjAddr: 0x38E4C, symBinAddr: 0x7F1B8, symSize: 0x18 }
  - { offset: 0x128925, size: 0x8, addend: 0x0, symName: '__ZN89_$LT$std..panicking..rust_panic_without_hook..RewrapBox$u20$as$u20$core..fmt..Display$GT$3fmt17h61764bbd3fa97782E', symObjAddr: 0x38E64, symBinAddr: 0x7F1D0, symSize: 0x20 }
  - { offset: 0x128942, size: 0x8, addend: 0x0, symName: _rust_panic, symObjAddr: 0x38E84, symBinAddr: 0x7F1F0, symSize: 0x60 }
  - { offset: 0x1289A3, size: 0x8, addend: 0x0, symName: '__ZN65_$LT$std..thread..PanicGuard$u20$as$u20$core..ops..drop..Drop$GT$4drop17h01b1c82d48337678E', symObjAddr: 0x1EBF0, symBinAddr: 0x65C60, symSize: 0x44 }
  - { offset: 0x128AA1, size: 0x8, addend: 0x0, symName: __ZN3std6thread7current11set_current17h26730749f582d83eE, symObjAddr: 0x1E600, symBinAddr: 0x657EC, symSize: 0xC0 }
  - { offset: 0x128C9C, size: 0x8, addend: 0x0, symName: __ZN3std6thread7current7current17h896b10c04da969afE, symObjAddr: 0x1E6C0, symBinAddr: 0x658AC, symSize: 0x48 }
  - { offset: 0x128D9A, size: 0x8, addend: 0x0, symName: __ZN3std6thread7current12init_current17hb65b9a11bbbdf9e3E, symObjAddr: 0x1E708, symBinAddr: 0xCFDB8, symSize: 0x17C }
  - { offset: 0x1291AA, size: 0x8, addend: 0x0, symName: __ZN3std6thread6Thread3new17hc05f91f44174434dE, symObjAddr: 0x1EFE8, symBinAddr: 0x66020, symSize: 0x44 }
  - { offset: 0x1291DB, size: 0x8, addend: 0x0, symName: __ZN3std6thread6Thread11new_unnamed17h46ffa4bb6dfdc1ddE, symObjAddr: 0x1F02C, symBinAddr: 0x66064, symSize: 0x28 }
  - { offset: 0x1291EF, size: 0x8, addend: 0x0, symName: __ZN3std6thread6Thread9new_inner17hf72df5a662df1b9dE, symObjAddr: 0x1F054, symBinAddr: 0x6608C, symSize: 0x128 }
  - { offset: 0x129395, size: 0x8, addend: 0x0, symName: __ZN3std6thread6Thread4name17hb5fa340d9c51efbdE, symObjAddr: 0x1F17C, symBinAddr: 0x661B4, symSize: 0x44 }
  - { offset: 0x1294C5, size: 0x8, addend: 0x0, symName: __ZN3std6thread6Thread8from_raw17h86dd6fea40f25dccE, symObjAddr: 0x1F1C0, symBinAddr: 0x661F8, symSize: 0x14 }
  - { offset: 0x1295C9, size: 0x8, addend: 0x0, symName: __ZN3std6thread8ThreadId3new17h66c9df3cc4e4f85eE, symObjAddr: 0x1EE70, symBinAddr: 0x65EE0, symSize: 0x44 }
  - { offset: 0x12978C, size: 0x8, addend: 0x0, symName: '__ZN68_$LT$std..thread..local..AccessError$u20$as$u20$core..fmt..Debug$GT$3fmt17h89270534121e4544E', symObjAddr: 0x1E884, symBinAddr: 0x658F4, symSize: 0x38 }
  - { offset: 0x1297AC, size: 0x8, addend: 0x0, symName: '__ZN70_$LT$std..thread..local..AccessError$u20$as$u20$core..fmt..Display$GT$3fmt17ha850e949e998920bE', symObjAddr: 0x1E8BC, symBinAddr: 0x6592C, symSize: 0x20 }
  - { offset: 0x1297D2, size: 0x8, addend: 0x0, symName: __ZN3std6thread6scoped9ScopeData29increment_num_running_threads17h9245c33c42a37f43E, symObjAddr: 0x1E494, symBinAddr: 0x656C0, symSize: 0x20 }
  - { offset: 0x1297EF, size: 0x8, addend: 0x0, symName: __ZN3std6thread6scoped9ScopeData29increment_num_running_threads17h9245c33c42a37f43E, symObjAddr: 0x1E494, symBinAddr: 0x656C0, symSize: 0x20 }
  - { offset: 0x129803, size: 0x8, addend: 0x0, symName: __ZN3std6thread6scoped9ScopeData29increment_num_running_threads17h9245c33c42a37f43E, symObjAddr: 0x1E494, symBinAddr: 0x656C0, symSize: 0x20 }
  - { offset: 0x12982C, size: 0x8, addend: 0x0, symName: __ZN3std6thread6scoped9ScopeData8overflow17h55db1e4a96da87caE, symObjAddr: 0x1E4B4, symBinAddr: 0xCFD78, symSize: 0x40 }
  - { offset: 0x12985B, size: 0x8, addend: 0x0, symName: __ZN3std6thread6scoped9ScopeData29decrement_num_running_threads17h2d7e1d415b2ceb7bE, symObjAddr: 0x1E4F4, symBinAddr: 0x656E0, symSize: 0x54 }
  - { offset: 0x129996, size: 0x8, addend: 0x0, symName: '__ZN63_$LT$std..thread..scoped..Scope$u20$as$u20$core..fmt..Debug$GT$3fmt17h4d5047d45b4be1faE', symObjAddr: 0x1E548, symBinAddr: 0x65734, symSize: 0xB8 }
  - { offset: 0x129A50, size: 0x8, addend: 0x0, symName: __ZN3std6thread7Builder4name17h3362893559363d68E, symObjAddr: 0x1E8DC, symBinAddr: 0x6594C, symSize: 0x84 }
  - { offset: 0x129B14, size: 0x8, addend: 0x0, symName: __ZN3std6thread9yield_now17h8f11521876bfad4fE, symObjAddr: 0x1E960, symBinAddr: 0x659D0, symSize: 0x10 }
  - { offset: 0x129B53, size: 0x8, addend: 0x0, symName: __ZN3std6thread8sleep_ms17hf22ab6c4065ffcebE, symObjAddr: 0x1E970, symBinAddr: 0x659E0, symSize: 0xDC }
  - { offset: 0x129BEF, size: 0x8, addend: 0x0, symName: __ZN3std6thread5sleep17h21989ec8c2760d2cE, symObjAddr: 0x1EA4C, symBinAddr: 0x65ABC, symSize: 0xB8 }
  - { offset: 0x129C68, size: 0x8, addend: 0x0, symName: __ZN3std6thread11sleep_until17h46c0a8e26059e6a1E, symObjAddr: 0x1EB04, symBinAddr: 0x65B74, symSize: 0xEC }
  - { offset: 0x129D62, size: 0x8, addend: 0x0, symName: __ZN3std6thread4park17hdc05006252eed214E, symObjAddr: 0x1EC34, symBinAddr: 0x65CA4, symSize: 0xE0 }
  - { offset: 0x129F79, size: 0x8, addend: 0x0, symName: __ZN3std6thread15park_timeout_ms17ha20d2980165f7b42E, symObjAddr: 0x1ED14, symBinAddr: 0x65D84, symSize: 0x38 }
  - { offset: 0x129FAA, size: 0x8, addend: 0x0, symName: __ZN3std6thread12park_timeout17ha4f33bc649fef25bE, symObjAddr: 0x1ED4C, symBinAddr: 0x65DBC, symSize: 0x124 }
  - { offset: 0x12A240, size: 0x8, addend: 0x0, symName: __ZN3std6thread8ThreadId3new9exhausted17hb461b008978f84c2E, symObjAddr: 0x1EEB4, symBinAddr: 0xCFF34, symSize: 0x38 }
  - { offset: 0x12A27C, size: 0x8, addend: 0x0, symName: '__ZN118_$LT$std..thread..thread_name_string..ThreadNameString$u20$as$u20$core..convert..From$LT$alloc..string..String$GT$$GT$4from17h6360377a8fb99901E', symObjAddr: 0x1EEEC, symBinAddr: 0x65F24, symSize: 0xFC }
  - { offset: 0x12A4B2, size: 0x8, addend: 0x0, symName: '__ZN56_$LT$std..thread..Thread$u20$as$u20$core..fmt..Debug$GT$3fmt17h367828c2730f0af8E', symObjAddr: 0x1F1D4, symBinAddr: 0x6620C, symSize: 0xC0 }
  - { offset: 0x12A616, size: 0x8, addend: 0x0, symName: __ZN3std6thread21available_parallelism17hac4d10ea4917613fE, symObjAddr: 0x1F294, symBinAddr: 0x662CC, symSize: 0x50 }
  - { offset: 0x12A6CD, size: 0x8, addend: 0x0, symName: '__ZN58_$LT$std..thread..ThreadId$u20$as$u20$core..fmt..Debug$GT$3fmt17h2b0fa00f2bfce2c0E', symObjAddr: 0x398B8, symBinAddr: 0x7FC24, symSize: 0x40 }
  - { offset: 0x12A71E, size: 0x8, addend: 0x0, symName: '__ZN89_$LT$std..backtrace_rs..symbolize..gimli..mmap..Mmap$u20$as$u20$core..ops..drop..Drop$GT$4drop17h106ecda45d883f25E', symObjAddr: 0x4A38C, symBinAddr: 0x8FC50, symSize: 0x18 }
  - { offset: 0x12A74B, size: 0x8, addend: 0x0, symName: '__ZN91_$LT$std..backtrace_rs..symbolize..gimli..mmap..Mmap$u20$as$u20$core..ops..deref..Deref$GT$5deref17h84860b6e10e5e957E', symObjAddr: 0x4A374, symBinAddr: 0x8FC38, symSize: 0x18 }
  - { offset: 0x12A828, size: 0x8, addend: 0x0, symName: __ZN3std12backtrace_rs9symbolize5gimli7Context3new17h1e91e4e8ca8f4f43E, symObjAddr: 0x45674, symBinAddr: 0x8AF38, symSize: 0x226C }
  - { offset: 0x12ED25, size: 0x8, addend: 0x0, symName: __ZN3std12backtrace_rs9symbolize5gimli7Context11find_frames17hfd1016a68cde14edE, symObjAddr: 0x478E0, symBinAddr: 0x8D1A4, symSize: 0x3A8 }
  - { offset: 0x12F17B, size: 0x8, addend: 0x0, symName: __ZN3std12backtrace_rs9symbolize5gimli5macho6Object5parse17h785faf4743f90f48E, symObjAddr: 0x4A578, symBinAddr: 0x8FE3C, symSize: 0xC78 }
  - { offset: 0x130E39, size: 0x8, addend: 0x0, symName: __ZN3std12backtrace_rs9symbolize5gimli5macho6Object7section17hd87dc726714e9896E, symObjAddr: 0x4B1F0, symBinAddr: 0x90AB4, symSize: 0x18C }
  - { offset: 0x1311C7, size: 0x8, addend: 0x0, symName: __ZN3std12backtrace_rs9symbolize5gimli5macho11find_header17h967e7857a577695cE, symObjAddr: 0x4A3A4, symBinAddr: 0x8FC68, symSize: 0x1D4 }
  - { offset: 0x1318BB, size: 0x8, addend: 0x0, symName: __ZN3std12backtrace_rs9symbolize5gimli4mmap17h0bd3f9fc60ec7b5cE, symObjAddr: 0x47C88, symBinAddr: 0x8D54C, symSize: 0x160 }
  - { offset: 0x131E99, size: 0x8, addend: 0x0, symName: __ZN3std12backtrace_rs9symbolize5gimli7resolve17h59605c61b94de6bdE, symObjAddr: 0x47DE8, symBinAddr: 0x8D6AC, symSize: 0x258C }
  - { offset: 0x137AFF, size: 0x8, addend: 0x0, symName: __ZN3std12backtrace_rs9symbolize6Symbol4name17h757bb3a891f635ceE, symObjAddr: 0x38FC4, symBinAddr: 0x7F330, symSize: 0xE4 }
  - { offset: 0x137C18, size: 0x8, addend: 0x0, symName: __ZN3std12backtrace_rs9symbolize6Symbol12filename_raw17h51ca9225f93a104cE, symObjAddr: 0x390A8, symBinAddr: 0x7F414, symSize: 0x44 }
  - { offset: 0x137C91, size: 0x8, addend: 0x0, symName: '__ZN73_$LT$std..backtrace_rs..symbolize..Symbol$u20$as$u20$core..fmt..Debug$GT$3fmt17h318db3d45b84f6d8E', symObjAddr: 0x390EC, symBinAddr: 0x7F458, symSize: 0xFC }
  - { offset: 0x137D2B, size: 0x8, addend: 0x0, symName: '__ZN79_$LT$std..backtrace_rs..symbolize..SymbolName$u20$as$u20$core..fmt..Display$GT$3fmt17he94ecb4e608d7aaaE', symObjAddr: 0x391E8, symBinAddr: 0x7F554, symSize: 0x100 }
  - { offset: 0x137E0B, size: 0x8, addend: 0x0, symName: '__ZN77_$LT$std..backtrace_rs..symbolize..SymbolName$u20$as$u20$core..fmt..Debug$GT$3fmt17hfb6e341f12fc7826E', symObjAddr: 0x392E8, symBinAddr: 0x7F654, symSize: 0x100 }
  - { offset: 0x137F5D, size: 0x8, addend: 0x0, symName: '__ZN85_$LT$std..backtrace_rs..backtrace..libunwind..Frame$u20$as$u20$core..clone..Clone$GT$5clone17h78e35b8f4ad18a6aE', symObjAddr: 0x45588, symBinAddr: 0x8AE4C, symSize: 0x6C }
  - { offset: 0x137FC0, size: 0x8, addend: 0x0, symName: '__ZN87_$LT$std..backtrace_rs..backtrace..libunwind..Bomb$u20$as$u20$core..ops..drop..Drop$GT$4drop17hc4a56e0f957f55bbE', symObjAddr: 0x455F4, symBinAddr: 0x8AEB8, symSize: 0x44 }
  - { offset: 0x137FF5, size: 0x8, addend: 0x0, symName: __ZN3std12backtrace_rs9backtrace9libunwind5trace8trace_fn17he8146b547133e35cE, symObjAddr: 0x45638, symBinAddr: 0x8AEFC, symSize: 0x3C }
  - { offset: 0x138078, size: 0x8, addend: 0x0, symName: '__ZN72_$LT$std..backtrace_rs..backtrace..Frame$u20$as$u20$core..fmt..Debug$GT$3fmt17h502890f8c81a0dc9E', symObjAddr: 0x38EE4, symBinAddr: 0x7F250, symSize: 0xE0 }
  - { offset: 0x138184, size: 0x8, addend: 0x0, symName: __ZN3std12backtrace_rs5print17BacktraceFrameFmt21print_raw_with_column17h52f7494d1c550af5E, symObjAddr: 0x393E8, symBinAddr: 0x7F754, symSize: 0x4D0 }
  - { offset: 0x1383B0, size: 0x8, addend: 0x0, symName: __ZN3std2rt7cleanup17hca9dabeefa21ea70E, symObjAddr: 0x1DC08, symBinAddr: 0x64E34, symSize: 0x64 }
  - { offset: 0x1383D3, size: 0x8, addend: 0x0, symName: __ZN3std2rt7cleanup17hca9dabeefa21ea70E, symObjAddr: 0x1DC08, symBinAddr: 0x64E34, symSize: 0x64 }
  - { offset: 0x1383E7, size: 0x8, addend: 0x0, symName: __ZN3std2rt7cleanup17hca9dabeefa21ea70E, symObjAddr: 0x1DC08, symBinAddr: 0x64E34, symSize: 0x64 }
  - { offset: 0x1383FB, size: 0x8, addend: 0x0, symName: __ZN3std2rt7cleanup17hca9dabeefa21ea70E, symObjAddr: 0x1DC08, symBinAddr: 0x64E34, symSize: 0x64 }
  - { offset: 0x138465, size: 0x8, addend: 0x0, symName: __ZN3std2rt19lang_start_internal17h77891a2543177e4bE, symObjAddr: 0x1DC6C, symBinAddr: 0x64E98, symSize: 0x828 }
  - { offset: 0x139471, size: 0x8, addend: 0x0, symName: '__ZN64_$LT$std..panic..PanicHookInfo$u20$as$u20$core..fmt..Display$GT$3fmt17hf0d2e800c1362170E', symObjAddr: 0x2F510, symBinAddr: 0x76330, symSize: 0x164 }
  - { offset: 0x1396B3, size: 0x8, addend: 0x0, symName: __ZN3std5panic13resume_unwind17hece3c171b14e6084E, symObjAddr: 0x2F674, symBinAddr: 0x76494, symSize: 0xC }
  - { offset: 0x1396CE, size: 0x8, addend: 0x0, symName: __ZN3std5panic12always_abort17h174cc4501837516aE, symObjAddr: 0x2F680, symBinAddr: 0x764A0, symSize: 0x20 }
  - { offset: 0x139754, size: 0x8, addend: 0x0, symName: __ZN3std5panic19set_backtrace_style17h8b74176fce996ae1E, symObjAddr: 0x2F6A0, symBinAddr: 0x764C0, symSize: 0x1C }
  - { offset: 0x1397B0, size: 0x8, addend: 0x0, symName: __ZN3std5panic19get_backtrace_style17h1f774776d63cd7d6E, symObjAddr: 0x2F6BC, symBinAddr: 0x764DC, symSize: 0x10C }
  - { offset: 0x1397CE, size: 0x8, addend: 0x0, symName: __ZN3std5panic19get_backtrace_style17h1f774776d63cd7d6E, symObjAddr: 0x2F6BC, symBinAddr: 0x764DC, symSize: 0x10C }
  - { offset: 0x1397E3, size: 0x8, addend: 0x0, symName: __ZN3std5panic19get_backtrace_style17h1f774776d63cd7d6E, symObjAddr: 0x2F6BC, symBinAddr: 0x764DC, symSize: 0x10C }
  - { offset: 0x139C1A, size: 0x8, addend: 0x0, symName: __ZN3std4time7Instant3now17h46343cdc613b5f57E, symObjAddr: 0x34DA4, symBinAddr: 0x7B940, symSize: 0x14 }
  - { offset: 0x139C44, size: 0x8, addend: 0x0, symName: __ZN3std4time7Instant14duration_since17h2f943aa28cf40c72E, symObjAddr: 0x34DB8, symBinAddr: 0x7B954, symSize: 0x4C }
  - { offset: 0x139CAF, size: 0x8, addend: 0x0, symName: __ZN3std4time7Instant22checked_duration_since17h5c73585122e0cca7E, symObjAddr: 0x34E04, symBinAddr: 0x7B9A0, symSize: 0x50 }
  - { offset: 0x139CEF, size: 0x8, addend: 0x0, symName: __ZN3std4time7Instant7elapsed17h46cf5dc3e9524e87E, symObjAddr: 0x34E54, symBinAddr: 0x7B9F0, symSize: 0x6C }
  - { offset: 0x139DE1, size: 0x8, addend: 0x0, symName: '__ZN60_$LT$std..time..Instant$u20$as$u20$core..ops..arith..Sub$GT$3sub17ha8fe53a742e184a2E', symObjAddr: 0x35068, symBinAddr: 0x7BC04, symSize: 0x50 }
  - { offset: 0x139E68, size: 0x8, addend: 0x0, symName: '__ZN88_$LT$std..time..Instant$u20$as$u20$core..ops..arith..Add$LT$core..time..Duration$GT$$GT$3add17h8a8c7738f7c1be33E', symObjAddr: 0x34EC0, symBinAddr: 0x7BA5C, symSize: 0x64 }
  - { offset: 0x139E7F, size: 0x8, addend: 0x0, symName: '__ZN88_$LT$std..time..Instant$u20$as$u20$core..ops..arith..Add$LT$core..time..Duration$GT$$GT$3add17h8a8c7738f7c1be33E', symObjAddr: 0x34EC0, symBinAddr: 0x7BA5C, symSize: 0x64 }
  - { offset: 0x139E94, size: 0x8, addend: 0x0, symName: '__ZN88_$LT$std..time..Instant$u20$as$u20$core..ops..arith..Add$LT$core..time..Duration$GT$$GT$3add17h8a8c7738f7c1be33E', symObjAddr: 0x34EC0, symBinAddr: 0x7BA5C, symSize: 0x64 }
  - { offset: 0x139EA9, size: 0x8, addend: 0x0, symName: '__ZN88_$LT$std..time..Instant$u20$as$u20$core..ops..arith..Add$LT$core..time..Duration$GT$$GT$3add17h8a8c7738f7c1be33E', symObjAddr: 0x34EC0, symBinAddr: 0x7BA5C, symSize: 0x64 }
  - { offset: 0x139EBE, size: 0x8, addend: 0x0, symName: '__ZN88_$LT$std..time..Instant$u20$as$u20$core..ops..arith..Add$LT$core..time..Duration$GT$$GT$3add17h8a8c7738f7c1be33E', symObjAddr: 0x34EC0, symBinAddr: 0x7BA5C, symSize: 0x64 }
  - { offset: 0x139ED2, size: 0x8, addend: 0x0, symName: '__ZN88_$LT$std..time..Instant$u20$as$u20$core..ops..arith..Add$LT$core..time..Duration$GT$$GT$3add17h8a8c7738f7c1be33E', symObjAddr: 0x34EC0, symBinAddr: 0x7BA5C, symSize: 0x64 }
  - { offset: 0x139EE7, size: 0x8, addend: 0x0, symName: '__ZN88_$LT$std..time..Instant$u20$as$u20$core..ops..arith..Add$LT$core..time..Duration$GT$$GT$3add17h8a8c7738f7c1be33E', symObjAddr: 0x34EC0, symBinAddr: 0x7BA5C, symSize: 0x64 }
  - { offset: 0x139F52, size: 0x8, addend: 0x0, symName: '__ZN94_$LT$std..time..Instant$u20$as$u20$core..ops..arith..AddAssign$LT$core..time..Duration$GT$$GT$10add_assign17h9c1ab214357ec28fE', symObjAddr: 0x34F24, symBinAddr: 0x7BAC0, symSize: 0x74 }
  - { offset: 0x13A02B, size: 0x8, addend: 0x0, symName: '__ZN88_$LT$std..time..Instant$u20$as$u20$core..ops..arith..Sub$LT$core..time..Duration$GT$$GT$3sub17hec0b69f01e755fb2E', symObjAddr: 0x34F98, symBinAddr: 0x7BB34, symSize: 0x5C }
  - { offset: 0x13A069, size: 0x8, addend: 0x0, symName: '__ZN88_$LT$std..time..Instant$u20$as$u20$core..ops..arith..Sub$LT$core..time..Duration$GT$$GT$3sub17hec0b69f01e755fb2E', symObjAddr: 0x34F98, symBinAddr: 0x7BB34, symSize: 0x5C }
  - { offset: 0x13A07D, size: 0x8, addend: 0x0, symName: '__ZN88_$LT$std..time..Instant$u20$as$u20$core..ops..arith..Sub$LT$core..time..Duration$GT$$GT$3sub17hec0b69f01e755fb2E', symObjAddr: 0x34F98, symBinAddr: 0x7BB34, symSize: 0x5C }
  - { offset: 0x13A092, size: 0x8, addend: 0x0, symName: '__ZN88_$LT$std..time..Instant$u20$as$u20$core..ops..arith..Sub$LT$core..time..Duration$GT$$GT$3sub17hec0b69f01e755fb2E', symObjAddr: 0x34F98, symBinAddr: 0x7BB34, symSize: 0x5C }
  - { offset: 0x13A0FD, size: 0x8, addend: 0x0, symName: '__ZN94_$LT$std..time..Instant$u20$as$u20$core..ops..arith..SubAssign$LT$core..time..Duration$GT$$GT$10sub_assign17hb8d9c46f83ec5f0dE', symObjAddr: 0x34FF4, symBinAddr: 0x7BB90, symSize: 0x74 }
  - { offset: 0x13A1D6, size: 0x8, addend: 0x0, symName: '__ZN55_$LT$std..time..Instant$u20$as$u20$core..fmt..Debug$GT$3fmt17h802300a72eb2bbeeE', symObjAddr: 0x350B8, symBinAddr: 0x7BC54, symSize: 0x80 }
  - { offset: 0x13A20D, size: 0x8, addend: 0x0, symName: __ZN3std4time10SystemTime3now17h8856266915829068E, symObjAddr: 0x35138, symBinAddr: 0x7BCD4, symSize: 0x14 }
  - { offset: 0x13A237, size: 0x8, addend: 0x0, symName: __ZN3std4time10SystemTime14duration_since17h0ea77ff603a0921fE, symObjAddr: 0x3514C, symBinAddr: 0x7BCE8, symSize: 0x50 }
  - { offset: 0x13A292, size: 0x8, addend: 0x0, symName: __ZN3std4time10SystemTime7elapsed17h171c00e44e3d153dE, symObjAddr: 0x3519C, symBinAddr: 0x7BD38, symSize: 0x68 }
  - { offset: 0x13A319, size: 0x8, addend: 0x0, symName: __ZN3std4time10SystemTime11checked_add17h5bf4b576516b9444E, symObjAddr: 0x35204, symBinAddr: 0x7BDA0, symSize: 0x7C }
  - { offset: 0x13A3AB, size: 0x8, addend: 0x0, symName: __ZN3std4time10SystemTime11checked_sub17hb60a751232d07267E, symObjAddr: 0x35280, symBinAddr: 0x7BE1C, symSize: 0x6C }
  - { offset: 0x13A45F, size: 0x8, addend: 0x0, symName: '__ZN91_$LT$std..time..SystemTime$u20$as$u20$core..ops..arith..Add$LT$core..time..Duration$GT$$GT$3add17h9dbb5a953bd5e23dE', symObjAddr: 0x352EC, symBinAddr: 0x7BE88, symSize: 0x64 }
  - { offset: 0x13A476, size: 0x8, addend: 0x0, symName: '__ZN91_$LT$std..time..SystemTime$u20$as$u20$core..ops..arith..Add$LT$core..time..Duration$GT$$GT$3add17h9dbb5a953bd5e23dE', symObjAddr: 0x352EC, symBinAddr: 0x7BE88, symSize: 0x64 }
  - { offset: 0x13A48B, size: 0x8, addend: 0x0, symName: '__ZN91_$LT$std..time..SystemTime$u20$as$u20$core..ops..arith..Add$LT$core..time..Duration$GT$$GT$3add17h9dbb5a953bd5e23dE', symObjAddr: 0x352EC, symBinAddr: 0x7BE88, symSize: 0x64 }
  - { offset: 0x13A4A0, size: 0x8, addend: 0x0, symName: '__ZN91_$LT$std..time..SystemTime$u20$as$u20$core..ops..arith..Add$LT$core..time..Duration$GT$$GT$3add17h9dbb5a953bd5e23dE', symObjAddr: 0x352EC, symBinAddr: 0x7BE88, symSize: 0x64 }
  - { offset: 0x13A4B4, size: 0x8, addend: 0x0, symName: '__ZN91_$LT$std..time..SystemTime$u20$as$u20$core..ops..arith..Add$LT$core..time..Duration$GT$$GT$3add17h9dbb5a953bd5e23dE', symObjAddr: 0x352EC, symBinAddr: 0x7BE88, symSize: 0x64 }
  - { offset: 0x13A4C8, size: 0x8, addend: 0x0, symName: '__ZN91_$LT$std..time..SystemTime$u20$as$u20$core..ops..arith..Add$LT$core..time..Duration$GT$$GT$3add17h9dbb5a953bd5e23dE', symObjAddr: 0x352EC, symBinAddr: 0x7BE88, symSize: 0x64 }
  - { offset: 0x13A4DD, size: 0x8, addend: 0x0, symName: '__ZN91_$LT$std..time..SystemTime$u20$as$u20$core..ops..arith..Add$LT$core..time..Duration$GT$$GT$3add17h9dbb5a953bd5e23dE', symObjAddr: 0x352EC, symBinAddr: 0x7BE88, symSize: 0x64 }
  - { offset: 0x13A548, size: 0x8, addend: 0x0, symName: '__ZN97_$LT$std..time..SystemTime$u20$as$u20$core..ops..arith..AddAssign$LT$core..time..Duration$GT$$GT$10add_assign17hddaba8bc6bdf9addE', symObjAddr: 0x35350, symBinAddr: 0x7BEEC, symSize: 0x74 }
  - { offset: 0x13A620, size: 0x8, addend: 0x0, symName: '__ZN91_$LT$std..time..SystemTime$u20$as$u20$core..ops..arith..Sub$LT$core..time..Duration$GT$$GT$3sub17h1cdd89bd6836f5c1E', symObjAddr: 0x353C4, symBinAddr: 0x7BF60, symSize: 0x5C }
  - { offset: 0x13A65D, size: 0x8, addend: 0x0, symName: '__ZN91_$LT$std..time..SystemTime$u20$as$u20$core..ops..arith..Sub$LT$core..time..Duration$GT$$GT$3sub17h1cdd89bd6836f5c1E', symObjAddr: 0x353C4, symBinAddr: 0x7BF60, symSize: 0x5C }
  - { offset: 0x13A671, size: 0x8, addend: 0x0, symName: '__ZN91_$LT$std..time..SystemTime$u20$as$u20$core..ops..arith..Sub$LT$core..time..Duration$GT$$GT$3sub17h1cdd89bd6836f5c1E', symObjAddr: 0x353C4, symBinAddr: 0x7BF60, symSize: 0x5C }
  - { offset: 0x13A686, size: 0x8, addend: 0x0, symName: '__ZN91_$LT$std..time..SystemTime$u20$as$u20$core..ops..arith..Sub$LT$core..time..Duration$GT$$GT$3sub17h1cdd89bd6836f5c1E', symObjAddr: 0x353C4, symBinAddr: 0x7BF60, symSize: 0x5C }
  - { offset: 0x13A6F1, size: 0x8, addend: 0x0, symName: '__ZN97_$LT$std..time..SystemTime$u20$as$u20$core..ops..arith..SubAssign$LT$core..time..Duration$GT$$GT$10sub_assign17h3149ddac09cd246bE', symObjAddr: 0x35420, symBinAddr: 0x7BFBC, symSize: 0x74 }
  - { offset: 0x13A7C9, size: 0x8, addend: 0x0, symName: '__ZN58_$LT$std..time..SystemTime$u20$as$u20$core..fmt..Debug$GT$3fmt17h3ddbed0c10c0085cE', symObjAddr: 0x35494, symBinAddr: 0x7C030, symSize: 0x80 }
  - { offset: 0x13A800, size: 0x8, addend: 0x0, symName: '__ZN65_$LT$std..time..SystemTimeError$u20$as$u20$core..fmt..Display$GT$3fmt17h8ada7ffbd3d0f2c9E', symObjAddr: 0x35514, symBinAddr: 0x7C0B0, symSize: 0x24 }
  - { offset: 0x13A860, size: 0x8, addend: 0x0, symName: __ZN3std3env11current_dir17h172f4dc23441f9daE, symObjAddr: 0x20428, symBinAddr: 0x67460, symSize: 0x1C0 }
  - { offset: 0x13ABFE, size: 0x8, addend: 0x0, symName: __ZN3std3env4vars17h88a15c677eaabb89E, symObjAddr: 0x205E8, symBinAddr: 0x67620, symSize: 0x10 }
  - { offset: 0x13AC18, size: 0x8, addend: 0x0, symName: __ZN3std3env7vars_os17hecf805c3900c0abcE, symObjAddr: 0x205F8, symBinAddr: 0x67630, symSize: 0x2D8 }
  - { offset: 0x13B2BA, size: 0x8, addend: 0x0, symName: '__ZN75_$LT$std..env..VarsOs$u20$as$u20$core..iter..traits..iterator..Iterator$GT$4next17h93913b322dc90427E', symObjAddr: 0x20B4C, symBinAddr: 0x67B84, symSize: 0x48 }
  - { offset: 0x13B33C, size: 0x8, addend: 0x0, symName: '__ZN75_$LT$std..env..VarsOs$u20$as$u20$core..iter..traits..iterator..Iterator$GT$9size_hint17h6d6cd50624e06536E', symObjAddr: 0x20B94, symBinAddr: 0x67BCC, symSize: 0x38 }
  - { offset: 0x13B3BF, size: 0x8, addend: 0x0, symName: '__ZN73_$LT$std..env..Vars$u20$as$u20$core..iter..traits..iterator..Iterator$GT$4next17h94c6974832fd39f2E', symObjAddr: 0x208D0, symBinAddr: 0x67908, symSize: 0x1C0 }
  - { offset: 0x13B8B2, size: 0x8, addend: 0x0, symName: '__ZN73_$LT$std..env..Vars$u20$as$u20$core..iter..traits..iterator..Iterator$GT$9size_hint17h0b52722b9e50904fE', symObjAddr: 0x20A90, symBinAddr: 0x67AC8, symSize: 0x38 }
  - { offset: 0x13B93D, size: 0x8, addend: 0x0, symName: '__ZN51_$LT$std..env..Vars$u20$as$u20$core..fmt..Debug$GT$3fmt17hd152c168b5085782E', symObjAddr: 0x20AC8, symBinAddr: 0x67B00, symSize: 0x84 }
  - { offset: 0x13B9DD, size: 0x8, addend: 0x0, symName: '__ZN53_$LT$std..env..VarsOs$u20$as$u20$core..fmt..Debug$GT$3fmt17h21e555d39106b009E', symObjAddr: 0x20BCC, symBinAddr: 0x67C04, symSize: 0x64 }
  - { offset: 0x13B9F8, size: 0x8, addend: 0x0, symName: __ZN3std3env4_var17h961b7457640dfa72E, symObjAddr: 0x20C30, symBinAddr: 0x67C68, symSize: 0xA8 }
  - { offset: 0x13BAF4, size: 0x8, addend: 0x0, symName: __ZN3std3env7_var_os17h0a415fbacbc640bdE, symObjAddr: 0x20CD8, symBinAddr: 0x67D10, symSize: 0x160 }
  - { offset: 0x13BD7A, size: 0x8, addend: 0x0, symName: '__ZN57_$LT$std..env..VarError$u20$as$u20$core..fmt..Display$GT$3fmt17hce672328f93a2e98E', symObjAddr: 0x20E38, symBinAddr: 0x67E70, symSize: 0x78 }
  - { offset: 0x13BDD4, size: 0x8, addend: 0x0, symName: '__ZN79_$LT$std..env..SplitPaths$u20$as$u20$core..iter..traits..iterator..Iterator$GT$4next17h57707b7d8289b21aE', symObjAddr: 0x20EB0, symBinAddr: 0x67EE8, symSize: 0xA8 }
  - { offset: 0x13BF26, size: 0x8, addend: 0x0, symName: '__ZN57_$LT$std..env..SplitPaths$u20$as$u20$core..fmt..Debug$GT$3fmt17hfa73beb9cf93abf2E', symObjAddr: 0x20F58, symBinAddr: 0x67F90, symSize: 0x38 }
  - { offset: 0x13BF47, size: 0x8, addend: 0x0, symName: '__ZN63_$LT$std..env..JoinPathsError$u20$as$u20$core..fmt..Display$GT$3fmt17h00ecbab8c6ccb60eE', symObjAddr: 0x20F90, symBinAddr: 0x67FC8, symSize: 0x5C }
  - { offset: 0x13BFC5, size: 0x8, addend: 0x0, symName: __ZN3std3env8home_dir17hcd028fdcc81c5cbcE, symObjAddr: 0x20FEC, symBinAddr: 0x68024, symSize: 0x19C }
  - { offset: 0x13C394, size: 0x8, addend: 0x0, symName: __ZN3std3env8temp_dir17h29958e54580b16c3E, symObjAddr: 0x21188, symBinAddr: 0x681C0, symSize: 0x98 }
  - { offset: 0x13C51A, size: 0x8, addend: 0x0, symName: __ZN3std3env11current_exe17he79cce10a5159b7dE, symObjAddr: 0x21220, symBinAddr: 0x68258, symSize: 0xD4 }
  - { offset: 0x13C6FF, size: 0x8, addend: 0x0, symName: __ZN3std3env4args17h271a3d093b5db279E, symObjAddr: 0x212F4, symBinAddr: 0x6832C, symSize: 0x10 }
  - { offset: 0x13C71A, size: 0x8, addend: 0x0, symName: __ZN3std3env7args_os17hc2de09d0c51d55aeE, symObjAddr: 0x21304, symBinAddr: 0x6833C, symSize: 0x1E8 }
  - { offset: 0x13CBD0, size: 0x8, addend: 0x0, symName: '__ZN75_$LT$std..env..ArgsOs$u20$as$u20$core..iter..traits..iterator..Iterator$GT$4next17had9755dd281c065bE', symObjAddr: 0x217A0, symBinAddr: 0x687D8, symSize: 0x48 }
  - { offset: 0x13CC52, size: 0x8, addend: 0x0, symName: '__ZN75_$LT$std..env..ArgsOs$u20$as$u20$core..iter..traits..iterator..Iterator$GT$9size_hint17hd52323d7f345a897E', symObjAddr: 0x217E8, symBinAddr: 0x68820, symSize: 0x38 }
  - { offset: 0x13CCD6, size: 0x8, addend: 0x0, symName: '__ZN73_$LT$std..env..Args$u20$as$u20$core..iter..traits..iterator..Iterator$GT$4next17h2f9ba91fefb5cca9E', symObjAddr: 0x214EC, symBinAddr: 0x68524, symSize: 0xE8 }
  - { offset: 0x13CF13, size: 0x8, addend: 0x0, symName: '__ZN73_$LT$std..env..Args$u20$as$u20$core..iter..traits..iterator..Iterator$GT$9size_hint17h2efa74948bde361cE', symObjAddr: 0x215D4, symBinAddr: 0x6860C, symSize: 0x38 }
  - { offset: 0x13CFBC, size: 0x8, addend: 0x0, symName: '__ZN86_$LT$std..env..ArgsOs$u20$as$u20$core..iter..traits..exact_size..ExactSizeIterator$GT$3len17h9c0aef9eb51040dbE', symObjAddr: 0x21820, symBinAddr: 0x68858, symSize: 0x2C }
  - { offset: 0x13D03B, size: 0x8, addend: 0x0, symName: '__ZN86_$LT$std..env..ArgsOs$u20$as$u20$core..iter..traits..exact_size..ExactSizeIterator$GT$8is_empty17hca6a855fa61d42bdE', symObjAddr: 0x2184C, symBinAddr: 0x68884, symSize: 0x20 }
  - { offset: 0x13D080, size: 0x8, addend: 0x0, symName: '__ZN84_$LT$std..env..Args$u20$as$u20$core..iter..traits..exact_size..ExactSizeIterator$GT$3len17h08461ef13c89031eE', symObjAddr: 0x2160C, symBinAddr: 0x68644, symSize: 0x2C }
  - { offset: 0x13D11C, size: 0x8, addend: 0x0, symName: '__ZN84_$LT$std..env..Args$u20$as$u20$core..iter..traits..exact_size..ExactSizeIterator$GT$8is_empty17h9d1be49f9fb3c880E', symObjAddr: 0x21638, symBinAddr: 0x68670, symSize: 0x20 }
  - { offset: 0x13D18C, size: 0x8, addend: 0x0, symName: '__ZN90_$LT$std..env..ArgsOs$u20$as$u20$core..iter..traits..double_ended..DoubleEndedIterator$GT$9next_back17hedbcd9204171f206E', symObjAddr: 0x2186C, symBinAddr: 0x688A4, symSize: 0x48 }
  - { offset: 0x13D215, size: 0x8, addend: 0x0, symName: '__ZN88_$LT$std..env..Args$u20$as$u20$core..iter..traits..double_ended..DoubleEndedIterator$GT$9next_back17h6e8e28899c103c24E', symObjAddr: 0x21658, symBinAddr: 0x68690, symSize: 0xE4 }
  - { offset: 0x13D430, size: 0x8, addend: 0x0, symName: '__ZN51_$LT$std..env..Args$u20$as$u20$core..fmt..Debug$GT$3fmt17h058beb73c0e6392fE', symObjAddr: 0x2173C, symBinAddr: 0x68774, symSize: 0x64 }
  - { offset: 0x13D451, size: 0x8, addend: 0x0, symName: '__ZN53_$LT$std..env..ArgsOs$u20$as$u20$core..fmt..Debug$GT$3fmt17ha79aebcee10d6df3E', symObjAddr: 0x218B4, symBinAddr: 0x688EC, symSize: 0x64 }
  - { offset: 0x13D4DA, size: 0x8, addend: 0x0, symName: __ZN3std2fs11OpenOptions5_open17hbf356a9c8f4ab619E, symObjAddr: 0x22E44, symBinAddr: 0x69E7C, symSize: 0x244 }
  - { offset: 0x13D6B4, size: 0x8, addend: 0x0, symName: __ZN3std2fs4File8sync_all17hb0626fd75d38c73eE, symObjAddr: 0x2228C, symBinAddr: 0x692C4, symSize: 0x58 }
  - { offset: 0x13D793, size: 0x8, addend: 0x0, symName: __ZN3std2fs4File7set_len17hf7339bc31eb76667E, symObjAddr: 0x222E4, symBinAddr: 0x6931C, symSize: 0x78 }
  - { offset: 0x13D8B2, size: 0x8, addend: 0x0, symName: __ZN3std2fs4File8metadata17hdf79d0f35e8f44efE, symObjAddr: 0x2235C, symBinAddr: 0x69394, symSize: 0xAC }
  - { offset: 0x13D99E, size: 0x8, addend: 0x0, symName: __ZN3std2fs4File9try_clone17h8cd06fd55ebc7f55E, symObjAddr: 0x22408, symBinAddr: 0x69440, symSize: 0x88 }
  - { offset: 0x13DA84, size: 0x8, addend: 0x0, symName: __ZN3std2fs4File15set_permissions17h3c1f41405b3de318E, symObjAddr: 0x22490, symBinAddr: 0x694C8, symSize: 0x64 }
  - { offset: 0x13DB46, size: 0x8, addend: 0x0, symName: __ZN3std2fs4File9set_times17h594318b9903ebaefE, symObjAddr: 0x224F4, symBinAddr: 0x6952C, symSize: 0xF0 }
  - { offset: 0x13DCBE, size: 0x8, addend: 0x0, symName: __ZN3std2fs4read5inner17h4e43e71abe147b85E, symObjAddr: 0x21DBC, symBinAddr: 0x68DF4, symSize: 0x1A0 }
  - { offset: 0x13E0FF, size: 0x8, addend: 0x0, symName: __ZN3std2fs14read_to_string5inner17hf3e639778e0bc884E, symObjAddr: 0x21F5C, symBinAddr: 0x68F94, symSize: 0x20C }
  - { offset: 0x13E723, size: 0x8, addend: 0x0, symName: '__ZN52_$LT$$RF$std..fs..File$u20$as$u20$std..io..Write$GT$5write17hc2f22005a6470967E', symObjAddr: 0x2289C, symBinAddr: 0x698D4, symSize: 0x50 }
  - { offset: 0x13E811, size: 0x8, addend: 0x0, symName: '__ZN52_$LT$$RF$std..fs..File$u20$as$u20$std..io..Write$GT$14write_vectored17h8b27c3bb3c78b37cE', symObjAddr: 0x228EC, symBinAddr: 0x69924, symSize: 0x50 }
  - { offset: 0x13E921, size: 0x8, addend: 0x0, symName: '__ZN48_$LT$std..fs..File$u20$as$u20$std..io..Write$GT$5write17hc373434d8b0570e4E', symObjAddr: 0x22AEC, symBinAddr: 0x69B24, symSize: 0x4C }
  - { offset: 0x13EA25, size: 0x8, addend: 0x0, symName: '__ZN48_$LT$std..fs..File$u20$as$u20$std..io..Write$GT$14write_vectored17hfe5660478a96fd02E', symObjAddr: 0x22B38, symBinAddr: 0x69B70, symSize: 0x4C }
  - { offset: 0x13EB36, size: 0x8, addend: 0x0, symName: __ZN3std2fs5write5inner17hd0dfbcf49c8de780E, symObjAddr: 0x22168, symBinAddr: 0x691A0, symSize: 0x124 }
  - { offset: 0x13EE32, size: 0x8, addend: 0x0, symName: '__ZN50_$LT$std..fs..File$u20$as$u20$core..fmt..Debug$GT$3fmt17h2b405762200144e6E', symObjAddr: 0x225E4, symBinAddr: 0x6961C, symSize: 0x10 }
  - { offset: 0x13EE6F, size: 0x8, addend: 0x0, symName: '__ZN51_$LT$$RF$std..fs..File$u20$as$u20$std..io..Seek$GT$4seek17he6ba1c7c1fcaf53cE', symObjAddr: 0x2293C, symBinAddr: 0x69974, symSize: 0x58 }
  - { offset: 0x13EF0C, size: 0x8, addend: 0x0, symName: '__ZN51_$LT$$RF$std..fs..File$u20$as$u20$std..io..Read$GT$11read_to_end17h98ead3b6fa9d05d2E', symObjAddr: 0x225F4, symBinAddr: 0x6962C, symSize: 0x140 }
  - { offset: 0x13F211, size: 0x8, addend: 0x0, symName: '__ZN51_$LT$$RF$std..fs..File$u20$as$u20$std..io..Read$GT$14read_to_string17hf70ed8f32c0de083E', symObjAddr: 0x22734, symBinAddr: 0x6976C, symSize: 0x168 }
  - { offset: 0x13F5B1, size: 0x8, addend: 0x0, symName: '__ZN47_$LT$std..fs..File$u20$as$u20$std..io..Read$GT$4read17h5d0e9e56eb61d89cE', symObjAddr: 0x22994, symBinAddr: 0x699CC, symSize: 0x4C }
  - { offset: 0x13F6DD, size: 0x8, addend: 0x0, symName: '__ZN47_$LT$std..fs..File$u20$as$u20$std..io..Read$GT$13read_vectored17h22a3cea630082046E', symObjAddr: 0x229E0, symBinAddr: 0x69A18, symSize: 0x4C }
  - { offset: 0x13F810, size: 0x8, addend: 0x0, symName: '__ZN47_$LT$std..fs..File$u20$as$u20$std..io..Read$GT$8read_buf17hd0961d4a1843f456E', symObjAddr: 0x22A2C, symBinAddr: 0x69A64, symSize: 0x78 }
  - { offset: 0x13FA16, size: 0x8, addend: 0x0, symName: '__ZN47_$LT$std..fs..File$u20$as$u20$std..io..Read$GT$11read_to_end17h318d03d6ad02929aE', symObjAddr: 0x22AA4, symBinAddr: 0x69ADC, symSize: 0x24 }
  - { offset: 0x13FA31, size: 0x8, addend: 0x0, symName: '__ZN47_$LT$std..fs..File$u20$as$u20$std..io..Read$GT$14read_to_string17h1769572193c966f8E', symObjAddr: 0x22AC8, symBinAddr: 0x69B00, symSize: 0x24 }
  - { offset: 0x13FA6E, size: 0x8, addend: 0x0, symName: '__ZN47_$LT$std..fs..File$u20$as$u20$std..io..Seek$GT$4seek17h4368fe7db98b8950E', symObjAddr: 0x22B84, symBinAddr: 0x69BBC, symSize: 0x54 }
  - { offset: 0x13FB28, size: 0x8, addend: 0x0, symName: '__ZN3std2fs81_$LT$impl$u20$std..io..Read$u20$for$u20$alloc..sync..Arc$LT$std..fs..File$GT$$GT$4read17hb07d447ec8668a9cE', symObjAddr: 0x22BD8, symBinAddr: 0x69C10, symSize: 0x50 }
  - { offset: 0x13FC9C, size: 0x8, addend: 0x0, symName: '__ZN3std2fs81_$LT$impl$u20$std..io..Read$u20$for$u20$alloc..sync..Arc$LT$std..fs..File$GT$$GT$13read_vectored17h95ee26fe725e8c46E', symObjAddr: 0x22C28, symBinAddr: 0x69C60, symSize: 0x50 }
  - { offset: 0x13FE10, size: 0x8, addend: 0x0, symName: '__ZN3std2fs81_$LT$impl$u20$std..io..Read$u20$for$u20$alloc..sync..Arc$LT$std..fs..File$GT$$GT$8read_buf17h76eef20790fd7ae9E', symObjAddr: 0x22C78, symBinAddr: 0x69CB0, symSize: 0x7C }
  - { offset: 0x14005E, size: 0x8, addend: 0x0, symName: '__ZN3std2fs81_$LT$impl$u20$std..io..Read$u20$for$u20$alloc..sync..Arc$LT$std..fs..File$GT$$GT$11read_to_end17h7f98d995276ce08aE', symObjAddr: 0x22CF4, symBinAddr: 0x69D2C, symSize: 0x2C }
  - { offset: 0x1400BB, size: 0x8, addend: 0x0, symName: '__ZN3std2fs81_$LT$impl$u20$std..io..Read$u20$for$u20$alloc..sync..Arc$LT$std..fs..File$GT$$GT$14read_to_string17hea621c3ce2bbe2d7E', symObjAddr: 0x22D20, symBinAddr: 0x69D58, symSize: 0x2C }
  - { offset: 0x14011E, size: 0x8, addend: 0x0, symName: '__ZN3std2fs82_$LT$impl$u20$std..io..Write$u20$for$u20$alloc..sync..Arc$LT$std..fs..File$GT$$GT$5write17hd1669efdbab8584dE', symObjAddr: 0x22D4C, symBinAddr: 0x69D84, symSize: 0x50 }
  - { offset: 0x14026A, size: 0x8, addend: 0x0, symName: '__ZN3std2fs82_$LT$impl$u20$std..io..Write$u20$for$u20$alloc..sync..Arc$LT$std..fs..File$GT$$GT$14write_vectored17h4198d18fd61f62abE', symObjAddr: 0x22D9C, symBinAddr: 0x69DD4, symSize: 0x50 }
  - { offset: 0x1403BC, size: 0x8, addend: 0x0, symName: '__ZN3std2fs81_$LT$impl$u20$std..io..Seek$u20$for$u20$alloc..sync..Arc$LT$std..fs..File$GT$$GT$4seek17hd1562351604edea2E', symObjAddr: 0x22DEC, symBinAddr: 0x69E24, symSize: 0x58 }
  - { offset: 0x1404B7, size: 0x8, addend: 0x0, symName: __ZN3std2fs8Metadata8modified17h077d07a31319f6f7E, symObjAddr: 0x23088, symBinAddr: 0x6A0C0, symSize: 0x70 }
  - { offset: 0x140517, size: 0x8, addend: 0x0, symName: __ZN3std2fs8Metadata8accessed17h5d52d3be5756baf3E, symObjAddr: 0x230F8, symBinAddr: 0x6A130, symSize: 0x70 }
  - { offset: 0x140577, size: 0x8, addend: 0x0, symName: __ZN3std2fs8Metadata7created17h9006bf6c428f228dE, symObjAddr: 0x23168, symBinAddr: 0x6A1A0, symSize: 0x70 }
  - { offset: 0x14065B, size: 0x8, addend: 0x0, symName: '__ZN54_$LT$std..fs..Metadata$u20$as$u20$core..fmt..Debug$GT$3fmt17h1f630d0f8784f472E', symObjAddr: 0x231D8, symBinAddr: 0x6A210, symSize: 0x1F0 }
  - { offset: 0x1407E7, size: 0x8, addend: 0x0, symName: '__ZN54_$LT$std..fs..FileType$u20$as$u20$core..fmt..Debug$GT$3fmt17h2d3db1f3b5f8dddeE', symObjAddr: 0x233C8, symBinAddr: 0x6A400, symSize: 0xC4 }
  - { offset: 0x1408F6, size: 0x8, addend: 0x0, symName: '__ZN75_$LT$std..fs..ReadDir$u20$as$u20$core..iter..traits..iterator..Iterator$GT$4next17hff4a652e9915cafaE', symObjAddr: 0x2348C, symBinAddr: 0x6A4C4, symSize: 0x84 }
  - { offset: 0x140951, size: 0x8, addend: 0x0, symName: __ZN3std2fs8DirEntry4path17h1cd1c2d74de10123E, symObjAddr: 0x23510, symBinAddr: 0x6A548, symSize: 0x24 }
  - { offset: 0x140B03, size: 0x8, addend: 0x0, symName: __ZN3std2fs8DirEntry8metadata17hef3e9b4f70778ed7E, symObjAddr: 0x23534, symBinAddr: 0x6A56C, symSize: 0x9C }
  - { offset: 0x140B34, size: 0x8, addend: 0x0, symName: __ZN3std2fs8DirEntry9file_type17h33ab1a74729cf95eE, symObjAddr: 0x235D0, symBinAddr: 0x6A608, symSize: 0x88 }
  - { offset: 0x140B7A, size: 0x8, addend: 0x0, symName: __ZN3std2fs8DirEntry9file_name17h2cbf807d428bca80E, symObjAddr: 0x23658, symBinAddr: 0x6A690, symSize: 0x78 }
  - { offset: 0x140CF5, size: 0x8, addend: 0x0, symName: '__ZN54_$LT$std..fs..DirEntry$u20$as$u20$core..fmt..Debug$GT$3fmt17h85442611c54700daE', symObjAddr: 0x236D0, symBinAddr: 0x6A708, symSize: 0xB0 }
  - { offset: 0x141018, size: 0x8, addend: 0x0, symName: __ZN3std2fs10DirBuilder7_create17h71b7c5f0e7b715efE, symObjAddr: 0x23780, symBinAddr: 0x6A7B8, symSize: 0xC8 }
  - { offset: 0x141149, size: 0x8, addend: 0x0, symName: __ZN3std2fs10DirBuilder14create_dir_all17h937761d2068da9b1E, symObjAddr: 0x23848, symBinAddr: 0x6A880, symSize: 0x48C }
  - { offset: 0x141931, size: 0x8, addend: 0x0, symName: '__ZN57_$LT$std..fs..Permissions$u20$as$u20$core..fmt..Debug$GT$3fmt17heed23be1e8c92bbcE', symObjAddr: 0x398F8, symBinAddr: 0x7FC64, symSize: 0x40 }
  - { offset: 0x141978, size: 0x8, addend: 0x0, symName: '__ZN67_$LT$std..hash..random..RandomState$u20$as$u20$core..fmt..Debug$GT$3fmt17h91a5a5309cde5be7E', symObjAddr: 0x23CD4, symBinAddr: 0x6AD0C, symSize: 0x38 }
  - { offset: 0x1419A4, size: 0x8, addend: 0x0, symName: '__ZN3std3net11socket_addr136_$LT$impl$u20$std..sys_common..FromInner$LT$libc..unix..bsd..apple..sockaddr_in$GT$$u20$for$u20$core..net..socket_addr..SocketAddrV4$GT$10from_inner17h003e3f0ae6f8dbe4E', symObjAddr: 0x2B438, symBinAddr: 0x72258, symSize: 0x24 }
  - { offset: 0x1419F6, size: 0x8, addend: 0x0, symName: '__ZN3std3net11socket_addr130_$LT$impl$u20$std..sys_common..FromInner$LT$libc..unix..bsd..sockaddr_in6$GT$$u20$for$u20$core..net..socket_addr..SocketAddrV6$GT$10from_inner17h91dc6b4a77973985E', symObjAddr: 0x2B45C, symBinAddr: 0x7227C, symSize: 0x34 }
  - { offset: 0x141A5C, size: 0x8, addend: 0x0, symName: '__ZN3std3net11socket_addr136_$LT$impl$u20$std..sys_common..IntoInner$LT$libc..unix..bsd..apple..sockaddr_in$GT$$u20$for$u20$core..net..socket_addr..SocketAddrV4$GT$10into_inner17h23d4e9200150dfb6E', symObjAddr: 0x2B490, symBinAddr: 0x722B0, symSize: 0x30 }
  - { offset: 0x141A9F, size: 0x8, addend: 0x0, symName: '__ZN3std3net11socket_addr130_$LT$impl$u20$std..sys_common..IntoInner$LT$libc..unix..bsd..sockaddr_in6$GT$$u20$for$u20$core..net..socket_addr..SocketAddrV6$GT$10into_inner17hc8a1181b4e07b926E', symObjAddr: 0x2B4C0, symBinAddr: 0x722E0, symSize: 0x3C }
  - { offset: 0x141B27, size: 0x8, addend: 0x0, symName: __ZN3std3net11socket_addr19resolve_socket_addr17h9a9555674d13c5f9E, symObjAddr: 0x2B4FC, symBinAddr: 0x7231C, symSize: 0x34C }
  - { offset: 0x14210A, size: 0x8, addend: 0x0, symName: '__ZN78_$LT$$LP$$RF$str$C$u16$RP$$u20$as$u20$std..net..socket_addr..ToSocketAddrs$GT$15to_socket_addrs17hfdbc94b3ea516bcfE', symObjAddr: 0x2B848, symBinAddr: 0x72668, symSize: 0x1C8 }
  - { offset: 0x1422F6, size: 0x8, addend: 0x0, symName: '__ZN92_$LT$$LP$alloc..string..String$C$u16$RP$$u20$as$u20$std..net..socket_addr..ToSocketAddrs$GT$15to_socket_addrs17h0d43fb0fed1a67d0E', symObjAddr: 0x2BA10, symBinAddr: 0x72830, symSize: 0x30 }
  - { offset: 0x1423B1, size: 0x8, addend: 0x0, symName: '__ZN60_$LT$str$u20$as$u20$std..net..socket_addr..ToSocketAddrs$GT$15to_socket_addrs17hf0bd160f491931eaE', symObjAddr: 0x2BA40, symBinAddr: 0x72860, symSize: 0xCC }
  - { offset: 0x142498, size: 0x8, addend: 0x0, symName: '__ZN78_$LT$alloc..string..String$u20$as$u20$std..net..socket_addr..ToSocketAddrs$GT$15to_socket_addrs17h58cc2efb5968559eE', symObjAddr: 0x2BB0C, symBinAddr: 0x7292C, symSize: 0x18 }
  - { offset: 0x142559, size: 0x8, addend: 0x0, symName: __ZN3std3net3tcp9TcpStream15connect_timeout17h56cebff8d195f5beE, symObjAddr: 0x2BB24, symBinAddr: 0x72944, symSize: 0x4A4 }
  - { offset: 0x142C77, size: 0x8, addend: 0x0, symName: __ZN3std3net3tcp9TcpStream9peer_addr17h3554b362af58efedE, symObjAddr: 0x2BFC8, symBinAddr: 0x72DE8, symSize: 0x18 }
  - { offset: 0x142C91, size: 0x8, addend: 0x0, symName: __ZN3std3net3tcp9TcpStream12read_timeout17h47eed81d4e1a605aE, symObjAddr: 0x2BFE0, symBinAddr: 0x72E00, symSize: 0xFC }
  - { offset: 0x142DC5, size: 0x8, addend: 0x0, symName: __ZN3std3net3tcp9TcpStream13write_timeout17h464875f35c93936eE, symObjAddr: 0x2C0DC, symBinAddr: 0x72EFC, symSize: 0xFC }
  - { offset: 0x142EF9, size: 0x8, addend: 0x0, symName: __ZN3std3net3tcp9TcpStream10set_linger17h8d4bb2e07016545bE, symObjAddr: 0x2C1D8, symBinAddr: 0x72FF8, symSize: 0x68 }
  - { offset: 0x142FD7, size: 0x8, addend: 0x0, symName: __ZN3std3net3tcp9TcpStream6linger17hde64c27886eee0bfE, symObjAddr: 0x2C240, symBinAddr: 0x73060, symSize: 0x88 }
  - { offset: 0x1430E5, size: 0x8, addend: 0x0, symName: __ZN3std3net3tcp9TcpStream11set_nodelay17ha953f4aa049ec1dbE, symObjAddr: 0x2C2C8, symBinAddr: 0x730E8, symSize: 0x54 }
  - { offset: 0x1431AE, size: 0x8, addend: 0x0, symName: __ZN3std3net3tcp9TcpStream7nodelay17he351364d1421ea02E, symObjAddr: 0x2C31C, symBinAddr: 0x7313C, symSize: 0x80 }
  - { offset: 0x1432C2, size: 0x8, addend: 0x0, symName: '__ZN58_$LT$std..net..tcp..TcpStream$u20$as$u20$std..io..Read$GT$8read_buf17h766ac60dcf1db9b0E', symObjAddr: 0x2C39C, symBinAddr: 0x731BC, symSize: 0x70 }
  - { offset: 0x143469, size: 0x8, addend: 0x0, symName: '__ZN58_$LT$std..net..tcp..TcpStream$u20$as$u20$std..io..Read$GT$13read_vectored17h236597a050949e2fE', symObjAddr: 0x2C40C, symBinAddr: 0x7322C, symSize: 0x4C }
  - { offset: 0x143578, size: 0x8, addend: 0x0, symName: '__ZN59_$LT$std..net..tcp..TcpStream$u20$as$u20$std..io..Write$GT$14write_vectored17h99e10923c34ffa0fE', symObjAddr: 0x2C458, symBinAddr: 0x73278, symSize: 0x4C }
  - { offset: 0x143689, size: 0x8, addend: 0x0, symName: '__ZN62_$LT$$RF$std..net..tcp..TcpStream$u20$as$u20$std..io..Read$GT$4read17h40e5c288e39be26cE', symObjAddr: 0x2C4A4, symBinAddr: 0x732C4, symSize: 0x48 }
  - { offset: 0x143753, size: 0x8, addend: 0x0, symName: '__ZN62_$LT$$RF$std..net..tcp..TcpStream$u20$as$u20$std..io..Read$GT$8read_buf17h17607437e663d4f8E', symObjAddr: 0x2C4EC, symBinAddr: 0x7330C, symSize: 0x74 }
  - { offset: 0x1438FA, size: 0x8, addend: 0x0, symName: '__ZN62_$LT$$RF$std..net..tcp..TcpStream$u20$as$u20$std..io..Read$GT$13read_vectored17h3a94ce9bd9fdc4b2E', symObjAddr: 0x2C560, symBinAddr: 0x73380, symSize: 0x50 }
  - { offset: 0x143A09, size: 0x8, addend: 0x0, symName: '__ZN63_$LT$$RF$std..net..tcp..TcpStream$u20$as$u20$std..io..Write$GT$5write17h36cb2328d4cbca5bE', symObjAddr: 0x2C5B0, symBinAddr: 0x733D0, symSize: 0x48 }
  - { offset: 0x143AAD, size: 0x8, addend: 0x0, symName: '__ZN61_$LT$std..net..tcp..TcpStream$u20$as$u20$core..fmt..Debug$GT$3fmt17h882800acb938acc0E', symObjAddr: 0x2C5F8, symBinAddr: 0x73418, symSize: 0x10 }
  - { offset: 0x143ACE, size: 0x8, addend: 0x0, symName: __ZN3std3net3tcp11TcpListener10local_addr17h32788fbd32115766E, symObjAddr: 0x2C608, symBinAddr: 0x73428, symSize: 0x18 }
  - { offset: 0x143AE9, size: 0x8, addend: 0x0, symName: __ZN3std3net3tcp11TcpListener9try_clone17hed07ed956993125eE, symObjAddr: 0x2C620, symBinAddr: 0x73440, symSize: 0x88 }
  - { offset: 0x143BD6, size: 0x8, addend: 0x0, symName: __ZN3std3net3tcp11TcpListener6accept17h904a7fbefd61a2dcE, symObjAddr: 0x2C6A8, symBinAddr: 0x734C8, symSize: 0x1A4 }
  - { offset: 0x143ED0, size: 0x8, addend: 0x0, symName: __ZN3std3net3tcp11TcpListener7set_ttl17hcf505fb70a882ba9E, symObjAddr: 0x2C84C, symBinAddr: 0x7366C, symSize: 0x54 }
  - { offset: 0x143F83, size: 0x8, addend: 0x0, symName: __ZN3std3net3tcp11TcpListener3ttl17ha5ad9ef88b80d615E, symObjAddr: 0x2C8A0, symBinAddr: 0x736C0, symSize: 0x78 }
  - { offset: 0x14407B, size: 0x8, addend: 0x0, symName: __ZN3std3net3tcp11TcpListener11set_only_v617hcb7077528c321634E, symObjAddr: 0x2C918, symBinAddr: 0x73738, symSize: 0x54 }
  - { offset: 0x14412E, size: 0x8, addend: 0x0, symName: __ZN3std3net3tcp11TcpListener7only_v617h943e319b29fef5f0E, symObjAddr: 0x2C96C, symBinAddr: 0x7378C, symSize: 0x80 }
  - { offset: 0x14422C, size: 0x8, addend: 0x0, symName: '__ZN82_$LT$std..net..tcp..Incoming$u20$as$u20$core..iter..traits..iterator..Iterator$GT$4next17h297267faa2bbedfdE', symObjAddr: 0x2C9EC, symBinAddr: 0x7380C, symSize: 0x40 }
  - { offset: 0x144263, size: 0x8, addend: 0x0, symName: '__ZN86_$LT$std..net..tcp..IntoIncoming$u20$as$u20$core..iter..traits..iterator..Iterator$GT$4next17he792dfa44655d055E', symObjAddr: 0x2CA2C, symBinAddr: 0x7384C, symSize: 0x3C }
  - { offset: 0x14429A, size: 0x8, addend: 0x0, symName: '__ZN63_$LT$std..net..tcp..TcpListener$u20$as$u20$core..fmt..Debug$GT$3fmt17hba948c462b1a5fb1E', symObjAddr: 0x2CA68, symBinAddr: 0x73888, symSize: 0x10 }
  - { offset: 0x1442C1, size: 0x8, addend: 0x0, symName: __ZN3std3net3udp9UdpSocket9recv_from17h0059481cfc91b9ccE, symObjAddr: 0x2CA78, symBinAddr: 0x73898, symSize: 0x24 }
  - { offset: 0x144306, size: 0x8, addend: 0x0, symName: __ZN3std3net3udp9UdpSocket9peek_from17he5fb53a0f5cdee11E, symObjAddr: 0x2CA9C, symBinAddr: 0x738BC, symSize: 0x24 }
  - { offset: 0x14434B, size: 0x8, addend: 0x0, symName: __ZN3std3net3udp9UdpSocket9peer_addr17hc89c2537828f1eaeE, symObjAddr: 0x2CAC0, symBinAddr: 0x738E0, symSize: 0x144 }
  - { offset: 0x1444ED, size: 0x8, addend: 0x0, symName: __ZN3std3net3udp9UdpSocket13set_broadcast17h489126a6bfe688bbE, symObjAddr: 0x2CC04, symBinAddr: 0x73A24, symSize: 0x54 }
  - { offset: 0x1445A0, size: 0x8, addend: 0x0, symName: __ZN3std3net3udp9UdpSocket9broadcast17h015edf61ef0da8ecE, symObjAddr: 0x2CC58, symBinAddr: 0x73A78, symSize: 0x80 }
  - { offset: 0x144698, size: 0x8, addend: 0x0, symName: __ZN3std3net3udp9UdpSocket21set_multicast_loop_v417hc1339304ef2cd55cE, symObjAddr: 0x2CCD8, symBinAddr: 0x73AF8, symSize: 0x54 }
  - { offset: 0x14474B, size: 0x8, addend: 0x0, symName: __ZN3std3net3udp9UdpSocket17multicast_loop_v417h74ee925e6fa1c2beE, symObjAddr: 0x2CD2C, symBinAddr: 0x73B4C, symSize: 0x80 }
  - { offset: 0x144843, size: 0x8, addend: 0x0, symName: __ZN3std3net3udp9UdpSocket20set_multicast_ttl_v417he0b1503783031abeE, symObjAddr: 0x2CDAC, symBinAddr: 0x73BCC, symSize: 0x54 }
  - { offset: 0x1448F6, size: 0x8, addend: 0x0, symName: __ZN3std3net3udp9UdpSocket16multicast_ttl_v417h8073843847bd4943E, symObjAddr: 0x2CE00, symBinAddr: 0x73C20, symSize: 0x78 }
  - { offset: 0x1449EE, size: 0x8, addend: 0x0, symName: __ZN3std3net3udp9UdpSocket21set_multicast_loop_v617h731a02aeafff8655E, symObjAddr: 0x2CE78, symBinAddr: 0x73C98, symSize: 0x54 }
  - { offset: 0x144AA1, size: 0x8, addend: 0x0, symName: __ZN3std3net3udp9UdpSocket17multicast_loop_v617h57a6c540d6afe3f6E, symObjAddr: 0x2CECC, symBinAddr: 0x73CEC, symSize: 0x80 }
  - { offset: 0x144B99, size: 0x8, addend: 0x0, symName: __ZN3std3net3udp9UdpSocket17join_multicast_v417h84934bb976abd11bE, symObjAddr: 0x2CF4C, symBinAddr: 0x73D6C, symSize: 0x60 }
  - { offset: 0x144C4C, size: 0x8, addend: 0x0, symName: __ZN3std3net3udp9UdpSocket17join_multicast_v617he023a6e92232f9f2E, symObjAddr: 0x2CFAC, symBinAddr: 0x73DCC, symSize: 0x5C }
  - { offset: 0x144D14, size: 0x8, addend: 0x0, symName: __ZN3std3net3udp9UdpSocket18leave_multicast_v417h8749c6e8b8fd2e24E, symObjAddr: 0x2D008, symBinAddr: 0x73E28, symSize: 0x60 }
  - { offset: 0x144DC7, size: 0x8, addend: 0x0, symName: __ZN3std3net3udp9UdpSocket18leave_multicast_v617h529b2e09fbad0784E, symObjAddr: 0x2D068, symBinAddr: 0x73E88, symSize: 0x5C }
  - { offset: 0x144E8F, size: 0x8, addend: 0x0, symName: __ZN3std3net3udp9UdpSocket4send17hd98e667ffbd7cf05E, symObjAddr: 0x2D0C4, symBinAddr: 0x73EE4, symSize: 0x44 }
  - { offset: 0x144F33, size: 0x8, addend: 0x0, symName: '__ZN61_$LT$std..net..udp..UdpSocket$u20$as$u20$core..fmt..Debug$GT$3fmt17hcd93dc31a8e62239E', symObjAddr: 0x2D108, symBinAddr: 0x73F28, symSize: 0x10 }
  - { offset: 0x144F93, size: 0x8, addend: 0x0, symName: '__ZN91_$LT$std..sys_common..net..LookupHost$u20$as$u20$core..iter..traits..iterator..Iterator$GT$4next17hf9d375d99b4c6195E', symObjAddr: 0x44470, symBinAddr: 0x89D34, symSize: 0xFC }
  - { offset: 0x14506C, size: 0x8, addend: 0x0, symName: '__ZN74_$LT$std..sys_common..net..LookupHost$u20$as$u20$core..ops..drop..Drop$GT$4drop17h6ba72149274629bfE', symObjAddr: 0x4456C, symBinAddr: 0x89E30, symSize: 0x14 }
  - { offset: 0x145093, size: 0x8, addend: 0x0, symName: '__ZN104_$LT$std..sys_common..net..LookupHost$u20$as$u20$core..convert..TryFrom$LT$$LP$$RF$str$C$u16$RP$$GT$$GT$8try_from17h501889bd65b56b4cE', symObjAddr: 0x446B8, symBinAddr: 0x89F7C, symSize: 0xB8 }
  - { offset: 0x145118, size: 0x8, addend: 0x0, symName: '__ZN104_$LT$std..sys_common..net..LookupHost$u20$as$u20$core..convert..TryFrom$LT$$LP$$RF$str$C$u16$RP$$GT$$GT$8try_from28_$u7b$$u7b$closure$u7d$$u7d$17h0f122c5a413449d4E', symObjAddr: 0x44770, symBinAddr: 0x8A034, symSize: 0x1A8 }
  - { offset: 0x1455FD, size: 0x8, addend: 0x0, symName: __ZN3std10sys_common3net9TcpStream7connect17h6eb84a585df2e089E, symObjAddr: 0x44918, symBinAddr: 0x8A1DC, symSize: 0x12C }
  - { offset: 0x14573E, size: 0x8, addend: 0x0, symName: __ZN3std10sys_common3net9TcpStream9peer_addr17h8df7a49454ae10f2E, symObjAddr: 0x44A44, symBinAddr: 0x8A308, symSize: 0x148 }
  - { offset: 0x1458E8, size: 0x8, addend: 0x0, symName: '__ZN3std10sys_common3net154_$LT$impl$u20$std..sys_common..IntoInner$LT$$LP$std..sys_common..net..SocketAddrCRepr$C$u32$RP$$GT$$u20$for$u20$$RF$core..net..socket_addr..SocketAddr$GT$10into_inner17hd4fe49cd365cd086E', symObjAddr: 0x454D4, symBinAddr: 0x8AD98, symSize: 0x70 }
  - { offset: 0x145A18, size: 0x8, addend: 0x0, symName: __ZN3std10sys_common3net11TcpListener4bind17h2453d42d646cd608E, symObjAddr: 0x44D68, symBinAddr: 0x8A62C, symSize: 0x14C }
  - { offset: 0x145B6A, size: 0x8, addend: 0x0, symName: __ZN3std10sys_common3net11TcpListener11socket_addr17h14638d8b1d7a7971E, symObjAddr: 0x44EB4, symBinAddr: 0x8A778, symSize: 0x148 }
  - { offset: 0x145DE6, size: 0x8, addend: 0x0, symName: __ZN3std10sys_common3net9UdpSocket4bind17h6068654714603269E, symObjAddr: 0x45130, symBinAddr: 0x8A9F4, symSize: 0x10C }
  - { offset: 0x145F5D, size: 0x8, addend: 0x0, symName: __ZN3std10sys_common3net9UdpSocket7send_to17h1b7390032ead3c9bE, symObjAddr: 0x4523C, symBinAddr: 0x8AB00, symSize: 0xA0 }
  - { offset: 0x145F7B, size: 0x8, addend: 0x0, symName: __ZN3std10sys_common3net9UdpSocket7send_to17h1b7390032ead3c9bE, symObjAddr: 0x4523C, symBinAddr: 0x8AB00, symSize: 0xA0 }
  - { offset: 0x146049, size: 0x8, addend: 0x0, symName: __ZN3std10sys_common3net9UdpSocket7connect17h637cead969752c50E, symObjAddr: 0x452DC, symBinAddr: 0x8ABA0, symSize: 0xC4 }
  - { offset: 0x14618E, size: 0x8, addend: 0x0, symName: '__ZN90_$LT$std..sys_common..net..LookupHost$u20$as$u20$core..convert..TryFrom$LT$$RF$str$GT$$GT$8try_from17h1d942cf275b45e2aE', symObjAddr: 0x44580, symBinAddr: 0x89E44, symSize: 0x138 }
  - { offset: 0x1463D1, size: 0x8, addend: 0x0, symName: '__ZN68_$LT$std..sys_common..net..TcpStream$u20$as$u20$core..fmt..Debug$GT$3fmt17h88389b51e1cdbcd7E', symObjAddr: 0x44B8C, symBinAddr: 0x8A450, symSize: 0x1DC }
  - { offset: 0x1468A9, size: 0x8, addend: 0x0, symName: '__ZN70_$LT$std..sys_common..net..TcpListener$u20$as$u20$core..fmt..Debug$GT$3fmt17h7138f0ac777acd2bE', symObjAddr: 0x44FFC, symBinAddr: 0x8A8C0, symSize: 0x134 }
  - { offset: 0x146AFD, size: 0x8, addend: 0x0, symName: '__ZN68_$LT$std..sys_common..net..UdpSocket$u20$as$u20$core..fmt..Debug$GT$3fmt17h20bcab4f019262a9E', symObjAddr: 0x453A0, symBinAddr: 0x8AC64, symSize: 0x134 }
  - { offset: 0x146D71, size: 0x8, addend: 0x0, symName: __ZN3std10sys_common7process10CommandEnv3set17h5126219c81a5a726E, symObjAddr: 0x369C8, symBinAddr: 0x7CDB4, symSize: 0x198 }
  - { offset: 0x147231, size: 0x8, addend: 0x0, symName: __ZN3std10sys_common7process10CommandEnv6remove17h87bd0cfcb067b06aE, symObjAddr: 0x36B60, symBinAddr: 0x7CF4C, symSize: 0x3AC }
  - { offset: 0x147DE7, size: 0x8, addend: 0x0, symName: '__ZN73_$LT$std..sys_common..process..CommandEnv$u20$as$u20$core..fmt..Debug$GT$3fmt17h08fd758fa16d024dE', symObjAddr: 0x36944, symBinAddr: 0x7CD30, symSize: 0x84 }
  - { offset: 0x147E1A, size: 0x8, addend: 0x0, symName: '__ZN96_$LT$std..sys_common..process..CommandEnvs$u20$as$u20$core..iter..traits..iterator..Iterator$GT$4next17h71912663947a1fd4E', symObjAddr: 0x36F0C, symBinAddr: 0x7D2F8, symSize: 0x50 }
  - { offset: 0x147E98, size: 0x8, addend: 0x0, symName: __ZN3std10sys_common2fs6exists17hf4237e3163747761E, symObjAddr: 0x3671C, symBinAddr: 0x7CB08, symSize: 0x228 }
  - { offset: 0x148231, size: 0x8, addend: 0x0, symName: '__ZN91_$LT$std..sys_common..wstr..WStrUnits$u20$as$u20$core..iter..traits..iterator..Iterator$GT$4next17hf19677f74ce2bd2fE', symObjAddr: 0x36F5C, symBinAddr: 0x7D348, symSize: 0x28 }
  - { offset: 0x1482A1, size: 0x8, addend: 0x0, symName: __ZN3std10sys_common4wtf87Wtf8Buf25push_code_point_unchecked17he5117008cc7b5216E, symObjAddr: 0x36F9C, symBinAddr: 0x7D388, symSize: 0x124 }
  - { offset: 0x14840D, size: 0x8, addend: 0x0, symName: '__ZN74_$LT$std..sys_common..wtf8..Wtf8Buf$u20$as$u20$core..ops..deref..Deref$GT$5deref17h5545f02803c8f80cE', symObjAddr: 0x36F84, symBinAddr: 0x7D370, symSize: 0x18 }
  - { offset: 0x1484E7, size: 0x8, addend: 0x0, symName: '__ZN64_$LT$std..sys_common..wtf8..Wtf8$u20$as$u20$core..fmt..Debug$GT$3fmt17h01c62b181c72b5cdE', symObjAddr: 0x370C0, symBinAddr: 0x7D4AC, symSize: 0x21C }
  - { offset: 0x148794, size: 0x8, addend: 0x0, symName: '__ZN64_$LT$std..sys_common..wtf8..Wtf8$u20$as$u20$core..fmt..Debug$GT$3fmt17write_str_escaped17habeda8e9b6ef8e1eE', symObjAddr: 0x372DC, symBinAddr: 0x7D6C8, symSize: 0x320 }
  - { offset: 0x148A15, size: 0x8, addend: 0x0, symName: '__ZN66_$LT$std..sys_common..wtf8..Wtf8$u20$as$u20$core..fmt..Display$GT$3fmt17hb9830eabf2a4c043E', symObjAddr: 0x375FC, symBinAddr: 0x7D9E8, symSize: 0x1E4 }
  - { offset: 0x148BE8, size: 0x8, addend: 0x0, symName: __ZN3std10sys_common4wtf816slice_error_fail17h8f85e77ce60fb980E, symObjAddr: 0x377E0, symBinAddr: 0x7DBCC, symSize: 0x8C }
  - { offset: 0x148C31, size: 0x8, addend: 0x0, symName: __ZN3std4pipe10PipeReader9try_clone17h185984fcffa8a737E, symObjAddr: 0x32874, symBinAddr: 0x79694, symSize: 0x88 }
  - { offset: 0x148D27, size: 0x8, addend: 0x0, symName: '__ZN59_$LT$$RF$std..pipe..PipeReader$u20$as$u20$std..io..Read$GT$4read17h2d2af7f008861fe6E', symObjAddr: 0x328FC, symBinAddr: 0x7971C, symSize: 0x50 }
  - { offset: 0x148E2C, size: 0x8, addend: 0x0, symName: '__ZN59_$LT$$RF$std..pipe..PipeReader$u20$as$u20$std..io..Read$GT$13read_vectored17h22aac44c262d398aE', symObjAddr: 0x3294C, symBinAddr: 0x7976C, symSize: 0x50 }
  - { offset: 0x148F31, size: 0x8, addend: 0x0, symName: '__ZN59_$LT$$RF$std..pipe..PipeReader$u20$as$u20$std..io..Read$GT$11read_to_end17h8e9c58201554956fE', symObjAddr: 0x3299C, symBinAddr: 0x797BC, symSize: 0x14 }
  - { offset: 0x148F4B, size: 0x8, addend: 0x0, symName: '__ZN59_$LT$$RF$std..pipe..PipeReader$u20$as$u20$std..io..Read$GT$8read_buf17h3b69056b1f6f5825E', symObjAddr: 0x329B0, symBinAddr: 0x797D0, symSize: 0x7C }
  - { offset: 0x149130, size: 0x8, addend: 0x0, symName: '__ZN55_$LT$std..pipe..PipeReader$u20$as$u20$std..io..Read$GT$11read_to_end17h8e6989b405345275E', symObjAddr: 0x32A2C, symBinAddr: 0x7984C, symSize: 0x10 }
  - { offset: 0x149150, size: 0x8, addend: 0x0, symName: '__ZN60_$LT$$RF$std..pipe..PipeWriter$u20$as$u20$std..io..Write$GT$5write17h99dd5cf3805ee463E', symObjAddr: 0x32A3C, symBinAddr: 0x7985C, symSize: 0x50 }
  - { offset: 0x149258, size: 0x8, addend: 0x0, symName: '__ZN60_$LT$$RF$std..pipe..PipeWriter$u20$as$u20$std..io..Write$GT$14write_vectored17h0136097c29228641E', symObjAddr: 0x32A8C, symBinAddr: 0x798AC, symSize: 0x50 }
  - { offset: 0x149366, size: 0x8, addend: 0x0, symName: '__ZN56_$LT$std..pipe..PipeWriter$u20$as$u20$std..io..Write$GT$5write17h06706f538c2c4d3eE', symObjAddr: 0x32ADC, symBinAddr: 0x798FC, symSize: 0x4C }
  - { offset: 0x14946E, size: 0x8, addend: 0x0, symName: '__ZN56_$LT$std..pipe..PipeWriter$u20$as$u20$std..io..Write$GT$14write_vectored17h9dd41bbf66ff562fE', symObjAddr: 0x32B28, symBinAddr: 0x79948, symSize: 0x4C }
  - { offset: 0x149582, size: 0x8, addend: 0x0, symName: '__ZN79_$LT$std..random..DefaultRandomSource$u20$as$u20$core..random..RandomSource$GT$10fill_bytes17h64acf431bece2142E', symObjAddr: 0x33B04, symBinAddr: 0x7A918, symSize: 0x68 }
  - { offset: 0x1495B1, size: 0x8, addend: 0x0, symName: __ZN3std5alloc20set_alloc_error_hook17hd221648460304535E, symObjAddr: 0x3786C, symBinAddr: 0x7DC58, symSize: 0x1C }
  - { offset: 0x1495F8, size: 0x8, addend: 0x0, symName: __ZN3std5alloc21take_alloc_error_hook17h7569abb2a2bb3769E, symObjAddr: 0x37888, symBinAddr: 0x7DC74, symSize: 0x2C }
  - { offset: 0x14963F, size: 0x8, addend: 0x0, symName: __ZN3std5alloc24default_alloc_error_hook17h5cca8f42fb77b5beE, symObjAddr: 0x378B4, symBinAddr: 0x7DCA0, symSize: 0x13C }
  - { offset: 0x149878, size: 0x8, addend: 0x0, symName: ___rdl_alloc, symObjAddr: 0x379F0, symBinAddr: 0x7DDDC, symSize: 0x6C }
  - { offset: 0x149907, size: 0x8, addend: 0x0, symName: ___rdl_dealloc, symObjAddr: 0x37A5C, symBinAddr: 0x7DE48, symSize: 0x10 }
  - { offset: 0x149934, size: 0x8, addend: 0x0, symName: ___rdl_realloc, symObjAddr: 0x37A6C, symBinAddr: 0x7DE58, symSize: 0xB0 }
  - { offset: 0x149A2F, size: 0x8, addend: 0x0, symName: ___rdl_alloc_zeroed, symObjAddr: 0x37B1C, symBinAddr: 0x7DF08, symSize: 0x90 }
  - { offset: 0x149AE0, size: 0x8, addend: 0x0, symName: __ZN3std5alloc8rust_oom17ha54d832161426ec7E, symObjAddr: 0x45544, symBinAddr: 0x8AE08, symSize: 0x2C }
  - { offset: 0x149B2C, size: 0x8, addend: 0x0, symName: ___rg_oom, symObjAddr: 0x45570, symBinAddr: 0x8AE34, symSize: 0x18 }
  - { offset: 0x149BE4, size: 0x8, addend: 0x0, symName: '__ZN9addr2line8function17Function$LT$R$GT$14parse_children17h5a96da23ad314619E', symObjAddr: 0x1C9D0, symBinAddr: 0x63BFC, symSize: 0x1084 }
  - { offset: 0x14B0C8, size: 0x8, addend: 0x0, symName: __ZN9addr2line8function10name_entry17h60ce7a95dfc3cfa2E, symObjAddr: 0x1C668, symBinAddr: 0x63894, symSize: 0x368 }
  - { offset: 0x14B4E0, size: 0x8, addend: 0x0, symName: __ZN9addr2line8function9name_attr17h8910c26a4607af82E, symObjAddr: 0x1DA54, symBinAddr: 0x64C80, symSize: 0x1B4 }
  - { offset: 0x14B668, size: 0x8, addend: 0x0, symName: __ZN9addr2line11render_file17h9f078ff6f661a719E, symObjAddr: 0x18A38, symBinAddr: 0x5FC64, symSize: 0x4B8 }
  - { offset: 0x14BEF6, size: 0x8, addend: 0x0, symName: '__ZN9addr2line16Context$LT$R$GT$9find_unit17h02e652107e14180dE', symObjAddr: 0x18EF0, symBinAddr: 0x6011C, symSize: 0x168 }
  - { offset: 0x14C103, size: 0x8, addend: 0x0, symName: '__ZN9addr2line16ResUnit$LT$R$GT$25find_function_or_location17h88e9cf0d105a9d5cE', symObjAddr: 0x19058, symBinAddr: 0x60284, symSize: 0x3B4 }
  - { offset: 0x14C52F, size: 0x8, addend: 0x0, symName: '__ZN9addr2line16ResUnit$LT$R$GT$25find_function_or_location28_$u7b$$u7b$closure$u7d$$u7d$17hf794ef008246ce60E', symObjAddr: 0x1940C, symBinAddr: 0x60638, symSize: 0x16F8 }
  - { offset: 0x14F0D6, size: 0x8, addend: 0x0, symName: '__ZN9addr2line18FrameIter$LT$R$GT$4next17h5d9dc218a3d70785E', symObjAddr: 0x1AB04, symBinAddr: 0x61D30, symSize: 0x2FC }
  - { offset: 0x14F594, size: 0x8, addend: 0x0, symName: '__ZN9addr2line30LoopingLookup$LT$T$C$L$C$F$GT$10new_lookup17h69ec4693d316778dE', symObjAddr: 0x1AE00, symBinAddr: 0x6202C, symSize: 0x404 }
  - { offset: 0x14FA7C, size: 0x8, addend: 0x0, symName: __ZN9addr2line5Lines5parse17h239c9d0fb9e4388cE, symObjAddr: 0x1B204, symBinAddr: 0x62430, symSize: 0x1464 }
  - { offset: 0x1526D7, size: 0x8, addend: 0x0, symName: __ZN5gimli4read6reader6Reader11read_offset17h507167eba07c55b2E, symObjAddr: 0x1688C, symBinAddr: 0x5DAB8, symSize: 0xBC }
  - { offset: 0x152913, size: 0x8, addend: 0x0, symName: __ZN5gimli4read6reader6Reader12read_sleb12817h8ea8408dd43930a7E, symObjAddr: 0x16948, symBinAddr: 0x5DB74, symSize: 0x21C }
  - { offset: 0x152A02, size: 0x8, addend: 0x0, symName: __ZN5gimli4read6reader6Reader12read_uleb12817h3f9bded8998600a1E, symObjAddr: 0x16B64, symBinAddr: 0x5DD90, symSize: 0xB0 }
  - { offset: 0x152AB7, size: 0x8, addend: 0x0, symName: __ZN5gimli4read6reader6Reader17read_sized_offset17h7fb8b8082a308758E, symObjAddr: 0x16C14, symBinAddr: 0x5DE40, symSize: 0xEC }
  - { offset: 0x152EE8, size: 0x8, addend: 0x0, symName: '__ZN5gimli4read4unit32AttributeValue$LT$R$C$Offset$GT$11udata_value17h78a0cae784eb90bbE', symObjAddr: 0x13DF8, symBinAddr: 0x5B024, symSize: 0x90 }
  - { offset: 0x152F43, size: 0x8, addend: 0x0, symName: __ZN5gimli4read4unit15parse_attribute17h948770c1726d773bE, symObjAddr: 0x120E0, symBinAddr: 0x5930C, symSize: 0xF68 }
  - { offset: 0x155B99, size: 0x8, addend: 0x0, symName: __ZN5gimli4read4unit15skip_attributes17hf7d782d82a91ce5dE, symObjAddr: 0x13048, symBinAddr: 0x5A274, symSize: 0x520 }
  - { offset: 0x1565B6, size: 0x8, addend: 0x0, symName: '__ZN5gimli4read4unit18Attribute$LT$R$GT$5value17hed9fc3bf893aa23aE', symObjAddr: 0x13568, symBinAddr: 0x5A794, symSize: 0x5DC }
  - { offset: 0x156B22, size: 0x8, addend: 0x0, symName: '__ZN5gimli4read4unit22EntriesCursor$LT$R$GT$10next_entry17hd23780b78bf6f453E', symObjAddr: 0x13B44, symBinAddr: 0x5AD70, symSize: 0x2B4 }
  - { offset: 0x157094, size: 0x8, addend: 0x0, symName: '__ZN5gimli4read4unit33DebugInfoUnitHeadersIter$LT$R$GT$4next17h7b27487e1890ae2aE', symObjAddr: 0x13E88, symBinAddr: 0x5B0B4, symSize: 0x4D4 }
  - { offset: 0x1581FA, size: 0x8, addend: 0x0, symName: '__ZN90_$LT$gimli..read..unit..AttributeValue$LT$R$C$Offset$GT$$u20$as$u20$core..clone..Clone$GT$5clone17hac5ae9c9c6c8d42fE', symObjAddr: 0x184D0, symBinAddr: 0x5F6FC, symSize: 0x68 }
  - { offset: 0x158320, size: 0x8, addend: 0x0, symName: __ZN5gimli4read4line13parse_file_v517h64c1bf063e2a127bE, symObjAddr: 0x10FB8, symBinAddr: 0x581E4, symSize: 0x278 }
  - { offset: 0x158497, size: 0x8, addend: 0x0, symName: __ZN5gimli4read4line15FileEntryFormat5parse17hf3c6024dca6e391dE, symObjAddr: 0x11230, symBinAddr: 0x5845C, symSize: 0x350 }
  - { offset: 0x158CA5, size: 0x8, addend: 0x0, symName: __ZN5gimli4read4line15parse_attribute17hcacf4681423038ddE, symObjAddr: 0x11580, symBinAddr: 0x587AC, symSize: 0x868 }
  - { offset: 0x15A43A, size: 0x8, addend: 0x0, symName: __ZN5gimli4read4line18parse_directory_v517heb01e2d78153f60bE, symObjAddr: 0x11DE8, symBinAddr: 0x59014, symSize: 0xE8 }
  - { offset: 0x15A4CA, size: 0x8, addend: 0x0, symName: '__ZN5gimli4read4line27FileEntry$LT$R$C$Offset$GT$5parse17hadc56d2b0249308dE', symObjAddr: 0x11ED0, symBinAddr: 0x590FC, symSize: 0x210 }
  - { offset: 0x15A7B3, size: 0x8, addend: 0x0, symName: '__ZN93_$LT$gimli..read..line..LineProgramHeader$LT$R$C$Offset$GT$$u20$as$u20$core..clone..Clone$GT$5clone17h02398f1a99a50a4fE', symObjAddr: 0x18538, symBinAddr: 0x5F764, symSize: 0x448 }
  - { offset: 0x15B3DC, size: 0x8, addend: 0x0, symName: '__ZN5gimli4read5dwarf14Dwarf$LT$R$GT$11attr_string17h23281c43e7d8666cE', symObjAddr: 0x15FC4, symBinAddr: 0x5D1F0, symSize: 0x1E8 }
  - { offset: 0x15BBFD, size: 0x8, addend: 0x0, symName: '__ZN5gimli4read5dwarf13Unit$LT$R$GT$3new17h60a6e7428346a71eE', symObjAddr: 0x1435C, symBinAddr: 0x5B588, symSize: 0x1C68 }
  - { offset: 0x15F75D, size: 0x8, addend: 0x0, symName: '__ZN5gimli4read5index18UnitIndex$LT$R$GT$5parse17h55b5c12b00c2d27cE', symObjAddr: 0x161AC, symBinAddr: 0x5D3D8, symSize: 0x6E0 }
  - { offset: 0x15FD31, size: 0x8, addend: 0x0, symName: '__ZN5gimli4read7aranges30ArangeHeader$LT$R$C$Offset$GT$5parse17h8b32058b43fa7eedE', symObjAddr: 0x16D00, symBinAddr: 0x5DF2C, symSize: 0x29C }
  - { offset: 0x160561, size: 0x8, addend: 0x0, symName: '__ZN5gimli4read8rnglists20RngListIter$LT$R$GT$4next17hed01def4856eca9aE', symObjAddr: 0x16F9C, symBinAddr: 0x5E1C8, symSize: 0xC3C }
  - { offset: 0x16341C, size: 0x8, addend: 0x0, symName: __ZN6object4read7archive13ArchiveMember5parse17hec8f05bf7f831dc2E, symObjAddr: 0x18094, symBinAddr: 0x5F2C0, symSize: 0x2E0 }
  - { offset: 0x1639A9, size: 0x8, addend: 0x0, symName: __ZN6object4read7archive23parse_bsd_extended_name17hcd252cd855568d2fE, symObjAddr: 0x18374, symBinAddr: 0x5F5A0, symSize: 0xB8 }
  - { offset: 0x1640D8, size: 0x8, addend: 0x0, symName: _OUTLINED_FUNCTION_0, symObjAddr: 0x4B37C, symBinAddr: 0x90C40, symSize: 0x24 }
  - { offset: 0x1640F0, size: 0x8, addend: 0x0, symName: _OUTLINED_FUNCTION_1, symObjAddr: 0x4B3A0, symBinAddr: 0x90C64, symSize: 0x8 }
  - { offset: 0x164108, size: 0x8, addend: 0x0, symName: _OUTLINED_FUNCTION_2, symObjAddr: 0x4B3A8, symBinAddr: 0x90C6C, symSize: 0x8 }
  - { offset: 0x164120, size: 0x8, addend: 0x0, symName: _OUTLINED_FUNCTION_3, symObjAddr: 0x4B3B0, symBinAddr: 0x90C74, symSize: 0x8 }
  - { offset: 0x164138, size: 0x8, addend: 0x0, symName: _OUTLINED_FUNCTION_4, symObjAddr: 0x4B3B8, symBinAddr: 0x90C7C, symSize: 0x8 }
  - { offset: 0x164150, size: 0x8, addend: 0x0, symName: _OUTLINED_FUNCTION_5, symObjAddr: 0x4B3C0, symBinAddr: 0x90C84, symSize: 0xC }
  - { offset: 0x164168, size: 0x8, addend: 0x0, symName: _OUTLINED_FUNCTION_6, symObjAddr: 0x4B3CC, symBinAddr: 0x90C90, symSize: 0xC }
  - { offset: 0x164180, size: 0x8, addend: 0x0, symName: _OUTLINED_FUNCTION_7, symObjAddr: 0x4B3D8, symBinAddr: 0x90C9C, symSize: 0xC }
  - { offset: 0x1641B6, size: 0x8, addend: 0x0, symName: '__ZN4core3ptr49drop_in_place$LT$panic_unwind..imp..Exception$GT$17hed54968f30dd5290E', symObjAddr: 0x0, symBinAddr: 0x90CA8, symSize: 0x78 }
  - { offset: 0x1641DC, size: 0x8, addend: 0x0, symName: '__ZN4core3ptr49drop_in_place$LT$panic_unwind..imp..Exception$GT$17hed54968f30dd5290E', symObjAddr: 0x0, symBinAddr: 0x90CA8, symSize: 0x78 }
  - { offset: 0x1642E3, size: 0x8, addend: 0x0, symName: '__ZN4core3ptr74drop_in_place$LT$alloc..boxed..Box$LT$panic_unwind..imp..Exception$GT$$GT$17h6b9081c1409d55c1E', symObjAddr: 0x78, symBinAddr: 0x90D20, symSize: 0x8C }
  - { offset: 0x1645B8, size: 0x8, addend: 0x0, symName: __ZN12panic_unwind3imp5panic17exception_cleanup17hc2dfc11f5b65ae4bE, symObjAddr: 0x214, symBinAddr: 0x90EBC, symSize: 0x18 }
  - { offset: 0x1645D4, size: 0x8, addend: 0x0, symName: ___rust_panic_cleanup, symObjAddr: 0x104, symBinAddr: 0x90DAC, symSize: 0x68 }
  - { offset: 0x164676, size: 0x8, addend: 0x0, symName: ___rust_start_panic, symObjAddr: 0x16C, symBinAddr: 0x90E14, symSize: 0xA8 }
  - { offset: 0x164730, size: 0x8, addend: 0x0, symName: '__ZN42_$LT$$RF$T$u20$as$u20$core..fmt..Debug$GT$3fmt17hc10e7420f6dffb19E', symObjAddr: 0x0, symBinAddr: 0x94A14, symSize: 0x30 }
  - { offset: 0x16477A, size: 0x8, addend: 0x0, symName: '__ZN42_$LT$$RF$T$u20$as$u20$core..fmt..Debug$GT$3fmt17hc10e7420f6dffb19E', symObjAddr: 0x0, symBinAddr: 0x94A14, symSize: 0x30 }
  - { offset: 0x1647E9, size: 0x8, addend: 0x0, symName: __ZN4core9panicking13assert_failed17h01057eccb24808cdE, symObjAddr: 0x30, symBinAddr: 0xD1780, symSize: 0x38 }
  - { offset: 0x164E06, size: 0x8, addend: 0x0, symName: __ZN6memchr6memchr8fallback6memchr17h9a7d91b4f82895aaE, symObjAddr: 0x68, symBinAddr: 0x94A44, symSize: 0x148 }
  - { offset: 0x164E1D, size: 0x8, addend: 0x0, symName: __ZN6memchr6memchr8fallback6memchr17h9a7d91b4f82895aaE, symObjAddr: 0x68, symBinAddr: 0x94A44, symSize: 0x148 }
  - { offset: 0x164F0C, size: 0x8, addend: 0x0, symName: __ZN6memchr6memchr8fallback7memchr217h38dab6640d5cf3f6E, symObjAddr: 0x1B0, symBinAddr: 0x94B8C, symSize: 0x154 }
  - { offset: 0x164F29, size: 0x8, addend: 0x0, symName: __ZN6memchr6memchr8fallback7memchr217h38dab6640d5cf3f6E, symObjAddr: 0x1B0, symBinAddr: 0x94B8C, symSize: 0x154 }
  - { offset: 0x16507A, size: 0x8, addend: 0x0, symName: __ZN6memchr6memchr8fallback7memchr317hafed0fa242bbdc25E, symObjAddr: 0x304, symBinAddr: 0x94CE0, symSize: 0x18C }
  - { offset: 0x165097, size: 0x8, addend: 0x0, symName: __ZN6memchr6memchr8fallback7memchr317hafed0fa242bbdc25E, symObjAddr: 0x304, symBinAddr: 0x94CE0, symSize: 0x18C }
  - { offset: 0x1651F0, size: 0x8, addend: 0x0, symName: __ZN6memchr6memchr8fallback7memrchr17hc1d2f49453f4f6ecE, symObjAddr: 0x490, symBinAddr: 0x94E6C, symSize: 0x130 }
  - { offset: 0x165207, size: 0x8, addend: 0x0, symName: __ZN6memchr6memchr8fallback7memrchr17hc1d2f49453f4f6ecE, symObjAddr: 0x490, symBinAddr: 0x94E6C, symSize: 0x130 }
  - { offset: 0x1652A4, size: 0x8, addend: 0x0, symName: __ZN6memchr6memchr8fallback8memrchr217h7b1b6ee0be3d7d91E, symObjAddr: 0x5C0, symBinAddr: 0x94F9C, symSize: 0x144 }
  - { offset: 0x1652C1, size: 0x8, addend: 0x0, symName: __ZN6memchr6memchr8fallback8memrchr217h7b1b6ee0be3d7d91E, symObjAddr: 0x5C0, symBinAddr: 0x94F9C, symSize: 0x144 }
  - { offset: 0x1653C8, size: 0x8, addend: 0x0, symName: __ZN6memchr6memchr8fallback8memrchr317h324e2ab5b51a436fE, symObjAddr: 0x704, symBinAddr: 0x950E0, symSize: 0x17C }
  - { offset: 0x1653E5, size: 0x8, addend: 0x0, symName: __ZN6memchr6memchr8fallback8memrchr317h324e2ab5b51a436fE, symObjAddr: 0x704, symBinAddr: 0x950E0, symSize: 0x17C }
  - { offset: 0x16562A, size: 0x8, addend: 0x0, symName: __ZN6memchr6memmem9prefilter8fallback4find17hd8329412f41edffbE, symObjAddr: 0x880, symBinAddr: 0x9525C, symSize: 0x240 }
  - { offset: 0x1657EB, size: 0x8, addend: 0x0, symName: '__ZN75_$LT$memchr..memmem..prefilter..PrefilterFn$u20$as$u20$core..fmt..Debug$GT$3fmt17hc09b70f550f9b5a1E', symObjAddr: 0xAC0, symBinAddr: 0x9549C, symSize: 0x20 }
  - { offset: 0x165949, size: 0x8, addend: 0x0, symName: __ZN6memchr6memmem9rabinkarp4find17hca20a4ff56292241E, symObjAddr: 0xAE0, symBinAddr: 0x954BC, symSize: 0x12C }
  - { offset: 0x165B18, size: 0x8, addend: 0x0, symName: __ZN6memchr6memmem9rabinkarp5rfind17h225ffd3602b46ae7E, symObjAddr: 0xC0C, symBinAddr: 0x955E8, symSize: 0x15C }
  - { offset: 0x165CD6, size: 0x8, addend: 0x0, symName: __ZN6memchr6memmem9rabinkarp10rfind_with17h3b9b93dc156cbc5fE, symObjAddr: 0xD68, symBinAddr: 0x95744, symSize: 0xE0 }
  - { offset: 0x165DB6, size: 0x8, addend: 0x0, symName: __ZN6memchr6memmem9rabinkarp9is_prefix17hebf3adbebf958a9cE, symObjAddr: 0xE48, symBinAddr: 0xD17B8, symSize: 0xE0 }
  - { offset: 0x165E91, size: 0x8, addend: 0x0, symName: __ZN6memchr6memmem9rabinkarp9is_suffix17h2275ce5477eacdd3E, symObjAddr: 0xF28, symBinAddr: 0xD1898, symSize: 0xDC }
  - { offset: 0x166071, size: 0x8, addend: 0x0, symName: __ZN6memchr6memmem8Searcher3new17h2aa2be29d8b2b7fdE, symObjAddr: 0x1A9C, symBinAddr: 0x962BC, symSize: 0x7A8 }
  - { offset: 0x1664AA, size: 0x8, addend: 0x0, symName: __ZN6memchr6memmem8Searcher7find_tw17h709fb61352957be3E, symObjAddr: 0x2244, symBinAddr: 0x96A64, symSize: 0x780 }
  - { offset: 0x16682A, size: 0x8, addend: 0x0, symName: __ZN6memchr6memmem6Finder4find17he3ddc5eb29194132E, symObjAddr: 0x1838, symBinAddr: 0x96058, symSize: 0x264 }
  - { offset: 0x166A96, size: 0x8, addend: 0x0, symName: '__ZN83_$LT$memchr..memmem..FindIter$u20$as$u20$core..iter..traits..iterator..Iterator$GT$4next17h39fc67b8adebd223E', symObjAddr: 0x1004, symBinAddr: 0x95824, symSize: 0x2A8 }
  - { offset: 0x166DAC, size: 0x8, addend: 0x0, symName: __ZN6memchr6memmem11SearcherRev3new17hdf90e8b31a9cf6c5E, symObjAddr: 0x29C4, symBinAddr: 0x971E4, symSize: 0x5CC }
  - { offset: 0x167194, size: 0x8, addend: 0x0, symName: '__ZN86_$LT$memchr..memmem..FindRevIter$u20$as$u20$core..iter..traits..iterator..Iterator$GT$4next17h6357aa1e631a9836E', symObjAddr: 0x12AC, symBinAddr: 0x95ACC, symSize: 0x58C }
  - { offset: 0x1674A2, size: 0x8, addend: 0x0, symName: __ZN9hashbrown3raw11Fallibility17capacity_overflow17he1c862772a4ef7bfE, symObjAddr: 0x0, symBinAddr: 0xAD3EC, symSize: 0x44 }
  - { offset: 0x167596, size: 0x8, addend: 0x0, symName: __ZN9hashbrown3raw11Fallibility17capacity_overflow17he1c862772a4ef7bfE, symObjAddr: 0x0, symBinAddr: 0xAD3EC, symSize: 0x44 }
  - { offset: 0x1675C5, size: 0x8, addend: 0x0, symName: __ZN9hashbrown3raw11Fallibility9alloc_err17hefae1a4e1c23ead4E, symObjAddr: 0x44, symBinAddr: 0xAD430, symSize: 0x24 }
  - { offset: 0x1676AC, size: 0x8, addend: 0x0, symName: __ZN9hashbrown3raw16RawIterHashInner3new17h9123fa7483aeaaefE, symObjAddr: 0x68, symBinAddr: 0xAD454, symSize: 0x44 }
  - { offset: 0x1677DE, size: 0x8, addend: 0x0, symName: '__ZN91_$LT$hashbrown..raw..RawIterHashInner$u20$as$u20$core..iter..traits..iterator..Iterator$GT$4next17hf39fa754a9915ca1E', symObjAddr: 0xAC, symBinAddr: 0xAD498, symSize: 0xA0 }
  - { offset: 0x167946, size: 0x8, addend: 0x0, symName: '__ZN42_$LT$$RF$T$u20$as$u20$core..fmt..Debug$GT$3fmt17ha0ef3460bf7134daE', symObjAddr: 0x0, symBinAddr: 0xAD538, symSize: 0x1C }
  - { offset: 0x167963, size: 0x8, addend: 0x0, symName: '__ZN42_$LT$$RF$T$u20$as$u20$core..fmt..Debug$GT$3fmt17ha0ef3460bf7134daE', symObjAddr: 0x0, symBinAddr: 0xAD538, symSize: 0x1C }
  - { offset: 0x16799D, size: 0x8, addend: 0x0, symName: __ZN4core3fmt5Write9write_fmt17h415e08f145dfb262E, symObjAddr: 0x1C, symBinAddr: 0xAD554, symSize: 0x1C }
  - { offset: 0x1679DF, size: 0x8, addend: 0x0, symName: '__ZN53_$LT$core..fmt..Error$u20$as$u20$core..fmt..Debug$GT$3fmt17he86a5143693380e6E', symObjAddr: 0xDC, symBinAddr: 0xAD614, symSize: 0x20 }
  - { offset: 0x167AF6, size: 0x8, addend: 0x0, symName: '__ZN4core3ptr205drop_in_place$LT$$LT$alloc..boxed..Box$LT$dyn$u20$core..error..Error$u2b$core..marker..Send$u2b$core..marker..Sync$GT$$u20$as$u20$core..convert..From$LT$alloc..string..String$GT$$GT$..from..StringError$GT$17heaad1687d35e3e23E', symObjAddr: 0x38, symBinAddr: 0xAD570, symSize: 0x28 }
  - { offset: 0x167B99, size: 0x8, addend: 0x0, symName: '__ZN4core3ptr42drop_in_place$LT$alloc..string..String$GT$17hf3dc24f1a9d3aa6cE', symObjAddr: 0x60, symBinAddr: 0xAD598, symSize: 0x28 }
  - { offset: 0x167E0A, size: 0x8, addend: 0x0, symName: __ZN4core5error5Error5cause17h3e78fac579f0d2cdE, symObjAddr: 0x88, symBinAddr: 0xAD5C0, symSize: 0x14 }
  - { offset: 0x167E24, size: 0x8, addend: 0x0, symName: __ZN4core5error5Error7provide17h04158b094f99fafbE, symObjAddr: 0x9C, symBinAddr: 0xAD5D4, symSize: 0x10 }
  - { offset: 0x167E3E, size: 0x8, addend: 0x0, symName: __ZN4core5error5Error7type_id17ha8c7e9ae09d6f731E, symObjAddr: 0xAC, symBinAddr: 0xAD5E4, symSize: 0x30 }
  - { offset: 0x167E69, size: 0x8, addend: 0x0, symName: '__ZN69_$LT$core..alloc..layout..LayoutError$u20$as$u20$core..fmt..Debug$GT$3fmt17h38f65cacd4e5603aE', symObjAddr: 0xFC, symBinAddr: 0xAD634, symSize: 0x20 }
  - { offset: 0x168532, size: 0x8, addend: 0x0, symName: '__ZN5alloc3ffi5c_str40_$LT$impl$u20$core..ffi..c_str..CStr$GT$15to_string_lossy17hca96055bc4172724E', symObjAddr: 0x17B0, symBinAddr: 0xAEC1C, symSize: 0x14 }
  - { offset: 0x168563, size: 0x8, addend: 0x0, symName: '__ZN5alloc3ffi5c_str40_$LT$impl$u20$core..ffi..c_str..CStr$GT$13into_c_string17h0c9912f37761ecd8E', symObjAddr: 0x17C4, symBinAddr: 0xAEC30, symSize: 0x10 }
  - { offset: 0x168EF1, size: 0x8, addend: 0x0, symName: __ZN5alloc7raw_vec17capacity_overflow17h6035597745bd01e1E, symObjAddr: 0x11C, symBinAddr: 0xAD654, symSize: 0x38 }
  - { offset: 0x168F33, size: 0x8, addend: 0x0, symName: '__ZN5alloc7raw_vec19RawVec$LT$T$C$A$GT$8grow_one17hadb5daffdf9dd647E', symObjAddr: 0x154, symBinAddr: 0xAD68C, symSize: 0xA0 }
  - { offset: 0x1691A0, size: 0x8, addend: 0x0, symName: '__ZN5alloc7raw_vec20RawVecInner$LT$A$GT$7reserve21do_reserve_and_handle17h02645e5a46a7b399E', symObjAddr: 0x1F4, symBinAddr: 0xD19C8, symSize: 0xA0 }
  - { offset: 0x1692B9, size: 0x8, addend: 0x0, symName: __ZN5alloc7raw_vec11finish_grow17hb0bd977838508dd5E, symObjAddr: 0x294, symBinAddr: 0xAD72C, symSize: 0x88 }
  - { offset: 0x16932E, size: 0x8, addend: 0x0, symName: __ZN5alloc7raw_vec12handle_error17hbe5ce02d989aad7dE, symObjAddr: 0x31C, symBinAddr: 0xD1A68, symSize: 0x14 }
  - { offset: 0x16942D, size: 0x8, addend: 0x0, symName: __ZN5alloc5alloc18handle_alloc_error8ct_error17h1374e75f1bc6e215E, symObjAddr: 0x348, symBinAddr: 0xAD7B4, symSize: 0x38 }
  - { offset: 0x16945E, size: 0x8, addend: 0x0, symName: __ZN5alloc5alloc18handle_alloc_error17h0a3050efcb156a76E, symObjAddr: 0x330, symBinAddr: 0xD1A7C, symSize: 0x18 }
  - { offset: 0x169494, size: 0x8, addend: 0x0, symName: ___rdl_oom, symObjAddr: 0x380, symBinAddr: 0xAD7EC, symSize: 0xA4 }
  - { offset: 0x169539, size: 0x8, addend: 0x0, symName: '__ZN88_$LT$alloc..collections..btree..map..UnorderedKeyError$u20$as$u20$core..fmt..Display$GT$3fmt17hd156fab08b5984c2E', symObjAddr: 0xCAC, symBinAddr: 0xAE118, symSize: 0x24 }
  - { offset: 0x16957B, size: 0x8, addend: 0x0, symName: '__ZN93_$LT$alloc..collections..btree..mem..replace..PanicGuard$u20$as$u20$core..ops..drop..Drop$GT$4drop17hd9245f00ec3723f9E', symObjAddr: 0xCD0, symBinAddr: 0xAE13C, symSize: 0xC }
  - { offset: 0x16959E, size: 0x8, addend: 0x0, symName: '__ZN74_$LT$alloc..collections..TryReserveError$u20$as$u20$core..fmt..Display$GT$3fmt17h728f07ed85bfed22E', symObjAddr: 0xCDC, symBinAddr: 0xAE148, symSize: 0x74 }
  - { offset: 0x16961D, size: 0x8, addend: 0x0, symName: '__ZN67_$LT$alloc..boxed..Box$LT$str$GT$$u20$as$u20$core..clone..Clone$GT$5clone17hc575f0c658516a2cE', symObjAddr: 0x424, symBinAddr: 0xAD890, symSize: 0x80 }
  - { offset: 0x169737, size: 0x8, addend: 0x0, symName: '__ZN223_$LT$$LT$alloc..boxed..Box$LT$dyn$u20$core..error..Error$u2b$core..marker..Send$u2b$core..marker..Sync$GT$$u20$as$u20$core..convert..From$LT$alloc..string..String$GT$$GT$..from..StringError$u20$as$u20$core..error..Error$GT$11description17hc43c21224f03a43aE', symObjAddr: 0x4A4, symBinAddr: 0xAD910, symSize: 0x18 }
  - { offset: 0x1697F2, size: 0x8, addend: 0x0, symName: '__ZN223_$LT$$LT$alloc..boxed..Box$LT$dyn$u20$core..error..Error$u2b$core..marker..Send$u2b$core..marker..Sync$GT$$u20$as$u20$core..convert..From$LT$alloc..string..String$GT$$GT$..from..StringError$u20$as$u20$core..fmt..Display$GT$3fmt17h8d04154494b47114E', symObjAddr: 0x4BC, symBinAddr: 0xAD928, symSize: 0x1C }
  - { offset: 0x169829, size: 0x8, addend: 0x0, symName: '__ZN221_$LT$$LT$alloc..boxed..Box$LT$dyn$u20$core..error..Error$u2b$core..marker..Send$u2b$core..marker..Sync$GT$$u20$as$u20$core..convert..From$LT$alloc..string..String$GT$$GT$..from..StringError$u20$as$u20$core..fmt..Debug$GT$3fmt17h4f7a51c962ea880eE', symObjAddr: 0x4D8, symBinAddr: 0xAD944, symSize: 0x1C }
  - { offset: 0x16989E, size: 0x8, addend: 0x0, symName: '__ZN120_$LT$alloc..boxed..Box$LT$dyn$u20$core..error..Error$GT$$u20$as$u20$core..convert..From$LT$alloc..string..String$GT$$GT$4from17h8ed31ded0bc70da2E', symObjAddr: 0x4F4, symBinAddr: 0xAD960, symSize: 0x84 }
  - { offset: 0x169A09, size: 0x8, addend: 0x0, symName: '__ZN106_$LT$alloc..boxed..Box$LT$dyn$u20$core..error..Error$GT$$u20$as$u20$core..convert..From$LT$$RF$str$GT$$GT$4from17h59e8c4713237c025E', symObjAddr: 0x578, symBinAddr: 0xAD9E4, symSize: 0xD8 }
  - { offset: 0x169CC2, size: 0x8, addend: 0x0, symName: '__ZN174_$LT$alloc..boxed..Box$LT$dyn$u20$core..error..Error$u2b$core..marker..Send$u2b$core..marker..Sync$GT$$u20$as$u20$core..convert..From$LT$alloc..borrow..Cow$LT$str$GT$$GT$$GT$4from17h365c6c2451e8218bE', symObjAddr: 0x650, symBinAddr: 0xADABC, symSize: 0xEC }
  - { offset: 0x169F7B, size: 0x8, addend: 0x0, symName: '__ZN128_$LT$alloc..boxed..Box$LT$dyn$u20$core..error..Error$GT$$u20$as$u20$core..convert..From$LT$alloc..borrow..Cow$LT$str$GT$$GT$$GT$4from17ha65a262cda67cd0dE', symObjAddr: 0x73C, symBinAddr: 0xADBA8, symSize: 0xEC }
  - { offset: 0x16A6A4, size: 0x8, addend: 0x0, symName: '__ZN5alloc3vec16Vec$LT$T$C$A$GT$11swap_remove13assert_failed17ha8bacf0bd33759e6E', symObjAddr: 0x5068, symBinAddr: 0xD1A94, symSize: 0x34 }
  - { offset: 0x16A6DA, size: 0x8, addend: 0x0, symName: '__ZN5alloc3vec16Vec$LT$T$C$A$GT$6insert13assert_failed17hc4dbb912dbd499ceE', symObjAddr: 0x509C, symBinAddr: 0xD1AC8, symSize: 0x34 }
  - { offset: 0x16A710, size: 0x8, addend: 0x0, symName: '__ZN5alloc3vec16Vec$LT$T$C$A$GT$6remove13assert_failed17hb2517dbee879e060E', symObjAddr: 0x50D0, symBinAddr: 0xD1AFC, symSize: 0x34 }
  - { offset: 0x16A746, size: 0x8, addend: 0x0, symName: '__ZN5alloc3vec16Vec$LT$T$C$A$GT$9split_off13assert_failed17h8702778ae0f3698bE', symObjAddr: 0x5104, symBinAddr: 0xD1B30, symSize: 0x34 }
  - { offset: 0x16A791, size: 0x8, addend: 0x0, symName: '__ZN80_$LT$alloc..vec..Vec$LT$u8$GT$$u20$as$u20$core..convert..From$LT$$RF$str$GT$$GT$4from17hf754f13c4fb6611aE', symObjAddr: 0x5138, symBinAddr: 0xB24D4, symSize: 0x90 }
  - { offset: 0x16A97F, size: 0x8, addend: 0x0, symName: __ZN5alloc6string6String15from_utf8_lossy17hb6a66e2937a0fa0eE, symObjAddr: 0x2ED4, symBinAddr: 0xB0340, symSize: 0x228 }
  - { offset: 0x16AF05, size: 0x8, addend: 0x0, symName: __ZN5alloc6string6String21from_utf8_lossy_owned17h6a20262cdc645974E, symObjAddr: 0x30FC, symBinAddr: 0xB0568, symSize: 0xB8 }
  - { offset: 0x16B0F7, size: 0x8, addend: 0x0, symName: __ZN5alloc6string6String10from_utf1617he8fe441f54626db4E, symObjAddr: 0x31B4, symBinAddr: 0xB0620, symSize: 0x280 }
  - { offset: 0x16B623, size: 0x8, addend: 0x0, symName: __ZN5alloc6string6String12from_utf16le17h665c2a127a81c533E, symObjAddr: 0x3434, symBinAddr: 0xB08A0, symSize: 0x3E0 }
  - { offset: 0x16BB1E, size: 0x8, addend: 0x0, symName: __ZN5alloc6string6String18from_utf16le_lossy17hfdacc83bd8987720E, symObjAddr: 0x3814, symBinAddr: 0xB0C80, symSize: 0x414 }
  - { offset: 0x16C584, size: 0x8, addend: 0x0, symName: __ZN5alloc6string6String12from_utf16be17hb75fef09e4841f7dE, symObjAddr: 0x3C28, symBinAddr: 0xB1094, symSize: 0x3B8 }
  - { offset: 0x16CA18, size: 0x8, addend: 0x0, symName: __ZN5alloc6string6String18from_utf16be_lossy17h93c4452e2b729505E, symObjAddr: 0x3FE0, symBinAddr: 0xB144C, symSize: 0x35C }
  - { offset: 0x16D10D, size: 0x8, addend: 0x0, symName: __ZN5alloc6string6String14into_raw_parts17hcd6c0aa6664ee57fE, symObjAddr: 0x433C, symBinAddr: 0xB17A8, symSize: 0x20 }
  - { offset: 0x16D13E, size: 0x8, addend: 0x0, symName: __ZN5alloc6string6String11try_reserve17hb819b54b03d63790E, symObjAddr: 0x435C, symBinAddr: 0xB17C8, symSize: 0xC4 }
  - { offset: 0x16D2BE, size: 0x8, addend: 0x0, symName: __ZN5alloc6string6String17try_reserve_exact17h2ad5c6ad3e68883cE, symObjAddr: 0x4420, symBinAddr: 0xB188C, symSize: 0xAC }
  - { offset: 0x16D3CA, size: 0x8, addend: 0x0, symName: __ZN5alloc6string6String12insert_bytes17h144788751b492e0bE, symObjAddr: 0x44CC, symBinAddr: 0xB1938, symSize: 0x94 }
  - { offset: 0x16D601, size: 0x8, addend: 0x0, symName: '__ZN98_$LT$alloc..string..String$u20$as$u20$core..convert..From$LT$alloc..borrow..Cow$LT$str$GT$$GT$$GT$4from17h3362f50b98fe1e8cE', symObjAddr: 0x4C4C, symBinAddr: 0xB20B8, symSize: 0xB4 }
  - { offset: 0x16D7AF, size: 0x8, addend: 0x0, symName: '__ZN95_$LT$alloc..string..String$u20$as$u20$core..iter..traits..collect..FromIterator$LT$char$GT$$GT$9from_iter17h16a9bb20b6fc61ecE', symObjAddr: 0x48B8, symBinAddr: 0xB1D24, symSize: 0x2DC }
  - { offset: 0x16DD76, size: 0x8, addend: 0x0, symName: __ZN5alloc6string13FromUtf8Error8as_bytes17h965b2218ece9a7d6E, symObjAddr: 0x4560, symBinAddr: 0xB19CC, symSize: 0x18 }
  - { offset: 0x16DD91, size: 0x8, addend: 0x0, symName: __ZN5alloc6string13FromUtf8Error15into_utf8_lossy17hff24a50faab43f5fE, symObjAddr: 0x4578, symBinAddr: 0xB19E4, symSize: 0x200 }
  - { offset: 0x16E43A, size: 0x8, addend: 0x0, symName: '__ZN67_$LT$alloc..string..FromUtf8Error$u20$as$u20$core..fmt..Display$GT$3fmt17h11d6ca99829f9b41E', symObjAddr: 0x4778, symBinAddr: 0xB1BE4, symSize: 0x14 }
  - { offset: 0x16E45B, size: 0x8, addend: 0x0, symName: '__ZN68_$LT$alloc..string..FromUtf16Error$u20$as$u20$core..fmt..Display$GT$3fmt17h02c5e0f4af44d644E', symObjAddr: 0x478C, symBinAddr: 0xB1BF8, symSize: 0x20 }
  - { offset: 0x16E47C, size: 0x8, addend: 0x0, symName: '__ZN60_$LT$alloc..string..String$u20$as$u20$core..clone..Clone$GT$5clone17hb95962ed94d46547E', symObjAddr: 0x47AC, symBinAddr: 0xB1C18, symSize: 0x90 }
  - { offset: 0x16E5B6, size: 0x8, addend: 0x0, symName: '__ZN60_$LT$alloc..string..String$u20$as$u20$core..clone..Clone$GT$10clone_from17hb1eba086b96c08b8E', symObjAddr: 0x483C, symBinAddr: 0xB1CA8, symSize: 0x7C }
  - { offset: 0x16E71D, size: 0x8, addend: 0x0, symName: '__ZN73_$LT$$RF$alloc..string..String$u20$as$u20$core..str..pattern..Pattern$GT$13into_searcher17ha8862925e6e71b15E', symObjAddr: 0x4B94, symBinAddr: 0xB2000, symSize: 0x20 }
  - { offset: 0x16E754, size: 0x8, addend: 0x0, symName: '__ZN5alloc6string107_$LT$impl$u20$core..convert..From$LT$alloc..string..String$GT$$u20$for$u20$alloc..boxed..Box$LT$str$GT$$GT$4from17hb09ca83b245a45e0E', symObjAddr: 0x4BB4, symBinAddr: 0xB2020, symSize: 0x98 }
  - { offset: 0x16E8CE, size: 0x8, addend: 0x0, symName: '__ZN58_$LT$alloc..string..String$u20$as$u20$core..fmt..Write$GT$9write_str17h0e58f50c5cceb6ccE', symObjAddr: 0x4D00, symBinAddr: 0xB216C, symSize: 0x78 }
  - { offset: 0x16EA21, size: 0x8, addend: 0x0, symName: '__ZN58_$LT$alloc..string..String$u20$as$u20$core..fmt..Write$GT$10write_char17hd93e9ff1698e117fE', symObjAddr: 0x4D78, symBinAddr: 0xB21E4, symSize: 0x13C }
  - { offset: 0x16EC9A, size: 0x8, addend: 0x0, symName: __ZN5alloc6string5Drain6as_str17hfd5ba675729c09a7E, symObjAddr: 0x4F90, symBinAddr: 0xB23FC, symSize: 0x1C }
  - { offset: 0x16ED1F, size: 0x8, addend: 0x0, symName: '__ZN57_$LT$alloc..string..Drain$u20$as$u20$core..fmt..Debug$GT$3fmt17h27cfcd2c53f5dc19E', symObjAddr: 0x4EB4, symBinAddr: 0xB2320, symSize: 0x64 }
  - { offset: 0x16EDC1, size: 0x8, addend: 0x0, symName: '__ZN62_$LT$alloc..string..Drain$u20$as$u20$core..ops..drop..Drop$GT$4drop17h35dfa602296dd454E', symObjAddr: 0x4F18, symBinAddr: 0xB2384, symSize: 0x78 }
  - { offset: 0x16EF22, size: 0x8, addend: 0x0, symName: '__ZN72_$LT$alloc..string..Drain$u20$as$u20$core..convert..AsRef$LT$str$GT$$GT$6as_ref17ha781e5a4d5a8b2e6E', symObjAddr: 0x4FAC, symBinAddr: 0xB2418, symSize: 0x1C }
  - { offset: 0x16EFC4, size: 0x8, addend: 0x0, symName: '__ZN79_$LT$alloc..string..Drain$u20$as$u20$core..iter..traits..iterator..Iterator$GT$9size_hint17hcf870634aead5977E', symObjAddr: 0x4FC8, symBinAddr: 0xB2434, symSize: 0x2C }
  - { offset: 0x16F21F, size: 0x8, addend: 0x0, symName: '__ZN5alloc3str21_$LT$impl$u20$str$GT$12to_lowercase17h323e575193191549E', symObjAddr: 0x19F0, symBinAddr: 0xAEE5C, symSize: 0xB94 }
  - { offset: 0x170690, size: 0x8, addend: 0x0, symName: '__ZN5alloc3str21_$LT$impl$u20$str$GT$12to_uppercase17h1a5a34c07755b201E', symObjAddr: 0x2584, symBinAddr: 0xAF9F0, symSize: 0x7D4 }
  - { offset: 0x17171A, size: 0x8, addend: 0x0, symName: '__ZN5alloc3str21_$LT$impl$u20$str$GT$6repeat17h781b0c9e75b1df9eE', symObjAddr: 0x2D58, symBinAddr: 0xB01C4, symSize: 0x17C }
  - { offset: 0x171A0C, size: 0x8, addend: 0x0, symName: '__ZN92_$LT$alloc..borrow..Cow$LT$str$GT$$u20$as$u20$core..ops..arith..AddAssign$LT$$RF$str$GT$$GT$10add_assign17h0f88a115195c284aE', symObjAddr: 0x828, symBinAddr: 0xADC94, symSize: 0x1F8 }
  - { offset: 0x171F5B, size: 0x8, addend: 0x0, symName: '__ZN77_$LT$alloc..borrow..Cow$LT$str$GT$$u20$as$u20$core..ops..arith..AddAssign$GT$10add_assign17h1b1f174471f8dd5dE', symObjAddr: 0xA20, symBinAddr: 0xADE8C, symSize: 0x28C }
  - { offset: 0x1726CD, size: 0x8, addend: 0x0, symName: __ZN5alloc3ffi5c_str19FromVecWithNulError8as_bytes17he9698f11b479dc85E, symObjAddr: 0xD50, symBinAddr: 0xAE1BC, symSize: 0x18 }
  - { offset: 0x172705, size: 0x8, addend: 0x0, symName: '__ZN72_$LT$$RF$str$u20$as$u20$alloc..ffi..c_str..CString..new..SpecNewImpl$GT$13spec_new_impl17h37c9772315c87d63E', symObjAddr: 0xD68, symBinAddr: 0xAE1D4, symSize: 0x114 }
  - { offset: 0x17292E, size: 0x8, addend: 0x0, symName: '__ZN89_$LT$$RF$mut$u20$$u5b$u8$u5d$$u20$as$u20$alloc..ffi..c_str..CString..new..SpecNewImpl$GT$13spec_new_impl17h0e205d29520e586fE', symObjAddr: 0xE7C, symBinAddr: 0xAE2E8, symSize: 0x114 }
  - { offset: 0x172B6D, size: 0x8, addend: 0x0, symName: __ZN5alloc3ffi5c_str7CString18from_vec_unchecked17hb36965a562a614b6E, symObjAddr: 0xF90, symBinAddr: 0xAE3FC, symSize: 0x30 }
  - { offset: 0x172B88, size: 0x8, addend: 0x0, symName: __ZN5alloc3ffi5c_str7CString19_from_vec_unchecked17ha473a1a6d71e3811E, symObjAddr: 0xFC0, symBinAddr: 0xAE42C, symSize: 0x138 }
  - { offset: 0x172EB8, size: 0x8, addend: 0x0, symName: __ZN5alloc3ffi5c_str7CString8from_raw17h73df40c3301bc544E, symObjAddr: 0x10F8, symBinAddr: 0xAE564, symSize: 0x28 }
  - { offset: 0x172EE1, size: 0x8, addend: 0x0, symName: __ZN5alloc3ffi5c_str7CString11into_string17h91cab1d5fecbd6aeE, symObjAddr: 0x1120, symBinAddr: 0xAE58C, symSize: 0xF8 }
  - { offset: 0x172FF9, size: 0x8, addend: 0x0, symName: __ZN5alloc3ffi5c_str7CString10into_bytes17hb94a14545a04e1bcE, symObjAddr: 0x1218, symBinAddr: 0xAE684, symSize: 0x20 }
  - { offset: 0x173023, size: 0x8, addend: 0x0, symName: __ZN5alloc3ffi5c_str7CString19into_bytes_with_nul17hbe851104b5dd6460E, symObjAddr: 0x1238, symBinAddr: 0xAE6A4, symSize: 0x18 }
  - { offset: 0x173077, size: 0x8, addend: 0x0, symName: __ZN5alloc3ffi5c_str7CString27from_vec_with_nul_unchecked17hd19c1f93485877fdE, symObjAddr: 0x1250, symBinAddr: 0xAE6BC, symSize: 0x98 }
  - { offset: 0x1731EB, size: 0x8, addend: 0x0, symName: __ZN5alloc3ffi5c_str7CString17from_vec_with_nul17h699462252b6395fbE, symObjAddr: 0x12E8, symBinAddr: 0xAE754, symSize: 0x130 }
  - { offset: 0x173416, size: 0x8, addend: 0x0, symName: '__ZN63_$LT$alloc..ffi..c_str..CString$u20$as$u20$core..fmt..Debug$GT$3fmt17h4ce6e4088f7e656cE', symObjAddr: 0x1418, symBinAddr: 0xAE884, symSize: 0x1C }
  - { offset: 0x173471, size: 0x8, addend: 0x0, symName: '__ZN5alloc3ffi5c_str75_$LT$impl$u20$alloc..borrow..ToOwned$u20$for$u20$core..ffi..c_str..CStr$GT$10clone_into17h0d22677b1bb88d88E', symObjAddr: 0x161C, symBinAddr: 0xAEA88, symSize: 0x114 }
  - { offset: 0x1737A4, size: 0x8, addend: 0x0, symName: '__ZN69_$LT$alloc..ffi..c_str..CString$u20$as$u20$core..default..Default$GT$7default17hd1a77f0c94a22d81E', symObjAddr: 0x1434, symBinAddr: 0xAE8A0, symSize: 0x40 }
  - { offset: 0x173897, size: 0x8, addend: 0x0, symName: '__ZN5alloc3ffi5c_str131_$LT$impl$u20$core..convert..From$LT$$RF$core..ffi..c_str..CStr$GT$$u20$for$u20$alloc..boxed..Box$LT$core..ffi..c_str..CStr$GT$$GT$4from17h921772b7e7194e80E', symObjAddr: 0x1474, symBinAddr: 0xAE8E0, symSize: 0x80 }
  - { offset: 0x173999, size: 0x8, addend: 0x0, symName: '__ZN5alloc3ffi5c_str100_$LT$impl$u20$core..default..Default$u20$for$u20$alloc..boxed..Box$LT$core..ffi..c_str..CStr$GT$$GT$7default17h041044665bad87fdE', symObjAddr: 0x14F4, symBinAddr: 0xAE960, symSize: 0x40 }
  - { offset: 0x173A39, size: 0x8, addend: 0x0, symName: '__ZN66_$LT$alloc..ffi..c_str..NulError$u20$as$u20$core..fmt..Display$GT$3fmt17h243b9ac62b1d0462E', symObjAddr: 0x1534, symBinAddr: 0xAE9A0, symSize: 0x50 }
  - { offset: 0x173AC4, size: 0x8, addend: 0x0, symName: '__ZN77_$LT$alloc..ffi..c_str..FromVecWithNulError$u20$as$u20$core..fmt..Display$GT$3fmt17hcd6494b9417fe454E', symObjAddr: 0x1584, symBinAddr: 0xAE9F0, symSize: 0x78 }
  - { offset: 0x173B25, size: 0x8, addend: 0x0, symName: '__ZN73_$LT$alloc..ffi..c_str..IntoStringError$u20$as$u20$core..fmt..Display$GT$3fmt17h18345458c702cf8cE', symObjAddr: 0x15FC, symBinAddr: 0xAEA68, symSize: 0x20 }
  - { offset: 0x173B46, size: 0x8, addend: 0x0, symName: '__ZN100_$LT$alloc..ffi..c_str..CString$u20$as$u20$core..convert..From$LT$$RF$core..ffi..c_str..CStr$GT$$GT$4from17hf8564ab40c5c4f06E', symObjAddr: 0x1730, symBinAddr: 0xAEB9C, symSize: 0x80 }
  - { offset: 0x173C6B, size: 0x8, addend: 0x0, symName: __ZN5alloc3fmt6format12format_inner17h65f007f2dcc18b39E, symObjAddr: 0x17D4, symBinAddr: 0xAEC40, symSize: 0x1A8 }
  - { offset: 0x173EB4, size: 0x8, addend: 0x0, symName: __ZN5alloc2rc29rcbox_layout_for_value_layout17h9062364011480a01E, symObjAddr: 0x197C, symBinAddr: 0xAEDE8, symSize: 0x74 }
  - { offset: 0x173F80, size: 0x8, addend: 0x0, symName: __ZN5alloc4sync32arcinner_layout_for_value_layout17hc2e63e5c4e3c6fa7E, symObjAddr: 0x4FF4, symBinAddr: 0xB2460, symSize: 0x74 }
  - { offset: 0x174048, size: 0x8, addend: 0x0, symName: _OUTLINED_FUNCTION_0, symObjAddr: 0x51C8, symBinAddr: 0xB2564, symSize: 0x24 }
  - { offset: 0x17407E, size: 0x8, addend: 0x0, symName: __ZN4core3num7dec2flt7decimal7Decimal5round17h39bbb98f9235df67E, symObjAddr: 0x0, symBinAddr: 0xB2588, symSize: 0xC4 }
  - { offset: 0x174D98, size: 0x8, addend: 0x0, symName: __ZN4core3num7dec2flt7decimal7Decimal5round17h39bbb98f9235df67E, symObjAddr: 0x0, symBinAddr: 0xB2588, symSize: 0xC4 }
  - { offset: 0x174DE4, size: 0x8, addend: 0x0, symName: __ZN4core3num7dec2flt7decimal7Decimal10left_shift17h0bd27f16f3e74cf7E, symObjAddr: 0xC4, symBinAddr: 0xB264C, symSize: 0x210 }
  - { offset: 0x174E88, size: 0x8, addend: 0x0, symName: __ZN4core3num7dec2flt7decimal7Decimal11right_shift17h8d35c1572ddd8c18E, symObjAddr: 0x2D4, symBinAddr: 0xB285C, symSize: 0x1C0 }
  - { offset: 0x174F1A, size: 0x8, addend: 0x0, symName: __ZN4core3num7dec2flt7decimal13parse_decimal17hbe4aa653484e762cE, symObjAddr: 0x494, symBinAddr: 0xB2A1C, symSize: 0x384 }
  - { offset: 0x1752FF, size: 0x8, addend: 0x0, symName: '__ZN59_$LT$f32$u20$as$u20$core..num..dec2flt..float..RawFloat$GT$15pow10_fast_path17he42c325bf6de4412E', symObjAddr: 0x818, symBinAddr: 0xB2DA0, symSize: 0x20 }
  - { offset: 0x17535A, size: 0x8, addend: 0x0, symName: '__ZN59_$LT$f64$u20$as$u20$core..num..dec2flt..float..RawFloat$GT$15pow10_fast_path17h4c5d8ea4599c593dE', symObjAddr: 0x838, symBinAddr: 0xB2DC0, symSize: 0x20 }
  - { offset: 0x1753D0, size: 0x8, addend: 0x0, symName: __ZN4core3num7dec2flt6lemire13compute_float17h24197ee91841faceE, symObjAddr: 0x858, symBinAddr: 0xB2DE0, symSize: 0x164 }
  - { offset: 0x175486, size: 0x8, addend: 0x0, symName: __ZN4core3num7dec2flt6lemire13compute_float17heace79c12f7ad6b7E, symObjAddr: 0x9BC, symBinAddr: 0xB2F44, symSize: 0x160 }
  - { offset: 0x17552F, size: 0x8, addend: 0x0, symName: __ZN4core3num7dec2flt6lemire22compute_product_approx17h886e11cb48d9dfbeE, symObjAddr: 0xB1C, symBinAddr: 0xB30A4, symSize: 0x6C }
  - { offset: 0x1755ED, size: 0x8, addend: 0x0, symName: __ZN4core3num7dec2flt5parse12parse_number17h0f3d9a49b3859b7fE, symObjAddr: 0xB88, symBinAddr: 0xB3110, symSize: 0x44C }
  - { offset: 0x175B97, size: 0x8, addend: 0x0, symName: '__ZN74_$LT$core..num..dec2flt..ParseFloatError$u20$as$u20$core..fmt..Display$GT$3fmt17hd93c6d8510dab5c4E', symObjAddr: 0xFD4, symBinAddr: 0xB355C, symSize: 0x44 }
  - { offset: 0x175C8E, size: 0x8, addend: 0x0, symName: '__ZN4core3num7dec2flt60_$LT$impl$u20$core..str..traits..FromStr$u20$for$u20$f32$GT$8from_str17h1f26851244223c92E', symObjAddr: 0x138EC, symBinAddr: 0xC5508, symSize: 0x484 }
  - { offset: 0x175CB7, size: 0x8, addend: 0x0, symName: '__ZN4core3num7dec2flt60_$LT$impl$u20$core..str..traits..FromStr$u20$for$u20$f32$GT$8from_str17h1f26851244223c92E', symObjAddr: 0x138EC, symBinAddr: 0xC5508, symSize: 0x484 }
  - { offset: 0x175F32, size: 0x8, addend: 0x0, symName: '__ZN4core3num7dec2flt60_$LT$impl$u20$core..str..traits..FromStr$u20$for$u20$f64$GT$8from_str17hf08473c135ca8a1aE', symObjAddr: 0x13D70, symBinAddr: 0xC598C, symSize: 0x454 }
  - { offset: 0x176551, size: 0x8, addend: 0x0, symName: __ZN4core3num9diy_float2Fp12normalize_to17h7fc18ee595a5a538E, symObjAddr: 0x1018, symBinAddr: 0xB35A0, symSize: 0x70 }
  - { offset: 0x176598, size: 0x8, addend: 0x0, symName: __ZN4core3num7flt2dec9estimator23estimate_scaling_factor17h6681fda4199a4c9eE, symObjAddr: 0x1088, symBinAddr: 0xB3610, symSize: 0x3C }
  - { offset: 0x1765D9, size: 0x8, addend: 0x0, symName: __ZN4core3num7flt2dec8strategy6dragon9mul_pow1017h2f869bdb0df99d47E, symObjAddr: 0x10C4, symBinAddr: 0xB364C, symSize: 0x1E4 }
  - { offset: 0x176872, size: 0x8, addend: 0x0, symName: __ZN4core3num7flt2dec8strategy6dragon15format_shortest17h7a4009ddfef3335aE, symObjAddr: 0x12A8, symBinAddr: 0xB3830, symSize: 0xCB8 }
  - { offset: 0x178418, size: 0x8, addend: 0x0, symName: __ZN4core3num7flt2dec8strategy6dragon12format_exact17hfdfa2a63cdf21877E, symObjAddr: 0x1F60, symBinAddr: 0xB44E8, symSize: 0xB4C }
  - { offset: 0x179B89, size: 0x8, addend: 0x0, symName: __ZN4core3num7flt2dec8strategy5grisu12cached_power17h5df0d2ddfa15b00fE, symObjAddr: 0x2AAC, symBinAddr: 0xB5034, symSize: 0x78 }
  - { offset: 0x179BCB, size: 0x8, addend: 0x0, symName: __ZN4core3num7flt2dec8strategy5grisu19format_shortest_opt17hd24b4ccc64221d0bE, symObjAddr: 0x2B24, symBinAddr: 0xB50AC, symSize: 0x7C4 }
  - { offset: 0x179CC8, size: 0x8, addend: 0x0, symName: __ZN4core3num7flt2dec8strategy5grisu15format_shortest17hb5d5cf1dc4df7df2E, symObjAddr: 0x32E8, symBinAddr: 0xB5870, symSize: 0x7C }
  - { offset: 0x179CDC, size: 0x8, addend: 0x0, symName: __ZN4core3num7flt2dec8strategy5grisu16format_exact_opt17h5750650986d81e94E, symObjAddr: 0x3364, symBinAddr: 0xB58EC, symSize: 0x428 }
  - { offset: 0x179D3C, size: 0x8, addend: 0x0, symName: __ZN4core3num7flt2dec8strategy5grisu16format_exact_opt14possibly_round17hca4abbf44438ba20E, symObjAddr: 0x378C, symBinAddr: 0xB5D14, symSize: 0x1E0 }
  - { offset: 0x179E95, size: 0x8, addend: 0x0, symName: __ZN4core3num7flt2dec8strategy5grisu12format_exact17h1c6086cdee848a1fE, symObjAddr: 0x396C, symBinAddr: 0xB5EF4, symSize: 0x90 }
  - { offset: 0x179ED4, size: 0x8, addend: 0x0, symName: __ZN4core3num7flt2dec8round_up17h597e2fa55f3f6e18E, symObjAddr: 0x39FC, symBinAddr: 0xB5F84, symSize: 0xB4 }
  - { offset: 0x179F82, size: 0x8, addend: 0x0, symName: __ZN4core3num7flt2dec17digits_to_dec_str17h337100ada1b27e7eE, symObjAddr: 0x3AB0, symBinAddr: 0xB6038, symSize: 0x14C }
  - { offset: 0x179FFD, size: 0x8, addend: 0x0, symName: __ZN4core3num7flt2dec17digits_to_exp_str17hdeacfa6faa06f004E, symObjAddr: 0x3BFC, symBinAddr: 0xB6184, symSize: 0x168 }
  - { offset: 0x17A253, size: 0x8, addend: 0x0, symName: __ZN4core3num6bignum8Big32x408from_u6417hc6456b574e970ce4E, symObjAddr: 0x11438, symBinAddr: 0xC3054, symSize: 0x68 }
  - { offset: 0x17A267, size: 0x8, addend: 0x0, symName: __ZN4core3num6bignum8Big32x406digits17h6003f94b4e65e3beE, symObjAddr: 0x114A0, symBinAddr: 0xC30BC, symSize: 0x2C }
  - { offset: 0x17A2B2, size: 0x8, addend: 0x0, symName: __ZN4core3num6bignum8Big32x407get_bit17h762981d4889a68c7E, symObjAddr: 0x114CC, symBinAddr: 0xC30E8, symSize: 0x38 }
  - { offset: 0x17A2C6, size: 0x8, addend: 0x0, symName: __ZN4core3num6bignum8Big32x407is_zero17he34b5b664b72b436E, symObjAddr: 0x11504, symBinAddr: 0xC3120, symSize: 0x50 }
  - { offset: 0x17A355, size: 0x8, addend: 0x0, symName: __ZN4core3num6bignum8Big32x4010bit_length17h2a954672f1188ddfE, symObjAddr: 0x11554, symBinAddr: 0xC3170, symSize: 0x80 }
  - { offset: 0x17A464, size: 0x8, addend: 0x0, symName: __ZN4core3num6bignum8Big32x403add17h0e5fb63bf57e38c8E, symObjAddr: 0x115D4, symBinAddr: 0xC31F0, symSize: 0xA8 }
  - { offset: 0x17A548, size: 0x8, addend: 0x0, symName: __ZN4core3num6bignum8Big32x409add_small17hda254c34b099e539E, symObjAddr: 0x1167C, symBinAddr: 0xC3298, symSize: 0x3EC }
  - { offset: 0x17A5A8, size: 0x8, addend: 0x0, symName: __ZN4core3num6bignum8Big32x403sub17h3a058e81995a81aeE, symObjAddr: 0x11A68, symBinAddr: 0xC3684, symSize: 0xA0 }
  - { offset: 0x17A68C, size: 0x8, addend: 0x0, symName: __ZN4core3num6bignum8Big32x409mul_small17hc7b3b7c277319d94E, symObjAddr: 0x11B08, symBinAddr: 0xC3724, symSize: 0x88 }
  - { offset: 0x17A71A, size: 0x8, addend: 0x0, symName: __ZN4core3num6bignum8Big32x408mul_pow217h74db9c7992bb3a2bE, symObjAddr: 0x11B90, symBinAddr: 0xC37AC, symSize: 0x198 }
  - { offset: 0x17A803, size: 0x8, addend: 0x0, symName: __ZN4core3num6bignum8Big32x408mul_pow517h3ae0c0b0b60a7a64E, symObjAddr: 0x11D28, symBinAddr: 0xC3944, symSize: 0x108 }
  - { offset: 0x17AA0D, size: 0x8, addend: 0x0, symName: __ZN4core3num6bignum8Big32x4010mul_digits17hc39f6d391ac5e442E, symObjAddr: 0x11E30, symBinAddr: 0xC3A4C, symSize: 0x2EC }
  - { offset: 0x17ACF7, size: 0x8, addend: 0x0, symName: __ZN4core3num6bignum8Big32x4013div_rem_small17h8255ba21855048d4E, symObjAddr: 0x1211C, symBinAddr: 0xC3D38, symSize: 0x88 }
  - { offset: 0x17ADA1, size: 0x8, addend: 0x0, symName: __ZN4core3num6bignum8Big32x407div_rem17h9f7a03a4715ef08fE, symObjAddr: 0x121A4, symBinAddr: 0xC3DC0, symSize: 0x290 }
  - { offset: 0x17B2D0, size: 0x8, addend: 0x0, symName: '__ZN62_$LT$core..num..bignum..Big32x40$u20$as$u20$core..cmp..Ord$GT$3cmp17heaa0a4e2c30abab6E', symObjAddr: 0x124C4, symBinAddr: 0xC40E0, symSize: 0x70 }
  - { offset: 0x17B52F, size: 0x8, addend: 0x0, symName: '__ZN69_$LT$core..num..bignum..Big32x40$u20$as$u20$core..cmp..PartialOrd$GT$11partial_cmp17h8d1f7ae1543381bfE', symObjAddr: 0x12454, symBinAddr: 0xC4070, symSize: 0x70 }
  - { offset: 0x17B79B, size: 0x8, addend: 0x0, symName: '__ZN50_$LT$u32$u20$as$u20$core..num..bignum..FullOps$GT$12full_div_rem17hedd069b0e951eb5fE', symObjAddr: 0x11404, symBinAddr: 0xC3020, symSize: 0x34 }
  - { offset: 0x17B7C2, size: 0x8, addend: 0x0, symName: '__ZN49_$LT$u8$u20$as$u20$core..num..bignum..FullOps$GT$12full_div_rem17h9212d6e80dbbec4dE', symObjAddr: 0x11398, symBinAddr: 0xC2FB4, symSize: 0x38 }
  - { offset: 0x17B7F6, size: 0x8, addend: 0x0, symName: '__ZN50_$LT$u16$u20$as$u20$core..num..bignum..FullOps$GT$12full_div_rem17hebab2f50adb935fcE', symObjAddr: 0x113D0, symBinAddr: 0xC2FEC, symSize: 0x34 }
  - { offset: 0x17B830, size: 0x8, addend: 0x0, symName: '__ZN68_$LT$core..num..bignum..Big32x40$u20$as$u20$core..cmp..PartialEq$GT$2eq17h984bb84e32e2df73E', symObjAddr: 0x12434, symBinAddr: 0xC4050, symSize: 0x20 }
