---
triple:          'arm64-apple-darwin'
binary-path:     '/Users/teddy/code/zero_to_production/newsletter_server/target/debug/deps/libzerovec_derive-96420019d07af8d2.dylib'
relocations:
  - { offset: 0x1E, size: 0x8, addend: 0x0, symName: __RNvMNtCs9f3LFPSIp77_4core5sliceSNtNtCs3RXxJlnd5m8_14zerovec_derive11make_varule12UnsizedField4iterBy_, symObjAddr: 0x0, symBinAddr: 0x4368, symSize: 0x28 }
  - { offset: 0x4D, size: 0x8, addend: 0x0, symName: __RNvNvMs0_NtCs3RXxJlnd5m8_14zerovec_derive11make_varuleNtB7_16UnsizedFieldKind3new24PATH_TYPE_IDENTITY_ERROR, symObjAddr: 0x102F8, symBinAddr: 0x3C83F8, symSize: 0x0 }
  - { offset: 0x68, size: 0x8, addend: 0x0, symName: __RNvNvMs0_NtCs3RXxJlnd5m8_14zerovec_derive11make_varuleNtB7_16UnsizedFieldKind3new24PATH_TYPE_GENERICS_ERROR, symObjAddr: 0x10308, symBinAddr: 0x3C8408, symSize: 0x0 }
  - { offset: 0x2FB, size: 0x8, addend: 0x0, symName: __RNvNtCs3RXxJlnd5m8_14zerovec_derive11make_varule16make_varule_impl, symObjAddr: 0x220, symBinAddr: 0x4588, symSize: 0x5C4C }
  - { offset: 0xE00, size: 0x8, addend: 0x0, symName: __RNCNvNtCs3RXxJlnd5m8_14zerovec_derive11make_varule16make_varule_impl0B5_, symObjAddr: 0x5E6C, symBinAddr: 0xA1D4, symSize: 0x24 }
  - { offset: 0xE36, size: 0x8, addend: 0x0, symName: __RNCNvNtCs3RXxJlnd5m8_14zerovec_derive11make_varule16make_varule_impls_0B5_, symObjAddr: 0x5E90, symBinAddr: 0xA1F8, symSize: 0xA0 }
  - { offset: 0xE90, size: 0x8, addend: 0x0, symName: __RNvNtCs3RXxJlnd5m8_14zerovec_derive11make_varule12make_zf_impl, symObjAddr: 0x5F30, symBinAddr: 0xA298, symSize: 0x5E8 }
  - { offset: 0x1006, size: 0x8, addend: 0x0, symName: __RNCNvNtCs3RXxJlnd5m8_14zerovec_derive11make_varule12make_zf_impl0B5_, symObjAddr: 0x6518, symBinAddr: 0xA880, symSize: 0x234 }
  - { offset: 0x10B5, size: 0x8, addend: 0x0, symName: __RNvNtCs3RXxJlnd5m8_14zerovec_derive11make_varule16make_encode_impl, symObjAddr: 0x674C, symBinAddr: 0xAAB4, symSize: 0x1C10 }
  - { offset: 0x156C, size: 0x8, addend: 0x0, symName: __RNCNvNtCs3RXxJlnd5m8_14zerovec_derive11make_varule16make_encode_impl0B5_, symObjAddr: 0x835C, symBinAddr: 0xC6C4, symSize: 0x850 }
  - { offset: 0x17CA, size: 0x8, addend: 0x0, symName: __RNCNvMNtCs3RXxJlnd5m8_14zerovec_derive11make_varuleNtB4_13UnsizedFields6has_zf0B6_, symObjAddr: 0x9138, symBinAddr: 0xD4A0, symSize: 0x38 }
  - { offset: 0x1810, size: 0x8, addend: 0x0, symName: __RNCNvMNtCs3RXxJlnd5m8_14zerovec_derive11make_varuleNtB4_13UnsizedFields19maybe_multi_getters0B6_, symObjAddr: 0xABA4, symBinAddr: 0xEF0C, symSize: 0x5B0 }
  - { offset: 0x19F3, size: 0x8, addend: 0x0, symName: __RNvXs3_NtCs3RXxJlnd5m8_14zerovec_derive11make_varuleNtB5_8OwnULETyNtNtCs9f3LFPSIp77_4core5clone5Clone5cloneB7_, symObjAddr: 0xD738, symBinAddr: 0x11AA0, symSize: 0x18 }
  - { offset: 0x1A27, size: 0x8, addend: 0x0, symName: __RNvXs4_NtCs3RXxJlnd5m8_14zerovec_derive11make_varuleNtB5_8OwnULETyNtNtCs9f3LFPSIp77_4core3fmt5Debug3fmtB7_, symObjAddr: 0xD750, symBinAddr: 0x11AB8, symSize: 0xA0 }
  - { offset: 0x1A8D, size: 0x8, addend: 0x0, symName: __RNcNtNtNtCs3RXxJlnd5m8_14zerovec_derive11make_varule16UnsizedFieldKind3Cow0B7_, symObjAddr: 0xD7F0, symBinAddr: 0x11B58, symSize: 0x24 }
  - { offset: 0x1ABD, size: 0x8, addend: 0x0, symName: __RNcNtNtNtCs3RXxJlnd5m8_14zerovec_derive11make_varule16UnsizedFieldKind5Boxed0B7_, symObjAddr: 0xD814, symBinAddr: 0x11B7C, symSize: 0x24 }
  - { offset: 0x1AED, size: 0x8, addend: 0x0, symName: __RNcNtNtNtCs3RXxJlnd5m8_14zerovec_derive11make_varule16UnsizedFieldKind3Ref0B7_, symObjAddr: 0xD838, symBinAddr: 0x11BA0, symSize: 0x24 }
  - { offset: 0x1B1E, size: 0x8, addend: 0x0, symName: __RNvXs5_NtCs3RXxJlnd5m8_14zerovec_derive11make_varuleNtB5_16UnsizedFieldKindNtNtCs9f3LFPSIp77_4core5clone5Clone5cloneB7_, symObjAddr: 0xD85C, symBinAddr: 0x11BC4, symSize: 0x1C8 }
  - { offset: 0x1C35, size: 0x8, addend: 0x0, symName: __RNvXs6_NtCs3RXxJlnd5m8_14zerovec_derive11make_varuleNtB5_16UnsizedFieldKindNtNtCs9f3LFPSIp77_4core3fmt5Debug3fmtB7_, symObjAddr: 0xDA24, symBinAddr: 0x11D8C, symSize: 0x234 }
  - { offset: 0x1D5A, size: 0x8, addend: 0x0, symName: __RNvXs7_NtCs3RXxJlnd5m8_14zerovec_derive11make_varuleNtB5_12UnsizedFieldNtNtCs9f3LFPSIp77_4core5clone5Clone5cloneB7_, symObjAddr: 0xDC58, symBinAddr: 0x11FC0, symSize: 0x8C }
  - { offset: 0x1D8E, size: 0x8, addend: 0x0, symName: __RNvXs8_NtCs3RXxJlnd5m8_14zerovec_derive11make_varuleNtB5_12UnsizedFieldNtNtCs9f3LFPSIp77_4core3fmt5Debug3fmtB7_, symObjAddr: 0xDCE4, symBinAddr: 0x1204C, symSize: 0x88 }
  - { offset: 0x9D0E, size: 0x8, addend: 0x0, symName: __RNvXsP_NtCs9f3LFPSIp77_4core3fmtRNtNtCs3RXxJlnd5m8_14zerovec_derive11make_varule8OwnULETyNtB5_5Debug3fmtBz_, symObjAddr: 0xA0, symBinAddr: 0x4408, symSize: 0x30 }
  - { offset: 0x9DB9, size: 0x8, addend: 0x0, symName: __RNvMNtCs9f3LFPSIp77_4core5sliceSNtNtCs3RXxJlnd5m8_14zerovec_derive11make_varule12UnsizedField4iterBy_, symObjAddr: 0x0, symBinAddr: 0x4368, symSize: 0x28 }
  - { offset: 0x9DF0, size: 0x8, addend: 0x0, symName: __RNvMNtCs9f3LFPSIp77_4core5sliceSNtNtCs3RXxJlnd5m8_14zerovec_derive11make_varule12UnsizedField5firstBy_, symObjAddr: 0x28, symBinAddr: 0x4390, symSize: 0x44 }
  - { offset: 0x9EF8, size: 0x8, addend: 0x0, symName: __RNvXs2_NtNtNtCs9f3LFPSIp77_4core3ops8function5implsQNCNvMNtCs3RXxJlnd5m8_14zerovec_derive11make_varuleNtBT_13UnsizedFields19maybe_multi_getters0INtB7_6FnOnceTTjRNtBT_12UnsizedFieldEEE9call_onceBV_, symObjAddr: 0x6C, symBinAddr: 0x43D4, symSize: 0x34 }
  - { offset: 0x9F55, size: 0x8, addend: 0x0, symName: __RNvYNtNtCs3RXxJlnd5m8_14zerovec_derive11make_varule12UnsizedFieldNtNtCs9f3LFPSIp77_4core5clone5Clone10clone_fromB6_, symObjAddr: 0xD0, symBinAddr: 0x4438, symSize: 0x84 }
  - { offset: 0x9F94, size: 0x8, addend: 0x0, symName: __RNvYNtNtCs3RXxJlnd5m8_14zerovec_derive11make_varule16UnsizedFieldKindNtNtCs9f3LFPSIp77_4core5clone5Clone10clone_fromB6_, symObjAddr: 0x154, symBinAddr: 0x44BC, symSize: 0x84 }
  - { offset: 0x9FD3, size: 0x8, addend: 0x0, symName: __RNvYNtNtCs3RXxJlnd5m8_14zerovec_derive11make_varule8OwnULETyNtNtCs9f3LFPSIp77_4core5clone5Clone10clone_fromB6_, symObjAddr: 0x1D8, symBinAddr: 0x4540, symSize: 0x48 }
  - { offset: 0xB9D0, size: 0x8, addend: 0x0, symName: __RNvMNtCs3RXxJlnd5m8_14zerovec_derive11make_varuleNtB2_13UnsizedFields3new, symObjAddr: 0x8BAC, symBinAddr: 0xCF14, symSize: 0xD8 }
  - { offset: 0xBA01, size: 0x8, addend: 0x0, symName: __RNvMNtCs3RXxJlnd5m8_14zerovec_derive11make_varuleNtB2_13UnsizedFields9varule_ty, symObjAddr: 0x8C84, symBinAddr: 0xCFEC, symSize: 0x138 }
  - { offset: 0xBA3A, size: 0x8, addend: 0x0, symName: __RNvMNtCs3RXxJlnd5m8_14zerovec_derive11make_varuleNtB2_13UnsizedFields15varule_accessor, symObjAddr: 0x8DBC, symBinAddr: 0xD124, symSize: 0x154 }
  - { offset: 0xBA73, size: 0x8, addend: 0x0, symName: __RNvMNtCs3RXxJlnd5m8_14zerovec_derive11make_varuleNtB2_13UnsizedFields13varule_setter, symObjAddr: 0x8F10, symBinAddr: 0xD278, symSize: 0x14C }
  - { offset: 0xBAAC, size: 0x8, addend: 0x0, symName: __RNvMNtCs3RXxJlnd5m8_14zerovec_derive11make_varuleNtB2_13UnsizedFields10varule_vis, symObjAddr: 0x905C, symBinAddr: 0xD3C4, symSize: 0x90 }
  - { offset: 0xBACF, size: 0x8, addend: 0x0, symName: __RNvMNtCs3RXxJlnd5m8_14zerovec_derive11make_varuleNtB2_13UnsizedFields6has_zf, symObjAddr: 0x90EC, symBinAddr: 0xD454, symSize: 0x4C }
  - { offset: 0xBAF2, size: 0x8, addend: 0x0, symName: __RNvMNtCs3RXxJlnd5m8_14zerovec_derive11make_varuleNtB2_13UnsizedFields12encode_write, symObjAddr: 0x9170, symBinAddr: 0xD4D8, symSize: 0xAA8 }
  - { offset: 0xBDC1, size: 0x8, addend: 0x0, symName: __RNvMNtCs3RXxJlnd5m8_14zerovec_derive11make_varuleNtB2_13UnsizedFields10encode_len, symObjAddr: 0x9C18, symBinAddr: 0xDF80, symSize: 0x5B4 }
  - { offset: 0xBF51, size: 0x8, addend: 0x0, symName: __RNvMNtCs3RXxJlnd5m8_14zerovec_derive11make_varuleNtB2_13UnsizedFields15push_zf_setters, symObjAddr: 0xA1CC, symBinAddr: 0xE534, symSize: 0x78C }
  - { offset: 0xC10A, size: 0x8, addend: 0x0, symName: __RNvMNtCs3RXxJlnd5m8_14zerovec_derive11make_varuleNtB2_13UnsizedFields19maybe_multi_getters, symObjAddr: 0xA958, symBinAddr: 0xECC0, symSize: 0x24C }
  - { offset: 0xC278, size: 0x8, addend: 0x0, symName: __RNvMNtCs3RXxJlnd5m8_14zerovec_derive11make_varuleNtB2_13UnsizedFields16varule_validator, symObjAddr: 0xB154, symBinAddr: 0xF4BC, symSize: 0x610 }
  - { offset: 0xC3FF, size: 0x8, addend: 0x0, symName: __RNvMs_NtCs3RXxJlnd5m8_14zerovec_derive11make_varuleNtB4_12UnsizedField3new, symObjAddr: 0xB764, symBinAddr: 0xFACC, symSize: 0x158 }
  - { offset: 0xC47F, size: 0x8, addend: 0x0, symName: __RNvMs_NtCs3RXxJlnd5m8_14zerovec_derive11make_varuleNtB4_12UnsizedField11encode_func, symObjAddr: 0xB8BC, symBinAddr: 0xFC24, symSize: 0x37C }
  - { offset: 0xC57A, size: 0x8, addend: 0x0, symName: __RNvMs_NtCs3RXxJlnd5m8_14zerovec_derive11make_varuleNtB4_12UnsizedField17encodeable_tokens, symObjAddr: 0xBC38, symBinAddr: 0xFFA0, symSize: 0x160 }
  - { offset: 0xC656, size: 0x8, addend: 0x0, symName: __RNvMs0_NtCs3RXxJlnd5m8_14zerovec_derive11make_varuleNtB5_16UnsizedFieldKind3new, symObjAddr: 0xBD98, symBinAddr: 0x10100, symSize: 0xB00 }
  - { offset: 0xC82D, size: 0x8, addend: 0x0, symName: __RNvMs0_NtCs3RXxJlnd5m8_14zerovec_derive11make_varuleNtB5_16UnsizedFieldKind9varule_ty, symObjAddr: 0xC898, symBinAddr: 0x10C00, symSize: 0x3C0 }
  - { offset: 0xC91E, size: 0x8, addend: 0x0, symName: __RNvMs0_NtCs3RXxJlnd5m8_14zerovec_derive11make_varuleNtB5_16UnsizedFieldKind16encodeable_value, symObjAddr: 0xCC58, symBinAddr: 0x10FC0, symSize: 0x2A4 }
  - { offset: 0xC993, size: 0x8, addend: 0x0, symName: __RNvMs0_NtCs3RXxJlnd5m8_14zerovec_derive11make_varuleNtB5_16UnsizedFieldKind13encodeable_ty, symObjAddr: 0xCEFC, symBinAddr: 0x11264, symSize: 0x344 }
  - { offset: 0xCA5C, size: 0x8, addend: 0x0, symName: __RNvMs0_NtCs3RXxJlnd5m8_14zerovec_derive11make_varuleNtB5_16UnsizedFieldKind6has_zf, symObjAddr: 0xD240, symBinAddr: 0x115A8, symSize: 0x124 }
  - { offset: 0xCAF7, size: 0x8, addend: 0x0, symName: __RNvMs1_NtCs3RXxJlnd5m8_14zerovec_derive11make_varuleNtB5_8OwnULETy3new, symObjAddr: 0xD364, symBinAddr: 0x116CC, symSize: 0x25C }
  - { offset: 0xCC62, size: 0x8, addend: 0x0, symName: __RNvMs1_NtCs3RXxJlnd5m8_14zerovec_derive11make_varuleNtB5_8OwnULETy9varule_ty, symObjAddr: 0xD5C0, symBinAddr: 0x11928, symSize: 0x178 }
  - { offset: 0xCFF7, size: 0x8, addend: 0x0, symName: __RINvMs6_NtCscXJUXcj6jCz_9hashbrown3rawINtB6_8RawTableTyuEE12remove_entryNCINvNtB8_3map14equivalent_keyyyuE0ECs3RXxJlnd5m8_14zerovec_derive, symObjAddr: 0x0, symBinAddr: 0x120E0, symSize: 0x7C }
  - { offset: 0xD033, size: 0x8, addend: 0x0, symName: __RNCINvMs6_NtCscXJUXcj6jCz_9hashbrown3rawINtB8_8RawTableTyuEE14reserve_rehashNCINvNtBa_3map11make_hasheryuNtNtNtCs27l1GJC5rMQ_3std4hash6random11RandomStateE0E0Cs3RXxJlnd5m8_14zerovec_derive, symObjAddr: 0x15E0, symBinAddr: 0x12DB4, symSize: 0xC4 }
  - { offset: 0xD202, size: 0x8, addend: 0x0, symName: __RNCINvMs6_NtCscXJUXcj6jCz_9hashbrown3rawINtB8_8RawTableTyuEE24find_or_find_insert_slotNCINvNtBa_3map14equivalent_keyyyuE0NCINvB1r_11make_hasheryuNtNtNtCs27l1GJC5rMQ_3std4hash6random11RandomStateE0E0Cs3RXxJlnd5m8_14zerovec_derive, symObjAddr: 0x16A4, symBinAddr: 0x12E78, symSize: 0xC8 }
  - { offset: 0xD3DD, size: 0x8, addend: 0x0, symName: __RNCINvMs6_NtCscXJUXcj6jCz_9hashbrown3rawINtB8_8RawTableTyuEE4findNCINvNtBa_3map14equivalent_keyyyuE0E0Cs3RXxJlnd5m8_14zerovec_derive, symObjAddr: 0x176C, symBinAddr: 0x12F40, symSize: 0xC8 }
  - { offset: 0xE035, size: 0x8, addend: 0x0, symName: __RNCINvMsa_NtCscXJUXcj6jCz_9hashbrown3rawNtB8_13RawTableInner14prepare_resizeNtNtCsdze8u8oDPro_5alloc5alloc6GlobalE0Cs3RXxJlnd5m8_14zerovec_derive, symObjAddr: 0x1834, symBinAddr: 0x13008, symSize: 0xBC }
  - { offset: 0xE216, size: 0x8, addend: 0x0, symName: __RNCNvMsa_NtCscXJUXcj6jCz_9hashbrown3rawNtB7_13RawTableInner15rehash_in_place0Cs3RXxJlnd5m8_14zerovec_derive, symObjAddr: 0x18F0, symBinAddr: 0x130C4, symSize: 0x260 }
  - { offset: 0xEB58, size: 0x8, addend: 0x0, symName: __RNvNtCscXJUXcj6jCz_9hashbrown3raw19capacity_to_bucketsCs3RXxJlnd5m8_14zerovec_derive, symObjAddr: 0x31A8, symBinAddr: 0x1497C, symSize: 0x1A4 }
  - { offset: 0xED1C, size: 0x8, addend: 0x0, symName: __RNvXsg_NtCscXJUXcj6jCz_9hashbrown3rawINtB5_8RawTableTyuEENtNtNtCs9f3LFPSIp77_4core3ops4drop4Drop4dropCs3RXxJlnd5m8_14zerovec_derive, symObjAddr: 0x334C, symBinAddr: 0x14B20, symSize: 0x38 }
  - { offset: 0x11746, size: 0x8, addend: 0x0, symName: __RINvMs6_NtCscXJUXcj6jCz_9hashbrown3rawINtB6_8RawTableTyuEE12remove_entryNCINvNtB8_3map14equivalent_keyyyuE0ECs3RXxJlnd5m8_14zerovec_derive, symObjAddr: 0x0, symBinAddr: 0x120E0, symSize: 0x7C }
  - { offset: 0x11DCC, size: 0x8, addend: 0x0, symName: __RINvMs6_NtCscXJUXcj6jCz_9hashbrown3rawINtB6_8RawTableTyuEE14reserve_rehashNCINvNtB8_3map11make_hasheryuNtNtNtCs27l1GJC5rMQ_3std4hash6random11RandomStateE0ECs3RXxJlnd5m8_14zerovec_derive, symObjAddr: 0x7C, symBinAddr: 0x2A77D8, symSize: 0x90C }
  - { offset: 0x129B9, size: 0x8, addend: 0x0, symName: __RINvMs6_NtCscXJUXcj6jCz_9hashbrown3rawINtB6_8RawTableTyuEE24find_or_find_insert_slotNCINvNtB8_3map14equivalent_keyyyuE0NCINvB1p_11make_hasheryuNtNtNtCs27l1GJC5rMQ_3std4hash6random11RandomStateE0ECs3RXxJlnd5m8_14zerovec_derive, symObjAddr: 0x988, symBinAddr: 0x1215C, symSize: 0x140 }
  - { offset: 0x12F8E, size: 0x8, addend: 0x0, symName: __RINvMs6_NtCscXJUXcj6jCz_9hashbrown3rawINtB6_8RawTableTyuEE4findNCINvNtB8_3map14equivalent_keyyyuE0ECs3RXxJlnd5m8_14zerovec_derive, symObjAddr: 0xAC8, symBinAddr: 0x1229C, symSize: 0x350 }
  - { offset: 0x13465, size: 0x8, addend: 0x0, symName: __RINvMs6_NtCscXJUXcj6jCz_9hashbrown3rawINtB6_8RawTableTyuEE7reserveNCINvNtB8_3map11make_hasheryuNtNtNtCs27l1GJC5rMQ_3std4hash6random11RandomStateE0ECs3RXxJlnd5m8_14zerovec_derive, symObjAddr: 0xE18, symBinAddr: 0x125EC, symSize: 0xCC }
  - { offset: 0x135BA, size: 0x8, addend: 0x0, symName: __RINvMsa_NtCscXJUXcj6jCz_9hashbrown3rawNtB6_13RawTableInner13drop_elementsTyuEECs3RXxJlnd5m8_14zerovec_derive, symObjAddr: 0xEE4, symBinAddr: 0x126B8, symSize: 0x28 }
  - { offset: 0x13825, size: 0x8, addend: 0x0, symName: __RINvMsa_NtCscXJUXcj6jCz_9hashbrown3rawNtB6_13RawTableInner16drop_inner_tableTyuENtNtCsdze8u8oDPro_5alloc5alloc6GlobalECs3RXxJlnd5m8_14zerovec_derive, symObjAddr: 0xF0C, symBinAddr: 0x126E0, symSize: 0xBC }
  - { offset: 0x13A37, size: 0x8, addend: 0x0, symName: __RINvMsa_NtCscXJUXcj6jCz_9hashbrown3rawNtB6_13RawTableInner17new_uninitializedNtNtCsdze8u8oDPro_5alloc5alloc6GlobalECs3RXxJlnd5m8_14zerovec_derive, symObjAddr: 0xFC8, symBinAddr: 0x1279C, symSize: 0x1B0 }
  - { offset: 0x13C7A, size: 0x8, addend: 0x0, symName: __RINvMsa_NtCscXJUXcj6jCz_9hashbrown3rawNtB6_13RawTableInner22fallible_with_capacityNtNtCsdze8u8oDPro_5alloc5alloc6GlobalECs3RXxJlnd5m8_14zerovec_derive, symObjAddr: 0x1178, symBinAddr: 0x1294C, symSize: 0x2A0 }
  - { offset: 0x140B9, size: 0x8, addend: 0x0, symName: __RINvMsi_NtCscXJUXcj6jCz_9hashbrown3rawINtB6_12RawIterRangeTyuEE9next_implKb0_ECs3RXxJlnd5m8_14zerovec_derive, symObjAddr: 0x1418, symBinAddr: 0x12BEC, symSize: 0x1C8 }
  - { offset: 0x14989, size: 0x8, addend: 0x0, symName: __RNvMs1_NtCscXJUXcj6jCz_9hashbrown3rawNtB5_11TableLayout20calculate_layout_forCs3RXxJlnd5m8_14zerovec_derive, symObjAddr: 0x1B50, symBinAddr: 0x13324, symSize: 0x224 }
  - { offset: 0x14CC9, size: 0x8, addend: 0x0, symName: __RNvMs6_NtCscXJUXcj6jCz_9hashbrown3rawINtB5_8RawTableTyuEE13erase_no_dropCs3RXxJlnd5m8_14zerovec_derive, symObjAddr: 0x1D74, symBinAddr: 0x13548, symSize: 0x98 }
  - { offset: 0x15075, size: 0x8, addend: 0x0, symName: __RNvMs6_NtCscXJUXcj6jCz_9hashbrown3rawINtB5_8RawTableTyuEE14insert_in_slotCs3RXxJlnd5m8_14zerovec_derive, symObjAddr: 0x1E0C, symBinAddr: 0x135E0, symSize: 0x180 }
  - { offset: 0x15608, size: 0x8, addend: 0x0, symName: __RNvMs6_NtCscXJUXcj6jCz_9hashbrown3rawINtB5_8RawTableTyuEE6removeCs3RXxJlnd5m8_14zerovec_derive, symObjAddr: 0x1F8C, symBinAddr: 0x13760, symSize: 0xF4 }
  - { offset: 0x15960, size: 0x8, addend: 0x0, symName: __RNvMsa_NtCscXJUXcj6jCz_9hashbrown3rawNtB5_13RawTableInner15fix_insert_slotCs3RXxJlnd5m8_14zerovec_derive, symObjAddr: 0x2080, symBinAddr: 0x13854, symSize: 0x118 }
  - { offset: 0x15DCF, size: 0x8, addend: 0x0, symName: __RNvMsa_NtCscXJUXcj6jCz_9hashbrown3rawNtB5_13RawTableInner15rehash_in_placeCs3RXxJlnd5m8_14zerovec_derive, symObjAddr: 0x2198, symBinAddr: 0x1396C, symSize: 0x574 }
  - { offset: 0x168F1, size: 0x8, addend: 0x0, symName: __RNvMsa_NtCscXJUXcj6jCz_9hashbrown3rawNtB5_13RawTableInner16find_insert_slotCs3RXxJlnd5m8_14zerovec_derive, symObjAddr: 0x270C, symBinAddr: 0x13EE0, symSize: 0x168 }
  - { offset: 0x16C49, size: 0x8, addend: 0x0, symName: __RNvMsa_NtCscXJUXcj6jCz_9hashbrown3rawNtB5_13RawTableInner23prepare_rehash_in_placeCs3RXxJlnd5m8_14zerovec_derive, symObjAddr: 0x2874, symBinAddr: 0x14048, symSize: 0x25C }
  - { offset: 0x172FF, size: 0x8, addend: 0x0, symName: __RNvMsa_NtCscXJUXcj6jCz_9hashbrown3rawNtB5_13RawTableInner25find_insert_slot_in_groupCs3RXxJlnd5m8_14zerovec_derive, symObjAddr: 0x2AD0, symBinAddr: 0x142A4, symSize: 0x184 }
  - { offset: 0x175C0, size: 0x8, addend: 0x0, symName: __RNvMsa_NtCscXJUXcj6jCz_9hashbrown3rawNtB5_13RawTableInner30find_or_find_insert_slot_innerCs3RXxJlnd5m8_14zerovec_derive, symObjAddr: 0x2C54, symBinAddr: 0x14428, symSize: 0x300 }
  - { offset: 0x17A1E, size: 0x8, addend: 0x0, symName: __RNvMsa_NtCscXJUXcj6jCz_9hashbrown3rawNtB5_13RawTableInner5eraseCs3RXxJlnd5m8_14zerovec_derive, symObjAddr: 0x2F54, symBinAddr: 0x14728, symSize: 0x1B0 }
  - { offset: 0x17E0F, size: 0x8, addend: 0x0, symName: __RNvMsi_NtCscXJUXcj6jCz_9hashbrown3rawINtB5_12RawIterRangeTyuEE3newCs3RXxJlnd5m8_14zerovec_derive, symObjAddr: 0x3104, symBinAddr: 0x148D8, symSize: 0xA4 }
  - { offset: 0x17FF3, size: 0x8, addend: 0x0, symName: __RINvMs_NtCsdze8u8oDPro_5alloc3vecINtB5_3VecNtNtCsATtFUPiRFW_3syn4attr9AttributeE10retain_mutNCINvB2_6retainNCNvNtCs3RXxJlnd5m8_14zerovec_derive5utils26extract_zerovec_attributes0E0EB1N_, symObjAddr: 0x0, symBinAddr: 0x14B58, symSize: 0xE4 }
  - { offset: 0x1D128, size: 0x8, addend: 0x0, symName: __RINvNvMs_NtCsdze8u8oDPro_5alloc3vecINtB7_3VecppE10retain_mut12process_loopNCINvMs_B7_IBy_NtNtCsATtFUPiRFW_3syn4attr9AttributeE6retainNCNvNtCs3RXxJlnd5m8_14zerovec_derive5utils26extract_zerovec_attributes0E0B1p_NtNtB9_5alloc6GlobalKb0_EB2d_, symObjAddr: 0xCE8, symBinAddr: 0x15840, symSize: 0xF8 }
  - { offset: 0x1D2DB, size: 0x8, addend: 0x0, symName: __RINvNvMs_NtCsdze8u8oDPro_5alloc3vecINtB7_3VecppE10retain_mut12process_loopNCINvMs_B7_IBy_NtNtCsATtFUPiRFW_3syn4attr9AttributeE6retainNCNvNtCs3RXxJlnd5m8_14zerovec_derive5utils26extract_zerovec_attributes0E0B1p_NtNtB9_5alloc6GlobalKb1_EB2d_, symObjAddr: 0xDE0, symBinAddr: 0x15938, symSize: 0x184 }
  - { offset: 0x1D58B, size: 0x8, addend: 0x0, symName: __RINvNvMs_NtCsdze8u8oDPro_5alloc3vecINtB7_3VecppE10retain_mut12process_loopNCINvMs_B7_IBy_NtNtCsATtFUPiRFW_3syn4attr9AttributeE6retainNCNvNtCs3RXxJlnd5m8_14zerovec_derive5utils35extract_parenthetical_zerovec_attrs0E0B1p_NtNtB9_5alloc6GlobalKb0_EB2d_, symObjAddr: 0xF64, symBinAddr: 0x15ABC, symSize: 0xF8 }
  - { offset: 0x1D73E, size: 0x8, addend: 0x0, symName: __RINvNvMs_NtCsdze8u8oDPro_5alloc3vecINtB7_3VecppE10retain_mut12process_loopNCINvMs_B7_IBy_NtNtCsATtFUPiRFW_3syn4attr9AttributeE6retainNCNvNtCs3RXxJlnd5m8_14zerovec_derive5utils35extract_parenthetical_zerovec_attrs0E0B1p_NtNtB9_5alloc6GlobalKb1_EB2d_, symObjAddr: 0x105C, symBinAddr: 0x15BB4, symSize: 0x184 }
  - { offset: 0x1D9F3, size: 0x8, addend: 0x0, symName: __RNvXNvMs_NtCsdze8u8oDPro_5alloc3vecINtB7_3VecppE10retain_mutINtB2_15BackshiftOnDropNtNtCsATtFUPiRFW_3syn4attr9AttributeNtNtB9_5alloc6GlobalENtNtNtCs9f3LFPSIp77_4core3ops4drop4Drop4dropCs3RXxJlnd5m8_14zerovec_derive, symObjAddr: 0x28C4, symBinAddr: 0x1741C, symSize: 0x134 }
  - { offset: 0x1DC81, size: 0x8, addend: 0x0, symName: __RNCINvMs_NtCsdze8u8oDPro_5alloc3vecINtB7_3VecNtNtCsATtFUPiRFW_3syn4attr9AttributeE6retainNCNvNtCs3RXxJlnd5m8_14zerovec_derive5utils26extract_zerovec_attributes0E0B1v_, symObjAddr: 0x1344, symBinAddr: 0x15E9C, symSize: 0x30 }
  - { offset: 0x1DCDC, size: 0x8, addend: 0x0, symName: __RNCINvMs_NtCsdze8u8oDPro_5alloc3vecINtB7_3VecNtNtCsATtFUPiRFW_3syn4attr9AttributeE6retainNCNvNtCs3RXxJlnd5m8_14zerovec_derive5utils35extract_parenthetical_zerovec_attrs0E0B1v_, symObjAddr: 0x1374, symBinAddr: 0x15ECC, symSize: 0x30 }
  - { offset: 0x1E5AD, size: 0x8, addend: 0x0, symName: __RINvXsd_NtCsdze8u8oDPro_5alloc3vecINtB6_3VecNtCs475r2uZUTuc_11proc_macro211TokenStreamEINtNtNtNtCs9f3LFPSIp77_4core4iter6traits7collect12FromIteratorBG_E9from_iterINtNtNtB1u_8adapters3map3MapINtNtNtB1w_5slice4iter4IterNtNtCs3RXxJlnd5m8_14zerovec_derive5utils9FieldInfoENCNvNtB3y_11make_varule12make_zf_impl0EEB3y_, symObjAddr: 0x11E0, symBinAddr: 0x15D38, symSize: 0x38 }
  - { offset: 0x1E5ED, size: 0x8, addend: 0x0, symName: __RINvXsd_NtCsdze8u8oDPro_5alloc3vecINtB6_3VecNtCs475r2uZUTuc_11proc_macro211TokenStreamEINtNtNtNtCs9f3LFPSIp77_4core4iter6traits7collect12FromIteratorBG_E9from_iterINtNtNtB1u_8adapters3map3MapINtNtNtB1w_5slice4iter4IterNtNtCs3RXxJlnd5m8_14zerovec_derive5utils9FieldInfoENCNvNtB3y_3ule15make_ule_fields0EEB3y_, symObjAddr: 0x1218, symBinAddr: 0x15D70, symSize: 0x38 }
  - { offset: 0x1E62D, size: 0x8, addend: 0x0, symName: __RINvXsd_NtCsdze8u8oDPro_5alloc3vecINtB6_3VecNtNtCs3RXxJlnd5m8_14zerovec_derive5utils9FieldInfoEINtNtNtNtCs9f3LFPSIp77_4core4iter6traits7collect12FromIteratorBG_E9from_iterINtNtNtB1C_8adapters3map3MapINtNtB2O_9enumerate9EnumerateINtNtB2O_4take4TakeINtNtCsATtFUPiRFW_3syn10punctuated4IterNtNtB42_4data5FieldEEENCINvMs0_BI_BG_9make_listB3E_E0EEBK_, symObjAddr: 0x1250, symBinAddr: 0x15DA8, symSize: 0x34 }
  - { offset: 0x1E66E, size: 0x8, addend: 0x0, symName: __RINvXsd_NtCsdze8u8oDPro_5alloc3vecINtB6_3VecNtNtCs3RXxJlnd5m8_14zerovec_derive5utils9FieldInfoEINtNtNtNtCs9f3LFPSIp77_4core4iter6traits7collect12FromIteratorBG_E9from_iterINtNtNtB1C_8adapters3map3MapINtNtB2O_9enumerate9EnumerateINtNtCsATtFUPiRFW_3syn10punctuated4IterNtNtB3J_4data5FieldEENCINvMs0_BI_BG_9make_listB3E_E0EEBK_, symObjAddr: 0x1284, symBinAddr: 0x15DDC, symSize: 0x34 }
  - { offset: 0x1E6AF, size: 0x8, addend: 0x0, symName: __RINvXsd_NtCsdze8u8oDPro_5alloc3vecINtB6_3VecRyEINtNtNtNtCs9f3LFPSIp77_4core4iter6traits7collect12FromIteratorBG_E9from_iterINtNtNtNtCs27l1GJC5rMQ_3std11collections4hash3set4IteryEECs3RXxJlnd5m8_14zerovec_derive, symObjAddr: 0x12B8, symBinAddr: 0x15E10, symSize: 0x34 }
  - { offset: 0x1E6F6, size: 0x8, addend: 0x0, symName: __RINvXsh_NtCsdze8u8oDPro_5alloc3vecINtB6_3VecNtCs475r2uZUTuc_11proc_macro25IdentEINtNtNtNtCs9f3LFPSIp77_4core4iter6traits7collect6ExtendBG_E6extendINtNtNtB1n_8adapters6cloned6ClonedINtNtCsATtFUPiRFW_3syn10punctuated4IterBG_EEECs3RXxJlnd5m8_14zerovec_derive, symObjAddr: 0x12EC, symBinAddr: 0x15E44, symSize: 0x58 }
  - { offset: 0x1E755, size: 0x8, addend: 0x0, symName: __RNCINvMsi_NtCsdze8u8oDPro_5alloc3vecINtB8_3VecNtCs475r2uZUTuc_11proc_macro211TokenStreamE14extend_trustedINtNtNtNtCs9f3LFPSIp77_4core4iter8adapters3map3MapINtNtNtB1O_5slice4iter4IterNtNtCs3RXxJlnd5m8_14zerovec_derive5utils9FieldInfoENCNvNtB2Y_11make_varule12make_zf_impl0EE0B2Y_, symObjAddr: 0x13A4, symBinAddr: 0x15EFC, symSize: 0x64 }
  - { offset: 0x1E846, size: 0x8, addend: 0x0, symName: __RNCINvMsi_NtCsdze8u8oDPro_5alloc3vecINtB8_3VecNtCs475r2uZUTuc_11proc_macro211TokenStreamE14extend_trustedINtNtNtNtCs9f3LFPSIp77_4core4iter8adapters3map3MapINtNtNtB1O_5slice4iter4IterNtNtCs3RXxJlnd5m8_14zerovec_derive5utils9FieldInfoENCNvNtB2Y_3ule15make_ule_fields0EE0B2Y_, symObjAddr: 0x1408, symBinAddr: 0x15F60, symSize: 0x64 }
  - { offset: 0x1EC5D, size: 0x8, addend: 0x0, symName: __RNvXNtNtCsdze8u8oDPro_5alloc3vec11spec_extendINtB4_3VecNtCs475r2uZUTuc_11proc_macro25IdentEINtB2_10SpecExtendBR_INtNtNtNtCs9f3LFPSIp77_4core4iter8adapters6cloned6ClonedINtNtCsATtFUPiRFW_3syn10punctuated4IterBR_EEE11spec_extendCs3RXxJlnd5m8_14zerovec_derive, symObjAddr: 0x20B8, symBinAddr: 0x16C10, symSize: 0x34 }
  - { offset: 0x1ECAE, size: 0x8, addend: 0x0, symName: __RNvXNtNtCsdze8u8oDPro_5alloc3vec11spec_extendINtB4_3VecNtNtCs3RXxJlnd5m8_14zerovec_derive5utils9FieldInfoEINtB2_10SpecExtendBR_INtNtNtNtCs9f3LFPSIp77_4core4iter8adapters3map3MapINtNtB26_9enumerate9EnumerateINtNtB26_4take4TakeINtNtCsATtFUPiRFW_3syn10punctuated4IterNtNtB3G_4data5FieldEEENCINvMs0_BT_BR_9make_listB3i_E0EE11spec_extendBV_, symObjAddr: 0x20EC, symBinAddr: 0x16C44, symSize: 0x24 }
  - { offset: 0x1ED00, size: 0x8, addend: 0x0, symName: __RNvXNtNtCsdze8u8oDPro_5alloc3vec11spec_extendINtB4_3VecNtNtCs3RXxJlnd5m8_14zerovec_derive5utils9FieldInfoEINtB2_10SpecExtendBR_INtNtNtNtCs9f3LFPSIp77_4core4iter8adapters3map3MapINtNtB26_9enumerate9EnumerateINtNtCsATtFUPiRFW_3syn10punctuated4IterNtNtB3n_4data5FieldEENCINvMs0_BT_BR_9make_listB3i_E0EE11spec_extendBV_, symObjAddr: 0x2110, symBinAddr: 0x16C68, symSize: 0x24 }
  - { offset: 0x1ED52, size: 0x8, addend: 0x0, symName: __RNvXNtNtCsdze8u8oDPro_5alloc3vec11spec_extendINtB4_3VecRyEINtB2_10SpecExtendBR_INtNtNtNtCs27l1GJC5rMQ_3std11collections4hash3set4IteryEE11spec_extendCs3RXxJlnd5m8_14zerovec_derive, symObjAddr: 0x2134, symBinAddr: 0x16C8C, symSize: 0x24 }
  - { offset: 0x1EDAA, size: 0x8, addend: 0x0, symName: __RNvXs_NtNtCsdze8u8oDPro_5alloc3vec11spec_extendINtB6_3VecNtCs475r2uZUTuc_11proc_macro211TokenStreamEINtB4_10SpecExtendBT_INtNtNtNtCs9f3LFPSIp77_4core4iter8adapters3map3MapINtNtNtB24_5slice4iter4IterNtNtCs3RXxJlnd5m8_14zerovec_derive5utils9FieldInfoENCNvNtB3e_11make_varule12make_zf_impl0EE11spec_extendB3e_, symObjAddr: 0x2AE4, symBinAddr: 0x1763C, symSize: 0x34 }
  - { offset: 0x1EDFB, size: 0x8, addend: 0x0, symName: __RNvXs_NtNtCsdze8u8oDPro_5alloc3vec11spec_extendINtB6_3VecNtCs475r2uZUTuc_11proc_macro211TokenStreamEINtB4_10SpecExtendBT_INtNtNtNtCs9f3LFPSIp77_4core4iter8adapters3map3MapINtNtNtB24_5slice4iter4IterNtNtCs3RXxJlnd5m8_14zerovec_derive5utils9FieldInfoENCNvNtB3e_3ule15make_ule_fields0EE11spec_extendB3e_, symObjAddr: 0x2B18, symBinAddr: 0x17670, symSize: 0x34 }
  - { offset: 0x1EE58, size: 0x8, addend: 0x0, symName: __RNvXNtNtCsdze8u8oDPro_5alloc3vec14spec_from_iterINtB4_3VecNtCs475r2uZUTuc_11proc_macro211TokenStreamEINtB2_12SpecFromIterBU_INtNtNtNtCs9f3LFPSIp77_4core4iter8adapters3map3MapINtNtNtB27_5slice4iter4IterNtNtCs3RXxJlnd5m8_14zerovec_derive5utils9FieldInfoENCNvNtB3h_11make_varule12make_zf_impl0EE9from_iterB3h_, symObjAddr: 0x2158, symBinAddr: 0x16CB0, symSize: 0x2C }
  - { offset: 0x1EE96, size: 0x8, addend: 0x0, symName: __RNvXNtNtCsdze8u8oDPro_5alloc3vec14spec_from_iterINtB4_3VecNtCs475r2uZUTuc_11proc_macro211TokenStreamEINtB2_12SpecFromIterBU_INtNtNtNtCs9f3LFPSIp77_4core4iter8adapters3map3MapINtNtNtB27_5slice4iter4IterNtNtCs3RXxJlnd5m8_14zerovec_derive5utils9FieldInfoENCNvNtB3h_3ule15make_ule_fields0EE9from_iterB3h_, symObjAddr: 0x2184, symBinAddr: 0x16CDC, symSize: 0x2C }
  - { offset: 0x1EED4, size: 0x8, addend: 0x0, symName: __RNvXNtNtCsdze8u8oDPro_5alloc3vec14spec_from_iterINtB4_3VecNtNtCs3RXxJlnd5m8_14zerovec_derive5utils9FieldInfoEINtB2_12SpecFromIterBU_INtNtNtNtCs9f3LFPSIp77_4core4iter8adapters3map3MapINtNtB2b_9enumerate9EnumerateINtNtB2b_4take4TakeINtNtCsATtFUPiRFW_3syn10punctuated4IterNtNtB3L_4data5FieldEEENCINvMs0_BW_BU_9make_listB3n_E0EE9from_iterBY_, symObjAddr: 0x21B0, symBinAddr: 0x16D08, symSize: 0x14 }
  - { offset: 0x1EF13, size: 0x8, addend: 0x0, symName: __RNvXNtNtCsdze8u8oDPro_5alloc3vec14spec_from_iterINtB4_3VecNtNtCs3RXxJlnd5m8_14zerovec_derive5utils9FieldInfoEINtB2_12SpecFromIterBU_INtNtNtNtCs9f3LFPSIp77_4core4iter8adapters3map3MapINtNtB2b_9enumerate9EnumerateINtNtCsATtFUPiRFW_3syn10punctuated4IterNtNtB3s_4data5FieldEENCINvMs0_BW_BU_9make_listB3n_E0EE9from_iterBY_, symObjAddr: 0x21C4, symBinAddr: 0x16D1C, symSize: 0x14 }
  - { offset: 0x1EF52, size: 0x8, addend: 0x0, symName: __RNvXNtNtCsdze8u8oDPro_5alloc3vec14spec_from_iterINtB4_3VecRyEINtB2_12SpecFromIterBU_INtNtNtNtCs27l1GJC5rMQ_3std11collections4hash3set4IteryEE9from_iterCs3RXxJlnd5m8_14zerovec_derive, symObjAddr: 0x21D8, symBinAddr: 0x16D30, symSize: 0x14 }
  - { offset: 0x1EF9D, size: 0x8, addend: 0x0, symName: __RNvXNtNtCsdze8u8oDPro_5alloc3vec21spec_from_iter_nestedINtB4_3VecNtNtCs3RXxJlnd5m8_14zerovec_derive5utils9FieldInfoEINtB2_18SpecFromIterNestedB11_INtNtNtNtCs9f3LFPSIp77_4core4iter8adapters3map3MapINtNtB2p_9enumerate9EnumerateINtNtB2p_4take4TakeINtNtCsATtFUPiRFW_3syn10punctuated4IterNtNtB3Z_4data5FieldEEENCINvMs0_B13_B11_9make_listB3B_E0EE9from_iterB15_, symObjAddr: 0x21EC, symBinAddr: 0x16D44, symSize: 0x258 }
  - { offset: 0x1F2AF, size: 0x8, addend: 0x0, symName: __RNvXNtNtCsdze8u8oDPro_5alloc3vec21spec_from_iter_nestedINtB4_3VecNtNtCs3RXxJlnd5m8_14zerovec_derive5utils9FieldInfoEINtB2_18SpecFromIterNestedB11_INtNtNtNtCs9f3LFPSIp77_4core4iter8adapters3map3MapINtNtB2p_9enumerate9EnumerateINtNtCsATtFUPiRFW_3syn10punctuated4IterNtNtB3G_4data5FieldEENCINvMs0_B13_B11_9make_listB3B_E0EE9from_iterB15_, symObjAddr: 0x2444, symBinAddr: 0x16F9C, symSize: 0x258 }
  - { offset: 0x1F5C1, size: 0x8, addend: 0x0, symName: __RNvXNtNtCsdze8u8oDPro_5alloc3vec21spec_from_iter_nestedINtB4_3VecRyEINtB2_18SpecFromIterNestedB11_INtNtNtNtCs27l1GJC5rMQ_3std11collections4hash3set4IteryEE9from_iterCs3RXxJlnd5m8_14zerovec_derive, symObjAddr: 0x269C, symBinAddr: 0x171F4, symSize: 0x228 }
  - { offset: 0x1F8D9, size: 0x8, addend: 0x0, symName: __RNvXs_NtNtCsdze8u8oDPro_5alloc3vec21spec_from_iter_nestedINtB6_3VecNtCs475r2uZUTuc_11proc_macro211TokenStreamEINtB4_18SpecFromIterNestedB13_INtNtNtNtCs9f3LFPSIp77_4core4iter8adapters3map3MapINtNtNtB2n_5slice4iter4IterNtNtCs3RXxJlnd5m8_14zerovec_derive5utils9FieldInfoENCNvNtB3x_11make_varule12make_zf_impl0EE9from_iterB3x_, symObjAddr: 0x2B4C, symBinAddr: 0x176A4, symSize: 0x160 }
  - { offset: 0x1F9AF, size: 0x8, addend: 0x0, symName: __RNvXs_NtNtCsdze8u8oDPro_5alloc3vec21spec_from_iter_nestedINtB6_3VecNtCs475r2uZUTuc_11proc_macro211TokenStreamEINtB4_18SpecFromIterNestedB13_INtNtNtNtCs9f3LFPSIp77_4core4iter8adapters3map3MapINtNtNtB2n_5slice4iter4IterNtNtCs3RXxJlnd5m8_14zerovec_derive5utils9FieldInfoENCNvNtB3x_3ule15make_ule_fields0EE9from_iterB3x_, symObjAddr: 0x2CAC, symBinAddr: 0x17804, symSize: 0x160 }
  - { offset: 0x1FA8C, size: 0x8, addend: 0x0, symName: __RNvXs6_NtCsdze8u8oDPro_5alloc3vecINtB5_3VecNtCs475r2uZUTuc_11proc_macro211TokenStreamENtNtNtCs9f3LFPSIp77_4core3ops5deref5Deref5derefCs3RXxJlnd5m8_14zerovec_derive, symObjAddr: 0x2A30, symBinAddr: 0x17588, symSize: 0x24 }
  - { offset: 0x1FACC, size: 0x8, addend: 0x0, symName: __RNvXs6_NtCsdze8u8oDPro_5alloc3vecINtB5_3VecNtCs475r2uZUTuc_11proc_macro25IdentENtNtNtCs9f3LFPSIp77_4core3ops5deref5Deref5derefCs3RXxJlnd5m8_14zerovec_derive, symObjAddr: 0x2A54, symBinAddr: 0x175AC, symSize: 0x24 }
  - { offset: 0x1FB0C, size: 0x8, addend: 0x0, symName: __RNvXs6_NtCsdze8u8oDPro_5alloc3vecINtB5_3VecNtNtCs3RXxJlnd5m8_14zerovec_derive11make_varule12UnsizedFieldENtNtNtCs9f3LFPSIp77_4core3ops5deref5Deref5derefBJ_, symObjAddr: 0x2A78, symBinAddr: 0x175D0, symSize: 0x24 }
  - { offset: 0x1FB4C, size: 0x8, addend: 0x0, symName: __RNvXs6_NtCsdze8u8oDPro_5alloc3vecINtB5_3VecNtNtCs3RXxJlnd5m8_14zerovec_derive5utils9FieldInfoENtNtNtCs9f3LFPSIp77_4core3ops5deref5Deref5derefBJ_, symObjAddr: 0x2A9C, symBinAddr: 0x175F4, symSize: 0x24 }
  - { offset: 0x1FB8C, size: 0x8, addend: 0x0, symName: __RNvXs6_NtCsdze8u8oDPro_5alloc3vecINtB5_3VecTNtCs475r2uZUTuc_11proc_macro25IdentNtNtCsATtFUPiRFW_3syn5token5CommaEENtNtNtCs9f3LFPSIp77_4core3ops5deref5Deref5derefCs3RXxJlnd5m8_14zerovec_derive, symObjAddr: 0x2AC0, symBinAddr: 0x17618, symSize: 0x24 }
  - { offset: 0x1FCC2, size: 0x8, addend: 0x0, symName: __RNvXsb_NtCsdze8u8oDPro_5alloc3vecINtB5_3VecINtNtCs9f3LFPSIp77_4core6option6OptionNtCs475r2uZUTuc_11proc_macro25IdentEEINtNtNtBK_3ops5index5IndexjE5indexCs3RXxJlnd5m8_14zerovec_derive, symObjAddr: 0x2E0C, symBinAddr: 0x17964, symSize: 0x9C }
  - { offset: 0x1FEA0, size: 0x8, addend: 0x0, symName: __RNvXsb_NtCsdze8u8oDPro_5alloc3vecINtB5_3VecNtCs475r2uZUTuc_11proc_macro25IdentEINtNtNtCs9f3LFPSIp77_4core3ops5index5IndexjE5indexCs3RXxJlnd5m8_14zerovec_derive, symObjAddr: 0x2EA8, symBinAddr: 0x17A00, symSize: 0x9C }
  - { offset: 0x2007E, size: 0x8, addend: 0x0, symName: __RNvXsb_NtCsdze8u8oDPro_5alloc3vecINtB5_3VecNtNtCs3RXxJlnd5m8_14zerovec_derive11make_varule12UnsizedFieldEINtNtNtCs9f3LFPSIp77_4core3ops5index5IndexjE5indexBJ_, symObjAddr: 0x2F44, symBinAddr: 0x17A9C, symSize: 0x9C }
  - { offset: 0x2025C, size: 0x8, addend: 0x0, symName: __RNvXsb_NtCsdze8u8oDPro_5alloc3vecINtB5_3VecNtNtCsATtFUPiRFW_3syn4attr9AttributeEINtNtNtCs9f3LFPSIp77_4core3ops5index5IndexjE5indexCs3RXxJlnd5m8_14zerovec_derive, symObjAddr: 0x2FE0, symBinAddr: 0x17B38, symSize: 0x9C }
  - { offset: 0x20440, size: 0x8, addend: 0x0, symName: __RNvXse_NtCsdze8u8oDPro_5alloc3vecINtB5_3VecNtCs475r2uZUTuc_11proc_macro25IdentENtNtNtNtCs9f3LFPSIp77_4core4iter6traits7collect12IntoIterator9into_iterCs3RXxJlnd5m8_14zerovec_derive, symObjAddr: 0x307C, symBinAddr: 0x17BD4, symSize: 0x100 }
  - { offset: 0x20715, size: 0x8, addend: 0x0, symName: __RNvXsn_NtCsdze8u8oDPro_5alloc3vecINtB5_3VecINtNtCs9f3LFPSIp77_4core6option6OptionNtCs475r2uZUTuc_11proc_macro25IdentEENtNtNtBK_3ops4drop4Drop4dropCs3RXxJlnd5m8_14zerovec_derive, symObjAddr: 0x317C, symBinAddr: 0x17CD4, symSize: 0x50 }
  - { offset: 0x20822, size: 0x8, addend: 0x0, symName: __RNvXsn_NtCsdze8u8oDPro_5alloc3vecINtB5_3VecNtCs475r2uZUTuc_11proc_macro211TokenStreamENtNtNtCs9f3LFPSIp77_4core3ops4drop4Drop4dropCs3RXxJlnd5m8_14zerovec_derive, symObjAddr: 0x31CC, symBinAddr: 0x17D24, symSize: 0x50 }
  - { offset: 0x2092F, size: 0x8, addend: 0x0, symName: __RNvXsn_NtCsdze8u8oDPro_5alloc3vecINtB5_3VecNtCs475r2uZUTuc_11proc_macro25IdentENtNtNtCs9f3LFPSIp77_4core3ops4drop4Drop4dropCs3RXxJlnd5m8_14zerovec_derive, symObjAddr: 0x321C, symBinAddr: 0x17D74, symSize: 0x50 }
  - { offset: 0x20A3C, size: 0x8, addend: 0x0, symName: __RNvXsn_NtCsdze8u8oDPro_5alloc3vecINtB5_3VecNtNtCs3RXxJlnd5m8_14zerovec_derive11make_varule12UnsizedFieldENtNtNtCs9f3LFPSIp77_4core3ops4drop4Drop4dropBJ_, symObjAddr: 0x326C, symBinAddr: 0x17DC4, symSize: 0x50 }
  - { offset: 0x20B49, size: 0x8, addend: 0x0, symName: __RNvXsn_NtCsdze8u8oDPro_5alloc3vecINtB5_3VecNtNtCs3RXxJlnd5m8_14zerovec_derive5utils9FieldInfoENtNtNtCs9f3LFPSIp77_4core3ops4drop4Drop4dropBJ_, symObjAddr: 0x32BC, symBinAddr: 0x17E14, symSize: 0x50 }
  - { offset: 0x20C56, size: 0x8, addend: 0x0, symName: __RNvXsn_NtCsdze8u8oDPro_5alloc3vecINtB5_3VecRyENtNtNtCs9f3LFPSIp77_4core3ops4drop4Drop4dropCs3RXxJlnd5m8_14zerovec_derive, symObjAddr: 0x330C, symBinAddr: 0x17E64, symSize: 0x3C }
  - { offset: 0x20D63, size: 0x8, addend: 0x0, symName: __RNvXsn_NtCsdze8u8oDPro_5alloc3vecINtB5_3VecTNtCs475r2uZUTuc_11proc_macro25IdentNtNtCsATtFUPiRFW_3syn5token5CommaEENtNtNtCs9f3LFPSIp77_4core3ops4drop4Drop4dropCs3RXxJlnd5m8_14zerovec_derive, symObjAddr: 0x3348, symBinAddr: 0x17EA0, symSize: 0x50 }
  - { offset: 0x20E76, size: 0x8, addend: 0x0, symName: __RNvXsp_NtCsdze8u8oDPro_5alloc3vecINtB5_3VecRyENtNtCs9f3LFPSIp77_4core3fmt5Debug3fmtCs3RXxJlnd5m8_14zerovec_derive, symObjAddr: 0x3398, symBinAddr: 0x17EF0, symSize: 0x88 }
  - { offset: 0x276D5, size: 0x8, addend: 0x0, symName: __RINvMs_NtCsdze8u8oDPro_5alloc3vecINtB5_3VecNtNtCsATtFUPiRFW_3syn4attr9AttributeE10retain_mutNCINvB2_6retainNCNvNtCs3RXxJlnd5m8_14zerovec_derive5utils26extract_zerovec_attributes0E0EB1N_, symObjAddr: 0x0, symBinAddr: 0x14B58, symSize: 0xE4 }
  - { offset: 0x278A3, size: 0x8, addend: 0x0, symName: __RINvMs_NtCsdze8u8oDPro_5alloc3vecINtB5_3VecNtNtCsATtFUPiRFW_3syn4attr9AttributeE10retain_mutNCINvB2_6retainNCNvNtCs3RXxJlnd5m8_14zerovec_derive5utils35extract_parenthetical_zerovec_attrs0E0EB1N_, symObjAddr: 0xE4, symBinAddr: 0x14C3C, symSize: 0xE4 }
  - { offset: 0x27977, size: 0x8, addend: 0x0, symName: __RINvMs_NtCsdze8u8oDPro_5alloc3vecINtB5_3VecNtNtCsATtFUPiRFW_3syn4attr9AttributeE6retainNCNvNtCs3RXxJlnd5m8_14zerovec_derive5utils26extract_zerovec_attributes0EB1t_, symObjAddr: 0x1C8, symBinAddr: 0x14D20, symSize: 0x4C }
  - { offset: 0x279C4, size: 0x8, addend: 0x0, symName: __RINvMs_NtCsdze8u8oDPro_5alloc3vecINtB5_3VecNtNtCsATtFUPiRFW_3syn4attr9AttributeE6retainNCNvNtCs3RXxJlnd5m8_14zerovec_derive5utils35extract_parenthetical_zerovec_attrs0EB1t_, symObjAddr: 0x214, symBinAddr: 0x14D6C, symSize: 0x40 }
  - { offset: 0x27CFC, size: 0x8, addend: 0x0, symName: __RINvMsi_NtCsdze8u8oDPro_5alloc3vecINtB6_3VecNtCs475r2uZUTuc_11proc_macro211TokenStreamE14extend_trustedINtNtNtNtCs9f3LFPSIp77_4core4iter8adapters3map3MapINtNtNtB1M_5slice4iter4IterNtNtCs3RXxJlnd5m8_14zerovec_derive5utils9FieldInfoENCNvNtB2W_11make_varule12make_zf_impl0EEB2W_, symObjAddr: 0x254, symBinAddr: 0x14DAC, symSize: 0x184 }
  - { offset: 0x28071, size: 0x8, addend: 0x0, symName: __RINvMsi_NtCsdze8u8oDPro_5alloc3vecINtB6_3VecNtCs475r2uZUTuc_11proc_macro211TokenStreamE14extend_trustedINtNtNtNtCs9f3LFPSIp77_4core4iter8adapters3map3MapINtNtNtB1M_5slice4iter4IterNtNtCs3RXxJlnd5m8_14zerovec_derive5utils9FieldInfoENCNvNtB2W_3ule15make_ule_fields0EEB2W_, symObjAddr: 0x3D8, symBinAddr: 0x14F30, symSize: 0x184 }
  - { offset: 0x284E4, size: 0x8, addend: 0x0, symName: __RINvMsi_NtCsdze8u8oDPro_5alloc3vecINtB6_3VecNtCs475r2uZUTuc_11proc_macro25IdentE16extend_desugaredINtNtNtNtCs9f3LFPSIp77_4core4iter8adapters6cloned6ClonedINtNtCsATtFUPiRFW_3syn10punctuated4IterBG_EEECs3RXxJlnd5m8_14zerovec_derive, symObjAddr: 0x55C, symBinAddr: 0x150B4, symSize: 0x1EC }
  - { offset: 0x28985, size: 0x8, addend: 0x0, symName: __RINvMsi_NtCsdze8u8oDPro_5alloc3vecINtB6_3VecNtNtCs3RXxJlnd5m8_14zerovec_derive5utils9FieldInfoE16extend_desugaredINtNtNtNtCs9f3LFPSIp77_4core4iter8adapters3map3MapINtNtB1S_9enumerate9EnumerateINtNtB1S_4take4TakeINtNtCsATtFUPiRFW_3syn10punctuated4IterNtNtB3s_4data5FieldEEENCINvMs0_BI_BG_9make_listB34_E0EEBK_, symObjAddr: 0x748, symBinAddr: 0x152A0, symSize: 0x208 }
  - { offset: 0x28DC5, size: 0x8, addend: 0x0, symName: __RINvMsi_NtCsdze8u8oDPro_5alloc3vecINtB6_3VecNtNtCs3RXxJlnd5m8_14zerovec_derive5utils9FieldInfoE16extend_desugaredINtNtNtNtCs9f3LFPSIp77_4core4iter8adapters3map3MapINtNtB1S_9enumerate9EnumerateINtNtCsATtFUPiRFW_3syn10punctuated4IterNtNtB39_4data5FieldEENCINvMs0_BI_BG_9make_listB34_E0EEBK_, symObjAddr: 0x950, symBinAddr: 0x154A8, symSize: 0x208 }
  - { offset: 0x293E6, size: 0x8, addend: 0x0, symName: __RINvMsi_NtCsdze8u8oDPro_5alloc3vecINtB6_3VecRyE16extend_desugaredINtNtNtNtCs27l1GJC5rMQ_3std11collections4hash3set4IteryEECs3RXxJlnd5m8_14zerovec_derive, symObjAddr: 0xB58, symBinAddr: 0x156B0, symSize: 0x190 }
  - { offset: 0x29B66, size: 0x8, addend: 0x0, symName: __RNvMNtCsdze8u8oDPro_5alloc3vecINtB2_3VecINtNtCs9f3LFPSIp77_4core6option6OptionNtCs475r2uZUTuc_11proc_macro25IdentEE3newCs3RXxJlnd5m8_14zerovec_derive, symObjAddr: 0x146C, symBinAddr: 0x15FC4, symSize: 0x28 }
  - { offset: 0x29C5A, size: 0x8, addend: 0x0, symName: __RNvMNtCsdze8u8oDPro_5alloc3vecINtB2_3VecNtCs475r2uZUTuc_11proc_macro211TokenStreamE3newCs3RXxJlnd5m8_14zerovec_derive, symObjAddr: 0x1494, symBinAddr: 0x15FEC, symSize: 0x28 }
  - { offset: 0x29D4E, size: 0x8, addend: 0x0, symName: __RNvMNtCsdze8u8oDPro_5alloc3vecINtB2_3VecNtCs475r2uZUTuc_11proc_macro25IdentE3newCs3RXxJlnd5m8_14zerovec_derive, symObjAddr: 0x14BC, symBinAddr: 0x16014, symSize: 0x28 }
  - { offset: 0x29E5C, size: 0x8, addend: 0x0, symName: __RNvMNtCsdze8u8oDPro_5alloc3vecINtB2_3VecNtNtCs3RXxJlnd5m8_14zerovec_derive11make_varule12UnsizedFieldE3newBG_, symObjAddr: 0x14E4, symBinAddr: 0x1603C, symSize: 0x28 }
  - { offset: 0x29F50, size: 0x8, addend: 0x0, symName: __RNvMNtCsdze8u8oDPro_5alloc3vecINtB2_3VecNtNtCs3RXxJlnd5m8_14zerovec_derive5utils9FieldInfoE3newBG_, symObjAddr: 0x150C, symBinAddr: 0x16064, symSize: 0x28 }
  - { offset: 0x2A062, size: 0x8, addend: 0x0, symName: __RNvMNtCsdze8u8oDPro_5alloc3vecINtB2_3VecTNtCs475r2uZUTuc_11proc_macro25IdentNtNtCsATtFUPiRFW_3syn5token5CommaEE3newCs3RXxJlnd5m8_14zerovec_derive, symObjAddr: 0x1534, symBinAddr: 0x1608C, symSize: 0x28 }
  - { offset: 0x2A266, size: 0x8, addend: 0x0, symName: __RNvMs_NtCsdze8u8oDPro_5alloc3vecINtB4_3VecINtNtCs9f3LFPSIp77_4core6option6OptionNtCs475r2uZUTuc_11proc_macro25IdentEE4pushCs3RXxJlnd5m8_14zerovec_derive, symObjAddr: 0x155C, symBinAddr: 0x160B4, symSize: 0x114 }
  - { offset: 0x2A5A1, size: 0x8, addend: 0x0, symName: __RNvMs_NtCsdze8u8oDPro_5alloc3vecINtB4_3VecNtCs475r2uZUTuc_11proc_macro211TokenStreamE4pushCs3RXxJlnd5m8_14zerovec_derive, symObjAddr: 0x1670, symBinAddr: 0x161C8, symSize: 0x10C }
  - { offset: 0x2A8B5, size: 0x8, addend: 0x0, symName: __RNvMs_NtCsdze8u8oDPro_5alloc3vecINtB4_3VecNtCs475r2uZUTuc_11proc_macro211TokenStreamE7reserveCs3RXxJlnd5m8_14zerovec_derive, symObjAddr: 0x177C, symBinAddr: 0x162D4, symSize: 0xC4 }
  - { offset: 0x2AB13, size: 0x8, addend: 0x0, symName: __RNvMs_NtCsdze8u8oDPro_5alloc3vecINtB4_3VecNtCs475r2uZUTuc_11proc_macro211TokenStreamE8as_sliceCs3RXxJlnd5m8_14zerovec_derive, symObjAddr: 0x1840, symBinAddr: 0x16398, symSize: 0x7C }
  - { offset: 0x2AC21, size: 0x8, addend: 0x0, symName: __RNvMs_NtCsdze8u8oDPro_5alloc3vecINtB4_3VecNtCs475r2uZUTuc_11proc_macro25IdentE3lenCs3RXxJlnd5m8_14zerovec_derive, symObjAddr: 0x18BC, symBinAddr: 0x16414, symSize: 0x18 }
  - { offset: 0x2AD5A, size: 0x8, addend: 0x0, symName: __RNvMs_NtCsdze8u8oDPro_5alloc3vecINtB4_3VecNtCs475r2uZUTuc_11proc_macro25IdentE7reserveCs3RXxJlnd5m8_14zerovec_derive, symObjAddr: 0x18D4, symBinAddr: 0x1642C, symSize: 0xC4 }
  - { offset: 0x2AFAB, size: 0x8, addend: 0x0, symName: __RNvMs_NtCsdze8u8oDPro_5alloc3vecINtB4_3VecNtCs475r2uZUTuc_11proc_macro25IdentE8as_sliceCs3RXxJlnd5m8_14zerovec_derive, symObjAddr: 0x1998, symBinAddr: 0x164F0, symSize: 0x7C }
  - { offset: 0x2B0C6, size: 0x8, addend: 0x0, symName: __RNvMs_NtCsdze8u8oDPro_5alloc3vecINtB4_3VecNtNtCs3RXxJlnd5m8_14zerovec_derive11make_varule12UnsizedFieldE3lenBI_, symObjAddr: 0x1A14, symBinAddr: 0x1656C, symSize: 0x18 }
  - { offset: 0x2B276, size: 0x8, addend: 0x0, symName: __RNvMs_NtCsdze8u8oDPro_5alloc3vecINtB4_3VecNtNtCs3RXxJlnd5m8_14zerovec_derive11make_varule12UnsizedFieldE4pushBI_, symObjAddr: 0x1A2C, symBinAddr: 0x16584, symSize: 0x12C }
  - { offset: 0x2B571, size: 0x8, addend: 0x0, symName: __RNvMs_NtCsdze8u8oDPro_5alloc3vecINtB4_3VecNtNtCs3RXxJlnd5m8_14zerovec_derive11make_varule12UnsizedFieldE8as_sliceBI_, symObjAddr: 0x1B58, symBinAddr: 0x166B0, symSize: 0x7C }
  - { offset: 0x2B6A4, size: 0x8, addend: 0x0, symName: __RNvMs_NtCsdze8u8oDPro_5alloc3vecINtB4_3VecNtNtCs3RXxJlnd5m8_14zerovec_derive11make_varule12UnsizedFieldE8is_emptyBI_, symObjAddr: 0x1BD4, symBinAddr: 0x1672C, symSize: 0x20 }
  - { offset: 0x2B83E, size: 0x8, addend: 0x0, symName: __RNvMs_NtCsdze8u8oDPro_5alloc3vecINtB4_3VecNtNtCs3RXxJlnd5m8_14zerovec_derive5utils9FieldInfoE4pushBI_, symObjAddr: 0x1BF4, symBinAddr: 0x1674C, symSize: 0x124 }
  - { offset: 0x2BB38, size: 0x8, addend: 0x0, symName: __RNvMs_NtCsdze8u8oDPro_5alloc3vecINtB4_3VecNtNtCs3RXxJlnd5m8_14zerovec_derive5utils9FieldInfoE7reserveBI_, symObjAddr: 0x1D18, symBinAddr: 0x16870, symSize: 0xC4 }
  - { offset: 0x2BD89, size: 0x8, addend: 0x0, symName: __RNvMs_NtCsdze8u8oDPro_5alloc3vecINtB4_3VecNtNtCs3RXxJlnd5m8_14zerovec_derive5utils9FieldInfoE8as_sliceBI_, symObjAddr: 0x1DDC, symBinAddr: 0x16934, symSize: 0x7C }
  - { offset: 0x2BF9B, size: 0x8, addend: 0x0, symName: __RNvMs_NtCsdze8u8oDPro_5alloc3vecINtB4_3VecRyE7reserveCs3RXxJlnd5m8_14zerovec_derive, symObjAddr: 0x1E58, symBinAddr: 0x169B0, symSize: 0xB8 }
  - { offset: 0x2C10C, size: 0x8, addend: 0x0, symName: __RNvMs_NtCsdze8u8oDPro_5alloc3vecINtB4_3VecRyE8is_emptyCs3RXxJlnd5m8_14zerovec_derive, symObjAddr: 0x1F10, symBinAddr: 0x16A68, symSize: 0x20 }
  - { offset: 0x2C2DA, size: 0x8, addend: 0x0, symName: __RNvMs_NtCsdze8u8oDPro_5alloc3vecINtB4_3VecTNtCs475r2uZUTuc_11proc_macro25IdentNtNtCsATtFUPiRFW_3syn5token5CommaEE4pushCs3RXxJlnd5m8_14zerovec_derive, symObjAddr: 0x1F30, symBinAddr: 0x16A88, symSize: 0x10C }
  - { offset: 0x2C5E2, size: 0x8, addend: 0x0, symName: __RNvMs_NtCsdze8u8oDPro_5alloc3vecINtB4_3VecTNtCs475r2uZUTuc_11proc_macro25IdentNtNtCsATtFUPiRFW_3syn5token5CommaEE8as_sliceCs3RXxJlnd5m8_14zerovec_derive, symObjAddr: 0x203C, symBinAddr: 0x16B94, symSize: 0x7C }
  - { offset: 0x2CEBD, size: 0x8, addend: 0x0, symName: __RNvXs4_NtNtCs62MdaZFMefA_5quote9___private3extINtNtCsdze8u8oDPro_5alloc3vec3VecNtCs475r2uZUTuc_11proc_macro211TokenStreamENtB5_16RepAsIteratorExt15quote_into_iterCs3RXxJlnd5m8_14zerovec_derive, symObjAddr: 0x29F8, symBinAddr: 0x17550, symSize: 0x38 }
  - { offset: 0x2DF4F, size: 0x8, addend: 0x0, symName: __RINvYINtNtCsATtFUPiRFW_3syn10punctuated4IterNtCs475r2uZUTuc_11proc_macro25IdentENtNtNtNtCs9f3LFPSIp77_4core4iter6traits8iterator8Iterator6clonedBG_ECs3RXxJlnd5m8_14zerovec_derive, symObjAddr: 0x0, symBinAddr: 0x17F78, symSize: 0x1C }
  - { offset: 0x2E40D, size: 0x8, addend: 0x0, symName: __RNCNCNvXsx_NtCsATtFUPiRFW_3syn10punctuatedINtB9_11PrivateIterNtCs475r2uZUTuc_11proc_macro25IdentNtNtBb_5token5CommaENtNtNtNtCs9f3LFPSIp77_4core4iter6traits12double_ended19DoubleEndedIterator9next_back00Cs3RXxJlnd5m8_14zerovec_derive, symObjAddr: 0x1C, symBinAddr: 0x17F94, symSize: 0x24 }
  - { offset: 0x2E458, size: 0x8, addend: 0x0, symName: __RNCNCNvXsx_NtCsATtFUPiRFW_3syn10punctuatedINtB9_11PrivateIterNtNtBb_4data7VariantNtNtBb_5token5CommaENtNtNtNtCs9f3LFPSIp77_4core4iter6traits12double_ended19DoubleEndedIterator9next_back00Cs3RXxJlnd5m8_14zerovec_derive, symObjAddr: 0x40, symBinAddr: 0x17FB8, symSize: 0x24 }
  - { offset: 0x2E4A3, size: 0x8, addend: 0x0, symName: __RNCNCNvXsx_NtCsATtFUPiRFW_3syn10punctuatedINtB9_11PrivateIterNtNtBb_4path15GenericArgumentNtNtBb_5token5CommaENtNtNtNtCs9f3LFPSIp77_4core4iter6traits12double_ended19DoubleEndedIterator9next_back00Cs3RXxJlnd5m8_14zerovec_derive, symObjAddr: 0x64, symBinAddr: 0x17FDC, symSize: 0x24 }
  - { offset: 0x2E504, size: 0x8, addend: 0x0, symName: __RNCNvXsx_NtCsATtFUPiRFW_3syn10punctuatedINtB7_11PrivateIterNtCs475r2uZUTuc_11proc_macro25IdentNtNtB9_5token5CommaENtNtNtNtCs9f3LFPSIp77_4core4iter6traits12double_ended19DoubleEndedIterator9next_back0Cs3RXxJlnd5m8_14zerovec_derive, symObjAddr: 0x190, symBinAddr: 0x18108, symSize: 0x38 }
  - { offset: 0x2E546, size: 0x8, addend: 0x0, symName: __RNCNvXsx_NtCsATtFUPiRFW_3syn10punctuatedINtB7_11PrivateIterNtNtB9_4data7VariantNtNtB9_5token5CommaENtNtNtNtCs9f3LFPSIp77_4core4iter6traits12double_ended19DoubleEndedIterator9next_back0Cs3RXxJlnd5m8_14zerovec_derive, symObjAddr: 0x1C8, symBinAddr: 0x18140, symSize: 0x38 }
  - { offset: 0x2E588, size: 0x8, addend: 0x0, symName: __RNCNvXsx_NtCsATtFUPiRFW_3syn10punctuatedINtB7_11PrivateIterNtNtB9_4path15GenericArgumentNtNtB9_5token5CommaENtNtNtNtCs9f3LFPSIp77_4core4iter6traits12double_ended19DoubleEndedIterator9next_back0Cs3RXxJlnd5m8_14zerovec_derive, symObjAddr: 0x200, symBinAddr: 0x18178, symSize: 0x38 }
  - { offset: 0x2E5CB, size: 0x8, addend: 0x0, symName: __RNvXsx_NtCsATtFUPiRFW_3syn10punctuatedINtB5_11PrivateIterNtCs475r2uZUTuc_11proc_macro25IdentNtNtB7_5token5CommaENtNtNtNtCs9f3LFPSIp77_4core4iter6traits12double_ended19DoubleEndedIterator9next_backCs3RXxJlnd5m8_14zerovec_derive, symObjAddr: 0x1300, symBinAddr: 0x19278, symSize: 0x40 }
  - { offset: 0x2E60B, size: 0x8, addend: 0x0, symName: __RNvXsx_NtCsATtFUPiRFW_3syn10punctuatedINtB5_11PrivateIterNtNtB7_4data7VariantNtNtB7_5token5CommaENtNtNtNtCs9f3LFPSIp77_4core4iter6traits12double_ended19DoubleEndedIterator9next_backCs3RXxJlnd5m8_14zerovec_derive, symObjAddr: 0x1340, symBinAddr: 0x192B8, symSize: 0x40 }
  - { offset: 0x2E64B, size: 0x8, addend: 0x0, symName: __RNvXsx_NtCsATtFUPiRFW_3syn10punctuatedINtB5_11PrivateIterNtNtB7_4path15GenericArgumentNtNtB7_5token5CommaENtNtNtNtCs9f3LFPSIp77_4core4iter6traits12double_ended19DoubleEndedIterator9next_backCs3RXxJlnd5m8_14zerovec_derive, symObjAddr: 0x1380, symBinAddr: 0x192F8, symSize: 0x40 }
  - { offset: 0x2E696, size: 0x8, addend: 0x0, symName: __RNCNvXsw_NtCsATtFUPiRFW_3syn10punctuatedINtB7_11PrivateIterNtCs475r2uZUTuc_11proc_macro25IdentNtNtB9_5token5CommaENtNtNtNtCs9f3LFPSIp77_4core4iter6traits8iterator8Iterator4next0Cs3RXxJlnd5m8_14zerovec_derive, symObjAddr: 0x88, symBinAddr: 0x18000, symSize: 0x24 }
  - { offset: 0x2E6E1, size: 0x8, addend: 0x0, symName: __RNCNvXsw_NtCsATtFUPiRFW_3syn10punctuatedINtB7_11PrivateIterNtCs475r2uZUTuc_11proc_macro25IdentNtNtB9_5token5CommaENtNtNtNtCs9f3LFPSIp77_4core4iter6traits8iterator8Iterator4nexts_0Cs3RXxJlnd5m8_14zerovec_derive, symObjAddr: 0xAC, symBinAddr: 0x18024, symSize: 0x34 }
  - { offset: 0x2E723, size: 0x8, addend: 0x0, symName: __RNCNvXsw_NtCsATtFUPiRFW_3syn10punctuatedINtB7_11PrivateIterNtNtB9_4data7VariantNtNtB9_5token5CommaENtNtNtNtCs9f3LFPSIp77_4core4iter6traits8iterator8Iterator4next0Cs3RXxJlnd5m8_14zerovec_derive, symObjAddr: 0xE0, symBinAddr: 0x18058, symSize: 0x24 }
  - { offset: 0x2E76E, size: 0x8, addend: 0x0, symName: __RNCNvXsw_NtCsATtFUPiRFW_3syn10punctuatedINtB7_11PrivateIterNtNtB9_4data7VariantNtNtB9_5token5CommaENtNtNtNtCs9f3LFPSIp77_4core4iter6traits8iterator8Iterator4nexts_0Cs3RXxJlnd5m8_14zerovec_derive, symObjAddr: 0x104, symBinAddr: 0x1807C, symSize: 0x34 }
  - { offset: 0x2E7B0, size: 0x8, addend: 0x0, symName: __RNCNvXsw_NtCsATtFUPiRFW_3syn10punctuatedINtB7_11PrivateIterNtNtB9_4path15GenericArgumentNtNtB9_5token5CommaENtNtNtNtCs9f3LFPSIp77_4core4iter6traits8iterator8Iterator4next0Cs3RXxJlnd5m8_14zerovec_derive, symObjAddr: 0x138, symBinAddr: 0x180B0, symSize: 0x24 }
  - { offset: 0x2E7FB, size: 0x8, addend: 0x0, symName: __RNCNvXsw_NtCsATtFUPiRFW_3syn10punctuatedINtB7_11PrivateIterNtNtB9_4path15GenericArgumentNtNtB9_5token5CommaENtNtNtNtCs9f3LFPSIp77_4core4iter6traits8iterator8Iterator4nexts_0Cs3RXxJlnd5m8_14zerovec_derive, symObjAddr: 0x15C, symBinAddr: 0x180D4, symSize: 0x34 }
  - { offset: 0x2E853, size: 0x8, addend: 0x0, symName: __RNvXsw_NtCsATtFUPiRFW_3syn10punctuatedINtB5_11PrivateIterNtCs475r2uZUTuc_11proc_macro25IdentNtNtB7_5token5CommaENtNtNtNtCs9f3LFPSIp77_4core4iter6traits8iterator8Iterator4nextCs3RXxJlnd5m8_14zerovec_derive, symObjAddr: 0x1234, symBinAddr: 0x191AC, symSize: 0x44 }
  - { offset: 0x2E893, size: 0x8, addend: 0x0, symName: __RNvXsw_NtCsATtFUPiRFW_3syn10punctuatedINtB5_11PrivateIterNtNtB7_4data7VariantNtNtB7_5token5CommaENtNtNtNtCs9f3LFPSIp77_4core4iter6traits8iterator8Iterator4nextCs3RXxJlnd5m8_14zerovec_derive, symObjAddr: 0x1278, symBinAddr: 0x191F0, symSize: 0x44 }
  - { offset: 0x2E8D3, size: 0x8, addend: 0x0, symName: __RNvXsw_NtCsATtFUPiRFW_3syn10punctuatedINtB5_11PrivateIterNtNtB7_4path15GenericArgumentNtNtB7_5token5CommaENtNtNtNtCs9f3LFPSIp77_4core4iter6traits8iterator8Iterator4nextCs3RXxJlnd5m8_14zerovec_derive, symObjAddr: 0x12BC, symBinAddr: 0x19234, symSize: 0x44 }
  - { offset: 0x2EA93, size: 0x8, addend: 0x0, symName: __RNvXs9_NtCsATtFUPiRFW_3syn10punctuatedRINtB5_10PunctuatedNtNtB7_4path15GenericArgumentNtNtB7_5token5CommaENtNtNtNtCs9f3LFPSIp77_4core4iter6traits7collect12IntoIterator9into_iterCs3RXxJlnd5m8_14zerovec_derive, symObjAddr: 0xC94, symBinAddr: 0x18C0C, symSize: 0x34 }
  - { offset: 0x2EAD9, size: 0x8, addend: 0x0, symName: __RNvXsA_NtCsATtFUPiRFW_3syn10punctuatedINtB5_11PrivateIterNtCs475r2uZUTuc_11proc_macro25IdentNtNtB7_5token5CommaEINtB5_9IterTraitBT_E9clone_boxCs3RXxJlnd5m8_14zerovec_derive, symObjAddr: 0xCC8, symBinAddr: 0x18C40, symSize: 0x94 }
  - { offset: 0x2EB37, size: 0x8, addend: 0x0, symName: __RNvXsA_NtCsATtFUPiRFW_3syn10punctuatedINtB5_11PrivateIterNtNtB7_4data7VariantNtNtB7_5token5CommaEINtB5_9IterTraitBT_E9clone_boxCs3RXxJlnd5m8_14zerovec_derive, symObjAddr: 0xD5C, symBinAddr: 0x18CD4, symSize: 0x94 }
  - { offset: 0x2EB95, size: 0x8, addend: 0x0, symName: __RNvXsA_NtCsATtFUPiRFW_3syn10punctuatedINtB5_11PrivateIterNtNtB7_4path15GenericArgumentNtNtB7_5token5CommaEINtB5_9IterTraitBT_E9clone_boxCs3RXxJlnd5m8_14zerovec_derive, symObjAddr: 0xDF0, symBinAddr: 0x18D68, symSize: 0x94 }
  - { offset: 0x2EBF9, size: 0x8, addend: 0x0, symName: __RNvXsC_NtCsATtFUPiRFW_3syn10punctuatedINtB5_7IterMutNtNtB7_4data5FieldENtNtNtNtCs9f3LFPSIp77_4core4iter6traits8iterator8Iterator4nextCs3RXxJlnd5m8_14zerovec_derive, symObjAddr: 0xE84, symBinAddr: 0x18DFC, symSize: 0x48 }
  - { offset: 0x2EC36, size: 0x8, addend: 0x0, symName: __RNvXst_NtCsATtFUPiRFW_3syn10punctuatedINtB5_4IterNtCs475r2uZUTuc_11proc_macro25IdentENtNtNtNtCs9f3LFPSIp77_4core4iter6traits8iterator8Iterator4nextCs3RXxJlnd5m8_14zerovec_derive, symObjAddr: 0xF8C, symBinAddr: 0x18F04, symSize: 0x48 }
  - { offset: 0x2EC6D, size: 0x8, addend: 0x0, symName: __RNvXst_NtCsATtFUPiRFW_3syn10punctuatedINtB5_4IterNtCs475r2uZUTuc_11proc_macro25IdentENtNtNtNtCs9f3LFPSIp77_4core4iter6traits8iterator8Iterator9size_hintCs3RXxJlnd5m8_14zerovec_derive, symObjAddr: 0xFD4, symBinAddr: 0x18F4C, symSize: 0x7C }
  - { offset: 0x2ECA4, size: 0x8, addend: 0x0, symName: __RNvXst_NtCsATtFUPiRFW_3syn10punctuatedINtB5_4IterNtNtB7_4data5FieldENtNtNtNtCs9f3LFPSIp77_4core4iter6traits8iterator8Iterator9size_hintCs3RXxJlnd5m8_14zerovec_derive, symObjAddr: 0x1050, symBinAddr: 0x18FC8, symSize: 0x7C }
  - { offset: 0x2ECDB, size: 0x8, addend: 0x0, symName: __RNvXst_NtCsATtFUPiRFW_3syn10punctuatedINtB5_4IterNtNtB7_4data7VariantENtNtNtNtCs9f3LFPSIp77_4core4iter6traits8iterator8Iterator4nextCs3RXxJlnd5m8_14zerovec_derive, symObjAddr: 0x10CC, symBinAddr: 0x19044, symSize: 0x48 }
  - { offset: 0x2ED12, size: 0x8, addend: 0x0, symName: __RNvXst_NtCsATtFUPiRFW_3syn10punctuatedINtB5_4IterNtNtB7_4path15GenericArgumentENtNtNtNtCs9f3LFPSIp77_4core4iter6traits8iterator8Iterator4nextCs3RXxJlnd5m8_14zerovec_derive, symObjAddr: 0x1114, symBinAddr: 0x1908C, symSize: 0x48 }
  - { offset: 0x2ED4F, size: 0x8, addend: 0x0, symName: __RNvXsu_NtCsATtFUPiRFW_3syn10punctuatedINtB5_4IterNtNtB7_4data5FieldENtNtNtNtCs9f3LFPSIp77_4core4iter6traits12double_ended19DoubleEndedIterator9next_backCs3RXxJlnd5m8_14zerovec_derive, symObjAddr: 0x115C, symBinAddr: 0x190D4, symSize: 0x48 }
  - { offset: 0x2ED8C, size: 0x8, addend: 0x0, symName: __RNvXsv_NtCsATtFUPiRFW_3syn10punctuatedINtB5_4IterNtCs475r2uZUTuc_11proc_macro25IdentENtNtNtNtCs9f3LFPSIp77_4core4iter6traits10exact_size17ExactSizeIterator3lenCs3RXxJlnd5m8_14zerovec_derive, symObjAddr: 0x11A4, symBinAddr: 0x1911C, symSize: 0x48 }
  - { offset: 0x2EDC3, size: 0x8, addend: 0x0, symName: __RNvXsv_NtCsATtFUPiRFW_3syn10punctuatedINtB5_4IterNtNtB7_4data5FieldENtNtNtNtCs9f3LFPSIp77_4core4iter6traits10exact_size17ExactSizeIterator3lenCs3RXxJlnd5m8_14zerovec_derive, symObjAddr: 0x11EC, symBinAddr: 0x19164, symSize: 0x48 }
  - { offset: 0x2EE00, size: 0x8, addend: 0x0, symName: __RNvXsy_NtCsATtFUPiRFW_3syn10punctuatedINtB5_11PrivateIterNtCs475r2uZUTuc_11proc_macro25IdentNtNtB7_5token5CommaENtNtNtNtCs9f3LFPSIp77_4core4iter6traits10exact_size17ExactSizeIterator3lenCs3RXxJlnd5m8_14zerovec_derive, symObjAddr: 0x13C0, symBinAddr: 0x19338, symSize: 0xC4 }
  - { offset: 0x2EEEA, size: 0x8, addend: 0x0, symName: __RNvXsy_NtCsATtFUPiRFW_3syn10punctuatedINtB5_11PrivateIterNtNtB7_4data7VariantNtNtB7_5token5CommaENtNtNtNtCs9f3LFPSIp77_4core4iter6traits10exact_size17ExactSizeIterator3lenCs3RXxJlnd5m8_14zerovec_derive, symObjAddr: 0x1484, symBinAddr: 0x193FC, symSize: 0xC4 }
  - { offset: 0x2EFD4, size: 0x8, addend: 0x0, symName: __RNvXsy_NtCsATtFUPiRFW_3syn10punctuatedINtB5_11PrivateIterNtNtB7_4path15GenericArgumentNtNtB7_5token5CommaENtNtNtNtCs9f3LFPSIp77_4core4iter6traits10exact_size17ExactSizeIterator3lenCs3RXxJlnd5m8_14zerovec_derive, symObjAddr: 0x1548, symBinAddr: 0x194C0, symSize: 0xC4 }
  - { offset: 0x2F0C4, size: 0x8, addend: 0x0, symName: __RNvXsz_NtCsATtFUPiRFW_3syn10punctuatedINtB5_11PrivateIterNtCs475r2uZUTuc_11proc_macro25IdentNtNtB7_5token5CommaENtNtCs9f3LFPSIp77_4core5clone5Clone5cloneCs3RXxJlnd5m8_14zerovec_derive, symObjAddr: 0x160C, symBinAddr: 0x19584, symSize: 0x68 }
  - { offset: 0x2F104, size: 0x8, addend: 0x0, symName: __RNvXsz_NtCsATtFUPiRFW_3syn10punctuatedINtB5_11PrivateIterNtNtB7_4data7VariantNtNtB7_5token5CommaENtNtCs9f3LFPSIp77_4core5clone5Clone5cloneCs3RXxJlnd5m8_14zerovec_derive, symObjAddr: 0x1674, symBinAddr: 0x195EC, symSize: 0x68 }
  - { offset: 0x2F144, size: 0x8, addend: 0x0, symName: __RNvXsz_NtCsATtFUPiRFW_3syn10punctuatedINtB5_11PrivateIterNtNtB7_4path15GenericArgumentNtNtB7_5token5CommaENtNtCs9f3LFPSIp77_4core5clone5Clone5cloneCs3RXxJlnd5m8_14zerovec_derive, symObjAddr: 0x16DC, symBinAddr: 0x19654, symSize: 0x68 }
  - { offset: 0x351DA, size: 0x8, addend: 0x0, symName: __RNvXs_NtNtCs9f3LFPSIp77_4core5slice4iterRSNtNtCs3RXxJlnd5m8_14zerovec_derive5utils9FieldInfoNtNtNtNtB8_4iter6traits7collect12IntoIterator9into_iterBI_, symObjAddr: 0xEFC, symBinAddr: 0x18E74, symSize: 0x58 }
  - { offset: 0x35447, size: 0x8, addend: 0x0, symName: __RNvMNtCs9f3LFPSIp77_4core5sliceSNtNtCs3RXxJlnd5m8_14zerovec_derive5utils9FieldInfo4iterBy_, symObjAddr: 0x238, symBinAddr: 0x181B0, symSize: 0x28 }
  - { offset: 0x37974, size: 0x8, addend: 0x0, symName: __RNvXsP_NtCs9f3LFPSIp77_4core3fmtRNtNtCs3RXxJlnd5m8_14zerovec_derive5utils9FieldInfoNtB5_5Debug3fmtBz_, symObjAddr: 0xECC, symBinAddr: 0x18E44, symSize: 0x30 }
  - { offset: 0x37A29, size: 0x8, addend: 0x0, symName: __RINvYINtNtCsATtFUPiRFW_3syn10punctuated4IterNtCs475r2uZUTuc_11proc_macro25IdentENtNtNtNtCs9f3LFPSIp77_4core4iter6traits8iterator8Iterator6clonedBG_ECs3RXxJlnd5m8_14zerovec_derive, symObjAddr: 0x0, symBinAddr: 0x17F78, symSize: 0x1C }
  - { offset: 0x37A69, size: 0x8, addend: 0x0, symName: __RNvYINtNtCsATtFUPiRFW_3syn10punctuated11PrivateIterNtCs475r2uZUTuc_11proc_macro25IdentNtNtB7_5token5CommaENtNtNtNtCs9f3LFPSIp77_4core4iter6traits8iterator8Iterator10advance_byCs3RXxJlnd5m8_14zerovec_derive, symObjAddr: 0x190C, symBinAddr: 0x19884, symSize: 0x134 }
  - { offset: 0x37BBE, size: 0x8, addend: 0x0, symName: __RNvYINtNtCsATtFUPiRFW_3syn10punctuated11PrivateIterNtCs475r2uZUTuc_11proc_macro25IdentNtNtB7_5token5CommaENtNtNtNtCs9f3LFPSIp77_4core4iter6traits8iterator8Iterator3nthCs3RXxJlnd5m8_14zerovec_derive, symObjAddr: 0x1A40, symBinAddr: 0x199B8, symSize: 0x80 }
  - { offset: 0x37C91, size: 0x8, addend: 0x0, symName: __RNvYINtNtCsATtFUPiRFW_3syn10punctuated11PrivateIterNtCs475r2uZUTuc_11proc_macro25IdentNtNtB7_5token5CommaENtNtNtNtCs9f3LFPSIp77_4core4iter6traits8iterator8Iterator9size_hintCs3RXxJlnd5m8_14zerovec_derive, symObjAddr: 0x1AC0, symBinAddr: 0x19A38, symSize: 0x34 }
  - { offset: 0x37CC6, size: 0x8, addend: 0x0, symName: __RNvYINtNtCsATtFUPiRFW_3syn10punctuated11PrivateIterNtNtB7_4data7VariantNtNtB7_5token5CommaENtNtNtNtCs9f3LFPSIp77_4core4iter6traits8iterator8Iterator10advance_byCs3RXxJlnd5m8_14zerovec_derive, symObjAddr: 0x1CBC, symBinAddr: 0x19C34, symSize: 0x134 }
  - { offset: 0x37E1B, size: 0x8, addend: 0x0, symName: __RNvYINtNtCsATtFUPiRFW_3syn10punctuated11PrivateIterNtNtB7_4data7VariantNtNtB7_5token5CommaENtNtNtNtCs9f3LFPSIp77_4core4iter6traits8iterator8Iterator3nthCs3RXxJlnd5m8_14zerovec_derive, symObjAddr: 0x1DF0, symBinAddr: 0x19D68, symSize: 0x80 }
  - { offset: 0x37EEE, size: 0x8, addend: 0x0, symName: __RNvYINtNtCsATtFUPiRFW_3syn10punctuated11PrivateIterNtNtB7_4data7VariantNtNtB7_5token5CommaENtNtNtNtCs9f3LFPSIp77_4core4iter6traits8iterator8Iterator9size_hintCs3RXxJlnd5m8_14zerovec_derive, symObjAddr: 0x1E70, symBinAddr: 0x19DE8, symSize: 0x34 }
  - { offset: 0x37F23, size: 0x8, addend: 0x0, symName: __RNvYINtNtCsATtFUPiRFW_3syn10punctuated11PrivateIterNtNtB7_4path15GenericArgumentNtNtB7_5token5CommaENtNtNtNtCs9f3LFPSIp77_4core4iter6traits8iterator8Iterator10advance_byCs3RXxJlnd5m8_14zerovec_derive, symObjAddr: 0x206C, symBinAddr: 0x19FE4, symSize: 0x134 }
  - { offset: 0x38078, size: 0x8, addend: 0x0, symName: __RNvYINtNtCsATtFUPiRFW_3syn10punctuated11PrivateIterNtNtB7_4path15GenericArgumentNtNtB7_5token5CommaENtNtNtNtCs9f3LFPSIp77_4core4iter6traits8iterator8Iterator3nthCs3RXxJlnd5m8_14zerovec_derive, symObjAddr: 0x21A0, symBinAddr: 0x1A118, symSize: 0x80 }
  - { offset: 0x3814B, size: 0x8, addend: 0x0, symName: __RNvYINtNtCsATtFUPiRFW_3syn10punctuated11PrivateIterNtNtB7_4path15GenericArgumentNtNtB7_5token5CommaENtNtNtNtCs9f3LFPSIp77_4core4iter6traits8iterator8Iterator9size_hintCs3RXxJlnd5m8_14zerovec_derive, symObjAddr: 0x2220, symBinAddr: 0x1A198, symSize: 0x34 }
  - { offset: 0x38180, size: 0x8, addend: 0x0, symName: __RNvYINtNtCsATtFUPiRFW_3syn10punctuated4IterNtNtB7_4data5FieldENtNtNtNtCs9f3LFPSIp77_4core4iter6traits8iterator8Iterator4takeCs3RXxJlnd5m8_14zerovec_derive, symObjAddr: 0x2254, symBinAddr: 0x1A1CC, symSize: 0x2C }
  - { offset: 0x381EC, size: 0x8, addend: 0x0, symName: __RNvYINtNtCsATtFUPiRFW_3syn10punctuated4IterNtNtB7_4data5FieldENtNtNtNtCs9f3LFPSIp77_4core4iter6traits8iterator8Iterator9enumerateCs3RXxJlnd5m8_14zerovec_derive, symObjAddr: 0x2280, symBinAddr: 0x1A1F8, symSize: 0x28 }
  - { offset: 0x38241, size: 0x8, addend: 0x0, symName: __RNvYINtNtCsATtFUPiRFW_3syn10punctuated4IterNtNtB7_4data7VariantENtNtNtNtCs9f3LFPSIp77_4core4iter6traits8iterator8Iterator9enumerateCs3RXxJlnd5m8_14zerovec_derive, symObjAddr: 0x22A8, symBinAddr: 0x1A220, symSize: 0x28 }
  - { offset: 0x38296, size: 0x8, addend: 0x0, symName: __RNvYINtNtCsATtFUPiRFW_3syn10punctuated4IterNtNtB7_4path11PathSegmentENtNtNtNtCs9f3LFPSIp77_4core4iter6traits8iterator8Iterator10advance_byCs3RXxJlnd5m8_14zerovec_derive, symObjAddr: 0x22D0, symBinAddr: 0x1A248, symSize: 0x134 }
  - { offset: 0x383EB, size: 0x8, addend: 0x0, symName: __RNvYINtNtCsATtFUPiRFW_3syn10punctuated4IterNtNtB7_4path11PathSegmentENtNtNtNtCs9f3LFPSIp77_4core4iter6traits8iterator8Iterator3nthCs3RXxJlnd5m8_14zerovec_derive, symObjAddr: 0x2404, symBinAddr: 0x1A37C, symSize: 0x80 }
  - { offset: 0x384CA, size: 0x8, addend: 0x0, symName: __RNvXs_NtNtNtCs9f3LFPSIp77_4core4iter6traits7collectINtNtCsATtFUPiRFW_3syn10punctuated4IterNtCs475r2uZUTuc_11proc_macro25IdentENtB4_12IntoIterator9into_iterCs3RXxJlnd5m8_14zerovec_derive, symObjAddr: 0xF54, symBinAddr: 0x18ECC, symSize: 0x1C }
  - { offset: 0x38501, size: 0x8, addend: 0x0, symName: __RNvXs_NtNtNtCs9f3LFPSIp77_4core4iter6traits7collectINtNtCsATtFUPiRFW_3syn10punctuated7IterMutNtNtBS_4data5FieldENtB4_12IntoIterator9into_iterCs3RXxJlnd5m8_14zerovec_derive, symObjAddr: 0xF70, symBinAddr: 0x18EE8, symSize: 0x1C }
  - { offset: 0x38544, size: 0x8, addend: 0x0, symName: __RNvYINtNtCsATtFUPiRFW_3syn10punctuated11PrivateIterNtCs475r2uZUTuc_11proc_macro25IdentNtNtB7_5token5CommaENtNtNtNtCs9f3LFPSIp77_4core4iter6traits10exact_size17ExactSizeIterator8is_emptyCs3RXxJlnd5m8_14zerovec_derive, symObjAddr: 0x1744, symBinAddr: 0x196BC, symSize: 0x2C }
  - { offset: 0x38579, size: 0x8, addend: 0x0, symName: __RNvYINtNtCsATtFUPiRFW_3syn10punctuated11PrivateIterNtNtB7_4data7VariantNtNtB7_5token5CommaENtNtNtNtCs9f3LFPSIp77_4core4iter6traits10exact_size17ExactSizeIterator8is_emptyCs3RXxJlnd5m8_14zerovec_derive, symObjAddr: 0x1AF4, symBinAddr: 0x19A6C, symSize: 0x2C }
  - { offset: 0x385AE, size: 0x8, addend: 0x0, symName: __RNvYINtNtCsATtFUPiRFW_3syn10punctuated11PrivateIterNtNtB7_4path15GenericArgumentNtNtB7_5token5CommaENtNtNtNtCs9f3LFPSIp77_4core4iter6traits10exact_size17ExactSizeIterator8is_emptyCs3RXxJlnd5m8_14zerovec_derive, symObjAddr: 0x1EA4, symBinAddr: 0x19E1C, symSize: 0x2C }
  - { offset: 0x385EF, size: 0x8, addend: 0x0, symName: __RNvYINtNtCsATtFUPiRFW_3syn10punctuated11PrivateIterNtCs475r2uZUTuc_11proc_macro25IdentNtNtB7_5token5CommaENtNtNtNtCs9f3LFPSIp77_4core4iter6traits12double_ended19DoubleEndedIterator15advance_back_byCs3RXxJlnd5m8_14zerovec_derive, symObjAddr: 0x1770, symBinAddr: 0x196E8, symSize: 0x134 }
  - { offset: 0x3873C, size: 0x8, addend: 0x0, symName: __RNvYINtNtCsATtFUPiRFW_3syn10punctuated11PrivateIterNtCs475r2uZUTuc_11proc_macro25IdentNtNtB7_5token5CommaENtNtNtNtCs9f3LFPSIp77_4core4iter6traits12double_ended19DoubleEndedIterator8nth_backCs3RXxJlnd5m8_14zerovec_derive, symObjAddr: 0x18A4, symBinAddr: 0x1981C, symSize: 0x68 }
  - { offset: 0x387BA, size: 0x8, addend: 0x0, symName: __RNvYINtNtCsATtFUPiRFW_3syn10punctuated11PrivateIterNtNtB7_4data7VariantNtNtB7_5token5CommaENtNtNtNtCs9f3LFPSIp77_4core4iter6traits12double_ended19DoubleEndedIterator15advance_back_byCs3RXxJlnd5m8_14zerovec_derive, symObjAddr: 0x1B20, symBinAddr: 0x19A98, symSize: 0x134 }
  - { offset: 0x38907, size: 0x8, addend: 0x0, symName: __RNvYINtNtCsATtFUPiRFW_3syn10punctuated11PrivateIterNtNtB7_4data7VariantNtNtB7_5token5CommaENtNtNtNtCs9f3LFPSIp77_4core4iter6traits12double_ended19DoubleEndedIterator8nth_backCs3RXxJlnd5m8_14zerovec_derive, symObjAddr: 0x1C54, symBinAddr: 0x19BCC, symSize: 0x68 }
  - { offset: 0x38985, size: 0x8, addend: 0x0, symName: __RNvYINtNtCsATtFUPiRFW_3syn10punctuated11PrivateIterNtNtB7_4path15GenericArgumentNtNtB7_5token5CommaENtNtNtNtCs9f3LFPSIp77_4core4iter6traits12double_ended19DoubleEndedIterator15advance_back_byCs3RXxJlnd5m8_14zerovec_derive, symObjAddr: 0x1ED0, symBinAddr: 0x19E48, symSize: 0x134 }
  - { offset: 0x38AD2, size: 0x8, addend: 0x0, symName: __RNvYINtNtCsATtFUPiRFW_3syn10punctuated11PrivateIterNtNtB7_4path15GenericArgumentNtNtB7_5token5CommaENtNtNtNtCs9f3LFPSIp77_4core4iter6traits12double_ended19DoubleEndedIterator8nth_backCs3RXxJlnd5m8_14zerovec_derive, symObjAddr: 0x2004, symBinAddr: 0x19F7C, symSize: 0x68 }
  - { offset: 0x3963F, size: 0x8, addend: 0x0, symName: __RNvXs1_NtNtNtCs9f3LFPSIp77_4core3ops8function5implsQNCNvMNtCs3RXxJlnd5m8_14zerovec_derive5utilsNtBT_8ReprInfo7compute0INtB7_5FnMutTRRNtNtCsATtFUPiRFW_3syn4attr9AttributeEE8call_mutBV_, symObjAddr: 0xBFC, symBinAddr: 0x18B74, symSize: 0x30 }
  - { offset: 0x39694, size: 0x8, addend: 0x0, symName: __RNvXs2_NtNtNtCs9f3LFPSIp77_4core3ops8function5implsQNCINvMs0_NtCs3RXxJlnd5m8_14zerovec_derive5utilsNtBX_9FieldInfo9make_listINtNtCsATtFUPiRFW_3syn10punctuated4IterNtNtB23_4data5FieldEE0INtB7_6FnOnceTTjRB2B_EEE9call_onceBZ_, symObjAddr: 0xC2C, symBinAddr: 0x18BA4, symSize: 0x34 }
  - { offset: 0x396E3, size: 0x8, addend: 0x0, symName: __RNvXs2_NtNtNtCs9f3LFPSIp77_4core3ops8function5implsQNCINvMs0_NtCs3RXxJlnd5m8_14zerovec_derive5utilsNtBX_9FieldInfo9make_listINtNtNtNtBb_4iter8adapters4take4TakeINtNtCsATtFUPiRFW_3syn10punctuated4IterNtNtB2D_4data5FieldEEE0INtB7_6FnOnceTTjRB3b_EEE9call_onceBZ_, symObjAddr: 0xC60, symBinAddr: 0x18BD8, symSize: 0x34 }
  - { offset: 0x3993E, size: 0x8, addend: 0x0, symName: __RNvYNtNtCs3RXxJlnd5m8_14zerovec_derive5utils12ZeroVecAttrsNtNtCs9f3LFPSIp77_4core5clone5Clone10clone_fromB6_, symObjAddr: 0x2484, symBinAddr: 0x1A3FC, symSize: 0x6C }
  - { offset: 0x3997D, size: 0x8, addend: 0x0, symName: __RNvYNtNtCs3RXxJlnd5m8_14zerovec_derive5utils9FieldInfoNtNtCs9f3LFPSIp77_4core5clone5Clone10clone_fromB6_, symObjAddr: 0x24F0, symBinAddr: 0x1A468, symSize: 0x84 }
  - { offset: 0x3AFFD, size: 0x8, addend: 0x0, symName: __RNvMNtCsATtFUPiRFW_3syn10punctuatedINtB2_10PunctuatedNtCs475r2uZUTuc_11proc_macro25IdentNtNtB4_5token5CommaE10push_punctCs3RXxJlnd5m8_14zerovec_derive, symObjAddr: 0x260, symBinAddr: 0x181D8, symSize: 0x1C8 }
  - { offset: 0x3B07A, size: 0x8, addend: 0x0, symName: __RNvMNtCsATtFUPiRFW_3syn10punctuatedINtB2_10PunctuatedNtCs475r2uZUTuc_11proc_macro25IdentNtNtB4_5token5CommaE10push_valueCs3RXxJlnd5m8_14zerovec_derive, symObjAddr: 0x428, symBinAddr: 0x183A0, symSize: 0x1A4 }
  - { offset: 0x3B0E8, size: 0x8, addend: 0x0, symName: __RNvMNtCsATtFUPiRFW_3syn10punctuatedINtB2_10PunctuatedNtCs475r2uZUTuc_11proc_macro25IdentNtNtB4_5token5CommaE17empty_or_trailingCs3RXxJlnd5m8_14zerovec_derive, symObjAddr: 0x5CC, symBinAddr: 0x18544, symSize: 0x34 }
  - { offset: 0x3B190, size: 0x8, addend: 0x0, symName: __RNvMNtCsATtFUPiRFW_3syn10punctuatedINtB2_10PunctuatedNtCs475r2uZUTuc_11proc_macro25IdentNtNtB4_5token5CommaE21parse_terminated_withCs3RXxJlnd5m8_14zerovec_derive, symObjAddr: 0x600, symBinAddr: 0x18578, symSize: 0x350 }
  - { offset: 0x3B293, size: 0x8, addend: 0x0, symName: __RNvMNtCsATtFUPiRFW_3syn10punctuatedINtB2_10PunctuatedNtCs475r2uZUTuc_11proc_macro25IdentNtNtB4_5token5CommaE3newCs3RXxJlnd5m8_14zerovec_derive, symObjAddr: 0x950, symBinAddr: 0x188C8, symSize: 0x54 }
  - { offset: 0x3B30E, size: 0x8, addend: 0x0, symName: __RNvMNtCsATtFUPiRFW_3syn10punctuatedINtB2_10PunctuatedNtCs475r2uZUTuc_11proc_macro25IdentNtNtB4_5token5CommaE4iterCs3RXxJlnd5m8_14zerovec_derive, symObjAddr: 0x9A4, symBinAddr: 0x1891C, symSize: 0xC8 }
  - { offset: 0x3B3A7, size: 0x8, addend: 0x0, symName: __RNvMNtCsATtFUPiRFW_3syn10punctuatedINtB2_10PunctuatedNtNtB4_4data7VariantNtNtB4_5token5CommaE4iterCs3RXxJlnd5m8_14zerovec_derive, symObjAddr: 0xA6C, symBinAddr: 0x189E4, symSize: 0xC8 }
  - { offset: 0x3B440, size: 0x8, addend: 0x0, symName: __RNvMNtCsATtFUPiRFW_3syn10punctuatedINtB2_10PunctuatedNtNtB4_4path15GenericArgumentNtNtB4_5token5CommaE4iterCs3RXxJlnd5m8_14zerovec_derive, symObjAddr: 0xB34, symBinAddr: 0x18AAC, symSize: 0xC8 }
  - { offset: 0x3B5CA, size: 0x8, addend: 0x0, symName: __RNCNvMNtCs3RXxJlnd5m8_14zerovec_derive5utilsNtB4_8ReprInfo7compute0B6_, symObjAddr: 0x295C, symBinAddr: 0x1A8D4, symSize: 0x50 }
  - { offset: 0x3B60E, size: 0x8, addend: 0x0, symName: __RNvXs_NtCs3RXxJlnd5m8_14zerovec_derive5utilsNtB4_18IdentListAttributeNtNtCsATtFUPiRFW_3syn5parse5Parse5parse, symObjAddr: 0x2A50, symBinAddr: 0x1A9C8, symSize: 0xE8 }
  - { offset: 0x3B659, size: 0x8, addend: 0x0, symName: __RNvNtCs3RXxJlnd5m8_14zerovec_derive5utils16wrap_field_inits, symObjAddr: 0x2B38, symBinAddr: 0x1AAB0, symSize: 0x418 }
  - { offset: 0x3B816, size: 0x8, addend: 0x0, symName: __RNvNtCs3RXxJlnd5m8_14zerovec_derive5utils8semi_for, symObjAddr: 0x2F50, symBinAddr: 0x1AEC8, symSize: 0xBC }
  - { offset: 0x3B857, size: 0x8, addend: 0x0, symName: __RNvNtCs3RXxJlnd5m8_14zerovec_derive5utils8repr_for, symObjAddr: 0x300C, symBinAddr: 0x1AF84, symSize: 0x144 }
  - { offset: 0x3B8AD, size: 0x8, addend: 0x0, symName: __RNvNtCs3RXxJlnd5m8_14zerovec_derive5utils14suffixed_ident, symObjAddr: 0x3150, symBinAddr: 0x1B0C8, symSize: 0x168 }
  - { offset: 0x3B9D7, size: 0x8, addend: 0x0, symName: __RINvNtCs3RXxJlnd5m8_14zerovec_derive5utils26generate_per_field_offsetsNCNvNtB4_11make_varule16make_encode_impl0EB4_, symObjAddr: 0x32B8, symBinAddr: 0x1B230, symSize: 0x918 }
  - { offset: 0x3BB6B, size: 0x8, addend: 0x0, symName: __RINvNtCs3RXxJlnd5m8_14zerovec_derive5utils26generate_per_field_offsetsNCNvNtB4_3ule23generate_ule_validators0EB4_, symObjAddr: 0x3BD0, symBinAddr: 0x1BB48, symSize: 0x918 }
  - { offset: 0x3BD09, size: 0x8, addend: 0x0, symName: __RNCINvMs0_NtCs3RXxJlnd5m8_14zerovec_derive5utilsNtB8_9FieldInfo9make_listINtNtCsATtFUPiRFW_3syn10punctuated4IterNtNtB1e_4data5FieldEE0Ba_, symObjAddr: 0x45A0, symBinAddr: 0x1C518, symSize: 0x50 }
  - { offset: 0x3BD68, size: 0x8, addend: 0x0, symName: __RNCINvMs0_NtCs3RXxJlnd5m8_14zerovec_derive5utilsNtB8_9FieldInfo9make_listINtNtNtNtCs9f3LFPSIp77_4core4iter8adapters4take4TakeINtNtCsATtFUPiRFW_3syn10punctuated4IterNtNtB24_4data5FieldEEE0Ba_, symObjAddr: 0x45F0, symBinAddr: 0x1C568, symSize: 0x50 }
  - { offset: 0x3BDD7, size: 0x8, addend: 0x0, symName: __RNvNtCs3RXxJlnd5m8_14zerovec_derive5utils35extract_parenthetical_zerovec_attrs, symObjAddr: 0x4B58, symBinAddr: 0x1CAD0, symSize: 0x188 }
  - { offset: 0x3BE5F, size: 0x8, addend: 0x0, symName: __RNCNvNtCs3RXxJlnd5m8_14zerovec_derive5utils35extract_parenthetical_zerovec_attrs0B5_, symObjAddr: 0x4CE0, symBinAddr: 0x1CC58, symSize: 0x3DC }
  - { offset: 0x3BFA3, size: 0x8, addend: 0x0, symName: __RNvNtCs3RXxJlnd5m8_14zerovec_derive5utils26extract_zerovec_attributes, symObjAddr: 0x50BC, symBinAddr: 0x1D034, symSize: 0x8C }
  - { offset: 0x3BFE9, size: 0x8, addend: 0x0, symName: __RNCNvNtCs3RXxJlnd5m8_14zerovec_derive5utils26extract_zerovec_attributes0B5_, symObjAddr: 0x5148, symBinAddr: 0x1D0C0, symSize: 0x118 }
  - { offset: 0x3C027, size: 0x8, addend: 0x0, symName: __RNvNtCs3RXxJlnd5m8_14zerovec_derive5utils24extract_field_attributes, symObjAddr: 0x5260, symBinAddr: 0x1D1D8, symSize: 0x314 }
  - { offset: 0x3C0B3, size: 0x8, addend: 0x0, symName: __RNvNtCs3RXxJlnd5m8_14zerovec_derive5utils25extract_attributes_common, symObjAddr: 0x5574, symBinAddr: 0x1D4EC, symSize: 0xB88 }
  - { offset: 0x3C4A5, size: 0x8, addend: 0x0, symName: __RNvXs1_NtCs3RXxJlnd5m8_14zerovec_derive5utilsNtB5_8ReprInfoNtNtCs9f3LFPSIp77_4core7default7Default7defaultB7_, symObjAddr: 0x60FC, symBinAddr: 0x1E074, symSize: 0x20 }
  - { offset: 0x3C4C8, size: 0x8, addend: 0x0, symName: __RNvXs2_NtCs3RXxJlnd5m8_14zerovec_derive5utilsNtB5_9FieldInfoNtNtCs9f3LFPSIp77_4core5clone5Clone5cloneB7_, symObjAddr: 0x611C, symBinAddr: 0x1E094, symSize: 0x58 }
  - { offset: 0x3C4FA, size: 0x8, addend: 0x0, symName: __RNvXs3_NtCs3RXxJlnd5m8_14zerovec_derive5utilsNtB5_9FieldInfoNtNtCs9f3LFPSIp77_4core3fmt5Debug3fmtB7_, symObjAddr: 0x6174, symBinAddr: 0x1E0EC, symSize: 0xB4 }
  - { offset: 0x3C53A, size: 0x8, addend: 0x0, symName: __RNvXs4_NtCs3RXxJlnd5m8_14zerovec_derive5utilsNtB5_12ZeroVecAttrsNtNtCs9f3LFPSIp77_4core7default7Default7defaultB7_, symObjAddr: 0x6228, symBinAddr: 0x1E1A0, symSize: 0x34 }
  - { offset: 0x3C55E, size: 0x8, addend: 0x0, symName: __RNvXs6_NtCs3RXxJlnd5m8_14zerovec_derive5utilsNtB5_12ZeroVecAttrsNtNtCs9f3LFPSIp77_4core5clone5Clone5cloneB7_, symObjAddr: 0x625C, symBinAddr: 0x1E1D4, symSize: 0x34 }
  - { offset: 0x3CDDB, size: 0x8, addend: 0x0, symName: __RNvMNtCs3RXxJlnd5m8_14zerovec_derive5utilsNtB2_8ReprInfo7compute, symObjAddr: 0x2574, symBinAddr: 0x1A4EC, symSize: 0x3E8 }
  - { offset: 0x3CE7F, size: 0x8, addend: 0x0, symName: __RNvMNtCs3RXxJlnd5m8_14zerovec_derive5utilsNtB2_8ReprInfo22cpacked_or_transparent, symObjAddr: 0x29AC, symBinAddr: 0x1A924, symSize: 0xA4 }
  - { offset: 0x3D003, size: 0x8, addend: 0x0, symName: __RINvMs0_NtCs3RXxJlnd5m8_14zerovec_derive5utilsNtB6_9FieldInfo9make_listINtNtCsATtFUPiRFW_3syn10punctuated4IterNtNtB1c_4data5FieldEEB8_, symObjAddr: 0x44E8, symBinAddr: 0x1C460, symSize: 0x64 }
  - { offset: 0x3D02E, size: 0x8, addend: 0x0, symName: __RINvMs0_NtCs3RXxJlnd5m8_14zerovec_derive5utilsNtB6_9FieldInfo9make_listINtNtNtNtCs9f3LFPSIp77_4core4iter8adapters4take4TakeINtNtCsATtFUPiRFW_3syn10punctuated4IterNtNtB22_4data5FieldEEEB8_, symObjAddr: 0x454C, symBinAddr: 0x1C4C4, symSize: 0x54 }
  - { offset: 0x3D05A, size: 0x8, addend: 0x0, symName: __RNvMs0_NtCs3RXxJlnd5m8_14zerovec_derive5utilsNtB5_9FieldInfo13new_for_field, symObjAddr: 0x4640, symBinAddr: 0x1C5B8, symSize: 0x18C }
  - { offset: 0x3D0E0, size: 0x8, addend: 0x0, symName: __RNvMs0_NtCs3RXxJlnd5m8_14zerovec_derive5utilsNtB5_9FieldInfo6setter, symObjAddr: 0x47CC, symBinAddr: 0x1C744, symSize: 0xF4 }
  - { offset: 0x3D12C, size: 0x8, addend: 0x0, symName: __RNvMs0_NtCs3RXxJlnd5m8_14zerovec_derive5utilsNtB5_9FieldInfo6getter, symObjAddr: 0x48C0, symBinAddr: 0x1C838, symSize: 0x124 }
  - { offset: 0x3D1F1, size: 0x8, addend: 0x0, symName: __RNvMs0_NtCs3RXxJlnd5m8_14zerovec_derive5utilsNtB5_9FieldInfo15getter_doc_name, symObjAddr: 0x49E4, symBinAddr: 0x1C95C, symSize: 0x174 }
  - { offset: 0x3D6AE, size: 0x8, addend: 0x0, symName: __RINvNtNtCsjLJ1XWNSM6u_10proc_macro6bridge6client10run_clientNtB2_11TokenStreamINtNtCs9f3LFPSIp77_4core6option6OptionBW_ENCNCINvMs7_B2_INtB2_6ClientNtB6_11TokenStreamB2l_E7expand1NvCs3RXxJlnd5m8_14zerovec_derive10ule_deriveE00EB2S_, symObjAddr: 0x0, symBinAddr: 0x1E208, symSize: 0x21C }
  - { offset: 0x3D917, size: 0x8, addend: 0x0, symName: __RNCINvNtNtCsjLJ1XWNSM6u_10proc_macro6bridge6client10run_clientNtB4_11TokenStreamINtNtCs9f3LFPSIp77_4core6option6OptionBY_ENCNCINvMs7_B4_INtB4_6ClientNtB8_11TokenStreamB2n_E7expand1NvCs3RXxJlnd5m8_14zerovec_derive10ule_deriveE00E0B2U_, symObjAddr: 0xF04, symBinAddr: 0x1F10C, symSize: 0x3DC }
  - { offset: 0x3DE71, size: 0x8, addend: 0x0, symName: __RNCINvNtNtCsjLJ1XWNSM6u_10proc_macro6bridge6client10run_clientNtB4_11TokenStreamINtNtCs9f3LFPSIp77_4core6option6OptionBY_ENCNCINvMs7_B4_INtB4_6ClientNtB8_11TokenStreamB2n_E7expand1NvCs3RXxJlnd5m8_14zerovec_derive13varule_deriveE00E0B2U_, symObjAddr: 0x12E0, symBinAddr: 0x1F4E8, symSize: 0x3DC }
  - { offset: 0x3E3CB, size: 0x8, addend: 0x0, symName: __RNCINvNtNtCsjLJ1XWNSM6u_10proc_macro6bridge6client10run_clientTNtB4_11TokenStreamBZ_EINtNtCs9f3LFPSIp77_4core6option6OptionBZ_ENCNCINvMs8_B4_INtB4_6ClientTNtB8_11TokenStreamB2t_EB2t_E7expand2NvCs3RXxJlnd5m8_14zerovec_derive11make_varuleE00E0B35_, symObjAddr: 0x16BC, symBinAddr: 0x1F8C4, symSize: 0x3FC }
  - { offset: 0x3E925, size: 0x8, addend: 0x0, symName: __RNCINvNtNtCsjLJ1XWNSM6u_10proc_macro6bridge6client10run_clientTNtB4_11TokenStreamBZ_EINtNtCs9f3LFPSIp77_4core6option6OptionBZ_ENCNCINvMs8_B4_INtB4_6ClientTNtB8_11TokenStreamB2t_EB2t_E7expand2NvCs3RXxJlnd5m8_14zerovec_derive8make_uleE00E0B35_, symObjAddr: 0x1AB8, symBinAddr: 0x1FCC0, symSize: 0x3FC }
  - { offset: 0x3EE84, size: 0x8, addend: 0x0, symName: __RNCNCINvNtNtCsjLJ1XWNSM6u_10proc_macro6bridge6client10run_clientNtB6_11TokenStreamINtNtCs9f3LFPSIp77_4core6option6OptionB10_ENCNCINvMs7_B6_INtB6_6ClientNtBa_11TokenStreamB2q_E7expand1NvCs3RXxJlnd5m8_14zerovec_derive10ule_deriveE00E00B2X_, symObjAddr: 0x1F9C, symBinAddr: 0x201A4, symSize: 0x28 }
  - { offset: 0x3EEDD, size: 0x8, addend: 0x0, symName: __RNCNCINvNtNtCsjLJ1XWNSM6u_10proc_macro6bridge6client10run_clientNtB6_11TokenStreamINtNtCs9f3LFPSIp77_4core6option6OptionB10_ENCNCINvMs7_B6_INtB6_6ClientNtBa_11TokenStreamB2q_E7expand1NvCs3RXxJlnd5m8_14zerovec_derive13varule_deriveE00E00B2X_, symObjAddr: 0x1FC4, symBinAddr: 0x201CC, symSize: 0x28 }
  - { offset: 0x3EF36, size: 0x8, addend: 0x0, symName: __RNCNCINvNtNtCsjLJ1XWNSM6u_10proc_macro6bridge6client10run_clientTNtB6_11TokenStreamB11_EINtNtCs9f3LFPSIp77_4core6option6OptionB11_ENCNCINvMs8_B6_INtB6_6ClientTNtBa_11TokenStreamB2x_EB2x_E7expand2NvCs3RXxJlnd5m8_14zerovec_derive11make_varuleE00E00B39_, symObjAddr: 0x1FEC, symBinAddr: 0x201F4, symSize: 0x24 }
  - { offset: 0x3EF91, size: 0x8, addend: 0x0, symName: __RNCNCINvNtNtCsjLJ1XWNSM6u_10proc_macro6bridge6client10run_clientTNtB6_11TokenStreamB11_EINtNtCs9f3LFPSIp77_4core6option6OptionB11_ENCNCINvMs8_B6_INtB6_6ClientTNtBa_11TokenStreamB2x_EB2x_E7expand2NvCs3RXxJlnd5m8_14zerovec_derive8make_uleE00E00B39_, symObjAddr: 0x2010, symBinAddr: 0x20218, symSize: 0x24 }
  - { offset: 0x3F023, size: 0x8, addend: 0x0, symName: __RNCNCINvMs7_NtNtCsjLJ1XWNSM6u_10proc_macro6bridge6clientINtBa_6ClientNtBe_11TokenStreamB15_E7expand1NvCs3RXxJlnd5m8_14zerovec_derive10ule_deriveE00B1C_, symObjAddr: 0x1EB4, symBinAddr: 0x200BC, symSize: 0x30 }
  - { offset: 0x3F06A, size: 0x8, addend: 0x0, symName: __RNCNCINvMs7_NtNtCsjLJ1XWNSM6u_10proc_macro6bridge6clientINtBa_6ClientNtBe_11TokenStreamB15_E7expand1NvCs3RXxJlnd5m8_14zerovec_derive13varule_deriveE00B1C_, symObjAddr: 0x1EE4, symBinAddr: 0x200EC, symSize: 0x30 }
  - { offset: 0x3F0B2, size: 0x8, addend: 0x0, symName: __RNCINvMs7_NtNtCsjLJ1XWNSM6u_10proc_macro6bridge6clientINtB8_6ClientNtBc_11TokenStreamB13_E7expand1NvCs3RXxJlnd5m8_14zerovec_derive10ule_deriveE0B1A_, symObjAddr: 0xE44, symBinAddr: 0x1F04C, symSize: 0x30 }
  - { offset: 0x3F0FA, size: 0x8, addend: 0x0, symName: __RNCINvMs7_NtNtCsjLJ1XWNSM6u_10proc_macro6bridge6clientINtB8_6ClientNtBc_11TokenStreamB13_E7expand1NvCs3RXxJlnd5m8_14zerovec_derive13varule_deriveE0B1A_, symObjAddr: 0xE74, symBinAddr: 0x1F07C, symSize: 0x30 }
  - { offset: 0x3F165, size: 0x8, addend: 0x0, symName: __RINvNtNtCsjLJ1XWNSM6u_10proc_macro6bridge6client10run_clientNtB2_11TokenStreamINtNtCs9f3LFPSIp77_4core6option6OptionBW_ENCNCINvMs7_B2_INtB2_6ClientNtB6_11TokenStreamB2l_E7expand1NvCs3RXxJlnd5m8_14zerovec_derive10ule_deriveE00EB2S_, symObjAddr: 0x0, symBinAddr: 0x1E208, symSize: 0x21C }
  - { offset: 0x3F324, size: 0x8, addend: 0x0, symName: __RINvNtNtCsjLJ1XWNSM6u_10proc_macro6bridge6client10run_clientNtB2_11TokenStreamINtNtCs9f3LFPSIp77_4core6option6OptionBW_ENCNCINvMs7_B2_INtB2_6ClientNtB6_11TokenStreamB2l_E7expand1NvCs3RXxJlnd5m8_14zerovec_derive13varule_deriveE00EB2S_, symObjAddr: 0x21C, symBinAddr: 0x1E424, symSize: 0x21C }
  - { offset: 0x3F518, size: 0x8, addend: 0x0, symName: __RNCNCINvMs8_NtNtCsjLJ1XWNSM6u_10proc_macro6bridge6clientINtBa_6ClientTNtBe_11TokenStreamB16_EB16_E7expand2NvCs3RXxJlnd5m8_14zerovec_derive11make_varuleE00B1I_, symObjAddr: 0x1F14, symBinAddr: 0x2011C, symSize: 0x44 }
  - { offset: 0x3F587, size: 0x8, addend: 0x0, symName: __RNCNCINvMs8_NtNtCsjLJ1XWNSM6u_10proc_macro6bridge6clientINtBa_6ClientTNtBe_11TokenStreamB16_EB16_E7expand2NvCs3RXxJlnd5m8_14zerovec_derive8make_uleE00B1I_, symObjAddr: 0x1F58, symBinAddr: 0x20160, symSize: 0x44 }
  - { offset: 0x3F5F7, size: 0x8, addend: 0x0, symName: __RNCINvMs8_NtNtCsjLJ1XWNSM6u_10proc_macro6bridge6clientINtB8_6ClientTNtBc_11TokenStreamB14_EB14_E7expand2NvCs3RXxJlnd5m8_14zerovec_derive11make_varuleE0B1G_, symObjAddr: 0xEA4, symBinAddr: 0x1F0AC, symSize: 0x30 }
  - { offset: 0x3F63F, size: 0x8, addend: 0x0, symName: __RNCINvMs8_NtNtCsjLJ1XWNSM6u_10proc_macro6bridge6clientINtB8_6ClientTNtBc_11TokenStreamB14_EB14_E7expand2NvCs3RXxJlnd5m8_14zerovec_derive8make_uleE0B1G_, symObjAddr: 0xED4, symBinAddr: 0x1F0DC, symSize: 0x30 }
  - { offset: 0x3F689, size: 0x8, addend: 0x0, symName: __RINvNtNtCsjLJ1XWNSM6u_10proc_macro6bridge6client10run_clientTNtB2_11TokenStreamBX_EINtNtCs9f3LFPSIp77_4core6option6OptionBX_ENCNCINvMs8_B2_INtB2_6ClientTNtB6_11TokenStreamB2r_EB2r_E7expand2NvCs3RXxJlnd5m8_14zerovec_derive11make_varuleE00EB33_, symObjAddr: 0x438, symBinAddr: 0x1E640, symSize: 0x21C }
  - { offset: 0x3F848, size: 0x8, addend: 0x0, symName: __RINvNtNtCsjLJ1XWNSM6u_10proc_macro6bridge6client10run_clientTNtB2_11TokenStreamBX_EINtNtCs9f3LFPSIp77_4core6option6OptionBX_ENCNCINvMs8_B2_INtB2_6ClientTNtB6_11TokenStreamB2r_EB2r_E7expand2NvCs3RXxJlnd5m8_14zerovec_derive8make_uleE00EB33_, symObjAddr: 0x654, symBinAddr: 0x1E85C, symSize: 0x21C }
  - { offset: 0x3FAA2, size: 0x8, addend: 0x0, symName: __RNvXsh_NtNtCsjLJ1XWNSM6u_10proc_macro6bridge6clientNtB5_11TokenStreamINtNtB7_3rpc6EncodeuE6encodeCs3RXxJlnd5m8_14zerovec_derive, symObjAddr: 0x2AE0, symBinAddr: 0x20CE8, symSize: 0x50 }
  - { offset: 0x3FBBC, size: 0x8, addend: 0x0, symName: __RNvXsk_NtNtCsjLJ1XWNSM6u_10proc_macro6bridge6clientNtB5_11TokenStreamINtNtB7_3rpc9DecodeMutuE6decodeCs3RXxJlnd5m8_14zerovec_derive, symObjAddr: 0x2B30, symBinAddr: 0x20D38, symSize: 0x2C }
  - { offset: 0x3FC05, size: 0x8, addend: 0x0, symName: __RNvXsr_NtNtCsjLJ1XWNSM6u_10proc_macro6bridge6clientNtB5_4SpanINtNtB7_3rpc9DecodeMutuE6decodeCs3RXxJlnd5m8_14zerovec_derive, symObjAddr: 0x2B5C, symBinAddr: 0x20D64, symSize: 0x2C }
  - { offset: 0x3FF93, size: 0x8, addend: 0x0, symName: __RNvXs9_NtNtCsjLJ1XWNSM6u_10proc_macro6bridge3rpcTNtNtB7_6client11TokenStreamBL_EINtB5_9DecodeMutuE6decodeCs3RXxJlnd5m8_14zerovec_derive, symObjAddr: 0x2A28, symBinAddr: 0x20C30, symSize: 0x80 }
  - { offset: 0x43D8C, size: 0x8, addend: 0x0, symName: __RNvNvMNtNtCs9f3LFPSIp77_4core3ptr9const_ptrPp7sub_ptr18precondition_checkCs3RXxJlnd5m8_14zerovec_derive, symObjAddr: 0x2190, symBinAddr: 0x20398, symSize: 0x40 }
  - { offset: 0x4436D, size: 0x8, addend: 0x0, symName: __RINvXs2U_NtNtCs9f3LFPSIp77_4core5slice4iterINtB7_4IterNtNtCs3RXxJlnd5m8_14zerovec_derive11make_varule12UnsizedFieldENtNtNtNtBb_4iter6traits8iterator8Iterator3allNCNvMBS_NtBS_13UnsizedFields6has_zf0EBU_, symObjAddr: 0x870, symBinAddr: 0x1EA78, symSize: 0xB0 }
  - { offset: 0x443D2, size: 0x8, addend: 0x0, symName: __RINvXs2U_NtNtCs9f3LFPSIp77_4core5slice4iterINtB7_4IterNtNtCs3RXxJlnd5m8_14zerovec_derive5utils9FieldInfoENtNtNtNtBb_4iter6traits8iterator8Iterator4folduNCINvNtNtB1L_8adapters3map8map_foldRBQ_NtCs475r2uZUTuc_11proc_macro211TokenStreamuNCNvNtBU_11make_varule12make_zf_impl0NCINvNvB1F_8for_each4callB33_NCINvMsi_NtCsdze8u8oDPro_5alloc3vecINtB4X_3VecB33_E14extend_trustedINtB2v_3MapBF_B3K_EE0E0E0EBU_, symObjAddr: 0x920, symBinAddr: 0x1EB28, symSize: 0x200 }
  - { offset: 0x445B4, size: 0x8, addend: 0x0, symName: __RINvXs2U_NtNtCs9f3LFPSIp77_4core5slice4iterINtB7_4IterNtNtCs3RXxJlnd5m8_14zerovec_derive5utils9FieldInfoENtNtNtNtBb_4iter6traits8iterator8Iterator4folduNCINvNtNtB1L_8adapters3map8map_foldRBQ_NtCs475r2uZUTuc_11proc_macro211TokenStreamuNCNvNtBU_3ule15make_ule_fields0NCINvNvB1F_8for_each4callB33_NCINvMsi_NtCsdze8u8oDPro_5alloc3vecINtB4R_3VecB33_E14extend_trustedINtB2v_3MapBF_B3K_EE0E0E0EBU_, symObjAddr: 0xB20, symBinAddr: 0x1ED28, symSize: 0x200 }
  - { offset: 0x44796, size: 0x8, addend: 0x0, symName: __RINvXs2U_NtNtCs9f3LFPSIp77_4core5slice4iterINtB7_4IterNtNtCsATtFUPiRFW_3syn4attr9AttributeENtNtNtNtBb_4iter6traits8iterator8Iterator4findQNCNvMNtCs3RXxJlnd5m8_14zerovec_derive5utilsNtB2h_8ReprInfo7compute0EB2j_, symObjAddr: 0xD20, symBinAddr: 0x1EF28, symSize: 0xB4 }
  - { offset: 0x447FB, size: 0x8, addend: 0x0, symName: __RNvXs2U_NtNtCs9f3LFPSIp77_4core5slice4iterINtB6_4IterNtCs475r2uZUTuc_11proc_macro211TokenStreamENtNtNtNtBa_4iter6traits8iterator8Iterator4nextCs3RXxJlnd5m8_14zerovec_derive, symObjAddr: 0x21D0, symBinAddr: 0x203D8, symSize: 0xCC }
  - { offset: 0x4495C, size: 0x8, addend: 0x0, symName: __RNvXs2U_NtNtCs9f3LFPSIp77_4core5slice4iterINtB6_4IterNtNtCs3RXxJlnd5m8_14zerovec_derive11make_varule12UnsizedFieldENtNtNtNtBa_4iter6traits8iterator8Iterator4nextBT_, symObjAddr: 0x229C, symBinAddr: 0x204A4, symSize: 0xCC }
  - { offset: 0x44ABD, size: 0x8, addend: 0x0, symName: __RNvXs2U_NtNtCs9f3LFPSIp77_4core5slice4iterINtB6_4IterNtNtCs3RXxJlnd5m8_14zerovec_derive5utils9FieldInfoENtNtNtNtBa_4iter6traits8iterator8Iterator4nextBT_, symObjAddr: 0x2368, symBinAddr: 0x20570, symSize: 0xCC }
  - { offset: 0x44C1E, size: 0x8, addend: 0x0, symName: __RNvXs2U_NtNtCs9f3LFPSIp77_4core5slice4iterINtB6_4IterNtNtCs3RXxJlnd5m8_14zerovec_derive5utils9FieldInfoENtNtNtNtBa_4iter6traits8iterator8Iterator9size_hintBT_, symObjAddr: 0x2434, symBinAddr: 0x2063C, symSize: 0xC0 }
  - { offset: 0x44D03, size: 0x8, addend: 0x0, symName: __RNvXs2U_NtNtCs9f3LFPSIp77_4core5slice4iterINtB6_4IterRyENtNtNtNtBa_4iter6traits8iterator8Iterator4nextCs3RXxJlnd5m8_14zerovec_derive, symObjAddr: 0x24F4, symBinAddr: 0x206FC, symSize: 0xCC }
  - { offset: 0x44E64, size: 0x8, addend: 0x0, symName: __RNvXs2U_NtNtCs9f3LFPSIp77_4core5slice4iterINtB6_4IterTNtCs475r2uZUTuc_11proc_macro25IdentNtNtCsATtFUPiRFW_3syn5token5CommaEENtNtNtNtBa_4iter6traits8iterator8Iterator4nextCs3RXxJlnd5m8_14zerovec_derive, symObjAddr: 0x25C0, symBinAddr: 0x207C8, symSize: 0xCC }
  - { offset: 0x4530A, size: 0x8, addend: 0x0, symName: __RNvXs2V_NtNtCs9f3LFPSIp77_4core5slice4iterINtB6_4IterTNtCs475r2uZUTuc_11proc_macro25IdentNtNtCsATtFUPiRFW_3syn5token5CommaEENtNtNtNtBa_4iter6traits12double_ended19DoubleEndedIterator9next_backCs3RXxJlnd5m8_14zerovec_derive, symObjAddr: 0x268C, symBinAddr: 0x20894, symSize: 0x114 }
  - { offset: 0x45490, size: 0x8, addend: 0x0, symName: __RNvXs2V_NtNtCs9f3LFPSIp77_4core5slice4iterINtB6_4IterTNtNtCsATtFUPiRFW_3syn4data7VariantNtNtBU_5token5CommaEENtNtNtNtBa_4iter6traits12double_ended19DoubleEndedIterator9next_backCs3RXxJlnd5m8_14zerovec_derive, symObjAddr: 0x27A0, symBinAddr: 0x209A8, symSize: 0x114 }
  - { offset: 0x45616, size: 0x8, addend: 0x0, symName: __RNvXs2V_NtNtCs9f3LFPSIp77_4core5slice4iterINtB6_4IterTNtNtCsATtFUPiRFW_3syn4path15GenericArgumentNtNtBU_5token5CommaEENtNtNtNtBa_4iter6traits12double_ended19DoubleEndedIterator9next_backCs3RXxJlnd5m8_14zerovec_derive, symObjAddr: 0x28B4, symBinAddr: 0x20ABC, symSize: 0x114 }
  - { offset: 0x45890, size: 0x8, addend: 0x0, symName: __RNvXs5_NtNtCs9f3LFPSIp77_4core5slice4iterINtB5_4IterTNtCs475r2uZUTuc_11proc_macro25IdentNtNtCsATtFUPiRFW_3syn5token5CommaEENtNtB9_5clone5Clone5cloneCs3RXxJlnd5m8_14zerovec_derive, symObjAddr: 0x29C8, symBinAddr: 0x20BD0, symSize: 0x20 }
  - { offset: 0x458C5, size: 0x8, addend: 0x0, symName: __RNvXs5_NtNtCs9f3LFPSIp77_4core5slice4iterINtB5_4IterTNtNtCsATtFUPiRFW_3syn4data7VariantNtNtBT_5token5CommaEENtNtB9_5clone5Clone5cloneCs3RXxJlnd5m8_14zerovec_derive, symObjAddr: 0x29E8, symBinAddr: 0x20BF0, symSize: 0x20 }
  - { offset: 0x458FA, size: 0x8, addend: 0x0, symName: __RNvXs5_NtNtCs9f3LFPSIp77_4core5slice4iterINtB5_4IterTNtNtCsATtFUPiRFW_3syn4path15GenericArgumentNtNtBT_5token5CommaEENtNtB9_5clone5Clone5cloneCs3RXxJlnd5m8_14zerovec_derive, symObjAddr: 0x2A08, symBinAddr: 0x20C10, symSize: 0x20 }
  - { offset: 0x45BA2, size: 0x8, addend: 0x0, symName: __RINvYINtNtNtCs9f3LFPSIp77_4core5slice4iter4IterNtNtCs3RXxJlnd5m8_14zerovec_derive5utils9FieldInfoENtNtNtNtBa_4iter6traits8iterator8Iterator3mapNtCs475r2uZUTuc_11proc_macro211TokenStreamNCNvNtBN_11make_varule12make_zf_impl0EBN_, symObjAddr: 0xDD4, symBinAddr: 0x1EFDC, symSize: 0x1C }
  - { offset: 0x45BFA, size: 0x8, addend: 0x0, symName: __RINvYINtNtNtCs9f3LFPSIp77_4core5slice4iter4IterNtNtCs3RXxJlnd5m8_14zerovec_derive5utils9FieldInfoENtNtNtNtBa_4iter6traits8iterator8Iterator3mapNtCs475r2uZUTuc_11proc_macro211TokenStreamNCNvNtBN_3ule15make_ule_fields0EBN_, symObjAddr: 0xDF0, symBinAddr: 0x1EFF8, symSize: 0x1C }
  - { offset: 0x45C52, size: 0x8, addend: 0x0, symName: __RINvYINtNtNtCs9f3LFPSIp77_4core5slice4iter4IterNtNtCs3RXxJlnd5m8_14zerovec_derive5utils9FieldInfoENtNtNtNtBa_4iter6traits8iterator8Iterator3mapNtCs475r2uZUTuc_11proc_macro211TokenStreamNCNvNtBN_6varule11derive_impl0EBN_, symObjAddr: 0xE0C, symBinAddr: 0x1F014, symSize: 0x1C }
  - { offset: 0x45CAA, size: 0x8, addend: 0x0, symName: __RINvYINtNtNtCs9f3LFPSIp77_4core5slice4iter4IterNtNtCsATtFUPiRFW_3syn4attr9AttributeENtNtNtNtBa_4iter6traits8iterator8Iterator6filterNCNvMNtCs3RXxJlnd5m8_14zerovec_derive5utilsNtB2b_8ReprInfo7compute0EB2d_, symObjAddr: 0xE28, symBinAddr: 0x1F030, symSize: 0x1C }
  - { offset: 0x45CF9, size: 0x8, addend: 0x0, symName: __RNvYINtNtNtCs9f3LFPSIp77_4core5slice4iter4IterNtNtCs3RXxJlnd5m8_14zerovec_derive11make_varule12UnsizedFieldENtNtNtNtB9_4iter6traits8iterator8Iterator9enumerateBM_, symObjAddr: 0x2B88, symBinAddr: 0x20D90, symSize: 0x28 }
  - { offset: 0x45D4E, size: 0x8, addend: 0x0, symName: __RNvYINtNtNtCs9f3LFPSIp77_4core5slice4iter4IterNtNtCs3RXxJlnd5m8_14zerovec_derive5utils9FieldInfoENtNtNtNtB9_4iter6traits8iterator8Iterator9enumerateBM_, symObjAddr: 0x2BB0, symBinAddr: 0x20DB8, symSize: 0x28 }
  - { offset: 0x45DE1, size: 0x8, addend: 0x0, symName: __RNvXs_NtNtNtCs9f3LFPSIp77_4core4iter6traits7collectINtNtNtBa_5slice4iter4IterNtNtCs3RXxJlnd5m8_14zerovec_derive11make_varule12UnsizedFieldENtB4_12IntoIterator9into_iterB1h_, symObjAddr: 0x2AA8, symBinAddr: 0x20CB0, symSize: 0x1C }
  - { offset: 0x45E18, size: 0x8, addend: 0x0, symName: __RNvXs_NtNtNtCs9f3LFPSIp77_4core4iter6traits7collectINtNtNtBa_5slice4iter4IterRyENtB4_12IntoIterator9into_iterCs3RXxJlnd5m8_14zerovec_derive, symObjAddr: 0x2AC4, symBinAddr: 0x20CCC, symSize: 0x1C }
  - { offset: 0x4D7E6, size: 0x8, addend: 0x0, symName: __RNvMs4_NtNtCs9f3LFPSIp77_4core5slice4iterINtB5_4IterNtCs475r2uZUTuc_11proc_macro211TokenStreamE3newCs3RXxJlnd5m8_14zerovec_derive, symObjAddr: 0x2034, symBinAddr: 0x2023C, symSize: 0x50 }
  - { offset: 0x4D9AE, size: 0x8, addend: 0x0, symName: __RNvMs4_NtNtCs9f3LFPSIp77_4core5slice4iterINtB5_4IterNtNtCs3RXxJlnd5m8_14zerovec_derive11make_varule12UnsizedFieldE3newBS_, symObjAddr: 0x2084, symBinAddr: 0x2028C, symSize: 0x58 }
  - { offset: 0x4DB42, size: 0x8, addend: 0x0, symName: __RNvMs4_NtNtCs9f3LFPSIp77_4core5slice4iterINtB5_4IterNtNtCs3RXxJlnd5m8_14zerovec_derive5utils9FieldInfoE3newBS_, symObjAddr: 0x20DC, symBinAddr: 0x202E4, symSize: 0x58 }
  - { offset: 0x4DD0E, size: 0x8, addend: 0x0, symName: __RNvMs4_NtNtCs9f3LFPSIp77_4core5slice4iterINtB5_4IterTNtCs475r2uZUTuc_11proc_macro25IdentNtNtCsATtFUPiRFW_3syn5token5CommaEE3newCs3RXxJlnd5m8_14zerovec_derive, symObjAddr: 0x2134, symBinAddr: 0x2033C, symSize: 0x50 }
  - { offset: 0x4DE1C, size: 0x8, addend: 0x0, symName: __RNvMsa_NtNtCsjLJ1XWNSM6u_10proc_macro6bridge6clientNtB5_14HandleCounters3getCs3RXxJlnd5m8_14zerovec_derive, symObjAddr: 0x2184, symBinAddr: 0x2038C, symSize: 0xC }
  - { offset: 0x4E7BC, size: 0x8, addend: 0x0, symName: __RINvCsATtFUPiRFW_3syn5parseNtCs475r2uZUTuc_11proc_macro25IdentECs3RXxJlnd5m8_14zerovec_derive, symObjAddr: 0x0, symBinAddr: 0x20E34, symSize: 0x30 }
  - { offset: 0x4EA30, size: 0x8, addend: 0x0, symName: ___rustc_proc_macro_decls_2d1482569776199a__, symObjAddr: 0x4BC0, symBinAddr: 0x3C8FD0, symSize: 0x0 }
  - { offset: 0x4EA3E, size: 0x8, addend: 0x0, symName: __RNvCs3RXxJlnd5m8_14zerovec_derive10ule_derive, symObjAddr: 0x354C, symBinAddr: 0x24380, symSize: 0x178 }
  - { offset: 0x4EAB3, size: 0x8, addend: 0x0, symName: __RNvCs3RXxJlnd5m8_14zerovec_derive13varule_derive, symObjAddr: 0x36C4, symBinAddr: 0x244F8, symSize: 0x188 }
  - { offset: 0x4EB28, size: 0x8, addend: 0x0, symName: __RNvCs3RXxJlnd5m8_14zerovec_derive8make_ule, symObjAddr: 0x384C, symBinAddr: 0x24680, symSize: 0x338 }
  - { offset: 0x4EBF6, size: 0x8, addend: 0x0, symName: __RNvCs3RXxJlnd5m8_14zerovec_derive11make_varule, symObjAddr: 0x3B84, symBinAddr: 0x249B8, symSize: 0x338 }
  - { offset: 0x5215A, size: 0x8, addend: 0x0, symName: __RNCINvMs3_NtCsATtFUPiRFW_3syn3litNtB8_6LitInt12base10_parseyE0Cs3RXxJlnd5m8_14zerovec_derive, symObjAddr: 0x1240, symBinAddr: 0x22074, symSize: 0x94 }
  - { offset: 0x539D5, size: 0x8, addend: 0x0, symName: __RINvCsATtFUPiRFW_3syn5parseNtCs475r2uZUTuc_11proc_macro25IdentECs3RXxJlnd5m8_14zerovec_derive, symObjAddr: 0x0, symBinAddr: 0x20E34, symSize: 0x30 }
  - { offset: 0x53A0C, size: 0x8, addend: 0x0, symName: __RINvCsATtFUPiRFW_3syn5parseNtNtB2_6derive11DeriveInputECs3RXxJlnd5m8_14zerovec_derive, symObjAddr: 0x30, symBinAddr: 0x20E64, symSize: 0x30 }
  - { offset: 0x53A43, size: 0x8, addend: 0x0, symName: __RINvCsATtFUPiRFW_3syn6parse2NtNtB2_3lit3LitECs3RXxJlnd5m8_14zerovec_derive, symObjAddr: 0x60, symBinAddr: 0x20E94, symSize: 0x24 }
  - { offset: 0x53B12, size: 0x8, addend: 0x0, symName: __RNvXNtCsATtFUPiRFW_3syn7spannedNtNtB4_4expr4ExprNtB2_7Spanned4spanCs3RXxJlnd5m8_14zerovec_derive, symObjAddr: 0x20BC, symBinAddr: 0x22EF0, symSize: 0x34 }
  - { offset: 0x53B47, size: 0x8, addend: 0x0, symName: __RNvXNtCsATtFUPiRFW_3syn7spannedNtNtB4_8generics8GenericsNtB2_7Spanned4spanCs3RXxJlnd5m8_14zerovec_derive, symObjAddr: 0x20F0, symBinAddr: 0x22F24, symSize: 0x34 }
  - { offset: 0x5440A, size: 0x8, addend: 0x0, symName: __RINvNtNtNtCsjLJ1XWNSM6u_10proc_macro6bridge6client5state3setINtNtCs9f3LFPSIp77_4core6option6OptionNtB4_11TokenStreamENCNCINvB4_10run_clientB1y_BW_NCNCINvMs7_B4_INtB4_6ClientNtB8_11TokenStreamB2L_E7expand1NvCs3RXxJlnd5m8_14zerovec_derive10ule_deriveE00E00EB3i_, symObjAddr: 0xD98, symBinAddr: 0x21BCC, symSize: 0x128 }
  - { offset: 0x544FE, size: 0x8, addend: 0x0, symName: __RINvNtNtNtCsjLJ1XWNSM6u_10proc_macro6bridge6client5state3setINtNtCs9f3LFPSIp77_4core6option6OptionNtB4_11TokenStreamENCNCINvB4_10run_clientB1y_BW_NCNCINvMs7_B4_INtB4_6ClientNtB8_11TokenStreamB2L_E7expand1NvCs3RXxJlnd5m8_14zerovec_derive13varule_deriveE00E00EB3i_, symObjAddr: 0xEC0, symBinAddr: 0x21CF4, symSize: 0x128 }
  - { offset: 0x545F2, size: 0x8, addend: 0x0, symName: __RINvNtNtNtCsjLJ1XWNSM6u_10proc_macro6bridge6client5state3setINtNtCs9f3LFPSIp77_4core6option6OptionNtB4_11TokenStreamENCNCINvB4_10run_clientTB1y_B1y_EBW_NCNCINvMs8_B4_INtB4_6ClientTNtB8_11TokenStreamB2S_EB2S_E7expand2NvCs3RXxJlnd5m8_14zerovec_derive11make_varuleE00E00EB3u_, symObjAddr: 0xFE8, symBinAddr: 0x21E1C, symSize: 0x12C }
  - { offset: 0x546E6, size: 0x8, addend: 0x0, symName: __RINvNtNtNtCsjLJ1XWNSM6u_10proc_macro6bridge6client5state3setINtNtCs9f3LFPSIp77_4core6option6OptionNtB4_11TokenStreamENCNCINvB4_10run_clientTB1y_B1y_EBW_NCNCINvMs8_B4_INtB4_6ClientTNtB8_11TokenStreamB2S_EB2S_E7expand2NvCs3RXxJlnd5m8_14zerovec_derive8make_uleE00E00EB3u_, symObjAddr: 0x1114, symBinAddr: 0x21F48, symSize: 0x12C }
  - { offset: 0x547E4, size: 0x8, addend: 0x0, symName: __RNCNkNvNtNtNtCsjLJ1XWNSM6u_10proc_macro6bridge6client5state12BRIDGE_STATE0s_0Cs3RXxJlnd5m8_14zerovec_derive, symObjAddr: 0x12D4, symBinAddr: 0x22108, symSize: 0x34 }
  - { offset: 0x54E57, size: 0x8, addend: 0x0, symName: __RNvXs5_NtNtCsjLJ1XWNSM6u_10proc_macro6bridge6bufferNtB5_6BufferNtNtNtCs9f3LFPSIp77_4core3ops4drop4Drop4dropCs3RXxJlnd5m8_14zerovec_derive, symObjAddr: 0x2410, symBinAddr: 0x23244, symSize: 0x138 }
  - { offset: 0x552EA, size: 0x8, addend: 0x0, symName: __RNvXNtNtCsjLJ1XWNSM6u_10proc_macro6bridge3rpcuINtB2_6EncodeuE6encodeCs3RXxJlnd5m8_14zerovec_derive, symObjAddr: 0x2124, symBinAddr: 0x22F58, symSize: 0x14 }
  - { offset: 0x5533F, size: 0x8, addend: 0x0, symName: __RNvXs7_NtNtCsjLJ1XWNSM6u_10proc_macro6bridge3rpcINtNtNtCs9f3LFPSIp77_4core3num7nonzero7NonZeromEINtB5_9DecodeMutuE6decodeCs3RXxJlnd5m8_14zerovec_derive, symObjAddr: 0x2548, symBinAddr: 0x2337C, symSize: 0x5C }
  - { offset: 0x55452, size: 0x8, addend: 0x0, symName: __RNvXsa_NtNtCsjLJ1XWNSM6u_10proc_macro6bridge3rpcRShINtB5_6EncodeuE6encodeCs3RXxJlnd5m8_14zerovec_derive, symObjAddr: 0x2A80, symBinAddr: 0x238B4, symSize: 0xD0 }
  - { offset: 0x5555D, size: 0x8, addend: 0x0, symName: __RNvXsc_NtNtCsjLJ1XWNSM6u_10proc_macro6bridge3rpcReINtB5_6EncodeuE6encodeCs3RXxJlnd5m8_14zerovec_derive, symObjAddr: 0x2B50, symBinAddr: 0x23984, symSize: 0x38 }
  - { offset: 0x55645, size: 0x8, addend: 0x0, symName: __RNvXsl_NtNtCsjLJ1XWNSM6u_10proc_macro6bridge3rpcNtB5_12PanicMessageINtB5_6EncodeuE6encodeCs3RXxJlnd5m8_14zerovec_derive, symObjAddr: 0x2C20, symBinAddr: 0x23A54, symSize: 0x140 }
  - { offset: 0x5588D, size: 0x8, addend: 0x0, symName: __RNvXso_NtNtCsjLJ1XWNSM6u_10proc_macro6bridge3rpcmINtB5_9DecodeMutuE6decodeCs3RXxJlnd5m8_14zerovec_derive, symObjAddr: 0x3084, symBinAddr: 0x23EB8, symSize: 0x114 }
  - { offset: 0x55A4C, size: 0x8, addend: 0x0, symName: __RNvXsV_NtCsjLJ1XWNSM6u_10proc_macro6bridgeINtNtCs9f3LFPSIp77_4core6result6ResultINtNtBJ_6option6OptionNtNtB5_6client11TokenStreamEuEINtNtB5_3rpc6EncodeuE6encodeCs3RXxJlnd5m8_14zerovec_derive, symObjAddr: 0x26B4, symBinAddr: 0x234E8, symSize: 0x108 }
  - { offset: 0x55B0D, size: 0x8, addend: 0x0, symName: __RNvXsV_NtCsjLJ1XWNSM6u_10proc_macro6bridgeINtNtCs9f3LFPSIp77_4core6result6ResultuNtNtB5_3rpc12PanicMessageEINtB1j_6EncodeuE6encodeCs3RXxJlnd5m8_14zerovec_derive, symObjAddr: 0x27BC, symBinAddr: 0x235F0, symSize: 0x12C }
  - { offset: 0x55DA5, size: 0x8, addend: 0x0, symName: __RNvNvMsc_NtNtCs9f3LFPSIp77_4core3num7nonzeroINtB7_7NonZeropE13new_unchecked18precondition_checkCs3RXxJlnd5m8_14zerovec_derive, symObjAddr: 0x1AB4, symBinAddr: 0x228E8, symSize: 0x1C }
  - { offset: 0x56D52, size: 0x8, addend: 0x0, symName: __RINvNtCs9f3LFPSIp77_4core3ptr14read_unalignedNtNtNtNtB4_9core_arch10arm_shared4neon9uint8x8_tECs3RXxJlnd5m8_14zerovec_derive, symObjAddr: 0x968, symBinAddr: 0x2179C, symSize: 0x8C }
  - { offset: 0x56E26, size: 0x8, addend: 0x0, symName: __RINvNtCs9f3LFPSIp77_4core3ptr15write_unalignedNtNtNtNtB4_9core_arch10arm_shared4neon9uint8x8_tECs3RXxJlnd5m8_14zerovec_derive, symObjAddr: 0x9F4, symBinAddr: 0x21828, symSize: 0x70 }
  - { offset: 0x56FA6, size: 0x8, addend: 0x0, symName: __RINvNtCs9f3LFPSIp77_4core3ptr19swap_nonoverlappingNtNtCscXJUXcj6jCz_9hashbrown3raw13RawTableInnerECs3RXxJlnd5m8_14zerovec_derive, symObjAddr: 0xA64, symBinAddr: 0x21898, symSize: 0x150 }
  - { offset: 0x573FC, size: 0x8, addend: 0x0, symName: __RINvNtCs9f3LFPSIp77_4core3ptr19swap_nonoverlappinghECs3RXxJlnd5m8_14zerovec_derive, symObjAddr: 0xBB4, symBinAddr: 0x219E8, symSize: 0x1E4 }
  - { offset: 0x579BA, size: 0x8, addend: 0x0, symName: __RNvNvNtCs9f3LFPSIp77_4core3ptr13read_volatile18precondition_checkCs3RXxJlnd5m8_14zerovec_derive, symObjAddr: 0x1AD0, symBinAddr: 0x22904, symSize: 0xEC }
  - { offset: 0x57AC5, size: 0x8, addend: 0x0, symName: __RNvNvNtCs9f3LFPSIp77_4core3ptr19swap_nonoverlapping18precondition_checkCs3RXxJlnd5m8_14zerovec_derive, symObjAddr: 0x1BBC, symBinAddr: 0x229F0, symSize: 0x1F0 }
  - { offset: 0x57D12, size: 0x8, addend: 0x0, symName: __RNvNvNtCs9f3LFPSIp77_4core3ptr7replace18precondition_checkCs3RXxJlnd5m8_14zerovec_derive, symObjAddr: 0x1DAC, symBinAddr: 0x22BE0, symSize: 0xEC }
  - { offset: 0x5A85B, size: 0x8, addend: 0x0, symName: __RNvXsp_NtCs9f3LFPSIp77_4core6resultINtB5_6ResultINtNtCsATtFUPiRFW_3syn10punctuated10PunctuatedNtCs475r2uZUTuc_11proc_macro25IdentNtNtBP_5token5CommaENtNtBP_5error5ErrorEINtNtNtB7_3ops9try_trait12FromResidualIBy_NtNtB7_7convert10InfallibleB2n_EE13from_residualCs3RXxJlnd5m8_14zerovec_derive, symObjAddr: 0x3198, symBinAddr: 0x23FCC, symSize: 0x48 }
  - { offset: 0x5A8E0, size: 0x8, addend: 0x0, symName: __RNvXsp_NtCs9f3LFPSIp77_4core6resultINtB5_6ResultNtNtCs3RXxJlnd5m8_14zerovec_derive11make_varule12UnsizedFieldNtNtCsdze8u8oDPro_5alloc6string6StringEINtNtNtB7_3ops9try_trait12FromResidualIBy_NtNtB7_7convert10InfallibleB1J_EE13from_residualBO_, symObjAddr: 0x31E0, symBinAddr: 0x24014, symSize: 0x48 }
  - { offset: 0x5A965, size: 0x8, addend: 0x0, symName: __RNvXsp_NtCs9f3LFPSIp77_4core6resultINtB5_6ResultNtNtCs3RXxJlnd5m8_14zerovec_derive5utils12ZeroVecAttrsNtNtCsATtFUPiRFW_3syn5error5ErrorEINtNtNtB7_3ops9try_trait12FromResidualIBy_NtNtB7_7convert10InfallibleB1C_EE13from_residualBO_, symObjAddr: 0x3228, symBinAddr: 0x2405C, symSize: 0x40 }
  - { offset: 0x5A9EA, size: 0x8, addend: 0x0, symName: __RNvXsp_NtCs9f3LFPSIp77_4core6resultINtB5_6ResultNtNtCs3RXxJlnd5m8_14zerovec_derive5utils18IdentListAttributeNtNtCsATtFUPiRFW_3syn5error5ErrorEINtNtNtB7_3ops9try_trait12FromResidualIBy_NtNtB7_7convert10InfallibleB1I_EE13from_residualBO_, symObjAddr: 0x3268, symBinAddr: 0x2409C, symSize: 0x48 }
  - { offset: 0x5AC34, size: 0x8, addend: 0x0, symName: __RNvXso_NtCs9f3LFPSIp77_4core6resultINtB5_6ResultINtNtCsATtFUPiRFW_3syn10punctuated10PunctuatedNtCs475r2uZUTuc_11proc_macro25IdentNtNtBP_5token5CommaENtNtBP_5error5ErrorENtNtNtB7_3ops9try_trait3Try6branchCs3RXxJlnd5m8_14zerovec_derive, symObjAddr: 0x2D60, symBinAddr: 0x23B94, symSize: 0xA0 }
  - { offset: 0x5ACB1, size: 0x8, addend: 0x0, symName: __RNvXso_NtCs9f3LFPSIp77_4core6resultINtB5_6ResultINtNtCsdze8u8oDPro_5alloc3vec3VecNtCs475r2uZUTuc_11proc_macro25IdentENtNtCsATtFUPiRFW_3syn5error5ErrorENtNtNtB7_3ops9try_trait3Try6branchCs3RXxJlnd5m8_14zerovec_derive, symObjAddr: 0x2E00, symBinAddr: 0x23C34, symSize: 0x94 }
  - { offset: 0x5AD2E, size: 0x8, addend: 0x0, symName: __RNvXso_NtCs9f3LFPSIp77_4core6resultINtB5_6ResultNtNtCs3RXxJlnd5m8_14zerovec_derive11make_varule16UnsizedFieldKindNtNtCsdze8u8oDPro_5alloc6string6StringENtNtNtB7_3ops9try_trait3Try6branchBO_, symObjAddr: 0x2E94, symBinAddr: 0x23CC8, symSize: 0x9C }
  - { offset: 0x5ADAB, size: 0x8, addend: 0x0, symName: __RNvXso_NtCs9f3LFPSIp77_4core6resultINtB5_6ResultNtNtCs3RXxJlnd5m8_14zerovec_derive5utils18IdentListAttributeNtNtCsATtFUPiRFW_3syn5error5ErrorENtNtNtB7_3ops9try_trait3Try6branchBO_, symObjAddr: 0x2F30, symBinAddr: 0x23D64, symSize: 0xA0 }
  - { offset: 0x5AE28, size: 0x8, addend: 0x0, symName: __RNvXso_NtCs9f3LFPSIp77_4core6resultINtB5_6ResultNtNtCsATtFUPiRFW_3syn6derive11DeriveInputNtNtBO_5error5ErrorENtNtNtB7_3ops9try_trait3Try6branchCs3RXxJlnd5m8_14zerovec_derive, symObjAddr: 0x2FD0, symBinAddr: 0x23E04, symSize: 0xB4 }
  - { offset: 0x5C36B, size: 0x8, addend: 0x0, symName: __RNvNvNtNtCs9f3LFPSIp77_4core5slice3raw14from_raw_parts18precondition_checkCs3RXxJlnd5m8_14zerovec_derive, symObjAddr: 0x1E98, symBinAddr: 0x22CCC, symSize: 0x164 }
  - { offset: 0x5C72B, size: 0x8, addend: 0x0, symName: __RNvNvMNtNtCs9f3LFPSIp77_4core5alloc6layoutNtB4_6Layout25from_size_align_unchecked18precondition_checkCs3RXxJlnd5m8_14zerovec_derive, symObjAddr: 0x1A64, symBinAddr: 0x22898, symSize: 0x50 }
  - { offset: 0x5C88D, size: 0x8, addend: 0x0, symName: __RNvXs1_NtNtNtCs9f3LFPSIp77_4core4iter8adapters6filterINtB5_6FilterINtNtNtBb_5slice4iter4IterNtNtCsATtFUPiRFW_3syn4attr9AttributeENCNvMNtCs3RXxJlnd5m8_14zerovec_derive5utilsNtB28_8ReprInfo7compute0ENtNtNtB9_6traits8iterator8Iterator4nextB2a_, symObjAddr: 0x2248, symBinAddr: 0x2307C, symSize: 0x2C }
  - { offset: 0x5C90A, size: 0x8, addend: 0x0, symName: __RNvXs_NtNtNtCs9f3LFPSIp77_4core4iter8adapters4takeINtB4_4TakeINtNtCsATtFUPiRFW_3syn10punctuated4IterNtNtB12_4data5FieldEENtNtNtB8_6traits8iterator8Iterator4nextCs3RXxJlnd5m8_14zerovec_derive, symObjAddr: 0x2904, symBinAddr: 0x23738, symSize: 0x58 }
  - { offset: 0x5C93F, size: 0x8, addend: 0x0, symName: __RNvXs_NtNtNtCs9f3LFPSIp77_4core4iter8adapters4takeINtB4_4TakeINtNtCsATtFUPiRFW_3syn10punctuated4IterNtNtB12_4data5FieldEENtNtNtB8_6traits8iterator8Iterator9size_hintCs3RXxJlnd5m8_14zerovec_derive, symObjAddr: 0x295C, symBinAddr: 0x23790, symSize: 0x124 }
  - { offset: 0x5CAC6, size: 0x8, addend: 0x0, symName: __RNvXsD_NtNtCs9f3LFPSIp77_4core4iter5rangeyNtB5_4Step17forward_uncheckedCs3RXxJlnd5m8_14zerovec_derive, symObjAddr: 0x25A4, symBinAddr: 0x233D8, symSize: 0x4C }
  - { offset: 0x5CB2B, size: 0x8, addend: 0x0, symName: __RNvXsF_NtNtCs9f3LFPSIp77_4core4iter5rangejNtB5_4Step13steps_betweenCs3RXxJlnd5m8_14zerovec_derive, symObjAddr: 0x25F0, symBinAddr: 0x23424, symSize: 0x7C }
  - { offset: 0x5CB68, size: 0x8, addend: 0x0, symName: __RNvXsF_NtNtCs9f3LFPSIp77_4core4iter5rangejNtB5_4Step17forward_uncheckedCs3RXxJlnd5m8_14zerovec_derive, symObjAddr: 0x266C, symBinAddr: 0x234A0, symSize: 0x48 }
  - { offset: 0x5CBD8, size: 0x8, addend: 0x0, symName: __RNvXs_NtNtNtCs9f3LFPSIp77_4core4iter6traits7collectINtNtNtB8_8adapters6filter6FilterINtNtNtBa_5slice4iter4IterNtNtCsATtFUPiRFW_3syn4attr9AttributeENCNvMNtCs3RXxJlnd5m8_14zerovec_derive5utilsNtB2q_8ReprInfo7compute0ENtB4_12IntoIterator9into_iterB2s_, symObjAddr: 0x28E8, symBinAddr: 0x2371C, symSize: 0x1C }
  - { offset: 0x5CC46, size: 0x8, addend: 0x0, symName: __RNvYINtNtNtCsdze8u8oDPro_5alloc3vec9into_iter8IntoIterNtCs475r2uZUTuc_11proc_macro25IdentENtNtNtNtCs9f3LFPSIp77_4core4iter6traits10exact_size17ExactSizeIterator3lenCs3RXxJlnd5m8_14zerovec_derive, symObjAddr: 0x32B0, symBinAddr: 0x240E4, symSize: 0xC4 }
  - { offset: 0x5CD44, size: 0x8, addend: 0x0, symName: __RNvYINtNtNtNtCs9f3LFPSIp77_4core4iter8adapters4take4TakeINtNtCsATtFUPiRFW_3syn10punctuated4IterNtNtBX_4data5FieldEENtNtNtB9_6traits8iterator8Iterator9enumerateCs3RXxJlnd5m8_14zerovec_derive, symObjAddr: 0x3374, symBinAddr: 0x241A8, symSize: 0x18 }
  - { offset: 0x5CD75, size: 0x8, addend: 0x0, symName: __RNvYINtNtNtNtCs9f3LFPSIp77_4core4iter8adapters4take4TakeINtNtCsATtFUPiRFW_3syn10punctuated4IterNtNtBX_4data5FieldEENtNtNtB9_6traits8iterator8Iterator9enumerateCs3RXxJlnd5m8_14zerovec_derive, symObjAddr: 0x3374, symBinAddr: 0x241A8, symSize: 0x18 }
  - { offset: 0x5D618, size: 0x8, addend: 0x0, symName: __RNvXNvXsd_NtNtCsdze8u8oDPro_5alloc3vec9into_iterINtB8_8IntoIterppENtNtNtCs9f3LFPSIp77_4core3ops4drop4Drop4dropINtB2_9DropGuardNtCs475r2uZUTuc_11proc_macro25IdentNtNtBc_5alloc6GlobalEB12_4dropCs3RXxJlnd5m8_14zerovec_derive, symObjAddr: 0x2138, symBinAddr: 0x22F6C, symSize: 0x88 }
  - { offset: 0x5D74E, size: 0x8, addend: 0x0, symName: __RNvXsd_NtNtCsdze8u8oDPro_5alloc3vec9into_iterINtB5_8IntoIterNtCs475r2uZUTuc_11proc_macro25IdentENtNtNtCs9f3LFPSIp77_4core3ops4drop4Drop4dropCs3RXxJlnd5m8_14zerovec_derive, symObjAddr: 0x2B88, symBinAddr: 0x239BC, symSize: 0x98 }
  - { offset: 0x5D7EE, size: 0x8, addend: 0x0, symName: __RNvXs3_NtNtCsdze8u8oDPro_5alloc3vec9into_iterINtB5_8IntoIterNtCs475r2uZUTuc_11proc_macro25IdentENtNtNtNtCs9f3LFPSIp77_4core4iter6traits8iterator8Iterator4nextCs3RXxJlnd5m8_14zerovec_derive, symObjAddr: 0x2274, symBinAddr: 0x230A8, symSize: 0xE4 }
  - { offset: 0x5D9A3, size: 0x8, addend: 0x0, symName: __RNvXs3_NtNtCsdze8u8oDPro_5alloc3vec9into_iterINtB5_8IntoIterNtCs475r2uZUTuc_11proc_macro25IdentENtNtNtNtCs9f3LFPSIp77_4core4iter6traits8iterator8Iterator9size_hintCs3RXxJlnd5m8_14zerovec_derive, symObjAddr: 0x2358, symBinAddr: 0x2318C, symSize: 0xB8 }
  - { offset: 0x5E3B7, size: 0x8, addend: 0x0, symName: __RNvNtCsdze8u8oDPro_5alloc3fmt6formatCs3RXxJlnd5m8_14zerovec_derive, symObjAddr: 0x1990, symBinAddr: 0x227C4, symSize: 0xD4 }
  - { offset: 0x5EA35, size: 0x8, addend: 0x0, symName: __RNCNvMs3_NtNtCs27l1GJC5rMQ_3std6thread5localINtB7_8LocalKeyINtNtCs9f3LFPSIp77_4core4cell4CellPuEE7replace0Cs3RXxJlnd5m8_14zerovec_derive, symObjAddr: 0x1308, symBinAddr: 0x2213C, symSize: 0x44 }
  - { offset: 0x5F070, size: 0x8, addend: 0x0, symName: __RINvMNtCs9f3LFPSIp77_4core6resultINtB3_6ResultNtNtCs3RXxJlnd5m8_14zerovec_derive11make_varule8OwnULETyNtNtCsdze8u8oDPro_5alloc6string6StringE3mapNtBK_16UnsizedFieldKindNcNtB2j_3Cow0EBM_, symObjAddr: 0x84, symBinAddr: 0x20EB8, symSize: 0x98 }
  - { offset: 0x5F103, size: 0x8, addend: 0x0, symName: __RINvMNtCs9f3LFPSIp77_4core6resultINtB3_6ResultNtNtCs3RXxJlnd5m8_14zerovec_derive11make_varule8OwnULETyNtNtCsdze8u8oDPro_5alloc6string6StringE3mapNtBK_16UnsizedFieldKindNcNtB2j_3Ref0EBM_, symObjAddr: 0x11C, symBinAddr: 0x20F50, symSize: 0x98 }
  - { offset: 0x5F196, size: 0x8, addend: 0x0, symName: __RINvMNtCs9f3LFPSIp77_4core6resultINtB3_6ResultNtNtCs3RXxJlnd5m8_14zerovec_derive11make_varule8OwnULETyNtNtCsdze8u8oDPro_5alloc6string6StringE3mapNtBK_16UnsizedFieldKindNcNtB2j_5Boxed0EBM_, symObjAddr: 0x1B4, symBinAddr: 0x20FE8, symSize: 0x98 }
  - { offset: 0x5F236, size: 0x8, addend: 0x0, symName: __RINvMNtCs9f3LFPSIp77_4core6resultINtB3_6ResultyNtNtNtB5_3num5error13ParseIntErrorE7map_errNtNtCsATtFUPiRFW_3syn5error5ErrorNCINvMs3_NtB1u_3litNtB26_6LitInt12base10_parseyE0ECs3RXxJlnd5m8_14zerovec_derive, symObjAddr: 0x24C, symBinAddr: 0x21080, symSize: 0x84 }
  - { offset: 0x5F354, size: 0x8, addend: 0x0, symName: __RINvMs2_NtNtCs27l1GJC5rMQ_3std6thread5localINtB6_8LocalKeyINtNtCs9f3LFPSIp77_4core4cell4CellPuEE8try_withNCNvMs3_B6_BF_7replace0B1s_ECs3RXxJlnd5m8_14zerovec_derive, symObjAddr: 0x2D0, symBinAddr: 0x21104, symSize: 0xE8 }
  - { offset: 0x5F504, size: 0x8, addend: 0x0, symName: __RINvMs2_NtNtCs27l1GJC5rMQ_3std6thread5localINtB6_8LocalKeyINtNtCs9f3LFPSIp77_4core4cell4CellTyyEEE4withNCNvMNtNtBa_4hash6randomNtB1I_11RandomState3new0B21_ECs3RXxJlnd5m8_14zerovec_derive, symObjAddr: 0x3B8, symBinAddr: 0x211EC, symSize: 0x4C }
  - { offset: 0x5F59E, size: 0x8, addend: 0x0, symName: __RINvMs2_NtNtCs27l1GJC5rMQ_3std6thread5localINtB6_8LocalKeyINtNtCs9f3LFPSIp77_4core4cell4CellTyyEEE8try_withNCNvMNtNtBa_4hash6randomNtB1M_11RandomState3new0B25_ECs3RXxJlnd5m8_14zerovec_derive, symObjAddr: 0x404, symBinAddr: 0x21238, symSize: 0xEC }
  - { offset: 0x5F6EF, size: 0x8, addend: 0x0, symName: __RINvMs3_NtCsATtFUPiRFW_3syn3litNtB6_6LitInt12base10_parseyECs3RXxJlnd5m8_14zerovec_derive, symObjAddr: 0x4F0, symBinAddr: 0x21324, symSize: 0x58 }
  - { offset: 0x5F9E9, size: 0x8, addend: 0x0, symName: __RINvMs3_NtNtCsjLJ1XWNSM6u_10proc_macro6bridge6bufferNtB6_6Buffer17extend_from_arrayKj4_ECs3RXxJlnd5m8_14zerovec_derive, symObjAddr: 0x548, symBinAddr: 0x2137C, symSize: 0x210 }
  - { offset: 0x6005B, size: 0x8, addend: 0x0, symName: __RINvMs3_NtNtCsjLJ1XWNSM6u_10proc_macro6bridge6bufferNtB6_6Buffer17extend_from_arrayKj8_ECs3RXxJlnd5m8_14zerovec_derive, symObjAddr: 0x758, symBinAddr: 0x2158C, symSize: 0x210 }
  - { offset: 0x60751, size: 0x8, addend: 0x0, symName: __RNvMNtCs9f3LFPSIp77_4core6resultINtB2_6ResultNtNtCs3RXxJlnd5m8_14zerovec_derive11make_varule12UnsizedFieldNtNtCsdze8u8oDPro_5alloc6string6StringE10unwrap_errBL_, symObjAddr: 0x134C, symBinAddr: 0x22180, symSize: 0xC4 }
  - { offset: 0x607A5, size: 0x8, addend: 0x0, symName: __RNvMNtCs9f3LFPSIp77_4core6resultINtB2_6ResultNtNtNtCs27l1GJC5rMQ_3std4hash6random11RandomStateNtNtNtBN_6thread5local11AccessErrorE6expectCs3RXxJlnd5m8_14zerovec_derive, symObjAddr: 0x1410, symBinAddr: 0x22244, symSize: 0x8C }
  - { offset: 0x60807, size: 0x8, addend: 0x0, symName: __RNvMNtCs9f3LFPSIp77_4core6resultINtB2_6ResultPuNtNtNtCs27l1GJC5rMQ_3std6thread5local11AccessErrorE6expectCs3RXxJlnd5m8_14zerovec_derive, symObjAddr: 0x149C, symBinAddr: 0x222D0, symSize: 0x84 }
  - { offset: 0x60868, size: 0x8, addend: 0x0, symName: __RNvMNtCs9f3LFPSIp77_4core6resultINtB2_6ResultyNtNtCsATtFUPiRFW_3syn5error5ErrorE2okCs3RXxJlnd5m8_14zerovec_derive, symObjAddr: 0x1520, symBinAddr: 0x22354, symSize: 0x88 }
  - { offset: 0x60AF7, size: 0x8, addend: 0x0, symName: __RNvMs3_NtNtCsjLJ1XWNSM6u_10proc_macro6bridge6bufferNtB5_6Buffer17extend_from_sliceCs3RXxJlnd5m8_14zerovec_derive, symObjAddr: 0x15A8, symBinAddr: 0x223DC, symSize: 0x208 }
  - { offset: 0x61161, size: 0x8, addend: 0x0, symName: __RNvMs3_NtNtCsjLJ1XWNSM6u_10proc_macro6bridge6bufferNtB5_6Buffer4pushCs3RXxJlnd5m8_14zerovec_derive, symObjAddr: 0x17B0, symBinAddr: 0x225E4, symSize: 0x1E0 }
  - { offset: 0x61670, size: 0x8, addend: 0x0, symName: __RNvXNtCs62MdaZFMefA_5quote9to_tokensRNtNtCsATtFUPiRFW_3syn11restriction10VisibilityNtB2_8ToTokens9to_tokensCs3RXxJlnd5m8_14zerovec_derive, symObjAddr: 0x1FFC, symBinAddr: 0x22E30, symSize: 0x40 }
  - { offset: 0x616AF, size: 0x8, addend: 0x0, symName: __RNvXNtCs62MdaZFMefA_5quote9to_tokensRNtNtCsATtFUPiRFW_3syn8generics8GenericsNtB2_8ToTokens9to_tokensCs3RXxJlnd5m8_14zerovec_derive, symObjAddr: 0x203C, symBinAddr: 0x22E70, symSize: 0x40 }
  - { offset: 0x616EE, size: 0x8, addend: 0x0, symName: __RNvXNtCs62MdaZFMefA_5quote9to_tokensRRNtNtCsATtFUPiRFW_3syn8lifetime8LifetimeNtB2_8ToTokens9to_tokensCs3RXxJlnd5m8_14zerovec_derive, symObjAddr: 0x207C, symBinAddr: 0x22EB0, symSize: 0x40 }
  - { offset: 0x61733, size: 0x8, addend: 0x0, symName: __RNvYRNtNtCsATtFUPiRFW_3syn4expr4ExprNtNtCs62MdaZFMefA_5quote9to_tokens8ToTokens15to_token_streamCs3RXxJlnd5m8_14zerovec_derive, symObjAddr: 0x338C, symBinAddr: 0x241C0, symSize: 0x8C }
  - { offset: 0x6177D, size: 0x8, addend: 0x0, symName: __RNvYRNtNtCsATtFUPiRFW_3syn4expr4ExprNtNtCs62MdaZFMefA_5quote9to_tokens8ToTokens17into_token_streamCs3RXxJlnd5m8_14zerovec_derive, symObjAddr: 0x3418, symBinAddr: 0x2424C, symSize: 0x54 }
  - { offset: 0x617B2, size: 0x8, addend: 0x0, symName: __RNvYRNtNtCsATtFUPiRFW_3syn8generics8GenericsNtNtCs62MdaZFMefA_5quote9to_tokens8ToTokens15to_token_streamCs3RXxJlnd5m8_14zerovec_derive, symObjAddr: 0x346C, symBinAddr: 0x242A0, symSize: 0x8C }
  - { offset: 0x617FC, size: 0x8, addend: 0x0, symName: __RNvYRNtNtCsATtFUPiRFW_3syn8generics8GenericsNtNtCs62MdaZFMefA_5quote9to_tokens8ToTokens17into_token_streamCs3RXxJlnd5m8_14zerovec_derive, symObjAddr: 0x34F8, symBinAddr: 0x2432C, symSize: 0x54 }
  - { offset: 0x6183D, size: 0x8, addend: 0x0, symName: __RNvXs0_NtCs62MdaZFMefA_5quote7spannedNtNtCsATtFUPiRFW_3syn4expr4ExprNtB5_7Spanned6___spanCs3RXxJlnd5m8_14zerovec_derive, symObjAddr: 0x21C0, symBinAddr: 0x22FF4, symSize: 0x44 }
  - { offset: 0x61872, size: 0x8, addend: 0x0, symName: __RNvXs0_NtCs62MdaZFMefA_5quote7spannedNtNtCsATtFUPiRFW_3syn8generics8GenericsNtB5_7Spanned6___spanCs3RXxJlnd5m8_14zerovec_derive, symObjAddr: 0x2204, symBinAddr: 0x23038, symSize: 0x44 }
  - { offset: 0x62153, size: 0x8, addend: 0x0, symName: __RINvMNtCs9f3LFPSIp77_4core3stre5parseyECs3RXxJlnd5m8_14zerovec_derive, symObjAddr: 0x0, symBinAddr: 0x24CF0, symSize: 0x28 }
  - { offset: 0x62616, size: 0x8, addend: 0x0, symName: __RNvXsP_NtCs9f3LFPSIp77_4core3fmtRNtNtCsATtFUPiRFW_3syn2ty8TypePathNtB5_5Debug3fmtCs3RXxJlnd5m8_14zerovec_derive, symObjAddr: 0x3838, symBinAddr: 0x28528, symSize: 0x30 }
  - { offset: 0x6265C, size: 0x8, addend: 0x0, symName: __RNvXsP_NtCs9f3LFPSIp77_4core3fmtRRNtNtCsATtFUPiRFW_3syn2ty4TypeNtB5_5Debug3fmtCs3RXxJlnd5m8_14zerovec_derive, symObjAddr: 0x3868, symBinAddr: 0x28558, symSize: 0x30 }
  - { offset: 0x626A2, size: 0x8, addend: 0x0, symName: __RNvXsP_NtCs9f3LFPSIp77_4core3fmtRRyNtB5_5Debug3fmtCs3RXxJlnd5m8_14zerovec_derive, symObjAddr: 0x3898, symBinAddr: 0x28588, symSize: 0x30 }
  - { offset: 0x626EE, size: 0x8, addend: 0x0, symName: __RNvXso_NtCs9f3LFPSIp77_4core3fmtSRyNtB5_5Debug3fmtCs3RXxJlnd5m8_14zerovec_derive, symObjAddr: 0x4E38, symBinAddr: 0x29B28, symSize: 0x88 }
  - { offset: 0x62F4E, size: 0x8, addend: 0x0, symName: __RINvNtCs9f3LFPSIp77_4core3ptr13drop_in_placeDNtNtB4_5error5ErrorNtNtB4_6marker4SendNtB12_4SyncEL_ECs3RXxJlnd5m8_14zerovec_derive, symObjAddr: 0x1D4, symBinAddr: 0x24EC4, symSize: 0x48 }
  - { offset: 0x62F7D, size: 0x8, addend: 0x0, symName: __RINvNtCs9f3LFPSIp77_4core3ptr13drop_in_placeINtNtB4_4cell10UnsafeCellNtNtNtCsjLJ1XWNSM6u_10proc_macro6bridge6client6BridgeEECs3RXxJlnd5m8_14zerovec_derive, symObjAddr: 0x21C, symBinAddr: 0x24F0C, symSize: 0x24 }
  - { offset: 0x62FAC, size: 0x8, addend: 0x0, symName: __RINvNtCs9f3LFPSIp77_4core3ptr13drop_in_placeINtNtB4_4cell7RefCellNtNtNtCsjLJ1XWNSM6u_10proc_macro6bridge6client6BridgeEECs3RXxJlnd5m8_14zerovec_derive, symObjAddr: 0x240, symBinAddr: 0x24F30, symSize: 0x24 }
  - { offset: 0x62FDB, size: 0x8, addend: 0x0, symName: __RINvNtCs9f3LFPSIp77_4core3ptr13drop_in_placeINtNtB4_6option6OptionINtNtCsdze8u8oDPro_5alloc5boxed3BoxNtCs475r2uZUTuc_11proc_macro25IdentEEECs3RXxJlnd5m8_14zerovec_derive, symObjAddr: 0x264, symBinAddr: 0x24F54, symSize: 0x44 }
  - { offset: 0x6300A, size: 0x8, addend: 0x0, symName: __RINvNtCs9f3LFPSIp77_4core3ptr13drop_in_placeINtNtB4_6option6OptionNtNtCs3RXxJlnd5m8_14zerovec_derive5utils9FieldInfoEEB16_, symObjAddr: 0x2A8, symBinAddr: 0x24F98, symSize: 0x48 }
  - { offset: 0x63039, size: 0x8, addend: 0x0, symName: __RINvNtCs9f3LFPSIp77_4core3ptr13drop_in_placeINtNtB4_6result6ResultNtNtCs3RXxJlnd5m8_14zerovec_derive11make_varule12UnsizedFieldNtNtCsdze8u8oDPro_5alloc6string6StringEEB16_, symObjAddr: 0x2F0, symBinAddr: 0x24FE0, symSize: 0x5C }
  - { offset: 0x63068, size: 0x8, addend: 0x0, symName: __RINvNtCs9f3LFPSIp77_4core3ptr13drop_in_placeINtNtB4_6result6ResultNtNtCs3RXxJlnd5m8_14zerovec_derive5utils18IdentListAttributeNtNtCsATtFUPiRFW_3syn5error5ErrorEEB16_, symObjAddr: 0x34C, symBinAddr: 0x2503C, symSize: 0x5C }
  - { offset: 0x63097, size: 0x8, addend: 0x0, symName: __RINvNtCs9f3LFPSIp77_4core3ptr13drop_in_placeINtNtB4_6result6ResultyNtNtCsATtFUPiRFW_3syn5error5ErrorEECs3RXxJlnd5m8_14zerovec_derive, symObjAddr: 0x3A8, symBinAddr: 0x25098, symSize: 0x48 }
  - { offset: 0x630C6, size: 0x8, addend: 0x0, symName: __RINvNtCs9f3LFPSIp77_4core3ptr13drop_in_placeINtNtCs62MdaZFMefA_5quote9___private9RepInterpNtCs475r2uZUTuc_11proc_macro211TokenStreamEECs3RXxJlnd5m8_14zerovec_derive, symObjAddr: 0x3F0, symBinAddr: 0x250E0, symSize: 0x24 }
  - { offset: 0x630F5, size: 0x8, addend: 0x0, symName: __RINvNtCs9f3LFPSIp77_4core3ptr13drop_in_placeINtNtCsATtFUPiRFW_3syn10punctuated10PunctuatedNtCs475r2uZUTuc_11proc_macro25IdentNtNtBL_5token5CommaEECs3RXxJlnd5m8_14zerovec_derive, symObjAddr: 0x414, symBinAddr: 0x25104, symSize: 0x60 }
  - { offset: 0x63124, size: 0x8, addend: 0x0, symName: __RINvNtCs9f3LFPSIp77_4core3ptr13drop_in_placeINtNtCsATtFUPiRFW_3syn10punctuated11PrivateIterNtCs475r2uZUTuc_11proc_macro25IdentNtNtBL_5token5CommaEECs3RXxJlnd5m8_14zerovec_derive, symObjAddr: 0x474, symBinAddr: 0x25164, symSize: 0x10 }
  - { offset: 0x63153, size: 0x8, addend: 0x0, symName: __RINvNtCs9f3LFPSIp77_4core3ptr13drop_in_placeINtNtCsATtFUPiRFW_3syn10punctuated11PrivateIterNtNtBL_4data7VariantNtNtBL_5token5CommaEECs3RXxJlnd5m8_14zerovec_derive, symObjAddr: 0x484, symBinAddr: 0x25174, symSize: 0x10 }
  - { offset: 0x63182, size: 0x8, addend: 0x0, symName: __RINvNtCs9f3LFPSIp77_4core3ptr13drop_in_placeINtNtCsATtFUPiRFW_3syn10punctuated11PrivateIterNtNtBL_4path15GenericArgumentNtNtBL_5token5CommaEECs3RXxJlnd5m8_14zerovec_derive, symObjAddr: 0x494, symBinAddr: 0x25184, symSize: 0x10 }
  - { offset: 0x631B1, size: 0x8, addend: 0x0, symName: __RINvNtCs9f3LFPSIp77_4core3ptr13drop_in_placeINtNtCsATtFUPiRFW_3syn10punctuated4IterNtCs475r2uZUTuc_11proc_macro25IdentEECs3RXxJlnd5m8_14zerovec_derive, symObjAddr: 0x4A4, symBinAddr: 0x25194, symSize: 0x24 }
  - { offset: 0x631E0, size: 0x8, addend: 0x0, symName: __RINvNtCs9f3LFPSIp77_4core3ptr13drop_in_placeINtNtCsATtFUPiRFW_3syn10punctuated4IterNtNtBL_4data7VariantEECs3RXxJlnd5m8_14zerovec_derive, symObjAddr: 0x4C8, symBinAddr: 0x251B8, symSize: 0x24 }
  - { offset: 0x6320F, size: 0x8, addend: 0x0, symName: __RINvNtCs9f3LFPSIp77_4core3ptr13drop_in_placeINtNtCsATtFUPiRFW_3syn10punctuated4IterNtNtBL_4path15GenericArgumentEECs3RXxJlnd5m8_14zerovec_derive, symObjAddr: 0x4EC, symBinAddr: 0x251DC, symSize: 0x24 }
  - { offset: 0x6323E, size: 0x8, addend: 0x0, symName: __RINvNtCs9f3LFPSIp77_4core3ptr13drop_in_placeINtNtCsATtFUPiRFW_3syn10punctuated7IterMutNtNtBL_4data5FieldEECs3RXxJlnd5m8_14zerovec_derive, symObjAddr: 0x510, symBinAddr: 0x25200, symSize: 0x24 }
  - { offset: 0x6326D, size: 0x8, addend: 0x0, symName: __RINvNtCs9f3LFPSIp77_4core3ptr13drop_in_placeINtNtCscXJUXcj6jCz_9hashbrown10scopeguard10ScopeGuardNtNtBL_3raw13RawTableInnerNCINvMsa_B1z_B1x_14prepare_resizeNtNtCsdze8u8oDPro_5alloc5alloc6GlobalE0EECs3RXxJlnd5m8_14zerovec_derive, symObjAddr: 0x534, symBinAddr: 0x25224, symSize: 0x24 }
  - { offset: 0x6329C, size: 0x8, addend: 0x0, symName: __RINvNtCs9f3LFPSIp77_4core3ptr13drop_in_placeINtNtCscXJUXcj6jCz_9hashbrown10scopeguard10ScopeGuardQNtNtBL_3raw13RawTableInnerNCNvMsa_B1A_B1y_15rehash_in_place0EECs3RXxJlnd5m8_14zerovec_derive, symObjAddr: 0x558, symBinAddr: 0x25248, symSize: 0x24 }
  - { offset: 0x632CB, size: 0x8, addend: 0x0, symName: __RINvNtCs9f3LFPSIp77_4core3ptr13drop_in_placeINtNtCscXJUXcj6jCz_9hashbrown3map7HashMapyuNtNtNtCs27l1GJC5rMQ_3std4hash6random11RandomStateEECs3RXxJlnd5m8_14zerovec_derive, symObjAddr: 0x57C, symBinAddr: 0x2526C, symSize: 0x24 }
  - { offset: 0x632FA, size: 0x8, addend: 0x0, symName: __RINvNtCs9f3LFPSIp77_4core3ptr13drop_in_placeINtNtCscXJUXcj6jCz_9hashbrown3raw8RawTableTyuEEECs3RXxJlnd5m8_14zerovec_derive, symObjAddr: 0x5A0, symBinAddr: 0x25290, symSize: 0x24 }
  - { offset: 0x63329, size: 0x8, addend: 0x0, symName: __RINvNtCs9f3LFPSIp77_4core3ptr13drop_in_placeINtNtCscXJUXcj6jCz_9hashbrown3set7HashSetyNtNtNtCs27l1GJC5rMQ_3std4hash6random11RandomStateEECs3RXxJlnd5m8_14zerovec_derive, symObjAddr: 0x5C4, symBinAddr: 0x252B4, symSize: 0x24 }
  - { offset: 0x63358, size: 0x8, addend: 0x0, symName: __RINvNtCs9f3LFPSIp77_4core3ptr13drop_in_placeINtNtCsdze8u8oDPro_5alloc3vec3VecINtNtB4_6option6OptionNtCs475r2uZUTuc_11proc_macro25IdentEEECs3RXxJlnd5m8_14zerovec_derive, symObjAddr: 0x5E8, symBinAddr: 0x252D8, symSize: 0x5C }
  - { offset: 0x63387, size: 0x8, addend: 0x0, symName: __RINvNtCs9f3LFPSIp77_4core3ptr13drop_in_placeINtNtCsdze8u8oDPro_5alloc3vec3VecNtCs475r2uZUTuc_11proc_macro211TokenStreamEECs3RXxJlnd5m8_14zerovec_derive, symObjAddr: 0x644, symBinAddr: 0x25334, symSize: 0x5C }
  - { offset: 0x633B6, size: 0x8, addend: 0x0, symName: __RINvNtCs9f3LFPSIp77_4core3ptr13drop_in_placeINtNtCsdze8u8oDPro_5alloc3vec3VecNtCs475r2uZUTuc_11proc_macro25IdentEECs3RXxJlnd5m8_14zerovec_derive, symObjAddr: 0x6A0, symBinAddr: 0x25390, symSize: 0x5C }
  - { offset: 0x633E5, size: 0x8, addend: 0x0, symName: __RINvNtCs9f3LFPSIp77_4core3ptr13drop_in_placeINtNtCsdze8u8oDPro_5alloc3vec3VecNtNtCs3RXxJlnd5m8_14zerovec_derive11make_varule12UnsizedFieldEEB1h_, symObjAddr: 0x6FC, symBinAddr: 0x253EC, symSize: 0x5C }
  - { offset: 0x63414, size: 0x8, addend: 0x0, symName: __RINvNtCs9f3LFPSIp77_4core3ptr13drop_in_placeINtNtCsdze8u8oDPro_5alloc3vec3VecNtNtCs3RXxJlnd5m8_14zerovec_derive5utils9FieldInfoEEB1h_, symObjAddr: 0x758, symBinAddr: 0x25448, symSize: 0x5C }
  - { offset: 0x63443, size: 0x8, addend: 0x0, symName: __RINvNtCs9f3LFPSIp77_4core3ptr13drop_in_placeINtNtCsdze8u8oDPro_5alloc3vec3VecRyEECs3RXxJlnd5m8_14zerovec_derive, symObjAddr: 0x7B4, symBinAddr: 0x254A4, symSize: 0x5C }
  - { offset: 0x63472, size: 0x8, addend: 0x0, symName: __RINvNtCs9f3LFPSIp77_4core3ptr13drop_in_placeINtNtCsdze8u8oDPro_5alloc3vec3VecTNtCs475r2uZUTuc_11proc_macro25IdentNtNtCsATtFUPiRFW_3syn5token5CommaEEECs3RXxJlnd5m8_14zerovec_derive, symObjAddr: 0x810, symBinAddr: 0x25500, symSize: 0x5C }
  - { offset: 0x634A1, size: 0x8, addend: 0x0, symName: __RINvNtCs9f3LFPSIp77_4core3ptr13drop_in_placeINtNtCsdze8u8oDPro_5alloc5boxed3BoxDNtNtB4_5error5ErrorNtNtB4_6marker4SendNtB1B_4SyncEL_EECs3RXxJlnd5m8_14zerovec_derive, symObjAddr: 0x86C, symBinAddr: 0x2555C, symSize: 0x80 }
  - { offset: 0x634D0, size: 0x8, addend: 0x0, symName: __RINvNtCs9f3LFPSIp77_4core3ptr13drop_in_placeINtNtCsdze8u8oDPro_5alloc5boxed3BoxINtNtCsATtFUPiRFW_3syn5drops6NoDropDINtNtB1k_10punctuated12IterMutTraitNtNtB1k_4data5FieldEp4ItemQB2o_EL_EEECs3RXxJlnd5m8_14zerovec_derive, symObjAddr: 0x8EC, symBinAddr: 0x255DC, symSize: 0x2C }
  - { offset: 0x634FF, size: 0x8, addend: 0x0, symName: __RINvNtCs9f3LFPSIp77_4core3ptr13drop_in_placeINtNtCsdze8u8oDPro_5alloc5boxed3BoxINtNtCsATtFUPiRFW_3syn5drops6NoDropDINtNtB1k_10punctuated9IterTraitNtCs475r2uZUTuc_11proc_macro25IdentEp4ItemRB2k_EL_EEECs3RXxJlnd5m8_14zerovec_derive, symObjAddr: 0x918, symBinAddr: 0x25608, symSize: 0x2C }
  - { offset: 0x6352E, size: 0x8, addend: 0x0, symName: __RINvNtCs9f3LFPSIp77_4core3ptr13drop_in_placeINtNtCsdze8u8oDPro_5alloc5boxed3BoxINtNtCsATtFUPiRFW_3syn5drops6NoDropDINtNtB1k_10punctuated9IterTraitNtNtB1k_4data7VariantEp4ItemRB2k_EL_EEECs3RXxJlnd5m8_14zerovec_derive, symObjAddr: 0x944, symBinAddr: 0x25634, symSize: 0x2C }
  - { offset: 0x6355D, size: 0x8, addend: 0x0, symName: __RINvNtCs9f3LFPSIp77_4core3ptr13drop_in_placeINtNtCsdze8u8oDPro_5alloc5boxed3BoxINtNtCsATtFUPiRFW_3syn5drops6NoDropDINtNtB1k_10punctuated9IterTraitNtNtB1k_4path15GenericArgumentEp4ItemRB2k_EL_EEECs3RXxJlnd5m8_14zerovec_derive, symObjAddr: 0x970, symBinAddr: 0x25660, symSize: 0x2C }
  - { offset: 0x6358C, size: 0x8, addend: 0x0, symName: __RINvNtCs9f3LFPSIp77_4core3ptr13drop_in_placeINtNtCsdze8u8oDPro_5alloc5boxed3BoxNtCs475r2uZUTuc_11proc_macro25IdentEECs3RXxJlnd5m8_14zerovec_derive, symObjAddr: 0x99C, symBinAddr: 0x2568C, symSize: 0x60 }
  - { offset: 0x635BB, size: 0x8, addend: 0x0, symName: __RINvNtCs9f3LFPSIp77_4core3ptr13drop_in_placeINtNtCsdze8u8oDPro_5alloc5boxed3BoxNtNtNtCs27l1GJC5rMQ_3std2io5error6CustomEECs3RXxJlnd5m8_14zerovec_derive, symObjAddr: 0x9FC, symBinAddr: 0x256EC, symSize: 0x60 }
  - { offset: 0x635EA, size: 0x8, addend: 0x0, symName: __RINvNtCs9f3LFPSIp77_4core3ptr13drop_in_placeINtNtCsdze8u8oDPro_5alloc7raw_vec6RawVecINtNtB4_6option6OptionNtCs475r2uZUTuc_11proc_macro25IdentEEECs3RXxJlnd5m8_14zerovec_derive, symObjAddr: 0xA5C, symBinAddr: 0x2574C, symSize: 0x24 }
  - { offset: 0x63619, size: 0x8, addend: 0x0, symName: __RINvNtCs9f3LFPSIp77_4core3ptr13drop_in_placeINtNtCsdze8u8oDPro_5alloc7raw_vec6RawVecNtCs475r2uZUTuc_11proc_macro211TokenStreamEECs3RXxJlnd5m8_14zerovec_derive, symObjAddr: 0xA80, symBinAddr: 0x25770, symSize: 0x24 }
  - { offset: 0x63648, size: 0x8, addend: 0x0, symName: __RINvNtCs9f3LFPSIp77_4core3ptr13drop_in_placeINtNtCsdze8u8oDPro_5alloc7raw_vec6RawVecNtCs475r2uZUTuc_11proc_macro25IdentEECs3RXxJlnd5m8_14zerovec_derive, symObjAddr: 0xAA4, symBinAddr: 0x25794, symSize: 0x24 }
  - { offset: 0x63677, size: 0x8, addend: 0x0, symName: __RINvNtCs9f3LFPSIp77_4core3ptr13drop_in_placeINtNtCsdze8u8oDPro_5alloc7raw_vec6RawVecNtNtCs3RXxJlnd5m8_14zerovec_derive11make_varule12UnsizedFieldEEB1o_, symObjAddr: 0xAC8, symBinAddr: 0x257B8, symSize: 0x24 }
  - { offset: 0x636A6, size: 0x8, addend: 0x0, symName: __RINvNtCs9f3LFPSIp77_4core3ptr13drop_in_placeINtNtCsdze8u8oDPro_5alloc7raw_vec6RawVecNtNtCs3RXxJlnd5m8_14zerovec_derive5utils9FieldInfoEEB1o_, symObjAddr: 0xAEC, symBinAddr: 0x257DC, symSize: 0x24 }
  - { offset: 0x636D5, size: 0x8, addend: 0x0, symName: __RINvNtCs9f3LFPSIp77_4core3ptr13drop_in_placeINtNtCsdze8u8oDPro_5alloc7raw_vec6RawVecRyEECs3RXxJlnd5m8_14zerovec_derive, symObjAddr: 0xB10, symBinAddr: 0x25800, symSize: 0x24 }
  - { offset: 0x63704, size: 0x8, addend: 0x0, symName: __RINvNtCs9f3LFPSIp77_4core3ptr13drop_in_placeINtNtCsdze8u8oDPro_5alloc7raw_vec6RawVecTNtCs475r2uZUTuc_11proc_macro25IdentNtNtCsATtFUPiRFW_3syn5token5CommaEEECs3RXxJlnd5m8_14zerovec_derive, symObjAddr: 0xB34, symBinAddr: 0x25824, symSize: 0x24 }
  - { offset: 0x63733, size: 0x8, addend: 0x0, symName: __RINvNtCs9f3LFPSIp77_4core3ptr13drop_in_placeINtNtNtCs27l1GJC5rMQ_3std2io5error9ErrorDataINtNtCsdze8u8oDPro_5alloc5boxed3BoxNtBJ_6CustomEEECs3RXxJlnd5m8_14zerovec_derive, symObjAddr: 0xB58, symBinAddr: 0x25848, symSize: 0x48 }
  - { offset: 0x63762, size: 0x8, addend: 0x0, symName: __RINvNtCs9f3LFPSIp77_4core3ptr13drop_in_placeINtNtNtCsdze8u8oDPro_5alloc3vec9into_iter8IntoIterNtCs475r2uZUTuc_11proc_macro25IdentEECs3RXxJlnd5m8_14zerovec_derive, symObjAddr: 0xBA0, symBinAddr: 0x25890, symSize: 0x24 }
  - { offset: 0x63791, size: 0x8, addend: 0x0, symName: __RINvNtCs9f3LFPSIp77_4core3ptr13drop_in_placeINtNtNtNtB4_4iter8adapters3map3MapINtNtBL_9enumerate9EnumerateINtNtBL_4take4TakeINtNtCsATtFUPiRFW_3syn10punctuated4IterNtNtB23_4data5FieldEEENCINvMs0_NtCs3RXxJlnd5m8_14zerovec_derive5utilsNtB36_9FieldInfo9make_listB1G_E0EEB38_, symObjAddr: 0xBC4, symBinAddr: 0x258B4, symSize: 0x24 }
  - { offset: 0x637C0, size: 0x8, addend: 0x0, symName: __RINvNtCs9f3LFPSIp77_4core3ptr13drop_in_placeINtNtNtNtB4_4iter8adapters3map3MapINtNtBL_9enumerate9EnumerateINtNtCsATtFUPiRFW_3syn10punctuated4IterNtNtB1L_4data5FieldEENCINvMs0_NtCs3RXxJlnd5m8_14zerovec_derive5utilsNtB2N_9FieldInfo9make_listB1G_E0EEB2P_, symObjAddr: 0xBE8, symBinAddr: 0x258D8, symSize: 0x24 }
  - { offset: 0x637EF, size: 0x8, addend: 0x0, symName: __RINvNtCs9f3LFPSIp77_4core3ptr13drop_in_placeINtNtNtNtB4_4iter8adapters4take4TakeINtNtCsATtFUPiRFW_3syn10punctuated4IterNtNtB1l_4data5FieldEEECs3RXxJlnd5m8_14zerovec_derive, symObjAddr: 0xC0C, symBinAddr: 0x258FC, symSize: 0x24 }
  - { offset: 0x6381E, size: 0x8, addend: 0x0, symName: __RINvNtCs9f3LFPSIp77_4core3ptr13drop_in_placeINtNtNtNtB4_4iter8adapters6cloned6ClonedINtNtCsATtFUPiRFW_3syn10punctuated4IterNtCs475r2uZUTuc_11proc_macro25IdentEEECs3RXxJlnd5m8_14zerovec_derive, symObjAddr: 0xC30, symBinAddr: 0x25920, symSize: 0x24 }
  - { offset: 0x6384D, size: 0x8, addend: 0x0, symName: __RINvNtCs9f3LFPSIp77_4core3ptr13drop_in_placeINtNtNtNtB4_4iter8adapters9enumerate9EnumerateINtNtBL_4take4TakeINtNtCsATtFUPiRFW_3syn10punctuated4IterNtNtB1N_4data5FieldEEEECs3RXxJlnd5m8_14zerovec_derive, symObjAddr: 0xC54, symBinAddr: 0x25944, symSize: 0x24 }
  - { offset: 0x6387C, size: 0x8, addend: 0x0, symName: __RINvNtCs9f3LFPSIp77_4core3ptr13drop_in_placeINtNtNtNtB4_4iter8adapters9enumerate9EnumerateINtNtCsATtFUPiRFW_3syn10punctuated4IterNtNtB1v_4data5FieldEEECs3RXxJlnd5m8_14zerovec_derive, symObjAddr: 0xC78, symBinAddr: 0x25968, symSize: 0x24 }
  - { offset: 0x638AB, size: 0x8, addend: 0x0, symName: __RINvNtCs9f3LFPSIp77_4core3ptr13drop_in_placeINtNtNtNtB4_4iter8adapters9enumerate9EnumerateINtNtCsATtFUPiRFW_3syn10punctuated4IterNtNtB1v_4data7VariantEEECs3RXxJlnd5m8_14zerovec_derive, symObjAddr: 0xC9C, symBinAddr: 0x2598C, symSize: 0x24 }
  - { offset: 0x638DA, size: 0x8, addend: 0x0, symName: __RINvNtCs9f3LFPSIp77_4core3ptr13drop_in_placeINtNtNtNtCs27l1GJC5rMQ_3std11collections4hash3set7HashSetyEECs3RXxJlnd5m8_14zerovec_derive, symObjAddr: 0xCC0, symBinAddr: 0x259B0, symSize: 0x24 }
  - { offset: 0x63909, size: 0x8, addend: 0x0, symName: __RINvNtCs9f3LFPSIp77_4core3ptr13drop_in_placeINtNvMs_NtCsdze8u8oDPro_5alloc3vecINtBO_3VecppE10retain_mut15BackshiftOnDropNtNtCsATtFUPiRFW_3syn4attr9AttributeNtNtBQ_5alloc6GlobalEECs3RXxJlnd5m8_14zerovec_derive, symObjAddr: 0xCE4, symBinAddr: 0x259D4, symSize: 0x24 }
  - { offset: 0x63938, size: 0x8, addend: 0x0, symName: __RINvNtCs9f3LFPSIp77_4core3ptr13drop_in_placeINtNvXsd_NtNtCsdze8u8oDPro_5alloc3vec9into_iterINtBP_8IntoIterppENtNtNtB4_3ops4drop4Drop4drop9DropGuardNtCs475r2uZUTuc_11proc_macro25IdentNtNtBT_5alloc6GlobalEECs3RXxJlnd5m8_14zerovec_derive, symObjAddr: 0xD08, symBinAddr: 0x259F8, symSize: 0x24 }
  - { offset: 0x63967, size: 0x8, addend: 0x0, symName: __RINvNtCs9f3LFPSIp77_4core3ptr13drop_in_placeNCINvMs6_NtCscXJUXcj6jCz_9hashbrown3rawINtBP_8RawTableTyuEE14reserve_rehashNCINvNtBR_3map11make_hasheryuNtNtNtCs27l1GJC5rMQ_3std4hash6random11RandomStateE0E0ECs3RXxJlnd5m8_14zerovec_derive, symObjAddr: 0xD2C, symBinAddr: 0x25A1C, symSize: 0x10 }
  - { offset: 0x63996, size: 0x8, addend: 0x0, symName: __RINvNtCs9f3LFPSIp77_4core3ptr13drop_in_placeNCINvMs6_NtCscXJUXcj6jCz_9hashbrown3rawINtBP_8RawTableTyuEE24find_or_find_insert_slotNCINvNtBR_3map14equivalent_keyyyuE0NCINvB28_11make_hasheryuNtNtNtCs27l1GJC5rMQ_3std4hash6random11RandomStateE0E0ECs3RXxJlnd5m8_14zerovec_derive, symObjAddr: 0xD3C, symBinAddr: 0x25A2C, symSize: 0x10 }
  - { offset: 0x639C5, size: 0x8, addend: 0x0, symName: __RINvNtCs9f3LFPSIp77_4core3ptr13drop_in_placeNCINvMs6_NtCscXJUXcj6jCz_9hashbrown3rawINtBP_8RawTableTyuEE4findNCINvNtBR_3map14equivalent_keyyyuE0E0ECs3RXxJlnd5m8_14zerovec_derive, symObjAddr: 0xD4C, symBinAddr: 0x25A3C, symSize: 0x10 }
  - { offset: 0x639F4, size: 0x8, addend: 0x0, symName: __RINvNtCs9f3LFPSIp77_4core3ptr13drop_in_placeNCINvMsi_NtCsdze8u8oDPro_5alloc3vecINtBP_3VecNtCs475r2uZUTuc_11proc_macro211TokenStreamE14extend_trustedINtNtNtNtB4_4iter8adapters3map3MapINtNtNtB4_5slice4iter4IterNtNtCs3RXxJlnd5m8_14zerovec_derive5utils9FieldInfoENCNvNtB3o_11make_varule12make_zf_impl0EE0EB3o_, symObjAddr: 0xD5C, symBinAddr: 0x25A4C, symSize: 0x24 }
  - { offset: 0x63A23, size: 0x8, addend: 0x0, symName: __RINvNtCs9f3LFPSIp77_4core3ptr13drop_in_placeNCINvMsi_NtCsdze8u8oDPro_5alloc3vecINtBP_3VecNtCs475r2uZUTuc_11proc_macro211TokenStreamE14extend_trustedINtNtNtNtB4_4iter8adapters3map3MapINtNtNtB4_5slice4iter4IterNtNtCs3RXxJlnd5m8_14zerovec_derive5utils9FieldInfoENCNvNtB3o_3ule15make_ule_fields0EE0EB3o_, symObjAddr: 0xD80, symBinAddr: 0x25A70, symSize: 0x24 }
  - { offset: 0x63A52, size: 0x8, addend: 0x0, symName: __RINvNtCs9f3LFPSIp77_4core3ptr13drop_in_placeNCINvNtNtNtB4_4iter8adapters3map8map_foldRNtNtCs3RXxJlnd5m8_14zerovec_derive5utils9FieldInfoNtCs475r2uZUTuc_11proc_macro211TokenStreamuNCNvNtB1q_11make_varule12make_zf_impl0NCINvNvNtNtNtBP_6traits8iterator8Iterator8for_each4callB2a_NCINvMsi_NtCsdze8u8oDPro_5alloc3vecINtB4z_3VecB2a_E14extend_trustedINtBL_3MapINtNtNtB4_5slice4iter4IterB1m_EB2R_EE0E0E0EB1q_, symObjAddr: 0xDA4, symBinAddr: 0x25A94, symSize: 0x24 }
  - { offset: 0x63A81, size: 0x8, addend: 0x0, symName: __RINvNtCs9f3LFPSIp77_4core3ptr13drop_in_placeNCINvNtNtNtB4_4iter8adapters3map8map_foldRNtNtCs3RXxJlnd5m8_14zerovec_derive5utils9FieldInfoNtCs475r2uZUTuc_11proc_macro211TokenStreamuNCNvNtB1q_3ule15make_ule_fields0NCINvNvNtNtNtBP_6traits8iterator8Iterator8for_each4callB2a_NCINvMsi_NtCsdze8u8oDPro_5alloc3vecINtB4t_3VecB2a_E14extend_trustedINtBL_3MapINtNtNtB4_5slice4iter4IterB1m_EB2R_EE0E0E0EB1q_, symObjAddr: 0xDC8, symBinAddr: 0x25AB8, symSize: 0x24 }
  - { offset: 0x63AB0, size: 0x8, addend: 0x0, symName: __RINvNtCs9f3LFPSIp77_4core3ptr13drop_in_placeNCINvNvNtNtNtNtB4_4iter6traits8iterator8Iterator8for_each4callNtCs475r2uZUTuc_11proc_macro211TokenStreamNCINvMsi_NtCsdze8u8oDPro_5alloc3vecINtB2v_3VecB1G_E14extend_trustedINtNtNtBT_8adapters3map3MapINtNtNtB4_5slice4iter4IterNtNtCs3RXxJlnd5m8_14zerovec_derive5utils9FieldInfoENCNvNtB4m_11make_varule12make_zf_impl0EE0E0EB4m_, symObjAddr: 0xDEC, symBinAddr: 0x25ADC, symSize: 0x24 }
  - { offset: 0x63ADF, size: 0x8, addend: 0x0, symName: __RINvNtCs9f3LFPSIp77_4core3ptr13drop_in_placeNCINvNvNtNtNtNtB4_4iter6traits8iterator8Iterator8for_each4callNtCs475r2uZUTuc_11proc_macro211TokenStreamNCINvMsi_NtCsdze8u8oDPro_5alloc3vecINtB2v_3VecB1G_E14extend_trustedINtNtNtBT_8adapters3map3MapINtNtNtB4_5slice4iter4IterNtNtCs3RXxJlnd5m8_14zerovec_derive5utils9FieldInfoENCNvNtB4m_3ule15make_ule_fields0EE0E0EB4m_, symObjAddr: 0xE10, symBinAddr: 0x25B00, symSize: 0x24 }
  - { offset: 0x63B0E, size: 0x8, addend: 0x0, symName: __RINvNtCs9f3LFPSIp77_4core3ptr13drop_in_placeNCNCINvNtNtCsjLJ1XWNSM6u_10proc_macro6bridge6client10run_clientNtBN_11TokenStreamINtNtB4_6option6OptionB1H_ENCNCINvMs7_BN_INtBN_6ClientNtBR_11TokenStreamB2R_E7expand1NvCs3RXxJlnd5m8_14zerovec_derive10ule_deriveE00E00EB3o_, symObjAddr: 0xE34, symBinAddr: 0x25B24, symSize: 0x24 }
  - { offset: 0x63B3D, size: 0x8, addend: 0x0, symName: __RINvNtCs9f3LFPSIp77_4core3ptr13drop_in_placeNCNCINvNtNtCsjLJ1XWNSM6u_10proc_macro6bridge6client10run_clientNtBN_11TokenStreamINtNtB4_6option6OptionB1H_ENCNCINvMs7_BN_INtBN_6ClientNtBR_11TokenStreamB2R_E7expand1NvCs3RXxJlnd5m8_14zerovec_derive13varule_deriveE00E00EB3o_, symObjAddr: 0xE58, symBinAddr: 0x25B48, symSize: 0x24 }
  - { offset: 0x63B6C, size: 0x8, addend: 0x0, symName: __RINvNtCs9f3LFPSIp77_4core3ptr13drop_in_placeNCNCINvNtNtCsjLJ1XWNSM6u_10proc_macro6bridge6client10run_clientTNtBN_11TokenStreamB1I_EINtNtB4_6option6OptionB1I_ENCNCINvMs8_BN_INtBN_6ClientTNtBR_11TokenStreamB2Y_EB2Y_E7expand2NvCs3RXxJlnd5m8_14zerovec_derive11make_varuleE00E00EB3A_, symObjAddr: 0xE7C, symBinAddr: 0x25B6C, symSize: 0x24 }
  - { offset: 0x63B9B, size: 0x8, addend: 0x0, symName: __RINvNtCs9f3LFPSIp77_4core3ptr13drop_in_placeNCNCINvNtNtCsjLJ1XWNSM6u_10proc_macro6bridge6client10run_clientTNtBN_11TokenStreamB1I_EINtNtB4_6option6OptionB1I_ENCNCINvMs8_BN_INtBN_6ClientTNtBR_11TokenStreamB2Y_EB2Y_E7expand2NvCs3RXxJlnd5m8_14zerovec_derive8make_uleE00E00EB3A_, symObjAddr: 0xEA0, symBinAddr: 0x25B90, symSize: 0x24 }
  - { offset: 0x63BCA, size: 0x8, addend: 0x0, symName: __RINvNtCs9f3LFPSIp77_4core3ptr13drop_in_placeNtNtCs3RXxJlnd5m8_14zerovec_derive11make_varule12UnsizedFieldEBK_, symObjAddr: 0xEC4, symBinAddr: 0x25BB4, symSize: 0x5C }
  - { offset: 0x63BF9, size: 0x8, addend: 0x0, symName: __RINvNtCs9f3LFPSIp77_4core3ptr13drop_in_placeNtNtCs3RXxJlnd5m8_14zerovec_derive11make_varule13UnsizedFieldsEBK_, symObjAddr: 0xF20, symBinAddr: 0x25C10, symSize: 0x24 }
  - { offset: 0x63C28, size: 0x8, addend: 0x0, symName: __RINvNtCs9f3LFPSIp77_4core3ptr13drop_in_placeNtNtCs3RXxJlnd5m8_14zerovec_derive11make_varule16UnsizedFieldKindEBK_, symObjAddr: 0xF44, symBinAddr: 0x25C34, symSize: 0x60 }
  - { offset: 0x63C57, size: 0x8, addend: 0x0, symName: __RINvNtCs9f3LFPSIp77_4core3ptr13drop_in_placeNtNtCs3RXxJlnd5m8_14zerovec_derive5utils18IdentListAttributeEBK_, symObjAddr: 0xFA4, symBinAddr: 0x25C94, symSize: 0x24 }
  - { offset: 0x63C86, size: 0x8, addend: 0x0, symName: __RINvNtCs9f3LFPSIp77_4core3ptr13drop_in_placeNtNtCs3RXxJlnd5m8_14zerovec_derive5utils9FieldInfoEBK_, symObjAddr: 0xFC8, symBinAddr: 0x25CB8, symSize: 0x24 }
  - { offset: 0x63CB5, size: 0x8, addend: 0x0, symName: __RINvNtCs9f3LFPSIp77_4core3ptr13drop_in_placeNtNtNtCs27l1GJC5rMQ_3std2io5error5ErrorECs3RXxJlnd5m8_14zerovec_derive, symObjAddr: 0xFEC, symBinAddr: 0x25CDC, symSize: 0x24 }
  - { offset: 0x63CE4, size: 0x8, addend: 0x0, symName: __RINvNtCs9f3LFPSIp77_4core3ptr13drop_in_placeNtNtNtCs27l1GJC5rMQ_3std2io5error6CustomECs3RXxJlnd5m8_14zerovec_derive, symObjAddr: 0x1010, symBinAddr: 0x25D00, symSize: 0x24 }
  - { offset: 0x63D13, size: 0x8, addend: 0x0, symName: __RINvNtCs9f3LFPSIp77_4core3ptr13drop_in_placeNtNtNtCs27l1GJC5rMQ_3std6thread5local11AccessErrorECs3RXxJlnd5m8_14zerovec_derive, symObjAddr: 0x1034, symBinAddr: 0x25D24, symSize: 0x10 }
  - { offset: 0x63D42, size: 0x8, addend: 0x0, symName: __RINvNtCs9f3LFPSIp77_4core3ptr13drop_in_placeNtNtNtCsjLJ1XWNSM6u_10proc_macro6bridge3rpc12PanicMessageECs3RXxJlnd5m8_14zerovec_derive, symObjAddr: 0x1044, symBinAddr: 0x25D34, symSize: 0x50 }
  - { offset: 0x63D71, size: 0x8, addend: 0x0, symName: __RINvNtCs9f3LFPSIp77_4core3ptr13drop_in_placeNtNtNtCsjLJ1XWNSM6u_10proc_macro6bridge6buffer6BufferECs3RXxJlnd5m8_14zerovec_derive, symObjAddr: 0x1094, symBinAddr: 0x25D84, symSize: 0x24 }
  - { offset: 0x63DA0, size: 0x8, addend: 0x0, symName: __RINvNtCs9f3LFPSIp77_4core3ptr13drop_in_placeNtNtNtCsjLJ1XWNSM6u_10proc_macro6bridge6client6BridgeECs3RXxJlnd5m8_14zerovec_derive, symObjAddr: 0x10B8, symBinAddr: 0x25DA8, symSize: 0x24 }
  - { offset: 0x63DCF, size: 0x8, addend: 0x0, symName: __RINvNtCs9f3LFPSIp77_4core3ptr13drop_in_placeNtNtNtNtCs27l1GJC5rMQ_3std2io5error14repr_bitpacked4ReprECs3RXxJlnd5m8_14zerovec_derive, symObjAddr: 0x10DC, symBinAddr: 0x25DCC, symSize: 0x24 }
  - { offset: 0x63DFE, size: 0x8, addend: 0x0, symName: __RINvNtCs9f3LFPSIp77_4core3ptr13drop_in_placeNtNvNtNtNtCsjLJ1XWNSM6u_10proc_macro6bridge6client5state3set13RestoreOnDropECs3RXxJlnd5m8_14zerovec_derive, symObjAddr: 0x1100, symBinAddr: 0x25DF0, symSize: 0x24 }
  - { offset: 0x63E2D, size: 0x8, addend: 0x0, symName: __RINvNtCs9f3LFPSIp77_4core3ptr13drop_in_placeRNtCs475r2uZUTuc_11proc_macro25IdentECs3RXxJlnd5m8_14zerovec_derive, symObjAddr: 0x1124, symBinAddr: 0x25E14, symSize: 0x10 }
  - { offset: 0x63E5C, size: 0x8, addend: 0x0, symName: __RINvNtCs9f3LFPSIp77_4core3ptr13drop_in_placeRNtNtCs3RXxJlnd5m8_14zerovec_derive11make_varule8OwnULETyEBL_, symObjAddr: 0x1134, symBinAddr: 0x25E24, symSize: 0x10 }
  - { offset: 0x63E8B, size: 0x8, addend: 0x0, symName: __RINvNtCs9f3LFPSIp77_4core3ptr13drop_in_placeRNtNtCs3RXxJlnd5m8_14zerovec_derive5utils9FieldInfoEBL_, symObjAddr: 0x1144, symBinAddr: 0x25E34, symSize: 0x10 }
  - { offset: 0x63EBA, size: 0x8, addend: 0x0, symName: __RINvNtCs9f3LFPSIp77_4core3ptr13drop_in_placeRNtNtCsATtFUPiRFW_3syn2ty8TypePathECs3RXxJlnd5m8_14zerovec_derive, symObjAddr: 0x1154, symBinAddr: 0x25E44, symSize: 0x10 }
  - { offset: 0x63EE9, size: 0x8, addend: 0x0, symName: __RINvNtCs9f3LFPSIp77_4core3ptr13drop_in_placeRNtNtCsATtFUPiRFW_3syn4data5FieldECs3RXxJlnd5m8_14zerovec_derive, symObjAddr: 0x1164, symBinAddr: 0x25E54, symSize: 0x10 }
  - { offset: 0x63F18, size: 0x8, addend: 0x0, symName: __RINvNtCs9f3LFPSIp77_4core3ptr13drop_in_placeRRNtNtCsATtFUPiRFW_3syn2ty4TypeECs3RXxJlnd5m8_14zerovec_derive, symObjAddr: 0x1174, symBinAddr: 0x25E64, symSize: 0x10 }
  - { offset: 0x63F47, size: 0x8, addend: 0x0, symName: __RINvNtCs9f3LFPSIp77_4core3ptr13drop_in_placeRRyECs3RXxJlnd5m8_14zerovec_derive, symObjAddr: 0x1184, symBinAddr: 0x25E74, symSize: 0x10 }
  - { offset: 0x63F76, size: 0x8, addend: 0x0, symName: __RINvNtCs9f3LFPSIp77_4core3ptr13drop_in_placeRjECs3RXxJlnd5m8_14zerovec_derive, symObjAddr: 0x1194, symBinAddr: 0x25E84, symSize: 0x10 }
  - { offset: 0x63FA5, size: 0x8, addend: 0x0, symName: __RINvNtCs9f3LFPSIp77_4core3ptr13drop_in_placeSINtNtB4_6option6OptionNtCs475r2uZUTuc_11proc_macro25IdentEECs3RXxJlnd5m8_14zerovec_derive, symObjAddr: 0x11A4, symBinAddr: 0x25E94, symSize: 0xC4 }
  - { offset: 0x63FD4, size: 0x8, addend: 0x0, symName: __RINvNtCs9f3LFPSIp77_4core3ptr13drop_in_placeSNtCs475r2uZUTuc_11proc_macro211TokenStreamECs3RXxJlnd5m8_14zerovec_derive, symObjAddr: 0x1268, symBinAddr: 0x25F58, symSize: 0xB4 }
  - { offset: 0x64003, size: 0x8, addend: 0x0, symName: __RINvNtCs9f3LFPSIp77_4core3ptr13drop_in_placeSNtCs475r2uZUTuc_11proc_macro25IdentECs3RXxJlnd5m8_14zerovec_derive, symObjAddr: 0x131C, symBinAddr: 0x2600C, symSize: 0xC4 }
  - { offset: 0x64032, size: 0x8, addend: 0x0, symName: __RINvNtCs9f3LFPSIp77_4core3ptr13drop_in_placeSNtNtCs3RXxJlnd5m8_14zerovec_derive11make_varule12UnsizedFieldEBL_, symObjAddr: 0x13E0, symBinAddr: 0x260D0, symSize: 0xC4 }
  - { offset: 0x64061, size: 0x8, addend: 0x0, symName: __RINvNtCs9f3LFPSIp77_4core3ptr13drop_in_placeSNtNtCs3RXxJlnd5m8_14zerovec_derive5utils9FieldInfoEBL_, symObjAddr: 0x14A4, symBinAddr: 0x26194, symSize: 0xC4 }
  - { offset: 0x64090, size: 0x8, addend: 0x0, symName: __RINvNtCs9f3LFPSIp77_4core3ptr13drop_in_placeSTNtCs475r2uZUTuc_11proc_macro25IdentNtNtCsATtFUPiRFW_3syn5token5CommaEECs3RXxJlnd5m8_14zerovec_derive, symObjAddr: 0x1568, symBinAddr: 0x26258, symSize: 0xB4 }
  - { offset: 0x640BF, size: 0x8, addend: 0x0, symName: __RINvNtCs9f3LFPSIp77_4core3ptr13drop_in_placeTNtCs475r2uZUTuc_11proc_macro25IdentNtNtCsATtFUPiRFW_3syn5token5CommaEECs3RXxJlnd5m8_14zerovec_derive, symObjAddr: 0x161C, symBinAddr: 0x2630C, symSize: 0x24 }
  - { offset: 0x640EE, size: 0x8, addend: 0x0, symName: __RINvNtCs9f3LFPSIp77_4core3ptr13drop_in_placeTNtNtNtCsjLJ1XWNSM6u_10proc_macro6bridge6client11TokenStreamBH_EECs3RXxJlnd5m8_14zerovec_derive, symObjAddr: 0x1640, symBinAddr: 0x26330, symSize: 0x60 }
  - { offset: 0x6445F, size: 0x8, addend: 0x0, symName: __RINvMNtCs9f3LFPSIp77_4core3stre5parseyECs3RXxJlnd5m8_14zerovec_derive, symObjAddr: 0x0, symBinAddr: 0x24CF0, symSize: 0x28 }
  - { offset: 0x67913, size: 0x8, addend: 0x0, symName: __RNvMNtCs9f3LFPSIp77_4core5sliceSNtCs475r2uZUTuc_11proc_macro211TokenStream4iterCs3RXxJlnd5m8_14zerovec_derive, symObjAddr: 0x2028, symBinAddr: 0x26D18, symSize: 0x28 }
  - { offset: 0x6794A, size: 0x8, addend: 0x0, symName: __RNvMNtCs9f3LFPSIp77_4core5sliceSNtCs475r2uZUTuc_11proc_macro25Ident5firstCs3RXxJlnd5m8_14zerovec_derive, symObjAddr: 0x2050, symBinAddr: 0x26D40, symSize: 0x44 }
  - { offset: 0x67994, size: 0x8, addend: 0x0, symName: __RNvMNtCs9f3LFPSIp77_4core5sliceSTNtCs475r2uZUTuc_11proc_macro25IdentNtNtCsATtFUPiRFW_3syn5token5CommaE4iterCs3RXxJlnd5m8_14zerovec_derive, symObjAddr: 0x2094, symBinAddr: 0x26D84, symSize: 0x28 }
  - { offset: 0x67D57, size: 0x8, addend: 0x0, symName: __RNCINvNtNtNtCs9f3LFPSIp77_4core4iter8adapters3map8map_foldRNtNtCs3RXxJlnd5m8_14zerovec_derive5utils9FieldInfoNtCs475r2uZUTuc_11proc_macro211TokenStreamuNCNvNtBZ_11make_varule12make_zf_impl0NCINvNvNtNtNtB8_6traits8iterator8Iterator8for_each4callB1J_NCINvMsi_NtCsdze8u8oDPro_5alloc3vecINtB47_3VecB1J_E14extend_trustedINtB4_3MapINtNtNtBa_5slice4iter4IterBV_EB2q_EE0E0E0BZ_, symObjAddr: 0x1D14, symBinAddr: 0x26A04, symSize: 0x8C }
  - { offset: 0x67DDB, size: 0x8, addend: 0x0, symName: __RNCINvNtNtNtCs9f3LFPSIp77_4core4iter8adapters3map8map_foldRNtNtCs3RXxJlnd5m8_14zerovec_derive5utils9FieldInfoNtCs475r2uZUTuc_11proc_macro211TokenStreamuNCNvNtBZ_3ule15make_ule_fields0NCINvNvNtNtNtB8_6traits8iterator8Iterator8for_each4callB1J_NCINvMsi_NtCsdze8u8oDPro_5alloc3vecINtB41_3VecB1J_E14extend_trustedINtB4_3MapINtNtNtBa_5slice4iter4IterBV_EB2q_EE0E0E0BZ_, symObjAddr: 0x1DA0, symBinAddr: 0x26A90, symSize: 0x8C }
  - { offset: 0x67E65, size: 0x8, addend: 0x0, symName: __RINvXs0_NtNtNtCs9f3LFPSIp77_4core4iter8adapters3mapINtB6_3MapINtNtNtBc_5slice4iter4IterNtNtCs3RXxJlnd5m8_14zerovec_derive5utils9FieldInfoENCNvNtB1r_11make_varule12make_zf_impl0ENtNtNtBa_6traits8iterator8Iterator4folduNCINvNvB2P_8for_each4callNtCs475r2uZUTuc_11proc_macro211TokenStreamNCINvMsi_NtCsdze8u8oDPro_5alloc3vecINtB4H_3VecB3S_E14extend_trustedBN_E0E0EB1r_, symObjAddr: 0x1A34, symBinAddr: 0x26724, symSize: 0x44 }
  - { offset: 0x67EFD, size: 0x8, addend: 0x0, symName: __RINvXs0_NtNtNtCs9f3LFPSIp77_4core4iter8adapters3mapINtB6_3MapINtNtNtBc_5slice4iter4IterNtNtCs3RXxJlnd5m8_14zerovec_derive5utils9FieldInfoENCNvNtB1r_3ule15make_ule_fields0ENtNtNtBa_6traits8iterator8Iterator4folduNCINvNvB2J_8for_each4callNtCs475r2uZUTuc_11proc_macro211TokenStreamNCINvMsi_NtCsdze8u8oDPro_5alloc3vecINtB4B_3VecB3M_E14extend_trustedBN_E0E0EB1r_, symObjAddr: 0x1A78, symBinAddr: 0x26768, symSize: 0x44 }
  - { offset: 0x67F95, size: 0x8, addend: 0x0, symName: __RNvXs0_NtNtNtCs9f3LFPSIp77_4core4iter8adapters3mapINtB5_3MapINtNtB7_9enumerate9EnumerateINtNtB7_4take4TakeINtNtCsATtFUPiRFW_3syn10punctuated4IterNtNtB1L_4data5FieldEEENCINvMs0_NtCs3RXxJlnd5m8_14zerovec_derive5utilsNtB2O_9FieldInfo9make_listB1o_E0ENtNtNtB9_6traits8iterator8Iterator4nextB2Q_, symObjAddr: 0x317C, symBinAddr: 0x27E6C, symSize: 0xA0 }
  - { offset: 0x6800F, size: 0x8, addend: 0x0, symName: __RNvXs0_NtNtNtCs9f3LFPSIp77_4core4iter8adapters3mapINtB5_3MapINtNtB7_9enumerate9EnumerateINtNtB7_4take4TakeINtNtCsATtFUPiRFW_3syn10punctuated4IterNtNtB1L_4data5FieldEEENCINvMs0_NtCs3RXxJlnd5m8_14zerovec_derive5utilsNtB2O_9FieldInfo9make_listB1o_E0ENtNtNtB9_6traits8iterator8Iterator9size_hintB2Q_, symObjAddr: 0x321C, symBinAddr: 0x27F0C, symSize: 0x24 }
  - { offset: 0x68056, size: 0x8, addend: 0x0, symName: __RNvXs0_NtNtNtCs9f3LFPSIp77_4core4iter8adapters3mapINtB5_3MapINtNtB7_9enumerate9EnumerateINtNtCsATtFUPiRFW_3syn10punctuated4IterNtNtB1t_4data5FieldEENCINvMs0_NtCs3RXxJlnd5m8_14zerovec_derive5utilsNtB2v_9FieldInfo9make_listB1o_E0ENtNtNtB9_6traits8iterator8Iterator4nextB2x_, symObjAddr: 0x3240, symBinAddr: 0x27F30, symSize: 0xA0 }
  - { offset: 0x680D0, size: 0x8, addend: 0x0, symName: __RNvXs0_NtNtNtCs9f3LFPSIp77_4core4iter8adapters3mapINtB5_3MapINtNtB7_9enumerate9EnumerateINtNtCsATtFUPiRFW_3syn10punctuated4IterNtNtB1t_4data5FieldEENCINvMs0_NtCs3RXxJlnd5m8_14zerovec_derive5utilsNtB2v_9FieldInfo9make_listB1o_E0ENtNtNtB9_6traits8iterator8Iterator9size_hintB2x_, symObjAddr: 0x32E0, symBinAddr: 0x27FD0, symSize: 0x24 }
  - { offset: 0x68117, size: 0x8, addend: 0x0, symName: __RNvXs0_NtNtNtCs9f3LFPSIp77_4core4iter8adapters3mapINtB5_3MapINtNtB7_9enumerate9EnumerateINtNtNtBb_5slice4iter4IterNtNtCs3RXxJlnd5m8_14zerovec_derive11make_varule12UnsizedFieldEENCNvMB1Q_NtB1Q_13UnsizedFields19maybe_multi_getters0ENtNtNtB9_6traits8iterator8Iterator4nextB1S_, symObjAddr: 0x3304, symBinAddr: 0x27FF4, symSize: 0x9C }
  - { offset: 0x68191, size: 0x8, addend: 0x0, symName: __RNvXs0_NtNtNtCs9f3LFPSIp77_4core4iter8adapters3mapINtB5_3MapINtNtNtBb_5slice4iter4IterNtNtCs3RXxJlnd5m8_14zerovec_derive5utils9FieldInfoENCNvNtB1q_11make_varule12make_zf_impl0ENtNtNtB9_6traits8iterator8Iterator9size_hintB1q_, symObjAddr: 0x33A0, symBinAddr: 0x28090, symSize: 0x24 }
  - { offset: 0x681D8, size: 0x8, addend: 0x0, symName: __RNvXs0_NtNtNtCs9f3LFPSIp77_4core4iter8adapters3mapINtB5_3MapINtNtNtBb_5slice4iter4IterNtNtCs3RXxJlnd5m8_14zerovec_derive5utils9FieldInfoENCNvNtB1q_3ule15make_ule_fields0ENtNtNtB9_6traits8iterator8Iterator9size_hintB1q_, symObjAddr: 0x33C4, symBinAddr: 0x280B4, symSize: 0x24 }
  - { offset: 0x6821F, size: 0x8, addend: 0x0, symName: __RNvXs0_NtNtNtCs9f3LFPSIp77_4core4iter8adapters3mapINtB5_3MapINtNtNtBb_5slice4iter4IterNtNtCs3RXxJlnd5m8_14zerovec_derive5utils9FieldInfoENCNvNtB1q_6varule11derive_impl0ENtNtNtB9_6traits8iterator8Iterator4nextB1q_, symObjAddr: 0x33E8, symBinAddr: 0x280D8, symSize: 0x90 }
  - { offset: 0x6852D, size: 0x8, addend: 0x0, symName: __RNvXs_NtNtNtCs9f3LFPSIp77_4core4iter8adapters9enumerateINtB4_9EnumerateINtNtB6_4take4TakeINtNtCsATtFUPiRFW_3syn10punctuated4IterNtNtB1u_4data5FieldEEENtNtNtB8_6traits8iterator8Iterator4nextCs3RXxJlnd5m8_14zerovec_derive, symObjAddr: 0x3BCC, symBinAddr: 0x288BC, symSize: 0xE0 }
  - { offset: 0x6860E, size: 0x8, addend: 0x0, symName: __RNvXs_NtNtNtCs9f3LFPSIp77_4core4iter8adapters9enumerateINtB4_9EnumerateINtNtB6_4take4TakeINtNtCsATtFUPiRFW_3syn10punctuated4IterNtNtB1u_4data5FieldEEENtNtNtB8_6traits8iterator8Iterator9size_hintCs3RXxJlnd5m8_14zerovec_derive, symObjAddr: 0x3CAC, symBinAddr: 0x2899C, symSize: 0x24 }
  - { offset: 0x68643, size: 0x8, addend: 0x0, symName: __RNvXs_NtNtNtCs9f3LFPSIp77_4core4iter8adapters9enumerateINtB4_9EnumerateINtNtCsATtFUPiRFW_3syn10punctuated4IterNtNtB1c_4data5FieldEENtNtNtB8_6traits8iterator8Iterator4nextCs3RXxJlnd5m8_14zerovec_derive, symObjAddr: 0x3CD0, symBinAddr: 0x289C0, symSize: 0xE0 }
  - { offset: 0x68724, size: 0x8, addend: 0x0, symName: __RNvXs_NtNtNtCs9f3LFPSIp77_4core4iter8adapters9enumerateINtB4_9EnumerateINtNtCsATtFUPiRFW_3syn10punctuated4IterNtNtB1c_4data5FieldEENtNtNtB8_6traits8iterator8Iterator9size_hintCs3RXxJlnd5m8_14zerovec_derive, symObjAddr: 0x3DB0, symBinAddr: 0x28AA0, symSize: 0x24 }
  - { offset: 0x68759, size: 0x8, addend: 0x0, symName: __RNvXs_NtNtNtCs9f3LFPSIp77_4core4iter8adapters9enumerateINtB4_9EnumerateINtNtCsATtFUPiRFW_3syn10punctuated4IterNtNtB1c_4data7VariantEENtNtNtB8_6traits8iterator8Iterator4nextCs3RXxJlnd5m8_14zerovec_derive, symObjAddr: 0x3DD4, symBinAddr: 0x28AC4, symSize: 0xE0 }
  - { offset: 0x6883A, size: 0x8, addend: 0x0, symName: __RNvXs_NtNtNtCs9f3LFPSIp77_4core4iter8adapters9enumerateINtB4_9EnumerateINtNtNtBa_5slice4iter4IterNtNtCs3RXxJlnd5m8_14zerovec_derive11make_varule12UnsizedFieldEENtNtNtB8_6traits8iterator8Iterator4nextB1B_, symObjAddr: 0x3EB4, symBinAddr: 0x28BA4, symSize: 0xE0 }
  - { offset: 0x6891B, size: 0x8, addend: 0x0, symName: __RNvXs_NtNtNtCs9f3LFPSIp77_4core4iter8adapters9enumerateINtB4_9EnumerateINtNtNtBa_5slice4iter4IterNtNtCs3RXxJlnd5m8_14zerovec_derive5utils9FieldInfoEENtNtNtB8_6traits8iterator8Iterator4nextB1B_, symObjAddr: 0x3F94, symBinAddr: 0x28C84, symSize: 0xE0 }
  - { offset: 0x68AE6, size: 0x8, addend: 0x0, symName: __RNCINvNvNtNtNtNtCs9f3LFPSIp77_4core4iter6traits8iterator8Iterator8for_each4callNtCs475r2uZUTuc_11proc_macro211TokenStreamNCINvMsi_NtCsdze8u8oDPro_5alloc3vecINtB24_3VecB1f_E14extend_trustedINtNtNtBc_8adapters3map3MapINtNtNtBe_5slice4iter4IterNtNtCs3RXxJlnd5m8_14zerovec_derive5utils9FieldInfoENCNvNtB3V_11make_varule12make_zf_impl0EE0E0B3V_, symObjAddr: 0x1E2C, symBinAddr: 0x26B1C, symSize: 0x3C }
  - { offset: 0x68B3F, size: 0x8, addend: 0x0, symName: __RNCINvNvNtNtNtNtCs9f3LFPSIp77_4core4iter6traits8iterator8Iterator8for_each4callNtCs475r2uZUTuc_11proc_macro211TokenStreamNCINvMsi_NtCsdze8u8oDPro_5alloc3vecINtB24_3VecB1f_E14extend_trustedINtNtNtBc_8adapters3map3MapINtNtNtBe_5slice4iter4IterNtNtCs3RXxJlnd5m8_14zerovec_derive5utils9FieldInfoENCNvNtB3V_3ule15make_ule_fields0EE0E0B3V_, symObjAddr: 0x1E68, symBinAddr: 0x26B58, symSize: 0x3C }
  - { offset: 0x68BFA, size: 0x8, addend: 0x0, symName: __RINvYINtNtNtNtCs9f3LFPSIp77_4core4iter8adapters3map3MapINtNtB8_9enumerate9EnumerateINtNtB8_4take4TakeINtNtCsATtFUPiRFW_3syn10punctuated4IterNtNtB1G_4data5FieldEEENCINvMs0_NtCs3RXxJlnd5m8_14zerovec_derive5utilsNtB2J_9FieldInfo9make_listB1j_E0ENtNtNtBa_6traits8iterator8Iterator7collectINtNtCsdze8u8oDPro_5alloc3vec3VecB3l_EEB2L_, symObjAddr: 0x1B24, symBinAddr: 0x26814, symSize: 0x14 }
  - { offset: 0x68C3B, size: 0x8, addend: 0x0, symName: __RINvYINtNtNtNtCs9f3LFPSIp77_4core4iter8adapters3map3MapINtNtB8_9enumerate9EnumerateINtNtCsATtFUPiRFW_3syn10punctuated4IterNtNtB1o_4data5FieldEENCINvMs0_NtCs3RXxJlnd5m8_14zerovec_derive5utilsNtB2q_9FieldInfo9make_listB1j_E0ENtNtNtBa_6traits8iterator8Iterator7collectINtNtCsdze8u8oDPro_5alloc3vec3VecB32_EEB2s_, symObjAddr: 0x1B38, symBinAddr: 0x26828, symSize: 0x14 }
  - { offset: 0x68C7C, size: 0x8, addend: 0x0, symName: __RINvYINtNtNtNtCs9f3LFPSIp77_4core4iter8adapters3map3MapINtNtNtBc_5slice4iter4IterNtNtCs3RXxJlnd5m8_14zerovec_derive5utils9FieldInfoENCNvNtB1l_11make_varule12make_zf_impl0ENtNtNtBa_6traits8iterator8Iterator7collectINtNtCsdze8u8oDPro_5alloc3vec3VecNtCs475r2uZUTuc_11proc_macro211TokenStreamEEB1l_, symObjAddr: 0x1B4C, symBinAddr: 0x2683C, symSize: 0x2C }
  - { offset: 0x68CBC, size: 0x8, addend: 0x0, symName: __RINvYINtNtNtNtCs9f3LFPSIp77_4core4iter8adapters3map3MapINtNtNtBc_5slice4iter4IterNtNtCs3RXxJlnd5m8_14zerovec_derive5utils9FieldInfoENCNvNtB1l_11make_varule12make_zf_impl0ENtNtNtBa_6traits8iterator8Iterator8for_eachNCINvMsi_NtCsdze8u8oDPro_5alloc3vecINtB3z_3VecNtCs475r2uZUTuc_11proc_macro211TokenStreamE14extend_trustedB3_E0EB1l_, symObjAddr: 0x1B78, symBinAddr: 0x26868, symSize: 0x44 }
  - { offset: 0x68D27, size: 0x8, addend: 0x0, symName: __RINvYINtNtNtNtCs9f3LFPSIp77_4core4iter8adapters3map3MapINtNtNtBc_5slice4iter4IterNtNtCs3RXxJlnd5m8_14zerovec_derive5utils9FieldInfoENCNvNtB1l_3ule15make_ule_fields0ENtNtNtBa_6traits8iterator8Iterator7collectINtNtCsdze8u8oDPro_5alloc3vec3VecNtCs475r2uZUTuc_11proc_macro211TokenStreamEEB1l_, symObjAddr: 0x1BBC, symBinAddr: 0x268AC, symSize: 0x2C }
  - { offset: 0x68D67, size: 0x8, addend: 0x0, symName: __RINvYINtNtNtNtCs9f3LFPSIp77_4core4iter8adapters3map3MapINtNtNtBc_5slice4iter4IterNtNtCs3RXxJlnd5m8_14zerovec_derive5utils9FieldInfoENCNvNtB1l_3ule15make_ule_fields0ENtNtNtBa_6traits8iterator8Iterator8for_eachNCINvMsi_NtCsdze8u8oDPro_5alloc3vecINtB3t_3VecNtCs475r2uZUTuc_11proc_macro211TokenStreamE14extend_trustedB3_E0EB1l_, symObjAddr: 0x1BE8, symBinAddr: 0x268D8, symSize: 0x44 }
  - { offset: 0x68DD2, size: 0x8, addend: 0x0, symName: __RINvYINtNtNtNtCs9f3LFPSIp77_4core4iter8adapters9enumerate9EnumerateINtNtB8_4take4TakeINtNtCsATtFUPiRFW_3syn10punctuated4IterNtNtB1q_4data5FieldEEENtNtNtBa_6traits8iterator8Iterator3mapNtNtCs3RXxJlnd5m8_14zerovec_derive5utils9FieldInfoNCINvMs0_B2Y_B2W_9make_listB13_E0EB30_, symObjAddr: 0x1C2C, symBinAddr: 0x2691C, symSize: 0x1C }
  - { offset: 0x68E50, size: 0x8, addend: 0x0, symName: __RINvYINtNtNtNtCs9f3LFPSIp77_4core4iter8adapters9enumerate9EnumerateINtNtCsATtFUPiRFW_3syn10punctuated4IterNtNtB18_4data5FieldEENtNtNtBa_6traits8iterator8Iterator3mapNtNtCs3RXxJlnd5m8_14zerovec_derive5utils9FieldInfoNCINvMs0_B2F_B2D_9make_listB13_E0EB2H_, symObjAddr: 0x1C48, symBinAddr: 0x26938, symSize: 0x20 }
  - { offset: 0x68ECE, size: 0x8, addend: 0x0, symName: __RINvYINtNtNtNtCs9f3LFPSIp77_4core4iter8adapters9enumerate9EnumerateINtNtNtBc_5slice4iter4IterNtNtCs3RXxJlnd5m8_14zerovec_derive11make_varule12UnsizedFieldEENtNtNtBa_6traits8iterator8Iterator3mapNtCs475r2uZUTuc_11proc_macro211TokenStreamNCNvMB1v_NtB1v_13UnsizedFields19maybe_multi_getters0EB1x_, symObjAddr: 0x1C68, symBinAddr: 0x26958, symSize: 0x28 }
  - { offset: 0x68F58, size: 0x8, addend: 0x0, symName: __RNvXs_NtNtNtCs9f3LFPSIp77_4core4iter6traits7collectINtNtNtB8_8adapters3map3MapINtNtBS_9enumerate9EnumerateINtNtBS_4take4TakeINtNtCsATtFUPiRFW_3syn10punctuated4IterNtNtB23_4data5FieldEEENCINvMs0_NtCs3RXxJlnd5m8_14zerovec_derive5utilsNtB36_9FieldInfo9make_listB1G_E0ENtB4_12IntoIterator9into_iterB38_, symObjAddr: 0x3B08, symBinAddr: 0x287F8, symSize: 0x14 }
  - { offset: 0x68F8F, size: 0x8, addend: 0x0, symName: __RNvXs_NtNtNtCs9f3LFPSIp77_4core4iter6traits7collectINtNtNtB8_8adapters3map3MapINtNtBS_9enumerate9EnumerateINtNtCsATtFUPiRFW_3syn10punctuated4IterNtNtB1L_4data5FieldEENCINvMs0_NtCs3RXxJlnd5m8_14zerovec_derive5utilsNtB2N_9FieldInfo9make_listB1G_E0ENtB4_12IntoIterator9into_iterB2P_, symObjAddr: 0x3B1C, symBinAddr: 0x2880C, symSize: 0x18 }
  - { offset: 0x68FC6, size: 0x8, addend: 0x0, symName: __RNvXs_NtNtNtCs9f3LFPSIp77_4core4iter6traits7collectINtNtNtB8_8adapters3map3MapINtNtNtBa_5slice4iter4IterNtNtCs3RXxJlnd5m8_14zerovec_derive5utils9FieldInfoENCNvNtB1I_11make_varule12make_zf_impl0ENtB4_12IntoIterator9into_iterB1I_, symObjAddr: 0x3B34, symBinAddr: 0x28824, symSize: 0x1C }
  - { offset: 0x68FFD, size: 0x8, addend: 0x0, symName: __RNvXs_NtNtNtCs9f3LFPSIp77_4core4iter6traits7collectINtNtNtB8_8adapters3map3MapINtNtNtBa_5slice4iter4IterNtNtCs3RXxJlnd5m8_14zerovec_derive5utils9FieldInfoENCNvNtB1I_3ule15make_ule_fields0ENtB4_12IntoIterator9into_iterB1I_, symObjAddr: 0x3B50, symBinAddr: 0x28840, symSize: 0x1C }
  - { offset: 0x69034, size: 0x8, addend: 0x0, symName: __RNvXs_NtNtNtCs9f3LFPSIp77_4core4iter6traits7collectINtNtNtB8_8adapters9enumerate9EnumerateINtNtCsATtFUPiRFW_3syn10punctuated4IterNtNtB1v_4data5FieldEENtB4_12IntoIterator9into_iterCs3RXxJlnd5m8_14zerovec_derive, symObjAddr: 0x3B6C, symBinAddr: 0x2885C, symSize: 0x18 }
  - { offset: 0x6906B, size: 0x8, addend: 0x0, symName: __RNvXs_NtNtNtCs9f3LFPSIp77_4core4iter6traits7collectINtNtNtB8_8adapters9enumerate9EnumerateINtNtCsATtFUPiRFW_3syn10punctuated4IterNtNtB1v_4data7VariantEENtB4_12IntoIterator9into_iterCs3RXxJlnd5m8_14zerovec_derive, symObjAddr: 0x3B84, symBinAddr: 0x28874, symSize: 0x18 }
  - { offset: 0x690A2, size: 0x8, addend: 0x0, symName: __RNvXs_NtNtNtCs9f3LFPSIp77_4core4iter6traits7collectINtNtNtB8_8adapters9enumerate9EnumerateINtNtNtBa_5slice4iter4IterNtNtCs3RXxJlnd5m8_14zerovec_derive11make_varule12UnsizedFieldEENtB4_12IntoIterator9into_iterB1U_, symObjAddr: 0x3B9C, symBinAddr: 0x2888C, symSize: 0x18 }
  - { offset: 0x690D9, size: 0x8, addend: 0x0, symName: __RNvXs_NtNtNtCs9f3LFPSIp77_4core4iter6traits7collectINtNtNtB8_8adapters9enumerate9EnumerateINtNtNtBa_5slice4iter4IterNtNtCs3RXxJlnd5m8_14zerovec_derive5utils9FieldInfoEENtB4_12IntoIterator9into_iterB1U_, symObjAddr: 0x3BB4, symBinAddr: 0x288A4, symSize: 0x18 }
  - { offset: 0x69123, size: 0x8, addend: 0x0, symName: __RINvXs3_NtNtCs9f3LFPSIp77_4core4hash5implsRyNtB8_4Hash4hashNtNtNtCs27l1GJC5rMQ_3std4hash6random13DefaultHasherECs3RXxJlnd5m8_14zerovec_derive, symObjAddr: 0x1ABC, symBinAddr: 0x267AC, symSize: 0x30 }
  - { offset: 0x69174, size: 0x8, addend: 0x0, symName: __RINvXsa_NtNtCs9f3LFPSIp77_4core4hash5implsyNtB8_4Hash4hashNtNtNtCs27l1GJC5rMQ_3std4hash6random13DefaultHasherECs3RXxJlnd5m8_14zerovec_derive, symObjAddr: 0x1AEC, symBinAddr: 0x267DC, symSize: 0x38 }
  - { offset: 0x691BD, size: 0x8, addend: 0x0, symName: __RINvYNtNtNtCs27l1GJC5rMQ_3std4hash6random11RandomStateNtNtCs9f3LFPSIp77_4core4hash11BuildHasher8hash_oneRyECs3RXxJlnd5m8_14zerovec_derive, symObjAddr: 0x1C90, symBinAddr: 0x26980, symSize: 0x84 }
  - { offset: 0x6936C, size: 0x8, addend: 0x0, symName: __RNvYNtNtNtCs27l1GJC5rMQ_3std4hash6random13DefaultHasherNtNtCs9f3LFPSIp77_4core4hash6Hasher9write_u64Cs3RXxJlnd5m8_14zerovec_derive, symObjAddr: 0x5154, symBinAddr: 0x29E44, symSize: 0x3C }
  - { offset: 0x69593, size: 0x8, addend: 0x0, symName: __RNSNvYNCINvMs6_NtCscXJUXcj6jCz_9hashbrown3rawINtBd_8RawTableTyuEE14reserve_rehashNCINvNtBf_3map11make_hasheryuNtNtNtCs27l1GJC5rMQ_3std4hash6random11RandomStateE0E0INtNtNtCs9f3LFPSIp77_4core3ops8function6FnOnceTQNtBd_13RawTableInnerjEE9call_once6vtableCs3RXxJlnd5m8_14zerovec_derive, symObjAddr: 0x1F80, symBinAddr: 0x26C70, symSize: 0x38 }
  - { offset: 0x695D7, size: 0x8, addend: 0x0, symName: __RNSNvYNCINvMs6_NtCscXJUXcj6jCz_9hashbrown3rawINtBd_8RawTableTyuEE24find_or_find_insert_slotNCINvNtBf_3map14equivalent_keyyyuE0NCINvB1w_11make_hasheryuNtNtNtCs27l1GJC5rMQ_3std4hash6random11RandomStateE0E0INtNtNtCs9f3LFPSIp77_4core3ops8function6FnOnceTjEE9call_once6vtableCs3RXxJlnd5m8_14zerovec_derive, symObjAddr: 0x1FB8, symBinAddr: 0x26CA8, symSize: 0x38 }
  - { offset: 0x6961B, size: 0x8, addend: 0x0, symName: __RNSNvYNCINvMs6_NtCscXJUXcj6jCz_9hashbrown3rawINtBd_8RawTableTyuEE4findNCINvNtBf_3map14equivalent_keyyyuE0E0INtNtNtCs9f3LFPSIp77_4core3ops8function6FnOnceTjEE9call_once6vtableCs3RXxJlnd5m8_14zerovec_derive, symObjAddr: 0x1FF0, symBinAddr: 0x26CE0, symSize: 0x38 }
  - { offset: 0x6965F, size: 0x8, addend: 0x0, symName: __RNvYNCINvMs6_NtCscXJUXcj6jCz_9hashbrown3rawINtBb_8RawTableTyuEE14reserve_rehashNCINvNtBd_3map11make_hasheryuNtNtNtCs27l1GJC5rMQ_3std4hash6random11RandomStateE0E0INtNtNtCs9f3LFPSIp77_4core3ops8function6FnOnceTQNtBb_13RawTableInnerjEE9call_onceCs3RXxJlnd5m8_14zerovec_derive, symObjAddr: 0x4F44, symBinAddr: 0x29C34, symSize: 0x5C }
  - { offset: 0x696A3, size: 0x8, addend: 0x0, symName: __RNvYNCINvMs6_NtCscXJUXcj6jCz_9hashbrown3rawINtBb_8RawTableTyuEE24find_or_find_insert_slotNCINvNtBd_3map14equivalent_keyyyuE0NCINvB1u_11make_hasheryuNtNtNtCs27l1GJC5rMQ_3std4hash6random11RandomStateE0E0INtNtNtCs9f3LFPSIp77_4core3ops8function6FnOnceTjEE9call_onceCs3RXxJlnd5m8_14zerovec_derive, symObjAddr: 0x4FA0, symBinAddr: 0x29C90, symSize: 0x58 }
  - { offset: 0x696E7, size: 0x8, addend: 0x0, symName: __RNvYNCINvMs6_NtCscXJUXcj6jCz_9hashbrown3rawINtBb_8RawTableTyuEE4findNCINvNtBd_3map14equivalent_keyyyuE0E0INtNtNtCs9f3LFPSIp77_4core3ops8function6FnOnceTjEE9call_onceCs3RXxJlnd5m8_14zerovec_derive, symObjAddr: 0x4FF8, symBinAddr: 0x29CE8, symSize: 0x58 }
  - { offset: 0x6972B, size: 0x8, addend: 0x0, symName: __RNvYNCNkNvNtNtNtCsjLJ1XWNSM6u_10proc_macro6bridge6client5state12BRIDGE_STATE0s_0INtNtNtCs9f3LFPSIp77_4core3ops8function6FnOnceTINtNtB1n_6option6OptionQIB22_INtNtB1n_4cell4CellPuEEEEE9call_onceCs3RXxJlnd5m8_14zerovec_derive, symObjAddr: 0x5050, symBinAddr: 0x29D40, symSize: 0x4C }
  - { offset: 0x6976F, size: 0x8, addend: 0x0, symName: __RNvYNCNkNvNvMNtNtCs27l1GJC5rMQ_3std4hash6randomNtBb_11RandomState3new4KEYS0s_0INtNtNtCs9f3LFPSIp77_4core3ops8function6FnOnceTINtNtB1l_6option6OptionQIB20_INtNtB1l_4cell4CellTyyEEEEEE9call_onceCs3RXxJlnd5m8_14zerovec_derive, symObjAddr: 0x509C, symBinAddr: 0x29D8C, symSize: 0x4C }
  - { offset: 0x697B3, size: 0x8, addend: 0x0, symName: __RNvYNcNtNtNtCs3RXxJlnd5m8_14zerovec_derive11make_varule16UnsizedFieldKind3Cow0INtNtNtCs9f3LFPSIp77_4core3ops8function6FnOnceTNtB8_8OwnULETyEE9call_onceBa_, symObjAddr: 0x50E8, symBinAddr: 0x29DD8, symSize: 0x24 }
  - { offset: 0x697F7, size: 0x8, addend: 0x0, symName: __RNvYNcNtNtNtCs3RXxJlnd5m8_14zerovec_derive11make_varule16UnsizedFieldKind3Ref0INtNtNtCs9f3LFPSIp77_4core3ops8function6FnOnceTNtB8_8OwnULETyEE9call_onceBa_, symObjAddr: 0x510C, symBinAddr: 0x29DFC, symSize: 0x24 }
  - { offset: 0x6983B, size: 0x8, addend: 0x0, symName: __RNvYNcNtNtNtCs3RXxJlnd5m8_14zerovec_derive11make_varule16UnsizedFieldKind5Boxed0INtNtNtCs9f3LFPSIp77_4core3ops8function6FnOnceTNtB8_8OwnULETyEE9call_onceBa_, symObjAddr: 0x5130, symBinAddr: 0x29E20, symSize: 0x24 }
  - { offset: 0x6987F, size: 0x8, addend: 0x0, symName: __RNvYNvMNtCs9f3LFPSIp77_4core6optionINtB5_6OptionINtNtB7_4cell4CellTyyEEE4takeINtNtNtB7_3ops8function6FnOnceTQBx_EE9call_onceCs3RXxJlnd5m8_14zerovec_derive, symObjAddr: 0x5240, symBinAddr: 0x29F30, symSize: 0x24 }
  - { offset: 0x698C3, size: 0x8, addend: 0x0, symName: __RNvYNvNvNvMNtNtCs27l1GJC5rMQ_3std4hash6randomNtB9_11RandomState3new4KEYS6___initINtNtNtCs9f3LFPSIp77_4core3ops8function6FnOnceuE9call_onceCs3RXxJlnd5m8_14zerovec_derive, symObjAddr: 0x5264, symBinAddr: 0x29F54, symSize: 0x1C }
  - { offset: 0x69907, size: 0x8, addend: 0x0, symName: __RNvYNvYINtNtCsdze8u8oDPro_5alloc5boxed3BoxNtCs475r2uZUTuc_11proc_macro25IdentEINtNtCs9f3LFPSIp77_4core7convert5AsRefBE_E6as_refINtNtNtB1j_3ops8function6FnOnceTRB5_EE9call_onceCs3RXxJlnd5m8_14zerovec_derive, symObjAddr: 0x5280, symBinAddr: 0x29F70, symSize: 0x24 }
  - { offset: 0x6994B, size: 0x8, addend: 0x0, symName: __RNvYNvYNtCs475r2uZUTuc_11proc_macro25IdentNtNtCsATtFUPiRFW_3syn5parse5Parse5parseINtNtNtCs9f3LFPSIp77_4core3ops8function6FnOnceTRNtBG_11ParseBufferEE9call_onceCs3RXxJlnd5m8_14zerovec_derive, symObjAddr: 0x52A4, symBinAddr: 0x29F94, symSize: 0x24 }
  - { offset: 0x6998F, size: 0x8, addend: 0x0, symName: __RNvYNvYNtNtCs3RXxJlnd5m8_14zerovec_derive5utils18IdentListAttributeNtNtCsATtFUPiRFW_3syn5parse5Parse5parseINtNtNtCs9f3LFPSIp77_4core3ops8function6FnOnceTRNtB15_11ParseBufferEE9call_onceB9_, symObjAddr: 0x5350, symBinAddr: 0x2A040, symSize: 0x24 }
  - { offset: 0x699D3, size: 0x8, addend: 0x0, symName: __RNvYNvYNtNtCsATtFUPiRFW_3syn3lit3LitNtNtB9_5parse5Parse5parseINtNtNtCs9f3LFPSIp77_4core3ops8function6FnOnceTRNtBA_11ParseBufferEE9call_onceCs3RXxJlnd5m8_14zerovec_derive, symObjAddr: 0x5374, symBinAddr: 0x2A064, symSize: 0x24 }
  - { offset: 0x69A17, size: 0x8, addend: 0x0, symName: __RNvYNvYNtNtCsATtFUPiRFW_3syn6derive11DeriveInputNtNtB9_11parse_quote10ParseQuote5parseINtNtNtCs9f3LFPSIp77_4core3ops8function6FnOnceTRNtNtB9_5parse11ParseBufferEE9call_onceCs3RXxJlnd5m8_14zerovec_derive, symObjAddr: 0x5398, symBinAddr: 0x2A088, symSize: 0x24 }
  - { offset: 0x69A5B, size: 0x8, addend: 0x0, symName: __RNvYNvYNtNtCsATtFUPiRFW_3syn6derive11DeriveInputNtNtB9_5parse5Parse5parseINtNtNtCs9f3LFPSIp77_4core3ops8function6FnOnceTRNtBM_11ParseBufferEE9call_onceCs3RXxJlnd5m8_14zerovec_derive, symObjAddr: 0x53BC, symBinAddr: 0x2A0AC, symSize: 0x24 }
  - { offset: 0x69A9F, size: 0x8, addend: 0x0, symName: __RNvYNvYNtNtNtCsjLJ1XWNSM6u_10proc_macro6bridge3rpc12PanicMessageINtNtCs9f3LFPSIp77_4core7convert4FromINtNtCsdze8u8oDPro_5alloc5boxed3BoxDNtNtB15_3any3AnyNtNtB15_6marker4SendEL_EE4fromINtNtNtB15_3ops8function6FnOnceTB1B_EE9call_onceCs3RXxJlnd5m8_14zerovec_derive, symObjAddr: 0x5468, symBinAddr: 0x2A158, symSize: 0x2C }
  - { offset: 0x69AE9, size: 0x8, addend: 0x0, symName: __RNvYNvCs3RXxJlnd5m8_14zerovec_derive10ule_deriveINtNtNtCs9f3LFPSIp77_4core3ops8function2FnTNtCsjLJ1XWNSM6u_10proc_macro11TokenStreamEE4callB4_, symObjAddr: 0x5190, symBinAddr: 0x29E80, symSize: 0x28 }
  - { offset: 0x69B2D, size: 0x8, addend: 0x0, symName: __RNvYNvCs3RXxJlnd5m8_14zerovec_derive11make_varuleINtNtNtCs9f3LFPSIp77_4core3ops8function2FnTNtCsjLJ1XWNSM6u_10proc_macro11TokenStreamB1s_EE4callB4_, symObjAddr: 0x51B8, symBinAddr: 0x29EA8, symSize: 0x30 }
  - { offset: 0x69B71, size: 0x8, addend: 0x0, symName: __RNvYNvCs3RXxJlnd5m8_14zerovec_derive13varule_deriveINtNtNtCs9f3LFPSIp77_4core3ops8function2FnTNtCsjLJ1XWNSM6u_10proc_macro11TokenStreamEE4callB4_, symObjAddr: 0x51E8, symBinAddr: 0x29ED8, symSize: 0x28 }
  - { offset: 0x69BB5, size: 0x8, addend: 0x0, symName: __RNvYNvCs3RXxJlnd5m8_14zerovec_derive8make_uleINtNtNtCs9f3LFPSIp77_4core3ops8function2FnTNtCsjLJ1XWNSM6u_10proc_macro11TokenStreamB1o_EE4callB4_, symObjAddr: 0x5210, symBinAddr: 0x29F00, symSize: 0x30 }
  - { offset: 0x69F2F, size: 0x8, addend: 0x0, symName: __RNvNtNtNtNtCs9f3LFPSIp77_4core9core_arch10arm_shared4neon9generated18vreinterpret_s8_u8Cs3RXxJlnd5m8_14zerovec_derive, symObjAddr: 0x2DE8, symBinAddr: 0x27AD8, symSize: 0xC }
  - { offset: 0x69F5D, size: 0x8, addend: 0x0, symName: __RNvNtNtNtNtCs9f3LFPSIp77_4core9core_arch10arm_shared4neon9generated19vreinterpret_u64_u8Cs3RXxJlnd5m8_14zerovec_derive, symObjAddr: 0x2DF4, symBinAddr: 0x27AE4, symSize: 0xC }
  - { offset: 0x69F8B, size: 0x8, addend: 0x0, symName: __RNvNtNtNtNtCs9f3LFPSIp77_4core9core_arch10arm_shared4neon9generated7vceq_u8Cs3RXxJlnd5m8_14zerovec_derive, symObjAddr: 0x2E00, symBinAddr: 0x27AF0, symSize: 0x14 }
  - { offset: 0x69FC8, size: 0x8, addend: 0x0, symName: __RNvNtNtNtNtCs9f3LFPSIp77_4core9core_arch10arm_shared4neon9generated7vorr_u8Cs3RXxJlnd5m8_14zerovec_derive, symObjAddr: 0x2E14, symBinAddr: 0x27B04, symSize: 0x14 }
  - { offset: 0x6A052, size: 0x8, addend: 0x0, symName: __RNvXNtCs9f3LFPSIp77_4core6borrowyINtB2_6BorrowyE6borrowCs3RXxJlnd5m8_14zerovec_derive, symObjAddr: 0x2FCC, symBinAddr: 0x27CBC, symSize: 0x14 }
  - { offset: 0x6A510, size: 0x8, addend: 0x0, symName: __RINvNvNtNtCsjLJ1XWNSM6u_10proc_macro6bridge14selfless_reify31reify_to_extern_c_fn_hrt_bridge7wrapperNtNtB6_6buffer6BufferNCINvMs7_NtB6_6clientINtB24_6ClientNtB8_11TokenStreamB2u_E7expand1NvCs3RXxJlnd5m8_14zerovec_derive10ule_deriveE0EB31_, symObjAddr: 0x1904, symBinAddr: 0x265F4, symSize: 0x4C }
  - { offset: 0x6A56B, size: 0x8, addend: 0x0, symName: __RINvNvNtNtCsjLJ1XWNSM6u_10proc_macro6bridge14selfless_reify31reify_to_extern_c_fn_hrt_bridge7wrapperNtNtB6_6buffer6BufferNCINvMs7_NtB6_6clientINtB24_6ClientNtB8_11TokenStreamB2u_E7expand1NvCs3RXxJlnd5m8_14zerovec_derive13varule_deriveE0EB31_, symObjAddr: 0x1950, symBinAddr: 0x26640, symSize: 0x4C }
  - { offset: 0x6A5C6, size: 0x8, addend: 0x0, symName: __RINvNvNtNtCsjLJ1XWNSM6u_10proc_macro6bridge14selfless_reify31reify_to_extern_c_fn_hrt_bridge7wrapperNtNtB6_6buffer6BufferNCINvMs8_NtB6_6clientINtB24_6ClientTNtB8_11TokenStreamB2v_EB2v_E7expand2NvCs3RXxJlnd5m8_14zerovec_derive11make_varuleE0EB37_, symObjAddr: 0x199C, symBinAddr: 0x2668C, symSize: 0x4C }
  - { offset: 0x6A621, size: 0x8, addend: 0x0, symName: __RINvNvNtNtCsjLJ1XWNSM6u_10proc_macro6bridge14selfless_reify31reify_to_extern_c_fn_hrt_bridge7wrapperNtNtB6_6buffer6BufferNCINvMs8_NtB6_6clientINtB24_6ClientTNtB8_11TokenStreamB2v_EB2v_E7expand2NvCs3RXxJlnd5m8_14zerovec_derive8make_uleE0EB37_, symObjAddr: 0x19E8, symBinAddr: 0x266D8, symSize: 0x4C }
  - { offset: 0x6AC4D, size: 0x8, addend: 0x0, symName: __RNvXsA_NtCs475r2uZUTuc_11proc_macro28fallbackNtB5_5IdentNtNtCs9f3LFPSIp77_4core5clone5Clone5cloneCs3RXxJlnd5m8_14zerovec_derive, symObjAddr: 0x372C, symBinAddr: 0x2841C, symSize: 0x94 }
  - { offset: 0x6AC81, size: 0x8, addend: 0x0, symName: __RNvXss_NtCs475r2uZUTuc_11proc_macro28fallbackNtB5_11TokenStreamNtNtCs9f3LFPSIp77_4core5clone5Clone5cloneCs3RXxJlnd5m8_14zerovec_derive, symObjAddr: 0x4EC0, symBinAddr: 0x29BB0, symSize: 0x24 }
  - { offset: 0x6ACB3, size: 0x8, addend: 0x0, symName: __RNvXsu_NtCs475r2uZUTuc_11proc_macro28fallbackNtB5_4SpanNtNtCs9f3LFPSIp77_4core5clone5Clone5cloneCs3RXxJlnd5m8_14zerovec_derive, symObjAddr: 0x4EE4, symBinAddr: 0x29BD4, symSize: 0x10 }
  - { offset: 0x6AF04, size: 0x8, addend: 0x0, symName: __RNvXsG_Cs475r2uZUTuc_11proc_macro2NtB5_11TokenStreamNtNtCs9f3LFPSIp77_4core5clone5Clone5cloneCs3RXxJlnd5m8_14zerovec_derive, symObjAddr: 0x37C0, symBinAddr: 0x284B0, symSize: 0x78 }
  - { offset: 0x6AF36, size: 0x8, addend: 0x0, symName: __RNvXsY_Cs475r2uZUTuc_11proc_macro2NtB5_5IdentNtNtCs9f3LFPSIp77_4core5clone5Clone5cloneCs3RXxJlnd5m8_14zerovec_derive, symObjAddr: 0x38C8, symBinAddr: 0x285B8, symSize: 0x78 }
  - { offset: 0x6B0DD, size: 0x8, addend: 0x0, symName: __RNCNvXs1_NtNtNtCs27l1GJC5rMQ_3std2io5error14repr_bitpackedNtB7_4ReprNtNtNtCs9f3LFPSIp77_4core3ops4drop4Drop4drop0Cs3RXxJlnd5m8_14zerovec_derive, symObjAddr: 0x1F4C, symBinAddr: 0x26C3C, symSize: 0x34 }
  - { offset: 0x6B192, size: 0x8, addend: 0x0, symName: __RNvXs1_NtNtNtCs27l1GJC5rMQ_3std2io5error14repr_bitpackedNtB5_4ReprNtNtNtCs9f3LFPSIp77_4core3ops4drop4Drop4dropCs3RXxJlnd5m8_14zerovec_derive, symObjAddr: 0x34D0, symBinAddr: 0x281C0, symSize: 0x38 }
  - { offset: 0x6B1BB, size: 0x8, addend: 0x0, symName: __RINvNtNtNtCs27l1GJC5rMQ_3std2io5error14repr_bitpacked11decode_reprINtNtCsdze8u8oDPro_5alloc5boxed3BoxNtB4_6CustomENCNvXs1_B2_NtB2_4ReprNtNtNtCs9f3LFPSIp77_4core3ops4drop4Drop4drop0ECs3RXxJlnd5m8_14zerovec_derive, symObjAddr: 0x16D0, symBinAddr: 0x263C0, symSize: 0x234 }
  - { offset: 0x6B484, size: 0x8, addend: 0x0, symName: __RNvNtNtNtCs27l1GJC5rMQ_3std2io5error14repr_bitpacked14kind_from_primCs3RXxJlnd5m8_14zerovec_derive, symObjAddr: 0x27E0, symBinAddr: 0x274D0, symSize: 0x608 }
  - { offset: 0x6BDC0, size: 0x8, addend: 0x0, symName: __RNCNkNvNvMNtNtCs27l1GJC5rMQ_3std4hash6randomNtB8_11RandomState3new4KEYS0s_0Cs3RXxJlnd5m8_14zerovec_derive, symObjAddr: 0x1EA4, symBinAddr: 0x26B94, symSize: 0x3C }
  - { offset: 0x6BDFE, size: 0x8, addend: 0x0, symName: __RNvNvNvMNtNtCs27l1GJC5rMQ_3std4hash6randomNtB6_11RandomState3new4KEYS6___initCs3RXxJlnd5m8_14zerovec_derive, symObjAddr: 0x2E28, symBinAddr: 0x27B18, symSize: 0x24 }
  - { offset: 0x6BE1C, size: 0x8, addend: 0x0, symName: __RNCNvMNtNtCs27l1GJC5rMQ_3std4hash6randomNtB4_11RandomState3new0Cs3RXxJlnd5m8_14zerovec_derive, symObjAddr: 0x1EE0, symBinAddr: 0x26BD0, symSize: 0x6C }
  - { offset: 0x6BFB3, size: 0x8, addend: 0x0, symName: __RNvXs2_NtNtCs27l1GJC5rMQ_3std4hash6randomNtB5_13DefaultHasherNtNtCs9f3LFPSIp77_4core4hash6Hasher5writeCs3RXxJlnd5m8_14zerovec_derive, symObjAddr: 0x3674, symBinAddr: 0x28364, symSize: 0x38 }
  - { offset: 0x6C00E, size: 0x8, addend: 0x0, symName: __RNvXs2_NtNtCs27l1GJC5rMQ_3std4hash6randomNtB5_13DefaultHasherNtNtCs9f3LFPSIp77_4core4hash6Hasher6finishCs3RXxJlnd5m8_14zerovec_derive, symObjAddr: 0x36AC, symBinAddr: 0x2839C, symSize: 0x2C }
  - { offset: 0x6C08D, size: 0x8, addend: 0x0, symName: __RNvXs3_NtNtCs27l1GJC5rMQ_3std4hash6randomNtB5_11RandomStateNtNtCs9f3LFPSIp77_4core7default7Default7defaultCs3RXxJlnd5m8_14zerovec_derive, symObjAddr: 0x3710, symBinAddr: 0x28400, symSize: 0x1C }
  - { offset: 0x6C0C5, size: 0x8, addend: 0x0, symName: __RNvXs_NtNtCs27l1GJC5rMQ_3std4hash6randomNtB4_11RandomStateNtNtCs9f3LFPSIp77_4core4hash11BuildHasher12build_hasherCs3RXxJlnd5m8_14zerovec_derive, symObjAddr: 0x3A3C, symBinAddr: 0x2872C, symSize: 0xCC }
  - { offset: 0x6C308, size: 0x8, addend: 0x0, symName: __RINvMs0_NtCs9f3LFPSIp77_4core3fmtNtB6_9Arguments6new_v1Kj1_Kj0_ECs3RXxJlnd5m8_14zerovec_derive, symObjAddr: 0x28, symBinAddr: 0x24D18, symSize: 0x4C }
  - { offset: 0x6C36E, size: 0x8, addend: 0x0, symName: __RINvMs0_NtCs9f3LFPSIp77_4core3fmtNtB6_9Arguments6new_v1Kj3_Kj2_ECs3RXxJlnd5m8_14zerovec_derive, symObjAddr: 0x74, symBinAddr: 0x24D64, symSize: 0x54 }
  - { offset: 0x6C3C1, size: 0x8, addend: 0x0, symName: __RINvMs5_NtNtCs9f3LFPSIp77_4core3fmt8buildersNtB6_9DebugList7entriesRRyINtNtNtBa_5slice4iter4IterB14_EECs3RXxJlnd5m8_14zerovec_derive, symObjAddr: 0xC8, symBinAddr: 0x24DB8, symSize: 0xD0 }
  - { offset: 0x6C52C, size: 0x8, addend: 0x0, symName: __RINvNtCsATtFUPiRFW_3syn5parse12parse_scopedNvYNtNtCs3RXxJlnd5m8_14zerovec_derive5utils18IdentListAttributeNtB2_5Parse5parseEBM_, symObjAddr: 0x16A0, symBinAddr: 0x26390, symSize: 0x30 }
  - { offset: 0x6C587, size: 0x8, addend: 0x0, symName: __RNvXsh_NtCsATtFUPiRFW_3syn5parseNvYNtCs475r2uZUTuc_11proc_macro25IdentNtB5_5Parse5parseNtB5_6Parser6parse2Cs3RXxJlnd5m8_14zerovec_derive, symObjAddr: 0x4074, symBinAddr: 0x28D64, symSize: 0x34C }
  - { offset: 0x6C694, size: 0x8, addend: 0x0, symName: __RNvXsh_NtCsATtFUPiRFW_3syn5parseNvYNtNtB7_3lit3LitNtB5_5Parse5parseNtB5_6Parser6parse2Cs3RXxJlnd5m8_14zerovec_derive, symObjAddr: 0x43C0, symBinAddr: 0x290B0, symSize: 0x34C }
  - { offset: 0x6C7A1, size: 0x8, addend: 0x0, symName: __RNvXsh_NtCsATtFUPiRFW_3syn5parseNvYNtNtB7_6derive11DeriveInputNtB5_5Parse5parseNtB5_6Parser6parse2Cs3RXxJlnd5m8_14zerovec_derive, symObjAddr: 0x470C, symBinAddr: 0x293FC, symSize: 0x36C }
  - { offset: 0x6C8AF, size: 0x8, addend: 0x0, symName: __RNvXsh_NtCsATtFUPiRFW_3syn5parseNvYNtNtCs3RXxJlnd5m8_14zerovec_derive5utils18IdentListAttributeNtB5_5Parse5parseNtB5_6Parser14___parse_scopedBB_, symObjAddr: 0x4A78, symBinAddr: 0x29768, symSize: 0x3C0 }
  - { offset: 0x6CA00, size: 0x8, addend: 0x0, symName: __RNvYNvYNtCs475r2uZUTuc_11proc_macro25IdentNtNtCsATtFUPiRFW_3syn5parse5Parse5parseNtBG_6Parser5parseCs3RXxJlnd5m8_14zerovec_derive, symObjAddr: 0x52C8, symBinAddr: 0x29FB8, symSize: 0x88 }
  - { offset: 0x6CA46, size: 0x8, addend: 0x0, symName: __RNvYNvYNtNtCsATtFUPiRFW_3syn6derive11DeriveInputNtNtB9_5parse5Parse5parseNtBM_6Parser5parseCs3RXxJlnd5m8_14zerovec_derive, symObjAddr: 0x53E0, symBinAddr: 0x2A0D0, symSize: 0x88 }
  - { offset: 0x71AA6, size: 0x8, addend: 0x0, symName: __RNvXs0_NtCsATtFUPiRFW_3syn5dropsINtB5_6NoDropDINtNtB7_10punctuated12IterMutTraitNtNtB7_4data5FieldEp4ItemQB1g_EL_ENtNtNtCs9f3LFPSIp77_4core3ops5deref8DerefMut9deref_mutCs3RXxJlnd5m8_14zerovec_derive, symObjAddr: 0x308C, symBinAddr: 0x27D7C, symSize: 0x3C }
  - { offset: 0x71ADB, size: 0x8, addend: 0x0, symName: __RNvXs0_NtCsATtFUPiRFW_3syn5dropsINtB5_6NoDropDINtNtB7_10punctuated9IterTraitNtCs475r2uZUTuc_11proc_macro25IdentEp4ItemRB1c_EL_ENtNtNtCs9f3LFPSIp77_4core3ops5deref8DerefMut9deref_mutCs3RXxJlnd5m8_14zerovec_derive, symObjAddr: 0x30C8, symBinAddr: 0x27DB8, symSize: 0x3C }
  - { offset: 0x71B10, size: 0x8, addend: 0x0, symName: __RNvXs0_NtCsATtFUPiRFW_3syn5dropsINtB5_6NoDropDINtNtB7_10punctuated9IterTraitNtNtB7_4data7VariantEp4ItemRB1c_EL_ENtNtNtCs9f3LFPSIp77_4core3ops5deref8DerefMut9deref_mutCs3RXxJlnd5m8_14zerovec_derive, symObjAddr: 0x3104, symBinAddr: 0x27DF4, symSize: 0x3C }
  - { offset: 0x71B45, size: 0x8, addend: 0x0, symName: __RNvXs0_NtCsATtFUPiRFW_3syn5dropsINtB5_6NoDropDINtNtB7_10punctuated9IterTraitNtNtB7_4path15GenericArgumentEp4ItemRB1c_EL_ENtNtNtCs9f3LFPSIp77_4core3ops5deref8DerefMut9deref_mutCs3RXxJlnd5m8_14zerovec_derive, symObjAddr: 0x3140, symBinAddr: 0x27E30, symSize: 0x3C }
  - { offset: 0x71B80, size: 0x8, addend: 0x0, symName: __RNvXs_NtCsATtFUPiRFW_3syn5dropsINtB4_6NoDropDINtNtB6_10punctuated9IterTraitNtCs475r2uZUTuc_11proc_macro25IdentEp4ItemRB1b_EL_ENtNtNtCs9f3LFPSIp77_4core3ops5deref5Deref5derefCs3RXxJlnd5m8_14zerovec_derive, symObjAddr: 0x3940, symBinAddr: 0x28630, symSize: 0x3C }
  - { offset: 0x71C39, size: 0x8, addend: 0x0, symName: __RNvXNtCsATtFUPiRFW_3syn11parse_quoteNtNtB4_6derive11DeriveInputNtB2_10ParseQuote5parseCs3RXxJlnd5m8_14zerovec_derive, symObjAddr: 0x2FE0, symBinAddr: 0x27CD0, symSize: 0x34 }
  - { offset: 0x71C7A, size: 0x8, addend: 0x0, symName: __RNvXNtCsATtFUPiRFW_3syn7spannedNtNtB4_6derive11DeriveInputNtB2_7Spanned4spanCs3RXxJlnd5m8_14zerovec_derive, symObjAddr: 0x3014, symBinAddr: 0x27D04, symSize: 0x34 }
  - { offset: 0x71F9A, size: 0x8, addend: 0x0, symName: __RNvNtCsdze8u8oDPro_5alloc5alloc12alloc_zeroedCs3RXxJlnd5m8_14zerovec_derive, symObjAddr: 0x2638, symBinAddr: 0x27328, symSize: 0x80 }
  - { offset: 0x72067, size: 0x8, addend: 0x0, symName: __RNvXs_NtCsdze8u8oDPro_5alloc5allocNtB4_6GlobalNtNtCs9f3LFPSIp77_4core5alloc9Allocator10deallocateCs3RXxJlnd5m8_14zerovec_derive, symObjAddr: 0x397C, symBinAddr: 0x2866C, symSize: 0x8C }
  - { offset: 0x7214B, size: 0x8, addend: 0x0, symName: __RNvXs_NtCsdze8u8oDPro_5alloc5allocNtB4_6GlobalNtNtCs9f3LFPSIp77_4core5alloc9Allocator8allocateCs3RXxJlnd5m8_14zerovec_derive, symObjAddr: 0x3A08, symBinAddr: 0x286F8, symSize: 0x34 }
  - { offset: 0x72186, size: 0x8, addend: 0x0, symName: __RNvNtCsdze8u8oDPro_5alloc5alloc15exchange_mallocCs3RXxJlnd5m8_14zerovec_derive, symObjAddr: 0x26B8, symBinAddr: 0x273A8, symSize: 0xA8 }
  - { offset: 0x72295, size: 0x8, addend: 0x0, symName: __RNvNtCsdze8u8oDPro_5alloc5alloc5allocCs3RXxJlnd5m8_14zerovec_derive, symObjAddr: 0x2760, symBinAddr: 0x27450, symSize: 0x80 }
  - { offset: 0x7233A, size: 0x8, addend: 0x0, symName: __RNvXs2_NtCsdze8u8oDPro_5alloc5allocNtB5_6GlobalNtNtCs9f3LFPSIp77_4core7default7Default7defaultCs3RXxJlnd5m8_14zerovec_derive, symObjAddr: 0x3508, symBinAddr: 0x281F8, symSize: 0x4 }
  - { offset: 0x73416, size: 0x8, addend: 0x0, symName: __RNvXs2_NtCsdze8u8oDPro_5alloc7raw_vecINtB5_6RawVecINtNtCs9f3LFPSIp77_4core6option6OptionNtCs475r2uZUTuc_11proc_macro25IdentEENtNtNtBR_3ops4drop4Drop4dropCs3RXxJlnd5m8_14zerovec_derive, symObjAddr: 0x350C, symBinAddr: 0x281FC, symSize: 0x34 }
  - { offset: 0x73452, size: 0x8, addend: 0x0, symName: __RNvXs2_NtCsdze8u8oDPro_5alloc7raw_vecINtB5_6RawVecNtCs475r2uZUTuc_11proc_macro211TokenStreamENtNtNtCs9f3LFPSIp77_4core3ops4drop4Drop4dropCs3RXxJlnd5m8_14zerovec_derive, symObjAddr: 0x3540, symBinAddr: 0x28230, symSize: 0x34 }
  - { offset: 0x7348E, size: 0x8, addend: 0x0, symName: __RNvXs2_NtCsdze8u8oDPro_5alloc7raw_vecINtB5_6RawVecNtCs475r2uZUTuc_11proc_macro25IdentENtNtNtCs9f3LFPSIp77_4core3ops4drop4Drop4dropCs3RXxJlnd5m8_14zerovec_derive, symObjAddr: 0x3574, symBinAddr: 0x28264, symSize: 0x34 }
  - { offset: 0x734CA, size: 0x8, addend: 0x0, symName: __RNvXs2_NtCsdze8u8oDPro_5alloc7raw_vecINtB5_6RawVecNtNtCs3RXxJlnd5m8_14zerovec_derive11make_varule12UnsizedFieldENtNtNtCs9f3LFPSIp77_4core3ops4drop4Drop4dropBQ_, symObjAddr: 0x35A8, symBinAddr: 0x28298, symSize: 0x34 }
  - { offset: 0x73506, size: 0x8, addend: 0x0, symName: __RNvXs2_NtCsdze8u8oDPro_5alloc7raw_vecINtB5_6RawVecNtNtCs3RXxJlnd5m8_14zerovec_derive5utils9FieldInfoENtNtNtCs9f3LFPSIp77_4core3ops4drop4Drop4dropBQ_, symObjAddr: 0x35DC, symBinAddr: 0x282CC, symSize: 0x34 }
  - { offset: 0x73542, size: 0x8, addend: 0x0, symName: __RNvXs2_NtCsdze8u8oDPro_5alloc7raw_vecINtB5_6RawVecRyENtNtNtCs9f3LFPSIp77_4core3ops4drop4Drop4dropCs3RXxJlnd5m8_14zerovec_derive, symObjAddr: 0x3610, symBinAddr: 0x28300, symSize: 0x30 }
  - { offset: 0x7357E, size: 0x8, addend: 0x0, symName: __RNvXs2_NtCsdze8u8oDPro_5alloc7raw_vecINtB5_6RawVecTNtCs475r2uZUTuc_11proc_macro25IdentNtNtCsATtFUPiRFW_3syn5token5CommaEENtNtNtCs9f3LFPSIp77_4core3ops4drop4Drop4dropCs3RXxJlnd5m8_14zerovec_derive, symObjAddr: 0x3640, symBinAddr: 0x28330, symSize: 0x34 }
  - { offset: 0x737F5, size: 0x8, addend: 0x0, symName: __RINvMs9_NtCsATtFUPiRFW_3syn5parseNtB6_11ParseBuffer16parse_terminatedNtCs475r2uZUTuc_11proc_macro25IdentINvNtB8_5token5CommaNtNtB8_9lookahead11TokenMarkerEECs3RXxJlnd5m8_14zerovec_derive, symObjAddr: 0x198, symBinAddr: 0x24E88, symSize: 0x3C }
  - { offset: 0x74356, size: 0x8, addend: 0x0, symName: __RNvMNtCsATtFUPiRFW_3syn5dropsINtB2_6NoDropINtNtB4_10punctuated11PrivateIterNtCs475r2uZUTuc_11proc_macro25IdentNtNtB4_5token5CommaEE3newCs3RXxJlnd5m8_14zerovec_derive, symObjAddr: 0x20BC, symBinAddr: 0x26DAC, symSize: 0x40 }
  - { offset: 0x743E0, size: 0x8, addend: 0x0, symName: __RNvMNtCsATtFUPiRFW_3syn5dropsINtB2_6NoDropINtNtB4_10punctuated11PrivateIterNtNtB4_4data7VariantNtNtB4_5token5CommaEE3newCs3RXxJlnd5m8_14zerovec_derive, symObjAddr: 0x20FC, symBinAddr: 0x26DEC, symSize: 0x40 }
  - { offset: 0x7446A, size: 0x8, addend: 0x0, symName: __RNvMNtCsATtFUPiRFW_3syn5dropsINtB2_6NoDropINtNtB4_10punctuated11PrivateIterNtNtB4_4path15GenericArgumentNtNtB4_5token5CommaEE3newCs3RXxJlnd5m8_14zerovec_derive, symObjAddr: 0x213C, symBinAddr: 0x26E2C, symSize: 0x40 }
  - { offset: 0x74632, size: 0x8, addend: 0x0, symName: __RNvMNtCsdze8u8oDPro_5alloc5allocNtB2_6Global10alloc_implCs3RXxJlnd5m8_14zerovec_derive, symObjAddr: 0x217C, symBinAddr: 0x26E6C, symSize: 0x1BC }
  - { offset: 0x749D7, size: 0x8, addend: 0x0, symName: __RNvMs0_NtCs9f3LFPSIp77_4core3fmtNtB5_9Arguments16new_v1_formattedCs3RXxJlnd5m8_14zerovec_derive, symObjAddr: 0x2338, symBinAddr: 0x27028, symSize: 0x58 }
  - { offset: 0x74A86, size: 0x8, addend: 0x0, symName: __RNvMs1_NtCsdze8u8oDPro_5alloc7raw_vecINtB5_6RawVecINtNtCs9f3LFPSIp77_4core6option6OptionNtCs475r2uZUTuc_11proc_macro25IdentEE8grow_oneCs3RXxJlnd5m8_14zerovec_derive, symObjAddr: 0x2390, symBinAddr: 0x27080, symSize: 0x88 }
  - { offset: 0x74B34, size: 0x8, addend: 0x0, symName: __RNvMs1_NtCsdze8u8oDPro_5alloc7raw_vecINtB5_6RawVecNtCs475r2uZUTuc_11proc_macro211TokenStreamE8grow_oneCs3RXxJlnd5m8_14zerovec_derive, symObjAddr: 0x2418, symBinAddr: 0x27108, symSize: 0x88 }
  - { offset: 0x74BE2, size: 0x8, addend: 0x0, symName: __RNvMs1_NtCsdze8u8oDPro_5alloc7raw_vecINtB5_6RawVecNtNtCs3RXxJlnd5m8_14zerovec_derive11make_varule12UnsizedFieldE8grow_oneBQ_, symObjAddr: 0x24A0, symBinAddr: 0x27190, symSize: 0x88 }
  - { offset: 0x74C90, size: 0x8, addend: 0x0, symName: __RNvMs1_NtCsdze8u8oDPro_5alloc7raw_vecINtB5_6RawVecNtNtCs3RXxJlnd5m8_14zerovec_derive5utils9FieldInfoE8grow_oneBQ_, symObjAddr: 0x2528, symBinAddr: 0x27218, symSize: 0x88 }
  - { offset: 0x74D3E, size: 0x8, addend: 0x0, symName: __RNvMs1_NtCsdze8u8oDPro_5alloc7raw_vecINtB5_6RawVecTNtCs475r2uZUTuc_11proc_macro25IdentNtNtCsATtFUPiRFW_3syn5token5CommaEE8grow_oneCs3RXxJlnd5m8_14zerovec_derive, symObjAddr: 0x25B0, symBinAddr: 0x272A0, symSize: 0x88 }
  - { offset: 0x74E9C, size: 0x8, addend: 0x0, symName: __RNvXNtCs62MdaZFMefA_5quote9to_tokensRNtCs475r2uZUTuc_11proc_macro211TokenStreamNtB2_8ToTokens9to_tokensCs3RXxJlnd5m8_14zerovec_derive, symObjAddr: 0x2E4C, symBinAddr: 0x27B3C, symSize: 0x40 }
  - { offset: 0x74EDB, size: 0x8, addend: 0x0, symName: __RNvXNtCs62MdaZFMefA_5quote9to_tokensRNtCs475r2uZUTuc_11proc_macro25IdentNtB2_8ToTokens9to_tokensCs3RXxJlnd5m8_14zerovec_derive, symObjAddr: 0x2E8C, symBinAddr: 0x27B7C, symSize: 0x40 }
  - { offset: 0x74F1A, size: 0x8, addend: 0x0, symName: __RNvXNtCs62MdaZFMefA_5quote9to_tokensRNtNtCsATtFUPiRFW_3syn2ty8TypePathNtB2_8ToTokens9to_tokensCs3RXxJlnd5m8_14zerovec_derive, symObjAddr: 0x2ECC, symBinAddr: 0x27BBC, symSize: 0x40 }
  - { offset: 0x74F59, size: 0x8, addend: 0x0, symName: __RNvXNtCs62MdaZFMefA_5quote9to_tokensRNtNtCsATtFUPiRFW_3syn6derive11DeriveInputNtB2_8ToTokens9to_tokensCs3RXxJlnd5m8_14zerovec_derive, symObjAddr: 0x2F0C, symBinAddr: 0x27BFC, symSize: 0x40 }
  - { offset: 0x74F98, size: 0x8, addend: 0x0, symName: __RNvXNtCs62MdaZFMefA_5quote9to_tokensRRNtNtCsATtFUPiRFW_3syn2ty4TypeNtB2_8ToTokens9to_tokensCs3RXxJlnd5m8_14zerovec_derive, symObjAddr: 0x2F4C, symBinAddr: 0x27C3C, symSize: 0x40 }
  - { offset: 0x74FD7, size: 0x8, addend: 0x0, symName: __RNvXNtCs62MdaZFMefA_5quote9to_tokensRRNtNtCsATtFUPiRFW_3syn2ty8TypePathNtB2_8ToTokens9to_tokensCs3RXxJlnd5m8_14zerovec_derive, symObjAddr: 0x2F8C, symBinAddr: 0x27C7C, symSize: 0x40 }
  - { offset: 0x7501C, size: 0x8, addend: 0x0, symName: __RNvYRNtNtCsATtFUPiRFW_3syn6derive11DeriveInputNtNtCs62MdaZFMefA_5quote9to_tokens8ToTokens15to_token_streamCs3RXxJlnd5m8_14zerovec_derive, symObjAddr: 0x5494, symBinAddr: 0x2A184, symSize: 0x8C }
  - { offset: 0x75066, size: 0x8, addend: 0x0, symName: __RNvYRNtNtCsATtFUPiRFW_3syn6derive11DeriveInputNtNtCs62MdaZFMefA_5quote9to_tokens8ToTokens17into_token_streamCs3RXxJlnd5m8_14zerovec_derive, symObjAddr: 0x5520, symBinAddr: 0x2A210, symSize: 0x54 }
  - { offset: 0x750A7, size: 0x8, addend: 0x0, symName: __RNvXs0_NtCs62MdaZFMefA_5quote7spannedNtNtCsATtFUPiRFW_3syn6derive11DeriveInputNtB5_7Spanned6___spanCs3RXxJlnd5m8_14zerovec_derive, symObjAddr: 0x3048, symBinAddr: 0x27D38, symSize: 0x44 }
  - { offset: 0x750ED, size: 0x8, addend: 0x0, symName: __RNvXs2_NtNtCs62MdaZFMefA_5quote9___private3extSNtCs475r2uZUTuc_11proc_macro211TokenStreamNtB5_16RepAsIteratorExt15quote_into_iterCs3RXxJlnd5m8_14zerovec_derive, symObjAddr: 0x36D8, symBinAddr: 0x283C8, symSize: 0x38 }
  - { offset: 0x75128, size: 0x8, addend: 0x0, symName: __RNvYINtNtNtNtCs9f3LFPSIp77_4core4iter8adapters3map3MapINtNtB7_9enumerate9EnumerateINtNtNtBb_5slice4iter4IterNtNtCs3RXxJlnd5m8_14zerovec_derive11make_varule12UnsizedFieldEENCNvMB1K_NtB1K_13UnsizedFields19maybe_multi_getters0ENtNtNtCs62MdaZFMefA_5quote9___private3ext14RepIteratorExt15quote_into_iterB1M_, symObjAddr: 0x4EF4, symBinAddr: 0x29BE4, symSize: 0x24 }
  - { offset: 0x7515D, size: 0x8, addend: 0x0, symName: __RNvYINtNtNtNtCs9f3LFPSIp77_4core4iter8adapters3map3MapINtNtNtBb_5slice4iter4IterNtNtCs3RXxJlnd5m8_14zerovec_derive5utils9FieldInfoENCNvNtB1k_6varule11derive_impl0ENtNtNtCs62MdaZFMefA_5quote9___private3ext14RepIteratorExt15quote_into_iterB1k_, symObjAddr: 0x4F18, symBinAddr: 0x29C08, symSize: 0x2C }
  - { offset: 0x7535F, size: 0x8, addend: 0x0, symName: __RNvXs1_NtCscXJUXcj6jCz_9hashbrown10scopeguardINtB5_10ScopeGuardNtNtB7_3raw13RawTableInnerNCINvMsa_B11_BZ_14prepare_resizeNtNtCsdze8u8oDPro_5alloc5alloc6GlobalE0ENtNtNtCs9f3LFPSIp77_4core3ops4drop4Drop4dropCs3RXxJlnd5m8_14zerovec_derive, symObjAddr: 0x3478, symBinAddr: 0x28168, symSize: 0x2C }
  - { offset: 0x75399, size: 0x8, addend: 0x0, symName: __RNvXs1_NtCscXJUXcj6jCz_9hashbrown10scopeguardINtB5_10ScopeGuardQNtNtB7_3raw13RawTableInnerNCNvMsa_B12_B10_15rehash_in_place0ENtNtNtCs9f3LFPSIp77_4core3ops4drop4Drop4dropCs3RXxJlnd5m8_14zerovec_derive, symObjAddr: 0x34A4, symBinAddr: 0x28194, symSize: 0x2C }
  - { offset: 0x766FB, size: 0x8, addend: 0x0, symName: __RINvMNtCs9f3LFPSIp77_4core6optionINtB3_6OptionRINtNtCsdze8u8oDPro_5alloc5boxed3BoxNtCs475r2uZUTuc_11proc_macro25IdentEE3mapRB1i_NvYBJ_INtNtB5_7convert5AsRefB1i_E6as_refECs3RXxJlnd5m8_14zerovec_derive, symObjAddr: 0x0, symBinAddr: 0x2A264, symSize: 0x50 }
  - { offset: 0x76B5D, size: 0x8, addend: 0x0, symName: __RNvXs1J_NtCsjLJ1XWNSM6u_10proc_macro6bridgeINtB6_11ExpnGlobalsNtNtB6_6client4SpanEINtNtB6_3rpc9DecodeMutuE6decodeCs3RXxJlnd5m8_14zerovec_derive, symObjAddr: 0x1BE0, symBinAddr: 0x2BE1C, symSize: 0xB0 }
  - { offset: 0x76BB4, size: 0x8, addend: 0x0, symName: __RNvXs9_NtNtCsjLJ1XWNSM6u_10proc_macro6bridge3rpcTINtB7_11ExpnGlobalsNtNtB7_6client4SpanENtB16_11TokenStreamEINtB5_9DecodeMutuE6decodeCs3RXxJlnd5m8_14zerovec_derive, symObjAddr: 0x2DD8, symBinAddr: 0x2D014, symSize: 0x84 }
  - { offset: 0x76C09, size: 0x8, addend: 0x0, symName: __RNvXs9_NtNtCsjLJ1XWNSM6u_10proc_macro6bridge3rpcTINtB7_11ExpnGlobalsNtNtB7_6client4SpanETNtB16_11TokenStreamB1p_EEINtB5_9DecodeMutuE6decodeCs3RXxJlnd5m8_14zerovec_derive, symObjAddr: 0x2E5C, symBinAddr: 0x2D098, symSize: 0x90 }
  - { offset: 0x76D0E, size: 0x8, addend: 0x0, symName: __RNvXsR_NtCsjLJ1XWNSM6u_10proc_macro6bridgeINtNtCs9f3LFPSIp77_4core6option6OptionNtNtB5_6client11TokenStreamEINtNtB5_3rpc6EncodeuE6encodeCs3RXxJlnd5m8_14zerovec_derive, symObjAddr: 0x3178, symBinAddr: 0x2D3B4, symSize: 0xCC }
  - { offset: 0x76DB2, size: 0x8, addend: 0x0, symName: __RNvXsR_NtCsjLJ1XWNSM6u_10proc_macro6bridgeINtNtCs9f3LFPSIp77_4core6option6OptionReEINtNtB5_3rpc6EncodeuE6encodeCs3RXxJlnd5m8_14zerovec_derive, symObjAddr: 0x3244, symBinAddr: 0x2D480, symSize: 0xD8 }
  - { offset: 0x76FEB, size: 0x8, addend: 0x0, symName: __RNvXs10_CsjLJ1XWNSM6u_10proc_macroNtB6_11TokenStreamNtNtCs9f3LFPSIp77_4core5clone5Clone5cloneCs3RXxJlnd5m8_14zerovec_derive, symObjAddr: 0x1B64, symBinAddr: 0x2BDA0, symSize: 0x64 }
  - { offset: 0x77050, size: 0x8, addend: 0x0, symName: __RNvXs1l_CsjLJ1XWNSM6u_10proc_macroNtB6_5IdentNtNtCs9f3LFPSIp77_4core5clone5Clone5cloneCs3RXxJlnd5m8_14zerovec_derive, symObjAddr: 0x1CA0, symBinAddr: 0x2BEDC, symSize: 0x40 }
  - { offset: 0x772EA, size: 0x8, addend: 0x0, symName: __RNvXsA_NtCs475r2uZUTuc_11proc_macro23impNtB5_19DeferredTokenStreamNtNtCs9f3LFPSIp77_4core5clone5Clone5cloneCs3RXxJlnd5m8_14zerovec_derive, symObjAddr: 0x2EEC, symBinAddr: 0x2D128, symSize: 0x88 }
  - { offset: 0x7731C, size: 0x8, addend: 0x0, symName: __RNvXsF_NtCs475r2uZUTuc_11proc_macro23impNtB5_5IdentNtNtCs9f3LFPSIp77_4core5clone5Clone5cloneCs3RXxJlnd5m8_14zerovec_derive, symObjAddr: 0x2F74, symBinAddr: 0x2D1B0, symSize: 0x9C }
  - { offset: 0x7738C, size: 0x8, addend: 0x0, symName: __RNvXsz_NtCs475r2uZUTuc_11proc_macro23impNtB5_11TokenStreamNtNtCs9f3LFPSIp77_4core5clone5Clone5cloneCs3RXxJlnd5m8_14zerovec_derive, symObjAddr: 0x3B28, symBinAddr: 0x2DD64, symSize: 0x98 }
  - { offset: 0x774B1, size: 0x8, addend: 0x0, symName: __RNvXs1_NtCs475r2uZUTuc_11proc_macro26markerNtB5_19ProcMacroAutoTraitsNtNtCs9f3LFPSIp77_4core5clone5Clone5cloneCs3RXxJlnd5m8_14zerovec_derive, symObjAddr: 0x1C90, symBinAddr: 0x2BECC, symSize: 0x10 }
  - { offset: 0x779C9, size: 0x8, addend: 0x0, symName: __RNvXsP_NtCs9f3LFPSIp77_4core3fmtRNtNtCsATtFUPiRFW_3syn4data5FieldNtB5_5Debug3fmtCs3RXxJlnd5m8_14zerovec_derive, symObjAddr: 0x3148, symBinAddr: 0x2D384, symSize: 0x30 }
  - { offset: 0x7863F, size: 0x8, addend: 0x0, symName: __RINvNtCs9f3LFPSIp77_4core9panicking13panic_displayNtNtCsATtFUPiRFW_3syn5error5ErrorECs3RXxJlnd5m8_14zerovec_derive, symObjAddr: 0xC74, symBinAddr: 0x2AED8, symSize: 0x98 }
  - { offset: 0x7B20B, size: 0x8, addend: 0x0, symName: __RNvXs5_NtCs9f3LFPSIp77_4core6optionINtB5_6OptionRNtCs475r2uZUTuc_11proc_macro25IdentENtNtNtNtB7_4iter6traits7collect12IntoIterator9into_iterCs3RXxJlnd5m8_14zerovec_derive, symObjAddr: 0x21C8, symBinAddr: 0x2C404, symSize: 0x14 }
  - { offset: 0x7B2C3, size: 0x8, addend: 0x0, symName: __RNvXsO_NtCs9f3LFPSIp77_4core6optionINtB5_8IntoIterRNtCs475r2uZUTuc_11proc_macro25IdentENtNtB7_5clone5Clone5cloneCs3RXxJlnd5m8_14zerovec_derive, symObjAddr: 0x3010, symBinAddr: 0x2D24C, symSize: 0x68 }
  - { offset: 0x7B36A, size: 0x8, addend: 0x0, symName: __RNvXsO_NtCs9f3LFPSIp77_4core6optionINtB5_8IntoIterRNtNtCsATtFUPiRFW_3syn4data7VariantENtNtB7_5clone5Clone5cloneCs3RXxJlnd5m8_14zerovec_derive, symObjAddr: 0x3078, symBinAddr: 0x2D2B4, symSize: 0x68 }
  - { offset: 0x7B411, size: 0x8, addend: 0x0, symName: __RNvXsO_NtCs9f3LFPSIp77_4core6optionINtB5_8IntoIterRNtNtCsATtFUPiRFW_3syn4path15GenericArgumentENtNtB7_5clone5Clone5cloneCs3RXxJlnd5m8_14zerovec_derive, symObjAddr: 0x30E0, symBinAddr: 0x2D31C, symSize: 0x68 }
  - { offset: 0x7B5EE, size: 0x8, addend: 0x0, symName: __RNvXsv_NtCs9f3LFPSIp77_4core6optionINtB5_8IntoIterRNtCs475r2uZUTuc_11proc_macro25IdentENtNtNtNtB7_4iter6traits8iterator8Iterator4nextCs3RXxJlnd5m8_14zerovec_derive, symObjAddr: 0x39D8, symBinAddr: 0x2DC14, symSize: 0x3C }
  - { offset: 0x7B6E1, size: 0x8, addend: 0x0, symName: __RNvXsv_NtCs9f3LFPSIp77_4core6optionINtB5_8IntoIterRNtCs475r2uZUTuc_11proc_macro25IdentENtNtNtNtB7_4iter6traits8iterator8Iterator9size_hintCs3RXxJlnd5m8_14zerovec_derive, symObjAddr: 0x3A14, symBinAddr: 0x2DC50, symSize: 0x5C }
  - { offset: 0x7B79E, size: 0x8, addend: 0x0, symName: __RNvXsv_NtCs9f3LFPSIp77_4core6optionINtB5_8IntoIterRNtNtCsATtFUPiRFW_3syn4data7VariantENtNtNtNtB7_4iter6traits8iterator8Iterator9size_hintCs3RXxJlnd5m8_14zerovec_derive, symObjAddr: 0x3A70, symBinAddr: 0x2DCAC, symSize: 0x5C }
  - { offset: 0x7B85B, size: 0x8, addend: 0x0, symName: __RNvXsv_NtCs9f3LFPSIp77_4core6optionINtB5_8IntoIterRNtNtCsATtFUPiRFW_3syn4path15GenericArgumentENtNtNtNtB7_4iter6traits8iterator8Iterator9size_hintCs3RXxJlnd5m8_14zerovec_derive, symObjAddr: 0x3ACC, symBinAddr: 0x2DD08, symSize: 0x5C }
  - { offset: 0x7BC4B, size: 0x8, addend: 0x0, symName: __RNvNvMs3_NtCs9f3LFPSIp77_4core3numi13unchecked_neg18precondition_checkCs3RXxJlnd5m8_14zerovec_derive, symObjAddr: 0x17B4, symBinAddr: 0x2B9F0, symSize: 0x4C }
  - { offset: 0x7BCE2, size: 0x8, addend: 0x0, symName: __RNvNvMs7_NtCs9f3LFPSIp77_4core3numy13unchecked_add18precondition_checkCs3RXxJlnd5m8_14zerovec_derive, symObjAddr: 0x1800, symBinAddr: 0x2BA3C, symSize: 0x4C }
  - { offset: 0x7BE37, size: 0x8, addend: 0x0, symName: __RNvNvMs9_NtCs9f3LFPSIp77_4core3numj13unchecked_add18precondition_checkCs3RXxJlnd5m8_14zerovec_derive, symObjAddr: 0x184C, symBinAddr: 0x2BA88, symSize: 0x4C }
  - { offset: 0x7C482, size: 0x8, addend: 0x0, symName: __RNvMNtCs9f3LFPSIp77_4core5sliceSNtNtCsATtFUPiRFW_3syn4attr9Attribute5firstCs3RXxJlnd5m8_14zerovec_derive, symObjAddr: 0xE18, symBinAddr: 0x2B054, symSize: 0x44 }
  - { offset: 0x7C85A, size: 0x8, addend: 0x0, symName: __RNvXsn_NtNtCs9f3LFPSIp77_4core5panic11unwind_safeINtB5_16AssertUnwindSafeNCINvNtNtCsjLJ1XWNSM6u_10proc_macro6bridge6client10run_clientNtB1e_11TokenStreamINtNtB9_6option6OptionB28_ENCNCINvMs7_B1e_INtB1e_6ClientNtB1i_11TokenStreamB3l_E7expand1NvCs3RXxJlnd5m8_14zerovec_derive10ule_deriveE00E0EINtNtNtB9_3ops8function6FnOnceuE9call_onceB3T_, symObjAddr: 0x38F8, symBinAddr: 0x2DB34, symSize: 0x38 }
  - { offset: 0x7C8B1, size: 0x8, addend: 0x0, symName: __RNvXsn_NtNtCs9f3LFPSIp77_4core5panic11unwind_safeINtB5_16AssertUnwindSafeNCINvNtNtCsjLJ1XWNSM6u_10proc_macro6bridge6client10run_clientNtB1e_11TokenStreamINtNtB9_6option6OptionB28_ENCNCINvMs7_B1e_INtB1e_6ClientNtB1i_11TokenStreamB3l_E7expand1NvCs3RXxJlnd5m8_14zerovec_derive13varule_deriveE00E0EINtNtNtB9_3ops8function6FnOnceuE9call_onceB3T_, symObjAddr: 0x3930, symBinAddr: 0x2DB6C, symSize: 0x38 }
  - { offset: 0x7C908, size: 0x8, addend: 0x0, symName: __RNvXsn_NtNtCs9f3LFPSIp77_4core5panic11unwind_safeINtB5_16AssertUnwindSafeNCINvNtNtCsjLJ1XWNSM6u_10proc_macro6bridge6client10run_clientTNtB1e_11TokenStreamB29_EINtNtB9_6option6OptionB29_ENCNCINvMs8_B1e_INtB1e_6ClientTNtB1i_11TokenStreamB3s_EB3s_E7expand2NvCs3RXxJlnd5m8_14zerovec_derive11make_varuleE00E0EINtNtNtB9_3ops8function6FnOnceuE9call_onceB45_, symObjAddr: 0x3968, symBinAddr: 0x2DBA4, symSize: 0x38 }
  - { offset: 0x7C95F, size: 0x8, addend: 0x0, symName: __RNvXsn_NtNtCs9f3LFPSIp77_4core5panic11unwind_safeINtB5_16AssertUnwindSafeNCINvNtNtCsjLJ1XWNSM6u_10proc_macro6bridge6client10run_clientTNtB1e_11TokenStreamB29_EINtNtB9_6option6OptionB29_ENCNCINvMs8_B1e_INtB1e_6ClientTNtB1i_11TokenStreamB3s_EB3s_E7expand2NvCs3RXxJlnd5m8_14zerovec_derive8make_uleE00E0EINtNtNtB9_3ops8function6FnOnceuE9call_onceB45_, symObjAddr: 0x39A0, symBinAddr: 0x2DBDC, symSize: 0x38 }
  - { offset: 0x7CA62, size: 0x8, addend: 0x0, symName: __RNvNvNtCs9f3LFPSIp77_4core4hint21unreachable_unchecked18precondition_checkCs3RXxJlnd5m8_14zerovec_derive, symObjAddr: 0x1898, symBinAddr: 0x2BAD4, symSize: 0x1C }
  - { offset: 0x7CA91, size: 0x8, addend: 0x0, symName: __RINvYINtNtNtNtCs27l1GJC5rMQ_3std11collections4hash3set4IteryENtNtNtNtCs9f3LFPSIp77_4core4iter6traits8iterator8Iterator7collectINtNtCsdze8u8oDPro_5alloc3vec3VecRyEECs3RXxJlnd5m8_14zerovec_derive, symObjAddr: 0xE04, symBinAddr: 0x2B040, symSize: 0x14 }
  - { offset: 0x7CADE, size: 0x8, addend: 0x0, symName: __RNvXs_NtNtNtCs9f3LFPSIp77_4core4iter6traits7collectINtNtNtBa_3ops5range5RangeyENtB4_12IntoIterator9into_iterCs3RXxJlnd5m8_14zerovec_derive, symObjAddr: 0x3380, symBinAddr: 0x2D5BC, symSize: 0x14 }
  - { offset: 0x7CB15, size: 0x8, addend: 0x0, symName: __RNvXs_NtNtNtCs9f3LFPSIp77_4core4iter6traits7collectINtNtNtNtCs27l1GJC5rMQ_3std11collections4hash3set4IteryENtB4_12IntoIterator9into_iterCs3RXxJlnd5m8_14zerovec_derive, symObjAddr: 0x3394, symBinAddr: 0x2D5D0, symSize: 0x30 }
  - { offset: 0x7CB59, size: 0x8, addend: 0x0, symName: __RNvYINtNtCs9f3LFPSIp77_4core6option8IntoIterRNtCs475r2uZUTuc_11proc_macro25IdentENtNtNtNtB7_4iter6traits10exact_size17ExactSizeIterator3lenCs3RXxJlnd5m8_14zerovec_derive, symObjAddr: 0x3BC0, symBinAddr: 0x2DDFC, symSize: 0xC4 }
  - { offset: 0x7CC4B, size: 0x8, addend: 0x0, symName: __RNvYINtNtCs9f3LFPSIp77_4core6option8IntoIterRNtNtCsATtFUPiRFW_3syn4data7VariantENtNtNtNtB7_4iter6traits10exact_size17ExactSizeIterator3lenCs3RXxJlnd5m8_14zerovec_derive, symObjAddr: 0x3C84, symBinAddr: 0x2DEC0, symSize: 0xC4 }
  - { offset: 0x7CD3D, size: 0x8, addend: 0x0, symName: __RNvYINtNtCs9f3LFPSIp77_4core6option8IntoIterRNtNtCsATtFUPiRFW_3syn4path15GenericArgumentENtNtNtNtB7_4iter6traits10exact_size17ExactSizeIterator3lenCs3RXxJlnd5m8_14zerovec_derive, symObjAddr: 0x3D48, symBinAddr: 0x2DF84, symSize: 0xC4 }
  - { offset: 0x7CE3C, size: 0x8, addend: 0x0, symName: __RNvXs3_NtNtCs9f3LFPSIp77_4core4iter5rangeINtNtNtB9_3ops5range5RangeyENtB5_17RangeIteratorImpl9spec_nextCs3RXxJlnd5m8_14zerovec_derive, symObjAddr: 0x2038, symBinAddr: 0x2C274, symSize: 0x94 }
  - { offset: 0x7CEBD, size: 0x8, addend: 0x0, symName: __RNvXs4_NtNtCs9f3LFPSIp77_4core4iter5rangeINtNtNtB9_3ops5range5RangejENtNtNtB7_6traits8iterator8Iterator9size_hintCs3RXxJlnd5m8_14zerovec_derive, symObjAddr: 0x20CC, symBinAddr: 0x2C308, symSize: 0xD8 }
  - { offset: 0x7CF64, size: 0x8, addend: 0x0, symName: __RNvXs4_NtNtCs9f3LFPSIp77_4core4iter5rangeINtNtNtB9_3ops5range5RangeyENtNtNtB7_6traits8iterator8Iterator4nextCs3RXxJlnd5m8_14zerovec_derive, symObjAddr: 0x21A4, symBinAddr: 0x2C3E0, symSize: 0x24 }
  - { offset: 0x7CFAC, size: 0x8, addend: 0x0, symName: __RNvXsh_NtNtNtCs9f3LFPSIp77_4core4iter8adapters7step_byINtNtNtBb_3ops5range5RangejEINtB5_14SpecRangeSetupBQ_E5setupCs3RXxJlnd5m8_14zerovec_derive, symObjAddr: 0x3730, symBinAddr: 0x2D96C, symSize: 0xD4 }
  - { offset: 0x7D4A2, size: 0x8, addend: 0x0, symName: __RNvNtNtCs9f3LFPSIp77_4core4hash3sip9u8to64_leCs3RXxJlnd5m8_14zerovec_derive, symObjAddr: 0x1520, symBinAddr: 0x2B75C, symSize: 0x230 }
  - { offset: 0x7D681, size: 0x8, addend: 0x0, symName: __RNvXs3_NtNtCs9f3LFPSIp77_4core4hash3sipINtB5_6HasherNtB5_11Sip13RoundsENtB7_6Hasher5writeCs3RXxJlnd5m8_14zerovec_derive, symObjAddr: 0x1D68, symBinAddr: 0x2BFA4, symSize: 0x230 }
  - { offset: 0x7D821, size: 0x8, addend: 0x0, symName: __RNvXs3_NtNtCs9f3LFPSIp77_4core4hash3sipINtB5_6HasherNtB5_11Sip13RoundsENtB7_6Hasher6finishCs3RXxJlnd5m8_14zerovec_derive, symObjAddr: 0x1F98, symBinAddr: 0x2C1D4, symSize: 0xA0 }
  - { offset: 0x7D89A, size: 0x8, addend: 0x0, symName: __RNvXs6_NtNtCs9f3LFPSIp77_4core4hash3sipNtB5_11Sip13RoundsNtB5_3Sip8c_roundsCs3RXxJlnd5m8_14zerovec_derive, symObjAddr: 0x2860, symBinAddr: 0x2CA9C, symSize: 0x170 }
  - { offset: 0x7DA10, size: 0x8, addend: 0x0, symName: __RNvXs6_NtNtCs9f3LFPSIp77_4core4hash3sipNtB5_11Sip13RoundsNtB5_3Sip8d_roundsCs3RXxJlnd5m8_14zerovec_derive, symObjAddr: 0x29D0, symBinAddr: 0x2CC0C, symSize: 0x408 }
  - { offset: 0x7DBFA, size: 0x8, addend: 0x0, symName: __RNvNtNtNtCs9f3LFPSIp77_4core9core_arch7aarch644neon7vld1_u8Cs3RXxJlnd5m8_14zerovec_derive, symObjAddr: 0x1750, symBinAddr: 0x2B98C, symSize: 0x2C }
  - { offset: 0x7DC28, size: 0x8, addend: 0x0, symName: __RNvNtNtNtCs9f3LFPSIp77_4core9core_arch7aarch644neon7vst1_u8Cs3RXxJlnd5m8_14zerovec_derive, symObjAddr: 0x177C, symBinAddr: 0x2B9B8, symSize: 0x38 }
  - { offset: 0x7DD73, size: 0x8, addend: 0x0, symName: __RNvXsn_NtNtCs9f3LFPSIp77_4core3cmp5implsyNtB7_9PartialEq2eqCs3RXxJlnd5m8_14zerovec_derive, symObjAddr: 0x38CC, symBinAddr: 0x2DB08, symSize: 0x2C }
  - { offset: 0x7E076, size: 0x8, addend: 0x0, symName: __RNvXs_NtNtCs9f3LFPSIp77_4core3str6traitseNtNtB8_3cmp9PartialEq2eqCs3RXxJlnd5m8_14zerovec_derive, symObjAddr: 0x331C, symBinAddr: 0x2D558, symSize: 0x64 }
  - { offset: 0x7E458, size: 0x8, addend: 0x0, symName: __RNvXsj_NtNtNtCs27l1GJC5rMQ_3std11collections4hash3setINtB5_4IteryENtNtNtNtCs9f3LFPSIp77_4core4iter6traits8iterator8Iterator4nextCs3RXxJlnd5m8_14zerovec_derive, symObjAddr: 0x3804, symBinAddr: 0x2DA40, symSize: 0x6C }
  - { offset: 0x7E4E1, size: 0x8, addend: 0x0, symName: __RNvXsj_NtNtNtCs27l1GJC5rMQ_3std11collections4hash3setINtB5_4IteryENtNtNtNtCs9f3LFPSIp77_4core4iter6traits8iterator8Iterator9size_hintCs3RXxJlnd5m8_14zerovec_derive, symObjAddr: 0x3870, symBinAddr: 0x2DAAC, symSize: 0x5C }
  - { offset: 0x7F44D, size: 0x8, addend: 0x0, symName: __RNvXs18_NtCsdze8u8oDPro_5alloc5boxedINtB6_3BoxNtCs475r2uZUTuc_11proc_macro25IdentEINtNtCs9f3LFPSIp77_4core7convert5AsRefBI_E6as_refCs3RXxJlnd5m8_14zerovec_derive, symObjAddr: 0x1BC8, symBinAddr: 0x2BE04, symSize: 0x18 }
  - { offset: 0x7F493, size: 0x8, addend: 0x0, symName: __RNvXs6_NtCsdze8u8oDPro_5alloc5boxedINtB5_3BoxDNtNtCs9f3LFPSIp77_4core5error5ErrorNtNtBM_6marker4SendNtB1j_4SyncEL_ENtNtNtBM_3ops4drop4Drop4dropCs3RXxJlnd5m8_14zerovec_derive, symObjAddr: 0x21DC, symBinAddr: 0x2C418, symSize: 0xC4 }
  - { offset: 0x7F611, size: 0x8, addend: 0x0, symName: __RNvXs6_NtCsdze8u8oDPro_5alloc5boxedINtB5_3BoxINtNtCsATtFUPiRFW_3syn5drops6NoDropDINtNtBM_10punctuated12IterMutTraitNtNtBM_4data5FieldEp4ItemQB1P_EL_EENtNtNtCs9f3LFPSIp77_4core3ops4drop4Drop4dropCs3RXxJlnd5m8_14zerovec_derive, symObjAddr: 0x22A0, symBinAddr: 0x2C4DC, symSize: 0x118 }
  - { offset: 0x7F78F, size: 0x8, addend: 0x0, symName: __RNvXs6_NtCsdze8u8oDPro_5alloc5boxedINtB5_3BoxINtNtCsATtFUPiRFW_3syn5drops6NoDropDINtNtBM_10punctuated9IterTraitNtCs475r2uZUTuc_11proc_macro25IdentEp4ItemRB1L_EL_EENtNtNtCs9f3LFPSIp77_4core3ops4drop4Drop4dropCs3RXxJlnd5m8_14zerovec_derive, symObjAddr: 0x23B8, symBinAddr: 0x2C5F4, symSize: 0x118 }
  - { offset: 0x7F90D, size: 0x8, addend: 0x0, symName: __RNvXs6_NtCsdze8u8oDPro_5alloc5boxedINtB5_3BoxINtNtCsATtFUPiRFW_3syn5drops6NoDropDINtNtBM_10punctuated9IterTraitNtNtBM_4data7VariantEp4ItemRB1L_EL_EENtNtNtCs9f3LFPSIp77_4core3ops4drop4Drop4dropCs3RXxJlnd5m8_14zerovec_derive, symObjAddr: 0x24D0, symBinAddr: 0x2C70C, symSize: 0x118 }
  - { offset: 0x7FA8B, size: 0x8, addend: 0x0, symName: __RNvXs6_NtCsdze8u8oDPro_5alloc5boxedINtB5_3BoxINtNtCsATtFUPiRFW_3syn5drops6NoDropDINtNtBM_10punctuated9IterTraitNtNtBM_4path15GenericArgumentEp4ItemRB1L_EL_EENtNtNtCs9f3LFPSIp77_4core3ops4drop4Drop4dropCs3RXxJlnd5m8_14zerovec_derive, symObjAddr: 0x25E8, symBinAddr: 0x2C824, symSize: 0x118 }
  - { offset: 0x7FC09, size: 0x8, addend: 0x0, symName: __RNvXs6_NtCsdze8u8oDPro_5alloc5boxedINtB5_3BoxNtCs475r2uZUTuc_11proc_macro25IdentENtNtNtCs9f3LFPSIp77_4core3ops4drop4Drop4dropCs3RXxJlnd5m8_14zerovec_derive, symObjAddr: 0x2700, symBinAddr: 0x2C93C, symSize: 0xB0 }
  - { offset: 0x7FD87, size: 0x8, addend: 0x0, symName: __RNvXs6_NtCsdze8u8oDPro_5alloc5boxedINtB5_3BoxNtNtNtCs27l1GJC5rMQ_3std2io5error6CustomENtNtNtCs9f3LFPSIp77_4core3ops4drop4Drop4dropCs3RXxJlnd5m8_14zerovec_derive, symObjAddr: 0x27B0, symBinAddr: 0x2C9EC, symSize: 0xB0 }
  - { offset: 0x7FF3A, size: 0x8, addend: 0x0, symName: __RINvMNtCs9f3LFPSIp77_4core6optionINtB3_6OptionRINtNtCsdze8u8oDPro_5alloc5boxed3BoxNtCs475r2uZUTuc_11proc_macro25IdentEE3mapRB1i_NvYBJ_INtNtB5_7convert5AsRefB1i_E6as_refECs3RXxJlnd5m8_14zerovec_derive, symObjAddr: 0x0, symBinAddr: 0x2A264, symSize: 0x50 }
  - { offset: 0x84E93, size: 0x8, addend: 0x0, symName: __RNvXsh_NtCsATtFUPiRFW_3syn5parseNvYNtNtB7_6derive11DeriveInputNtNtB7_11parse_quote10ParseQuote5parseNtB5_6Parser6parse2Cs3RXxJlnd5m8_14zerovec_derive, symObjAddr: 0x33C4, symBinAddr: 0x2D600, symSize: 0x36C }
  - { offset: 0x850CC, size: 0x8, addend: 0x0, symName: __RINvNtCsATtFUPiRFW_3syn11parse_quote5parseNtNtB4_6derive11DeriveInputECs3RXxJlnd5m8_14zerovec_derive, symObjAddr: 0xD0C, symBinAddr: 0x2AF70, symSize: 0xD0 }
  - { offset: 0x85130, size: 0x8, addend: 0x0, symName: __RINvNvNtCsATtFUPiRFW_3syn11parse_quote5parse18panic_cold_displayNtNtB6_5error5ErrorECs3RXxJlnd5m8_14zerovec_derive, symObjAddr: 0xDDC, symBinAddr: 0x2A80E4, symSize: 0x28 }
  - { offset: 0x8516D, size: 0x8, addend: 0x0, symName: __RNvXNtCsATtFUPiRFW_3syn7spannedNtNtB4_4attr9AttributeNtB2_7Spanned4spanCs3RXxJlnd5m8_14zerovec_derive, symObjAddr: 0x1984, symBinAddr: 0x2BBC0, symSize: 0x34 }
  - { offset: 0x851A2, size: 0x8, addend: 0x0, symName: __RNvXNtCsATtFUPiRFW_3syn7spannedNtNtB4_4data5FieldNtB2_7Spanned4spanCs3RXxJlnd5m8_14zerovec_derive, symObjAddr: 0x19B8, symBinAddr: 0x2BBF4, symSize: 0x34 }
  - { offset: 0x851D7, size: 0x8, addend: 0x0, symName: __RNvXNtCsATtFUPiRFW_3syn7spannedNtNtB4_4data7VariantNtB2_7Spanned4spanCs3RXxJlnd5m8_14zerovec_derive, symObjAddr: 0x19EC, symBinAddr: 0x2BC28, symSize: 0x34 }
  - { offset: 0x8520C, size: 0x8, addend: 0x0, symName: __RNvXNtCsATtFUPiRFW_3syn7spannedRNtNtB4_4data5FieldNtB2_7Spanned4spanCs3RXxJlnd5m8_14zerovec_derive, symObjAddr: 0x1A20, symBinAddr: 0x2BC5C, symSize: 0x34 }
  - { offset: 0x85413, size: 0x8, addend: 0x0, symName: __RINvMNtCs9f3LFPSIp77_4core6optionINtB3_6OptionRNtCs475r2uZUTuc_11proc_macro25IdentE7or_elseNCNvXsw_NtCsATtFUPiRFW_3syn10punctuatedINtB1z_11PrivateIterBJ_NtNtB1B_5token5CommaENtNtNtNtB5_4iter6traits8iterator8Iterator4nexts_0ECs3RXxJlnd5m8_14zerovec_derive, symObjAddr: 0x50, symBinAddr: 0x2A2B4, symSize: 0xA8 }
  - { offset: 0x854CE, size: 0x8, addend: 0x0, symName: __RINvMNtCs9f3LFPSIp77_4core6optionINtB3_6OptionRNtCs475r2uZUTuc_11proc_macro25IdentE7or_elseNCNvXsx_NtCsATtFUPiRFW_3syn10punctuatedINtB1z_11PrivateIterBJ_NtNtB1B_5token5CommaENtNtNtNtB5_4iter6traits12double_ended19DoubleEndedIterator9next_back0ECs3RXxJlnd5m8_14zerovec_derive, symObjAddr: 0xF8, symBinAddr: 0x2A35C, symSize: 0xA8 }
  - { offset: 0x85A20, size: 0x8, addend: 0x0, symName: __RINvMNtCs9f3LFPSIp77_4core6optionINtB3_6OptionRNtNtCsATtFUPiRFW_3syn4data7VariantE7or_elseNCNvXsw_NtBN_10punctuatedINtB1y_11PrivateIterBJ_NtNtBN_5token5CommaENtNtNtNtB5_4iter6traits8iterator8Iterator4nexts_0ECs3RXxJlnd5m8_14zerovec_derive, symObjAddr: 0x1A0, symBinAddr: 0x2A404, symSize: 0xA8 }
  - { offset: 0x85AA9, size: 0x8, addend: 0x0, symName: __RINvMNtCs9f3LFPSIp77_4core6optionINtB3_6OptionRNtNtCsATtFUPiRFW_3syn4data7VariantE7or_elseNCNvXsx_NtBN_10punctuatedINtB1y_11PrivateIterBJ_NtNtBN_5token5CommaENtNtNtNtB5_4iter6traits12double_ended19DoubleEndedIterator9next_back0ECs3RXxJlnd5m8_14zerovec_derive, symObjAddr: 0x248, symBinAddr: 0x2A4AC, symSize: 0xA8 }
  - { offset: 0x85B25, size: 0x8, addend: 0x0, symName: __RINvMNtCs9f3LFPSIp77_4core6optionINtB3_6OptionRNtNtCsATtFUPiRFW_3syn4path15GenericArgumentE7or_elseNCNvXsw_NtBN_10punctuatedINtB1H_11PrivateIterBJ_NtNtBN_5token5CommaENtNtNtNtB5_4iter6traits8iterator8Iterator4nexts_0ECs3RXxJlnd5m8_14zerovec_derive, symObjAddr: 0x2F0, symBinAddr: 0x2A554, symSize: 0xA8 }
  - { offset: 0x85BAE, size: 0x8, addend: 0x0, symName: __RINvMNtCs9f3LFPSIp77_4core6optionINtB3_6OptionRNtNtCsATtFUPiRFW_3syn4path15GenericArgumentE7or_elseNCNvXsx_NtBN_10punctuatedINtB1H_11PrivateIterBJ_NtNtBN_5token5CommaENtNtNtNtB5_4iter6traits12double_ended19DoubleEndedIterator9next_back0ECs3RXxJlnd5m8_14zerovec_derive, symObjAddr: 0x398, symBinAddr: 0x2A5FC, symSize: 0xA8 }
  - { offset: 0x85C65, size: 0x8, addend: 0x0, symName: __RINvMNtCs9f3LFPSIp77_4core6optionINtB3_6OptionRNtNtCsATtFUPiRFW_3syn8generics13LifetimeParamE3mapRNtNtBN_8lifetime8LifetimeNCNvNtCs3RXxJlnd5m8_14zerovec_derive11make_varule16make_varule_impl0EB23_, symObjAddr: 0x440, symBinAddr: 0x2A6A4, symSize: 0x50 }
  - { offset: 0x85CDD, size: 0x8, addend: 0x0, symName: __RINvMNtCs9f3LFPSIp77_4core6optionINtB3_6OptionRRNtNtCsATtFUPiRFW_3syn8lifetime8LifetimeE3mapNtCs475r2uZUTuc_11proc_macro211TokenStreamNCNvNtCs3RXxJlnd5m8_14zerovec_derive11make_varule16make_varule_impls_0EB2e_, symObjAddr: 0x490, symBinAddr: 0x2A6F4, symSize: 0x6C }
  - { offset: 0x85D48, size: 0x8, addend: 0x0, symName: __RINvMNtCs9f3LFPSIp77_4core6optionINtB3_6OptionRTNtCs475r2uZUTuc_11proc_macro25IdentNtNtCsATtFUPiRFW_3syn5token5CommaEE3mapRBK_NCNCNvXsx_NtB1n_10punctuatedINtB2a_11PrivateIterBK_B1j_ENtNtNtNtB5_4iter6traits12double_ended19DoubleEndedIterator9next_back00ECs3RXxJlnd5m8_14zerovec_derive, symObjAddr: 0x4FC, symBinAddr: 0x2A760, symSize: 0x50 }
  - { offset: 0x85DB3, size: 0x8, addend: 0x0, symName: __RINvMNtCs9f3LFPSIp77_4core6optionINtB3_6OptionRTNtCs475r2uZUTuc_11proc_macro25IdentNtNtCsATtFUPiRFW_3syn5token5CommaEE3mapRBK_NCNvXsw_NtB1n_10punctuatedINtB28_11PrivateIterBK_B1j_ENtNtNtNtB5_4iter6traits8iterator8Iterator4next0ECs3RXxJlnd5m8_14zerovec_derive, symObjAddr: 0x54C, symBinAddr: 0x2A7B0, symSize: 0x50 }
  - { offset: 0x85E1E, size: 0x8, addend: 0x0, symName: __RINvMNtCs9f3LFPSIp77_4core6optionINtB3_6OptionRTNtNtCsATtFUPiRFW_3syn4data7VariantNtNtBO_5token5CommaEE3mapRBK_NCNCNvXsx_NtBO_10punctuatedINtB1V_11PrivateIterBK_B1i_ENtNtNtNtB5_4iter6traits12double_ended19DoubleEndedIterator9next_back00ECs3RXxJlnd5m8_14zerovec_derive, symObjAddr: 0x59C, symBinAddr: 0x2A800, symSize: 0x50 }
  - { offset: 0x85E89, size: 0x8, addend: 0x0, symName: __RINvMNtCs9f3LFPSIp77_4core6optionINtB3_6OptionRTNtNtCsATtFUPiRFW_3syn4data7VariantNtNtBO_5token5CommaEE3mapRBK_NCNvXsw_NtBO_10punctuatedINtB1T_11PrivateIterBK_B1i_ENtNtNtNtB5_4iter6traits8iterator8Iterator4next0ECs3RXxJlnd5m8_14zerovec_derive, symObjAddr: 0x5EC, symBinAddr: 0x2A850, symSize: 0x50 }
  - { offset: 0x85EF4, size: 0x8, addend: 0x0, symName: __RINvMNtCs9f3LFPSIp77_4core6optionINtB3_6OptionRTNtNtCsATtFUPiRFW_3syn4path15GenericArgumentNtNtBO_5token5CommaEE3mapRBK_NCNCNvXsx_NtBO_10punctuatedINtB24_11PrivateIterBK_B1r_ENtNtNtNtB5_4iter6traits12double_ended19DoubleEndedIterator9next_back00ECs3RXxJlnd5m8_14zerovec_derive, symObjAddr: 0x63C, symBinAddr: 0x2A8A0, symSize: 0x50 }
  - { offset: 0x85F5F, size: 0x8, addend: 0x0, symName: __RINvMNtCs9f3LFPSIp77_4core6optionINtB3_6OptionRTNtNtCsATtFUPiRFW_3syn4path15GenericArgumentNtNtBO_5token5CommaEE3mapRBK_NCNvXsw_NtBO_10punctuatedINtB22_11PrivateIterBK_B1r_ENtNtNtNtB5_4iter6traits8iterator8Iterator4next0ECs3RXxJlnd5m8_14zerovec_derive, symObjAddr: 0x68C, symBinAddr: 0x2A8F0, symSize: 0x50 }
  - { offset: 0x85FD7, size: 0x8, addend: 0x0, symName: __RINvMNtCsATtFUPiRFW_3syn4attrNtB3_9Attribute10parse_argsNtNtCs3RXxJlnd5m8_14zerovec_derive5utils18IdentListAttributeEBW_, symObjAddr: 0x6DC, symBinAddr: 0x2A940, symSize: 0x34 }
  - { offset: 0x8624E, size: 0x8, addend: 0x0, symName: __RINvMNtCsATtFUPiRFW_3syn4attrNtB3_9Attribute15parse_args_withNvYNtNtCs3RXxJlnd5m8_14zerovec_derive5utils18IdentListAttributeNtNtB5_5parse5Parse5parseEB14_, symObjAddr: 0x710, symBinAddr: 0x2A974, symSize: 0x404 }
  - { offset: 0x864BF, size: 0x8, addend: 0x0, symName: __RINvMs0_NtCsATtFUPiRFW_3syn4attrNtB6_8MetaList15parse_args_withNvYNtNtCs3RXxJlnd5m8_14zerovec_derive5utils18IdentListAttributeNtNtB8_5parse5Parse5parseEB16_, symObjAddr: 0xB14, symBinAddr: 0x2AD78, symSize: 0xF0 }
  - { offset: 0x86989, size: 0x8, addend: 0x0, symName: __RNvXCscXJUXcj6jCz_9hashbrownyINtB2_10EquivalentyE10equivalentCs3RXxJlnd5m8_14zerovec_derive, symObjAddr: 0x18B4, symBinAddr: 0x2BAF0, symSize: 0x50 }
  - { offset: 0x86AAD, size: 0x8, addend: 0x0, symName: __RINvMs0_NtNtNtCs27l1GJC5rMQ_3std11collections4hash3setINtB6_7HashSetyE6removeyECs3RXxJlnd5m8_14zerovec_derive, symObjAddr: 0xC04, symBinAddr: 0x2AE68, symSize: 0x70 }
  - { offset: 0x86CAA, size: 0x8, addend: 0x0, symName: __RNvMNtCs9f3LFPSIp77_4core6optionINtB2_6OptionINtNtB4_4cell4CellTyyEEE4takeCs3RXxJlnd5m8_14zerovec_derive, symObjAddr: 0xE5C, symBinAddr: 0x2B098, symSize: 0x3C }
  - { offset: 0x86D63, size: 0x8, addend: 0x0, symName: __RNvMNtCs9f3LFPSIp77_4core6optionINtB2_6OptionINtNtCsdze8u8oDPro_5alloc5boxed3BoxNtCs475r2uZUTuc_11proc_macro25IdentEE4takeCs3RXxJlnd5m8_14zerovec_derive, symObjAddr: 0xE98, symBinAddr: 0x2B0D4, symSize: 0x2C }
  - { offset: 0x86E1C, size: 0x8, addend: 0x0, symName: __RNvMNtCs9f3LFPSIp77_4core6optionINtB2_6OptionINtNtCsdze8u8oDPro_5alloc5boxed3BoxNtCs475r2uZUTuc_11proc_macro25IdentEE6as_refCs3RXxJlnd5m8_14zerovec_derive, symObjAddr: 0xEC4, symBinAddr: 0x2B100, symSize: 0x4C }
  - { offset: 0x86E82, size: 0x8, addend: 0x0, symName: __RNvMNtCs9f3LFPSIp77_4core6optionINtB2_6OptionINtNtCsdze8u8oDPro_5alloc5boxed3BoxNtCs475r2uZUTuc_11proc_macro25IdentEE7is_noneCs3RXxJlnd5m8_14zerovec_derive, symObjAddr: 0xF10, symBinAddr: 0x2B14C, symSize: 0x4C }
  - { offset: 0x86ECC, size: 0x8, addend: 0x0, symName: __RNvMNtCs9f3LFPSIp77_4core6optionINtB2_6OptionINtNtCsdze8u8oDPro_5alloc5boxed3BoxNtCs475r2uZUTuc_11proc_macro25IdentEE7is_someCs3RXxJlnd5m8_14zerovec_derive, symObjAddr: 0xF5C, symBinAddr: 0x2B198, symSize: 0x48 }
  - { offset: 0x86F21, size: 0x8, addend: 0x0, symName: __RNvMNtCs9f3LFPSIp77_4core6optionINtB2_6OptionNtCs475r2uZUTuc_11proc_macro25IdentE7is_noneCs3RXxJlnd5m8_14zerovec_derive, symObjAddr: 0xFA4, symBinAddr: 0x2B1E0, symSize: 0x4C }
  - { offset: 0x86F6B, size: 0x8, addend: 0x0, symName: __RNvMNtCs9f3LFPSIp77_4core6optionINtB2_6OptionNtCs475r2uZUTuc_11proc_macro25IdentE7is_someCs3RXxJlnd5m8_14zerovec_derive, symObjAddr: 0xFF0, symBinAddr: 0x2B22C, symSize: 0x48 }
  - { offset: 0x86FCD, size: 0x8, addend: 0x0, symName: __RNvMNtCs9f3LFPSIp77_4core6optionINtB2_6OptionRNtNtCsATtFUPiRFW_3syn2ty4TypeE7is_noneCs3RXxJlnd5m8_14zerovec_derive, symObjAddr: 0x1038, symBinAddr: 0x2B274, symSize: 0x4C }
  - { offset: 0x87024, size: 0x8, addend: 0x0, symName: __RNvMNtCs9f3LFPSIp77_4core6optionINtB2_6OptionRNtNtCsATtFUPiRFW_3syn4data5FieldE6expectCs3RXxJlnd5m8_14zerovec_derive, symObjAddr: 0x1084, symBinAddr: 0x2B2C0, symSize: 0x5C }
  - { offset: 0x87088, size: 0x8, addend: 0x0, symName: __RNvMNtCs9f3LFPSIp77_4core6optionINtB2_6OptionRNtNtCsATtFUPiRFW_3syn4data5FieldE7is_noneCs3RXxJlnd5m8_14zerovec_derive, symObjAddr: 0x10E0, symBinAddr: 0x2B31C, symSize: 0x4C }
  - { offset: 0x870EC, size: 0x8, addend: 0x0, symName: __RNvMNtCs9f3LFPSIp77_4core6optionINtB2_6OptionRNtNtCsATtFUPiRFW_3syn8generics10ConstParamE7is_someCs3RXxJlnd5m8_14zerovec_derive, symObjAddr: 0x112C, symBinAddr: 0x2B368, symSize: 0x48 }
  - { offset: 0x87125, size: 0x8, addend: 0x0, symName: __RNvMNtCs9f3LFPSIp77_4core6optionINtB2_6OptionRNtNtCsATtFUPiRFW_3syn8generics13LifetimeParamE7is_someCs3RXxJlnd5m8_14zerovec_derive, symObjAddr: 0x1174, symBinAddr: 0x2B3B0, symSize: 0x48 }
  - { offset: 0x8716B, size: 0x8, addend: 0x0, symName: __RNvMNtCs9f3LFPSIp77_4core6optionINtB2_6OptionRNtNtCsATtFUPiRFW_3syn8generics9TypeParamE7is_someCs3RXxJlnd5m8_14zerovec_derive, symObjAddr: 0x11BC, symBinAddr: 0x2B3F8, symSize: 0x48 }
  - { offset: 0x871A4, size: 0x8, addend: 0x0, symName: __RNvMNtCs9f3LFPSIp77_4core6optionINtB2_6OptionRNtNtCsATtFUPiRFW_3syn8lifetime8LifetimeE6as_refCs3RXxJlnd5m8_14zerovec_derive, symObjAddr: 0x1204, symBinAddr: 0x2B440, symSize: 0x4C }
  - { offset: 0x8720A, size: 0x8, addend: 0x0, symName: __RNvMNtCs9f3LFPSIp77_4core6optionINtB2_6OptionRNtNtCsATtFUPiRFW_3syn8lifetime8LifetimeE7is_noneCs3RXxJlnd5m8_14zerovec_derive, symObjAddr: 0x1250, symBinAddr: 0x2B48C, symSize: 0x4C }
  - { offset: 0x87254, size: 0x8, addend: 0x0, symName: __RNvMNtCs9f3LFPSIp77_4core6optionINtB2_6OptionRNtNtCsATtFUPiRFW_3syn8lifetime8LifetimeE7is_someCs3RXxJlnd5m8_14zerovec_derive, symObjAddr: 0x129C, symBinAddr: 0x2B4D8, symSize: 0x48 }
  - { offset: 0x87280, size: 0x8, addend: 0x0, symName: __RNvMNtNtNtCs27l1GJC5rMQ_3std11collections4hash3setINtB2_7HashSetyE3newCs3RXxJlnd5m8_14zerovec_derive, symObjAddr: 0x12E4, symBinAddr: 0x2B520, symSize: 0x54 }
  - { offset: 0x872C7, size: 0x8, addend: 0x0, symName: __RNvMs0_NtCs9f3LFPSIp77_4core6optionINtB5_6OptionRNtCs475r2uZUTuc_11proc_macro25IdentE6clonedCs3RXxJlnd5m8_14zerovec_derive, symObjAddr: 0x1338, symBinAddr: 0x2B574, symSize: 0x6C }
  - { offset: 0x8731E, size: 0x8, addend: 0x0, symName: __RNvMs0_NtNtCs9f3LFPSIp77_4core4hash3sipINtB5_6HasherNtB5_11Sip13RoundsE5resetCs3RXxJlnd5m8_14zerovec_derive, symObjAddr: 0x13A4, symBinAddr: 0x2B5E0, symSize: 0x8C }
  - { offset: 0x873BB, size: 0x8, addend: 0x0, symName: __RNvMs0_NtNtNtCs27l1GJC5rMQ_3std11collections4hash3setINtB5_7HashSetyE6insertCs3RXxJlnd5m8_14zerovec_derive, symObjAddr: 0x1430, symBinAddr: 0x2B66C, symSize: 0x70 }
  - { offset: 0x87518, size: 0x8, addend: 0x0, symName: __RNvMs_NtNtNtCs27l1GJC5rMQ_3std11collections4hash3setINtB4_7HashSetyE4iterCs3RXxJlnd5m8_14zerovec_derive, symObjAddr: 0x14A0, symBinAddr: 0x2B6DC, symSize: 0x80 }
  - { offset: 0x87635, size: 0x8, addend: 0x0, symName: __RNvXNtCs62MdaZFMefA_5quote9to_tokensRINtNtCs9f3LFPSIp77_4core6option6OptionNtCs475r2uZUTuc_11proc_macro211TokenStreamENtB2_8ToTokens9to_tokensCs3RXxJlnd5m8_14zerovec_derive, symObjAddr: 0x1904, symBinAddr: 0x2BB40, symSize: 0x40 }
  - { offset: 0x87674, size: 0x8, addend: 0x0, symName: __RNvXNtCs62MdaZFMefA_5quote9to_tokensRRNtNtCsATtFUPiRFW_3syn4data5FieldNtB2_8ToTokens9to_tokensCs3RXxJlnd5m8_14zerovec_derive, symObjAddr: 0x1944, symBinAddr: 0x2BB80, symSize: 0x40 }
  - { offset: 0x876B9, size: 0x8, addend: 0x0, symName: __RNvXs3_NtCs62MdaZFMefA_5quote9to_tokensINtNtCs9f3LFPSIp77_4core6option6OptionNtCs475r2uZUTuc_11proc_macro211TokenStreamENtB5_8ToTokens9to_tokensCs3RXxJlnd5m8_14zerovec_derive, symObjAddr: 0x1CE0, symBinAddr: 0x2BF1C, symSize: 0x88 }
  - { offset: 0x8771B, size: 0x8, addend: 0x0, symName: __RNvYRNtNtCsATtFUPiRFW_3syn4attr9AttributeNtNtCs62MdaZFMefA_5quote9to_tokens8ToTokens15to_token_streamCs3RXxJlnd5m8_14zerovec_derive, symObjAddr: 0x3E0C, symBinAddr: 0x2E048, symSize: 0x8C }
  - { offset: 0x87765, size: 0x8, addend: 0x0, symName: __RNvYRNtNtCsATtFUPiRFW_3syn4attr9AttributeNtNtCs62MdaZFMefA_5quote9to_tokens8ToTokens17into_token_streamCs3RXxJlnd5m8_14zerovec_derive, symObjAddr: 0x3E98, symBinAddr: 0x2E0D4, symSize: 0x54 }
  - { offset: 0x8779A, size: 0x8, addend: 0x0, symName: __RNvYRNtNtCsATtFUPiRFW_3syn4data5FieldNtNtCs62MdaZFMefA_5quote9to_tokens8ToTokens15to_token_streamCs3RXxJlnd5m8_14zerovec_derive, symObjAddr: 0x3EEC, symBinAddr: 0x2E128, symSize: 0x8C }
  - { offset: 0x877E4, size: 0x8, addend: 0x0, symName: __RNvYRNtNtCsATtFUPiRFW_3syn4data5FieldNtNtCs62MdaZFMefA_5quote9to_tokens8ToTokens17into_token_streamCs3RXxJlnd5m8_14zerovec_derive, symObjAddr: 0x3F78, symBinAddr: 0x2E1B4, symSize: 0x54 }
  - { offset: 0x87819, size: 0x8, addend: 0x0, symName: __RNvYRNtNtCsATtFUPiRFW_3syn4data7VariantNtNtCs62MdaZFMefA_5quote9to_tokens8ToTokens15to_token_streamCs3RXxJlnd5m8_14zerovec_derive, symObjAddr: 0x3FCC, symBinAddr: 0x2E208, symSize: 0x8C }
  - { offset: 0x87863, size: 0x8, addend: 0x0, symName: __RNvYRNtNtCsATtFUPiRFW_3syn4data7VariantNtNtCs62MdaZFMefA_5quote9to_tokens8ToTokens17into_token_streamCs3RXxJlnd5m8_14zerovec_derive, symObjAddr: 0x4058, symBinAddr: 0x2E294, symSize: 0x54 }
  - { offset: 0x87898, size: 0x8, addend: 0x0, symName: __RNvYRRNtNtCsATtFUPiRFW_3syn4data5FieldNtNtCs62MdaZFMefA_5quote9to_tokens8ToTokens15to_token_streamCs3RXxJlnd5m8_14zerovec_derive, symObjAddr: 0x40AC, symBinAddr: 0x2E2E8, symSize: 0x8C }
  - { offset: 0x878E2, size: 0x8, addend: 0x0, symName: __RNvYRRNtNtCsATtFUPiRFW_3syn4data5FieldNtNtCs62MdaZFMefA_5quote9to_tokens8ToTokens17into_token_streamCs3RXxJlnd5m8_14zerovec_derive, symObjAddr: 0x4138, symBinAddr: 0x2E374, symSize: 0x54 }
  - { offset: 0x87923, size: 0x8, addend: 0x0, symName: __RNvXs0_NtCs62MdaZFMefA_5quote7spannedNtNtCsATtFUPiRFW_3syn4attr9AttributeNtB5_7Spanned6___spanCs3RXxJlnd5m8_14zerovec_derive, symObjAddr: 0x1A54, symBinAddr: 0x2BC90, symSize: 0x44 }
  - { offset: 0x87958, size: 0x8, addend: 0x0, symName: __RNvXs0_NtCs62MdaZFMefA_5quote7spannedNtNtCsATtFUPiRFW_3syn4data5FieldNtB5_7Spanned6___spanCs3RXxJlnd5m8_14zerovec_derive, symObjAddr: 0x1A98, symBinAddr: 0x2BCD4, symSize: 0x44 }
  - { offset: 0x8798D, size: 0x8, addend: 0x0, symName: __RNvXs0_NtCs62MdaZFMefA_5quote7spannedNtNtCsATtFUPiRFW_3syn4data7VariantNtB5_7Spanned6___spanCs3RXxJlnd5m8_14zerovec_derive, symObjAddr: 0x1ADC, symBinAddr: 0x2BD18, symSize: 0x44 }
  - { offset: 0x879C2, size: 0x8, addend: 0x0, symName: __RNvXs0_NtCs62MdaZFMefA_5quote7spannedRNtNtCsATtFUPiRFW_3syn4data5FieldNtB5_7Spanned6___spanCs3RXxJlnd5m8_14zerovec_derive, symObjAddr: 0x1B20, symBinAddr: 0x2BD5C, symSize: 0x44 }
  - { offset: 0x887F5, size: 0x8, addend: 0x0, symName: __RINvMs0_NtNtNtNtCs27l1GJC5rMQ_3std3sys12thread_local6native4lazyINtB6_7StorageINtNtCs9f3LFPSIp77_4core4cell4CellTyyEEzE10initializeNvNvNvMNtNtBe_4hash6randomNtB2c_11RandomState3new4KEYS6___initECs3RXxJlnd5m8_14zerovec_derive, symObjAddr: 0x0, symBinAddr: 0x2A810C, symSize: 0x25C }
  - { offset: 0x8AE85, size: 0x8, addend: 0x0, symName: __RNvNvMs1_NtNtCs9f3LFPSIp77_4core3ptr8non_nullINtB7_7NonNullpE13new_unchecked18precondition_checkCs3RXxJlnd5m8_14zerovec_derive, symObjAddr: 0xF20, symBinAddr: 0x2F08C, symSize: 0x40 }
  - { offset: 0x8B741, size: 0x8, addend: 0x0, symName: __RINvNtCs9f3LFPSIp77_4core10intrinsics10typed_swapNtNtCscXJUXcj6jCz_9hashbrown3raw13RawTableInnerECs3RXxJlnd5m8_14zerovec_derive, symObjAddr: 0x3E8, symBinAddr: 0x2E554, symSize: 0x3C }
  - { offset: 0x8B7BE, size: 0x8, addend: 0x0, symName: __RNvNtCs9f3LFPSIp77_4core10intrinsics6likelyCs3RXxJlnd5m8_14zerovec_derive, symObjAddr: 0xDFC, symBinAddr: 0x2EF68, symSize: 0x10 }
  - { offset: 0x8B7EC, size: 0x8, addend: 0x0, symName: __RNvNtCs9f3LFPSIp77_4core10intrinsics8unlikelyCs3RXxJlnd5m8_14zerovec_derive, symObjAddr: 0xE0C, symBinAddr: 0x2EF78, symSize: 0x10 }
  - { offset: 0x8B81F, size: 0x8, addend: 0x0, symName: __RNvNvNtCs9f3LFPSIp77_4core10intrinsics19copy_nonoverlapping18precondition_checkCs3RXxJlnd5m8_14zerovec_derive, symObjAddr: 0xF60, symBinAddr: 0x2F0CC, symSize: 0x1EC }
  - { offset: 0x8BA70, size: 0x8, addend: 0x0, symName: __RNvNvNtCs9f3LFPSIp77_4core10intrinsics4copy18precondition_checkCs3RXxJlnd5m8_14zerovec_derive, symObjAddr: 0x114C, symBinAddr: 0x2F2B8, symSize: 0x1A8 }
  - { offset: 0x8BC69, size: 0x8, addend: 0x0, symName: __RINvNtNtNtCs9f3LFPSIp77_4core9core_arch10arm_shared4neon13vget_lane_u64Kl0_ECs3RXxJlnd5m8_14zerovec_derive, symObjAddr: 0x424, symBinAddr: 0x2E590, symSize: 0x18 }
  - { offset: 0x8BCE3, size: 0x8, addend: 0x0, symName: __RNvNtNtNtCs9f3LFPSIp77_4core9core_arch10arm_shared4neon9vdup_n_u8Cs3RXxJlnd5m8_14zerovec_derive, symObjAddr: 0xE1C, symBinAddr: 0x2EF88, symSize: 0x34 }
  - { offset: 0x8BDD3, size: 0x8, addend: 0x0, symName: __RNvNtNtNtNtCs9f3LFPSIp77_4core9core_arch7aarch644neon9generated8vcgez_s8Cs3RXxJlnd5m8_14zerovec_derive, symObjAddr: 0xE50, symBinAddr: 0x2EFBC, symSize: 0x68 }
  - { offset: 0x8BE75, size: 0x8, addend: 0x0, symName: __RNvNtNtNtNtCs9f3LFPSIp77_4core9core_arch7aarch644neon9generated8vcltz_s8Cs3RXxJlnd5m8_14zerovec_derive, symObjAddr: 0xEB8, symBinAddr: 0x2F024, symSize: 0x68 }
  - { offset: 0x8C0E6, size: 0x8, addend: 0x0, symName: __RNvMNtCs9f3LFPSIp77_4core5sliceSh15copy_from_sliceCs3RXxJlnd5m8_14zerovec_derive, symObjAddr: 0x7D8, symBinAddr: 0x2E944, symSize: 0xA4 }
  - { offset: 0x8C200, size: 0x8, addend: 0x0, symName: __RNvNvXs0_NtNtCs9f3LFPSIp77_4core5slice5indexjINtB7_10SliceIndexSpE13get_unchecked18precondition_checkCs3RXxJlnd5m8_14zerovec_derive, symObjAddr: 0x13D8, symBinAddr: 0x2F544, symSize: 0x40 }
  - { offset: 0x8C237, size: 0x8, addend: 0x0, symName: __RNvXs0_NtNtCs9f3LFPSIp77_4core5slice5indexjINtB5_10SliceIndexSINtNtB9_6option6OptionNtCs475r2uZUTuc_11proc_macro25IdentEE5indexCs3RXxJlnd5m8_14zerovec_derive, symObjAddr: 0x1418, symBinAddr: 0x2F584, symSize: 0x64 }
  - { offset: 0x8C27D, size: 0x8, addend: 0x0, symName: __RNvXs0_NtNtCs9f3LFPSIp77_4core5slice5indexjINtB5_10SliceIndexSNtCs475r2uZUTuc_11proc_macro25IdentE5indexCs3RXxJlnd5m8_14zerovec_derive, symObjAddr: 0x147C, symBinAddr: 0x2F5E8, symSize: 0x64 }
  - { offset: 0x8C2C3, size: 0x8, addend: 0x0, symName: __RNvXs0_NtNtCs9f3LFPSIp77_4core5slice5indexjINtB5_10SliceIndexSNtNtCs3RXxJlnd5m8_14zerovec_derive11make_varule12UnsizedFieldE5indexB12_, symObjAddr: 0x14E0, symBinAddr: 0x2F64C, symSize: 0x64 }
  - { offset: 0x8C309, size: 0x8, addend: 0x0, symName: __RNvXs0_NtNtCs9f3LFPSIp77_4core5slice5indexjINtB5_10SliceIndexSNtNtCsATtFUPiRFW_3syn4attr9AttributeE5indexCs3RXxJlnd5m8_14zerovec_derive, symObjAddr: 0x1544, symBinAddr: 0x2F6B0, symSize: 0x5C }
  - { offset: 0x8C401, size: 0x8, addend: 0x0, symName: __RNvXs_NtNtNtCs9f3LFPSIp77_4core4iter8adapters6clonedINtB4_6ClonedINtNtCsATtFUPiRFW_3syn10punctuated4IterNtCs475r2uZUTuc_11proc_macro25IdentEENtNtNtB8_6traits8iterator8Iterator4nextCs3RXxJlnd5m8_14zerovec_derive, symObjAddr: 0x185C, symBinAddr: 0x2F9C8, symSize: 0x78 }
  - { offset: 0x8C472, size: 0x8, addend: 0x0, symName: __RNvXs_NtNtNtCs9f3LFPSIp77_4core4iter8adapters6clonedINtB4_6ClonedINtNtCsATtFUPiRFW_3syn10punctuated4IterNtCs475r2uZUTuc_11proc_macro25IdentEENtNtNtB8_6traits8iterator8Iterator9size_hintCs3RXxJlnd5m8_14zerovec_derive, symObjAddr: 0x18D4, symBinAddr: 0x2FA40, symSize: 0x24 }
  - { offset: 0x8C519, size: 0x8, addend: 0x0, symName: __RNvXs_NtNtNtCs9f3LFPSIp77_4core4iter6traits7collectINtNtNtB8_8adapters6cloned6ClonedINtNtCsATtFUPiRFW_3syn10punctuated4IterNtCs475r2uZUTuc_11proc_macro25IdentEENtB4_12IntoIterator9into_iterCs3RXxJlnd5m8_14zerovec_derive, symObjAddr: 0x1840, symBinAddr: 0x2F9AC, symSize: 0x1C }
  - { offset: 0x8C598, size: 0x8, addend: 0x0, symName: __RNvXs2_NtNtNtCs9f3LFPSIp77_4core3ops8function5implsQNCNvNtCs3RXxJlnd5m8_14zerovec_derive6varule11derive_impl0INtB7_6FnOnceTRNtNtBU_5utils9FieldInfoEE9call_onceBU_, symObjAddr: 0x15C8, symBinAddr: 0x2F734, symSize: 0x2C }
  - { offset: 0x8C786, size: 0x8, addend: 0x0, symName: __RNvNvNtCs9f3LFPSIp77_4core9ub_checks17is_nonoverlapping7runtimeCs3RXxJlnd5m8_14zerovec_derive, symObjAddr: 0x12F4, symBinAddr: 0x2F460, symSize: 0xE4 }
  - { offset: 0x8C937, size: 0x8, addend: 0x0, symName: __RNvXs1_NtCs9f3LFPSIp77_4core7convertReINtB5_4IntoNtNtCsdze8u8oDPro_5alloc6string6StringE4intoCs3RXxJlnd5m8_14zerovec_derive, symObjAddr: 0x15A0, symBinAddr: 0x2F70C, symSize: 0x28 }
  - { offset: 0x8D746, size: 0x8, addend: 0x0, symName: __RINvXNtNtNtNtCs27l1GJC5rMQ_3std3sys12thread_local6native4lazyzNtB3_14DestroyedState13register_dtorINtNtCs9f3LFPSIp77_4core4cell4CellTyyEEECs3RXxJlnd5m8_14zerovec_derive, symObjAddr: 0x75C, symBinAddr: 0x2E8C8, symSize: 0x10 }
  - { offset: 0x8D7AF, size: 0x8, addend: 0x0, symName: __RINvNvNtCs27l1GJC5rMQ_3std9panicking3try7do_callINtNtNtCs9f3LFPSIp77_4core5panic11unwind_safe16AssertUnwindSafeNCINvNtNtCsjLJ1XWNSM6u_10proc_macro6bridge6client10run_clientNtB1Q_11TokenStreamINtNtBR_6option6OptionB2K_ENCNCINvMs7_B1Q_INtB1Q_6ClientNtB1U_11TokenStreamB3X_E7expand1NvCs3RXxJlnd5m8_14zerovec_derive10ule_deriveE00E0EuEB4v_, symObjAddr: 0x43C, symBinAddr: 0x2E5A8, symSize: 0x58 }
  - { offset: 0x8D880, size: 0x8, addend: 0x0, symName: __RINvNvNtCs27l1GJC5rMQ_3std9panicking3try7do_callINtNtNtCs9f3LFPSIp77_4core5panic11unwind_safe16AssertUnwindSafeNCINvNtNtCsjLJ1XWNSM6u_10proc_macro6bridge6client10run_clientNtB1Q_11TokenStreamINtNtBR_6option6OptionB2K_ENCNCINvMs7_B1Q_INtB1Q_6ClientNtB1U_11TokenStreamB3X_E7expand1NvCs3RXxJlnd5m8_14zerovec_derive13varule_deriveE00E0EuEB4v_, symObjAddr: 0x494, symBinAddr: 0x2E600, symSize: 0x58 }
  - { offset: 0x8D951, size: 0x8, addend: 0x0, symName: __RINvNvNtCs27l1GJC5rMQ_3std9panicking3try7do_callINtNtNtCs9f3LFPSIp77_4core5panic11unwind_safe16AssertUnwindSafeNCINvNtNtCsjLJ1XWNSM6u_10proc_macro6bridge6client10run_clientTNtB1Q_11TokenStreamB2L_EINtNtBR_6option6OptionB2L_ENCNCINvMs8_B1Q_INtB1Q_6ClientTNtB1U_11TokenStreamB44_EB44_E7expand2NvCs3RXxJlnd5m8_14zerovec_derive11make_varuleE00E0EuEB4H_, symObjAddr: 0x4EC, symBinAddr: 0x2E658, symSize: 0x58 }
  - { offset: 0x8DA22, size: 0x8, addend: 0x0, symName: __RINvNvNtCs27l1GJC5rMQ_3std9panicking3try7do_callINtNtNtCs9f3LFPSIp77_4core5panic11unwind_safe16AssertUnwindSafeNCINvNtNtCsjLJ1XWNSM6u_10proc_macro6bridge6client10run_clientTNtB1Q_11TokenStreamB2L_EINtNtBR_6option6OptionB2L_ENCNCINvMs8_B1Q_INtB1Q_6ClientTNtB1U_11TokenStreamB44_EB44_E7expand2NvCs3RXxJlnd5m8_14zerovec_derive8make_uleE00E0EuEB4H_, symObjAddr: 0x544, symBinAddr: 0x2E6B0, symSize: 0x58 }
  - { offset: 0x8DAF3, size: 0x8, addend: 0x0, symName: __RINvNvNtCs27l1GJC5rMQ_3std9panicking3try8do_catchINtNtNtCs9f3LFPSIp77_4core5panic11unwind_safe16AssertUnwindSafeNCINvNtNtCsjLJ1XWNSM6u_10proc_macro6bridge6client10run_clientNtB1R_11TokenStreamINtNtBS_6option6OptionB2L_ENCNCINvMs7_B1R_INtB1R_6ClientNtB1V_11TokenStreamB3Y_E7expand1NvCs3RXxJlnd5m8_14zerovec_derive10ule_deriveE00E0EuEB4w_, symObjAddr: 0x59C, symBinAddr: 0x2E708, symSize: 0x70 }
  - { offset: 0x8DB88, size: 0x8, addend: 0x0, symName: __RINvNvNtCs27l1GJC5rMQ_3std9panicking3try8do_catchINtNtNtCs9f3LFPSIp77_4core5panic11unwind_safe16AssertUnwindSafeNCINvNtNtCsjLJ1XWNSM6u_10proc_macro6bridge6client10run_clientNtB1R_11TokenStreamINtNtBS_6option6OptionB2L_ENCNCINvMs7_B1R_INtB1R_6ClientNtB1V_11TokenStreamB3Y_E7expand1NvCs3RXxJlnd5m8_14zerovec_derive13varule_deriveE00E0EuEB4w_, symObjAddr: 0x60C, symBinAddr: 0x2E778, symSize: 0x70 }
  - { offset: 0x8DC1D, size: 0x8, addend: 0x0, symName: __RINvNvNtCs27l1GJC5rMQ_3std9panicking3try8do_catchINtNtNtCs9f3LFPSIp77_4core5panic11unwind_safe16AssertUnwindSafeNCINvNtNtCsjLJ1XWNSM6u_10proc_macro6bridge6client10run_clientTNtB1R_11TokenStreamB2M_EINtNtBS_6option6OptionB2M_ENCNCINvMs8_B1R_INtB1R_6ClientTNtB1V_11TokenStreamB45_EB45_E7expand2NvCs3RXxJlnd5m8_14zerovec_derive11make_varuleE00E0EuEB4I_, symObjAddr: 0x67C, symBinAddr: 0x2E7E8, symSize: 0x70 }
  - { offset: 0x8DCB2, size: 0x8, addend: 0x0, symName: __RINvNvNtCs27l1GJC5rMQ_3std9panicking3try8do_catchINtNtNtCs9f3LFPSIp77_4core5panic11unwind_safe16AssertUnwindSafeNCINvNtNtCsjLJ1XWNSM6u_10proc_macro6bridge6client10run_clientTNtB1R_11TokenStreamB2M_EINtNtBS_6option6OptionB2M_ENCNCINvMs8_B1R_INtB1R_6ClientTNtB1V_11TokenStreamB45_EB45_E7expand2NvCs3RXxJlnd5m8_14zerovec_derive8make_uleE00E0EuEB4I_, symObjAddr: 0x6EC, symBinAddr: 0x2E858, symSize: 0x70 }
  - { offset: 0x8DE8D, size: 0x8, addend: 0x0, symName: __RINvMs0_NtNtNtNtCs27l1GJC5rMQ_3std3sys12thread_local6native4lazyINtB6_7StorageINtNtCs9f3LFPSIp77_4core4cell4CellTyyEEzE10initializeNvNvNvMNtNtBe_4hash6randomNtB2c_11RandomState3new4KEYS6___initECs3RXxJlnd5m8_14zerovec_derive, symObjAddr: 0x0, symBinAddr: 0x2A810C, symSize: 0x25C }
  - { offset: 0x8E115, size: 0x8, addend: 0x0, symName: __RINvMs0_NtNtNtNtCs27l1GJC5rMQ_3std3sys12thread_local6native4lazyINtB6_7StorageINtNtCs9f3LFPSIp77_4core4cell4CellTyyEEzE11get_or_initNvNvNvMNtNtBe_4hash6randomNtB2d_11RandomState3new4KEYS6___initECs3RXxJlnd5m8_14zerovec_derive, symObjAddr: 0x25C, symBinAddr: 0x2E3C8, symSize: 0xCC }
  - { offset: 0x8E467, size: 0x8, addend: 0x0, symName: __RNCINvNtCscXJUXcj6jCz_9hashbrown3map11make_hasheryuNtNtNtCs27l1GJC5rMQ_3std4hash6random11RandomStateE0Cs3RXxJlnd5m8_14zerovec_derive, symObjAddr: 0x76C, symBinAddr: 0x2E8D8, symSize: 0x3C }
  - { offset: 0x8E4E9, size: 0x8, addend: 0x0, symName: __RNCINvNtCscXJUXcj6jCz_9hashbrown3map14equivalent_keyyyuE0Cs3RXxJlnd5m8_14zerovec_derive, symObjAddr: 0x7A8, symBinAddr: 0x2E914, symSize: 0x30 }
  - { offset: 0x8E5B2, size: 0x8, addend: 0x0, symName: __RNvXs5_NtCscXJUXcj6jCz_9hashbrown3mapINtB5_7HashMapyuNtNtNtCs27l1GJC5rMQ_3std4hash6random11RandomStateENtNtCs9f3LFPSIp77_4core7default7Default7defaultCs3RXxJlnd5m8_14zerovec_derive, symObjAddr: 0x166C, symBinAddr: 0x2F7D8, symSize: 0x8C }
  - { offset: 0x8E63F, size: 0x8, addend: 0x0, symName: __RNvXsG_NtCscXJUXcj6jCz_9hashbrown3mapINtB5_4IteryuENtNtNtNtCs9f3LFPSIp77_4core4iter6traits8iterator8Iterator4nextCs3RXxJlnd5m8_14zerovec_derive, symObjAddr: 0x16F8, symBinAddr: 0x2F864, symSize: 0xF8 }
  - { offset: 0x8F81E, size: 0x8, addend: 0x0, symName: __RNvXsG_NtCsdze8u8oDPro_5alloc6stringNtB5_6StringINtNtCs9f3LFPSIp77_4core7convert4FromReE4fromCs3RXxJlnd5m8_14zerovec_derive, symObjAddr: 0x17F0, symBinAddr: 0x2F95C, symSize: 0x50 }
  - { offset: 0x8F94F, size: 0x8, addend: 0x0, symName: __RNvXsq_NtCsdze8u8oDPro_5alloc6stringNtB5_6StringNtNtNtCs9f3LFPSIp77_4core3ops5deref5Deref5derefCs3RXxJlnd5m8_14zerovec_derive, symObjAddr: 0x1990, symBinAddr: 0x2FAFC, symSize: 0x24 }
  - { offset: 0x8F983, size: 0x8, addend: 0x0, symName: __RNvXsj_NtCsdze8u8oDPro_5alloc6stringNtB5_6StringNtNtCs9f3LFPSIp77_4core3fmt7Display3fmtCs3RXxJlnd5m8_14zerovec_derive, symObjAddr: 0x18F8, symBinAddr: 0x2FA64, symSize: 0x98 }
  - { offset: 0x8FD8A, size: 0x8, addend: 0x0, symName: __RINvMs1_NtCscXJUXcj6jCz_9hashbrown3mapINtB6_7HashMapyuNtNtNtCs27l1GJC5rMQ_3std4hash6random11RandomStateE12remove_entryyECs3RXxJlnd5m8_14zerovec_derive, symObjAddr: 0x328, symBinAddr: 0x2E494, symSize: 0x50 }
  - { offset: 0x8FE2D, size: 0x8, addend: 0x0, symName: __RINvMs1_NtCscXJUXcj6jCz_9hashbrown3mapINtB6_7HashMapyuNtNtNtCs27l1GJC5rMQ_3std4hash6random11RandomStateE6removeyECs3RXxJlnd5m8_14zerovec_derive, symObjAddr: 0x378, symBinAddr: 0x2E4E4, symSize: 0x70 }
  - { offset: 0x90229, size: 0x8, addend: 0x0, symName: __RNvMNtCsdze8u8oDPro_5alloc6stringNtB2_6String6as_strCs3RXxJlnd5m8_14zerovec_derive, symObjAddr: 0x87C, symBinAddr: 0x2E9E8, symSize: 0x88 }
  - { offset: 0x903C0, size: 0x8, addend: 0x0, symName: __RNvMNtNtCscXJUXcj6jCz_9hashbrown3raw4neonNtB2_5Group10match_byteCs3RXxJlnd5m8_14zerovec_derive, symObjAddr: 0x904, symBinAddr: 0x2EA70, symSize: 0x7C }
  - { offset: 0x9040E, size: 0x8, addend: 0x0, symName: __RNvMNtNtCscXJUXcj6jCz_9hashbrown3raw4neonNtB2_5Group10match_fullCs3RXxJlnd5m8_14zerovec_derive, symObjAddr: 0x980, symBinAddr: 0x2EAEC, symSize: 0x68 }
  - { offset: 0x90446, size: 0x8, addend: 0x0, symName: __RNvMNtNtCscXJUXcj6jCz_9hashbrown3raw4neonNtB2_5Group22match_empty_or_deletedCs3RXxJlnd5m8_14zerovec_derive, symObjAddr: 0x9E8, symBinAddr: 0x2EB54, symSize: 0x68 }
  - { offset: 0x9047E, size: 0x8, addend: 0x0, symName: __RNvMNtNtCscXJUXcj6jCz_9hashbrown3raw4neonNtB2_5Group44convert_special_to_empty_and_full_to_deletedCs3RXxJlnd5m8_14zerovec_derive, symObjAddr: 0xA50, symBinAddr: 0x2EBBC, symSize: 0x88 }
  - { offset: 0x904B6, size: 0x8, addend: 0x0, symName: __RNvMNtNtNtCs9f3LFPSIp77_4core4iter8adapters7step_byINtB2_6StepByINtNtNtB8_3ops5range5RangejEE3newCs3RXxJlnd5m8_14zerovec_derive, symObjAddr: 0xAD8, symBinAddr: 0x2EC44, symSize: 0xE0 }
  - { offset: 0x90670, size: 0x8, addend: 0x0, symName: __RNvMs0_NtCscXJUXcj6jCz_9hashbrown3mapINtB5_7HashMapyuNtNtNtCs27l1GJC5rMQ_3std4hash6random11RandomStateE4iterCs3RXxJlnd5m8_14zerovec_derive, symObjAddr: 0xBB8, symBinAddr: 0x2ED24, symSize: 0xC8 }
  - { offset: 0x908AB, size: 0x8, addend: 0x0, symName: __RNvMs1_NtCscXJUXcj6jCz_9hashbrown3mapINtB5_7HashMapyuNtNtNtCs27l1GJC5rMQ_3std4hash6random11RandomStateE6insertCs3RXxJlnd5m8_14zerovec_derive, symObjAddr: 0xC80, symBinAddr: 0x2EDEC, symSize: 0x17C }
  - { offset: 0x90C09, size: 0x8, addend: 0x0, symName: __RNvXs4_NtCs62MdaZFMefA_5quote9___privateINtB5_9RepInterpNtCs475r2uZUTuc_11proc_macro211TokenStreamENtNtB7_9to_tokens8ToTokens9to_tokensCs3RXxJlnd5m8_14zerovec_derive, symObjAddr: 0x15F4, symBinAddr: 0x2F760, symSize: 0x3C }
  - { offset: 0x90C48, size: 0x8, addend: 0x0, symName: __RNvXs4_NtCs62MdaZFMefA_5quote9___privateINtB5_9RepInterpRNtCs475r2uZUTuc_11proc_macro211TokenStreamENtNtB7_9to_tokens8ToTokens9to_tokensCs3RXxJlnd5m8_14zerovec_derive, symObjAddr: 0x1630, symBinAddr: 0x2F79C, symSize: 0x3C }
  - { offset: 0x90F5E, size: 0x8, addend: 0x0, symName: __RNvNtCs3RXxJlnd5m8_14zerovec_derive3ule11derive_impl, symObjAddr: 0x19B4, symBinAddr: 0x2FB20, symSize: 0x13B4 }
  - { offset: 0x9117C, size: 0x8, addend: 0x0, symName: __RNvNtCs3RXxJlnd5m8_14zerovec_derive3ule23generate_ule_validators, symObjAddr: 0x2D68, symBinAddr: 0x30ED4, symSize: 0x40 }
  - { offset: 0x911AD, size: 0x8, addend: 0x0, symName: __RNCNvNtCs3RXxJlnd5m8_14zerovec_derive3ule23generate_ule_validators0B5_, symObjAddr: 0x2DA8, symBinAddr: 0x30F14, symSize: 0x3BC }
  - { offset: 0x91289, size: 0x8, addend: 0x0, symName: __RNvNtCs3RXxJlnd5m8_14zerovec_derive3ule15make_ule_fields, symObjAddr: 0x3164, symBinAddr: 0x312D0, symSize: 0x48 }
  - { offset: 0x912BA, size: 0x8, addend: 0x0, symName: __RNCNvNtCs3RXxJlnd5m8_14zerovec_derive3ule15make_ule_fields0B5_, symObjAddr: 0x31AC, symBinAddr: 0x31318, symSize: 0x238 }
  - { offset: 0x9137F, size: 0x8, addend: 0x0, symName: __RNvNtCs3RXxJlnd5m8_14zerovec_derive6varule11derive_impl, symObjAddr: 0x33E4, symBinAddr: 0x31550, symSize: 0x2568 }
  - { offset: 0x9185E, size: 0x8, addend: 0x0, symName: __RNCNvNtCs3RXxJlnd5m8_14zerovec_derive6varule11derive_impl0B5_, symObjAddr: 0x594C, symBinAddr: 0x33AB8, symSize: 0x158 }
  - { offset: 0x9709E, size: 0x8, addend: 0x0, symName: __RNvNtCs3RXxJlnd5m8_14zerovec_derive8make_ule13make_ule_impl, symObjAddr: 0x0, symBinAddr: 0x33C10, symSize: 0x117C }
  - { offset: 0x99D6B, size: 0x8, addend: 0x0, symName: __RNvNtCs3RXxJlnd5m8_14zerovec_derive8make_ule13make_ule_impl, symObjAddr: 0x0, symBinAddr: 0x33C10, symSize: 0x117C }
  - { offset: 0x99F2F, size: 0x8, addend: 0x0, symName: __RNvNtCs3RXxJlnd5m8_14zerovec_derive8make_ule18make_ule_enum_impl, symObjAddr: 0x117C, symBinAddr: 0x34D8C, symSize: 0x246C }
  - { offset: 0x9A51D, size: 0x8, addend: 0x0, symName: __RNvNtCs3RXxJlnd5m8_14zerovec_derive8make_ule12get_expr_int, symObjAddr: 0x35E8, symBinAddr: 0x371F8, symSize: 0x188 }
  - { offset: 0x9A574, size: 0x8, addend: 0x0, symName: __RNvNtCs3RXxJlnd5m8_14zerovec_derive8make_ule20make_ule_struct_impl, symObjAddr: 0x3770, symBinAddr: 0x37380, symSize: 0x2CD0 }
  - { offset: 0xA12FD, size: 0x8, addend: 0x0, symName: __RINvMs_NtCsdze8u8oDPro_5alloc3vecINtB5_3VecReE10retain_mutNCNvMNtCsATtFUPiRFW_3syn9lookaheadNtBZ_10Lookahead15error0EB11_, symObjAddr: 0x0, symBinAddr: 0x3A064, symSize: 0xE4 }
  - { offset: 0xA206F, size: 0x8, addend: 0x0, symName: __RNvXsP_NtCs9f3LFPSIp77_4core3fmtRINtNtCsdze8u8oDPro_5alloc3vec3VecNtNtCsATtFUPiRFW_3syn4item4ItemENtB5_5Debug3fmtB16_, symObjAddr: 0x9934, symBinAddr: 0x43998, symSize: 0x30 }
  - { offset: 0xA20B5, size: 0x8, addend: 0x0, symName: __RNvXsP_NtCs9f3LFPSIp77_4core3fmtRINtNtCsdze8u8oDPro_5alloc3vec3VechENtB5_5Debug3fmtCsATtFUPiRFW_3syn, symObjAddr: 0x9964, symBinAddr: 0x439C8, symSize: 0x30 }
  - { offset: 0xB010A, size: 0x8, addend: 0x0, symName: __RNvXs1_NtCs9f3LFPSIp77_4core7convertINtNtCsdze8u8oDPro_5alloc3vec3VechEINtB5_4IntoBy_E4intoCsATtFUPiRFW_3syn, symObjAddr: 0x82EC, symBinAddr: 0x42350, symSize: 0x18 }
  - { offset: 0xB034C, size: 0x8, addend: 0x0, symName: __RINvNvMs_NtCsdze8u8oDPro_5alloc3vecINtB7_3VecppE10retain_mut12process_loopNCNvMNtCsATtFUPiRFW_3syn9lookaheadNtB1f_10Lookahead15error0ReNtNtB9_5alloc6GlobalKb0_EB1h_, symObjAddr: 0xCE0, symBinAddr: 0x3AD44, symSize: 0xE4 }
  - { offset: 0xB04FE, size: 0x8, addend: 0x0, symName: __RINvNvMs_NtCsdze8u8oDPro_5alloc3vecINtB7_3VecppE10retain_mut12process_loopNCNvMNtCsATtFUPiRFW_3syn9lookaheadNtB1f_10Lookahead15error0ReNtNtB9_5alloc6GlobalKb1_EB1h_, symObjAddr: 0xDC4, symBinAddr: 0x3AE28, symSize: 0x1B0 }
  - { offset: 0xB07B7, size: 0x8, addend: 0x0, symName: __RNvXNvMs_NtCsdze8u8oDPro_5alloc3vecINtB7_3VecppE10retain_mutINtB2_15BackshiftOnDropReNtNtB9_5alloc6GlobalENtNtNtCs9f3LFPSIp77_4core3ops4drop4Drop4dropCsATtFUPiRFW_3syn, symObjAddr: 0x7F00, symBinAddr: 0x41F64, symSize: 0x134 }
  - { offset: 0xB3998, size: 0x8, addend: 0x0, symName: __RINvXsd_NtCsdze8u8oDPro_5alloc3vecINtB6_3VecNtCs475r2uZUTuc_11proc_macro29TokenTreeEINtNtNtNtCs9f3LFPSIp77_4core4iter6traits7collect12FromIteratorBG_E9from_iterNtNtBI_12token_stream8IntoIterECsATtFUPiRFW_3syn, symObjAddr: 0xF74, symBinAddr: 0x3AFD8, symSize: 0x34 }
  - { offset: 0xB39DF, size: 0x8, addend: 0x0, symName: __RINvXsh_NtCsdze8u8oDPro_5alloc3vecINtB6_3VecNtCs475r2uZUTuc_11proc_macro29TokenTreeEINtNtNtNtCs9f3LFPSIp77_4core4iter6traits7collect6ExtendBG_E6extendINtNtNtB1r_8adapters7flatten7FlattenINtNtB2t_3map3MapIB2Z_IB2Z_INtNtNtB1t_5slice4iter4IterNtNtCsATtFUPiRFW_3syn5error12ErrorMessageENvMs_B3S_B3Q_16to_compile_errorENCINvXs7_BI_NtBI_11TokenStreamINtB1n_12FromIteratorB5e_E9from_iterB3k_E0ENCINvXs6_NtBI_3impNtB6m_11TokenStreamIB5x_B6v_E9from_iterB3f_Es_0EEEB3U_, symObjAddr: 0xFA8, symBinAddr: 0x3B00C, symSize: 0x40 }
  - { offset: 0xB3A34, size: 0x8, addend: 0x0, symName: __RINvXsh_NtCsdze8u8oDPro_5alloc3vecINtB6_3VecNtNtCsATtFUPiRFW_3syn4attr9AttributeEINtNtNtNtCs9f3LFPSIp77_4core4iter6traits7collect6ExtendBG_E6extendBw_EBK_, symObjAddr: 0xFE8, symBinAddr: 0x3B04C, symSize: 0x40 }
  - { offset: 0xB3A89, size: 0x8, addend: 0x0, symName: __RINvXsh_NtCsdze8u8oDPro_5alloc3vecINtB6_3VecNtNtCsATtFUPiRFW_3syn4data5FieldEINtNtNtNtCs9f3LFPSIp77_4core4iter6traits7collect6ExtendBG_E6extendINtNtB1m_6option6OptionBG_EEBK_, symObjAddr: 0x1028, symBinAddr: 0x3B08C, symSize: 0x48 }
  - { offset: 0xB3ADE, size: 0x8, addend: 0x0, symName: __RINvXsh_NtCsdze8u8oDPro_5alloc3vecINtB6_3VecNtNtCsATtFUPiRFW_3syn4data5FieldEINtNtNtNtCs9f3LFPSIp77_4core4iter6traits7collect6ExtendBG_E6extendINtNtNtB1k_8adapters3map3MapINtNtB6_9into_iter8IntoIterTBG_NtNtBK_5token5CommaEENCNvXs8_NtBK_10punctuatedINtB3H_10PunctuatedBG_B3e_ENtB1g_12IntoIterator9into_iter0EEBK_, symObjAddr: 0x1070, symBinAddr: 0x3B0D4, symSize: 0x40 }
  - { offset: 0xB3B33, size: 0x8, addend: 0x0, symName: __RINvXsh_NtCsdze8u8oDPro_5alloc3vecINtB6_3VecNtNtCsATtFUPiRFW_3syn4data5FieldEINtNtNtNtCs9f3LFPSIp77_4core4iter6traits7collect6ExtendBG_E6extendINtNtNtB1k_8adapters3map3MapINtNtB6_9into_iter8IntoIterTBG_uEENCNvXs8_NtBK_10punctuatedINtB3p_10PunctuatedBG_uENtB1g_12IntoIterator9into_iter0EEBK_, symObjAddr: 0x10B0, symBinAddr: 0x3B114, symSize: 0x40 }
  - { offset: 0xB3B88, size: 0x8, addend: 0x0, symName: __RINvXsh_NtCsdze8u8oDPro_5alloc3vecINtB6_3VecNtNtCsATtFUPiRFW_3syn5error12ErrorMessageEINtNtNtNtCs9f3LFPSIp77_4core4iter6traits7collect6ExtendBG_E6extendBw_EBK_, symObjAddr: 0x10F0, symBinAddr: 0x3B154, symSize: 0x40 }
  - { offset: 0xB3BDD, size: 0x8, addend: 0x0, symName: __RINvXsh_NtCsdze8u8oDPro_5alloc3vecINtB6_3VecNtNtCsATtFUPiRFW_3syn8generics14TypeParamBoundEINtNtNtNtCs9f3LFPSIp77_4core4iter6traits7collect6ExtendBG_E6extendINtNtB1A_6option6OptionBG_EEBK_, symObjAddr: 0x1130, symBinAddr: 0x3B194, symSize: 0x40 }
  - { offset: 0xB3C32, size: 0x8, addend: 0x0, symName: __RINvXsh_NtCsdze8u8oDPro_5alloc3vecINtB6_3VecNtNtCsATtFUPiRFW_3syn8generics14TypeParamBoundEINtNtNtNtCs9f3LFPSIp77_4core4iter6traits7collect6ExtendBG_E6extendINtNtNtB1y_8adapters3map3MapINtNtB6_9into_iter8IntoIterTBG_NtNtBK_5token4PlusEENCNvXs8_NtBK_10punctuatedINtB3U_10PunctuatedBG_B3s_ENtB1u_12IntoIterator9into_iter0EEBK_, symObjAddr: 0x1170, symBinAddr: 0x3B1D4, symSize: 0x40 }
  - { offset: 0xB3C92, size: 0x8, addend: 0x0, symName: __RNCINvMsi_NtCsdze8u8oDPro_5alloc3vecINtB8_3VecNtNtCsATtFUPiRFW_3syn4data5FieldE14extend_trustedINtNtCs9f3LFPSIp77_4core6option8IntoIterBI_EE0BM_, symObjAddr: 0x11B0, symBinAddr: 0x3B214, symSize: 0x78 }
  - { offset: 0xB3D85, size: 0x8, addend: 0x0, symName: __RNCINvMsi_NtCsdze8u8oDPro_5alloc3vecINtB8_3VecNtNtCsATtFUPiRFW_3syn4data5FieldE14extend_trustedINtNtNtNtCs9f3LFPSIp77_4core4iter8adapters3map3MapINtNtB8_9into_iter8IntoIterTBI_NtNtBM_5token5CommaEENCNvXs8_NtBM_10punctuatedINtB3h_10PunctuatedBI_B2O_ENtNtNtB1C_6traits7collect12IntoIterator9into_iter0EE0BM_, symObjAddr: 0x1228, symBinAddr: 0x3B28C, symSize: 0x78 }
  - { offset: 0xB3E78, size: 0x8, addend: 0x0, symName: __RNCINvMsi_NtCsdze8u8oDPro_5alloc3vecINtB8_3VecNtNtCsATtFUPiRFW_3syn4data5FieldE14extend_trustedINtNtNtNtCs9f3LFPSIp77_4core4iter8adapters3map3MapINtNtB8_9into_iter8IntoIterTBI_uEENCNvXs8_NtBM_10punctuatedINtB2Z_10PunctuatedBI_uENtNtNtB1C_6traits7collect12IntoIterator9into_iter0EE0BM_, symObjAddr: 0x12A0, symBinAddr: 0x3B304, symSize: 0x78 }
  - { offset: 0xB3F6B, size: 0x8, addend: 0x0, symName: __RNCINvMsi_NtCsdze8u8oDPro_5alloc3vecINtB8_3VecNtNtCsATtFUPiRFW_3syn8generics14TypeParamBoundE14extend_trustedINtNtCs9f3LFPSIp77_4core6option8IntoIterBI_EE0BM_, symObjAddr: 0x1318, symBinAddr: 0x3B37C, symSize: 0x78 }
  - { offset: 0xB405E, size: 0x8, addend: 0x0, symName: __RNCINvMsi_NtCsdze8u8oDPro_5alloc3vecINtB8_3VecNtNtCsATtFUPiRFW_3syn8generics14TypeParamBoundE14extend_trustedINtNtNtNtCs9f3LFPSIp77_4core4iter8adapters3map3MapINtNtB8_9into_iter8IntoIterTBI_NtNtBM_5token4PlusEENCNvXs8_NtBM_10punctuatedINtB3u_10PunctuatedBI_B32_ENtNtNtB1Q_6traits7collect12IntoIterator9into_iter0EE0BM_, symObjAddr: 0x1390, symBinAddr: 0x3B3F4, symSize: 0x78 }
  - { offset: 0xB4637, size: 0x8, addend: 0x0, symName: __RNvXNtNtCsdze8u8oDPro_5alloc3vec10partial_eqINtB4_3VecNtNtCsATtFUPiRFW_3syn4attr9AttributeENtNtCs9f3LFPSIp77_4core3cmp9PartialEq2eqBU_, symObjAddr: 0x7034, symBinAddr: 0x41098, symSize: 0x7C }
  - { offset: 0xB46BA, size: 0x8, addend: 0x0, symName: __RNvXNtNtCsdze8u8oDPro_5alloc3vec10partial_eqINtB4_3VecNtNtCsATtFUPiRFW_3syn4expr3ArmENtNtCs9f3LFPSIp77_4core3cmp9PartialEq2eqBU_, symObjAddr: 0x70B0, symBinAddr: 0x41114, symSize: 0x7C }
  - { offset: 0xB473D, size: 0x8, addend: 0x0, symName: __RNvXNtNtCsdze8u8oDPro_5alloc3vec10partial_eqINtB4_3VecNtNtCsATtFUPiRFW_3syn4item11ForeignItemENtNtCs9f3LFPSIp77_4core3cmp9PartialEq2eqBU_, symObjAddr: 0x712C, symBinAddr: 0x41190, symSize: 0x7C }
  - { offset: 0xB47C0, size: 0x8, addend: 0x0, symName: __RNvXNtNtCsdze8u8oDPro_5alloc3vec10partial_eqINtB4_3VecNtNtCsATtFUPiRFW_3syn4item4ItemENtNtCs9f3LFPSIp77_4core3cmp9PartialEq2eqBU_, symObjAddr: 0x71A8, symBinAddr: 0x4120C, symSize: 0x7C }
  - { offset: 0xB4843, size: 0x8, addend: 0x0, symName: __RNvXNtNtCsdze8u8oDPro_5alloc3vec10partial_eqINtB4_3VecNtNtCsATtFUPiRFW_3syn4item8ImplItemENtNtCs9f3LFPSIp77_4core3cmp9PartialEq2eqBU_, symObjAddr: 0x7224, symBinAddr: 0x41288, symSize: 0x7C }
  - { offset: 0xB48C6, size: 0x8, addend: 0x0, symName: __RNvXNtNtCsdze8u8oDPro_5alloc3vec10partial_eqINtB4_3VecNtNtCsATtFUPiRFW_3syn4item9TraitItemENtNtCs9f3LFPSIp77_4core3cmp9PartialEq2eqBU_, symObjAddr: 0x72A0, symBinAddr: 0x41304, symSize: 0x7C }
  - { offset: 0xB4949, size: 0x8, addend: 0x0, symName: __RNvXNtNtCsdze8u8oDPro_5alloc3vec10partial_eqINtB4_3VecNtNtCsATtFUPiRFW_3syn4stmt4StmtENtNtCs9f3LFPSIp77_4core3cmp9PartialEq2eqBU_, symObjAddr: 0x731C, symBinAddr: 0x41380, symSize: 0x7C }
  - { offset: 0xB49CC, size: 0x8, addend: 0x0, symName: __RNvXNtNtCsdze8u8oDPro_5alloc3vec10partial_eqINtB4_3VecTNtNtCsATtFUPiRFW_3syn2ty4TypeNtNtBV_5token5CommaEENtNtCs9f3LFPSIp77_4core3cmp9PartialEq2eqBV_, symObjAddr: 0x7398, symBinAddr: 0x413FC, symSize: 0x7C }
  - { offset: 0xB4A4F, size: 0x8, addend: 0x0, symName: __RNvXNtNtCsdze8u8oDPro_5alloc3vec10partial_eqINtB4_3VecTNtNtCsATtFUPiRFW_3syn2ty9BareFnArgNtNtBV_5token5CommaEENtNtCs9f3LFPSIp77_4core3cmp9PartialEq2eqBV_, symObjAddr: 0x7414, symBinAddr: 0x41478, symSize: 0x7C }
  - { offset: 0xB4AD2, size: 0x8, addend: 0x0, symName: __RNvXNtNtCsdze8u8oDPro_5alloc3vec10partial_eqINtB4_3VecTNtNtCsATtFUPiRFW_3syn3pat3PatNtNtBV_5token2OrEENtNtCs9f3LFPSIp77_4core3cmp9PartialEq2eqBV_, symObjAddr: 0x7490, symBinAddr: 0x414F4, symSize: 0x7C }
  - { offset: 0xB4B55, size: 0x8, addend: 0x0, symName: __RNvXNtNtCsdze8u8oDPro_5alloc3vec10partial_eqINtB4_3VecTNtNtCsATtFUPiRFW_3syn3pat3PatNtNtBV_5token5CommaEENtNtCs9f3LFPSIp77_4core3cmp9PartialEq2eqBV_, symObjAddr: 0x750C, symBinAddr: 0x41570, symSize: 0x7C }
  - { offset: 0xB4BD8, size: 0x8, addend: 0x0, symName: __RNvXNtNtCsdze8u8oDPro_5alloc3vec10partial_eqINtB4_3VecTNtNtCsATtFUPiRFW_3syn3pat8FieldPatNtNtBV_5token5CommaEENtNtCs9f3LFPSIp77_4core3cmp9PartialEq2eqBV_, symObjAddr: 0x7588, symBinAddr: 0x415EC, symSize: 0x7C }
  - { offset: 0xB4C5B, size: 0x8, addend: 0x0, symName: __RNvXNtNtCsdze8u8oDPro_5alloc3vec10partial_eqINtB4_3VecTNtNtCsATtFUPiRFW_3syn4data5FieldNtNtBV_5token5CommaEENtNtCs9f3LFPSIp77_4core3cmp9PartialEq2eqBV_, symObjAddr: 0x7604, symBinAddr: 0x41668, symSize: 0x7C }
  - { offset: 0xB4CDE, size: 0x8, addend: 0x0, symName: __RNvXNtNtCsdze8u8oDPro_5alloc3vec10partial_eqINtB4_3VecTNtNtCsATtFUPiRFW_3syn4data7VariantNtNtBV_5token5CommaEENtNtCs9f3LFPSIp77_4core3cmp9PartialEq2eqBV_, symObjAddr: 0x7680, symBinAddr: 0x416E4, symSize: 0x7C }
  - { offset: 0xB4D61, size: 0x8, addend: 0x0, symName: __RNvXNtNtCsdze8u8oDPro_5alloc3vec10partial_eqINtB4_3VecTNtNtCsATtFUPiRFW_3syn4expr10FieldValueNtNtBV_5token5CommaEENtNtCs9f3LFPSIp77_4core3cmp9PartialEq2eqBV_, symObjAddr: 0x76FC, symBinAddr: 0x41760, symSize: 0x7C }
  - { offset: 0xB4DE4, size: 0x8, addend: 0x0, symName: __RNvXNtNtCsdze8u8oDPro_5alloc3vec10partial_eqINtB4_3VecTNtNtCsATtFUPiRFW_3syn4expr4ExprNtNtBV_5token5CommaEENtNtCs9f3LFPSIp77_4core3cmp9PartialEq2eqBV_, symObjAddr: 0x7778, symBinAddr: 0x417DC, symSize: 0x7C }
  - { offset: 0xB4E67, size: 0x8, addend: 0x0, symName: __RNvXNtNtCsdze8u8oDPro_5alloc3vec10partial_eqINtB4_3VecTNtNtCsATtFUPiRFW_3syn4item5FnArgNtNtBV_5token5CommaEENtNtCs9f3LFPSIp77_4core3cmp9PartialEq2eqBV_, symObjAddr: 0x77F4, symBinAddr: 0x41858, symSize: 0x7C }
  - { offset: 0xB4EEA, size: 0x8, addend: 0x0, symName: __RNvXNtNtCsdze8u8oDPro_5alloc3vec10partial_eqINtB4_3VecTNtNtCsATtFUPiRFW_3syn4item7UseTreeNtNtBV_5token5CommaEENtNtCs9f3LFPSIp77_4core3cmp9PartialEq2eqBV_, symObjAddr: 0x7870, symBinAddr: 0x418D4, symSize: 0x7C }
  - { offset: 0xB4F6D, size: 0x8, addend: 0x0, symName: __RNvXNtNtCsdze8u8oDPro_5alloc3vec10partial_eqINtB4_3VecTNtNtCsATtFUPiRFW_3syn4path11PathSegmentNtNtBV_5token7PathSepEENtNtCs9f3LFPSIp77_4core3cmp9PartialEq2eqBV_, symObjAddr: 0x78EC, symBinAddr: 0x41950, symSize: 0x7C }
  - { offset: 0xB4FF0, size: 0x8, addend: 0x0, symName: __RNvXNtNtCsdze8u8oDPro_5alloc3vec10partial_eqINtB4_3VecTNtNtCsATtFUPiRFW_3syn4path15GenericArgumentNtNtBV_5token5CommaEENtNtCs9f3LFPSIp77_4core3cmp9PartialEq2eqBV_, symObjAddr: 0x7968, symBinAddr: 0x419CC, symSize: 0x7C }
  - { offset: 0xB5073, size: 0x8, addend: 0x0, symName: __RNvXNtNtCsdze8u8oDPro_5alloc3vec10partial_eqINtB4_3VecTNtNtCsATtFUPiRFW_3syn8generics12GenericParamNtNtBV_5token5CommaEENtNtCs9f3LFPSIp77_4core3cmp9PartialEq2eqBV_, symObjAddr: 0x79E4, symBinAddr: 0x41A48, symSize: 0x7C }
  - { offset: 0xB50F6, size: 0x8, addend: 0x0, symName: __RNvXNtNtCsdze8u8oDPro_5alloc3vec10partial_eqINtB4_3VecTNtNtCsATtFUPiRFW_3syn8generics13CapturedParamNtNtBV_5token5CommaEENtNtCs9f3LFPSIp77_4core3cmp9PartialEq2eqBV_, symObjAddr: 0x7A60, symBinAddr: 0x41AC4, symSize: 0x7C }
  - { offset: 0xB5179, size: 0x8, addend: 0x0, symName: __RNvXNtNtCsdze8u8oDPro_5alloc3vec10partial_eqINtB4_3VecTNtNtCsATtFUPiRFW_3syn8generics14TypeParamBoundNtNtBV_5token4PlusEENtNtCs9f3LFPSIp77_4core3cmp9PartialEq2eqBV_, symObjAddr: 0x7ADC, symBinAddr: 0x41B40, symSize: 0x7C }
  - { offset: 0xB51FC, size: 0x8, addend: 0x0, symName: __RNvXNtNtCsdze8u8oDPro_5alloc3vec10partial_eqINtB4_3VecTNtNtCsATtFUPiRFW_3syn8generics14WherePredicateNtNtBV_5token5CommaEENtNtCs9f3LFPSIp77_4core3cmp9PartialEq2eqBV_, symObjAddr: 0x7B58, symBinAddr: 0x41BBC, symSize: 0x7C }
  - { offset: 0xB527F, size: 0x8, addend: 0x0, symName: __RNvXNtNtCsdze8u8oDPro_5alloc3vec10partial_eqINtB4_3VecTNtNtCsATtFUPiRFW_3syn8lifetime8LifetimeNtNtBV_5token4PlusEENtNtCs9f3LFPSIp77_4core3cmp9PartialEq2eqBV_, symObjAddr: 0x7BD4, symBinAddr: 0x41C38, symSize: 0x7C }
  - { offset: 0xB530E, size: 0x8, addend: 0x0, symName: __RNvXNtNtCsdze8u8oDPro_5alloc3vec11spec_extendINtB4_3VecNtCs475r2uZUTuc_11proc_macro29TokenTreeEINtB2_10SpecExtendBR_INtNtNtNtCs9f3LFPSIp77_4core4iter8adapters7flatten7FlattenINtNtB1V_3map3MapIB2N_IB2N_INtNtNtB1Z_5slice4iter4IterNtNtCsATtFUPiRFW_3syn5error12ErrorMessageENvMs_B3G_B3E_16to_compile_errorENCINvXs7_BT_NtBT_11TokenStreamINtNtNtB1X_6traits7collect12FromIteratorB52_E9from_iterB38_E0ENCINvXs6_NtBT_3impNtB6t_11TokenStreamIB5l_B6C_E9from_iterB33_Es_0EEE11spec_extendB3I_, symObjAddr: 0x7C50, symBinAddr: 0x41CB4, symSize: 0x24 }
  - { offset: 0xB5360, size: 0x8, addend: 0x0, symName: __RNvXNtNtCsdze8u8oDPro_5alloc3vec11spec_extendINtB4_3VecNtCs475r2uZUTuc_11proc_macro29TokenTreeEINtB2_10SpecExtendBR_NtNtBT_12token_stream8IntoIterE11spec_extendCsATtFUPiRFW_3syn, symObjAddr: 0x7C74, symBinAddr: 0x41CD8, symSize: 0x24 }
  - { offset: 0xB53B8, size: 0x8, addend: 0x0, symName: __RNvXs0_NtNtCsdze8u8oDPro_5alloc3vec11spec_extendINtB7_3VecNtNtCsATtFUPiRFW_3syn4attr9AttributeEINtB5_10SpecExtendBU_INtNtB7_9into_iter8IntoIterBU_EE11spec_extendBY_, symObjAddr: 0x81C4, symBinAddr: 0x42228, symSize: 0x94 }
  - { offset: 0xB541E, size: 0x8, addend: 0x0, symName: __RNvXs0_NtNtCsdze8u8oDPro_5alloc3vec11spec_extendINtB7_3VecNtNtCsATtFUPiRFW_3syn5error12ErrorMessageEINtB5_10SpecExtendBU_INtNtB7_9into_iter8IntoIterBU_EE11spec_extendBY_, symObjAddr: 0x8258, symBinAddr: 0x422BC, symSize: 0x94 }
  - { offset: 0xB548A, size: 0x8, addend: 0x0, symName: __RNvXs2_NtNtCsdze8u8oDPro_5alloc3vec11spec_extendINtB7_3VechEINtB5_10SpecExtendRhINtNtNtCs9f3LFPSIp77_4core5slice4iter4IterhEE11spec_extendCsATtFUPiRFW_3syn, symObjAddr: 0x8304, symBinAddr: 0x42368, symSize: 0xA8 }
  - { offset: 0xB5649, size: 0x8, addend: 0x0, symName: __RNvXs_NtNtCsdze8u8oDPro_5alloc3vec11spec_extendINtB6_3VecNtNtCsATtFUPiRFW_3syn4data5FieldEINtB4_10SpecExtendBT_INtNtCs9f3LFPSIp77_4core6option8IntoIterBT_EE11spec_extendBX_, symObjAddr: 0x99AC, symBinAddr: 0x43A10, symSize: 0x24 }
  - { offset: 0xB569B, size: 0x8, addend: 0x0, symName: __RNvXs_NtNtCsdze8u8oDPro_5alloc3vec11spec_extendINtB6_3VecNtNtCsATtFUPiRFW_3syn4data5FieldEINtB4_10SpecExtendBT_INtNtNtNtCs9f3LFPSIp77_4core4iter8adapters3map3MapINtNtB6_9into_iter8IntoIterTBT_NtNtBX_5token5CommaEENCNvXs8_NtBX_10punctuatedINtB3x_10PunctuatedBT_B34_ENtNtNtB1S_6traits7collect12IntoIterator9into_iter0EE11spec_extendBX_, symObjAddr: 0x99D0, symBinAddr: 0x43A34, symSize: 0x24 }
  - { offset: 0xB56ED, size: 0x8, addend: 0x0, symName: __RNvXs_NtNtCsdze8u8oDPro_5alloc3vec11spec_extendINtB6_3VecNtNtCsATtFUPiRFW_3syn4data5FieldEINtB4_10SpecExtendBT_INtNtNtNtCs9f3LFPSIp77_4core4iter8adapters3map3MapINtNtB6_9into_iter8IntoIterTBT_uEENCNvXs8_NtBX_10punctuatedINtB3f_10PunctuatedBT_uENtNtNtB1S_6traits7collect12IntoIterator9into_iter0EE11spec_extendBX_, symObjAddr: 0x99F4, symBinAddr: 0x43A58, symSize: 0x24 }
  - { offset: 0xB573F, size: 0x8, addend: 0x0, symName: __RNvXs_NtNtCsdze8u8oDPro_5alloc3vec11spec_extendINtB6_3VecNtNtCsATtFUPiRFW_3syn8generics14TypeParamBoundEINtB4_10SpecExtendBT_INtNtCs9f3LFPSIp77_4core6option8IntoIterBT_EE11spec_extendBX_, symObjAddr: 0x9A18, symBinAddr: 0x43A7C, symSize: 0x24 }
  - { offset: 0xB5791, size: 0x8, addend: 0x0, symName: __RNvXs_NtNtCsdze8u8oDPro_5alloc3vec11spec_extendINtB6_3VecNtNtCsATtFUPiRFW_3syn8generics14TypeParamBoundEINtB4_10SpecExtendBT_INtNtNtNtCs9f3LFPSIp77_4core4iter8adapters3map3MapINtNtB6_9into_iter8IntoIterTBT_NtNtBX_5token4PlusEENCNvXs8_NtBX_10punctuatedINtB3K_10PunctuatedBT_B3i_ENtNtNtB26_6traits7collect12IntoIterator9into_iter0EE11spec_extendBX_, symObjAddr: 0x9A3C, symBinAddr: 0x43AA0, symSize: 0x24 }
  - { offset: 0xB57EF, size: 0x8, addend: 0x0, symName: __RNvXNtNtCsdze8u8oDPro_5alloc3vec14spec_from_iterINtB4_3VecNtCs475r2uZUTuc_11proc_macro29TokenTreeEINtB2_12SpecFromIterBU_NtNtBW_12token_stream8IntoIterE9from_iterCsATtFUPiRFW_3syn, symObjAddr: 0x7C98, symBinAddr: 0x41CFC, symSize: 0x14 }
  - { offset: 0xB583A, size: 0x8, addend: 0x0, symName: __RNvXNtNtCsdze8u8oDPro_5alloc3vec21spec_from_iter_nestedINtB4_3VecNtCs475r2uZUTuc_11proc_macro29TokenTreeEINtB2_18SpecFromIterNestedB11_NtNtB13_12token_stream8IntoIterE9from_iterCsATtFUPiRFW_3syn, symObjAddr: 0x7CAC, symBinAddr: 0x41D10, symSize: 0x254 }
  - { offset: 0xB5B83, size: 0x8, addend: 0x0, symName: __RNvXs6_NtCsdze8u8oDPro_5alloc3vecINtB5_3VecNtNtCsATtFUPiRFW_3syn4attr9AttributeENtNtNtCs9f3LFPSIp77_4core3ops5deref5Deref5derefBJ_, symObjAddr: 0x83AC, symBinAddr: 0x42410, symSize: 0x24 }
  - { offset: 0xB5BC3, size: 0x8, addend: 0x0, symName: __RNvXs6_NtCsdze8u8oDPro_5alloc3vecINtB5_3VecNtNtCsATtFUPiRFW_3syn4expr3ArmENtNtNtCs9f3LFPSIp77_4core3ops5deref5Deref5derefBJ_, symObjAddr: 0x83D0, symBinAddr: 0x42434, symSize: 0x24 }
  - { offset: 0xB5C03, size: 0x8, addend: 0x0, symName: __RNvXs6_NtCsdze8u8oDPro_5alloc3vecINtB5_3VecNtNtCsATtFUPiRFW_3syn5error12ErrorMessageENtNtNtCs9f3LFPSIp77_4core3ops5deref5Deref5derefBJ_, symObjAddr: 0x83F4, symBinAddr: 0x42458, symSize: 0x24 }
  - { offset: 0xB5C43, size: 0x8, addend: 0x0, symName: __RNvXs6_NtCsdze8u8oDPro_5alloc3vecINtB5_3VecReENtNtNtCs9f3LFPSIp77_4core3ops5deref5Deref5derefCsATtFUPiRFW_3syn, symObjAddr: 0x8418, symBinAddr: 0x4247C, symSize: 0x24 }
  - { offset: 0xB5C83, size: 0x8, addend: 0x0, symName: __RNvXs6_NtCsdze8u8oDPro_5alloc3vecINtB5_3VecTNtNtCsATtFUPiRFW_3syn2ty4TypeNtNtBK_5token5CommaEENtNtNtCs9f3LFPSIp77_4core3ops5deref5Deref5derefBK_, symObjAddr: 0x843C, symBinAddr: 0x424A0, symSize: 0x24 }
  - { offset: 0xB5CC3, size: 0x8, addend: 0x0, symName: __RNvXs6_NtCsdze8u8oDPro_5alloc3vecINtB5_3VecTNtNtCsATtFUPiRFW_3syn2ty9BareFnArgNtNtBK_5token5CommaEENtNtNtCs9f3LFPSIp77_4core3ops5deref5Deref5derefBK_, symObjAddr: 0x8460, symBinAddr: 0x424C4, symSize: 0x24 }
  - { offset: 0xB5D03, size: 0x8, addend: 0x0, symName: __RNvXs6_NtCsdze8u8oDPro_5alloc3vecINtB5_3VecTNtNtCsATtFUPiRFW_3syn3pat3PatNtNtBK_5token2OrEENtNtNtCs9f3LFPSIp77_4core3ops5deref5Deref5derefBK_, symObjAddr: 0x8484, symBinAddr: 0x424E8, symSize: 0x24 }
  - { offset: 0xB5D43, size: 0x8, addend: 0x0, symName: __RNvXs6_NtCsdze8u8oDPro_5alloc3vecINtB5_3VecTNtNtCsATtFUPiRFW_3syn3pat3PatNtNtBK_5token5CommaEENtNtNtCs9f3LFPSIp77_4core3ops5deref5Deref5derefBK_, symObjAddr: 0x84A8, symBinAddr: 0x4250C, symSize: 0x24 }
  - { offset: 0xB5D83, size: 0x8, addend: 0x0, symName: __RNvXs6_NtCsdze8u8oDPro_5alloc3vecINtB5_3VecTNtNtCsATtFUPiRFW_3syn3pat8FieldPatNtNtBK_5token5CommaEENtNtNtCs9f3LFPSIp77_4core3ops5deref5Deref5derefBK_, symObjAddr: 0x84CC, symBinAddr: 0x42530, symSize: 0x24 }
  - { offset: 0xB5DC3, size: 0x8, addend: 0x0, symName: __RNvXs6_NtCsdze8u8oDPro_5alloc3vecINtB5_3VecTNtNtCsATtFUPiRFW_3syn4data5FieldNtNtBK_5token5CommaEENtNtNtCs9f3LFPSIp77_4core3ops5deref5Deref5derefBK_, symObjAddr: 0x84F0, symBinAddr: 0x42554, symSize: 0x24 }
  - { offset: 0xB5E03, size: 0x8, addend: 0x0, symName: __RNvXs6_NtCsdze8u8oDPro_5alloc3vecINtB5_3VecTNtNtCsATtFUPiRFW_3syn4data7VariantNtNtBK_5token5CommaEENtNtNtCs9f3LFPSIp77_4core3ops5deref5Deref5derefBK_, symObjAddr: 0x8514, symBinAddr: 0x42578, symSize: 0x24 }
  - { offset: 0xB5E43, size: 0x8, addend: 0x0, symName: __RNvXs6_NtCsdze8u8oDPro_5alloc3vecINtB5_3VecTNtNtCsATtFUPiRFW_3syn4expr10FieldValueNtNtBK_5token5CommaEENtNtNtCs9f3LFPSIp77_4core3ops5deref5Deref5derefBK_, symObjAddr: 0x8538, symBinAddr: 0x4259C, symSize: 0x24 }
  - { offset: 0xB5E83, size: 0x8, addend: 0x0, symName: __RNvXs6_NtCsdze8u8oDPro_5alloc3vecINtB5_3VecTNtNtCsATtFUPiRFW_3syn4expr4ExprNtNtBK_5token5CommaEENtNtNtCs9f3LFPSIp77_4core3ops5deref5Deref5derefBK_, symObjAddr: 0x855C, symBinAddr: 0x425C0, symSize: 0x24 }
  - { offset: 0xB5EC3, size: 0x8, addend: 0x0, symName: __RNvXs6_NtCsdze8u8oDPro_5alloc3vecINtB5_3VecTNtNtCsATtFUPiRFW_3syn4item5FnArgNtNtBK_5token5CommaEENtNtNtCs9f3LFPSIp77_4core3ops5deref5Deref5derefBK_, symObjAddr: 0x8580, symBinAddr: 0x425E4, symSize: 0x24 }
  - { offset: 0xB5F03, size: 0x8, addend: 0x0, symName: __RNvXs6_NtCsdze8u8oDPro_5alloc3vecINtB5_3VecTNtNtCsATtFUPiRFW_3syn4item7UseTreeNtNtBK_5token5CommaEENtNtNtCs9f3LFPSIp77_4core3ops5deref5Deref5derefBK_, symObjAddr: 0x85A4, symBinAddr: 0x42608, symSize: 0x24 }
  - { offset: 0xB5F43, size: 0x8, addend: 0x0, symName: __RNvXs6_NtCsdze8u8oDPro_5alloc3vecINtB5_3VecTNtNtCsATtFUPiRFW_3syn4path11PathSegmentNtNtBK_5token7PathSepEENtNtNtCs9f3LFPSIp77_4core3ops5deref5Deref5derefBK_, symObjAddr: 0x85C8, symBinAddr: 0x4262C, symSize: 0x24 }
  - { offset: 0xB5F83, size: 0x8, addend: 0x0, symName: __RNvXs6_NtCsdze8u8oDPro_5alloc3vecINtB5_3VecTNtNtCsATtFUPiRFW_3syn4path15GenericArgumentNtNtBK_5token5CommaEENtNtNtCs9f3LFPSIp77_4core3ops5deref5Deref5derefBK_, symObjAddr: 0x85EC, symBinAddr: 0x42650, symSize: 0x24 }
  - { offset: 0xB5FC3, size: 0x8, addend: 0x0, symName: __RNvXs6_NtCsdze8u8oDPro_5alloc3vecINtB5_3VecTNtNtCsATtFUPiRFW_3syn8generics12GenericParamNtNtBK_5token5CommaEENtNtNtCs9f3LFPSIp77_4core3ops5deref5Deref5derefBK_, symObjAddr: 0x8610, symBinAddr: 0x42674, symSize: 0x24 }
  - { offset: 0xB6003, size: 0x8, addend: 0x0, symName: __RNvXs6_NtCsdze8u8oDPro_5alloc3vecINtB5_3VecTNtNtCsATtFUPiRFW_3syn8generics13CapturedParamNtNtBK_5token5CommaEENtNtNtCs9f3LFPSIp77_4core3ops5deref5Deref5derefBK_, symObjAddr: 0x8634, symBinAddr: 0x42698, symSize: 0x24 }
  - { offset: 0xB6043, size: 0x8, addend: 0x0, symName: __RNvXs6_NtCsdze8u8oDPro_5alloc3vecINtB5_3VecTNtNtCsATtFUPiRFW_3syn8generics14TypeParamBoundNtNtBK_5token4PlusEENtNtNtCs9f3LFPSIp77_4core3ops5deref5Deref5derefBK_, symObjAddr: 0x8658, symBinAddr: 0x426BC, symSize: 0x24 }
  - { offset: 0xB6083, size: 0x8, addend: 0x0, symName: __RNvXs6_NtCsdze8u8oDPro_5alloc3vecINtB5_3VecTNtNtCsATtFUPiRFW_3syn8generics14WherePredicateNtNtBK_5token5CommaEENtNtNtCs9f3LFPSIp77_4core3ops5deref5Deref5derefBK_, symObjAddr: 0x867C, symBinAddr: 0x426E0, symSize: 0x24 }
  - { offset: 0xB60C3, size: 0x8, addend: 0x0, symName: __RNvXs6_NtCsdze8u8oDPro_5alloc3vecINtB5_3VecTNtNtCsATtFUPiRFW_3syn8lifetime8LifetimeNtNtBK_5token4PlusEENtNtNtCs9f3LFPSIp77_4core3ops5deref5Deref5derefBK_, symObjAddr: 0x86A0, symBinAddr: 0x42704, symSize: 0x24 }
  - { offset: 0xB6103, size: 0x8, addend: 0x0, symName: __RNvXs6_NtCsdze8u8oDPro_5alloc3vecINtB5_3VechENtNtNtCs9f3LFPSIp77_4core3ops5deref5Deref5derefCsATtFUPiRFW_3syn, symObjAddr: 0x86C4, symBinAddr: 0x42728, symSize: 0x24 }
  - { offset: 0xB7229, size: 0x8, addend: 0x0, symName: __RNvXs7_NtCsdze8u8oDPro_5alloc3vecINtB5_3VecTNtNtCsATtFUPiRFW_3syn4data5FieldNtNtBK_5token5CommaEENtNtNtCs9f3LFPSIp77_4core3ops5deref8DerefMut9deref_mutBK_, symObjAddr: 0x86E8, symBinAddr: 0x4274C, symSize: 0x24 }
  - { offset: 0xB7269, size: 0x8, addend: 0x0, symName: __RNvXs7_NtCsdze8u8oDPro_5alloc3vecINtB5_3VecTNtNtCsATtFUPiRFW_3syn4path11PathSegmentNtNtBK_5token7PathSepEENtNtNtCs9f3LFPSIp77_4core3ops5deref8DerefMut9deref_mutBK_, symObjAddr: 0x870C, symBinAddr: 0x42770, symSize: 0x24 }
  - { offset: 0xB72A9, size: 0x8, addend: 0x0, symName: __RNvXs7_NtCsdze8u8oDPro_5alloc3vecINtB5_3VecTNtNtCsATtFUPiRFW_3syn8generics12GenericParamNtNtBK_5token5CommaEENtNtNtCs9f3LFPSIp77_4core3ops5deref8DerefMut9deref_mutBK_, symObjAddr: 0x8730, symBinAddr: 0x42794, symSize: 0x24 }
  - { offset: 0xB737F, size: 0x8, addend: 0x0, symName: __RNvXs9_NtCsdze8u8oDPro_5alloc3vecINtB5_3VecNtNtCsATtFUPiRFW_3syn4attr9AttributeENtNtCs9f3LFPSIp77_4core5clone5Clone5cloneBJ_, symObjAddr: 0x8754, symBinAddr: 0x427B8, symSize: 0xB0 }
  - { offset: 0xB75E3, size: 0x8, addend: 0x0, symName: __RNvXs9_NtCsdze8u8oDPro_5alloc3vecINtB5_3VecNtNtCsATtFUPiRFW_3syn4expr3ArmENtNtCs9f3LFPSIp77_4core5clone5Clone5cloneBJ_, symObjAddr: 0x8804, symBinAddr: 0x42868, symSize: 0xB0 }
  - { offset: 0xB7847, size: 0x8, addend: 0x0, symName: __RNvXs9_NtCsdze8u8oDPro_5alloc3vecINtB5_3VecNtNtCsATtFUPiRFW_3syn4item11ForeignItemENtNtCs9f3LFPSIp77_4core5clone5Clone5cloneBJ_, symObjAddr: 0x88B4, symBinAddr: 0x42918, symSize: 0xB0 }
  - { offset: 0xB7AAB, size: 0x8, addend: 0x0, symName: __RNvXs9_NtCsdze8u8oDPro_5alloc3vecINtB5_3VecNtNtCsATtFUPiRFW_3syn4item4ItemENtNtCs9f3LFPSIp77_4core5clone5Clone5cloneBJ_, symObjAddr: 0x8964, symBinAddr: 0x429C8, symSize: 0xB0 }
  - { offset: 0xB7D0F, size: 0x8, addend: 0x0, symName: __RNvXs9_NtCsdze8u8oDPro_5alloc3vecINtB5_3VecNtNtCsATtFUPiRFW_3syn4item8ImplItemENtNtCs9f3LFPSIp77_4core5clone5Clone5cloneBJ_, symObjAddr: 0x8A14, symBinAddr: 0x42A78, symSize: 0xB0 }
  - { offset: 0xB7F73, size: 0x8, addend: 0x0, symName: __RNvXs9_NtCsdze8u8oDPro_5alloc3vecINtB5_3VecNtNtCsATtFUPiRFW_3syn4item9TraitItemENtNtCs9f3LFPSIp77_4core5clone5Clone5cloneBJ_, symObjAddr: 0x8AC4, symBinAddr: 0x42B28, symSize: 0xB0 }
  - { offset: 0xB81D7, size: 0x8, addend: 0x0, symName: __RNvXs9_NtCsdze8u8oDPro_5alloc3vecINtB5_3VecNtNtCsATtFUPiRFW_3syn4stmt4StmtENtNtCs9f3LFPSIp77_4core5clone5Clone5cloneBJ_, symObjAddr: 0x8B74, symBinAddr: 0x42BD8, symSize: 0xB0 }
  - { offset: 0xB843B, size: 0x8, addend: 0x0, symName: __RNvXs9_NtCsdze8u8oDPro_5alloc3vecINtB5_3VecNtNtCsATtFUPiRFW_3syn5error12ErrorMessageENtNtCs9f3LFPSIp77_4core5clone5Clone5cloneBJ_, symObjAddr: 0x8C24, symBinAddr: 0x42C88, symSize: 0xB0 }
  - { offset: 0xB869F, size: 0x8, addend: 0x0, symName: __RNvXs9_NtCsdze8u8oDPro_5alloc3vecINtB5_3VecTNtNtCsATtFUPiRFW_3syn2ty4TypeNtNtBK_5token5CommaEENtNtCs9f3LFPSIp77_4core5clone5Clone5cloneBK_, symObjAddr: 0x8CD4, symBinAddr: 0x42D38, symSize: 0xB0 }
  - { offset: 0xB8903, size: 0x8, addend: 0x0, symName: __RNvXs9_NtCsdze8u8oDPro_5alloc3vecINtB5_3VecTNtNtCsATtFUPiRFW_3syn2ty9BareFnArgNtNtBK_5token5CommaEENtNtCs9f3LFPSIp77_4core5clone5Clone5cloneBK_, symObjAddr: 0x8D84, symBinAddr: 0x42DE8, symSize: 0xB0 }
  - { offset: 0xB8B67, size: 0x8, addend: 0x0, symName: __RNvXs9_NtCsdze8u8oDPro_5alloc3vecINtB5_3VecTNtNtCsATtFUPiRFW_3syn3pat3PatNtNtBK_5token2OrEENtNtCs9f3LFPSIp77_4core5clone5Clone5cloneBK_, symObjAddr: 0x8E34, symBinAddr: 0x42E98, symSize: 0xB0 }
  - { offset: 0xB8DCB, size: 0x8, addend: 0x0, symName: __RNvXs9_NtCsdze8u8oDPro_5alloc3vecINtB5_3VecTNtNtCsATtFUPiRFW_3syn3pat3PatNtNtBK_5token5CommaEENtNtCs9f3LFPSIp77_4core5clone5Clone5cloneBK_, symObjAddr: 0x8EE4, symBinAddr: 0x42F48, symSize: 0xB0 }
  - { offset: 0xB902F, size: 0x8, addend: 0x0, symName: __RNvXs9_NtCsdze8u8oDPro_5alloc3vecINtB5_3VecTNtNtCsATtFUPiRFW_3syn3pat8FieldPatNtNtBK_5token5CommaEENtNtCs9f3LFPSIp77_4core5clone5Clone5cloneBK_, symObjAddr: 0x8F94, symBinAddr: 0x42FF8, symSize: 0xB0 }
  - { offset: 0xB9293, size: 0x8, addend: 0x0, symName: __RNvXs9_NtCsdze8u8oDPro_5alloc3vecINtB5_3VecTNtNtCsATtFUPiRFW_3syn4data5FieldNtNtBK_5token5CommaEENtNtCs9f3LFPSIp77_4core5clone5Clone5cloneBK_, symObjAddr: 0x9044, symBinAddr: 0x430A8, symSize: 0xB0 }
  - { offset: 0xB94F7, size: 0x8, addend: 0x0, symName: __RNvXs9_NtCsdze8u8oDPro_5alloc3vecINtB5_3VecTNtNtCsATtFUPiRFW_3syn4data7VariantNtNtBK_5token5CommaEENtNtCs9f3LFPSIp77_4core5clone5Clone5cloneBK_, symObjAddr: 0x90F4, symBinAddr: 0x43158, symSize: 0xB0 }
  - { offset: 0xB975B, size: 0x8, addend: 0x0, symName: __RNvXs9_NtCsdze8u8oDPro_5alloc3vecINtB5_3VecTNtNtCsATtFUPiRFW_3syn4expr10FieldValueNtNtBK_5token5CommaEENtNtCs9f3LFPSIp77_4core5clone5Clone5cloneBK_, symObjAddr: 0x91A4, symBinAddr: 0x43208, symSize: 0xB0 }
  - { offset: 0xB99BF, size: 0x8, addend: 0x0, symName: __RNvXs9_NtCsdze8u8oDPro_5alloc3vecINtB5_3VecTNtNtCsATtFUPiRFW_3syn4expr4ExprNtNtBK_5token5CommaEENtNtCs9f3LFPSIp77_4core5clone5Clone5cloneBK_, symObjAddr: 0x9254, symBinAddr: 0x432B8, symSize: 0xB0 }
  - { offset: 0xB9C23, size: 0x8, addend: 0x0, symName: __RNvXs9_NtCsdze8u8oDPro_5alloc3vecINtB5_3VecTNtNtCsATtFUPiRFW_3syn4item5FnArgNtNtBK_5token5CommaEENtNtCs9f3LFPSIp77_4core5clone5Clone5cloneBK_, symObjAddr: 0x9304, symBinAddr: 0x43368, symSize: 0xB0 }
  - { offset: 0xB9E87, size: 0x8, addend: 0x0, symName: __RNvXs9_NtCsdze8u8oDPro_5alloc3vecINtB5_3VecTNtNtCsATtFUPiRFW_3syn4item7UseTreeNtNtBK_5token5CommaEENtNtCs9f3LFPSIp77_4core5clone5Clone5cloneBK_, symObjAddr: 0x93B4, symBinAddr: 0x43418, symSize: 0xB0 }
  - { offset: 0xBA0EB, size: 0x8, addend: 0x0, symName: __RNvXs9_NtCsdze8u8oDPro_5alloc3vecINtB5_3VecTNtNtCsATtFUPiRFW_3syn4path11PathSegmentNtNtBK_5token7PathSepEENtNtCs9f3LFPSIp77_4core5clone5Clone5cloneBK_, symObjAddr: 0x9464, symBinAddr: 0x434C8, symSize: 0xB0 }
  - { offset: 0xBA34F, size: 0x8, addend: 0x0, symName: __RNvXs9_NtCsdze8u8oDPro_5alloc3vecINtB5_3VecTNtNtCsATtFUPiRFW_3syn4path15GenericArgumentNtNtBK_5token5CommaEENtNtCs9f3LFPSIp77_4core5clone5Clone5cloneBK_, symObjAddr: 0x9514, symBinAddr: 0x43578, symSize: 0xB0 }
  - { offset: 0xBA5B3, size: 0x8, addend: 0x0, symName: __RNvXs9_NtCsdze8u8oDPro_5alloc3vecINtB5_3VecTNtNtCsATtFUPiRFW_3syn8generics12GenericParamNtNtBK_5token5CommaEENtNtCs9f3LFPSIp77_4core5clone5Clone5cloneBK_, symObjAddr: 0x95C4, symBinAddr: 0x43628, symSize: 0xB0 }
  - { offset: 0xBA817, size: 0x8, addend: 0x0, symName: __RNvXs9_NtCsdze8u8oDPro_5alloc3vecINtB5_3VecTNtNtCsATtFUPiRFW_3syn8generics13CapturedParamNtNtBK_5token5CommaEENtNtCs9f3LFPSIp77_4core5clone5Clone5cloneBK_, symObjAddr: 0x9674, symBinAddr: 0x436D8, symSize: 0xB0 }
  - { offset: 0xBAA7B, size: 0x8, addend: 0x0, symName: __RNvXs9_NtCsdze8u8oDPro_5alloc3vecINtB5_3VecTNtNtCsATtFUPiRFW_3syn8generics14TypeParamBoundNtNtBK_5token4PlusEENtNtCs9f3LFPSIp77_4core5clone5Clone5cloneBK_, symObjAddr: 0x9724, symBinAddr: 0x43788, symSize: 0xB0 }
  - { offset: 0xBACDF, size: 0x8, addend: 0x0, symName: __RNvXs9_NtCsdze8u8oDPro_5alloc3vecINtB5_3VecTNtNtCsATtFUPiRFW_3syn8generics14WherePredicateNtNtBK_5token5CommaEENtNtCs9f3LFPSIp77_4core5clone5Clone5cloneBK_, symObjAddr: 0x97D4, symBinAddr: 0x43838, symSize: 0xB0 }
  - { offset: 0xBAF43, size: 0x8, addend: 0x0, symName: __RNvXs9_NtCsdze8u8oDPro_5alloc3vecINtB5_3VecTNtNtCsATtFUPiRFW_3syn8lifetime8LifetimeNtNtBK_5token4PlusEENtNtCs9f3LFPSIp77_4core5clone5Clone5cloneBK_, symObjAddr: 0x9884, symBinAddr: 0x438E8, symSize: 0xB0 }
  - { offset: 0xBB1AD, size: 0x8, addend: 0x0, symName: __RNvXsb_NtCsdze8u8oDPro_5alloc3vecINtB5_3VecNtNtCsATtFUPiRFW_3syn4attr9AttributeEINtNtNtCs9f3LFPSIp77_4core3ops5index5IndexNtNtB1l_5range9RangeFullE5indexBJ_, symObjAddr: 0x9A60, symBinAddr: 0x43AC4, symSize: 0x90 }
  - { offset: 0xBB38B, size: 0x8, addend: 0x0, symName: __RNvXsb_NtCsdze8u8oDPro_5alloc3vecINtB5_3VecNtNtCsATtFUPiRFW_3syn4expr3ArmEINtNtNtCs9f3LFPSIp77_4core3ops5index5IndexNtNtB1f_5range9RangeFullE5indexBJ_, symObjAddr: 0x9AF0, symBinAddr: 0x43B54, symSize: 0x90 }
  - { offset: 0xBB569, size: 0x8, addend: 0x0, symName: __RNvXsb_NtCsdze8u8oDPro_5alloc3vecINtB5_3VecNtNtCsATtFUPiRFW_3syn4item11ForeignItemEINtNtNtCs9f3LFPSIp77_4core3ops5index5IndexNtNtB1o_5range9RangeFullE5indexBJ_, symObjAddr: 0x9B80, symBinAddr: 0x43BE4, symSize: 0x90 }
  - { offset: 0xBB747, size: 0x8, addend: 0x0, symName: __RNvXsb_NtCsdze8u8oDPro_5alloc3vecINtB5_3VecNtNtCsATtFUPiRFW_3syn4item4ItemEINtNtNtCs9f3LFPSIp77_4core3ops5index5IndexNtNtB1g_5range9RangeFullE5indexBJ_, symObjAddr: 0x9C10, symBinAddr: 0x43C74, symSize: 0x90 }
  - { offset: 0xBB925, size: 0x8, addend: 0x0, symName: __RNvXsb_NtCsdze8u8oDPro_5alloc3vecINtB5_3VecNtNtCsATtFUPiRFW_3syn4item8ImplItemEINtNtNtCs9f3LFPSIp77_4core3ops5index5IndexNtNtB1k_5range9RangeFullE5indexBJ_, symObjAddr: 0x9CA0, symBinAddr: 0x43D04, symSize: 0x90 }
  - { offset: 0xBBB03, size: 0x8, addend: 0x0, symName: __RNvXsb_NtCsdze8u8oDPro_5alloc3vecINtB5_3VecNtNtCsATtFUPiRFW_3syn4item9TraitItemEINtNtNtCs9f3LFPSIp77_4core3ops5index5IndexNtNtB1l_5range9RangeFullE5indexBJ_, symObjAddr: 0x9D30, symBinAddr: 0x43D94, symSize: 0x90 }
  - { offset: 0xBBCE1, size: 0x8, addend: 0x0, symName: __RNvXsb_NtCsdze8u8oDPro_5alloc3vecINtB5_3VecNtNtCsATtFUPiRFW_3syn4stmt4StmtEINtNtNtCs9f3LFPSIp77_4core3ops5index5IndexNtNtB1g_5range9RangeFullE5indexBJ_, symObjAddr: 0x9DC0, symBinAddr: 0x43E24, symSize: 0x90 }
  - { offset: 0xBBEBF, size: 0x8, addend: 0x0, symName: __RNvXsb_NtCsdze8u8oDPro_5alloc3vecINtB5_3VecNtNtCsATtFUPiRFW_3syn5error12ErrorMessageEINtNtNtCs9f3LFPSIp77_4core3ops5index5IndexjE5indexBJ_, symObjAddr: 0x9E50, symBinAddr: 0x43EB4, symSize: 0x9C }
  - { offset: 0xBC09D, size: 0x8, addend: 0x0, symName: __RNvXsb_NtCsdze8u8oDPro_5alloc3vecINtB5_3VecReEINtNtNtCs9f3LFPSIp77_4core3ops5index5IndexjE5indexCsATtFUPiRFW_3syn, symObjAddr: 0x9EEC, symBinAddr: 0x43F50, symSize: 0x9C }
  - { offset: 0xBC27B, size: 0x8, addend: 0x0, symName: __RNvXsb_NtCsdze8u8oDPro_5alloc3vecINtB5_3VecTNtNtCsATtFUPiRFW_3syn2ty4TypeNtNtBK_5token5CommaEEINtNtNtCs9f3LFPSIp77_4core3ops5index5IndexNtNtB1z_5range9RangeFullE5indexBK_, symObjAddr: 0x9F88, symBinAddr: 0x43FEC, symSize: 0x90 }
  - { offset: 0xBC459, size: 0x8, addend: 0x0, symName: __RNvXsb_NtCsdze8u8oDPro_5alloc3vecINtB5_3VecTNtNtCsATtFUPiRFW_3syn2ty9BareFnArgNtNtBK_5token5CommaEEINtNtNtCs9f3LFPSIp77_4core3ops5index5IndexNtNtB1E_5range9RangeFullE5indexBK_, symObjAddr: 0xA018, symBinAddr: 0x4407C, symSize: 0x90 }
  - { offset: 0xBC637, size: 0x8, addend: 0x0, symName: __RNvXsb_NtCsdze8u8oDPro_5alloc3vecINtB5_3VecTNtNtCsATtFUPiRFW_3syn3pat3PatNtNtBK_5token2OrEEINtNtNtCs9f3LFPSIp77_4core3ops5index5IndexNtNtB1w_5range9RangeFullE5indexBK_, symObjAddr: 0xA0A8, symBinAddr: 0x4410C, symSize: 0x90 }
  - { offset: 0xBC815, size: 0x8, addend: 0x0, symName: __RNvXsb_NtCsdze8u8oDPro_5alloc3vecINtB5_3VecTNtNtCsATtFUPiRFW_3syn3pat3PatNtNtBK_5token5CommaEEINtNtNtCs9f3LFPSIp77_4core3ops5index5IndexNtNtB1z_5range9RangeFullE5indexBK_, symObjAddr: 0xA138, symBinAddr: 0x4419C, symSize: 0x90 }
  - { offset: 0xBC9F3, size: 0x8, addend: 0x0, symName: __RNvXsb_NtCsdze8u8oDPro_5alloc3vecINtB5_3VecTNtNtCsATtFUPiRFW_3syn3pat3PatNtNtBK_5token5CommaEEINtNtNtCs9f3LFPSIp77_4core3ops5index5IndexjE5indexBK_, symObjAddr: 0xA1C8, symBinAddr: 0x4422C, symSize: 0x9C }
  - { offset: 0xBCBD1, size: 0x8, addend: 0x0, symName: __RNvXsb_NtCsdze8u8oDPro_5alloc3vecINtB5_3VecTNtNtCsATtFUPiRFW_3syn3pat8FieldPatNtNtBK_5token5CommaEEINtNtNtCs9f3LFPSIp77_4core3ops5index5IndexNtNtB1E_5range9RangeFullE5indexBK_, symObjAddr: 0xA264, symBinAddr: 0x442C8, symSize: 0x90 }
  - { offset: 0xBCDAF, size: 0x8, addend: 0x0, symName: __RNvXsb_NtCsdze8u8oDPro_5alloc3vecINtB5_3VecTNtNtCsATtFUPiRFW_3syn4data5FieldNtNtBK_5token5CommaEEINtNtNtCs9f3LFPSIp77_4core3ops5index5IndexNtNtB1C_5range9RangeFullE5indexBK_, symObjAddr: 0xA2F4, symBinAddr: 0x44358, symSize: 0x90 }
  - { offset: 0xBCF8D, size: 0x8, addend: 0x0, symName: __RNvXsb_NtCsdze8u8oDPro_5alloc3vecINtB5_3VecTNtNtCsATtFUPiRFW_3syn4data7VariantNtNtBK_5token5CommaEEINtNtNtCs9f3LFPSIp77_4core3ops5index5IndexNtNtB1E_5range9RangeFullE5indexBK_, symObjAddr: 0xA384, symBinAddr: 0x443E8, symSize: 0x90 }
  - { offset: 0xBD16B, size: 0x8, addend: 0x0, symName: __RNvXsb_NtCsdze8u8oDPro_5alloc3vecINtB5_3VecTNtNtCsATtFUPiRFW_3syn4expr10FieldValueNtNtBK_5token5CommaEEINtNtNtCs9f3LFPSIp77_4core3ops5index5IndexNtNtB1I_5range9RangeFullE5indexBK_, symObjAddr: 0xA414, symBinAddr: 0x44478, symSize: 0x90 }
  - { offset: 0xBD349, size: 0x8, addend: 0x0, symName: __RNvXsb_NtCsdze8u8oDPro_5alloc3vecINtB5_3VecTNtNtCsATtFUPiRFW_3syn4expr4ExprNtNtBK_5token5CommaEEINtNtNtCs9f3LFPSIp77_4core3ops5index5IndexNtNtB1B_5range9RangeFullE5indexBK_, symObjAddr: 0xA4A4, symBinAddr: 0x44508, symSize: 0x90 }
  - { offset: 0xBD527, size: 0x8, addend: 0x0, symName: __RNvXsb_NtCsdze8u8oDPro_5alloc3vecINtB5_3VecTNtNtCsATtFUPiRFW_3syn4item5FnArgNtNtBK_5token5CommaEEINtNtNtCs9f3LFPSIp77_4core3ops5index5IndexNtNtB1C_5range9RangeFullE5indexBK_, symObjAddr: 0xA534, symBinAddr: 0x44598, symSize: 0x90 }
  - { offset: 0xBD705, size: 0x8, addend: 0x0, symName: __RNvXsb_NtCsdze8u8oDPro_5alloc3vecINtB5_3VecTNtNtCsATtFUPiRFW_3syn4item7UseTreeNtNtBK_5token5CommaEEINtNtNtCs9f3LFPSIp77_4core3ops5index5IndexNtNtB1E_5range9RangeFullE5indexBK_, symObjAddr: 0xA5C4, symBinAddr: 0x44628, symSize: 0x90 }
  - { offset: 0xBD8E3, size: 0x8, addend: 0x0, symName: __RNvXsb_NtCsdze8u8oDPro_5alloc3vecINtB5_3VecTNtNtCsATtFUPiRFW_3syn4path11PathSegmentNtNtBK_5token7PathSepEEINtNtNtCs9f3LFPSIp77_4core3ops5index5IndexNtNtB1L_5range9RangeFullE5indexBK_, symObjAddr: 0xA654, symBinAddr: 0x446B8, symSize: 0x90 }
  - { offset: 0xBDAC1, size: 0x8, addend: 0x0, symName: __RNvXsb_NtCsdze8u8oDPro_5alloc3vecINtB5_3VecTNtNtCsATtFUPiRFW_3syn4path11PathSegmentNtNtBK_5token7PathSepEEINtNtNtCs9f3LFPSIp77_4core3ops5index5IndexjE5indexBK_, symObjAddr: 0xA6E4, symBinAddr: 0x44748, symSize: 0x9C }
  - { offset: 0xBDC9F, size: 0x8, addend: 0x0, symName: __RNvXsb_NtCsdze8u8oDPro_5alloc3vecINtB5_3VecTNtNtCsATtFUPiRFW_3syn4path15GenericArgumentNtNtBK_5token5CommaEEINtNtNtCs9f3LFPSIp77_4core3ops5index5IndexNtNtB1N_5range9RangeFullE5indexBK_, symObjAddr: 0xA780, symBinAddr: 0x447E4, symSize: 0x90 }
  - { offset: 0xBDE7D, size: 0x8, addend: 0x0, symName: __RNvXsb_NtCsdze8u8oDPro_5alloc3vecINtB5_3VecTNtNtCsATtFUPiRFW_3syn8generics12GenericParamNtNtBK_5token5CommaEEINtNtNtCs9f3LFPSIp77_4core3ops5index5IndexNtNtB1O_5range9RangeFullE5indexBK_, symObjAddr: 0xA810, symBinAddr: 0x44874, symSize: 0x90 }
  - { offset: 0xBE05B, size: 0x8, addend: 0x0, symName: __RNvXsb_NtCsdze8u8oDPro_5alloc3vecINtB5_3VecTNtNtCsATtFUPiRFW_3syn8generics13CapturedParamNtNtBK_5token5CommaEEINtNtNtCs9f3LFPSIp77_4core3ops5index5IndexNtNtB1P_5range9RangeFullE5indexBK_, symObjAddr: 0xA8A0, symBinAddr: 0x44904, symSize: 0x90 }
  - { offset: 0xBE239, size: 0x8, addend: 0x0, symName: __RNvXsb_NtCsdze8u8oDPro_5alloc3vecINtB5_3VecTNtNtCsATtFUPiRFW_3syn8generics14TypeParamBoundNtNtBK_5token4PlusEEINtNtNtCs9f3LFPSIp77_4core3ops5index5IndexNtNtB1P_5range9RangeFullE5indexBK_, symObjAddr: 0xA930, symBinAddr: 0x44994, symSize: 0x90 }
  - { offset: 0xBE417, size: 0x8, addend: 0x0, symName: __RNvXsb_NtCsdze8u8oDPro_5alloc3vecINtB5_3VecTNtNtCsATtFUPiRFW_3syn8generics14WherePredicateNtNtBK_5token5CommaEEINtNtNtCs9f3LFPSIp77_4core3ops5index5IndexNtNtB1Q_5range9RangeFullE5indexBK_, symObjAddr: 0xA9C0, symBinAddr: 0x44A24, symSize: 0x90 }
  - { offset: 0xBE5F5, size: 0x8, addend: 0x0, symName: __RNvXsb_NtCsdze8u8oDPro_5alloc3vecINtB5_3VecTNtNtCsATtFUPiRFW_3syn8lifetime8LifetimeNtNtBK_5token4PlusEEINtNtNtCs9f3LFPSIp77_4core3ops5index5IndexNtNtB1I_5range9RangeFullE5indexBK_, symObjAddr: 0xAA50, symBinAddr: 0x44AB4, symSize: 0x90 }
  - { offset: 0xBE7D3, size: 0x8, addend: 0x0, symName: __RNvXsb_NtCsdze8u8oDPro_5alloc3vecINtB5_3VechEINtNtNtCs9f3LFPSIp77_4core3ops5index5IndexINtNtBM_5range9RangeFromjEE5indexCsATtFUPiRFW_3syn, symObjAddr: 0xAAE0, symBinAddr: 0x44B44, symSize: 0x98 }
  - { offset: 0xBE9B1, size: 0x8, addend: 0x0, symName: __RNvXsb_NtCsdze8u8oDPro_5alloc3vecINtB5_3VechEINtNtNtCs9f3LFPSIp77_4core3ops5index5IndexjE5indexCsATtFUPiRFW_3syn, symObjAddr: 0xAB78, symBinAddr: 0x44BDC, symSize: 0x98 }
  - { offset: 0xBEB95, size: 0x8, addend: 0x0, symName: __RNvXsc_NtCsdze8u8oDPro_5alloc3vecINtB5_3VecNtNtCsATtFUPiRFW_3syn6buffer5EntryEINtNtNtCs9f3LFPSIp77_4core3ops5index8IndexMutjE9index_mutBJ_, symObjAddr: 0xAC10, symBinAddr: 0x44C74, symSize: 0x9C }
  - { offset: 0xBED46, size: 0x8, addend: 0x0, symName: __RNvXsc_NtCsdze8u8oDPro_5alloc3vecINtB5_3VechEINtNtNtCs9f3LFPSIp77_4core3ops5index8IndexMutjE9index_mutCsATtFUPiRFW_3syn, symObjAddr: 0xACAC, symBinAddr: 0x44D10, symSize: 0x98 }
  - { offset: 0xBEEFD, size: 0x8, addend: 0x0, symName: __RNvXse_NtCsdze8u8oDPro_5alloc3vecINtB5_3VecNtNtCsATtFUPiRFW_3syn4attr9AttributeENtNtNtNtCs9f3LFPSIp77_4core4iter6traits7collect12IntoIterator9into_iterBJ_, symObjAddr: 0xAD44, symBinAddr: 0x44DA8, symSize: 0xF8 }
  - { offset: 0xBF1CC, size: 0x8, addend: 0x0, symName: __RNvXse_NtCsdze8u8oDPro_5alloc3vecINtB5_3VecNtNtCsATtFUPiRFW_3syn4data5FieldENtNtNtNtCs9f3LFPSIp77_4core4iter6traits7collect12IntoIterator9into_iterBJ_, symObjAddr: 0xAE3C, symBinAddr: 0x44EA0, symSize: 0x100 }
  - { offset: 0xBF49B, size: 0x8, addend: 0x0, symName: __RNvXse_NtCsdze8u8oDPro_5alloc3vecINtB5_3VecNtNtCsATtFUPiRFW_3syn5error12ErrorMessageENtNtNtNtCs9f3LFPSIp77_4core4iter6traits7collect12IntoIterator9into_iterBJ_, symObjAddr: 0xAF3C, symBinAddr: 0x44FA0, symSize: 0x100 }
  - { offset: 0xBF76A, size: 0x8, addend: 0x0, symName: __RNvXse_NtCsdze8u8oDPro_5alloc3vecINtB5_3VecNtNtCsATtFUPiRFW_3syn8generics14TypeParamBoundENtNtNtNtCs9f3LFPSIp77_4core4iter6traits7collect12IntoIterator9into_iterBJ_, symObjAddr: 0xB03C, symBinAddr: 0x450A0, symSize: 0x100 }
  - { offset: 0xBFA39, size: 0x8, addend: 0x0, symName: __RNvXse_NtCsdze8u8oDPro_5alloc3vecINtB5_3VecTNtNtCsATtFUPiRFW_3syn4data5FieldNtNtBK_5token5CommaEENtNtNtNtCs9f3LFPSIp77_4core4iter6traits7collect12IntoIterator9into_iterBK_, symObjAddr: 0xB13C, symBinAddr: 0x451A0, symSize: 0x100 }
  - { offset: 0xBFD08, size: 0x8, addend: 0x0, symName: __RNvXse_NtCsdze8u8oDPro_5alloc3vecINtB5_3VecTNtNtCsATtFUPiRFW_3syn4data5FielduEENtNtNtNtCs9f3LFPSIp77_4core4iter6traits7collect12IntoIterator9into_iterBK_, symObjAddr: 0xB23C, symBinAddr: 0x452A0, symSize: 0x100 }
  - { offset: 0xBFFD7, size: 0x8, addend: 0x0, symName: __RNvXse_NtCsdze8u8oDPro_5alloc3vecINtB5_3VecTNtNtCsATtFUPiRFW_3syn4path11PathSegmentNtNtBK_5token7PathSepEENtNtNtNtCs9f3LFPSIp77_4core4iter6traits7collect12IntoIterator9into_iterBK_, symObjAddr: 0xB33C, symBinAddr: 0x453A0, symSize: 0x100 }
  - { offset: 0xC02A6, size: 0x8, addend: 0x0, symName: __RNvXse_NtCsdze8u8oDPro_5alloc3vecINtB5_3VecTNtNtCsATtFUPiRFW_3syn8generics14TypeParamBoundNtNtBK_5token4PlusEENtNtNtNtCs9f3LFPSIp77_4core4iter6traits7collect12IntoIterator9into_iterBK_, symObjAddr: 0xB43C, symBinAddr: 0x454A0, symSize: 0xF8 }
  - { offset: 0xC057B, size: 0x8, addend: 0x0, symName: __RNvXsf_NtCsdze8u8oDPro_5alloc3vecRINtB5_3VecNtNtCsATtFUPiRFW_3syn4attr9AttributeENtNtNtNtCs9f3LFPSIp77_4core4iter6traits7collect12IntoIterator9into_iterBK_, symObjAddr: 0xB534, symBinAddr: 0x45598, symSize: 0xB0 }
  - { offset: 0xC07FB, size: 0x8, addend: 0x0, symName: __RNvXsf_NtCsdze8u8oDPro_5alloc3vecRINtB5_3VecNtNtCsATtFUPiRFW_3syn4item11ForeignItemENtNtNtNtCs9f3LFPSIp77_4core4iter6traits7collect12IntoIterator9into_iterBK_, symObjAddr: 0xB5E4, symBinAddr: 0x45648, symSize: 0xB8 }
  - { offset: 0xC0A7B, size: 0x8, addend: 0x0, symName: __RNvXsf_NtCsdze8u8oDPro_5alloc3vecRINtB5_3VecNtNtCsATtFUPiRFW_3syn4item4ItemENtNtNtNtCs9f3LFPSIp77_4core4iter6traits7collect12IntoIterator9into_iterBK_, symObjAddr: 0xB69C, symBinAddr: 0x45700, symSize: 0xB8 }
  - { offset: 0xC0CFB, size: 0x8, addend: 0x0, symName: __RNvXsf_NtCsdze8u8oDPro_5alloc3vecRINtB5_3VecNtNtCsATtFUPiRFW_3syn4item8ImplItemENtNtNtNtCs9f3LFPSIp77_4core4iter6traits7collect12IntoIterator9into_iterBK_, symObjAddr: 0xB754, symBinAddr: 0x457B8, symSize: 0xB8 }
  - { offset: 0xC0F7B, size: 0x8, addend: 0x0, symName: __RNvXsf_NtCsdze8u8oDPro_5alloc3vecRINtB5_3VecNtNtCsATtFUPiRFW_3syn4item9TraitItemENtNtNtNtCs9f3LFPSIp77_4core4iter6traits7collect12IntoIterator9into_iterBK_, symObjAddr: 0xB80C, symBinAddr: 0x45870, symSize: 0xB8 }
  - { offset: 0xC11FB, size: 0x8, addend: 0x0, symName: __RNvXsf_NtCsdze8u8oDPro_5alloc3vecRINtB5_3VecNtNtCsATtFUPiRFW_3syn4stmt4StmtENtNtNtNtCs9f3LFPSIp77_4core4iter6traits7collect12IntoIterator9into_iterBK_, symObjAddr: 0xB8C4, symBinAddr: 0x45928, symSize: 0xB8 }
  - { offset: 0xC147B, size: 0x8, addend: 0x0, symName: __RNvXsf_NtCsdze8u8oDPro_5alloc3vecRINtB5_3VecTNtNtCsATtFUPiRFW_3syn2ty4TypeNtNtBL_5token5CommaEENtNtNtNtCs9f3LFPSIp77_4core4iter6traits7collect12IntoIterator9into_iterBL_, symObjAddr: 0xB97C, symBinAddr: 0x459E0, symSize: 0xB8 }
  - { offset: 0xC16FB, size: 0x8, addend: 0x0, symName: __RNvXsf_NtCsdze8u8oDPro_5alloc3vecRINtB5_3VecTNtNtCsATtFUPiRFW_3syn2ty9BareFnArgNtNtBL_5token5CommaEENtNtNtNtCs9f3LFPSIp77_4core4iter6traits7collect12IntoIterator9into_iterBL_, symObjAddr: 0xBA34, symBinAddr: 0x45A98, symSize: 0xB8 }
  - { offset: 0xC197B, size: 0x8, addend: 0x0, symName: __RNvXsf_NtCsdze8u8oDPro_5alloc3vecRINtB5_3VecTNtNtCsATtFUPiRFW_3syn3pat3PatNtNtBL_5token2OrEENtNtNtNtCs9f3LFPSIp77_4core4iter6traits7collect12IntoIterator9into_iterBL_, symObjAddr: 0xBAEC, symBinAddr: 0x45B50, symSize: 0xB8 }
  - { offset: 0xC1BFB, size: 0x8, addend: 0x0, symName: __RNvXsf_NtCsdze8u8oDPro_5alloc3vecRINtB5_3VecTNtNtCsATtFUPiRFW_3syn3pat3PatNtNtBL_5token5CommaEENtNtNtNtCs9f3LFPSIp77_4core4iter6traits7collect12IntoIterator9into_iterBL_, symObjAddr: 0xBBA4, symBinAddr: 0x45C08, symSize: 0xB8 }
  - { offset: 0xC1E7B, size: 0x8, addend: 0x0, symName: __RNvXsf_NtCsdze8u8oDPro_5alloc3vecRINtB5_3VecTNtNtCsATtFUPiRFW_3syn3pat8FieldPatNtNtBL_5token5CommaEENtNtNtNtCs9f3LFPSIp77_4core4iter6traits7collect12IntoIterator9into_iterBL_, symObjAddr: 0xBC5C, symBinAddr: 0x45CC0, symSize: 0xB8 }
  - { offset: 0xC20FB, size: 0x8, addend: 0x0, symName: __RNvXsf_NtCsdze8u8oDPro_5alloc3vecRINtB5_3VecTNtNtCsATtFUPiRFW_3syn4data5FieldNtNtBL_5token5CommaEENtNtNtNtCs9f3LFPSIp77_4core4iter6traits7collect12IntoIterator9into_iterBL_, symObjAddr: 0xBD14, symBinAddr: 0x45D78, symSize: 0xB8 }
  - { offset: 0xC237B, size: 0x8, addend: 0x0, symName: __RNvXsf_NtCsdze8u8oDPro_5alloc3vecRINtB5_3VecTNtNtCsATtFUPiRFW_3syn4data7VariantNtNtBL_5token5CommaEENtNtNtNtCs9f3LFPSIp77_4core4iter6traits7collect12IntoIterator9into_iterBL_, symObjAddr: 0xBDCC, symBinAddr: 0x45E30, symSize: 0xB8 }
  - { offset: 0xC25FB, size: 0x8, addend: 0x0, symName: __RNvXsf_NtCsdze8u8oDPro_5alloc3vecRINtB5_3VecTNtNtCsATtFUPiRFW_3syn4expr10FieldValueNtNtBL_5token5CommaEENtNtNtNtCs9f3LFPSIp77_4core4iter6traits7collect12IntoIterator9into_iterBL_, symObjAddr: 0xBE84, symBinAddr: 0x45EE8, symSize: 0xB8 }
  - { offset: 0xC287B, size: 0x8, addend: 0x0, symName: __RNvXsf_NtCsdze8u8oDPro_5alloc3vecRINtB5_3VecTNtNtCsATtFUPiRFW_3syn4expr4ExprNtNtBL_5token5CommaEENtNtNtNtCs9f3LFPSIp77_4core4iter6traits7collect12IntoIterator9into_iterBL_, symObjAddr: 0xBF3C, symBinAddr: 0x45FA0, symSize: 0xB8 }
  - { offset: 0xC2AFB, size: 0x8, addend: 0x0, symName: __RNvXsf_NtCsdze8u8oDPro_5alloc3vecRINtB5_3VecTNtNtCsATtFUPiRFW_3syn4item5FnArgNtNtBL_5token5CommaEENtNtNtNtCs9f3LFPSIp77_4core4iter6traits7collect12IntoIterator9into_iterBL_, symObjAddr: 0xBFF4, symBinAddr: 0x46058, symSize: 0xB8 }
  - { offset: 0xC2D7B, size: 0x8, addend: 0x0, symName: __RNvXsf_NtCsdze8u8oDPro_5alloc3vecRINtB5_3VecTNtNtCsATtFUPiRFW_3syn4item7UseTreeNtNtBL_5token5CommaEENtNtNtNtCs9f3LFPSIp77_4core4iter6traits7collect12IntoIterator9into_iterBL_, symObjAddr: 0xC0AC, symBinAddr: 0x46110, symSize: 0xB8 }
  - { offset: 0xC2FFB, size: 0x8, addend: 0x0, symName: __RNvXsf_NtCsdze8u8oDPro_5alloc3vecRINtB5_3VecTNtNtCsATtFUPiRFW_3syn4path11PathSegmentNtNtBL_5token7PathSepEENtNtNtNtCs9f3LFPSIp77_4core4iter6traits7collect12IntoIterator9into_iterBL_, symObjAddr: 0xC164, symBinAddr: 0x461C8, symSize: 0xB8 }
  - { offset: 0xC327B, size: 0x8, addend: 0x0, symName: __RNvXsf_NtCsdze8u8oDPro_5alloc3vecRINtB5_3VecTNtNtCsATtFUPiRFW_3syn4path15GenericArgumentNtNtBL_5token5CommaEENtNtNtNtCs9f3LFPSIp77_4core4iter6traits7collect12IntoIterator9into_iterBL_, symObjAddr: 0xC21C, symBinAddr: 0x46280, symSize: 0xB8 }
  - { offset: 0xC34FB, size: 0x8, addend: 0x0, symName: __RNvXsf_NtCsdze8u8oDPro_5alloc3vecRINtB5_3VecTNtNtCsATtFUPiRFW_3syn8generics12GenericParamNtNtBL_5token5CommaEENtNtNtNtCs9f3LFPSIp77_4core4iter6traits7collect12IntoIterator9into_iterBL_, symObjAddr: 0xC2D4, symBinAddr: 0x46338, symSize: 0xB8 }
  - { offset: 0xC377B, size: 0x8, addend: 0x0, symName: __RNvXsf_NtCsdze8u8oDPro_5alloc3vecRINtB5_3VecTNtNtCsATtFUPiRFW_3syn8generics13CapturedParamNtNtBL_5token5CommaEENtNtNtNtCs9f3LFPSIp77_4core4iter6traits7collect12IntoIterator9into_iterBL_, symObjAddr: 0xC38C, symBinAddr: 0x463F0, symSize: 0xB8 }
  - { offset: 0xC39FB, size: 0x8, addend: 0x0, symName: __RNvXsf_NtCsdze8u8oDPro_5alloc3vecRINtB5_3VecTNtNtCsATtFUPiRFW_3syn8generics14TypeParamBoundNtNtBL_5token4PlusEENtNtNtNtCs9f3LFPSIp77_4core4iter6traits7collect12IntoIterator9into_iterBL_, symObjAddr: 0xC444, symBinAddr: 0x464A8, symSize: 0xB0 }
  - { offset: 0xC3C7B, size: 0x8, addend: 0x0, symName: __RNvXsf_NtCsdze8u8oDPro_5alloc3vecRINtB5_3VecTNtNtCsATtFUPiRFW_3syn8generics14WherePredicateNtNtBL_5token5CommaEENtNtNtNtCs9f3LFPSIp77_4core4iter6traits7collect12IntoIterator9into_iterBL_, symObjAddr: 0xC4F4, symBinAddr: 0x46558, symSize: 0xB8 }
  - { offset: 0xC3EFB, size: 0x8, addend: 0x0, symName: __RNvXsf_NtCsdze8u8oDPro_5alloc3vecRINtB5_3VecTNtNtCsATtFUPiRFW_3syn8lifetime8LifetimeNtNtBL_5token4PlusEENtNtNtNtCs9f3LFPSIp77_4core4iter6traits7collect12IntoIterator9into_iterBL_, symObjAddr: 0xC5AC, symBinAddr: 0x46610, symSize: 0xB8 }
  - { offset: 0xC4181, size: 0x8, addend: 0x0, symName: __RNvXsg_NtCsdze8u8oDPro_5alloc3vecQINtB5_3VechENtNtNtNtCs9f3LFPSIp77_4core4iter6traits7collect12IntoIterator9into_iterCsATtFUPiRFW_3syn, symObjAddr: 0xC664, symBinAddr: 0x466C8, symSize: 0xB0 }
  - { offset: 0xC43F5, size: 0x8, addend: 0x0, symName: __RNvXsn_NtCsdze8u8oDPro_5alloc3vecINtB5_3VecNtNtCsATtFUPiRFW_3syn4attr9AttributeENtNtNtCs9f3LFPSIp77_4core3ops4drop4Drop4dropBJ_, symObjAddr: 0xC714, symBinAddr: 0x46778, symSize: 0x50 }
  - { offset: 0xC4502, size: 0x8, addend: 0x0, symName: __RNvXsn_NtCsdze8u8oDPro_5alloc3vecINtB5_3VecNtNtCsATtFUPiRFW_3syn4data5FieldENtNtNtCs9f3LFPSIp77_4core3ops4drop4Drop4dropBJ_, symObjAddr: 0xC764, symBinAddr: 0x467C8, symSize: 0x50 }
  - { offset: 0xC460F, size: 0x8, addend: 0x0, symName: __RNvXsn_NtCsdze8u8oDPro_5alloc3vecINtB5_3VecNtNtCsATtFUPiRFW_3syn4expr3ArmENtNtNtCs9f3LFPSIp77_4core3ops4drop4Drop4dropBJ_, symObjAddr: 0xC7B4, symBinAddr: 0x46818, symSize: 0x50 }
  - { offset: 0xC471C, size: 0x8, addend: 0x0, symName: __RNvXsn_NtCsdze8u8oDPro_5alloc3vecINtB5_3VecNtNtCsATtFUPiRFW_3syn4expr6ExprIfENtNtNtCs9f3LFPSIp77_4core3ops4drop4Drop4dropBJ_, symObjAddr: 0xC804, symBinAddr: 0x46868, symSize: 0x50 }
  - { offset: 0xC4829, size: 0x8, addend: 0x0, symName: __RNvXsn_NtCsdze8u8oDPro_5alloc3vecINtB5_3VecNtNtCsATtFUPiRFW_3syn4item11ForeignItemENtNtNtCs9f3LFPSIp77_4core3ops4drop4Drop4dropBJ_, symObjAddr: 0xC854, symBinAddr: 0x468B8, symSize: 0x50 }
  - { offset: 0xC4936, size: 0x8, addend: 0x0, symName: __RNvXsn_NtCsdze8u8oDPro_5alloc3vecINtB5_3VecNtNtCsATtFUPiRFW_3syn4item4ItemENtNtNtCs9f3LFPSIp77_4core3ops4drop4Drop4dropBJ_, symObjAddr: 0xC8A4, symBinAddr: 0x46908, symSize: 0x50 }
  - { offset: 0xC4A43, size: 0x8, addend: 0x0, symName: __RNvXsn_NtCsdze8u8oDPro_5alloc3vecINtB5_3VecNtNtCsATtFUPiRFW_3syn4item8ImplItemENtNtNtCs9f3LFPSIp77_4core3ops4drop4Drop4dropBJ_, symObjAddr: 0xC8F4, symBinAddr: 0x46958, symSize: 0x50 }
  - { offset: 0xC4B50, size: 0x8, addend: 0x0, symName: __RNvXsn_NtCsdze8u8oDPro_5alloc3vecINtB5_3VecNtNtCsATtFUPiRFW_3syn4item9TraitItemENtNtNtCs9f3LFPSIp77_4core3ops4drop4Drop4dropBJ_, symObjAddr: 0xC944, symBinAddr: 0x469A8, symSize: 0x50 }
  - { offset: 0xC4C5D, size: 0x8, addend: 0x0, symName: __RNvXsn_NtCsdze8u8oDPro_5alloc3vecINtB5_3VecNtNtCsATtFUPiRFW_3syn4stmt4StmtENtNtNtCs9f3LFPSIp77_4core3ops4drop4Drop4dropBJ_, symObjAddr: 0xC994, symBinAddr: 0x469F8, symSize: 0x50 }
  - { offset: 0xC4D6A, size: 0x8, addend: 0x0, symName: __RNvXsn_NtCsdze8u8oDPro_5alloc3vecINtB5_3VecNtNtCsATtFUPiRFW_3syn5error12ErrorMessageENtNtNtCs9f3LFPSIp77_4core3ops4drop4Drop4dropBJ_, symObjAddr: 0xC9E4, symBinAddr: 0x46A48, symSize: 0x50 }
  - { offset: 0xC4E77, size: 0x8, addend: 0x0, symName: __RNvXsn_NtCsdze8u8oDPro_5alloc3vecINtB5_3VecNtNtCsATtFUPiRFW_3syn6buffer5EntryENtNtNtCs9f3LFPSIp77_4core3ops4drop4Drop4dropBJ_, symObjAddr: 0xCA34, symBinAddr: 0x46A98, symSize: 0x50 }
  - { offset: 0xC4F84, size: 0x8, addend: 0x0, symName: __RNvXsn_NtCsdze8u8oDPro_5alloc3vecINtB5_3VecNtNtCsATtFUPiRFW_3syn8generics14TypeParamBoundENtNtNtCs9f3LFPSIp77_4core3ops4drop4Drop4dropBJ_, symObjAddr: 0xCA84, symBinAddr: 0x46AE8, symSize: 0x50 }
  - { offset: 0xC5091, size: 0x8, addend: 0x0, symName: __RNvXsn_NtCsdze8u8oDPro_5alloc3vecINtB5_3VecReENtNtNtCs9f3LFPSIp77_4core3ops4drop4Drop4dropCsATtFUPiRFW_3syn, symObjAddr: 0xCAD4, symBinAddr: 0x46B38, symSize: 0x3C }
  - { offset: 0xC519E, size: 0x8, addend: 0x0, symName: __RNvXsn_NtCsdze8u8oDPro_5alloc3vecINtB5_3VecTNtNtCsATtFUPiRFW_3syn2ty4TypeNtNtBK_5token5CommaEENtNtNtCs9f3LFPSIp77_4core3ops4drop4Drop4dropBK_, symObjAddr: 0xCB10, symBinAddr: 0x46B74, symSize: 0x50 }
  - { offset: 0xC52AB, size: 0x8, addend: 0x0, symName: __RNvXsn_NtCsdze8u8oDPro_5alloc3vecINtB5_3VecTNtNtCsATtFUPiRFW_3syn2ty9BareFnArgNtNtBK_5token5CommaEENtNtNtCs9f3LFPSIp77_4core3ops4drop4Drop4dropBK_, symObjAddr: 0xCB60, symBinAddr: 0x46BC4, symSize: 0x50 }
  - { offset: 0xC53B8, size: 0x8, addend: 0x0, symName: __RNvXsn_NtCsdze8u8oDPro_5alloc3vecINtB5_3VecTNtNtCsATtFUPiRFW_3syn3pat3PatNtNtBK_5token2OrEENtNtNtCs9f3LFPSIp77_4core3ops4drop4Drop4dropBK_, symObjAddr: 0xCBB0, symBinAddr: 0x46C14, symSize: 0x50 }
  - { offset: 0xC54C5, size: 0x8, addend: 0x0, symName: __RNvXsn_NtCsdze8u8oDPro_5alloc3vecINtB5_3VecTNtNtCsATtFUPiRFW_3syn3pat3PatNtNtBK_5token5CommaEENtNtNtCs9f3LFPSIp77_4core3ops4drop4Drop4dropBK_, symObjAddr: 0xCC00, symBinAddr: 0x46C64, symSize: 0x50 }
  - { offset: 0xC55D2, size: 0x8, addend: 0x0, symName: __RNvXsn_NtCsdze8u8oDPro_5alloc3vecINtB5_3VecTNtNtCsATtFUPiRFW_3syn3pat8FieldPatNtNtBK_5token5CommaEENtNtNtCs9f3LFPSIp77_4core3ops4drop4Drop4dropBK_, symObjAddr: 0xCC50, symBinAddr: 0x46CB4, symSize: 0x50 }
  - { offset: 0xC56DF, size: 0x8, addend: 0x0, symName: __RNvXsn_NtCsdze8u8oDPro_5alloc3vecINtB5_3VecTNtNtCsATtFUPiRFW_3syn4data5FieldNtNtBK_5token5CommaEENtNtNtCs9f3LFPSIp77_4core3ops4drop4Drop4dropBK_, symObjAddr: 0xCCA0, symBinAddr: 0x46D04, symSize: 0x50 }
  - { offset: 0xC57EC, size: 0x8, addend: 0x0, symName: __RNvXsn_NtCsdze8u8oDPro_5alloc3vecINtB5_3VecTNtNtCsATtFUPiRFW_3syn4data5FielduEENtNtNtCs9f3LFPSIp77_4core3ops4drop4Drop4dropBK_, symObjAddr: 0xCCF0, symBinAddr: 0x46D54, symSize: 0x50 }
  - { offset: 0xC58F9, size: 0x8, addend: 0x0, symName: __RNvXsn_NtCsdze8u8oDPro_5alloc3vecINtB5_3VecTNtNtCsATtFUPiRFW_3syn4data7VariantNtNtBK_5token5CommaEENtNtNtCs9f3LFPSIp77_4core3ops4drop4Drop4dropBK_, symObjAddr: 0xCD40, symBinAddr: 0x46DA4, symSize: 0x50 }
  - { offset: 0xC5A06, size: 0x8, addend: 0x0, symName: __RNvXsn_NtCsdze8u8oDPro_5alloc3vecINtB5_3VecTNtNtCsATtFUPiRFW_3syn4expr10FieldValueNtNtBK_5token5CommaEENtNtNtCs9f3LFPSIp77_4core3ops4drop4Drop4dropBK_, symObjAddr: 0xCD90, symBinAddr: 0x46DF4, symSize: 0x50 }
  - { offset: 0xC5B13, size: 0x8, addend: 0x0, symName: __RNvXsn_NtCsdze8u8oDPro_5alloc3vecINtB5_3VecTNtNtCsATtFUPiRFW_3syn4expr4ExprNtNtBK_5token5CommaEENtNtNtCs9f3LFPSIp77_4core3ops4drop4Drop4dropBK_, symObjAddr: 0xCDE0, symBinAddr: 0x46E44, symSize: 0x50 }
  - { offset: 0xC5C20, size: 0x8, addend: 0x0, symName: __RNvXsn_NtCsdze8u8oDPro_5alloc3vecINtB5_3VecTNtNtCsATtFUPiRFW_3syn4item5FnArgNtNtBK_5token5CommaEENtNtNtCs9f3LFPSIp77_4core3ops4drop4Drop4dropBK_, symObjAddr: 0xCE30, symBinAddr: 0x46E94, symSize: 0x50 }
  - { offset: 0xC5D2D, size: 0x8, addend: 0x0, symName: __RNvXsn_NtCsdze8u8oDPro_5alloc3vecINtB5_3VecTNtNtCsATtFUPiRFW_3syn4item7UseTreeNtNtBK_5token5CommaEENtNtNtCs9f3LFPSIp77_4core3ops4drop4Drop4dropBK_, symObjAddr: 0xCE80, symBinAddr: 0x46EE4, symSize: 0x50 }
  - { offset: 0xC5E3A, size: 0x8, addend: 0x0, symName: __RNvXsn_NtCsdze8u8oDPro_5alloc3vecINtB5_3VecTNtNtCsATtFUPiRFW_3syn4path11PathSegmentNtNtBK_5token7PathSepEENtNtNtCs9f3LFPSIp77_4core3ops4drop4Drop4dropBK_, symObjAddr: 0xCED0, symBinAddr: 0x46F34, symSize: 0x50 }
  - { offset: 0xC5F47, size: 0x8, addend: 0x0, symName: __RNvXsn_NtCsdze8u8oDPro_5alloc3vecINtB5_3VecTNtNtCsATtFUPiRFW_3syn4path15GenericArgumentNtNtBK_5token5CommaEENtNtNtCs9f3LFPSIp77_4core3ops4drop4Drop4dropBK_, symObjAddr: 0xCF20, symBinAddr: 0x46F84, symSize: 0x50 }
  - { offset: 0xC6054, size: 0x8, addend: 0x0, symName: __RNvXsn_NtCsdze8u8oDPro_5alloc3vecINtB5_3VecTNtNtCsATtFUPiRFW_3syn8generics12GenericParamNtNtBK_5token5CommaEENtNtNtCs9f3LFPSIp77_4core3ops4drop4Drop4dropBK_, symObjAddr: 0xCF70, symBinAddr: 0x46FD4, symSize: 0x50 }
  - { offset: 0xC6161, size: 0x8, addend: 0x0, symName: __RNvXsn_NtCsdze8u8oDPro_5alloc3vecINtB5_3VecTNtNtCsATtFUPiRFW_3syn8generics13CapturedParamNtNtBK_5token5CommaEENtNtNtCs9f3LFPSIp77_4core3ops4drop4Drop4dropBK_, symObjAddr: 0xCFC0, symBinAddr: 0x47024, symSize: 0x50 }
  - { offset: 0xC626E, size: 0x8, addend: 0x0, symName: __RNvXsn_NtCsdze8u8oDPro_5alloc3vecINtB5_3VecTNtNtCsATtFUPiRFW_3syn8generics14TypeParamBoundNtNtBK_5token4PlusEENtNtNtCs9f3LFPSIp77_4core3ops4drop4Drop4dropBK_, symObjAddr: 0xD010, symBinAddr: 0x47074, symSize: 0x50 }
  - { offset: 0xC637B, size: 0x8, addend: 0x0, symName: __RNvXsn_NtCsdze8u8oDPro_5alloc3vecINtB5_3VecTNtNtCsATtFUPiRFW_3syn8generics14WherePredicateNtNtBK_5token5CommaEENtNtNtCs9f3LFPSIp77_4core3ops4drop4Drop4dropBK_, symObjAddr: 0xD060, symBinAddr: 0x470C4, symSize: 0x50 }
  - { offset: 0xC6488, size: 0x8, addend: 0x0, symName: __RNvXsn_NtCsdze8u8oDPro_5alloc3vecINtB5_3VecTNtNtCsATtFUPiRFW_3syn8lifetime8LifetimeNtNtBK_5token4PlusEENtNtNtCs9f3LFPSIp77_4core3ops4drop4Drop4dropBK_, symObjAddr: 0xD0B0, symBinAddr: 0x47114, symSize: 0x50 }
  - { offset: 0xC659B, size: 0x8, addend: 0x0, symName: __RNvXsp_NtCsdze8u8oDPro_5alloc3vecINtB5_3VecNtNtCsATtFUPiRFW_3syn4attr9AttributeENtNtCs9f3LFPSIp77_4core3fmt5Debug3fmtBJ_, symObjAddr: 0xD100, symBinAddr: 0x47164, symSize: 0x8C }
  - { offset: 0xC66FF, size: 0x8, addend: 0x0, symName: __RNvXsp_NtCsdze8u8oDPro_5alloc3vecINtB5_3VecNtNtCsATtFUPiRFW_3syn4expr3ArmENtNtCs9f3LFPSIp77_4core3fmt5Debug3fmtBJ_, symObjAddr: 0xD18C, symBinAddr: 0x471F0, symSize: 0x8C }
  - { offset: 0xC6863, size: 0x8, addend: 0x0, symName: __RNvXsp_NtCsdze8u8oDPro_5alloc3vecINtB5_3VecNtNtCsATtFUPiRFW_3syn4item11ForeignItemENtNtCs9f3LFPSIp77_4core3fmt5Debug3fmtBJ_, symObjAddr: 0xD218, symBinAddr: 0x4727C, symSize: 0x8C }
  - { offset: 0xC69C7, size: 0x8, addend: 0x0, symName: __RNvXsp_NtCsdze8u8oDPro_5alloc3vecINtB5_3VecNtNtCsATtFUPiRFW_3syn4item4ItemENtNtCs9f3LFPSIp77_4core3fmt5Debug3fmtBJ_, symObjAddr: 0xD2A4, symBinAddr: 0x47308, symSize: 0x8C }
  - { offset: 0xC6B2B, size: 0x8, addend: 0x0, symName: __RNvXsp_NtCsdze8u8oDPro_5alloc3vecINtB5_3VecNtNtCsATtFUPiRFW_3syn4item8ImplItemENtNtCs9f3LFPSIp77_4core3fmt5Debug3fmtBJ_, symObjAddr: 0xD330, symBinAddr: 0x47394, symSize: 0x8C }
  - { offset: 0xC6C8F, size: 0x8, addend: 0x0, symName: __RNvXsp_NtCsdze8u8oDPro_5alloc3vecINtB5_3VecNtNtCsATtFUPiRFW_3syn4item9TraitItemENtNtCs9f3LFPSIp77_4core3fmt5Debug3fmtBJ_, symObjAddr: 0xD3BC, symBinAddr: 0x47420, symSize: 0x8C }
  - { offset: 0xC6DF3, size: 0x8, addend: 0x0, symName: __RNvXsp_NtCsdze8u8oDPro_5alloc3vecINtB5_3VecNtNtCsATtFUPiRFW_3syn4stmt4StmtENtNtCs9f3LFPSIp77_4core3fmt5Debug3fmtBJ_, symObjAddr: 0xD448, symBinAddr: 0x474AC, symSize: 0x8C }
  - { offset: 0xC6F57, size: 0x8, addend: 0x0, symName: __RNvXsp_NtCsdze8u8oDPro_5alloc3vecINtB5_3VecNtNtCsATtFUPiRFW_3syn5error12ErrorMessageENtNtCs9f3LFPSIp77_4core3fmt5Debug3fmtBJ_, symObjAddr: 0xD4D4, symBinAddr: 0x47538, symSize: 0x8C }
  - { offset: 0xC70BB, size: 0x8, addend: 0x0, symName: __RNvXsp_NtCsdze8u8oDPro_5alloc3vecINtB5_3VechENtNtCs9f3LFPSIp77_4core3fmt5Debug3fmtCsATtFUPiRFW_3syn, symObjAddr: 0xD560, symBinAddr: 0x475C4, symSize: 0x88 }
  - { offset: 0xCA07C, size: 0x8, addend: 0x0, symName: __RNvXsS_NtCsdze8u8oDPro_5alloc6stringINtNtB7_3vec3VechEINtNtCs9f3LFPSIp77_4core7convert4FromNtB5_6StringE4fromCsATtFUPiRFW_3syn, symObjAddr: 0x9994, symBinAddr: 0x439F8, symSize: 0x18 }
  - { offset: 0xCA2BB, size: 0x8, addend: 0x0, symName: __RNvXNvMs_NtNtCsdze8u8oDPro_5alloc3ffi5c_strNtB7_7CString3newINtNtBb_3vec3VechENtB2_11SpecNewImpl13spec_new_implCsATtFUPiRFW_3syn, symObjAddr: 0x8034, symBinAddr: 0x42098, symSize: 0x190 }
  - { offset: 0xCFF4A, size: 0x8, addend: 0x0, symName: __RNvXs0_NtCsATtFUPiRFW_3syn11parse_quoteINtNtCsdze8u8oDPro_5alloc3vec3VecNtNtB7_4attr9AttributeENtB5_10ParseQuote5parse, symObjAddr: 0xD5E8, symBinAddr: 0x4764C, symSize: 0x1C4 }
  - { offset: 0xCFFAF, size: 0x8, addend: 0x0, symName: __RNvXs5_NtCsATtFUPiRFW_3syn11parse_quoteINtNtCsdze8u8oDPro_5alloc3vec3VecNtNtB7_4stmt4StmtENtB5_10ParseQuote5parse, symObjAddr: 0xD7AC, symBinAddr: 0x47810, symSize: 0x34 }
  - { offset: 0xCFFE1, size: 0x8, addend: 0x0, symName: __RNvXs6_NtCsATtFUPiRFW_3syn11parse_quoteINtNtCsdze8u8oDPro_5alloc3vec3VecNtNtB7_4expr3ArmENtB5_10ParseQuote5parse, symObjAddr: 0xD7E0, symBinAddr: 0x47844, symSize: 0x34 }
  - { offset: 0xD015C, size: 0x8, addend: 0x0, symName: __RINvMs_NtCsdze8u8oDPro_5alloc3vecINtB5_3VecReE10retain_mutNCNvMNtCsATtFUPiRFW_3syn9lookaheadNtBZ_10Lookahead15error0EB11_, symObjAddr: 0x0, symBinAddr: 0x3A064, symSize: 0xE4 }
  - { offset: 0xD0493, size: 0x8, addend: 0x0, symName: __RINvMsi_NtCsdze8u8oDPro_5alloc3vecINtB6_3VecNtCs475r2uZUTuc_11proc_macro29TokenTreeE16extend_desugaredINtNtNtNtCs9f3LFPSIp77_4core4iter8adapters7flatten7FlattenINtNtB1H_3map3MapIB2z_IB2z_INtNtNtB1L_5slice4iter4IterNtNtCsATtFUPiRFW_3syn5error12ErrorMessageENvMs_B3s_B3q_16to_compile_errorENCINvXs7_BI_NtBI_11TokenStreamINtNtNtB1J_6traits7collect12FromIteratorB4O_E9from_iterB2U_E0ENCINvXs6_NtBI_3impNtB6f_11TokenStreamIB57_B6o_E9from_iterB2P_Es_0EEEB3u_, symObjAddr: 0xE4, symBinAddr: 0x3A148, symSize: 0x1E0 }
  - { offset: 0xD08E0, size: 0x8, addend: 0x0, symName: __RINvMsi_NtCsdze8u8oDPro_5alloc3vecINtB6_3VecNtCs475r2uZUTuc_11proc_macro29TokenTreeE16extend_desugaredNtNtBI_12token_stream8IntoIterECsATtFUPiRFW_3syn, symObjAddr: 0x2C4, symBinAddr: 0x3A328, symSize: 0x1E0 }
  - { offset: 0xD12DD, size: 0x8, addend: 0x0, symName: __RINvMsi_NtCsdze8u8oDPro_5alloc3vecINtB6_3VecNtNtCsATtFUPiRFW_3syn4data5FieldE14extend_trustedINtNtCs9f3LFPSIp77_4core6option8IntoIterBG_EEBK_, symObjAddr: 0x4A4, symBinAddr: 0x3A508, symSize: 0x1B4 }
  - { offset: 0xD1660, size: 0x8, addend: 0x0, symName: __RINvMsi_NtCsdze8u8oDPro_5alloc3vecINtB6_3VecNtNtCsATtFUPiRFW_3syn4data5FieldE14extend_trustedINtNtNtNtCs9f3LFPSIp77_4core4iter8adapters3map3MapINtNtB6_9into_iter8IntoIterTBG_NtNtBK_5token5CommaEENCNvXs8_NtBK_10punctuatedINtB3f_10PunctuatedBG_B2M_ENtNtNtB1A_6traits7collect12IntoIterator9into_iter0EEBK_, symObjAddr: 0x658, symBinAddr: 0x3A6BC, symSize: 0x19C }
  - { offset: 0xD1A03, size: 0x8, addend: 0x0, symName: __RINvMsi_NtCsdze8u8oDPro_5alloc3vecINtB6_3VecNtNtCsATtFUPiRFW_3syn4data5FieldE14extend_trustedINtNtNtNtCs9f3LFPSIp77_4core4iter8adapters3map3MapINtNtB6_9into_iter8IntoIterTBG_uEENCNvXs8_NtBK_10punctuatedINtB2X_10PunctuatedBG_uENtNtNtB1A_6traits7collect12IntoIterator9into_iter0EEBK_, symObjAddr: 0x7F4, symBinAddr: 0x3A858, symSize: 0x19C }
  - { offset: 0xD1DAD, size: 0x8, addend: 0x0, symName: __RINvMsi_NtCsdze8u8oDPro_5alloc3vecINtB6_3VecNtNtCsATtFUPiRFW_3syn8generics14TypeParamBoundE14extend_trustedINtNtCs9f3LFPSIp77_4core6option8IntoIterBG_EEBK_, symObjAddr: 0x990, symBinAddr: 0x3A9F4, symSize: 0x1B4 }
  - { offset: 0xD2130, size: 0x8, addend: 0x0, symName: __RINvMsi_NtCsdze8u8oDPro_5alloc3vecINtB6_3VecNtNtCsATtFUPiRFW_3syn8generics14TypeParamBoundE14extend_trustedINtNtNtNtCs9f3LFPSIp77_4core4iter8adapters3map3MapINtNtB6_9into_iter8IntoIterTBG_NtNtBK_5token4PlusEENCNvXs8_NtBK_10punctuatedINtB3s_10PunctuatedBG_B30_ENtNtNtB1O_6traits7collect12IntoIterator9into_iter0EEBK_, symObjAddr: 0xB44, symBinAddr: 0x3ABA8, symSize: 0x19C }
  - { offset: 0xD2703, size: 0x8, addend: 0x0, symName: __RNvMNtCsdze8u8oDPro_5alloc3vecINtB2_3VecNtNtCsATtFUPiRFW_3syn4attr9AttributeE3newBG_, symObjAddr: 0x1408, symBinAddr: 0x3B46C, symSize: 0x28 }
  - { offset: 0xD27EC, size: 0x8, addend: 0x0, symName: __RNvMNtCsdze8u8oDPro_5alloc3vecINtB2_3VecNtNtCsATtFUPiRFW_3syn4data5FieldE13with_capacityBG_, symObjAddr: 0x1430, symBinAddr: 0x3B494, symSize: 0x44 }
  - { offset: 0xD28CF, size: 0x8, addend: 0x0, symName: __RNvMNtCsdze8u8oDPro_5alloc3vecINtB2_3VecNtNtCsATtFUPiRFW_3syn4expr3ArmE3newBG_, symObjAddr: 0x1474, symBinAddr: 0x3B4D8, symSize: 0x28 }
  - { offset: 0xD29C3, size: 0x8, addend: 0x0, symName: __RNvMNtCsdze8u8oDPro_5alloc3vecINtB2_3VecNtNtCsATtFUPiRFW_3syn4expr6ExprIfE3newBG_, symObjAddr: 0x149C, symBinAddr: 0x3B500, symSize: 0x28 }
  - { offset: 0xD2AB7, size: 0x8, addend: 0x0, symName: __RNvMNtCsdze8u8oDPro_5alloc3vecINtB2_3VecNtNtCsATtFUPiRFW_3syn4item11ForeignItemE3newBG_, symObjAddr: 0x14C4, symBinAddr: 0x3B528, symSize: 0x28 }
  - { offset: 0xD2BAB, size: 0x8, addend: 0x0, symName: __RNvMNtCsdze8u8oDPro_5alloc3vecINtB2_3VecNtNtCsATtFUPiRFW_3syn4item4ItemE3newBG_, symObjAddr: 0x14EC, symBinAddr: 0x3B550, symSize: 0x28 }
  - { offset: 0xD2C9F, size: 0x8, addend: 0x0, symName: __RNvMNtCsdze8u8oDPro_5alloc3vecINtB2_3VecNtNtCsATtFUPiRFW_3syn4item8ImplItemE3newBG_, symObjAddr: 0x1514, symBinAddr: 0x3B578, symSize: 0x28 }
  - { offset: 0xD2D93, size: 0x8, addend: 0x0, symName: __RNvMNtCsdze8u8oDPro_5alloc3vecINtB2_3VecNtNtCsATtFUPiRFW_3syn4item9TraitItemE3newBG_, symObjAddr: 0x153C, symBinAddr: 0x3B5A0, symSize: 0x28 }
  - { offset: 0xD2E87, size: 0x8, addend: 0x0, symName: __RNvMNtCsdze8u8oDPro_5alloc3vecINtB2_3VecNtNtCsATtFUPiRFW_3syn4stmt4StmtE3newBG_, symObjAddr: 0x1564, symBinAddr: 0x3B5C8, symSize: 0x28 }
  - { offset: 0xD2F7B, size: 0x8, addend: 0x0, symName: __RNvMNtCsdze8u8oDPro_5alloc3vecINtB2_3VecNtNtCsATtFUPiRFW_3syn6buffer5EntryE3newBG_, symObjAddr: 0x158C, symBinAddr: 0x3B5F0, symSize: 0x28 }
  - { offset: 0xD3064, size: 0x8, addend: 0x0, symName: __RNvMNtCsdze8u8oDPro_5alloc3vecINtB2_3VecNtNtCsATtFUPiRFW_3syn8generics14TypeParamBoundE13with_capacityBG_, symObjAddr: 0x15B4, symBinAddr: 0x3B618, symSize: 0x44 }
  - { offset: 0xD3147, size: 0x8, addend: 0x0, symName: __RNvMNtCsdze8u8oDPro_5alloc3vecINtB2_3VecReE3newCsATtFUPiRFW_3syn, symObjAddr: 0x15F8, symBinAddr: 0x3B65C, symSize: 0x28 }
  - { offset: 0xD323B, size: 0x8, addend: 0x0, symName: __RNvMNtCsdze8u8oDPro_5alloc3vecINtB2_3VecTNtNtCsATtFUPiRFW_3syn2ty4TypeNtNtBH_5token5CommaEE3newBH_, symObjAddr: 0x1620, symBinAddr: 0x3B684, symSize: 0x28 }
  - { offset: 0xD332F, size: 0x8, addend: 0x0, symName: __RNvMNtCsdze8u8oDPro_5alloc3vecINtB2_3VecTNtNtCsATtFUPiRFW_3syn2ty9BareFnArgNtNtBH_5token5CommaEE3newBH_, symObjAddr: 0x1648, symBinAddr: 0x3B6AC, symSize: 0x28 }
  - { offset: 0xD3423, size: 0x8, addend: 0x0, symName: __RNvMNtCsdze8u8oDPro_5alloc3vecINtB2_3VecTNtNtCsATtFUPiRFW_3syn3pat3PatNtNtBH_5token2OrEE3newBH_, symObjAddr: 0x1670, symBinAddr: 0x3B6D4, symSize: 0x28 }
  - { offset: 0xD3517, size: 0x8, addend: 0x0, symName: __RNvMNtCsdze8u8oDPro_5alloc3vecINtB2_3VecTNtNtCsATtFUPiRFW_3syn3pat3PatNtNtBH_5token5CommaEE3newBH_, symObjAddr: 0x1698, symBinAddr: 0x3B6FC, symSize: 0x28 }
  - { offset: 0xD360B, size: 0x8, addend: 0x0, symName: __RNvMNtCsdze8u8oDPro_5alloc3vecINtB2_3VecTNtNtCsATtFUPiRFW_3syn3pat8FieldPatNtNtBH_5token5CommaEE3newBH_, symObjAddr: 0x16C0, symBinAddr: 0x3B724, symSize: 0x28 }
  - { offset: 0xD36FF, size: 0x8, addend: 0x0, symName: __RNvMNtCsdze8u8oDPro_5alloc3vecINtB2_3VecTNtNtCsATtFUPiRFW_3syn4data5FieldNtNtBH_5token5CommaEE3newBH_, symObjAddr: 0x16E8, symBinAddr: 0x3B74C, symSize: 0x28 }
  - { offset: 0xD37F3, size: 0x8, addend: 0x0, symName: __RNvMNtCsdze8u8oDPro_5alloc3vecINtB2_3VecTNtNtCsATtFUPiRFW_3syn4data5FielduEE3newBH_, symObjAddr: 0x1710, symBinAddr: 0x3B774, symSize: 0x28 }
  - { offset: 0xD38E7, size: 0x8, addend: 0x0, symName: __RNvMNtCsdze8u8oDPro_5alloc3vecINtB2_3VecTNtNtCsATtFUPiRFW_3syn4data7VariantNtNtBH_5token5CommaEE3newBH_, symObjAddr: 0x1738, symBinAddr: 0x3B79C, symSize: 0x28 }
  - { offset: 0xD39DB, size: 0x8, addend: 0x0, symName: __RNvMNtCsdze8u8oDPro_5alloc3vecINtB2_3VecTNtNtCsATtFUPiRFW_3syn4expr10FieldValueNtNtBH_5token5CommaEE3newBH_, symObjAddr: 0x1760, symBinAddr: 0x3B7C4, symSize: 0x28 }
  - { offset: 0xD3ACF, size: 0x8, addend: 0x0, symName: __RNvMNtCsdze8u8oDPro_5alloc3vecINtB2_3VecTNtNtCsATtFUPiRFW_3syn4expr4ExprNtNtBH_5token5CommaEE3newBH_, symObjAddr: 0x1788, symBinAddr: 0x3B7EC, symSize: 0x28 }
  - { offset: 0xD3BC3, size: 0x8, addend: 0x0, symName: __RNvMNtCsdze8u8oDPro_5alloc3vecINtB2_3VecTNtNtCsATtFUPiRFW_3syn4item5FnArgNtNtBH_5token5CommaEE3newBH_, symObjAddr: 0x17B0, symBinAddr: 0x3B814, symSize: 0x28 }
  - { offset: 0xD3CB7, size: 0x8, addend: 0x0, symName: __RNvMNtCsdze8u8oDPro_5alloc3vecINtB2_3VecTNtNtCsATtFUPiRFW_3syn4item7UseTreeNtNtBH_5token5CommaEE3newBH_, symObjAddr: 0x17D8, symBinAddr: 0x3B83C, symSize: 0x28 }
  - { offset: 0xD3DAB, size: 0x8, addend: 0x0, symName: __RNvMNtCsdze8u8oDPro_5alloc3vecINtB2_3VecTNtNtCsATtFUPiRFW_3syn4path11PathSegmentNtNtBH_5token7PathSepEE3newBH_, symObjAddr: 0x1800, symBinAddr: 0x3B864, symSize: 0x28 }
  - { offset: 0xD3E9F, size: 0x8, addend: 0x0, symName: __RNvMNtCsdze8u8oDPro_5alloc3vecINtB2_3VecTNtNtCsATtFUPiRFW_3syn4path15GenericArgumentNtNtBH_5token5CommaEE3newBH_, symObjAddr: 0x1828, symBinAddr: 0x3B88C, symSize: 0x28 }
  - { offset: 0xD3F93, size: 0x8, addend: 0x0, symName: __RNvMNtCsdze8u8oDPro_5alloc3vecINtB2_3VecTNtNtCsATtFUPiRFW_3syn8generics12GenericParamNtNtBH_5token5CommaEE3newBH_, symObjAddr: 0x1850, symBinAddr: 0x3B8B4, symSize: 0x28 }
  - { offset: 0xD4087, size: 0x8, addend: 0x0, symName: __RNvMNtCsdze8u8oDPro_5alloc3vecINtB2_3VecTNtNtCsATtFUPiRFW_3syn8generics13CapturedParamNtNtBH_5token5CommaEE3newBH_, symObjAddr: 0x1878, symBinAddr: 0x3B8DC, symSize: 0x28 }
  - { offset: 0xD417B, size: 0x8, addend: 0x0, symName: __RNvMNtCsdze8u8oDPro_5alloc3vecINtB2_3VecTNtNtCsATtFUPiRFW_3syn8generics14TypeParamBoundNtNtBH_5token4PlusEE3newBH_, symObjAddr: 0x18A0, symBinAddr: 0x3B904, symSize: 0x28 }
  - { offset: 0xD426F, size: 0x8, addend: 0x0, symName: __RNvMNtCsdze8u8oDPro_5alloc3vecINtB2_3VecTNtNtCsATtFUPiRFW_3syn8generics14WherePredicateNtNtBH_5token5CommaEE3newBH_, symObjAddr: 0x18C8, symBinAddr: 0x3B92C, symSize: 0x28 }
  - { offset: 0xD4363, size: 0x8, addend: 0x0, symName: __RNvMNtCsdze8u8oDPro_5alloc3vecINtB2_3VecTNtNtCsATtFUPiRFW_3syn8lifetime8LifetimeNtNtBH_5token4PlusEE3newBH_, symObjAddr: 0x18F0, symBinAddr: 0x3B954, symSize: 0x28 }
  - { offset: 0xD4457, size: 0x8, addend: 0x0, symName: __RNvMNtCsdze8u8oDPro_5alloc3vecINtB2_3VechE3newCsATtFUPiRFW_3syn, symObjAddr: 0x1918, symBinAddr: 0x3B97C, symSize: 0x28 }
  - { offset: 0xD45C9, size: 0x8, addend: 0x0, symName: __RNvMs0_NtCsdze8u8oDPro_5alloc3vecINtB5_3VechE17extend_from_sliceCsATtFUPiRFW_3syn, symObjAddr: 0x1940, symBinAddr: 0x3B9A4, symSize: 0x6C }
  - { offset: 0xD4739, size: 0x8, addend: 0x0, symName: __RNvMs0_NtCsdze8u8oDPro_5alloc3vecINtB5_3VechE6resizeCsATtFUPiRFW_3syn, symObjAddr: 0x19AC, symBinAddr: 0x3BA10, symSize: 0xB4 }
  - { offset: 0xD493E, size: 0x8, addend: 0x0, symName: __RNvMs2_NtCsdze8u8oDPro_5alloc3vecINtB5_3VechE11extend_withCsATtFUPiRFW_3syn, symObjAddr: 0x1A60, symBinAddr: 0x3BAC4, symSize: 0x240 }
  - { offset: 0xD4DCB, size: 0x8, addend: 0x0, symName: __RNvMs_NtCsdze8u8oDPro_5alloc3vecINtB4_3VecNtNtCsATtFUPiRFW_3syn4attr9AttributeE15append_elementsBI_, symObjAddr: 0x1CA0, symBinAddr: 0x3BD04, symSize: 0xEC }
  - { offset: 0xD50FB, size: 0x8, addend: 0x0, symName: __RNvMs_NtCsdze8u8oDPro_5alloc3vecINtB4_3VecNtNtCsATtFUPiRFW_3syn4attr9AttributeE18spare_capacity_mutBI_, symObjAddr: 0x1D8C, symBinAddr: 0x3BDF0, symSize: 0xDC }
  - { offset: 0xD53E1, size: 0x8, addend: 0x0, symName: __RNvMs_NtCsdze8u8oDPro_5alloc3vecINtB4_3VecNtNtCsATtFUPiRFW_3syn4attr9AttributeE4pushBI_, symObjAddr: 0x1E68, symBinAddr: 0x3BECC, symSize: 0x124 }
  - { offset: 0xD572A, size: 0x8, addend: 0x0, symName: __RNvMs_NtCsdze8u8oDPro_5alloc3vecINtB4_3VecNtNtCsATtFUPiRFW_3syn4attr9AttributeE6appendBI_, symObjAddr: 0x1F8C, symBinAddr: 0x3BFF0, symSize: 0x9C }
  - { offset: 0xD59A1, size: 0x8, addend: 0x0, symName: __RNvMs_NtCsdze8u8oDPro_5alloc3vecINtB4_3VecNtNtCsATtFUPiRFW_3syn4attr9AttributeE7reserveBI_, symObjAddr: 0x2028, symBinAddr: 0x3C08C, symSize: 0xC4 }
  - { offset: 0xD5BCB, size: 0x8, addend: 0x0, symName: __RNvMs_NtCsdze8u8oDPro_5alloc3vecINtB4_3VecNtNtCsATtFUPiRFW_3syn4attr9AttributeE8as_sliceBI_, symObjAddr: 0x20EC, symBinAddr: 0x3C150, symSize: 0x7C }
  - { offset: 0xD5CFE, size: 0x8, addend: 0x0, symName: __RNvMs_NtCsdze8u8oDPro_5alloc3vecINtB4_3VecNtNtCsATtFUPiRFW_3syn4attr9AttributeE8is_emptyBI_, symObjAddr: 0x2168, symBinAddr: 0x3C1CC, symSize: 0x20 }
  - { offset: 0xD5E55, size: 0x8, addend: 0x0, symName: __RNvMs_NtCsdze8u8oDPro_5alloc3vecINtB4_3VecNtNtCsATtFUPiRFW_3syn4data5FieldE7reserveBI_, symObjAddr: 0x2188, symBinAddr: 0x3C1EC, symSize: 0xC4 }
  - { offset: 0xD6150, size: 0x8, addend: 0x0, symName: __RNvMs_NtCsdze8u8oDPro_5alloc3vecINtB4_3VecNtNtCsATtFUPiRFW_3syn4expr3ArmE18spare_capacity_mutBI_, symObjAddr: 0x224C, symBinAddr: 0x3C2B0, symSize: 0xE0 }
  - { offset: 0xD62FC, size: 0x8, addend: 0x0, symName: __RNvMs_NtCsdze8u8oDPro_5alloc3vecINtB4_3VecNtNtCsATtFUPiRFW_3syn4expr3ArmE3lenBI_, symObjAddr: 0x232C, symBinAddr: 0x3C390, symSize: 0x18 }
  - { offset: 0xD6478, size: 0x8, addend: 0x0, symName: __RNvMs_NtCsdze8u8oDPro_5alloc3vecINtB4_3VecNtNtCsATtFUPiRFW_3syn4expr3ArmE4pushBI_, symObjAddr: 0x2344, symBinAddr: 0x3C3A8, symSize: 0x12C }
  - { offset: 0xD6774, size: 0x8, addend: 0x0, symName: __RNvMs_NtCsdze8u8oDPro_5alloc3vecINtB4_3VecNtNtCsATtFUPiRFW_3syn4expr3ArmE8as_sliceBI_, symObjAddr: 0x2470, symBinAddr: 0x3C4D4, symSize: 0x7C }
  - { offset: 0xD6A38, size: 0x8, addend: 0x0, symName: __RNvMs_NtCsdze8u8oDPro_5alloc3vecINtB4_3VecNtNtCsATtFUPiRFW_3syn4expr6ExprIfE3popBI_, symObjAddr: 0x24EC, symBinAddr: 0x3C550, symSize: 0x11C }
  - { offset: 0xD6D4F, size: 0x8, addend: 0x0, symName: __RNvMs_NtCsdze8u8oDPro_5alloc3vecINtB4_3VecNtNtCsATtFUPiRFW_3syn4expr6ExprIfE4pushBI_, symObjAddr: 0x2608, symBinAddr: 0x3C66C, symSize: 0x12C }
  - { offset: 0xD70F4, size: 0x8, addend: 0x0, symName: __RNvMs_NtCsdze8u8oDPro_5alloc3vecINtB4_3VecNtNtCsATtFUPiRFW_3syn4item11ForeignItemE18spare_capacity_mutBI_, symObjAddr: 0x2734, symBinAddr: 0x3C798, symSize: 0xE0 }
  - { offset: 0xD73DA, size: 0x8, addend: 0x0, symName: __RNvMs_NtCsdze8u8oDPro_5alloc3vecINtB4_3VecNtNtCsATtFUPiRFW_3syn4item11ForeignItemE4pushBI_, symObjAddr: 0x2814, symBinAddr: 0x3C878, symSize: 0x12C }
  - { offset: 0xD777F, size: 0x8, addend: 0x0, symName: __RNvMs_NtCsdze8u8oDPro_5alloc3vecINtB4_3VecNtNtCsATtFUPiRFW_3syn4item4ItemE18spare_capacity_mutBI_, symObjAddr: 0x2940, symBinAddr: 0x3C9A4, symSize: 0xE0 }
  - { offset: 0xD7A65, size: 0x8, addend: 0x0, symName: __RNvMs_NtCsdze8u8oDPro_5alloc3vecINtB4_3VecNtNtCsATtFUPiRFW_3syn4item4ItemE4pushBI_, symObjAddr: 0x2A20, symBinAddr: 0x3CA84, symSize: 0x12C }
  - { offset: 0xD7E0A, size: 0x8, addend: 0x0, symName: __RNvMs_NtCsdze8u8oDPro_5alloc3vecINtB4_3VecNtNtCsATtFUPiRFW_3syn4item8ImplItemE18spare_capacity_mutBI_, symObjAddr: 0x2B4C, symBinAddr: 0x3CBB0, symSize: 0xE0 }
  - { offset: 0xD80F0, size: 0x8, addend: 0x0, symName: __RNvMs_NtCsdze8u8oDPro_5alloc3vecINtB4_3VecNtNtCsATtFUPiRFW_3syn4item8ImplItemE4pushBI_, symObjAddr: 0x2C2C, symBinAddr: 0x3CC90, symSize: 0x12C }
  - { offset: 0xD8495, size: 0x8, addend: 0x0, symName: __RNvMs_NtCsdze8u8oDPro_5alloc3vecINtB4_3VecNtNtCsATtFUPiRFW_3syn4item9TraitItemE18spare_capacity_mutBI_, symObjAddr: 0x2D58, symBinAddr: 0x3CDBC, symSize: 0xE0 }
  - { offset: 0xD877B, size: 0x8, addend: 0x0, symName: __RNvMs_NtCsdze8u8oDPro_5alloc3vecINtB4_3VecNtNtCsATtFUPiRFW_3syn4item9TraitItemE4pushBI_, symObjAddr: 0x2E38, symBinAddr: 0x3CE9C, symSize: 0x12C }
  - { offset: 0xD8B20, size: 0x8, addend: 0x0, symName: __RNvMs_NtCsdze8u8oDPro_5alloc3vecINtB4_3VecNtNtCsATtFUPiRFW_3syn4stmt4StmtE18spare_capacity_mutBI_, symObjAddr: 0x2F64, symBinAddr: 0x3CFC8, symSize: 0xE0 }
  - { offset: 0xD8E06, size: 0x8, addend: 0x0, symName: __RNvMs_NtCsdze8u8oDPro_5alloc3vecINtB4_3VecNtNtCsATtFUPiRFW_3syn4stmt4StmtE4pushBI_, symObjAddr: 0x3044, symBinAddr: 0x3D0A8, symSize: 0x12C }
  - { offset: 0xD9176, size: 0x8, addend: 0x0, symName: __RNvMs_NtCsdze8u8oDPro_5alloc3vecINtB4_3VecNtNtCsATtFUPiRFW_3syn5error12ErrorMessageE15append_elementsBI_, symObjAddr: 0x3170, symBinAddr: 0x3D1D4, symSize: 0xF4 }
  - { offset: 0xD94A6, size: 0x8, addend: 0x0, symName: __RNvMs_NtCsdze8u8oDPro_5alloc3vecINtB4_3VecNtNtCsATtFUPiRFW_3syn5error12ErrorMessageE18spare_capacity_mutBI_, symObjAddr: 0x3264, symBinAddr: 0x3D2C8, symSize: 0xE0 }
  - { offset: 0xD9645, size: 0x8, addend: 0x0, symName: __RNvMs_NtCsdze8u8oDPro_5alloc3vecINtB4_3VecNtNtCsATtFUPiRFW_3syn5error12ErrorMessageE3lenBI_, symObjAddr: 0x3344, symBinAddr: 0x3D3A8, symSize: 0x18 }
  - { offset: 0xD977E, size: 0x8, addend: 0x0, symName: __RNvMs_NtCsdze8u8oDPro_5alloc3vecINtB4_3VecNtNtCsATtFUPiRFW_3syn5error12ErrorMessageE7reserveBI_, symObjAddr: 0x335C, symBinAddr: 0x3D3C0, symSize: 0xC4 }
  - { offset: 0xD99C6, size: 0x8, addend: 0x0, symName: __RNvMs_NtCsdze8u8oDPro_5alloc3vecINtB4_3VecNtNtCsATtFUPiRFW_3syn5error12ErrorMessageE8as_sliceBI_, symObjAddr: 0x3420, symBinAddr: 0x3D484, symSize: 0x7C }
  - { offset: 0xD9D41, size: 0x8, addend: 0x0, symName: __RNvMs_NtCsdze8u8oDPro_5alloc3vecINtB4_3VecNtNtCsATtFUPiRFW_3syn6buffer5EntryE16into_boxed_sliceBI_, symObjAddr: 0x349C, symBinAddr: 0x3D500, symSize: 0x1BC }
  - { offset: 0xD9FFC, size: 0x8, addend: 0x0, symName: __RNvMs_NtCsdze8u8oDPro_5alloc3vecINtB4_3VecNtNtCsATtFUPiRFW_3syn6buffer5EntryE3lenBI_, symObjAddr: 0x3658, symBinAddr: 0x3D6BC, symSize: 0x18 }
  - { offset: 0xDA185, size: 0x8, addend: 0x0, symName: __RNvMs_NtCsdze8u8oDPro_5alloc3vecINtB4_3VecNtNtCsATtFUPiRFW_3syn6buffer5EntryE4pushBI_, symObjAddr: 0x3670, symBinAddr: 0x3D6D4, symSize: 0x10C }
  - { offset: 0xDA47F, size: 0x8, addend: 0x0, symName: __RNvMs_NtCsdze8u8oDPro_5alloc3vecINtB4_3VecNtNtCsATtFUPiRFW_3syn8generics14TypeParamBoundE7reserveBI_, symObjAddr: 0x377C, symBinAddr: 0x3D7E0, symSize: 0xC4 }
  - { offset: 0xDA5CB, size: 0x8, addend: 0x0, symName: __RNvMs_NtCsdze8u8oDPro_5alloc3vecINtB4_3VecReE3lenCsATtFUPiRFW_3syn, symObjAddr: 0x3840, symBinAddr: 0x3D8A4, symSize: 0x18 }
  - { offset: 0xDA747, size: 0x8, addend: 0x0, symName: __RNvMs_NtCsdze8u8oDPro_5alloc3vecINtB4_3VecReE4pushCsATtFUPiRFW_3syn, symObjAddr: 0x3858, symBinAddr: 0x3D8BC, symSize: 0x100 }
  - { offset: 0xDAA18, size: 0x8, addend: 0x0, symName: __RNvMs_NtCsdze8u8oDPro_5alloc3vecINtB4_3VecReE8as_sliceCsATtFUPiRFW_3syn, symObjAddr: 0x3958, symBinAddr: 0x3D9BC, symSize: 0x7C }
  - { offset: 0xDACD5, size: 0x8, addend: 0x0, symName: __RNvMs_NtCsdze8u8oDPro_5alloc3vecINtB4_3VecTNtNtCsATtFUPiRFW_3syn2ty4TypeNtNtBJ_5token5CommaEE18spare_capacity_mutBJ_, symObjAddr: 0x39D4, symBinAddr: 0x3DA38, symSize: 0xE0 }
  - { offset: 0xDAE81, size: 0x8, addend: 0x0, symName: __RNvMs_NtCsdze8u8oDPro_5alloc3vecINtB4_3VecTNtNtCsATtFUPiRFW_3syn2ty4TypeNtNtBJ_5token5CommaEE3lenBJ_, symObjAddr: 0x3AB4, symBinAddr: 0x3DB18, symSize: 0x18 }
  - { offset: 0xDAFFD, size: 0x8, addend: 0x0, symName: __RNvMs_NtCsdze8u8oDPro_5alloc3vecINtB4_3VecTNtNtCsATtFUPiRFW_3syn2ty4TypeNtNtBJ_5token5CommaEE4pushBJ_, symObjAddr: 0x3ACC, symBinAddr: 0x3DB30, symSize: 0x12C }
  - { offset: 0xDB2F9, size: 0x8, addend: 0x0, symName: __RNvMs_NtCsdze8u8oDPro_5alloc3vecINtB4_3VecTNtNtCsATtFUPiRFW_3syn2ty4TypeNtNtBJ_5token5CommaEE8as_sliceBJ_, symObjAddr: 0x3BF8, symBinAddr: 0x3DC5C, symSize: 0x7C }
  - { offset: 0xDB5B6, size: 0x8, addend: 0x0, symName: __RNvMs_NtCsdze8u8oDPro_5alloc3vecINtB4_3VecTNtNtCsATtFUPiRFW_3syn2ty9BareFnArgNtNtBJ_5token5CommaEE18spare_capacity_mutBJ_, symObjAddr: 0x3C74, symBinAddr: 0x3DCD8, symSize: 0xE0 }
  - { offset: 0xDB762, size: 0x8, addend: 0x0, symName: __RNvMs_NtCsdze8u8oDPro_5alloc3vecINtB4_3VecTNtNtCsATtFUPiRFW_3syn2ty9BareFnArgNtNtBJ_5token5CommaEE3lenBJ_, symObjAddr: 0x3D54, symBinAddr: 0x3DDB8, symSize: 0x18 }
  - { offset: 0xDB8DE, size: 0x8, addend: 0x0, symName: __RNvMs_NtCsdze8u8oDPro_5alloc3vecINtB4_3VecTNtNtCsATtFUPiRFW_3syn2ty9BareFnArgNtNtBJ_5token5CommaEE4pushBJ_, symObjAddr: 0x3D6C, symBinAddr: 0x3DDD0, symSize: 0x12C }
  - { offset: 0xDBBD9, size: 0x8, addend: 0x0, symName: __RNvMs_NtCsdze8u8oDPro_5alloc3vecINtB4_3VecTNtNtCsATtFUPiRFW_3syn2ty9BareFnArgNtNtBJ_5token5CommaEE8as_sliceBJ_, symObjAddr: 0x3E98, symBinAddr: 0x3DEFC, symSize: 0x7C }
  - { offset: 0xDBE96, size: 0x8, addend: 0x0, symName: __RNvMs_NtCsdze8u8oDPro_5alloc3vecINtB4_3VecTNtNtCsATtFUPiRFW_3syn3pat3PatNtNtBJ_5token2OrEE18spare_capacity_mutBJ_, symObjAddr: 0x3F14, symBinAddr: 0x3DF78, symSize: 0xE0 }
  - { offset: 0xDC17C, size: 0x8, addend: 0x0, symName: __RNvMs_NtCsdze8u8oDPro_5alloc3vecINtB4_3VecTNtNtCsATtFUPiRFW_3syn3pat3PatNtNtBJ_5token2OrEE4pushBJ_, symObjAddr: 0x3FF4, symBinAddr: 0x3E058, symSize: 0x12C }
  - { offset: 0xDC484, size: 0x8, addend: 0x0, symName: __RNvMs_NtCsdze8u8oDPro_5alloc3vecINtB4_3VecTNtNtCsATtFUPiRFW_3syn3pat3PatNtNtBJ_5token2OrEE8as_sliceBJ_, symObjAddr: 0x4120, symBinAddr: 0x3E184, symSize: 0x7C }
  - { offset: 0xDC741, size: 0x8, addend: 0x0, symName: __RNvMs_NtCsdze8u8oDPro_5alloc3vecINtB4_3VecTNtNtCsATtFUPiRFW_3syn3pat3PatNtNtBJ_5token5CommaEE18spare_capacity_mutBJ_, symObjAddr: 0x419C, symBinAddr: 0x3E200, symSize: 0xE0 }
  - { offset: 0xDC8ED, size: 0x8, addend: 0x0, symName: __RNvMs_NtCsdze8u8oDPro_5alloc3vecINtB4_3VecTNtNtCsATtFUPiRFW_3syn3pat3PatNtNtBJ_5token5CommaEE3lenBJ_, symObjAddr: 0x427C, symBinAddr: 0x3E2E0, symSize: 0x18 }
  - { offset: 0xDCA69, size: 0x8, addend: 0x0, symName: __RNvMs_NtCsdze8u8oDPro_5alloc3vecINtB4_3VecTNtNtCsATtFUPiRFW_3syn3pat3PatNtNtBJ_5token5CommaEE4pushBJ_, symObjAddr: 0x4294, symBinAddr: 0x3E2F8, symSize: 0x12C }
  - { offset: 0xDCD64, size: 0x8, addend: 0x0, symName: __RNvMs_NtCsdze8u8oDPro_5alloc3vecINtB4_3VecTNtNtCsATtFUPiRFW_3syn3pat3PatNtNtBJ_5token5CommaEE8as_sliceBJ_, symObjAddr: 0x43C0, symBinAddr: 0x3E424, symSize: 0x7C }
  - { offset: 0xDD021, size: 0x8, addend: 0x0, symName: __RNvMs_NtCsdze8u8oDPro_5alloc3vecINtB4_3VecTNtNtCsATtFUPiRFW_3syn3pat8FieldPatNtNtBJ_5token5CommaEE18spare_capacity_mutBJ_, symObjAddr: 0x443C, symBinAddr: 0x3E4A0, symSize: 0xE0 }
  - { offset: 0xDD307, size: 0x8, addend: 0x0, symName: __RNvMs_NtCsdze8u8oDPro_5alloc3vecINtB4_3VecTNtNtCsATtFUPiRFW_3syn3pat8FieldPatNtNtBJ_5token5CommaEE4pushBJ_, symObjAddr: 0x451C, symBinAddr: 0x3E580, symSize: 0x12C }
  - { offset: 0xDD610, size: 0x8, addend: 0x0, symName: __RNvMs_NtCsdze8u8oDPro_5alloc3vecINtB4_3VecTNtNtCsATtFUPiRFW_3syn3pat8FieldPatNtNtBJ_5token5CommaEE8as_sliceBJ_, symObjAddr: 0x4648, symBinAddr: 0x3E6AC, symSize: 0x7C }
  - { offset: 0xDD866, size: 0x8, addend: 0x0, symName: __RNvMs_NtCsdze8u8oDPro_5alloc3vecINtB4_3VecTNtNtCsATtFUPiRFW_3syn4data5FieldNtNtBJ_5token5CommaEE12as_mut_sliceBJ_, symObjAddr: 0x46C4, symBinAddr: 0x3E728, symSize: 0x7C }
  - { offset: 0xDDB0D, size: 0x8, addend: 0x0, symName: __RNvMs_NtCsdze8u8oDPro_5alloc3vecINtB4_3VecTNtNtCsATtFUPiRFW_3syn4data5FieldNtNtBJ_5token5CommaEE18spare_capacity_mutBJ_, symObjAddr: 0x4740, symBinAddr: 0x3E7A4, symSize: 0xE0 }
  - { offset: 0xDDCB9, size: 0x8, addend: 0x0, symName: __RNvMs_NtCsdze8u8oDPro_5alloc3vecINtB4_3VecTNtNtCsATtFUPiRFW_3syn4data5FieldNtNtBJ_5token5CommaEE3lenBJ_, symObjAddr: 0x4820, symBinAddr: 0x3E884, symSize: 0x18 }
  - { offset: 0xDDE35, size: 0x8, addend: 0x0, symName: __RNvMs_NtCsdze8u8oDPro_5alloc3vecINtB4_3VecTNtNtCsATtFUPiRFW_3syn4data5FieldNtNtBJ_5token5CommaEE4pushBJ_, symObjAddr: 0x4838, symBinAddr: 0x3E89C, symSize: 0x12C }
  - { offset: 0xDE127, size: 0x8, addend: 0x0, symName: __RNvMs_NtCsdze8u8oDPro_5alloc3vecINtB4_3VecTNtNtCsATtFUPiRFW_3syn4data5FieldNtNtBJ_5token5CommaEE8as_sliceBJ_, symObjAddr: 0x4964, symBinAddr: 0x3E9C8, symSize: 0x7C }
  - { offset: 0xDE242, size: 0x8, addend: 0x0, symName: __RNvMs_NtCsdze8u8oDPro_5alloc3vecINtB4_3VecTNtNtCsATtFUPiRFW_3syn4data5FielduEE3lenBJ_, symObjAddr: 0x49E0, symBinAddr: 0x3EA44, symSize: 0x18 }
  - { offset: 0xDE426, size: 0x8, addend: 0x0, symName: __RNvMs_NtCsdze8u8oDPro_5alloc3vecINtB4_3VecTNtNtCsATtFUPiRFW_3syn4data7VariantNtNtBJ_5token5CommaEE18spare_capacity_mutBJ_, symObjAddr: 0x49F8, symBinAddr: 0x3EA5C, symSize: 0xE0 }
  - { offset: 0xDE70C, size: 0x8, addend: 0x0, symName: __RNvMs_NtCsdze8u8oDPro_5alloc3vecINtB4_3VecTNtNtCsATtFUPiRFW_3syn4data7VariantNtNtBJ_5token5CommaEE4pushBJ_, symObjAddr: 0x4AD8, symBinAddr: 0x3EB3C, symSize: 0x12C }
  - { offset: 0xDEA15, size: 0x8, addend: 0x0, symName: __RNvMs_NtCsdze8u8oDPro_5alloc3vecINtB4_3VecTNtNtCsATtFUPiRFW_3syn4data7VariantNtNtBJ_5token5CommaEE8as_sliceBJ_, symObjAddr: 0x4C04, symBinAddr: 0x3EC68, symSize: 0x7C }
  - { offset: 0xDECD2, size: 0x8, addend: 0x0, symName: __RNvMs_NtCsdze8u8oDPro_5alloc3vecINtB4_3VecTNtNtCsATtFUPiRFW_3syn4expr10FieldValueNtNtBJ_5token5CommaEE18spare_capacity_mutBJ_, symObjAddr: 0x4C80, symBinAddr: 0x3ECE4, symSize: 0xE0 }
  - { offset: 0xDEFB8, size: 0x8, addend: 0x0, symName: __RNvMs_NtCsdze8u8oDPro_5alloc3vecINtB4_3VecTNtNtCsATtFUPiRFW_3syn4expr10FieldValueNtNtBJ_5token5CommaEE4pushBJ_, symObjAddr: 0x4D60, symBinAddr: 0x3EDC4, symSize: 0x12C }
  - { offset: 0xDF2C0, size: 0x8, addend: 0x0, symName: __RNvMs_NtCsdze8u8oDPro_5alloc3vecINtB4_3VecTNtNtCsATtFUPiRFW_3syn4expr10FieldValueNtNtBJ_5token5CommaEE8as_sliceBJ_, symObjAddr: 0x4E8C, symBinAddr: 0x3EEF0, symSize: 0x7C }
  - { offset: 0xDF57D, size: 0x8, addend: 0x0, symName: __RNvMs_NtCsdze8u8oDPro_5alloc3vecINtB4_3VecTNtNtCsATtFUPiRFW_3syn4expr4ExprNtNtBJ_5token5CommaEE18spare_capacity_mutBJ_, symObjAddr: 0x4F08, symBinAddr: 0x3EF6C, symSize: 0xE0 }
  - { offset: 0xDF729, size: 0x8, addend: 0x0, symName: __RNvMs_NtCsdze8u8oDPro_5alloc3vecINtB4_3VecTNtNtCsATtFUPiRFW_3syn4expr4ExprNtNtBJ_5token5CommaEE3lenBJ_, symObjAddr: 0x4FE8, symBinAddr: 0x3F04C, symSize: 0x18 }
  - { offset: 0xDF8A5, size: 0x8, addend: 0x0, symName: __RNvMs_NtCsdze8u8oDPro_5alloc3vecINtB4_3VecTNtNtCsATtFUPiRFW_3syn4expr4ExprNtNtBJ_5token5CommaEE4pushBJ_, symObjAddr: 0x5000, symBinAddr: 0x3F064, symSize: 0x12C }
  - { offset: 0xDFBA1, size: 0x8, addend: 0x0, symName: __RNvMs_NtCsdze8u8oDPro_5alloc3vecINtB4_3VecTNtNtCsATtFUPiRFW_3syn4expr4ExprNtNtBJ_5token5CommaEE8as_sliceBJ_, symObjAddr: 0x512C, symBinAddr: 0x3F190, symSize: 0x7C }
  - { offset: 0xDFE5E, size: 0x8, addend: 0x0, symName: __RNvMs_NtCsdze8u8oDPro_5alloc3vecINtB4_3VecTNtNtCsATtFUPiRFW_3syn4item5FnArgNtNtBJ_5token5CommaEE18spare_capacity_mutBJ_, symObjAddr: 0x51A8, symBinAddr: 0x3F20C, symSize: 0xE0 }
  - { offset: 0xE000A, size: 0x8, addend: 0x0, symName: __RNvMs_NtCsdze8u8oDPro_5alloc3vecINtB4_3VecTNtNtCsATtFUPiRFW_3syn4item5FnArgNtNtBJ_5token5CommaEE3lenBJ_, symObjAddr: 0x5288, symBinAddr: 0x3F2EC, symSize: 0x18 }
  - { offset: 0xE0186, size: 0x8, addend: 0x0, symName: __RNvMs_NtCsdze8u8oDPro_5alloc3vecINtB4_3VecTNtNtCsATtFUPiRFW_3syn4item5FnArgNtNtBJ_5token5CommaEE4pushBJ_, symObjAddr: 0x52A0, symBinAddr: 0x3F304, symSize: 0x12C }
  - { offset: 0xE0482, size: 0x8, addend: 0x0, symName: __RNvMs_NtCsdze8u8oDPro_5alloc3vecINtB4_3VecTNtNtCsATtFUPiRFW_3syn4item5FnArgNtNtBJ_5token5CommaEE8as_sliceBJ_, symObjAddr: 0x53CC, symBinAddr: 0x3F430, symSize: 0x7C }
  - { offset: 0xE073F, size: 0x8, addend: 0x0, symName: __RNvMs_NtCsdze8u8oDPro_5alloc3vecINtB4_3VecTNtNtCsATtFUPiRFW_3syn4item7UseTreeNtNtBJ_5token5CommaEE18spare_capacity_mutBJ_, symObjAddr: 0x5448, symBinAddr: 0x3F4AC, symSize: 0xE0 }
  - { offset: 0xE0A25, size: 0x8, addend: 0x0, symName: __RNvMs_NtCsdze8u8oDPro_5alloc3vecINtB4_3VecTNtNtCsATtFUPiRFW_3syn4item7UseTreeNtNtBJ_5token5CommaEE4pushBJ_, symObjAddr: 0x5528, symBinAddr: 0x3F58C, symSize: 0x12C }
  - { offset: 0xE0D2E, size: 0x8, addend: 0x0, symName: __RNvMs_NtCsdze8u8oDPro_5alloc3vecINtB4_3VecTNtNtCsATtFUPiRFW_3syn4item7UseTreeNtNtBJ_5token5CommaEE8as_sliceBJ_, symObjAddr: 0x5654, symBinAddr: 0x3F6B8, symSize: 0x7C }
  - { offset: 0xE0F91, size: 0x8, addend: 0x0, symName: __RNvMs_NtCsdze8u8oDPro_5alloc3vecINtB4_3VecTNtNtCsATtFUPiRFW_3syn4path11PathSegmentNtNtBJ_5token7PathSepEE12as_mut_sliceBJ_, symObjAddr: 0x56D0, symBinAddr: 0x3F734, symSize: 0x7C }
  - { offset: 0xE1238, size: 0x8, addend: 0x0, symName: __RNvMs_NtCsdze8u8oDPro_5alloc3vecINtB4_3VecTNtNtCsATtFUPiRFW_3syn4path11PathSegmentNtNtBJ_5token7PathSepEE18spare_capacity_mutBJ_, symObjAddr: 0x574C, symBinAddr: 0x3F7B0, symSize: 0xE0 }
  - { offset: 0xE13E4, size: 0x8, addend: 0x0, symName: __RNvMs_NtCsdze8u8oDPro_5alloc3vecINtB4_3VecTNtNtCsATtFUPiRFW_3syn4path11PathSegmentNtNtBJ_5token7PathSepEE3lenBJ_, symObjAddr: 0x582C, symBinAddr: 0x3F890, symSize: 0x18 }
  - { offset: 0xE158E, size: 0x8, addend: 0x0, symName: __RNvMs_NtCsdze8u8oDPro_5alloc3vecINtB4_3VecTNtNtCsATtFUPiRFW_3syn4path11PathSegmentNtNtBJ_5token7PathSepEE3popBJ_, symObjAddr: 0x5844, symBinAddr: 0x3F8A8, symSize: 0x120 }
  - { offset: 0xE18A5, size: 0x8, addend: 0x0, symName: __RNvMs_NtCsdze8u8oDPro_5alloc3vecINtB4_3VecTNtNtCsATtFUPiRFW_3syn4path11PathSegmentNtNtBJ_5token7PathSepEE4pushBJ_, symObjAddr: 0x5964, symBinAddr: 0x3F9C8, symSize: 0x12C }
  - { offset: 0xE1B97, size: 0x8, addend: 0x0, symName: __RNvMs_NtCsdze8u8oDPro_5alloc3vecINtB4_3VecTNtNtCsATtFUPiRFW_3syn4path11PathSegmentNtNtBJ_5token7PathSepEE8as_sliceBJ_, symObjAddr: 0x5A90, symBinAddr: 0x3FAF4, symSize: 0x7C }
  - { offset: 0xE1E54, size: 0x8, addend: 0x0, symName: __RNvMs_NtCsdze8u8oDPro_5alloc3vecINtB4_3VecTNtNtCsATtFUPiRFW_3syn4path15GenericArgumentNtNtBJ_5token5CommaEE18spare_capacity_mutBJ_, symObjAddr: 0x5B0C, symBinAddr: 0x3FB70, symSize: 0xE0 }
  - { offset: 0xE2000, size: 0x8, addend: 0x0, symName: __RNvMs_NtCsdze8u8oDPro_5alloc3vecINtB4_3VecTNtNtCsATtFUPiRFW_3syn4path15GenericArgumentNtNtBJ_5token5CommaEE3lenBJ_, symObjAddr: 0x5BEC, symBinAddr: 0x3FC50, symSize: 0x18 }
  - { offset: 0xE217C, size: 0x8, addend: 0x0, symName: __RNvMs_NtCsdze8u8oDPro_5alloc3vecINtB4_3VecTNtNtCsATtFUPiRFW_3syn4path15GenericArgumentNtNtBJ_5token5CommaEE4pushBJ_, symObjAddr: 0x5C04, symBinAddr: 0x3FC68, symSize: 0x12C }
  - { offset: 0xE2477, size: 0x8, addend: 0x0, symName: __RNvMs_NtCsdze8u8oDPro_5alloc3vecINtB4_3VecTNtNtCsATtFUPiRFW_3syn4path15GenericArgumentNtNtBJ_5token5CommaEE8as_sliceBJ_, symObjAddr: 0x5D30, symBinAddr: 0x3FD94, symSize: 0x7C }
  - { offset: 0xE26DA, size: 0x8, addend: 0x0, symName: __RNvMs_NtCsdze8u8oDPro_5alloc3vecINtB4_3VecTNtNtCsATtFUPiRFW_3syn8generics12GenericParamNtNtBJ_5token5CommaEE12as_mut_sliceBJ_, symObjAddr: 0x5DAC, symBinAddr: 0x3FE10, symSize: 0x7C }
  - { offset: 0xE2981, size: 0x8, addend: 0x0, symName: __RNvMs_NtCsdze8u8oDPro_5alloc3vecINtB4_3VecTNtNtCsATtFUPiRFW_3syn8generics12GenericParamNtNtBJ_5token5CommaEE18spare_capacity_mutBJ_, symObjAddr: 0x5E28, symBinAddr: 0x3FE8C, symSize: 0xE0 }
  - { offset: 0xE2B2D, size: 0x8, addend: 0x0, symName: __RNvMs_NtCsdze8u8oDPro_5alloc3vecINtB4_3VecTNtNtCsATtFUPiRFW_3syn8generics12GenericParamNtNtBJ_5token5CommaEE3lenBJ_, symObjAddr: 0x5F08, symBinAddr: 0x3FF6C, symSize: 0x18 }
  - { offset: 0xE2CA9, size: 0x8, addend: 0x0, symName: __RNvMs_NtCsdze8u8oDPro_5alloc3vecINtB4_3VecTNtNtCsATtFUPiRFW_3syn8generics12GenericParamNtNtBJ_5token5CommaEE4pushBJ_, symObjAddr: 0x5F20, symBinAddr: 0x3FF84, symSize: 0x12C }
  - { offset: 0xE2F9C, size: 0x8, addend: 0x0, symName: __RNvMs_NtCsdze8u8oDPro_5alloc3vecINtB4_3VecTNtNtCsATtFUPiRFW_3syn8generics12GenericParamNtNtBJ_5token5CommaEE8as_sliceBJ_, symObjAddr: 0x604C, symBinAddr: 0x400B0, symSize: 0x7C }
  - { offset: 0xE3259, size: 0x8, addend: 0x0, symName: __RNvMs_NtCsdze8u8oDPro_5alloc3vecINtB4_3VecTNtNtCsATtFUPiRFW_3syn8generics13CapturedParamNtNtBJ_5token5CommaEE18spare_capacity_mutBJ_, symObjAddr: 0x60C8, symBinAddr: 0x4012C, symSize: 0xE0 }
  - { offset: 0xE353F, size: 0x8, addend: 0x0, symName: __RNvMs_NtCsdze8u8oDPro_5alloc3vecINtB4_3VecTNtNtCsATtFUPiRFW_3syn8generics13CapturedParamNtNtBJ_5token5CommaEE4pushBJ_, symObjAddr: 0x61A8, symBinAddr: 0x4020C, symSize: 0x124 }
  - { offset: 0xE3847, size: 0x8, addend: 0x0, symName: __RNvMs_NtCsdze8u8oDPro_5alloc3vecINtB4_3VecTNtNtCsATtFUPiRFW_3syn8generics13CapturedParamNtNtBJ_5token5CommaEE8as_sliceBJ_, symObjAddr: 0x62CC, symBinAddr: 0x40330, symSize: 0x7C }
  - { offset: 0xE3AF7, size: 0x8, addend: 0x0, symName: __RNvMs_NtCsdze8u8oDPro_5alloc3vecINtB4_3VecTNtNtCsATtFUPiRFW_3syn8generics14TypeParamBoundNtNtBJ_5token4PlusEE18spare_capacity_mutBJ_, symObjAddr: 0x6348, symBinAddr: 0x403AC, symSize: 0xDC }
  - { offset: 0xE3CA3, size: 0x8, addend: 0x0, symName: __RNvMs_NtCsdze8u8oDPro_5alloc3vecINtB4_3VecTNtNtCsATtFUPiRFW_3syn8generics14TypeParamBoundNtNtBJ_5token4PlusEE3lenBJ_, symObjAddr: 0x6424, symBinAddr: 0x40488, symSize: 0x18 }
  - { offset: 0xE3E1F, size: 0x8, addend: 0x0, symName: __RNvMs_NtCsdze8u8oDPro_5alloc3vecINtB4_3VecTNtNtCsATtFUPiRFW_3syn8generics14TypeParamBoundNtNtBJ_5token4PlusEE4pushBJ_, symObjAddr: 0x643C, symBinAddr: 0x404A0, symSize: 0x124 }
  - { offset: 0xE411A, size: 0x8, addend: 0x0, symName: __RNvMs_NtCsdze8u8oDPro_5alloc3vecINtB4_3VecTNtNtCsATtFUPiRFW_3syn8generics14TypeParamBoundNtNtBJ_5token4PlusEE8as_sliceBJ_, symObjAddr: 0x6560, symBinAddr: 0x405C4, symSize: 0x7C }
  - { offset: 0xE43D7, size: 0x8, addend: 0x0, symName: __RNvMs_NtCsdze8u8oDPro_5alloc3vecINtB4_3VecTNtNtCsATtFUPiRFW_3syn8generics14WherePredicateNtNtBJ_5token5CommaEE18spare_capacity_mutBJ_, symObjAddr: 0x65DC, symBinAddr: 0x40640, symSize: 0xE0 }
  - { offset: 0xE4583, size: 0x8, addend: 0x0, symName: __RNvMs_NtCsdze8u8oDPro_5alloc3vecINtB4_3VecTNtNtCsATtFUPiRFW_3syn8generics14WherePredicateNtNtBJ_5token5CommaEE3lenBJ_, symObjAddr: 0x66BC, symBinAddr: 0x40720, symSize: 0x18 }
  - { offset: 0xE46FF, size: 0x8, addend: 0x0, symName: __RNvMs_NtCsdze8u8oDPro_5alloc3vecINtB4_3VecTNtNtCsATtFUPiRFW_3syn8generics14WherePredicateNtNtBJ_5token5CommaEE4pushBJ_, symObjAddr: 0x66D4, symBinAddr: 0x40738, symSize: 0x12C }
  - { offset: 0xE49FA, size: 0x8, addend: 0x0, symName: __RNvMs_NtCsdze8u8oDPro_5alloc3vecINtB4_3VecTNtNtCsATtFUPiRFW_3syn8generics14WherePredicateNtNtBJ_5token5CommaEE8as_sliceBJ_, symObjAddr: 0x6800, symBinAddr: 0x40864, symSize: 0x7C }
  - { offset: 0xE4CB7, size: 0x8, addend: 0x0, symName: __RNvMs_NtCsdze8u8oDPro_5alloc3vecINtB4_3VecTNtNtCsATtFUPiRFW_3syn8lifetime8LifetimeNtNtBJ_5token4PlusEE18spare_capacity_mutBJ_, symObjAddr: 0x687C, symBinAddr: 0x408E0, symSize: 0xE0 }
  - { offset: 0xE4E63, size: 0x8, addend: 0x0, symName: __RNvMs_NtCsdze8u8oDPro_5alloc3vecINtB4_3VecTNtNtCsATtFUPiRFW_3syn8lifetime8LifetimeNtNtBJ_5token4PlusEE3lenBJ_, symObjAddr: 0x695C, symBinAddr: 0x409C0, symSize: 0x18 }
  - { offset: 0xE4FDF, size: 0x8, addend: 0x0, symName: __RNvMs_NtCsdze8u8oDPro_5alloc3vecINtB4_3VecTNtNtCsATtFUPiRFW_3syn8lifetime8LifetimeNtNtBJ_5token4PlusEE4pushBJ_, symObjAddr: 0x6974, symBinAddr: 0x409D8, symSize: 0x124 }
  - { offset: 0xE52DB, size: 0x8, addend: 0x0, symName: __RNvMs_NtCsdze8u8oDPro_5alloc3vecINtB4_3VecTNtNtCsATtFUPiRFW_3syn8lifetime8LifetimeNtNtBJ_5token4PlusEE8as_sliceBJ_, symObjAddr: 0x6A98, symBinAddr: 0x40AFC, symSize: 0x7C }
  - { offset: 0xE5608, size: 0x8, addend: 0x0, symName: __RNvMs_NtCsdze8u8oDPro_5alloc3vecINtB4_3VechE16into_boxed_sliceCsATtFUPiRFW_3syn, symObjAddr: 0x6B14, symBinAddr: 0x40B78, symSize: 0x1B8 }
  - { offset: 0xE5A35, size: 0x8, addend: 0x0, symName: __RNvMs_NtCsdze8u8oDPro_5alloc3vecINtB4_3VechE18spare_capacity_mutCsATtFUPiRFW_3syn, symObjAddr: 0x6CCC, symBinAddr: 0x40D30, symSize: 0xD4 }
  - { offset: 0xE5BD4, size: 0x8, addend: 0x0, symName: __RNvMs_NtCsdze8u8oDPro_5alloc3vecINtB4_3VechE3lenCsATtFUPiRFW_3syn, symObjAddr: 0x6DA0, symBinAddr: 0x40E04, symSize: 0x18 }
  - { offset: 0xE5CE7, size: 0x8, addend: 0x0, symName: __RNvMs_NtCsdze8u8oDPro_5alloc3vecINtB4_3VechE8as_sliceCsATtFUPiRFW_3syn, symObjAddr: 0x6DB8, symBinAddr: 0x40E1C, symSize: 0x78 }
  - { offset: 0xE5EEF, size: 0x8, addend: 0x0, symName: __RNvMs_NtCsdze8u8oDPro_5alloc3vecINtB4_3VechE8truncateCsATtFUPiRFW_3syn, symObjAddr: 0x6E30, symBinAddr: 0x40E94, symSize: 0x80 }
  - { offset: 0xE6301, size: 0x8, addend: 0x0, symName: __RNvMs_NtCsdze8u8oDPro_5alloc3vecINtB4_3VechE9split_offCsATtFUPiRFW_3syn, symObjAddr: 0x6EB0, symBinAddr: 0x40F14, symSize: 0x184 }
  - { offset: 0xF10B6, size: 0x8, addend: 0x0, symName: __RINvXNtNtCsdze8u8oDPro_5alloc5slice4hackNtNtCsATtFUPiRFW_3syn4item11ForeignItemNtB3_10ConvertVec6to_vecNtNtB7_5alloc6GlobalEBG_, symObjAddr: 0x0, symBinAddr: 0x47878, symSize: 0x2C0 }
  - { offset: 0xF2628, size: 0x8, addend: 0x0, symName: __RNvXs_NtCsATtFUPiRFW_3syn4itemNtB4_4ItemINtNtCs9f3LFPSIp77_4core7convert4FromNtNtB6_6derive11DeriveInputE4from, symObjAddr: 0x7220, symBinAddr: 0x4EA98, symSize: 0x42C }
  - { offset: 0xF26B7, size: 0x8, addend: 0x0, symName: __RNvXNtNtCsATtFUPiRFW_3syn4item7parsingNtB4_4ItemNtNtB6_5parse5Parse5parse, symObjAddr: 0x77C4, symBinAddr: 0x4F03C, symSize: 0x1B4 }
  - { offset: 0xF275D, size: 0x8, addend: 0x0, symName: __RNvXs0_NtNtCsATtFUPiRFW_3syn4item7parsingNtB7_9ItemMacroNtNtB9_5parse5Parse5parse, symObjAddr: 0x7978, symBinAddr: 0x4F1F0, symSize: 0x640 }
  - { offset: 0xF2928, size: 0x8, addend: 0x0, symName: __RNvXs1_NtNtCsATtFUPiRFW_3syn4item7parsingNtB7_15ItemExternCrateNtNtB9_5parse5Parse5parse, symObjAddr: 0x7FB8, symBinAddr: 0x4F830, symSize: 0x95C }
  - { offset: 0xF2B31, size: 0x8, addend: 0x0, symName: __RNvXs2_NtNtCsATtFUPiRFW_3syn4item7parsingNtB7_7ItemUseNtNtB9_5parse5Parse5parse, symObjAddr: 0x8914, symBinAddr: 0x5018C, symSize: 0x58 }
  - { offset: 0xF2B82, size: 0x8, addend: 0x0, symName: __RNvXs3_NtNtCsATtFUPiRFW_3syn4item7parsingNtB7_7UseTreeNtNtB9_5parse5Parse5parse, symObjAddr: 0x896C, symBinAddr: 0x501E4, symSize: 0x58 }
  - { offset: 0xF2BD3, size: 0x8, addend: 0x0, symName: __RNvXs4_NtNtCsATtFUPiRFW_3syn4item7parsingNtB7_10ItemStaticNtNtB9_5parse5Parse5parse, symObjAddr: 0x89C4, symBinAddr: 0x5023C, symSize: 0xAC0 }
  - { offset: 0xF2DD7, size: 0x8, addend: 0x0, symName: __RNvXs5_NtNtCsATtFUPiRFW_3syn4item7parsingNtB7_9ItemConstNtNtB9_5parse5Parse5parse, symObjAddr: 0x9484, symBinAddr: 0x50CFC, symSize: 0xA64 }
  - { offset: 0xF30A5, size: 0x8, addend: 0x0, symName: __RNvXs6_NtNtCsATtFUPiRFW_3syn4item7parsingNtB7_9SignatureNtNtB9_5parse5Parse5parse, symObjAddr: 0x9EE8, symBinAddr: 0x51760, symSize: 0x60 }
  - { offset: 0xF30F6, size: 0x8, addend: 0x0, symName: __RNvXs7_NtNtCsATtFUPiRFW_3syn4item7parsingNtB7_6ItemFnNtNtB9_5parse5Parse5parse, symObjAddr: 0x9F48, symBinAddr: 0x517C0, symSize: 0x378 }
  - { offset: 0xF3229, size: 0x8, addend: 0x0, symName: __RNvXs8_NtNtCsATtFUPiRFW_3syn4item7parsingNtB7_5FnArgNtNtB9_5parse5Parse5parse, symObjAddr: 0xA2C0, symBinAddr: 0x51B38, symSize: 0x2E0 }
  - { offset: 0xF3324, size: 0x8, addend: 0x0, symName: __RNvXs9_NtNtCsATtFUPiRFW_3syn4item7parsingNtB7_8ReceiverNtNtB9_5parse5Parse5parse, symObjAddr: 0xA5A0, symBinAddr: 0x51E18, symSize: 0x98C }
  - { offset: 0xF3577, size: 0x8, addend: 0x0, symName: __RNvXsa_NtNtCsATtFUPiRFW_3syn4item7parsingNtB7_7ItemModNtNtB9_5parse5Parse5parse, symObjAddr: 0xAF2C, symBinAddr: 0x527A4, symSize: 0xC60 }
  - { offset: 0xF37D7, size: 0x8, addend: 0x0, symName: __RNvXsb_NtNtCsATtFUPiRFW_3syn4item7parsingNtB7_14ItemForeignModNtNtB9_5parse5Parse5parse, symObjAddr: 0xBB8C, symBinAddr: 0x53404, symSize: 0x61C }
  - { offset: 0xF3986, size: 0x8, addend: 0x0, symName: __RNvXsc_NtNtCsATtFUPiRFW_3syn4item7parsingNtB7_11ForeignItemNtNtB9_5parse5Parse5parse, symObjAddr: 0xC1A8, symBinAddr: 0x53A20, symSize: 0x1DB8 }
  - { offset: 0xF3FEA, size: 0x8, addend: 0x0, symName: __RNvXsd_NtNtCsATtFUPiRFW_3syn4item7parsingNtB7_13ForeignItemFnNtNtB9_5parse5Parse5parse, symObjAddr: 0xDF60, symBinAddr: 0x557D8, symSize: 0x3C0 }
  - { offset: 0xF414A, size: 0x8, addend: 0x0, symName: __RNvXse_NtNtCsATtFUPiRFW_3syn4item7parsingNtB7_17ForeignItemStaticNtNtB9_5parse5Parse5parse, symObjAddr: 0xE320, symBinAddr: 0x55B98, symSize: 0x830 }
  - { offset: 0xF42F1, size: 0x8, addend: 0x0, symName: __RNvXsf_NtNtCsATtFUPiRFW_3syn4item7parsingNtB7_15ForeignItemTypeNtNtB9_5parse5Parse5parse, symObjAddr: 0xEB50, symBinAddr: 0x563C8, symSize: 0x744 }
  - { offset: 0xF4481, size: 0x8, addend: 0x0, symName: __RNvXsg_NtNtCsATtFUPiRFW_3syn4item7parsingNtB7_16ForeignItemMacroNtNtB9_5parse5Parse5parse, symObjAddr: 0xF294, symBinAddr: 0x56B0C, symSize: 0x33C }
  - { offset: 0xF4594, size: 0x8, addend: 0x0, symName: __RNvXsh_NtNtCsATtFUPiRFW_3syn4item7parsingNtB7_8ItemTypeNtNtB9_5parse5Parse5parse, symObjAddr: 0xF5D0, symBinAddr: 0x56E48, symSize: 0x9D4 }
  - { offset: 0xF4780, size: 0x8, addend: 0x0, symName: __RNvXsi_NtNtCsATtFUPiRFW_3syn4item7parsingNtB7_10ItemStructNtNtB9_5parse5Parse5parse, symObjAddr: 0xFFA4, symBinAddr: 0x5781C, symSize: 0x650 }
  - { offset: 0xF497B, size: 0x8, addend: 0x0, symName: __RNvXsj_NtNtCsATtFUPiRFW_3syn4item7parsingNtB7_8ItemEnumNtNtB9_5parse5Parse5parse, symObjAddr: 0x105F4, symBinAddr: 0x57E6C, symSize: 0x650 }
  - { offset: 0xF4B76, size: 0x8, addend: 0x0, symName: __RNvXsk_NtNtCsATtFUPiRFW_3syn4item7parsingNtB7_9ItemUnionNtNtB9_5parse5Parse5parse, symObjAddr: 0x10C44, symBinAddr: 0x584BC, symSize: 0x640 }
  - { offset: 0xF4D61, size: 0x8, addend: 0x0, symName: __RNvXsl_NtNtCsATtFUPiRFW_3syn4item7parsingNtB7_9ItemTraitNtNtB9_5parse5Parse5parse, symObjAddr: 0x11284, symBinAddr: 0x58AFC, symSize: 0x640 }
  - { offset: 0xF4F65, size: 0x8, addend: 0x0, symName: __RNvXsm_NtNtCsATtFUPiRFW_3syn4item7parsingNtB7_14ItemTraitAliasNtNtB9_5parse5Parse5parse, symObjAddr: 0x118C4, symBinAddr: 0x5913C, symSize: 0x270 }
  - { offset: 0xF5019, size: 0x8, addend: 0x0, symName: __RNvXsn_NtNtCsATtFUPiRFW_3syn4item7parsingNtB7_9TraitItemNtNtB9_5parse5Parse5parse, symObjAddr: 0x11B34, symBinAddr: 0x593AC, symSize: 0x1690 }
  - { offset: 0xF5487, size: 0x8, addend: 0x0, symName: __RNvXso_NtNtCsATtFUPiRFW_3syn4item7parsingNtB7_14TraitItemConstNtNtB9_5parse5Parse5parse, symObjAddr: 0x131C4, symBinAddr: 0x5AA3C, symSize: 0x88C }
  - { offset: 0xF56C9, size: 0x8, addend: 0x0, symName: __RNvXsp_NtNtCsATtFUPiRFW_3syn4item7parsingNtB7_11TraitItemFnNtNtB9_5parse5Parse5parse, symObjAddr: 0x13A50, symBinAddr: 0x5B2C8, symSize: 0x800 }
  - { offset: 0xF58C9, size: 0x8, addend: 0x0, symName: __RNvXsq_NtNtCsATtFUPiRFW_3syn4item7parsingNtB7_13TraitItemTypeNtNtB9_5parse5Parse5parse, symObjAddr: 0x14250, symBinAddr: 0x5BAC8, symSize: 0x730 }
  - { offset: 0xF5AEF, size: 0x8, addend: 0x0, symName: __RNvXsr_NtNtCsATtFUPiRFW_3syn4item7parsingNtB7_14TraitItemMacroNtNtB9_5parse5Parse5parse, symObjAddr: 0x14980, symBinAddr: 0x5C1F8, symSize: 0x33C }
  - { offset: 0xF5C02, size: 0x8, addend: 0x0, symName: __RNvXss_NtNtCsATtFUPiRFW_3syn4item7parsingNtB7_8ItemImplNtNtB9_5parse5Parse5parse, symObjAddr: 0x14CBC, symBinAddr: 0x5C534, symSize: 0x60 }
  - { offset: 0xF5C53, size: 0x8, addend: 0x0, symName: __RNvXst_NtNtCsATtFUPiRFW_3syn4item7parsingNtB7_8ImplItemNtNtB9_5parse5Parse5parse, symObjAddr: 0x14D1C, symBinAddr: 0x5C594, symSize: 0x1AC8 }
  - { offset: 0xF616C, size: 0x8, addend: 0x0, symName: __RNvXsu_NtNtCsATtFUPiRFW_3syn4item7parsingNtB7_13ImplItemConstNtNtB9_5parse5Parse5parse, symObjAddr: 0x167E4, symBinAddr: 0x5E05C, symSize: 0x9D0 }
  - { offset: 0xF6427, size: 0x8, addend: 0x0, symName: __RNvXsv_NtNtCsATtFUPiRFW_3syn4item7parsingNtB7_10ImplItemFnNtNtB9_5parse5Parse5parse, symObjAddr: 0x171B4, symBinAddr: 0x5EA2C, symSize: 0x60 }
  - { offset: 0xF6478, size: 0x8, addend: 0x0, symName: __RNvXsw_NtNtCsATtFUPiRFW_3syn4item7parsingNtB7_12ImplItemTypeNtNtB9_5parse5Parse5parse, symObjAddr: 0x17214, symBinAddr: 0x5EA8C, symSize: 0x844 }
  - { offset: 0xF6706, size: 0x8, addend: 0x0, symName: __RNvXsx_NtNtCsATtFUPiRFW_3syn4item7parsingNtB7_13ImplItemMacroNtNtB9_5parse5Parse5parse, symObjAddr: 0x17A58, symBinAddr: 0x5F2D0, symSize: 0x33C }
  - { offset: 0xF6819, size: 0x8, addend: 0x0, symName: __RNvXsz_NtNtCsATtFUPiRFW_3syn4item7parsingNtB7_16StaticMutabilityNtNtB9_5parse5Parse5parse, symObjAddr: 0x17D94, symBinAddr: 0x5F60C, symSize: 0xDC }
  - { offset: 0xF68F0, size: 0x8, addend: 0x0, symName: __RNvXNtNtCsATtFUPiRFW_3syn4item8printingNtB4_15ItemExternCrateNtNtCs62MdaZFMefA_5quote9to_tokens8ToTokens9to_tokens, symObjAddr: 0x17E70, symBinAddr: 0x5F6E8, symSize: 0x110 }
  - { offset: 0xF695D, size: 0x8, addend: 0x0, symName: __RNvXs_NtNtCsATtFUPiRFW_3syn4item8printingNtB6_7ItemUseNtNtCs62MdaZFMefA_5quote9to_tokens8ToTokens9to_tokens, symObjAddr: 0x17F80, symBinAddr: 0x5F7F8, symSize: 0xA4 }
  - { offset: 0xF699C, size: 0x8, addend: 0x0, symName: __RNvXs0_NtNtCsATtFUPiRFW_3syn4item8printingNtB7_10ItemStaticNtNtCs62MdaZFMefA_5quote9to_tokens8ToTokens9to_tokens, symObjAddr: 0x18024, symBinAddr: 0x5F89C, symSize: 0xE4 }
  - { offset: 0xF69DB, size: 0x8, addend: 0x0, symName: __RNvXs1_NtNtCsATtFUPiRFW_3syn4item8printingNtB7_9ItemConstNtNtCs62MdaZFMefA_5quote9to_tokens8ToTokens9to_tokens, symObjAddr: 0x18108, symBinAddr: 0x5F980, symSize: 0xD4 }
  - { offset: 0xF6A1A, size: 0x8, addend: 0x0, symName: __RNvXs2_NtNtCsATtFUPiRFW_3syn4item8printingNtB7_6ItemFnNtNtCs62MdaZFMefA_5quote9to_tokens8ToTokens9to_tokens, symObjAddr: 0x181DC, symBinAddr: 0x5FA54, symSize: 0x8C }
  - { offset: 0xF6A59, size: 0x8, addend: 0x0, symName: __RNvXs3_NtNtCsATtFUPiRFW_3syn4item8printingNtB7_7ItemModNtNtCs62MdaZFMefA_5quote9to_tokens8ToTokens9to_tokens, symObjAddr: 0x18268, symBinAddr: 0x5FAE0, symSize: 0x110 }
  - { offset: 0xF6AC6, size: 0x8, addend: 0x0, symName: __RNvXs4_NtNtCsATtFUPiRFW_3syn4item8printingNtB7_14ItemForeignModNtNtCs62MdaZFMefA_5quote9to_tokens8ToTokens9to_tokens, symObjAddr: 0x18378, symBinAddr: 0x5FBF0, symSize: 0x88 }
  - { offset: 0xF6B05, size: 0x8, addend: 0x0, symName: __RNvXs5_NtNtCsATtFUPiRFW_3syn4item8printingNtB7_8ItemTypeNtNtCs62MdaZFMefA_5quote9to_tokens8ToTokens9to_tokens, symObjAddr: 0x18400, symBinAddr: 0x5FC78, symSize: 0xD4 }
  - { offset: 0xF6B44, size: 0x8, addend: 0x0, symName: __RNvXs6_NtNtCsATtFUPiRFW_3syn4item8printingNtB7_8ItemEnumNtNtCs62MdaZFMefA_5quote9to_tokens8ToTokens9to_tokens, symObjAddr: 0x184D4, symBinAddr: 0x5FD4C, symSize: 0xB8 }
  - { offset: 0xF6B83, size: 0x8, addend: 0x0, symName: __RNvXs7_NtNtCsATtFUPiRFW_3syn4item8printingNtB7_10ItemStructNtNtCs62MdaZFMefA_5quote9to_tokens8ToTokens9to_tokens, symObjAddr: 0x1858C, symBinAddr: 0x5FE04, symSize: 0x188 }
  - { offset: 0xF6BFE, size: 0x8, addend: 0x0, symName: __RNvXs8_NtNtCsATtFUPiRFW_3syn4item8printingNtB7_9ItemUnionNtNtCs62MdaZFMefA_5quote9to_tokens8ToTokens9to_tokens, symObjAddr: 0x18714, symBinAddr: 0x5FF8C, symSize: 0xB4 }
  - { offset: 0xF6C3D, size: 0x8, addend: 0x0, symName: __RNvXs9_NtNtCsATtFUPiRFW_3syn4item8printingNtB7_9ItemTraitNtNtCs62MdaZFMefA_5quote9to_tokens8ToTokens9to_tokens, symObjAddr: 0x187C8, symBinAddr: 0x60040, symSize: 0x130 }
  - { offset: 0xF6C7C, size: 0x8, addend: 0x0, symName: __RNvXsa_NtNtCsATtFUPiRFW_3syn4item8printingNtB7_14ItemTraitAliasNtNtCs62MdaZFMefA_5quote9to_tokens8ToTokens9to_tokens, symObjAddr: 0x188F8, symBinAddr: 0x60170, symSize: 0xD4 }
  - { offset: 0xF6CBB, size: 0x8, addend: 0x0, symName: __RNvXsb_NtNtCsATtFUPiRFW_3syn4item8printingNtB7_8ItemImplNtNtCs62MdaZFMefA_5quote9to_tokens8ToTokens9to_tokens, symObjAddr: 0x189CC, symBinAddr: 0x60244, symSize: 0x14C }
  - { offset: 0xF6D38, size: 0x8, addend: 0x0, symName: __RNvXsc_NtNtCsATtFUPiRFW_3syn4item8printingNtB7_9ItemMacroNtNtCs62MdaZFMefA_5quote9to_tokens8ToTokens9to_tokens, symObjAddr: 0x18B18, symBinAddr: 0x60390, symSize: 0x148 }
  - { offset: 0xF6DC9, size: 0x8, addend: 0x0, symName: __RNvXsd_NtNtCsATtFUPiRFW_3syn4item8printingNtB7_7UsePathNtNtCs62MdaZFMefA_5quote9to_tokens8ToTokens9to_tokens, symObjAddr: 0x18C60, symBinAddr: 0x604D8, symSize: 0x60 }
  - { offset: 0xF6E08, size: 0x8, addend: 0x0, symName: __RNvXse_NtNtCsATtFUPiRFW_3syn4item8printingNtB7_7UseNameNtNtCs62MdaZFMefA_5quote9to_tokens8ToTokens9to_tokens, symObjAddr: 0x18CC0, symBinAddr: 0x60538, symSize: 0x3C }
  - { offset: 0xF6E47, size: 0x8, addend: 0x0, symName: __RNvXsf_NtNtCsATtFUPiRFW_3syn4item8printingNtB7_9UseRenameNtNtCs62MdaZFMefA_5quote9to_tokens8ToTokens9to_tokens, symObjAddr: 0x18CFC, symBinAddr: 0x60574, symSize: 0x60 }
  - { offset: 0xF6E86, size: 0x8, addend: 0x0, symName: __RNvXsg_NtNtCsATtFUPiRFW_3syn4item8printingNtB7_7UseGlobNtNtCs62MdaZFMefA_5quote9to_tokens8ToTokens9to_tokens, symObjAddr: 0x18D5C, symBinAddr: 0x605D4, symSize: 0x3C }
  - { offset: 0xF6EC5, size: 0x8, addend: 0x0, symName: __RNvXsh_NtNtCsATtFUPiRFW_3syn4item8printingNtB7_8UseGroupNtNtCs62MdaZFMefA_5quote9to_tokens8ToTokens9to_tokens, symObjAddr: 0x18D98, symBinAddr: 0x60610, symSize: 0x44 }
  - { offset: 0xF6F04, size: 0x8, addend: 0x0, symName: __RNvXsi_NtNtCsATtFUPiRFW_3syn4item8printingNtB7_14TraitItemConstNtNtCs62MdaZFMefA_5quote9to_tokens8ToTokens9to_tokens, symObjAddr: 0x18DDC, symBinAddr: 0x60654, symSize: 0x110 }
  - { offset: 0xF6F71, size: 0x8, addend: 0x0, symName: __RNvXsj_NtNtCsATtFUPiRFW_3syn4item8printingNtB7_11TraitItemFnNtNtCs62MdaZFMefA_5quote9to_tokens8ToTokens9to_tokens, symObjAddr: 0x18EEC, symBinAddr: 0x60764, symSize: 0xD4 }
  - { offset: 0xF6FCE, size: 0x8, addend: 0x0, symName: __RNvXsk_NtNtCsATtFUPiRFW_3syn4item8printingNtB7_13TraitItemTypeNtNtCs62MdaZFMefA_5quote9to_tokens8ToTokens9to_tokens, symObjAddr: 0x18FC0, symBinAddr: 0x60838, symSize: 0x168 }
  - { offset: 0xF703B, size: 0x8, addend: 0x0, symName: __RNvXsl_NtNtCsATtFUPiRFW_3syn4item8printingNtB7_14TraitItemMacroNtNtCs62MdaZFMefA_5quote9to_tokens8ToTokens9to_tokens, symObjAddr: 0x19128, symBinAddr: 0x609A0, symSize: 0x74 }
  - { offset: 0xF707A, size: 0x8, addend: 0x0, symName: __RNvXsm_NtNtCsATtFUPiRFW_3syn4item8printingNtB7_13ImplItemConstNtNtCs62MdaZFMefA_5quote9to_tokens8ToTokens9to_tokens, symObjAddr: 0x1919C, symBinAddr: 0x60A14, symSize: 0xE4 }
  - { offset: 0xF70B9, size: 0x8, addend: 0x0, symName: __RNvXsn_NtNtCsATtFUPiRFW_3syn4item8printingNtB7_10ImplItemFnNtNtCs62MdaZFMefA_5quote9to_tokens8ToTokens9to_tokens, symObjAddr: 0x19280, symBinAddr: 0x60AF8, symSize: 0x98 }
  - { offset: 0xF70F8, size: 0x8, addend: 0x0, symName: __RNvXso_NtNtCsATtFUPiRFW_3syn4item8printingNtB7_12ImplItemTypeNtNtCs62MdaZFMefA_5quote9to_tokens8ToTokens9to_tokens, symObjAddr: 0x19318, symBinAddr: 0x60B90, symSize: 0xE4 }
  - { offset: 0xF7137, size: 0x8, addend: 0x0, symName: __RNvXsp_NtNtCsATtFUPiRFW_3syn4item8printingNtB7_13ImplItemMacroNtNtCs62MdaZFMefA_5quote9to_tokens8ToTokens9to_tokens, symObjAddr: 0x193FC, symBinAddr: 0x60C74, symSize: 0x74 }
  - { offset: 0xF7176, size: 0x8, addend: 0x0, symName: __RNvXsq_NtNtCsATtFUPiRFW_3syn4item8printingNtB7_13ForeignItemFnNtNtCs62MdaZFMefA_5quote9to_tokens8ToTokens9to_tokens, symObjAddr: 0x19470, symBinAddr: 0x60CE8, symSize: 0x84 }
  - { offset: 0xF71B5, size: 0x8, addend: 0x0, symName: __RNvXsr_NtNtCsATtFUPiRFW_3syn4item8printingNtB7_17ForeignItemStaticNtNtCs62MdaZFMefA_5quote9to_tokens8ToTokens9to_tokens, symObjAddr: 0x194F4, symBinAddr: 0x60D6C, symSize: 0xC4 }
  - { offset: 0xF71F4, size: 0x8, addend: 0x0, symName: __RNvXss_NtNtCsATtFUPiRFW_3syn4item8printingNtB7_15ForeignItemTypeNtNtCs62MdaZFMefA_5quote9to_tokens8ToTokens9to_tokens, symObjAddr: 0x195B8, symBinAddr: 0x60E30, symSize: 0xB4 }
  - { offset: 0xF7233, size: 0x8, addend: 0x0, symName: __RNvXst_NtNtCsATtFUPiRFW_3syn4item8printingNtB7_16ForeignItemMacroNtNtCs62MdaZFMefA_5quote9to_tokens8ToTokens9to_tokens, symObjAddr: 0x1966C, symBinAddr: 0x60EE4, symSize: 0x74 }
  - { offset: 0xF7272, size: 0x8, addend: 0x0, symName: __RNvXsu_NtNtCsATtFUPiRFW_3syn4item8printingNtB7_9SignatureNtNtCs62MdaZFMefA_5quote9to_tokens8ToTokens9to_tokens, symObjAddr: 0x196E0, symBinAddr: 0x60F58, symSize: 0xD4 }
  - { offset: 0xF72B1, size: 0x8, addend: 0x0, symName: __RNvXsv_NtNtCsATtFUPiRFW_3syn4item8printingNtB7_8ReceiverNtNtCs62MdaZFMefA_5quote9to_tokens8ToTokens9to_tokens, symObjAddr: 0x197B4, symBinAddr: 0x6102C, symSize: 0x40C }
  - { offset: 0xF73A6, size: 0x8, addend: 0x0, symName: __RNvXsw_NtNtCsATtFUPiRFW_3syn4item8printingNtB7_8VariadicNtNtCs62MdaZFMefA_5quote9to_tokens8ToTokens9to_tokens, symObjAddr: 0x19BC0, symBinAddr: 0x61438, symSize: 0xE0 }
  - { offset: 0xF7413, size: 0x8, addend: 0x0, symName: __RNvXsx_NtNtCsATtFUPiRFW_3syn4item8printingNtB7_16StaticMutabilityNtNtCs62MdaZFMefA_5quote9to_tokens8ToTokens9to_tokens, symObjAddr: 0x19CA0, symBinAddr: 0x61518, symSize: 0x7C }
  - { offset: 0xF7476, size: 0x8, addend: 0x0, symName: __RNcNtNtNtCsATtFUPiRFW_3syn4item4Item4Enum0B7_, symObjAddr: 0x19D1C, symBinAddr: 0x61594, symSize: 0x3C }
  - { offset: 0xF74A5, size: 0x8, addend: 0x0, symName: __RNcNtNtNtCsATtFUPiRFW_3syn4item4Item11ExternCrate0B7_, symObjAddr: 0x19D58, symBinAddr: 0x615D0, symSize: 0x3C }
  - { offset: 0xF74D4, size: 0x8, addend: 0x0, symName: __RNcNtNtNtCsATtFUPiRFW_3syn4item4Item2Fn0B7_, symObjAddr: 0x19D94, symBinAddr: 0x6160C, symSize: 0x30 }
  - { offset: 0xF7503, size: 0x8, addend: 0x0, symName: __RNcNtNtNtCsATtFUPiRFW_3syn4item4Item10ForeignMod0B7_, symObjAddr: 0x19DC4, symBinAddr: 0x6163C, symSize: 0x3C }
  - { offset: 0xF7532, size: 0x8, addend: 0x0, symName: __RNcNtNtNtCsATtFUPiRFW_3syn4item4Item5Macro0B7_, symObjAddr: 0x19E00, symBinAddr: 0x61678, symSize: 0x3C }
  - { offset: 0xF7561, size: 0x8, addend: 0x0, symName: __RNcNtNtNtCsATtFUPiRFW_3syn4item4Item3Mod0B7_, symObjAddr: 0x19E3C, symBinAddr: 0x616B4, symSize: 0x3C }
  - { offset: 0xF7590, size: 0x8, addend: 0x0, symName: __RNcNtNtNtCsATtFUPiRFW_3syn4item4Item6Struct0B7_, symObjAddr: 0x19E78, symBinAddr: 0x616F0, symSize: 0x3C }
  - { offset: 0xF75BF, size: 0x8, addend: 0x0, symName: __RNcNtNtNtCsATtFUPiRFW_3syn4item4Item5Trait0B7_, symObjAddr: 0x19EB4, symBinAddr: 0x6172C, symSize: 0x3C }
  - { offset: 0xF75EE, size: 0x8, addend: 0x0, symName: __RNcNtNtNtCsATtFUPiRFW_3syn4item4Item10TraitAlias0B7_, symObjAddr: 0x19EF0, symBinAddr: 0x61768, symSize: 0x3C }
  - { offset: 0xF761D, size: 0x8, addend: 0x0, symName: __RNcNtNtNtCsATtFUPiRFW_3syn4item4Item5Union0B7_, symObjAddr: 0x19F2C, symBinAddr: 0x617A4, symSize: 0x3C }
  - { offset: 0xF764D, size: 0x8, addend: 0x0, symName: __RNvXs5_NtCsATtFUPiRFW_3syn4itemNtB5_4ItemINtNtCs9f3LFPSIp77_4core7convert4FromNtB5_9ItemConstE4from, symObjAddr: 0x19F68, symBinAddr: 0x617E0, symSize: 0x4C }
  - { offset: 0xF7680, size: 0x8, addend: 0x0, symName: __RNvXs6_NtCsATtFUPiRFW_3syn4itemNtB5_4ItemINtNtCs9f3LFPSIp77_4core7convert4FromNtB5_8ItemEnumE4from, symObjAddr: 0x19FB4, symBinAddr: 0x6182C, symSize: 0x4C }
  - { offset: 0xF76B3, size: 0x8, addend: 0x0, symName: __RNvXs7_NtCsATtFUPiRFW_3syn4itemNtB5_4ItemINtNtCs9f3LFPSIp77_4core7convert4FromNtB5_15ItemExternCrateE4from, symObjAddr: 0x1A000, symBinAddr: 0x61878, symSize: 0x4C }
  - { offset: 0xF76E6, size: 0x8, addend: 0x0, symName: __RNvXs8_NtCsATtFUPiRFW_3syn4itemNtB5_4ItemINtNtCs9f3LFPSIp77_4core7convert4FromNtB5_6ItemFnE4from, symObjAddr: 0x1A04C, symBinAddr: 0x618C4, symSize: 0x40 }
  - { offset: 0xF7719, size: 0x8, addend: 0x0, symName: __RNvXs9_NtCsATtFUPiRFW_3syn4itemNtB5_4ItemINtNtCs9f3LFPSIp77_4core7convert4FromNtB5_14ItemForeignModE4from, symObjAddr: 0x1A08C, symBinAddr: 0x61904, symSize: 0x4C }
  - { offset: 0xF774C, size: 0x8, addend: 0x0, symName: __RNvXsa_NtCsATtFUPiRFW_3syn4itemNtB5_4ItemINtNtCs9f3LFPSIp77_4core7convert4FromNtB5_8ItemImplE4from, symObjAddr: 0x1A0D8, symBinAddr: 0x61950, symSize: 0x4C }
  - { offset: 0xF777F, size: 0x8, addend: 0x0, symName: __RNvXsb_NtCsATtFUPiRFW_3syn4itemNtB5_4ItemINtNtCs9f3LFPSIp77_4core7convert4FromNtB5_9ItemMacroE4from, symObjAddr: 0x1A124, symBinAddr: 0x6199C, symSize: 0x4C }
  - { offset: 0xF77B2, size: 0x8, addend: 0x0, symName: __RNvXsc_NtCsATtFUPiRFW_3syn4itemNtB5_4ItemINtNtCs9f3LFPSIp77_4core7convert4FromNtB5_7ItemModE4from, symObjAddr: 0x1A170, symBinAddr: 0x619E8, symSize: 0x4C }
  - { offset: 0xF77E5, size: 0x8, addend: 0x0, symName: __RNvXsd_NtCsATtFUPiRFW_3syn4itemNtB5_4ItemINtNtCs9f3LFPSIp77_4core7convert4FromNtB5_10ItemStaticE4from, symObjAddr: 0x1A1BC, symBinAddr: 0x61A34, symSize: 0x4C }
  - { offset: 0xF7818, size: 0x8, addend: 0x0, symName: __RNvXse_NtCsATtFUPiRFW_3syn4itemNtB5_4ItemINtNtCs9f3LFPSIp77_4core7convert4FromNtB5_10ItemStructE4from, symObjAddr: 0x1A208, symBinAddr: 0x61A80, symSize: 0x4C }
  - { offset: 0xF784B, size: 0x8, addend: 0x0, symName: __RNvXsf_NtCsATtFUPiRFW_3syn4itemNtB5_4ItemINtNtCs9f3LFPSIp77_4core7convert4FromNtB5_9ItemTraitE4from, symObjAddr: 0x1A254, symBinAddr: 0x61ACC, symSize: 0x4C }
  - { offset: 0xF787E, size: 0x8, addend: 0x0, symName: __RNvXsg_NtCsATtFUPiRFW_3syn4itemNtB5_4ItemINtNtCs9f3LFPSIp77_4core7convert4FromNtB5_14ItemTraitAliasE4from, symObjAddr: 0x1A2A0, symBinAddr: 0x61B18, symSize: 0x4C }
  - { offset: 0xF78B1, size: 0x8, addend: 0x0, symName: __RNvXsh_NtCsATtFUPiRFW_3syn4itemNtB5_4ItemINtNtCs9f3LFPSIp77_4core7convert4FromNtB5_8ItemTypeE4from, symObjAddr: 0x1A2EC, symBinAddr: 0x61B64, symSize: 0x4C }
  - { offset: 0xF78E4, size: 0x8, addend: 0x0, symName: __RNvXsi_NtCsATtFUPiRFW_3syn4itemNtB5_4ItemINtNtCs9f3LFPSIp77_4core7convert4FromNtB5_9ItemUnionE4from, symObjAddr: 0x1A338, symBinAddr: 0x61BB0, symSize: 0x4C }
  - { offset: 0xF7917, size: 0x8, addend: 0x0, symName: __RNvXsj_NtCsATtFUPiRFW_3syn4itemNtB5_4ItemINtNtCs9f3LFPSIp77_4core7convert4FromNtB5_7ItemUseE4from, symObjAddr: 0x1A384, symBinAddr: 0x61BFC, symSize: 0x4C }
  - { offset: 0xF794A, size: 0x8, addend: 0x0, symName: __RNvXsk_NtCsATtFUPiRFW_3syn4itemNtB5_4ItemNtNtCs62MdaZFMefA_5quote9to_tokens8ToTokens9to_tokens, symObjAddr: 0x1A3D0, symBinAddr: 0x61C48, symSize: 0x35C }
  - { offset: 0xF7B54, size: 0x8, addend: 0x0, symName: __RNvXsl_NtCsATtFUPiRFW_3syn4itemNtB5_7UseTreeINtNtCs9f3LFPSIp77_4core7convert4FromNtB5_7UsePathE4from, symObjAddr: 0x1A72C, symBinAddr: 0x61FA4, symSize: 0x48 }
  - { offset: 0xF7B87, size: 0x8, addend: 0x0, symName: __RNvXsm_NtCsATtFUPiRFW_3syn4itemNtB5_7UseTreeINtNtCs9f3LFPSIp77_4core7convert4FromNtB5_7UseNameE4from, symObjAddr: 0x1A774, symBinAddr: 0x61FEC, symSize: 0x30 }
  - { offset: 0xF7BB9, size: 0x8, addend: 0x0, symName: __RNvXsn_NtCsATtFUPiRFW_3syn4itemNtB5_7UseTreeINtNtCs9f3LFPSIp77_4core7convert4FromNtB5_9UseRenameE4from, symObjAddr: 0x1A7A4, symBinAddr: 0x6201C, symSize: 0x4C }
  - { offset: 0xF7BEC, size: 0x8, addend: 0x0, symName: __RNvXso_NtCsATtFUPiRFW_3syn4itemNtB5_7UseTreeINtNtCs9f3LFPSIp77_4core7convert4FromNtB5_7UseGlobE4from, symObjAddr: 0x1A7F0, symBinAddr: 0x62068, symSize: 0x3C }
  - { offset: 0xF7C1E, size: 0x8, addend: 0x0, symName: __RNvXsp_NtCsATtFUPiRFW_3syn4itemNtB5_7UseTreeINtNtCs9f3LFPSIp77_4core7convert4FromNtB5_8UseGroupE4from, symObjAddr: 0x1A82C, symBinAddr: 0x620A4, symSize: 0x4C }
  - { offset: 0xF7C51, size: 0x8, addend: 0x0, symName: __RNvXsq_NtCsATtFUPiRFW_3syn4itemNtB5_7UseTreeNtNtCs62MdaZFMefA_5quote9to_tokens8ToTokens9to_tokens, symObjAddr: 0x1A878, symBinAddr: 0x620F0, symSize: 0x15C }
  - { offset: 0xF7D1B, size: 0x8, addend: 0x0, symName: __RNcNtNtNtCsATtFUPiRFW_3syn4item11ForeignItem5Macro0B7_, symObjAddr: 0x1A9D4, symBinAddr: 0x6224C, symSize: 0x3C }
  - { offset: 0xF7D4D, size: 0x8, addend: 0x0, symName: __RNvXsr_NtCsATtFUPiRFW_3syn4itemNtB5_11ForeignItemINtNtCs9f3LFPSIp77_4core7convert4FromNtB5_13ForeignItemFnE4from, symObjAddr: 0x1AA10, symBinAddr: 0x62288, symSize: 0x40 }
  - { offset: 0xF7D80, size: 0x8, addend: 0x0, symName: __RNvXss_NtCsATtFUPiRFW_3syn4itemNtB5_11ForeignItemINtNtCs9f3LFPSIp77_4core7convert4FromNtB5_17ForeignItemStaticE4from, symObjAddr: 0x1AA50, symBinAddr: 0x622C8, symSize: 0x4C }
  - { offset: 0xF7DB3, size: 0x8, addend: 0x0, symName: __RNvXst_NtCsATtFUPiRFW_3syn4itemNtB5_11ForeignItemINtNtCs9f3LFPSIp77_4core7convert4FromNtB5_15ForeignItemTypeE4from, symObjAddr: 0x1AA9C, symBinAddr: 0x62314, symSize: 0x4C }
  - { offset: 0xF7DE6, size: 0x8, addend: 0x0, symName: __RNvXsu_NtCsATtFUPiRFW_3syn4itemNtB5_11ForeignItemINtNtCs9f3LFPSIp77_4core7convert4FromNtB5_16ForeignItemMacroE4from, symObjAddr: 0x1AAE8, symBinAddr: 0x62360, symSize: 0x4C }
  - { offset: 0xF7E19, size: 0x8, addend: 0x0, symName: __RNvXsv_NtCsATtFUPiRFW_3syn4itemNtB5_11ForeignItemNtNtCs62MdaZFMefA_5quote9to_tokens8ToTokens9to_tokens, symObjAddr: 0x1AB34, symBinAddr: 0x623AC, symSize: 0x168 }
  - { offset: 0xF7EE3, size: 0x8, addend: 0x0, symName: __RNcNtNtNtCsATtFUPiRFW_3syn4item9TraitItem2Fn0B7_, symObjAddr: 0x1AC9C, symBinAddr: 0x62514, symSize: 0x3C }
  - { offset: 0xF7F14, size: 0x8, addend: 0x0, symName: __RNcNtNtNtCsATtFUPiRFW_3syn4item9TraitItem5Macro0B7_, symObjAddr: 0x1ACD8, symBinAddr: 0x62550, symSize: 0x3C }
  - { offset: 0xF7F46, size: 0x8, addend: 0x0, symName: __RNvXsw_NtCsATtFUPiRFW_3syn4itemNtB5_9TraitItemINtNtCs9f3LFPSIp77_4core7convert4FromNtB5_14TraitItemConstE4from, symObjAddr: 0x1AD14, symBinAddr: 0x6258C, symSize: 0x40 }
  - { offset: 0xF7F79, size: 0x8, addend: 0x0, symName: __RNvXsx_NtCsATtFUPiRFW_3syn4itemNtB5_9TraitItemINtNtCs9f3LFPSIp77_4core7convert4FromNtB5_11TraitItemFnE4from, symObjAddr: 0x1AD54, symBinAddr: 0x625CC, symSize: 0x4C }
  - { offset: 0xF7FAC, size: 0x8, addend: 0x0, symName: __RNvXsy_NtCsATtFUPiRFW_3syn4itemNtB5_9TraitItemINtNtCs9f3LFPSIp77_4core7convert4FromNtB5_13TraitItemTypeE4from, symObjAddr: 0x1ADA0, symBinAddr: 0x62618, symSize: 0x4C }
  - { offset: 0xF7FDF, size: 0x8, addend: 0x0, symName: __RNvXsz_NtCsATtFUPiRFW_3syn4itemNtB5_9TraitItemINtNtCs9f3LFPSIp77_4core7convert4FromNtB5_14TraitItemMacroE4from, symObjAddr: 0x1ADEC, symBinAddr: 0x62664, symSize: 0x4C }
  - { offset: 0xF8012, size: 0x8, addend: 0x0, symName: __RNvXsA_NtCsATtFUPiRFW_3syn4itemNtB5_9TraitItemNtNtCs62MdaZFMefA_5quote9to_tokens8ToTokens9to_tokens, symObjAddr: 0x1AE38, symBinAddr: 0x626B0, symSize: 0x168 }
  - { offset: 0xF80DC, size: 0x8, addend: 0x0, symName: __RNcNtNtNtCsATtFUPiRFW_3syn4item8ImplItem5Macro0B7_, symObjAddr: 0x1AFA0, symBinAddr: 0x62818, symSize: 0x3C }
  - { offset: 0xF810E, size: 0x8, addend: 0x0, symName: __RNvXsB_NtCsATtFUPiRFW_3syn4itemNtB5_8ImplItemINtNtCs9f3LFPSIp77_4core7convert4FromNtB5_13ImplItemConstE4from, symObjAddr: 0x1AFDC, symBinAddr: 0x62854, symSize: 0x40 }
  - { offset: 0xF8141, size: 0x8, addend: 0x0, symName: __RNvXsC_NtCsATtFUPiRFW_3syn4itemNtB5_8ImplItemINtNtCs9f3LFPSIp77_4core7convert4FromNtB5_10ImplItemFnE4from, symObjAddr: 0x1B01C, symBinAddr: 0x62894, symSize: 0x4C }
  - { offset: 0xF8174, size: 0x8, addend: 0x0, symName: __RNvXsD_NtCsATtFUPiRFW_3syn4itemNtB5_8ImplItemINtNtCs9f3LFPSIp77_4core7convert4FromNtB5_12ImplItemTypeE4from, symObjAddr: 0x1B068, symBinAddr: 0x628E0, symSize: 0x4C }
  - { offset: 0xF81A7, size: 0x8, addend: 0x0, symName: __RNvXsE_NtCsATtFUPiRFW_3syn4itemNtB5_8ImplItemINtNtCs9f3LFPSIp77_4core7convert4FromNtB5_13ImplItemMacroE4from, symObjAddr: 0x1B0B4, symBinAddr: 0x6292C, symSize: 0x4C }
  - { offset: 0xF81DA, size: 0x8, addend: 0x0, symName: __RNvXsF_NtCsATtFUPiRFW_3syn4itemNtB5_8ImplItemNtNtCs62MdaZFMefA_5quote9to_tokens8ToTokens9to_tokens, symObjAddr: 0x1B100, symBinAddr: 0x62978, symSize: 0x168 }
  - { offset: 0xF829F, size: 0x8, addend: 0x0, symName: __RNvXsG_NtCsATtFUPiRFW_3syn4itemNtB5_5FnArgINtNtCs9f3LFPSIp77_4core7convert4FromNtB5_8ReceiverE4from, symObjAddr: 0x1B268, symBinAddr: 0x62AE0, symSize: 0x40 }
  - { offset: 0xF82D2, size: 0x8, addend: 0x0, symName: __RNvXsH_NtCsATtFUPiRFW_3syn4itemNtB5_5FnArgINtNtCs9f3LFPSIp77_4core7convert4FromNtNtB7_3pat7PatTypeE4from, symObjAddr: 0x1B2A8, symBinAddr: 0x62B20, symSize: 0x4C }
  - { offset: 0xF8305, size: 0x8, addend: 0x0, symName: __RNvXsI_NtCsATtFUPiRFW_3syn4itemNtB5_5FnArgNtNtCs62MdaZFMefA_5quote9to_tokens8ToTokens9to_tokens, symObjAddr: 0x1B2F4, symBinAddr: 0x62B6C, symSize: 0xA0 }
  - { offset: 0xF8378, size: 0x8, addend: 0x0, symName: __RNcNtNtNtCsATtFUPiRFW_3syn4item16StaticMutability3Mut0B7_, symObjAddr: 0x1B394, symBinAddr: 0x62C0C, symSize: 0x20 }
  - { offset: 0xFBE26, size: 0x8, addend: 0x0, symName: __RNvXs16_NtNtCsATtFUPiRFW_3syn3gen5cloneNtNtBa_4item5FnArgNtNtCs9f3LFPSIp77_4core5clone5Clone5clone, symObjAddr: 0x1B3B4, symBinAddr: 0x62C2C, symSize: 0xDC }
  - { offset: 0xFBE8E, size: 0x8, addend: 0x0, symName: __RNvXs17_NtNtCsATtFUPiRFW_3syn3gen5cloneNtNtBa_4item11ForeignItemNtNtCs9f3LFPSIp77_4core5clone5Clone5clone, symObjAddr: 0x1B490, symBinAddr: 0x62D08, symSize: 0x224 }
  - { offset: 0xFBF50, size: 0x8, addend: 0x0, symName: __RNvXs18_NtNtCsATtFUPiRFW_3syn3gen5cloneNtNtBa_4item13ForeignItemFnNtNtCs9f3LFPSIp77_4core5clone5Clone5clone, symObjAddr: 0x1B6B4, symBinAddr: 0x62F2C, symSize: 0x134 }
  - { offset: 0xFBF84, size: 0x8, addend: 0x0, symName: __RNvXs19_NtNtCsATtFUPiRFW_3syn3gen5cloneNtNtBa_4item16ForeignItemMacroNtNtCs9f3LFPSIp77_4core5clone5Clone5clone, symObjAddr: 0x1B7E8, symBinAddr: 0x63060, symSize: 0xEC }
  - { offset: 0xFBFB8, size: 0x8, addend: 0x0, symName: __RNvXs1a_NtNtCsATtFUPiRFW_3syn3gen5cloneNtNtBa_4item17ForeignItemStaticNtNtCs9f3LFPSIp77_4core5clone5Clone5clone, symObjAddr: 0x1B8D4, symBinAddr: 0x6314C, symSize: 0x1D4 }
  - { offset: 0xFBFEC, size: 0x8, addend: 0x0, symName: __RNvXs1b_NtNtCsATtFUPiRFW_3syn3gen5cloneNtNtBa_4item15ForeignItemTypeNtNtCs9f3LFPSIp77_4core5clone5Clone5clone, symObjAddr: 0x1BAA8, symBinAddr: 0x63320, symSize: 0x190 }
  - { offset: 0xFC020, size: 0x8, addend: 0x0, symName: __RNvXs1f_NtNtCsATtFUPiRFW_3syn3gen5cloneNtNtBa_4item8ImplItemNtNtCs9f3LFPSIp77_4core5clone5Clone5clone, symObjAddr: 0x1BC38, symBinAddr: 0x634B0, symSize: 0x21C }
  - { offset: 0xFC0E2, size: 0x8, addend: 0x0, symName: __RNvXs1g_NtNtCsATtFUPiRFW_3syn3gen5cloneNtNtBa_4item13ImplItemConstNtNtCs9f3LFPSIp77_4core5clone5Clone5clone, symObjAddr: 0x1BE54, symBinAddr: 0x636CC, symSize: 0x2A4 }
  - { offset: 0xFC116, size: 0x8, addend: 0x0, symName: __RNvXs1h_NtNtCsATtFUPiRFW_3syn3gen5cloneNtNtBa_4item10ImplItemFnNtNtCs9f3LFPSIp77_4core5clone5Clone5clone, symObjAddr: 0x1C0F8, symBinAddr: 0x63970, symSize: 0x158 }
  - { offset: 0xFC14A, size: 0x8, addend: 0x0, symName: __RNvXs1i_NtNtCsATtFUPiRFW_3syn3gen5cloneNtNtBa_4item13ImplItemMacroNtNtCs9f3LFPSIp77_4core5clone5Clone5clone, symObjAddr: 0x1C250, symBinAddr: 0x63AC8, symSize: 0xEC }
  - { offset: 0xFC17E, size: 0x8, addend: 0x0, symName: __RNvXs1j_NtNtCsATtFUPiRFW_3syn3gen5cloneNtNtBa_4item12ImplItemTypeNtNtCs9f3LFPSIp77_4core5clone5Clone5clone, symObjAddr: 0x1C33C, symBinAddr: 0x63BB4, symSize: 0x230 }
  - { offset: 0xFC1B2, size: 0x8, addend: 0x0, symName: __RNvXs1k_NtNtCsATtFUPiRFW_3syn3gen5cloneNtNtBa_4item15ImplRestrictionNtNtCs9f3LFPSIp77_4core5clone5Clone5clone, symObjAddr: 0x1C56C, symBinAddr: 0x63DE4, symSize: 0xC }
  - { offset: 0xFC1E2, size: 0x8, addend: 0x0, symName: __RNvXs1m_NtNtCsATtFUPiRFW_3syn3gen5cloneNtNtBa_4item4ItemNtNtCs9f3LFPSIp77_4core5clone5Clone5clone, symObjAddr: 0x1C578, symBinAddr: 0x63DF0, symSize: 0x5C8 }
  - { offset: 0xFC3F9, size: 0x8, addend: 0x0, symName: __RNvXs1n_NtNtCsATtFUPiRFW_3syn3gen5cloneNtNtBa_4item9ItemConstNtNtCs9f3LFPSIp77_4core5clone5Clone5clone, symObjAddr: 0x1CB40, symBinAddr: 0x643B8, symSize: 0x268 }
  - { offset: 0xFC42D, size: 0x8, addend: 0x0, symName: __RNvXs1o_NtNtCsATtFUPiRFW_3syn3gen5cloneNtNtBa_4item8ItemEnumNtNtCs9f3LFPSIp77_4core5clone5Clone5clone, symObjAddr: 0x1CDA8, symBinAddr: 0x64620, symSize: 0x1B8 }
  - { offset: 0xFC461, size: 0x8, addend: 0x0, symName: __RNvXs1p_NtNtCsATtFUPiRFW_3syn3gen5cloneNtNtBa_4item15ItemExternCrateNtNtCs9f3LFPSIp77_4core5clone5Clone5clone, symObjAddr: 0x1CF60, symBinAddr: 0x647D8, symSize: 0x19C }
  - { offset: 0xFC495, size: 0x8, addend: 0x0, symName: __RNvXs1q_NtNtCsATtFUPiRFW_3syn3gen5cloneNtNtBa_4item6ItemFnNtNtCs9f3LFPSIp77_4core5clone5Clone5clone, symObjAddr: 0x1D0FC, symBinAddr: 0x64974, symSize: 0x124 }
  - { offset: 0xFC4C9, size: 0x8, addend: 0x0, symName: __RNvXs1r_NtNtCsATtFUPiRFW_3syn3gen5cloneNtNtBa_4item14ItemForeignModNtNtCs9f3LFPSIp77_4core5clone5Clone5clone, symObjAddr: 0x1D220, symBinAddr: 0x64A98, symSize: 0x13C }
  - { offset: 0xFC4FD, size: 0x8, addend: 0x0, symName: __RNvXs1s_NtNtCsATtFUPiRFW_3syn3gen5cloneNtNtBa_4item8ItemImplNtNtCs9f3LFPSIp77_4core5clone5Clone5clone, symObjAddr: 0x1D35C, symBinAddr: 0x64BD4, symSize: 0x210 }
  - { offset: 0xFC531, size: 0x8, addend: 0x0, symName: __RNvXs1t_NtNtCsATtFUPiRFW_3syn3gen5cloneNtNtBa_4item9ItemMacroNtNtCs9f3LFPSIp77_4core5clone5Clone5clone, symObjAddr: 0x1D56C, symBinAddr: 0x64DE4, symSize: 0x12C }
  - { offset: 0xFC565, size: 0x8, addend: 0x0, symName: __RNvXs1u_NtNtCsATtFUPiRFW_3syn3gen5cloneNtNtBa_4item7ItemModNtNtCs9f3LFPSIp77_4core5clone5Clone5clone, symObjAddr: 0x1D698, symBinAddr: 0x64F10, symSize: 0x1B0 }
  - { offset: 0xFC599, size: 0x8, addend: 0x0, symName: __RNvXs1v_NtNtCsATtFUPiRFW_3syn3gen5cloneNtNtBa_4item10ItemStaticNtNtCs9f3LFPSIp77_4core5clone5Clone5clone, symObjAddr: 0x1D848, symBinAddr: 0x650C0, symSize: 0x240 }
  - { offset: 0xFC5CD, size: 0x8, addend: 0x0, symName: __RNvXs1w_NtNtCsATtFUPiRFW_3syn3gen5cloneNtNtBa_4item10ItemStructNtNtCs9f3LFPSIp77_4core5clone5Clone5clone, symObjAddr: 0x1DA88, symBinAddr: 0x65300, symSize: 0x1D4 }
  - { offset: 0xFC601, size: 0x8, addend: 0x0, symName: __RNvXs1x_NtNtCsATtFUPiRFW_3syn3gen5cloneNtNtBa_4item9ItemTraitNtNtCs9f3LFPSIp77_4core5clone5Clone5clone, symObjAddr: 0x1DC5C, symBinAddr: 0x654D4, symSize: 0x278 }
  - { offset: 0xFC635, size: 0x8, addend: 0x0, symName: __RNvXs1y_NtNtCsATtFUPiRFW_3syn3gen5cloneNtNtBa_4item14ItemTraitAliasNtNtCs9f3LFPSIp77_4core5clone5Clone5clone, symObjAddr: 0x1DED4, symBinAddr: 0x6574C, symSize: 0x1FC }
  - { offset: 0xFC669, size: 0x8, addend: 0x0, symName: __RNvXs1z_NtNtCsATtFUPiRFW_3syn3gen5cloneNtNtBa_4item8ItemTypeNtNtCs9f3LFPSIp77_4core5clone5Clone5clone, symObjAddr: 0x1E0D0, symBinAddr: 0x65948, symSize: 0x1FC }
  - { offset: 0xFC69D, size: 0x8, addend: 0x0, symName: __RNvXs1A_NtNtCsATtFUPiRFW_3syn3gen5cloneNtNtBa_4item9ItemUnionNtNtCs9f3LFPSIp77_4core5clone5Clone5clone, symObjAddr: 0x1E2CC, symBinAddr: 0x65B44, symSize: 0x18C }
  - { offset: 0xFC6D1, size: 0x8, addend: 0x0, symName: __RNvXs1B_NtNtCsATtFUPiRFW_3syn3gen5cloneNtNtBa_4item7ItemUseNtNtCs9f3LFPSIp77_4core5clone5Clone5clone, symObjAddr: 0x1E458, symBinAddr: 0x65CD0, symSize: 0x16C }
  - { offset: 0xFC705, size: 0x8, addend: 0x0, symName: __RNvXs2b_NtNtCsATtFUPiRFW_3syn3gen5cloneNtNtBa_4item8ReceiverNtNtCs9f3LFPSIp77_4core5clone5Clone5clone, symObjAddr: 0x1E5C4, symBinAddr: 0x65E3C, symSize: 0x14C }
  - { offset: 0xFC739, size: 0x8, addend: 0x0, symName: __RNvXs2d_NtNtCsATtFUPiRFW_3syn3gen5cloneNtNtBa_4item9SignatureNtNtCs9f3LFPSIp77_4core5clone5Clone5clone, symObjAddr: 0x1E710, symBinAddr: 0x65F88, symSize: 0x278 }
  - { offset: 0xFC76D, size: 0x8, addend: 0x0, symName: __RNvXs2e_NtNtCsATtFUPiRFW_3syn3gen5cloneNtNtBa_4item16StaticMutabilityNtNtCs9f3LFPSIp77_4core5clone5Clone5clone, symObjAddr: 0x1E988, symBinAddr: 0x66200, symSize: 0x88 }
  - { offset: 0xFC7BF, size: 0x8, addend: 0x0, symName: __RNvXs2k_NtNtCsATtFUPiRFW_3syn3gen5cloneNtNtBa_4item9TraitItemNtNtCs9f3LFPSIp77_4core5clone5Clone5clone, symObjAddr: 0x1EA10, symBinAddr: 0x66288, symSize: 0x21C }
  - { offset: 0xFC881, size: 0x8, addend: 0x0, symName: __RNvXs2l_NtNtCsATtFUPiRFW_3syn3gen5cloneNtNtBa_4item14TraitItemConstNtNtCs9f3LFPSIp77_4core5clone5Clone5clone, symObjAddr: 0x1EC2C, symBinAddr: 0x664A4, symSize: 0x210 }
  - { offset: 0xFC8B5, size: 0x8, addend: 0x0, symName: __RNvXs2m_NtNtCsATtFUPiRFW_3syn3gen5cloneNtNtBa_4item11TraitItemFnNtNtCs9f3LFPSIp77_4core5clone5Clone5clone, symObjAddr: 0x1EE3C, symBinAddr: 0x666B4, symSize: 0x138 }
  - { offset: 0xFC8E9, size: 0x8, addend: 0x0, symName: __RNvXs2n_NtNtCsATtFUPiRFW_3syn3gen5cloneNtNtBa_4item14TraitItemMacroNtNtCs9f3LFPSIp77_4core5clone5Clone5clone, symObjAddr: 0x1EF74, symBinAddr: 0x667EC, symSize: 0xEC }
  - { offset: 0xFC91D, size: 0x8, addend: 0x0, symName: __RNvXs2o_NtNtCsATtFUPiRFW_3syn3gen5cloneNtNtBa_4item13TraitItemTypeNtNtCs9f3LFPSIp77_4core5clone5Clone5clone, symObjAddr: 0x1F060, symBinAddr: 0x668D8, symSize: 0x204 }
  - { offset: 0xFC951, size: 0x8, addend: 0x0, symName: __RNvXs2I_NtNtCsATtFUPiRFW_3syn3gen5cloneNtNtBa_4item7UseGlobNtNtCs9f3LFPSIp77_4core5clone5Clone5clone, symObjAddr: 0x1F264, symBinAddr: 0x66ADC, symSize: 0x4C }
  - { offset: 0xFC985, size: 0x8, addend: 0x0, symName: __RNvXs2J_NtNtCsATtFUPiRFW_3syn3gen5cloneNtNtBa_4item8UseGroupNtNtCs9f3LFPSIp77_4core5clone5Clone5clone, symObjAddr: 0x1F2B0, symBinAddr: 0x66B28, symSize: 0x70 }
  - { offset: 0xFC9B9, size: 0x8, addend: 0x0, symName: __RNvXs2K_NtNtCsATtFUPiRFW_3syn3gen5cloneNtNtBa_4item7UseNameNtNtCs9f3LFPSIp77_4core5clone5Clone5clone, symObjAddr: 0x1F320, symBinAddr: 0x66B98, symSize: 0x50 }
  - { offset: 0xFC9ED, size: 0x8, addend: 0x0, symName: __RNvXs2L_NtNtCsATtFUPiRFW_3syn3gen5cloneNtNtBa_4item7UsePathNtNtCs9f3LFPSIp77_4core5clone5Clone5clone, symObjAddr: 0x1F370, symBinAddr: 0x66BE8, symSize: 0xC0 }
  - { offset: 0xFCA21, size: 0x8, addend: 0x0, symName: __RNvXs2M_NtNtCsATtFUPiRFW_3syn3gen5cloneNtNtBa_4item9UseRenameNtNtCs9f3LFPSIp77_4core5clone5Clone5clone, symObjAddr: 0x1F430, symBinAddr: 0x66CA8, symSize: 0xB8 }
  - { offset: 0xFCA55, size: 0x8, addend: 0x0, symName: __RNvXs2N_NtNtCsATtFUPiRFW_3syn3gen5cloneNtNtBa_4item7UseTreeNtNtCs9f3LFPSIp77_4core5clone5Clone5clone, symObjAddr: 0x1F4E8, symBinAddr: 0x66D60, symSize: 0x20C }
  - { offset: 0xFCB18, size: 0x8, addend: 0x0, symName: __RNvXs2O_NtNtCsATtFUPiRFW_3syn3gen5cloneNtNtBa_4item8VariadicNtNtCs9f3LFPSIp77_4core5clone5Clone5clone, symObjAddr: 0x1F6F4, symBinAddr: 0x66F6C, symSize: 0x100 }
  - { offset: 0xFCB52, size: 0x8, addend: 0x0, symName: __RNvXs1N_NtNtCsATtFUPiRFW_3syn3gen5debugNtNtBa_4item5FnArgNtNtCs9f3LFPSIp77_4core3fmt5Debug3fmt, symObjAddr: 0x1F7F4, symBinAddr: 0x6706C, symSize: 0x184 }
  - { offset: 0xFCC22, size: 0x8, addend: 0x0, symName: __RNvXs1O_NtNtCsATtFUPiRFW_3syn3gen5debugNtNtBa_4item11ForeignItemNtNtCs9f3LFPSIp77_4core3fmt5Debug3fmt, symObjAddr: 0x1F978, symBinAddr: 0x671F0, symSize: 0x268 }
  - { offset: 0xFCD2E, size: 0x8, addend: 0x0, symName: __RNvXs1P_NtNtCsATtFUPiRFW_3syn3gen5debugNtNtBa_4item13ForeignItemFnNtNtCs9f3LFPSIp77_4core3fmt5Debug3fmt, symObjAddr: 0x1FBE0, symBinAddr: 0x67458, symSize: 0x4C }
  - { offset: 0xFCD71, size: 0x8, addend: 0x0, symName: __RNvXs1R_NtNtCsATtFUPiRFW_3syn3gen5debugNtNtBa_4item16ForeignItemMacroNtNtCs9f3LFPSIp77_4core3fmt5Debug3fmt, symObjAddr: 0x1FD30, symBinAddr: 0x675A8, symSize: 0x4C }
  - { offset: 0xFCDB4, size: 0x8, addend: 0x0, symName: __RNvXs1T_NtNtCsATtFUPiRFW_3syn3gen5debugNtNtBa_4item17ForeignItemStaticNtNtCs9f3LFPSIp77_4core3fmt5Debug3fmt, symObjAddr: 0x1FE58, symBinAddr: 0x676D0, symSize: 0x4C }
  - { offset: 0xFCDF7, size: 0x8, addend: 0x0, symName: __RNvXs1V_NtNtCsATtFUPiRFW_3syn3gen5debugNtNtBa_4item15ForeignItemTypeNtNtCs9f3LFPSIp77_4core3fmt5Debug3fmt, symObjAddr: 0x20048, symBinAddr: 0x678C0, symSize: 0x4C }
  - { offset: 0xFCE3A, size: 0x8, addend: 0x0, symName: __RNvXs20_NtNtCsATtFUPiRFW_3syn3gen5debugNtNtBa_4item8ImplItemNtNtCs9f3LFPSIp77_4core3fmt5Debug3fmt, symObjAddr: 0x201E8, symBinAddr: 0x67A60, symSize: 0x268 }
  - { offset: 0xFCF46, size: 0x8, addend: 0x0, symName: __RNvXs21_NtNtCsATtFUPiRFW_3syn3gen5debugNtNtBa_4item13ImplItemConstNtNtCs9f3LFPSIp77_4core3fmt5Debug3fmt, symObjAddr: 0x20450, symBinAddr: 0x67CC8, symSize: 0x4C }
  - { offset: 0xFCF89, size: 0x8, addend: 0x0, symName: __RNvXs23_NtNtCsATtFUPiRFW_3syn3gen5debugNtNtBa_4item10ImplItemFnNtNtCs9f3LFPSIp77_4core3fmt5Debug3fmt, symObjAddr: 0x206B4, symBinAddr: 0x67F2C, symSize: 0x4C }
  - { offset: 0xFCFCC, size: 0x8, addend: 0x0, symName: __RNvXs25_NtNtCsATtFUPiRFW_3syn3gen5debugNtNtBa_4item13ImplItemMacroNtNtCs9f3LFPSIp77_4core3fmt5Debug3fmt, symObjAddr: 0x2082C, symBinAddr: 0x680A4, symSize: 0x4C }
  - { offset: 0xFD00F, size: 0x8, addend: 0x0, symName: __RNvXs27_NtNtCsATtFUPiRFW_3syn3gen5debugNtNtBa_4item12ImplItemTypeNtNtCs9f3LFPSIp77_4core3fmt5Debug3fmt, symObjAddr: 0x20954, symBinAddr: 0x681CC, symSize: 0x4C }
  - { offset: 0xFD052, size: 0x8, addend: 0x0, symName: __RNvXs29_NtNtCsATtFUPiRFW_3syn3gen5debugNtNtBa_4item15ImplRestrictionNtNtCs9f3LFPSIp77_4core3fmt5Debug3fmt, symObjAddr: 0x20B6C, symBinAddr: 0x683E4, symSize: 0x10 }
  - { offset: 0xFD095, size: 0x8, addend: 0x0, symName: __RNvXs2b_NtNtCsATtFUPiRFW_3syn3gen5debugNtNtBa_4item4ItemNtNtCs9f3LFPSIp77_4core3fmt5Debug3fmt, symObjAddr: 0x20B7C, symBinAddr: 0x683F4, symSize: 0x560 }
  - { offset: 0xFD2F9, size: 0x8, addend: 0x0, symName: __RNvXs2c_NtNtCsATtFUPiRFW_3syn3gen5debugNtNtBa_4item9ItemConstNtNtCs9f3LFPSIp77_4core3fmt5Debug3fmt, symObjAddr: 0x210DC, symBinAddr: 0x68954, symSize: 0x4C }
  - { offset: 0xFD33C, size: 0x8, addend: 0x0, symName: __RNvXs2e_NtNtCsATtFUPiRFW_3syn3gen5debugNtNtBa_4item8ItemEnumNtNtCs9f3LFPSIp77_4core3fmt5Debug3fmt, symObjAddr: 0x2131C, symBinAddr: 0x68B94, symSize: 0x4C }
  - { offset: 0xFD37F, size: 0x8, addend: 0x0, symName: __RNvXs2g_NtNtCsATtFUPiRFW_3syn3gen5debugNtNtBa_4item15ItemExternCrateNtNtCs9f3LFPSIp77_4core3fmt5Debug3fmt, symObjAddr: 0x214E4, symBinAddr: 0x68D5C, symSize: 0x4C }
  - { offset: 0xFD3C2, size: 0x8, addend: 0x0, symName: __RNvXs2i_NtNtCsATtFUPiRFW_3syn3gen5debugNtNtBa_4item6ItemFnNtNtCs9f3LFPSIp77_4core3fmt5Debug3fmt, symObjAddr: 0x216AC, symBinAddr: 0x68F24, symSize: 0x4C }
  - { offset: 0xFD405, size: 0x8, addend: 0x0, symName: __RNvXs2k_NtNtCsATtFUPiRFW_3syn3gen5debugNtNtBa_4item14ItemForeignModNtNtCs9f3LFPSIp77_4core3fmt5Debug3fmt, symObjAddr: 0x217FC, symBinAddr: 0x69074, symSize: 0x4C }
  - { offset: 0xFD448, size: 0x8, addend: 0x0, symName: __RNvXs2m_NtNtCsATtFUPiRFW_3syn3gen5debugNtNtBa_4item8ItemImplNtNtCs9f3LFPSIp77_4core3fmt5Debug3fmt, symObjAddr: 0x21974, symBinAddr: 0x691EC, symSize: 0x4C }
  - { offset: 0xFD48B, size: 0x8, addend: 0x0, symName: __RNvXs2o_NtNtCsATtFUPiRFW_3syn3gen5debugNtNtBa_4item9ItemMacroNtNtCs9f3LFPSIp77_4core3fmt5Debug3fmt, symObjAddr: 0x21B8C, symBinAddr: 0x69404, symSize: 0x4C }
  - { offset: 0xFD4CE, size: 0x8, addend: 0x0, symName: __RNvXs2q_NtNtCsATtFUPiRFW_3syn3gen5debugNtNtBa_4item7ItemModNtNtCs9f3LFPSIp77_4core3fmt5Debug3fmt, symObjAddr: 0x21CDC, symBinAddr: 0x69554, symSize: 0x4C }
  - { offset: 0xFD511, size: 0x8, addend: 0x0, symName: __RNvXs2s_NtNtCsATtFUPiRFW_3syn3gen5debugNtNtBa_4item10ItemStaticNtNtCs9f3LFPSIp77_4core3fmt5Debug3fmt, symObjAddr: 0x21EA4, symBinAddr: 0x6971C, symSize: 0x4C }
  - { offset: 0xFD554, size: 0x8, addend: 0x0, symName: __RNvXs2u_NtNtCsATtFUPiRFW_3syn3gen5debugNtNtBa_4item10ItemStructNtNtCs9f3LFPSIp77_4core3fmt5Debug3fmt, symObjAddr: 0x220E4, symBinAddr: 0x6995C, symSize: 0x4C }
  - { offset: 0xFD597, size: 0x8, addend: 0x0, symName: __RNvXs2w_NtNtCsATtFUPiRFW_3syn3gen5debugNtNtBa_4item9ItemTraitNtNtCs9f3LFPSIp77_4core3fmt5Debug3fmt, symObjAddr: 0x222AC, symBinAddr: 0x69B24, symSize: 0x4C }
  - { offset: 0xFD5DA, size: 0x8, addend: 0x0, symName: __RNvXs2y_NtNtCsATtFUPiRFW_3syn3gen5debugNtNtBa_4item14ItemTraitAliasNtNtCs9f3LFPSIp77_4core3fmt5Debug3fmt, symObjAddr: 0x2252C, symBinAddr: 0x69DA4, symSize: 0x4C }
  - { offset: 0xFD61D, size: 0x8, addend: 0x0, symName: __RNvXs2A_NtNtCsATtFUPiRFW_3syn3gen5debugNtNtBa_4item8ItemTypeNtNtCs9f3LFPSIp77_4core3fmt5Debug3fmt, symObjAddr: 0x2271C, symBinAddr: 0x69F94, symSize: 0x4C }
  - { offset: 0xFD660, size: 0x8, addend: 0x0, symName: __RNvXs2C_NtNtCsATtFUPiRFW_3syn3gen5debugNtNtBa_4item9ItemUnionNtNtCs9f3LFPSIp77_4core3fmt5Debug3fmt, symObjAddr: 0x2290C, symBinAddr: 0x6A184, symSize: 0x4C }
  - { offset: 0xFD6A3, size: 0x8, addend: 0x0, symName: __RNvXs2E_NtNtCsATtFUPiRFW_3syn3gen5debugNtNtBa_4item7ItemUseNtNtCs9f3LFPSIp77_4core3fmt5Debug3fmt, symObjAddr: 0x22AAC, symBinAddr: 0x6A324, symSize: 0x4C }
  - { offset: 0xFD6E6, size: 0x8, addend: 0x0, symName: __RNvXs3v_NtNtCsATtFUPiRFW_3syn3gen5debugNtNtBa_4item8ReceiverNtNtCs9f3LFPSIp77_4core3fmt5Debug3fmt, symObjAddr: 0x22C4C, symBinAddr: 0x6A4C4, symSize: 0x150 }
  - { offset: 0xFD747, size: 0x8, addend: 0x0, symName: __RNvXs3x_NtNtCsATtFUPiRFW_3syn3gen5debugNtNtBa_4item9SignatureNtNtCs9f3LFPSIp77_4core3fmt5Debug3fmt, symObjAddr: 0x22D9C, symBinAddr: 0x6A614, symSize: 0x20C }
  - { offset: 0xFD7A8, size: 0x8, addend: 0x0, symName: __RNvXs3y_NtNtCsATtFUPiRFW_3syn3gen5debugNtNtBa_4item16StaticMutabilityNtNtCs9f3LFPSIp77_4core3fmt5Debug3fmt, symObjAddr: 0x22FA8, symBinAddr: 0x6A820, symSize: 0x148 }
  - { offset: 0xFD844, size: 0x8, addend: 0x0, symName: __RNvXs3E_NtNtCsATtFUPiRFW_3syn3gen5debugNtNtBa_4item9TraitItemNtNtCs9f3LFPSIp77_4core3fmt5Debug3fmt, symObjAddr: 0x230F0, symBinAddr: 0x6A968, symSize: 0x268 }
  - { offset: 0xFD950, size: 0x8, addend: 0x0, symName: __RNvXs3F_NtNtCsATtFUPiRFW_3syn3gen5debugNtNtBa_4item14TraitItemConstNtNtCs9f3LFPSIp77_4core3fmt5Debug3fmt, symObjAddr: 0x23358, symBinAddr: 0x6ABD0, symSize: 0x4C }
  - { offset: 0xFD993, size: 0x8, addend: 0x0, symName: __RNvXs3H_NtNtCsATtFUPiRFW_3syn3gen5debugNtNtBa_4item11TraitItemFnNtNtCs9f3LFPSIp77_4core3fmt5Debug3fmt, symObjAddr: 0x23548, symBinAddr: 0x6ADC0, symSize: 0x4C }
  - { offset: 0xFD9D6, size: 0x8, addend: 0x0, symName: __RNvXs3J_NtNtCsATtFUPiRFW_3syn3gen5debugNtNtBa_4item14TraitItemMacroNtNtCs9f3LFPSIp77_4core3fmt5Debug3fmt, symObjAddr: 0x23698, symBinAddr: 0x6AF10, symSize: 0x4C }
  - { offset: 0xFDA19, size: 0x8, addend: 0x0, symName: __RNvXs3L_NtNtCsATtFUPiRFW_3syn3gen5debugNtNtBa_4item13TraitItemTypeNtNtCs9f3LFPSIp77_4core3fmt5Debug3fmt, symObjAddr: 0x237C0, symBinAddr: 0x6B038, symSize: 0x4C }
  - { offset: 0xFDA5C, size: 0x8, addend: 0x0, symName: __RNvXs4j_NtNtCsATtFUPiRFW_3syn3gen5debugNtNtBa_4item7UseGlobNtNtCs9f3LFPSIp77_4core3fmt5Debug3fmt, symObjAddr: 0x239B0, symBinAddr: 0x6B228, symSize: 0x88 }
  - { offset: 0xFDABD, size: 0x8, addend: 0x0, symName: __RNvXs4k_NtNtCsATtFUPiRFW_3syn3gen5debugNtNtBa_4item8UseGroupNtNtCs9f3LFPSIp77_4core3fmt5Debug3fmt, symObjAddr: 0x23A38, symBinAddr: 0x6B2B0, symSize: 0xB0 }
  - { offset: 0xFDB1E, size: 0x8, addend: 0x0, symName: __RNvXs4l_NtNtCsATtFUPiRFW_3syn3gen5debugNtNtBa_4item7UseNameNtNtCs9f3LFPSIp77_4core3fmt5Debug3fmt, symObjAddr: 0x23AE8, symBinAddr: 0x6B360, symSize: 0x88 }
  - { offset: 0xFDB7F, size: 0x8, addend: 0x0, symName: __RNvXs4m_NtNtCsATtFUPiRFW_3syn3gen5debugNtNtBa_4item7UsePathNtNtCs9f3LFPSIp77_4core3fmt5Debug3fmt, symObjAddr: 0x23B70, symBinAddr: 0x6B3E8, symSize: 0xD8 }
  - { offset: 0xFDBE0, size: 0x8, addend: 0x0, symName: __RNvXs4n_NtNtCsATtFUPiRFW_3syn3gen5debugNtNtBa_4item9UseRenameNtNtCs9f3LFPSIp77_4core3fmt5Debug3fmt, symObjAddr: 0x23C48, symBinAddr: 0x6B4C0, symSize: 0xD8 }
  - { offset: 0xFDC41, size: 0x8, addend: 0x0, symName: __RNvXs4o_NtNtCsATtFUPiRFW_3syn3gen5debugNtNtBa_4item7UseTreeNtNtCs9f3LFPSIp77_4core3fmt5Debug3fmt, symObjAddr: 0x23D20, symBinAddr: 0x6B598, symSize: 0x310 }
  - { offset: 0xFDDCC, size: 0x8, addend: 0x0, symName: __RNvXs4p_NtNtCsATtFUPiRFW_3syn3gen5debugNtNtBa_4item8VariadicNtNtCs9f3LFPSIp77_4core3fmt5Debug3fmt, symObjAddr: 0x24030, symBinAddr: 0x6B8A8, symSize: 0x100 }
  - { offset: 0xFDE33, size: 0x8, addend: 0x0, symName: __RNvXs2b_NtNtCsATtFUPiRFW_3syn3gen2eqNtNtBa_4item5FnArgNtNtCs9f3LFPSIp77_4core3cmp9PartialEq2eq, symObjAddr: 0x24130, symBinAddr: 0x6B9A8, symSize: 0x170 }
  - { offset: 0xFDED2, size: 0x8, addend: 0x0, symName: __RNvXs2d_NtNtCsATtFUPiRFW_3syn3gen2eqNtNtBa_4item11ForeignItemNtNtCs9f3LFPSIp77_4core3cmp9PartialEq2eq, symObjAddr: 0x242A0, symBinAddr: 0x6BB18, symSize: 0x368 }
  - { offset: 0xFDFFD, size: 0x8, addend: 0x0, symName: __RNvXs2f_NtNtCsATtFUPiRFW_3syn3gen2eqNtNtBa_4item13ForeignItemFnNtNtCs9f3LFPSIp77_4core3cmp9PartialEq2eq, symObjAddr: 0x24608, symBinAddr: 0x6BE80, symSize: 0xCC }
  - { offset: 0xFE040, size: 0x8, addend: 0x0, symName: __RNvXs2h_NtNtCsATtFUPiRFW_3syn3gen2eqNtNtBa_4item16ForeignItemMacroNtNtCs9f3LFPSIp77_4core3cmp9PartialEq2eq, symObjAddr: 0x246D4, symBinAddr: 0x6BF4C, symSize: 0xCC }
  - { offset: 0xFE083, size: 0x8, addend: 0x0, symName: __RNvXs2j_NtNtCsATtFUPiRFW_3syn3gen2eqNtNtBa_4item17ForeignItemStaticNtNtCs9f3LFPSIp77_4core3cmp9PartialEq2eq, symObjAddr: 0x247A0, symBinAddr: 0x6C018, symSize: 0x134 }
  - { offset: 0xFE0C6, size: 0x8, addend: 0x0, symName: __RNvXs2l_NtNtCsATtFUPiRFW_3syn3gen2eqNtNtBa_4item15ForeignItemTypeNtNtCs9f3LFPSIp77_4core3cmp9PartialEq2eq, symObjAddr: 0x248D4, symBinAddr: 0x6C14C, symSize: 0x100 }
  - { offset: 0xFE109, size: 0x8, addend: 0x0, symName: __RNvXs2t_NtNtCsATtFUPiRFW_3syn3gen2eqNtNtBa_4item8ImplItemNtNtCs9f3LFPSIp77_4core3cmp9PartialEq2eq, symObjAddr: 0x249D4, symBinAddr: 0x6C24C, symSize: 0x368 }
  - { offset: 0xFE234, size: 0x8, addend: 0x0, symName: __RNvXs2v_NtNtCsATtFUPiRFW_3syn3gen2eqNtNtBa_4item13ImplItemConstNtNtCs9f3LFPSIp77_4core3cmp9PartialEq2eq, symObjAddr: 0x24D3C, symBinAddr: 0x6C5B4, symSize: 0x19C }
  - { offset: 0xFE277, size: 0x8, addend: 0x0, symName: __RNvXs2x_NtNtCsATtFUPiRFW_3syn3gen2eqNtNtBa_4item10ImplItemFnNtNtCs9f3LFPSIp77_4core3cmp9PartialEq2eq, symObjAddr: 0x24ED8, symBinAddr: 0x6C750, symSize: 0x134 }
  - { offset: 0xFE2BA, size: 0x8, addend: 0x0, symName: __RNvXs2z_NtNtCsATtFUPiRFW_3syn3gen2eqNtNtBa_4item13ImplItemMacroNtNtCs9f3LFPSIp77_4core3cmp9PartialEq2eq, symObjAddr: 0x2500C, symBinAddr: 0x6C884, symSize: 0xCC }
  - { offset: 0xFE2FD, size: 0x8, addend: 0x0, symName: __RNvXs2B_NtNtCsATtFUPiRFW_3syn3gen2eqNtNtBa_4item12ImplItemTypeNtNtCs9f3LFPSIp77_4core3cmp9PartialEq2eq, symObjAddr: 0x250D8, symBinAddr: 0x6C950, symSize: 0x168 }
  - { offset: 0xFE340, size: 0x8, addend: 0x0, symName: __RNvXs2D_NtNtCsATtFUPiRFW_3syn3gen2eqNtNtBa_4item15ImplRestrictionNtNtCs9f3LFPSIp77_4core3cmp9PartialEq2eq, symObjAddr: 0x25240, symBinAddr: 0x6CAB8, symSize: 0x10 }
  - { offset: 0xFE383, size: 0x8, addend: 0x0, symName: __RNvXs2F_NtNtCsATtFUPiRFW_3syn3gen2eqNtNtBa_4item4ItemNtNtCs9f3LFPSIp77_4core3cmp9PartialEq2eq, symObjAddr: 0x25250, symBinAddr: 0x6CAC8, symSize: 0x9B0 }
  - { offset: 0xFE6C2, size: 0x8, addend: 0x0, symName: __RNvXs2H_NtNtCsATtFUPiRFW_3syn3gen2eqNtNtBa_4item9ItemConstNtNtCs9f3LFPSIp77_4core3cmp9PartialEq2eq, symObjAddr: 0x25C00, symBinAddr: 0x6D478, symSize: 0x168 }
  - { offset: 0xFE705, size: 0x8, addend: 0x0, symName: __RNvXs2J_NtNtCsATtFUPiRFW_3syn3gen2eqNtNtBa_4item8ItemEnumNtNtCs9f3LFPSIp77_4core3cmp9PartialEq2eq, symObjAddr: 0x25D68, symBinAddr: 0x6D5E0, symSize: 0x134 }
  - { offset: 0xFE748, size: 0x8, addend: 0x0, symName: __RNvXs2L_NtNtCsATtFUPiRFW_3syn3gen2eqNtNtBa_4item15ItemExternCrateNtNtCs9f3LFPSIp77_4core3cmp9PartialEq2eq, symObjAddr: 0x25E9C, symBinAddr: 0x6D714, symSize: 0x100 }
  - { offset: 0xFE78B, size: 0x8, addend: 0x0, symName: __RNvXs2N_NtNtCsATtFUPiRFW_3syn3gen2eqNtNtBa_4item6ItemFnNtNtCs9f3LFPSIp77_4core3cmp9PartialEq2eq, symObjAddr: 0x25F9C, symBinAddr: 0x6D814, symSize: 0x100 }
  - { offset: 0xFE7CE, size: 0x8, addend: 0x0, symName: __RNvXs2P_NtNtCsATtFUPiRFW_3syn3gen2eqNtNtBa_4item14ItemForeignModNtNtCs9f3LFPSIp77_4core3cmp9PartialEq2eq, symObjAddr: 0x2609C, symBinAddr: 0x6D914, symSize: 0x100 }
  - { offset: 0xFE811, size: 0x8, addend: 0x0, symName: __RNvXs2R_NtNtCsATtFUPiRFW_3syn3gen2eqNtNtBa_4item8ItemImplNtNtCs9f3LFPSIp77_4core3cmp9PartialEq2eq, symObjAddr: 0x2619C, symBinAddr: 0x6DA14, symSize: 0x19C }
  - { offset: 0xFE854, size: 0x8, addend: 0x0, symName: __RNvXs2T_NtNtCsATtFUPiRFW_3syn3gen2eqNtNtBa_4item9ItemMacroNtNtCs9f3LFPSIp77_4core3cmp9PartialEq2eq, symObjAddr: 0x26338, symBinAddr: 0x6DBB0, symSize: 0x100 }
  - { offset: 0xFE897, size: 0x8, addend: 0x0, symName: __RNvXs2V_NtNtCsATtFUPiRFW_3syn3gen2eqNtNtBa_4item7ItemModNtNtCs9f3LFPSIp77_4core3cmp9PartialEq2eq, symObjAddr: 0x26438, symBinAddr: 0x6DCB0, symSize: 0x168 }
  - { offset: 0xFE8DA, size: 0x8, addend: 0x0, symName: __RNvXs2X_NtNtCsATtFUPiRFW_3syn3gen2eqNtNtBa_4item10ItemStaticNtNtCs9f3LFPSIp77_4core3cmp9PartialEq2eq, symObjAddr: 0x265A0, symBinAddr: 0x6DE18, symSize: 0x168 }
  - { offset: 0xFE91D, size: 0x8, addend: 0x0, symName: __RNvXs2Z_NtNtCsATtFUPiRFW_3syn3gen2eqNtNtBa_4item10ItemStructNtNtCs9f3LFPSIp77_4core3cmp9PartialEq2eq, symObjAddr: 0x26708, symBinAddr: 0x6DF80, symSize: 0x168 }
  - { offset: 0xFE960, size: 0x8, addend: 0x0, symName: __RNvXs31_NtNtCsATtFUPiRFW_3syn3gen2eqNtNtBa_4item9ItemTraitNtNtCs9f3LFPSIp77_4core3cmp9PartialEq2eq, symObjAddr: 0x26870, symBinAddr: 0x6E0E8, symSize: 0x238 }
  - { offset: 0xFE9A3, size: 0x8, addend: 0x0, symName: __RNvXs33_NtNtCsATtFUPiRFW_3syn3gen2eqNtNtBa_4item14ItemTraitAliasNtNtCs9f3LFPSIp77_4core3cmp9PartialEq2eq, symObjAddr: 0x26AA8, symBinAddr: 0x6E320, symSize: 0x134 }
  - { offset: 0xFE9E6, size: 0x8, addend: 0x0, symName: __RNvXs35_NtNtCsATtFUPiRFW_3syn3gen2eqNtNtBa_4item8ItemTypeNtNtCs9f3LFPSIp77_4core3cmp9PartialEq2eq, symObjAddr: 0x26BDC, symBinAddr: 0x6E454, symSize: 0x134 }
  - { offset: 0xFEA29, size: 0x8, addend: 0x0, symName: __RNvXs37_NtNtCsATtFUPiRFW_3syn3gen2eqNtNtBa_4item9ItemUnionNtNtCs9f3LFPSIp77_4core3cmp9PartialEq2eq, symObjAddr: 0x26D10, symBinAddr: 0x6E588, symSize: 0x134 }
  - { offset: 0xFEA6C, size: 0x8, addend: 0x0, symName: __RNvXs39_NtNtCsATtFUPiRFW_3syn3gen2eqNtNtBa_4item7ItemUseNtNtCs9f3LFPSIp77_4core3cmp9PartialEq2eq, symObjAddr: 0x26E44, symBinAddr: 0x6E6BC, symSize: 0x100 }
  - { offset: 0xFEAAF, size: 0x8, addend: 0x0, symName: __RNvXs4m_NtNtCsATtFUPiRFW_3syn3gen2eqNtNtBa_4item8ReceiverNtNtCs9f3LFPSIp77_4core3cmp9PartialEq2eq, symObjAddr: 0x26F44, symBinAddr: 0x6E7BC, symSize: 0x134 }
  - { offset: 0xFEAF2, size: 0x8, addend: 0x0, symName: __RNvXs4q_NtNtCsATtFUPiRFW_3syn3gen2eqNtNtBa_4item9SignatureNtNtCs9f3LFPSIp77_4core3cmp9PartialEq2eq, symObjAddr: 0x27078, symBinAddr: 0x6E8F0, symSize: 0x204 }
  - { offset: 0xFEB35, size: 0x8, addend: 0x0, symName: __RNvXs4s_NtNtCsATtFUPiRFW_3syn3gen2eqNtNtBa_4item16StaticMutabilityNtNtCs9f3LFPSIp77_4core3cmp9PartialEq2eq, symObjAddr: 0x2727C, symBinAddr: 0x6EAF4, symSize: 0xFC }
  - { offset: 0xFEB78, size: 0x8, addend: 0x0, symName: __RNvXs4C_NtNtCsATtFUPiRFW_3syn3gen2eqNtNtBa_4item9TraitItemNtNtCs9f3LFPSIp77_4core3cmp9PartialEq2eq, symObjAddr: 0x27378, symBinAddr: 0x6EBF0, symSize: 0x368 }
  - { offset: 0xFECA3, size: 0x8, addend: 0x0, symName: __RNvXs4E_NtNtCsATtFUPiRFW_3syn3gen2eqNtNtBa_4item14TraitItemConstNtNtCs9f3LFPSIp77_4core3cmp9PartialEq2eq, symObjAddr: 0x276E0, symBinAddr: 0x6EF58, symSize: 0x134 }
  - { offset: 0xFECE6, size: 0x8, addend: 0x0, symName: __RNvXs4G_NtNtCsATtFUPiRFW_3syn3gen2eqNtNtBa_4item11TraitItemFnNtNtCs9f3LFPSIp77_4core3cmp9PartialEq2eq, symObjAddr: 0x27814, symBinAddr: 0x6F08C, symSize: 0x100 }
  - { offset: 0xFED29, size: 0x8, addend: 0x0, symName: __RNvXs4I_NtNtCsATtFUPiRFW_3syn3gen2eqNtNtBa_4item14TraitItemMacroNtNtCs9f3LFPSIp77_4core3cmp9PartialEq2eq, symObjAddr: 0x27914, symBinAddr: 0x6F18C, symSize: 0xCC }
  - { offset: 0xFED6C, size: 0x8, addend: 0x0, symName: __RNvXs4K_NtNtCsATtFUPiRFW_3syn3gen2eqNtNtBa_4item13TraitItemTypeNtNtCs9f3LFPSIp77_4core3cmp9PartialEq2eq, symObjAddr: 0x279E0, symBinAddr: 0x6F258, symSize: 0x168 }
  - { offset: 0xFEDAF, size: 0x8, addend: 0x0, symName: __RNvXs5m_NtNtCsATtFUPiRFW_3syn3gen2eqNtNtBa_4item7UseGlobNtNtCs9f3LFPSIp77_4core3cmp9PartialEq2eq, symObjAddr: 0x27B48, symBinAddr: 0x6F3C0, symSize: 0x2C }
  - { offset: 0xFEDF2, size: 0x8, addend: 0x0, symName: __RNvXs5o_NtNtCsATtFUPiRFW_3syn3gen2eqNtNtBa_4item8UseGroupNtNtCs9f3LFPSIp77_4core3cmp9PartialEq2eq, symObjAddr: 0x27B74, symBinAddr: 0x6F3EC, symSize: 0x3C }
  - { offset: 0xFEE35, size: 0x8, addend: 0x0, symName: __RNvXs5q_NtNtCsATtFUPiRFW_3syn3gen2eqNtNtBa_4item7UseNameNtNtCs9f3LFPSIp77_4core3cmp9PartialEq2eq, symObjAddr: 0x27BB0, symBinAddr: 0x6F428, symSize: 0x3C }
  - { offset: 0xFEE78, size: 0x8, addend: 0x0, symName: __RNvXs5s_NtNtCsATtFUPiRFW_3syn3gen2eqNtNtBa_4item7UsePathNtNtCs9f3LFPSIp77_4core3cmp9PartialEq2eq, symObjAddr: 0x27BEC, symBinAddr: 0x6F464, symSize: 0x8C }
  - { offset: 0xFEEBB, size: 0x8, addend: 0x0, symName: __RNvXs5u_NtNtCsATtFUPiRFW_3syn3gen2eqNtNtBa_4item9UseRenameNtNtCs9f3LFPSIp77_4core3cmp9PartialEq2eq, symObjAddr: 0x27C78, symBinAddr: 0x6F4F0, symSize: 0x84 }
  - { offset: 0xFEEFE, size: 0x8, addend: 0x0, symName: __RNvXs5w_NtNtCsATtFUPiRFW_3syn3gen2eqNtNtBa_4item7UseTreeNtNtCs9f3LFPSIp77_4core3cmp9PartialEq2eq, symObjAddr: 0x27CFC, symBinAddr: 0x6F574, symSize: 0x300 }
  - { offset: 0xFF028, size: 0x8, addend: 0x0, symName: __RNvXs5y_NtNtCsATtFUPiRFW_3syn3gen2eqNtNtBa_4item8VariadicNtNtCs9f3LFPSIp77_4core3cmp9PartialEq2eq, symObjAddr: 0x27FFC, symBinAddr: 0x6F874, symSize: 0xCC }
  - { offset: 0x100559, size: 0x8, addend: 0x0, symName: __RINvXNtNtCsdze8u8oDPro_5alloc5slice4hackNtNtCsATtFUPiRFW_3syn4item11ForeignItemNtB3_10ConvertVec6to_vecNtNtB7_5alloc6GlobalEBG_, symObjAddr: 0x0, symBinAddr: 0x47878, symSize: 0x2C0 }
  - { offset: 0x1008A9, size: 0x8, addend: 0x0, symName: __RINvXNtNtCsdze8u8oDPro_5alloc5slice4hackNtNtCsATtFUPiRFW_3syn4item4ItemNtB3_10ConvertVec6to_vecNtNtB7_5alloc6GlobalEBG_, symObjAddr: 0x2C0, symBinAddr: 0x47B38, symSize: 0x2C0 }
  - { offset: 0x100BF9, size: 0x8, addend: 0x0, symName: __RINvXNtNtCsdze8u8oDPro_5alloc5slice4hackNtNtCsATtFUPiRFW_3syn4item8ImplItemNtB3_10ConvertVec6to_vecNtNtB7_5alloc6GlobalEBG_, symObjAddr: 0x580, symBinAddr: 0x47DF8, symSize: 0x2C0 }
  - { offset: 0x100F49, size: 0x8, addend: 0x0, symName: __RINvXNtNtCsdze8u8oDPro_5alloc5slice4hackNtNtCsATtFUPiRFW_3syn4item9TraitItemNtB3_10ConvertVec6to_vecNtNtB7_5alloc6GlobalEBG_, symObjAddr: 0x840, symBinAddr: 0x480B8, symSize: 0x2C0 }
  - { offset: 0x101299, size: 0x8, addend: 0x0, symName: __RINvXNtNtCsdze8u8oDPro_5alloc5slice4hackTNtNtCsATtFUPiRFW_3syn4item5FnArgNtNtBH_5token5CommaENtB3_10ConvertVec6to_vecNtNtB7_5alloc6GlobalEBH_, symObjAddr: 0xB00, symBinAddr: 0x48378, symSize: 0x2BC }
  - { offset: 0x1015E9, size: 0x8, addend: 0x0, symName: __RINvXNtNtCsdze8u8oDPro_5alloc5slice4hackTNtNtCsATtFUPiRFW_3syn4item7UseTreeNtNtBH_5token5CommaENtB3_10ConvertVec6to_vecNtNtB7_5alloc6GlobalEBH_, symObjAddr: 0xDBC, symBinAddr: 0x48634, symSize: 0x2BC }
  - { offset: 0x10516D, size: 0x8, addend: 0x0, symName: __RNvXsP_NtCs9f3LFPSIp77_4core3fmtRNtNtCsATtFUPiRFW_3syn4item11ForeignItemNtB5_5Debug3fmtBz_, symObjAddr: 0x2370, symBinAddr: 0x49BE8, symSize: 0x30 }
  - { offset: 0x1051B3, size: 0x8, addend: 0x0, symName: __RNvXsP_NtCs9f3LFPSIp77_4core3fmtRNtNtCsATtFUPiRFW_3syn4item15ImplRestrictionNtB5_5Debug3fmtBz_, symObjAddr: 0x23A0, symBinAddr: 0x49C18, symSize: 0x30 }
  - { offset: 0x1051F9, size: 0x8, addend: 0x0, symName: __RNvXsP_NtCs9f3LFPSIp77_4core3fmtRNtNtCsATtFUPiRFW_3syn4item4ItemNtB5_5Debug3fmtBz_, symObjAddr: 0x23D0, symBinAddr: 0x49C48, symSize: 0x30 }
  - { offset: 0x10523F, size: 0x8, addend: 0x0, symName: __RNvXsP_NtCs9f3LFPSIp77_4core3fmtRNtNtCsATtFUPiRFW_3syn4item8ImplItemNtB5_5Debug3fmtBz_, symObjAddr: 0x2400, symBinAddr: 0x49C78, symSize: 0x30 }
  - { offset: 0x105285, size: 0x8, addend: 0x0, symName: __RNvXsP_NtCs9f3LFPSIp77_4core3fmtRNtNtCsATtFUPiRFW_3syn4item8VariadicNtB5_5Debug3fmtBz_, symObjAddr: 0x2430, symBinAddr: 0x49CA8, symSize: 0x30 }
  - { offset: 0x1052CB, size: 0x8, addend: 0x0, symName: __RNvXsP_NtCs9f3LFPSIp77_4core3fmtRNtNtCsATtFUPiRFW_3syn4item9TraitItemNtB5_5Debug3fmtBz_, symObjAddr: 0x2460, symBinAddr: 0x49CD8, symSize: 0x30 }
  - { offset: 0x105317, size: 0x8, addend: 0x0, symName: __RNvXso_NtCs9f3LFPSIp77_4core3fmtSNtNtCsATtFUPiRFW_3syn4item11ForeignItemNtB5_5Debug3fmtBz_, symObjAddr: 0x2490, symBinAddr: 0x49D08, symSize: 0x90 }
  - { offset: 0x105457, size: 0x8, addend: 0x0, symName: __RNvXso_NtCs9f3LFPSIp77_4core3fmtSNtNtCsATtFUPiRFW_3syn4item4ItemNtB5_5Debug3fmtBz_, symObjAddr: 0x2520, symBinAddr: 0x49D98, symSize: 0x90 }
  - { offset: 0x105597, size: 0x8, addend: 0x0, symName: __RNvXso_NtCs9f3LFPSIp77_4core3fmtSNtNtCsATtFUPiRFW_3syn4item8ImplItemNtB5_5Debug3fmtBz_, symObjAddr: 0x25B0, symBinAddr: 0x49E28, symSize: 0x90 }
  - { offset: 0x1056D7, size: 0x8, addend: 0x0, symName: __RNvXso_NtCs9f3LFPSIp77_4core3fmtSNtNtCsATtFUPiRFW_3syn4item9TraitItemNtB5_5Debug3fmtBz_, symObjAddr: 0x2640, symBinAddr: 0x49EB8, symSize: 0x90 }
  - { offset: 0x105BD0, size: 0x8, addend: 0x0, symName: __RNvMNtCs9f3LFPSIp77_4core5sliceSTNtNtCsATtFUPiRFW_3syn4item5FnArgNtNtBz_5token5CommaE4iterBz_, symObjAddr: 0x1078, symBinAddr: 0x488F0, symSize: 0x28 }
  - { offset: 0x105C07, size: 0x8, addend: 0x0, symName: __RNvMNtCs9f3LFPSIp77_4core5sliceSTNtNtCsATtFUPiRFW_3syn4item7UseTreeNtNtBz_5token5CommaE4iterBz_, symObjAddr: 0x10A0, symBinAddr: 0x48918, symSize: 0x28 }
  - { offset: 0x105CE5, size: 0x8, addend: 0x0, symName: __RNvXs2_NtNtCs9f3LFPSIp77_4core5slice3cmpSNtNtCsATtFUPiRFW_3syn4item11ForeignItemINtB5_14SlicePartialEqBD_E5equalBH_, symObjAddr: 0x12D8, symBinAddr: 0x48B50, symSize: 0x17C }
  - { offset: 0x105DC5, size: 0x8, addend: 0x0, symName: __RNvXs2_NtNtCs9f3LFPSIp77_4core5slice3cmpSNtNtCsATtFUPiRFW_3syn4item4ItemINtB5_14SlicePartialEqBD_E5equalBH_, symObjAddr: 0x1454, symBinAddr: 0x48CCC, symSize: 0x17C }
  - { offset: 0x105EA5, size: 0x8, addend: 0x0, symName: __RNvXs2_NtNtCs9f3LFPSIp77_4core5slice3cmpSNtNtCsATtFUPiRFW_3syn4item8ImplItemINtB5_14SlicePartialEqBD_E5equalBH_, symObjAddr: 0x15D0, symBinAddr: 0x48E48, symSize: 0x17C }
  - { offset: 0x105F85, size: 0x8, addend: 0x0, symName: __RNvXs2_NtNtCs9f3LFPSIp77_4core5slice3cmpSNtNtCsATtFUPiRFW_3syn4item9TraitItemINtB5_14SlicePartialEqBD_E5equalBH_, symObjAddr: 0x174C, symBinAddr: 0x48FC4, symSize: 0x17C }
  - { offset: 0x106065, size: 0x8, addend: 0x0, symName: __RNvXs2_NtNtCs9f3LFPSIp77_4core5slice3cmpSTNtNtCsATtFUPiRFW_3syn4item5FnArgNtNtBI_5token5CommaEINtB5_14SlicePartialEqBD_E5equalBI_, symObjAddr: 0x18C8, symBinAddr: 0x49140, symSize: 0x17C }
  - { offset: 0x106145, size: 0x8, addend: 0x0, symName: __RNvXs2_NtNtCs9f3LFPSIp77_4core5slice3cmpSTNtNtCsATtFUPiRFW_3syn4item7UseTreeNtNtBI_5token5CommaEINtB5_14SlicePartialEqBD_E5equalBI_, symObjAddr: 0x1A44, symBinAddr: 0x492BC, symSize: 0x17C }
  - { offset: 0x106F1D, size: 0x8, addend: 0x0, symName: __RNvXNtNtCs9f3LFPSIp77_4core5clone6uninitNtNtCsATtFUPiRFW_3syn4item5FnArgNtB2_8CopySpec9clone_oneBG_, symObjAddr: 0x1248, symBinAddr: 0x48AC0, symSize: 0x48 }
  - { offset: 0x106F81, size: 0x8, addend: 0x0, symName: __RNvXNtNtCs9f3LFPSIp77_4core5clone6uninitNtNtCsATtFUPiRFW_3syn4item7UseTreeNtB2_8CopySpec9clone_oneBG_, symObjAddr: 0x1290, symBinAddr: 0x48B08, symSize: 0x48 }
  - { offset: 0x106FEC, size: 0x8, addend: 0x0, symName: __RNvYNtNtCsATtFUPiRFW_3syn4item10ImplItemFnNtNtCs9f3LFPSIp77_4core5clone5Clone10clone_fromB6_, symObjAddr: 0x2800, symBinAddr: 0x4A078, symSize: 0x8C }
  - { offset: 0x10702B, size: 0x8, addend: 0x0, symName: __RNvYNtNtCsATtFUPiRFW_3syn4item10ItemStaticNtNtCs9f3LFPSIp77_4core5clone5Clone10clone_fromB6_, symObjAddr: 0x29BC, symBinAddr: 0x4A234, symSize: 0x84 }
  - { offset: 0x10706A, size: 0x8, addend: 0x0, symName: __RNvYNtNtCsATtFUPiRFW_3syn4item10ItemStructNtNtCs9f3LFPSIp77_4core5clone5Clone10clone_fromB6_, symObjAddr: 0x2B70, symBinAddr: 0x4A3E8, symSize: 0x8C }
  - { offset: 0x1070A9, size: 0x8, addend: 0x0, symName: __RNvYNtNtCsATtFUPiRFW_3syn4item11ForeignItemNtNtCs9f3LFPSIp77_4core5clone5Clone10clone_fromB6_, symObjAddr: 0x2D2C, symBinAddr: 0x4A5A4, symSize: 0x8C }
  - { offset: 0x1070E8, size: 0x8, addend: 0x0, symName: __RNvYNtNtCsATtFUPiRFW_3syn4item11TraitItemFnNtNtCs9f3LFPSIp77_4core5clone5Clone10clone_fromB6_, symObjAddr: 0x2EE8, symBinAddr: 0x4A760, symSize: 0x8C }
  - { offset: 0x107127, size: 0x8, addend: 0x0, symName: __RNvYNtNtCsATtFUPiRFW_3syn4item12ImplItemTypeNtNtCs9f3LFPSIp77_4core5clone5Clone10clone_fromB6_, symObjAddr: 0x30A4, symBinAddr: 0x4A91C, symSize: 0x8C }
  - { offset: 0x107166, size: 0x8, addend: 0x0, symName: __RNvYNtNtCsATtFUPiRFW_3syn4item13ForeignItemFnNtNtCs9f3LFPSIp77_4core5clone5Clone10clone_fromB6_, symObjAddr: 0x3260, symBinAddr: 0x4AAD8, symSize: 0x8C }
  - { offset: 0x1071A5, size: 0x8, addend: 0x0, symName: __RNvYNtNtCsATtFUPiRFW_3syn4item13ImplItemConstNtNtCs9f3LFPSIp77_4core5clone5Clone10clone_fromB6_, symObjAddr: 0x341C, symBinAddr: 0x4AC94, symSize: 0x8C }
  - { offset: 0x1071E4, size: 0x8, addend: 0x0, symName: __RNvYNtNtCsATtFUPiRFW_3syn4item13ImplItemMacroNtNtCs9f3LFPSIp77_4core5clone5Clone10clone_fromB6_, symObjAddr: 0x35D8, symBinAddr: 0x4AE50, symSize: 0x84 }
  - { offset: 0x107223, size: 0x8, addend: 0x0, symName: __RNvYNtNtCsATtFUPiRFW_3syn4item13TraitItemTypeNtNtCs9f3LFPSIp77_4core5clone5Clone10clone_fromB6_, symObjAddr: 0x378C, symBinAddr: 0x4B004, symSize: 0x8C }
  - { offset: 0x107262, size: 0x8, addend: 0x0, symName: __RNvYNtNtCsATtFUPiRFW_3syn4item14ItemForeignModNtNtCs9f3LFPSIp77_4core5clone5Clone10clone_fromB6_, symObjAddr: 0x3948, symBinAddr: 0x4B1C0, symSize: 0x84 }
  - { offset: 0x1072A1, size: 0x8, addend: 0x0, symName: __RNvYNtNtCsATtFUPiRFW_3syn4item14ItemTraitAliasNtNtCs9f3LFPSIp77_4core5clone5Clone10clone_fromB6_, symObjAddr: 0x3AFC, symBinAddr: 0x4B374, symSize: 0x8C }
  - { offset: 0x1072E0, size: 0x8, addend: 0x0, symName: __RNvYNtNtCsATtFUPiRFW_3syn4item14TraitItemConstNtNtCs9f3LFPSIp77_4core5clone5Clone10clone_fromB6_, symObjAddr: 0x3CB8, symBinAddr: 0x4B530, symSize: 0x8C }
  - { offset: 0x10731F, size: 0x8, addend: 0x0, symName: __RNvYNtNtCsATtFUPiRFW_3syn4item14TraitItemMacroNtNtCs9f3LFPSIp77_4core5clone5Clone10clone_fromB6_, symObjAddr: 0x3E74, symBinAddr: 0x4B6EC, symSize: 0x84 }
  - { offset: 0x10735E, size: 0x8, addend: 0x0, symName: __RNvYNtNtCsATtFUPiRFW_3syn4item15ForeignItemTypeNtNtCs9f3LFPSIp77_4core5clone5Clone10clone_fromB6_, symObjAddr: 0x4028, symBinAddr: 0x4B8A0, symSize: 0x84 }
  - { offset: 0x10739D, size: 0x8, addend: 0x0, symName: __RNvYNtNtCsATtFUPiRFW_3syn4item15ImplRestrictionNtNtCs9f3LFPSIp77_4core5clone5Clone10clone_fromB6_, symObjAddr: 0x40EC, symBinAddr: 0x4B964, symSize: 0x34 }
  - { offset: 0x1073DC, size: 0x8, addend: 0x0, symName: __RNvYNtNtCsATtFUPiRFW_3syn4item15ItemExternCrateNtNtCs9f3LFPSIp77_4core5clone5Clone10clone_fromB6_, symObjAddr: 0x4250, symBinAddr: 0x4BAC8, symSize: 0x84 }
  - { offset: 0x10741B, size: 0x8, addend: 0x0, symName: __RNvYNtNtCsATtFUPiRFW_3syn4item16ForeignItemMacroNtNtCs9f3LFPSIp77_4core5clone5Clone10clone_fromB6_, symObjAddr: 0x4404, symBinAddr: 0x4BC7C, symSize: 0x84 }
  - { offset: 0x10745A, size: 0x8, addend: 0x0, symName: __RNvYNtNtCsATtFUPiRFW_3syn4item16StaticMutabilityNtNtCs9f3LFPSIp77_4core5clone5Clone10clone_fromB6_, symObjAddr: 0x45AC, symBinAddr: 0x4BE24, symSize: 0x54 }
  - { offset: 0x107499, size: 0x8, addend: 0x0, symName: __RNvYNtNtCsATtFUPiRFW_3syn4item17ForeignItemStaticNtNtCs9f3LFPSIp77_4core5clone5Clone10clone_fromB6_, symObjAddr: 0x4730, symBinAddr: 0x4BFA8, symSize: 0x84 }
  - { offset: 0x1074D8, size: 0x8, addend: 0x0, symName: __RNvYNtNtCsATtFUPiRFW_3syn4item4ItemNtNtCs9f3LFPSIp77_4core5clone5Clone10clone_fromB6_, symObjAddr: 0x48E4, symBinAddr: 0x4C15C, symSize: 0x8C }
  - { offset: 0x107517, size: 0x8, addend: 0x0, symName: __RNvYNtNtCsATtFUPiRFW_3syn4item5FnArgNtNtCs9f3LFPSIp77_4core5clone5Clone10clone_fromB6_, symObjAddr: 0x4AA0, symBinAddr: 0x4C318, symSize: 0x84 }
  - { offset: 0x107556, size: 0x8, addend: 0x0, symName: __RNvYNtNtCsATtFUPiRFW_3syn4item6ItemFnNtNtCs9f3LFPSIp77_4core5clone5Clone10clone_fromB6_, symObjAddr: 0x4C54, symBinAddr: 0x4C4CC, symSize: 0x8C }
  - { offset: 0x107595, size: 0x8, addend: 0x0, symName: __RNvYNtNtCsATtFUPiRFW_3syn4item7ItemModNtNtCs9f3LFPSIp77_4core5clone5Clone10clone_fromB6_, symObjAddr: 0x4E10, symBinAddr: 0x4C688, symSize: 0x84 }
  - { offset: 0x1075D4, size: 0x8, addend: 0x0, symName: __RNvYNtNtCsATtFUPiRFW_3syn4item7ItemUseNtNtCs9f3LFPSIp77_4core5clone5Clone10clone_fromB6_, symObjAddr: 0x4FC4, symBinAddr: 0x4C83C, symSize: 0x84 }
  - { offset: 0x107613, size: 0x8, addend: 0x0, symName: __RNvYNtNtCsATtFUPiRFW_3syn4item7UseGlobNtNtCs9f3LFPSIp77_4core5clone5Clone10clone_fromB6_, symObjAddr: 0x516C, symBinAddr: 0x4C9E4, symSize: 0x50 }
  - { offset: 0x107652, size: 0x8, addend: 0x0, symName: __RNvYNtNtCsATtFUPiRFW_3syn4item7UseNameNtNtCs9f3LFPSIp77_4core5clone5Clone10clone_fromB6_, symObjAddr: 0x52EC, symBinAddr: 0x4CB64, symSize: 0x84 }
  - { offset: 0x107691, size: 0x8, addend: 0x0, symName: __RNvYNtNtCsATtFUPiRFW_3syn4item7UsePathNtNtCs9f3LFPSIp77_4core5clone5Clone10clone_fromB6_, symObjAddr: 0x54A0, symBinAddr: 0x4CD18, symSize: 0x84 }
  - { offset: 0x1076D0, size: 0x8, addend: 0x0, symName: __RNvYNtNtCsATtFUPiRFW_3syn4item7UseTreeNtNtCs9f3LFPSIp77_4core5clone5Clone10clone_fromB6_, symObjAddr: 0x5654, symBinAddr: 0x4CECC, symSize: 0x84 }
  - { offset: 0x10770F, size: 0x8, addend: 0x0, symName: __RNvYNtNtCsATtFUPiRFW_3syn4item8ImplItemNtNtCs9f3LFPSIp77_4core5clone5Clone10clone_fromB6_, symObjAddr: 0x5808, symBinAddr: 0x4D080, symSize: 0x8C }
  - { offset: 0x10774E, size: 0x8, addend: 0x0, symName: __RNvYNtNtCsATtFUPiRFW_3syn4item8ItemEnumNtNtCs9f3LFPSIp77_4core5clone5Clone10clone_fromB6_, symObjAddr: 0x59C4, symBinAddr: 0x4D23C, symSize: 0x8C }
  - { offset: 0x10778D, size: 0x8, addend: 0x0, symName: __RNvYNtNtCsATtFUPiRFW_3syn4item8ItemImplNtNtCs9f3LFPSIp77_4core5clone5Clone10clone_fromB6_, symObjAddr: 0x5B80, symBinAddr: 0x4D3F8, symSize: 0x8C }
  - { offset: 0x1077CC, size: 0x8, addend: 0x0, symName: __RNvYNtNtCsATtFUPiRFW_3syn4item8ItemTypeNtNtCs9f3LFPSIp77_4core5clone5Clone10clone_fromB6_, symObjAddr: 0x5D3C, symBinAddr: 0x4D5B4, symSize: 0x8C }
  - { offset: 0x10780B, size: 0x8, addend: 0x0, symName: __RNvYNtNtCsATtFUPiRFW_3syn4item8ReceiverNtNtCs9f3LFPSIp77_4core5clone5Clone10clone_fromB6_, symObjAddr: 0x5EF8, symBinAddr: 0x4D770, symSize: 0x84 }
  - { offset: 0x10784A, size: 0x8, addend: 0x0, symName: __RNvYNtNtCsATtFUPiRFW_3syn4item8UseGroupNtNtCs9f3LFPSIp77_4core5clone5Clone10clone_fromB6_, symObjAddr: 0x60AC, symBinAddr: 0x4D924, symSize: 0x84 }
  - { offset: 0x107889, size: 0x8, addend: 0x0, symName: __RNvYNtNtCsATtFUPiRFW_3syn4item8VariadicNtNtCs9f3LFPSIp77_4core5clone5Clone10clone_fromB6_, symObjAddr: 0x6260, symBinAddr: 0x4DAD8, symSize: 0x84 }
  - { offset: 0x1078C8, size: 0x8, addend: 0x0, symName: __RNvYNtNtCsATtFUPiRFW_3syn4item9ItemConstNtNtCs9f3LFPSIp77_4core5clone5Clone10clone_fromB6_, symObjAddr: 0x6414, symBinAddr: 0x4DC8C, symSize: 0x8C }
  - { offset: 0x107907, size: 0x8, addend: 0x0, symName: __RNvYNtNtCsATtFUPiRFW_3syn4item9ItemMacroNtNtCs9f3LFPSIp77_4core5clone5Clone10clone_fromB6_, symObjAddr: 0x65D0, symBinAddr: 0x4DE48, symSize: 0x84 }
  - { offset: 0x107946, size: 0x8, addend: 0x0, symName: __RNvYNtNtCsATtFUPiRFW_3syn4item9ItemTraitNtNtCs9f3LFPSIp77_4core5clone5Clone10clone_fromB6_, symObjAddr: 0x6784, symBinAddr: 0x4DFFC, symSize: 0x8C }
  - { offset: 0x107985, size: 0x8, addend: 0x0, symName: __RNvYNtNtCsATtFUPiRFW_3syn4item9ItemUnionNtNtCs9f3LFPSIp77_4core5clone5Clone10clone_fromB6_, symObjAddr: 0x6940, symBinAddr: 0x4E1B8, symSize: 0x8C }
  - { offset: 0x1079C4, size: 0x8, addend: 0x0, symName: __RNvYNtNtCsATtFUPiRFW_3syn4item9SignatureNtNtCs9f3LFPSIp77_4core5clone5Clone10clone_fromB6_, symObjAddr: 0x6AFC, symBinAddr: 0x4E374, symSize: 0x8C }
  - { offset: 0x107A03, size: 0x8, addend: 0x0, symName: __RNvYNtNtCsATtFUPiRFW_3syn4item9TraitItemNtNtCs9f3LFPSIp77_4core5clone5Clone10clone_fromB6_, symObjAddr: 0x6CB8, symBinAddr: 0x4E530, symSize: 0x8C }
  - { offset: 0x107A42, size: 0x8, addend: 0x0, symName: __RNvYNtNtCsATtFUPiRFW_3syn4item9UseRenameNtNtCs9f3LFPSIp77_4core5clone5Clone10clone_fromB6_, symObjAddr: 0x6E74, symBinAddr: 0x4E6EC, symSize: 0x84 }
  - { offset: 0x107BCA, size: 0x8, addend: 0x0, symName: __RNvXs7_NtNtCs9f3LFPSIp77_4core3cmp5implsRNtNtCsATtFUPiRFW_3syn4item10ImplItemFnNtB7_9PartialEq2eqBH_, symObjAddr: 0x1BC0, symBinAddr: 0x49438, symSize: 0x34 }
  - { offset: 0x107C19, size: 0x8, addend: 0x0, symName: __RNvXs7_NtNtCs9f3LFPSIp77_4core3cmp5implsRNtNtCsATtFUPiRFW_3syn4item10ItemStaticNtB7_9PartialEq2eqBH_, symObjAddr: 0x1BF4, symBinAddr: 0x4946C, symSize: 0x34 }
  - { offset: 0x107C68, size: 0x8, addend: 0x0, symName: __RNvXs7_NtNtCs9f3LFPSIp77_4core3cmp5implsRNtNtCsATtFUPiRFW_3syn4item10ItemStructNtB7_9PartialEq2eqBH_, symObjAddr: 0x1C28, symBinAddr: 0x494A0, symSize: 0x34 }
  - { offset: 0x107CB7, size: 0x8, addend: 0x0, symName: __RNvXs7_NtNtCs9f3LFPSIp77_4core3cmp5implsRNtNtCsATtFUPiRFW_3syn4item11TraitItemFnNtB7_9PartialEq2eqBH_, symObjAddr: 0x1C5C, symBinAddr: 0x494D4, symSize: 0x34 }
  - { offset: 0x107D06, size: 0x8, addend: 0x0, symName: __RNvXs7_NtNtCs9f3LFPSIp77_4core3cmp5implsRNtNtCsATtFUPiRFW_3syn4item12ImplItemTypeNtB7_9PartialEq2eqBH_, symObjAddr: 0x1C90, symBinAddr: 0x49508, symSize: 0x34 }
  - { offset: 0x107D55, size: 0x8, addend: 0x0, symName: __RNvXs7_NtNtCs9f3LFPSIp77_4core3cmp5implsRNtNtCsATtFUPiRFW_3syn4item13ForeignItemFnNtB7_9PartialEq2eqBH_, symObjAddr: 0x1CC4, symBinAddr: 0x4953C, symSize: 0x34 }
  - { offset: 0x107DA4, size: 0x8, addend: 0x0, symName: __RNvXs7_NtNtCs9f3LFPSIp77_4core3cmp5implsRNtNtCsATtFUPiRFW_3syn4item13ImplItemConstNtB7_9PartialEq2eqBH_, symObjAddr: 0x1CF8, symBinAddr: 0x49570, symSize: 0x34 }
  - { offset: 0x107DF3, size: 0x8, addend: 0x0, symName: __RNvXs7_NtNtCs9f3LFPSIp77_4core3cmp5implsRNtNtCsATtFUPiRFW_3syn4item13ImplItemMacroNtB7_9PartialEq2eqBH_, symObjAddr: 0x1D2C, symBinAddr: 0x495A4, symSize: 0x34 }
  - { offset: 0x107E42, size: 0x8, addend: 0x0, symName: __RNvXs7_NtNtCs9f3LFPSIp77_4core3cmp5implsRNtNtCsATtFUPiRFW_3syn4item13TraitItemTypeNtB7_9PartialEq2eqBH_, symObjAddr: 0x1D60, symBinAddr: 0x495D8, symSize: 0x34 }
  - { offset: 0x107E91, size: 0x8, addend: 0x0, symName: __RNvXs7_NtNtCs9f3LFPSIp77_4core3cmp5implsRNtNtCsATtFUPiRFW_3syn4item14ItemForeignModNtB7_9PartialEq2eqBH_, symObjAddr: 0x1D94, symBinAddr: 0x4960C, symSize: 0x34 }
  - { offset: 0x107EE0, size: 0x8, addend: 0x0, symName: __RNvXs7_NtNtCs9f3LFPSIp77_4core3cmp5implsRNtNtCsATtFUPiRFW_3syn4item14ItemTraitAliasNtB7_9PartialEq2eqBH_, symObjAddr: 0x1DC8, symBinAddr: 0x49640, symSize: 0x34 }
  - { offset: 0x107F2F, size: 0x8, addend: 0x0, symName: __RNvXs7_NtNtCs9f3LFPSIp77_4core3cmp5implsRNtNtCsATtFUPiRFW_3syn4item14TraitItemConstNtB7_9PartialEq2eqBH_, symObjAddr: 0x1DFC, symBinAddr: 0x49674, symSize: 0x34 }
  - { offset: 0x107F7E, size: 0x8, addend: 0x0, symName: __RNvXs7_NtNtCs9f3LFPSIp77_4core3cmp5implsRNtNtCsATtFUPiRFW_3syn4item14TraitItemMacroNtB7_9PartialEq2eqBH_, symObjAddr: 0x1E30, symBinAddr: 0x496A8, symSize: 0x34 }
  - { offset: 0x107FCD, size: 0x8, addend: 0x0, symName: __RNvXs7_NtNtCs9f3LFPSIp77_4core3cmp5implsRNtNtCsATtFUPiRFW_3syn4item15ForeignItemTypeNtB7_9PartialEq2eqBH_, symObjAddr: 0x1E64, symBinAddr: 0x496DC, symSize: 0x34 }
  - { offset: 0x10801C, size: 0x8, addend: 0x0, symName: __RNvXs7_NtNtCs9f3LFPSIp77_4core3cmp5implsRNtNtCsATtFUPiRFW_3syn4item15ItemExternCrateNtB7_9PartialEq2eqBH_, symObjAddr: 0x1E98, symBinAddr: 0x49710, symSize: 0x34 }
  - { offset: 0x10806B, size: 0x8, addend: 0x0, symName: __RNvXs7_NtNtCs9f3LFPSIp77_4core3cmp5implsRNtNtCsATtFUPiRFW_3syn4item16ForeignItemMacroNtB7_9PartialEq2eqBH_, symObjAddr: 0x1ECC, symBinAddr: 0x49744, symSize: 0x34 }
  - { offset: 0x1080BA, size: 0x8, addend: 0x0, symName: __RNvXs7_NtNtCs9f3LFPSIp77_4core3cmp5implsRNtNtCsATtFUPiRFW_3syn4item17ForeignItemStaticNtB7_9PartialEq2eqBH_, symObjAddr: 0x1F00, symBinAddr: 0x49778, symSize: 0x34 }
  - { offset: 0x108109, size: 0x8, addend: 0x0, symName: __RNvXs7_NtNtCs9f3LFPSIp77_4core3cmp5implsRNtNtCsATtFUPiRFW_3syn4item4ItemNtB7_9PartialEq2eqBH_, symObjAddr: 0x1F34, symBinAddr: 0x497AC, symSize: 0x34 }
  - { offset: 0x108158, size: 0x8, addend: 0x0, symName: __RNvXs7_NtNtCs9f3LFPSIp77_4core3cmp5implsRNtNtCsATtFUPiRFW_3syn4item6ItemFnNtB7_9PartialEq2eqBH_, symObjAddr: 0x1F68, symBinAddr: 0x497E0, symSize: 0x34 }
  - { offset: 0x1081A7, size: 0x8, addend: 0x0, symName: __RNvXs7_NtNtCs9f3LFPSIp77_4core3cmp5implsRNtNtCsATtFUPiRFW_3syn4item7ItemModNtB7_9PartialEq2eqBH_, symObjAddr: 0x1F9C, symBinAddr: 0x49814, symSize: 0x34 }
  - { offset: 0x1081F6, size: 0x8, addend: 0x0, symName: __RNvXs7_NtNtCs9f3LFPSIp77_4core3cmp5implsRNtNtCsATtFUPiRFW_3syn4item7ItemUseNtB7_9PartialEq2eqBH_, symObjAddr: 0x1FD0, symBinAddr: 0x49848, symSize: 0x34 }
  - { offset: 0x108245, size: 0x8, addend: 0x0, symName: __RNvXs7_NtNtCs9f3LFPSIp77_4core3cmp5implsRNtNtCsATtFUPiRFW_3syn4item7UseGlobNtB7_9PartialEq2eqBH_, symObjAddr: 0x2004, symBinAddr: 0x4987C, symSize: 0x34 }
  - { offset: 0x108294, size: 0x8, addend: 0x0, symName: __RNvXs7_NtNtCs9f3LFPSIp77_4core3cmp5implsRNtNtCsATtFUPiRFW_3syn4item7UseNameNtB7_9PartialEq2eqBH_, symObjAddr: 0x2038, symBinAddr: 0x498B0, symSize: 0x34 }
  - { offset: 0x1082E3, size: 0x8, addend: 0x0, symName: __RNvXs7_NtNtCs9f3LFPSIp77_4core3cmp5implsRNtNtCsATtFUPiRFW_3syn4item7UsePathNtB7_9PartialEq2eqBH_, symObjAddr: 0x206C, symBinAddr: 0x498E4, symSize: 0x34 }
  - { offset: 0x108332, size: 0x8, addend: 0x0, symName: __RNvXs7_NtNtCs9f3LFPSIp77_4core3cmp5implsRNtNtCsATtFUPiRFW_3syn4item8ItemEnumNtB7_9PartialEq2eqBH_, symObjAddr: 0x20A0, symBinAddr: 0x49918, symSize: 0x34 }
  - { offset: 0x108381, size: 0x8, addend: 0x0, symName: __RNvXs7_NtNtCs9f3LFPSIp77_4core3cmp5implsRNtNtCsATtFUPiRFW_3syn4item8ItemImplNtB7_9PartialEq2eqBH_, symObjAddr: 0x20D4, symBinAddr: 0x4994C, symSize: 0x34 }
  - { offset: 0x1083D0, size: 0x8, addend: 0x0, symName: __RNvXs7_NtNtCs9f3LFPSIp77_4core3cmp5implsRNtNtCsATtFUPiRFW_3syn4item8ItemTypeNtB7_9PartialEq2eqBH_, symObjAddr: 0x2108, symBinAddr: 0x49980, symSize: 0x34 }
  - { offset: 0x10841F, size: 0x8, addend: 0x0, symName: __RNvXs7_NtNtCs9f3LFPSIp77_4core3cmp5implsRNtNtCsATtFUPiRFW_3syn4item8ReceiverNtB7_9PartialEq2eqBH_, symObjAddr: 0x213C, symBinAddr: 0x499B4, symSize: 0x34 }
  - { offset: 0x10846E, size: 0x8, addend: 0x0, symName: __RNvXs7_NtNtCs9f3LFPSIp77_4core3cmp5implsRNtNtCsATtFUPiRFW_3syn4item8UseGroupNtB7_9PartialEq2eqBH_, symObjAddr: 0x2170, symBinAddr: 0x499E8, symSize: 0x34 }
  - { offset: 0x1084BD, size: 0x8, addend: 0x0, symName: __RNvXs7_NtNtCs9f3LFPSIp77_4core3cmp5implsRNtNtCsATtFUPiRFW_3syn4item9ItemConstNtB7_9PartialEq2eqBH_, symObjAddr: 0x21A4, symBinAddr: 0x49A1C, symSize: 0x34 }
  - { offset: 0x10850C, size: 0x8, addend: 0x0, symName: __RNvXs7_NtNtCs9f3LFPSIp77_4core3cmp5implsRNtNtCsATtFUPiRFW_3syn4item9ItemMacroNtB7_9PartialEq2eqBH_, symObjAddr: 0x21D8, symBinAddr: 0x49A50, symSize: 0x34 }
  - { offset: 0x10855B, size: 0x8, addend: 0x0, symName: __RNvXs7_NtNtCs9f3LFPSIp77_4core3cmp5implsRNtNtCsATtFUPiRFW_3syn4item9ItemTraitNtB7_9PartialEq2eqBH_, symObjAddr: 0x220C, symBinAddr: 0x49A84, symSize: 0x34 }
  - { offset: 0x1085AA, size: 0x8, addend: 0x0, symName: __RNvXs7_NtNtCs9f3LFPSIp77_4core3cmp5implsRNtNtCsATtFUPiRFW_3syn4item9ItemUnionNtB7_9PartialEq2eqBH_, symObjAddr: 0x2240, symBinAddr: 0x49AB8, symSize: 0x34 }
  - { offset: 0x1085F9, size: 0x8, addend: 0x0, symName: __RNvXs7_NtNtCs9f3LFPSIp77_4core3cmp5implsRNtNtCsATtFUPiRFW_3syn4item9UseRenameNtB7_9PartialEq2eqBH_, symObjAddr: 0x2274, symBinAddr: 0x49AEC, symSize: 0x34 }
  - { offset: 0x10864F, size: 0x8, addend: 0x0, symName: __RNvYNtNtCsATtFUPiRFW_3syn4item10ImplItemFnNtNtCs9f3LFPSIp77_4core3cmp2Eq27assert_receiver_is_total_eqB6_, symObjAddr: 0x27C0, symBinAddr: 0x4A038, symSize: 0x10 }
  - { offset: 0x108682, size: 0x8, addend: 0x0, symName: __RNvYNtNtCsATtFUPiRFW_3syn4item10ItemStaticNtNtCs9f3LFPSIp77_4core3cmp2Eq27assert_receiver_is_total_eqB6_, symObjAddr: 0x297C, symBinAddr: 0x4A1F4, symSize: 0x10 }
  - { offset: 0x1086B5, size: 0x8, addend: 0x0, symName: __RNvYNtNtCsATtFUPiRFW_3syn4item10ItemStructNtNtCs9f3LFPSIp77_4core3cmp2Eq27assert_receiver_is_total_eqB6_, symObjAddr: 0x2B30, symBinAddr: 0x4A3A8, symSize: 0x10 }
  - { offset: 0x1086E8, size: 0x8, addend: 0x0, symName: __RNvYNtNtCsATtFUPiRFW_3syn4item11ForeignItemNtNtCs9f3LFPSIp77_4core3cmp2Eq27assert_receiver_is_total_eqB6_, symObjAddr: 0x2CEC, symBinAddr: 0x4A564, symSize: 0x10 }
  - { offset: 0x10871B, size: 0x8, addend: 0x0, symName: __RNvYNtNtCsATtFUPiRFW_3syn4item11TraitItemFnNtNtCs9f3LFPSIp77_4core3cmp2Eq27assert_receiver_is_total_eqB6_, symObjAddr: 0x2EA8, symBinAddr: 0x4A720, symSize: 0x10 }
  - { offset: 0x10874E, size: 0x8, addend: 0x0, symName: __RNvYNtNtCsATtFUPiRFW_3syn4item12ImplItemTypeNtNtCs9f3LFPSIp77_4core3cmp2Eq27assert_receiver_is_total_eqB6_, symObjAddr: 0x3064, symBinAddr: 0x4A8DC, symSize: 0x10 }
  - { offset: 0x108781, size: 0x8, addend: 0x0, symName: __RNvYNtNtCsATtFUPiRFW_3syn4item13ForeignItemFnNtNtCs9f3LFPSIp77_4core3cmp2Eq27assert_receiver_is_total_eqB6_, symObjAddr: 0x3220, symBinAddr: 0x4AA98, symSize: 0x10 }
  - { offset: 0x1087B4, size: 0x8, addend: 0x0, symName: __RNvYNtNtCsATtFUPiRFW_3syn4item13ImplItemConstNtNtCs9f3LFPSIp77_4core3cmp2Eq27assert_receiver_is_total_eqB6_, symObjAddr: 0x33DC, symBinAddr: 0x4AC54, symSize: 0x10 }
  - { offset: 0x1087E7, size: 0x8, addend: 0x0, symName: __RNvYNtNtCsATtFUPiRFW_3syn4item13ImplItemMacroNtNtCs9f3LFPSIp77_4core3cmp2Eq27assert_receiver_is_total_eqB6_, symObjAddr: 0x3598, symBinAddr: 0x4AE10, symSize: 0x10 }
  - { offset: 0x10881A, size: 0x8, addend: 0x0, symName: __RNvYNtNtCsATtFUPiRFW_3syn4item13TraitItemTypeNtNtCs9f3LFPSIp77_4core3cmp2Eq27assert_receiver_is_total_eqB6_, symObjAddr: 0x374C, symBinAddr: 0x4AFC4, symSize: 0x10 }
  - { offset: 0x10884D, size: 0x8, addend: 0x0, symName: __RNvYNtNtCsATtFUPiRFW_3syn4item14ItemForeignModNtNtCs9f3LFPSIp77_4core3cmp2Eq27assert_receiver_is_total_eqB6_, symObjAddr: 0x3908, symBinAddr: 0x4B180, symSize: 0x10 }
  - { offset: 0x108880, size: 0x8, addend: 0x0, symName: __RNvYNtNtCsATtFUPiRFW_3syn4item14ItemTraitAliasNtNtCs9f3LFPSIp77_4core3cmp2Eq27assert_receiver_is_total_eqB6_, symObjAddr: 0x3ABC, symBinAddr: 0x4B334, symSize: 0x10 }
  - { offset: 0x1088B3, size: 0x8, addend: 0x0, symName: __RNvYNtNtCsATtFUPiRFW_3syn4item14TraitItemConstNtNtCs9f3LFPSIp77_4core3cmp2Eq27assert_receiver_is_total_eqB6_, symObjAddr: 0x3C78, symBinAddr: 0x4B4F0, symSize: 0x10 }
  - { offset: 0x1088E6, size: 0x8, addend: 0x0, symName: __RNvYNtNtCsATtFUPiRFW_3syn4item14TraitItemMacroNtNtCs9f3LFPSIp77_4core3cmp2Eq27assert_receiver_is_total_eqB6_, symObjAddr: 0x3E34, symBinAddr: 0x4B6AC, symSize: 0x10 }
  - { offset: 0x108919, size: 0x8, addend: 0x0, symName: __RNvYNtNtCsATtFUPiRFW_3syn4item15ForeignItemTypeNtNtCs9f3LFPSIp77_4core3cmp2Eq27assert_receiver_is_total_eqB6_, symObjAddr: 0x3FE8, symBinAddr: 0x4B860, symSize: 0x10 }
  - { offset: 0x10894C, size: 0x8, addend: 0x0, symName: __RNvYNtNtCsATtFUPiRFW_3syn4item15ImplRestrictionNtNtCs9f3LFPSIp77_4core3cmp2Eq27assert_receiver_is_total_eqB6_, symObjAddr: 0x40AC, symBinAddr: 0x4B924, symSize: 0x10 }
  - { offset: 0x10897F, size: 0x8, addend: 0x0, symName: __RNvYNtNtCsATtFUPiRFW_3syn4item15ItemExternCrateNtNtCs9f3LFPSIp77_4core3cmp2Eq27assert_receiver_is_total_eqB6_, symObjAddr: 0x4210, symBinAddr: 0x4BA88, symSize: 0x10 }
  - { offset: 0x1089B2, size: 0x8, addend: 0x0, symName: __RNvYNtNtCsATtFUPiRFW_3syn4item16ForeignItemMacroNtNtCs9f3LFPSIp77_4core3cmp2Eq27assert_receiver_is_total_eqB6_, symObjAddr: 0x43C4, symBinAddr: 0x4BC3C, symSize: 0x10 }
  - { offset: 0x1089E5, size: 0x8, addend: 0x0, symName: __RNvYNtNtCsATtFUPiRFW_3syn4item16StaticMutabilityNtNtCs9f3LFPSIp77_4core3cmp2Eq27assert_receiver_is_total_eqB6_, symObjAddr: 0x456C, symBinAddr: 0x4BDE4, symSize: 0x10 }
  - { offset: 0x108A18, size: 0x8, addend: 0x0, symName: __RNvYNtNtCsATtFUPiRFW_3syn4item17ForeignItemStaticNtNtCs9f3LFPSIp77_4core3cmp2Eq27assert_receiver_is_total_eqB6_, symObjAddr: 0x46F0, symBinAddr: 0x4BF68, symSize: 0x10 }
  - { offset: 0x108A4B, size: 0x8, addend: 0x0, symName: __RNvYNtNtCsATtFUPiRFW_3syn4item4ItemNtNtCs9f3LFPSIp77_4core3cmp2Eq27assert_receiver_is_total_eqB6_, symObjAddr: 0x48A4, symBinAddr: 0x4C11C, symSize: 0x10 }
  - { offset: 0x108A7E, size: 0x8, addend: 0x0, symName: __RNvYNtNtCsATtFUPiRFW_3syn4item5FnArgNtNtCs9f3LFPSIp77_4core3cmp2Eq27assert_receiver_is_total_eqB6_, symObjAddr: 0x4A60, symBinAddr: 0x4C2D8, symSize: 0x10 }
  - { offset: 0x108AB1, size: 0x8, addend: 0x0, symName: __RNvYNtNtCsATtFUPiRFW_3syn4item6ItemFnNtNtCs9f3LFPSIp77_4core3cmp2Eq27assert_receiver_is_total_eqB6_, symObjAddr: 0x4C14, symBinAddr: 0x4C48C, symSize: 0x10 }
  - { offset: 0x108AE4, size: 0x8, addend: 0x0, symName: __RNvYNtNtCsATtFUPiRFW_3syn4item7ItemModNtNtCs9f3LFPSIp77_4core3cmp2Eq27assert_receiver_is_total_eqB6_, symObjAddr: 0x4DD0, symBinAddr: 0x4C648, symSize: 0x10 }
  - { offset: 0x108B17, size: 0x8, addend: 0x0, symName: __RNvYNtNtCsATtFUPiRFW_3syn4item7ItemUseNtNtCs9f3LFPSIp77_4core3cmp2Eq27assert_receiver_is_total_eqB6_, symObjAddr: 0x4F84, symBinAddr: 0x4C7FC, symSize: 0x10 }
  - { offset: 0x108B4A, size: 0x8, addend: 0x0, symName: __RNvYNtNtCsATtFUPiRFW_3syn4item7UseGlobNtNtCs9f3LFPSIp77_4core3cmp2Eq27assert_receiver_is_total_eqB6_, symObjAddr: 0x512C, symBinAddr: 0x4C9A4, symSize: 0x10 }
  - { offset: 0x108B7D, size: 0x8, addend: 0x0, symName: __RNvYNtNtCsATtFUPiRFW_3syn4item7UseNameNtNtCs9f3LFPSIp77_4core3cmp2Eq27assert_receiver_is_total_eqB6_, symObjAddr: 0x52AC, symBinAddr: 0x4CB24, symSize: 0x10 }
  - { offset: 0x108BB0, size: 0x8, addend: 0x0, symName: __RNvYNtNtCsATtFUPiRFW_3syn4item7UsePathNtNtCs9f3LFPSIp77_4core3cmp2Eq27assert_receiver_is_total_eqB6_, symObjAddr: 0x5460, symBinAddr: 0x4CCD8, symSize: 0x10 }
  - { offset: 0x108BE3, size: 0x8, addend: 0x0, symName: __RNvYNtNtCsATtFUPiRFW_3syn4item7UseTreeNtNtCs9f3LFPSIp77_4core3cmp2Eq27assert_receiver_is_total_eqB6_, symObjAddr: 0x5614, symBinAddr: 0x4CE8C, symSize: 0x10 }
  - { offset: 0x108C16, size: 0x8, addend: 0x0, symName: __RNvYNtNtCsATtFUPiRFW_3syn4item8ImplItemNtNtCs9f3LFPSIp77_4core3cmp2Eq27assert_receiver_is_total_eqB6_, symObjAddr: 0x57C8, symBinAddr: 0x4D040, symSize: 0x10 }
  - { offset: 0x108C49, size: 0x8, addend: 0x0, symName: __RNvYNtNtCsATtFUPiRFW_3syn4item8ItemEnumNtNtCs9f3LFPSIp77_4core3cmp2Eq27assert_receiver_is_total_eqB6_, symObjAddr: 0x5984, symBinAddr: 0x4D1FC, symSize: 0x10 }
  - { offset: 0x108C7C, size: 0x8, addend: 0x0, symName: __RNvYNtNtCsATtFUPiRFW_3syn4item8ItemImplNtNtCs9f3LFPSIp77_4core3cmp2Eq27assert_receiver_is_total_eqB6_, symObjAddr: 0x5B40, symBinAddr: 0x4D3B8, symSize: 0x10 }
  - { offset: 0x108CAF, size: 0x8, addend: 0x0, symName: __RNvYNtNtCsATtFUPiRFW_3syn4item8ItemTypeNtNtCs9f3LFPSIp77_4core3cmp2Eq27assert_receiver_is_total_eqB6_, symObjAddr: 0x5CFC, symBinAddr: 0x4D574, symSize: 0x10 }
  - { offset: 0x108CE2, size: 0x8, addend: 0x0, symName: __RNvYNtNtCsATtFUPiRFW_3syn4item8ReceiverNtNtCs9f3LFPSIp77_4core3cmp2Eq27assert_receiver_is_total_eqB6_, symObjAddr: 0x5EB8, symBinAddr: 0x4D730, symSize: 0x10 }
  - { offset: 0x108D15, size: 0x8, addend: 0x0, symName: __RNvYNtNtCsATtFUPiRFW_3syn4item8UseGroupNtNtCs9f3LFPSIp77_4core3cmp2Eq27assert_receiver_is_total_eqB6_, symObjAddr: 0x606C, symBinAddr: 0x4D8E4, symSize: 0x10 }
  - { offset: 0x108D48, size: 0x8, addend: 0x0, symName: __RNvYNtNtCsATtFUPiRFW_3syn4item8VariadicNtNtCs9f3LFPSIp77_4core3cmp2Eq27assert_receiver_is_total_eqB6_, symObjAddr: 0x6220, symBinAddr: 0x4DA98, symSize: 0x10 }
  - { offset: 0x108D7B, size: 0x8, addend: 0x0, symName: __RNvYNtNtCsATtFUPiRFW_3syn4item9ItemConstNtNtCs9f3LFPSIp77_4core3cmp2Eq27assert_receiver_is_total_eqB6_, symObjAddr: 0x63D4, symBinAddr: 0x4DC4C, symSize: 0x10 }
  - { offset: 0x108DAE, size: 0x8, addend: 0x0, symName: __RNvYNtNtCsATtFUPiRFW_3syn4item9ItemMacroNtNtCs9f3LFPSIp77_4core3cmp2Eq27assert_receiver_is_total_eqB6_, symObjAddr: 0x6590, symBinAddr: 0x4DE08, symSize: 0x10 }
  - { offset: 0x108DE1, size: 0x8, addend: 0x0, symName: __RNvYNtNtCsATtFUPiRFW_3syn4item9ItemTraitNtNtCs9f3LFPSIp77_4core3cmp2Eq27assert_receiver_is_total_eqB6_, symObjAddr: 0x6744, symBinAddr: 0x4DFBC, symSize: 0x10 }
  - { offset: 0x108E14, size: 0x8, addend: 0x0, symName: __RNvYNtNtCsATtFUPiRFW_3syn4item9ItemUnionNtNtCs9f3LFPSIp77_4core3cmp2Eq27assert_receiver_is_total_eqB6_, symObjAddr: 0x6900, symBinAddr: 0x4E178, symSize: 0x10 }
  - { offset: 0x108E47, size: 0x8, addend: 0x0, symName: __RNvYNtNtCsATtFUPiRFW_3syn4item9SignatureNtNtCs9f3LFPSIp77_4core3cmp2Eq27assert_receiver_is_total_eqB6_, symObjAddr: 0x6ABC, symBinAddr: 0x4E334, symSize: 0x10 }
  - { offset: 0x108E7A, size: 0x8, addend: 0x0, symName: __RNvYNtNtCsATtFUPiRFW_3syn4item9TraitItemNtNtCs9f3LFPSIp77_4core3cmp2Eq27assert_receiver_is_total_eqB6_, symObjAddr: 0x6C78, symBinAddr: 0x4E4F0, symSize: 0x10 }
  - { offset: 0x108EAD, size: 0x8, addend: 0x0, symName: __RNvYNtNtCsATtFUPiRFW_3syn4item9UseRenameNtNtCs9f3LFPSIp77_4core3cmp2Eq27assert_receiver_is_total_eqB6_, symObjAddr: 0x6E34, symBinAddr: 0x4E6AC, symSize: 0x10 }
  - { offset: 0x108EE6, size: 0x8, addend: 0x0, symName: __RNvYNtNtCsATtFUPiRFW_3syn4item10ImplItemFnNtNtCs9f3LFPSIp77_4core3cmp9PartialEq2neB6_, symObjAddr: 0x27D0, symBinAddr: 0x4A048, symSize: 0x30 }
  - { offset: 0x108F35, size: 0x8, addend: 0x0, symName: __RNvYNtNtCsATtFUPiRFW_3syn4item10ItemStaticNtNtCs9f3LFPSIp77_4core3cmp9PartialEq2neB6_, symObjAddr: 0x298C, symBinAddr: 0x4A204, symSize: 0x30 }
  - { offset: 0x108F84, size: 0x8, addend: 0x0, symName: __RNvYNtNtCsATtFUPiRFW_3syn4item10ItemStructNtNtCs9f3LFPSIp77_4core3cmp9PartialEq2neB6_, symObjAddr: 0x2B40, symBinAddr: 0x4A3B8, symSize: 0x30 }
  - { offset: 0x108FD3, size: 0x8, addend: 0x0, symName: __RNvYNtNtCsATtFUPiRFW_3syn4item11ForeignItemNtNtCs9f3LFPSIp77_4core3cmp9PartialEq2neB6_, symObjAddr: 0x2CFC, symBinAddr: 0x4A574, symSize: 0x30 }
  - { offset: 0x109022, size: 0x8, addend: 0x0, symName: __RNvYNtNtCsATtFUPiRFW_3syn4item11TraitItemFnNtNtCs9f3LFPSIp77_4core3cmp9PartialEq2neB6_, symObjAddr: 0x2EB8, symBinAddr: 0x4A730, symSize: 0x30 }
  - { offset: 0x109071, size: 0x8, addend: 0x0, symName: __RNvYNtNtCsATtFUPiRFW_3syn4item12ImplItemTypeNtNtCs9f3LFPSIp77_4core3cmp9PartialEq2neB6_, symObjAddr: 0x3074, symBinAddr: 0x4A8EC, symSize: 0x30 }
  - { offset: 0x1090C0, size: 0x8, addend: 0x0, symName: __RNvYNtNtCsATtFUPiRFW_3syn4item13ForeignItemFnNtNtCs9f3LFPSIp77_4core3cmp9PartialEq2neB6_, symObjAddr: 0x3230, symBinAddr: 0x4AAA8, symSize: 0x30 }
  - { offset: 0x10910F, size: 0x8, addend: 0x0, symName: __RNvYNtNtCsATtFUPiRFW_3syn4item13ImplItemConstNtNtCs9f3LFPSIp77_4core3cmp9PartialEq2neB6_, symObjAddr: 0x33EC, symBinAddr: 0x4AC64, symSize: 0x30 }
  - { offset: 0x10915E, size: 0x8, addend: 0x0, symName: __RNvYNtNtCsATtFUPiRFW_3syn4item13ImplItemMacroNtNtCs9f3LFPSIp77_4core3cmp9PartialEq2neB6_, symObjAddr: 0x35A8, symBinAddr: 0x4AE20, symSize: 0x30 }
  - { offset: 0x1091AD, size: 0x8, addend: 0x0, symName: __RNvYNtNtCsATtFUPiRFW_3syn4item13TraitItemTypeNtNtCs9f3LFPSIp77_4core3cmp9PartialEq2neB6_, symObjAddr: 0x375C, symBinAddr: 0x4AFD4, symSize: 0x30 }
  - { offset: 0x1091FC, size: 0x8, addend: 0x0, symName: __RNvYNtNtCsATtFUPiRFW_3syn4item14ItemForeignModNtNtCs9f3LFPSIp77_4core3cmp9PartialEq2neB6_, symObjAddr: 0x3918, symBinAddr: 0x4B190, symSize: 0x30 }
  - { offset: 0x10924B, size: 0x8, addend: 0x0, symName: __RNvYNtNtCsATtFUPiRFW_3syn4item14ItemTraitAliasNtNtCs9f3LFPSIp77_4core3cmp9PartialEq2neB6_, symObjAddr: 0x3ACC, symBinAddr: 0x4B344, symSize: 0x30 }
  - { offset: 0x10929A, size: 0x8, addend: 0x0, symName: __RNvYNtNtCsATtFUPiRFW_3syn4item14TraitItemConstNtNtCs9f3LFPSIp77_4core3cmp9PartialEq2neB6_, symObjAddr: 0x3C88, symBinAddr: 0x4B500, symSize: 0x30 }
  - { offset: 0x1092E9, size: 0x8, addend: 0x0, symName: __RNvYNtNtCsATtFUPiRFW_3syn4item14TraitItemMacroNtNtCs9f3LFPSIp77_4core3cmp9PartialEq2neB6_, symObjAddr: 0x3E44, symBinAddr: 0x4B6BC, symSize: 0x30 }
  - { offset: 0x109338, size: 0x8, addend: 0x0, symName: __RNvYNtNtCsATtFUPiRFW_3syn4item15ForeignItemTypeNtNtCs9f3LFPSIp77_4core3cmp9PartialEq2neB6_, symObjAddr: 0x3FF8, symBinAddr: 0x4B870, symSize: 0x30 }
  - { offset: 0x109387, size: 0x8, addend: 0x0, symName: __RNvYNtNtCsATtFUPiRFW_3syn4item15ImplRestrictionNtNtCs9f3LFPSIp77_4core3cmp9PartialEq2neB6_, symObjAddr: 0x40BC, symBinAddr: 0x4B934, symSize: 0x30 }
  - { offset: 0x1093D6, size: 0x8, addend: 0x0, symName: __RNvYNtNtCsATtFUPiRFW_3syn4item15ItemExternCrateNtNtCs9f3LFPSIp77_4core3cmp9PartialEq2neB6_, symObjAddr: 0x4220, symBinAddr: 0x4BA98, symSize: 0x30 }
  - { offset: 0x109425, size: 0x8, addend: 0x0, symName: __RNvYNtNtCsATtFUPiRFW_3syn4item16ForeignItemMacroNtNtCs9f3LFPSIp77_4core3cmp9PartialEq2neB6_, symObjAddr: 0x43D4, symBinAddr: 0x4BC4C, symSize: 0x30 }
  - { offset: 0x109474, size: 0x8, addend: 0x0, symName: __RNvYNtNtCsATtFUPiRFW_3syn4item16StaticMutabilityNtNtCs9f3LFPSIp77_4core3cmp9PartialEq2neB6_, symObjAddr: 0x457C, symBinAddr: 0x4BDF4, symSize: 0x30 }
  - { offset: 0x1094C3, size: 0x8, addend: 0x0, symName: __RNvYNtNtCsATtFUPiRFW_3syn4item17ForeignItemStaticNtNtCs9f3LFPSIp77_4core3cmp9PartialEq2neB6_, symObjAddr: 0x4700, symBinAddr: 0x4BF78, symSize: 0x30 }
  - { offset: 0x109512, size: 0x8, addend: 0x0, symName: __RNvYNtNtCsATtFUPiRFW_3syn4item4ItemNtNtCs9f3LFPSIp77_4core3cmp9PartialEq2neB6_, symObjAddr: 0x48B4, symBinAddr: 0x4C12C, symSize: 0x30 }
  - { offset: 0x109561, size: 0x8, addend: 0x0, symName: __RNvYNtNtCsATtFUPiRFW_3syn4item5FnArgNtNtCs9f3LFPSIp77_4core3cmp9PartialEq2neB6_, symObjAddr: 0x4A70, symBinAddr: 0x4C2E8, symSize: 0x30 }
  - { offset: 0x1095B0, size: 0x8, addend: 0x0, symName: __RNvYNtNtCsATtFUPiRFW_3syn4item6ItemFnNtNtCs9f3LFPSIp77_4core3cmp9PartialEq2neB6_, symObjAddr: 0x4C24, symBinAddr: 0x4C49C, symSize: 0x30 }
  - { offset: 0x1095FF, size: 0x8, addend: 0x0, symName: __RNvYNtNtCsATtFUPiRFW_3syn4item7ItemModNtNtCs9f3LFPSIp77_4core3cmp9PartialEq2neB6_, symObjAddr: 0x4DE0, symBinAddr: 0x4C658, symSize: 0x30 }
  - { offset: 0x10964E, size: 0x8, addend: 0x0, symName: __RNvYNtNtCsATtFUPiRFW_3syn4item7ItemUseNtNtCs9f3LFPSIp77_4core3cmp9PartialEq2neB6_, symObjAddr: 0x4F94, symBinAddr: 0x4C80C, symSize: 0x30 }
  - { offset: 0x10969D, size: 0x8, addend: 0x0, symName: __RNvYNtNtCsATtFUPiRFW_3syn4item7UseGlobNtNtCs9f3LFPSIp77_4core3cmp9PartialEq2neB6_, symObjAddr: 0x513C, symBinAddr: 0x4C9B4, symSize: 0x30 }
  - { offset: 0x1096EC, size: 0x8, addend: 0x0, symName: __RNvYNtNtCsATtFUPiRFW_3syn4item7UseNameNtNtCs9f3LFPSIp77_4core3cmp9PartialEq2neB6_, symObjAddr: 0x52BC, symBinAddr: 0x4CB34, symSize: 0x30 }
  - { offset: 0x10973B, size: 0x8, addend: 0x0, symName: __RNvYNtNtCsATtFUPiRFW_3syn4item7UsePathNtNtCs9f3LFPSIp77_4core3cmp9PartialEq2neB6_, symObjAddr: 0x5470, symBinAddr: 0x4CCE8, symSize: 0x30 }
  - { offset: 0x10978A, size: 0x8, addend: 0x0, symName: __RNvYNtNtCsATtFUPiRFW_3syn4item7UseTreeNtNtCs9f3LFPSIp77_4core3cmp9PartialEq2neB6_, symObjAddr: 0x5624, symBinAddr: 0x4CE9C, symSize: 0x30 }
  - { offset: 0x1097D9, size: 0x8, addend: 0x0, symName: __RNvYNtNtCsATtFUPiRFW_3syn4item8ImplItemNtNtCs9f3LFPSIp77_4core3cmp9PartialEq2neB6_, symObjAddr: 0x57D8, symBinAddr: 0x4D050, symSize: 0x30 }
  - { offset: 0x109828, size: 0x8, addend: 0x0, symName: __RNvYNtNtCsATtFUPiRFW_3syn4item8ItemEnumNtNtCs9f3LFPSIp77_4core3cmp9PartialEq2neB6_, symObjAddr: 0x5994, symBinAddr: 0x4D20C, symSize: 0x30 }
  - { offset: 0x109877, size: 0x8, addend: 0x0, symName: __RNvYNtNtCsATtFUPiRFW_3syn4item8ItemImplNtNtCs9f3LFPSIp77_4core3cmp9PartialEq2neB6_, symObjAddr: 0x5B50, symBinAddr: 0x4D3C8, symSize: 0x30 }
  - { offset: 0x1098C6, size: 0x8, addend: 0x0, symName: __RNvYNtNtCsATtFUPiRFW_3syn4item8ItemTypeNtNtCs9f3LFPSIp77_4core3cmp9PartialEq2neB6_, symObjAddr: 0x5D0C, symBinAddr: 0x4D584, symSize: 0x30 }
  - { offset: 0x109915, size: 0x8, addend: 0x0, symName: __RNvYNtNtCsATtFUPiRFW_3syn4item8ReceiverNtNtCs9f3LFPSIp77_4core3cmp9PartialEq2neB6_, symObjAddr: 0x5EC8, symBinAddr: 0x4D740, symSize: 0x30 }
  - { offset: 0x109964, size: 0x8, addend: 0x0, symName: __RNvYNtNtCsATtFUPiRFW_3syn4item8UseGroupNtNtCs9f3LFPSIp77_4core3cmp9PartialEq2neB6_, symObjAddr: 0x607C, symBinAddr: 0x4D8F4, symSize: 0x30 }
  - { offset: 0x1099B3, size: 0x8, addend: 0x0, symName: __RNvYNtNtCsATtFUPiRFW_3syn4item8VariadicNtNtCs9f3LFPSIp77_4core3cmp9PartialEq2neB6_, symObjAddr: 0x6230, symBinAddr: 0x4DAA8, symSize: 0x30 }
  - { offset: 0x109A02, size: 0x8, addend: 0x0, symName: __RNvYNtNtCsATtFUPiRFW_3syn4item9ItemConstNtNtCs9f3LFPSIp77_4core3cmp9PartialEq2neB6_, symObjAddr: 0x63E4, symBinAddr: 0x4DC5C, symSize: 0x30 }
  - { offset: 0x109A51, size: 0x8, addend: 0x0, symName: __RNvYNtNtCsATtFUPiRFW_3syn4item9ItemMacroNtNtCs9f3LFPSIp77_4core3cmp9PartialEq2neB6_, symObjAddr: 0x65A0, symBinAddr: 0x4DE18, symSize: 0x30 }
  - { offset: 0x109AA0, size: 0x8, addend: 0x0, symName: __RNvYNtNtCsATtFUPiRFW_3syn4item9ItemTraitNtNtCs9f3LFPSIp77_4core3cmp9PartialEq2neB6_, symObjAddr: 0x6754, symBinAddr: 0x4DFCC, symSize: 0x30 }
  - { offset: 0x109AEF, size: 0x8, addend: 0x0, symName: __RNvYNtNtCsATtFUPiRFW_3syn4item9ItemUnionNtNtCs9f3LFPSIp77_4core3cmp9PartialEq2neB6_, symObjAddr: 0x6910, symBinAddr: 0x4E188, symSize: 0x30 }
  - { offset: 0x109B3E, size: 0x8, addend: 0x0, symName: __RNvYNtNtCsATtFUPiRFW_3syn4item9SignatureNtNtCs9f3LFPSIp77_4core3cmp9PartialEq2neB6_, symObjAddr: 0x6ACC, symBinAddr: 0x4E344, symSize: 0x30 }
  - { offset: 0x109B8D, size: 0x8, addend: 0x0, symName: __RNvYNtNtCsATtFUPiRFW_3syn4item9TraitItemNtNtCs9f3LFPSIp77_4core3cmp9PartialEq2neB6_, symObjAddr: 0x6C88, symBinAddr: 0x4E500, symSize: 0x30 }
  - { offset: 0x109BDC, size: 0x8, addend: 0x0, symName: __RNvYNtNtCsATtFUPiRFW_3syn4item9UseRenameNtNtCs9f3LFPSIp77_4core3cmp9PartialEq2neB6_, symObjAddr: 0x6E44, symBinAddr: 0x4E6BC, symSize: 0x30 }
  - { offset: 0x109C37, size: 0x8, addend: 0x0, symName: __RNvXs8_NtCs9f3LFPSIp77_4core5tupleTNtNtCsATtFUPiRFW_3syn4item5FnArgNtNtBB_5token5CommaENtNtB7_3cmp9PartialEq2neBB_, symObjAddr: 0x22A8, symBinAddr: 0x49B20, symSize: 0x64 }
  - { offset: 0x109C83, size: 0x8, addend: 0x0, symName: __RNvXs8_NtCs9f3LFPSIp77_4core5tupleTNtNtCsATtFUPiRFW_3syn4item7UseTreeNtNtBB_5token5CommaENtNtB7_3cmp9PartialEq2neBB_, symObjAddr: 0x230C, symBinAddr: 0x49B84, symSize: 0x64 }
  - { offset: 0x10C520, size: 0x8, addend: 0x0, symName: __RNvXNtCs62MdaZFMefA_5quote9to_tokensRNtNtCsATtFUPiRFW_3syn4item11ForeignItemNtB2_8ToTokens9to_tokensBD_, symObjAddr: 0x10C8, symBinAddr: 0x48940, symSize: 0x40 }
  - { offset: 0x10C55F, size: 0x8, addend: 0x0, symName: __RNvXNtCs62MdaZFMefA_5quote9to_tokensRNtNtCsATtFUPiRFW_3syn4item4ItemNtB2_8ToTokens9to_tokensBD_, symObjAddr: 0x1108, symBinAddr: 0x48980, symSize: 0x40 }
  - { offset: 0x10C59E, size: 0x8, addend: 0x0, symName: __RNvXNtCs62MdaZFMefA_5quote9to_tokensRNtNtCsATtFUPiRFW_3syn4item5FnArgNtB2_8ToTokens9to_tokensBD_, symObjAddr: 0x1148, symBinAddr: 0x489C0, symSize: 0x40 }
  - { offset: 0x10C5DD, size: 0x8, addend: 0x0, symName: __RNvXNtCs62MdaZFMefA_5quote9to_tokensRNtNtCsATtFUPiRFW_3syn4item7UseTreeNtB2_8ToTokens9to_tokensBD_, symObjAddr: 0x1188, symBinAddr: 0x48A00, symSize: 0x40 }
  - { offset: 0x10C61C, size: 0x8, addend: 0x0, symName: __RNvXNtCs62MdaZFMefA_5quote9to_tokensRNtNtCsATtFUPiRFW_3syn4item8ImplItemNtB2_8ToTokens9to_tokensBD_, symObjAddr: 0x11C8, symBinAddr: 0x48A40, symSize: 0x40 }
  - { offset: 0x10C65B, size: 0x8, addend: 0x0, symName: __RNvXNtCs62MdaZFMefA_5quote9to_tokensRNtNtCsATtFUPiRFW_3syn4item9TraitItemNtB2_8ToTokens9to_tokensBD_, symObjAddr: 0x1208, symBinAddr: 0x48A80, symSize: 0x40 }
  - { offset: 0x10C6A0, size: 0x8, addend: 0x0, symName: __RNvYNtNtCsATtFUPiRFW_3syn4item10ImplItemFnNtNtCs62MdaZFMefA_5quote9to_tokens8ToTokens15to_token_streamB6_, symObjAddr: 0x26D0, symBinAddr: 0x49F48, symSize: 0x8C }
  - { offset: 0x10C6EA, size: 0x8, addend: 0x0, symName: __RNvYNtNtCsATtFUPiRFW_3syn4item10ImplItemFnNtNtCs62MdaZFMefA_5quote9to_tokens8ToTokens17into_token_streamB6_, symObjAddr: 0x275C, symBinAddr: 0x49FD4, symSize: 0x64 }
  - { offset: 0x10C720, size: 0x8, addend: 0x0, symName: __RNvYNtNtCsATtFUPiRFW_3syn4item10ItemStaticNtNtCs62MdaZFMefA_5quote9to_tokens8ToTokens15to_token_streamB6_, symObjAddr: 0x288C, symBinAddr: 0x4A104, symSize: 0x8C }
  - { offset: 0x10C76A, size: 0x8, addend: 0x0, symName: __RNvYNtNtCsATtFUPiRFW_3syn4item10ItemStaticNtNtCs62MdaZFMefA_5quote9to_tokens8ToTokens17into_token_streamB6_, symObjAddr: 0x2918, symBinAddr: 0x4A190, symSize: 0x64 }
  - { offset: 0x10C7A0, size: 0x8, addend: 0x0, symName: __RNvYNtNtCsATtFUPiRFW_3syn4item10ItemStructNtNtCs62MdaZFMefA_5quote9to_tokens8ToTokens15to_token_streamB6_, symObjAddr: 0x2A40, symBinAddr: 0x4A2B8, symSize: 0x8C }
  - { offset: 0x10C7EA, size: 0x8, addend: 0x0, symName: __RNvYNtNtCsATtFUPiRFW_3syn4item10ItemStructNtNtCs62MdaZFMefA_5quote9to_tokens8ToTokens17into_token_streamB6_, symObjAddr: 0x2ACC, symBinAddr: 0x4A344, symSize: 0x64 }
  - { offset: 0x10C820, size: 0x8, addend: 0x0, symName: __RNvYNtNtCsATtFUPiRFW_3syn4item11ForeignItemNtNtCs62MdaZFMefA_5quote9to_tokens8ToTokens15to_token_streamB6_, symObjAddr: 0x2BFC, symBinAddr: 0x4A474, symSize: 0x8C }
  - { offset: 0x10C86A, size: 0x8, addend: 0x0, symName: __RNvYNtNtCsATtFUPiRFW_3syn4item11ForeignItemNtNtCs62MdaZFMefA_5quote9to_tokens8ToTokens17into_token_streamB6_, symObjAddr: 0x2C88, symBinAddr: 0x4A500, symSize: 0x64 }
  - { offset: 0x10C8A0, size: 0x8, addend: 0x0, symName: __RNvYNtNtCsATtFUPiRFW_3syn4item11TraitItemFnNtNtCs62MdaZFMefA_5quote9to_tokens8ToTokens15to_token_streamB6_, symObjAddr: 0x2DB8, symBinAddr: 0x4A630, symSize: 0x8C }
  - { offset: 0x10C8EA, size: 0x8, addend: 0x0, symName: __RNvYNtNtCsATtFUPiRFW_3syn4item11TraitItemFnNtNtCs62MdaZFMefA_5quote9to_tokens8ToTokens17into_token_streamB6_, symObjAddr: 0x2E44, symBinAddr: 0x4A6BC, symSize: 0x64 }
  - { offset: 0x10C920, size: 0x8, addend: 0x0, symName: __RNvYNtNtCsATtFUPiRFW_3syn4item12ImplItemTypeNtNtCs62MdaZFMefA_5quote9to_tokens8ToTokens15to_token_streamB6_, symObjAddr: 0x2F74, symBinAddr: 0x4A7EC, symSize: 0x8C }
  - { offset: 0x10C96A, size: 0x8, addend: 0x0, symName: __RNvYNtNtCsATtFUPiRFW_3syn4item12ImplItemTypeNtNtCs62MdaZFMefA_5quote9to_tokens8ToTokens17into_token_streamB6_, symObjAddr: 0x3000, symBinAddr: 0x4A878, symSize: 0x64 }
  - { offset: 0x10C9A0, size: 0x8, addend: 0x0, symName: __RNvYNtNtCsATtFUPiRFW_3syn4item13ForeignItemFnNtNtCs62MdaZFMefA_5quote9to_tokens8ToTokens15to_token_streamB6_, symObjAddr: 0x3130, symBinAddr: 0x4A9A8, symSize: 0x8C }
  - { offset: 0x10C9EA, size: 0x8, addend: 0x0, symName: __RNvYNtNtCsATtFUPiRFW_3syn4item13ForeignItemFnNtNtCs62MdaZFMefA_5quote9to_tokens8ToTokens17into_token_streamB6_, symObjAddr: 0x31BC, symBinAddr: 0x4AA34, symSize: 0x64 }
  - { offset: 0x10CA20, size: 0x8, addend: 0x0, symName: __RNvYNtNtCsATtFUPiRFW_3syn4item13ImplItemConstNtNtCs62MdaZFMefA_5quote9to_tokens8ToTokens15to_token_streamB6_, symObjAddr: 0x32EC, symBinAddr: 0x4AB64, symSize: 0x8C }
  - { offset: 0x10CA6A, size: 0x8, addend: 0x0, symName: __RNvYNtNtCsATtFUPiRFW_3syn4item13ImplItemConstNtNtCs62MdaZFMefA_5quote9to_tokens8ToTokens17into_token_streamB6_, symObjAddr: 0x3378, symBinAddr: 0x4ABF0, symSize: 0x64 }
  - { offset: 0x10CAA0, size: 0x8, addend: 0x0, symName: __RNvYNtNtCsATtFUPiRFW_3syn4item13ImplItemMacroNtNtCs62MdaZFMefA_5quote9to_tokens8ToTokens15to_token_streamB6_, symObjAddr: 0x34A8, symBinAddr: 0x4AD20, symSize: 0x8C }
  - { offset: 0x10CAEA, size: 0x8, addend: 0x0, symName: __RNvYNtNtCsATtFUPiRFW_3syn4item13ImplItemMacroNtNtCs62MdaZFMefA_5quote9to_tokens8ToTokens17into_token_streamB6_, symObjAddr: 0x3534, symBinAddr: 0x4ADAC, symSize: 0x64 }
  - { offset: 0x10CB20, size: 0x8, addend: 0x0, symName: __RNvYNtNtCsATtFUPiRFW_3syn4item13TraitItemTypeNtNtCs62MdaZFMefA_5quote9to_tokens8ToTokens15to_token_streamB6_, symObjAddr: 0x365C, symBinAddr: 0x4AED4, symSize: 0x8C }
  - { offset: 0x10CB6A, size: 0x8, addend: 0x0, symName: __RNvYNtNtCsATtFUPiRFW_3syn4item13TraitItemTypeNtNtCs62MdaZFMefA_5quote9to_tokens8ToTokens17into_token_streamB6_, symObjAddr: 0x36E8, symBinAddr: 0x4AF60, symSize: 0x64 }
  - { offset: 0x10CBA0, size: 0x8, addend: 0x0, symName: __RNvYNtNtCsATtFUPiRFW_3syn4item14ItemForeignModNtNtCs62MdaZFMefA_5quote9to_tokens8ToTokens15to_token_streamB6_, symObjAddr: 0x3818, symBinAddr: 0x4B090, symSize: 0x8C }
  - { offset: 0x10CBEA, size: 0x8, addend: 0x0, symName: __RNvYNtNtCsATtFUPiRFW_3syn4item14ItemForeignModNtNtCs62MdaZFMefA_5quote9to_tokens8ToTokens17into_token_streamB6_, symObjAddr: 0x38A4, symBinAddr: 0x4B11C, symSize: 0x64 }
  - { offset: 0x10CC20, size: 0x8, addend: 0x0, symName: __RNvYNtNtCsATtFUPiRFW_3syn4item14ItemTraitAliasNtNtCs62MdaZFMefA_5quote9to_tokens8ToTokens15to_token_streamB6_, symObjAddr: 0x39CC, symBinAddr: 0x4B244, symSize: 0x8C }
  - { offset: 0x10CC6A, size: 0x8, addend: 0x0, symName: __RNvYNtNtCsATtFUPiRFW_3syn4item14ItemTraitAliasNtNtCs62MdaZFMefA_5quote9to_tokens8ToTokens17into_token_streamB6_, symObjAddr: 0x3A58, symBinAddr: 0x4B2D0, symSize: 0x64 }
  - { offset: 0x10CCA0, size: 0x8, addend: 0x0, symName: __RNvYNtNtCsATtFUPiRFW_3syn4item14TraitItemConstNtNtCs62MdaZFMefA_5quote9to_tokens8ToTokens15to_token_streamB6_, symObjAddr: 0x3B88, symBinAddr: 0x4B400, symSize: 0x8C }
  - { offset: 0x10CCEA, size: 0x8, addend: 0x0, symName: __RNvYNtNtCsATtFUPiRFW_3syn4item14TraitItemConstNtNtCs62MdaZFMefA_5quote9to_tokens8ToTokens17into_token_streamB6_, symObjAddr: 0x3C14, symBinAddr: 0x4B48C, symSize: 0x64 }
  - { offset: 0x10CD20, size: 0x8, addend: 0x0, symName: __RNvYNtNtCsATtFUPiRFW_3syn4item14TraitItemMacroNtNtCs62MdaZFMefA_5quote9to_tokens8ToTokens15to_token_streamB6_, symObjAddr: 0x3D44, symBinAddr: 0x4B5BC, symSize: 0x8C }
  - { offset: 0x10CD6A, size: 0x8, addend: 0x0, symName: __RNvYNtNtCsATtFUPiRFW_3syn4item14TraitItemMacroNtNtCs62MdaZFMefA_5quote9to_tokens8ToTokens17into_token_streamB6_, symObjAddr: 0x3DD0, symBinAddr: 0x4B648, symSize: 0x64 }
  - { offset: 0x10CDA0, size: 0x8, addend: 0x0, symName: __RNvYNtNtCsATtFUPiRFW_3syn4item15ForeignItemTypeNtNtCs62MdaZFMefA_5quote9to_tokens8ToTokens15to_token_streamB6_, symObjAddr: 0x3EF8, symBinAddr: 0x4B770, symSize: 0x8C }
  - { offset: 0x10CDEA, size: 0x8, addend: 0x0, symName: __RNvYNtNtCsATtFUPiRFW_3syn4item15ForeignItemTypeNtNtCs62MdaZFMefA_5quote9to_tokens8ToTokens17into_token_streamB6_, symObjAddr: 0x3F84, symBinAddr: 0x4B7FC, symSize: 0x64 }
  - { offset: 0x10CE20, size: 0x8, addend: 0x0, symName: __RNvYNtNtCsATtFUPiRFW_3syn4item15ItemExternCrateNtNtCs62MdaZFMefA_5quote9to_tokens8ToTokens15to_token_streamB6_, symObjAddr: 0x4120, symBinAddr: 0x4B998, symSize: 0x8C }
  - { offset: 0x10CE6A, size: 0x8, addend: 0x0, symName: __RNvYNtNtCsATtFUPiRFW_3syn4item15ItemExternCrateNtNtCs62MdaZFMefA_5quote9to_tokens8ToTokens17into_token_streamB6_, symObjAddr: 0x41AC, symBinAddr: 0x4BA24, symSize: 0x64 }
  - { offset: 0x10CEA0, size: 0x8, addend: 0x0, symName: __RNvYNtNtCsATtFUPiRFW_3syn4item16ForeignItemMacroNtNtCs62MdaZFMefA_5quote9to_tokens8ToTokens15to_token_streamB6_, symObjAddr: 0x42D4, symBinAddr: 0x4BB4C, symSize: 0x8C }
  - { offset: 0x10CEEA, size: 0x8, addend: 0x0, symName: __RNvYNtNtCsATtFUPiRFW_3syn4item16ForeignItemMacroNtNtCs62MdaZFMefA_5quote9to_tokens8ToTokens17into_token_streamB6_, symObjAddr: 0x4360, symBinAddr: 0x4BBD8, symSize: 0x64 }
  - { offset: 0x10CF20, size: 0x8, addend: 0x0, symName: __RNvYNtNtCsATtFUPiRFW_3syn4item16StaticMutabilityNtNtCs62MdaZFMefA_5quote9to_tokens8ToTokens15to_token_streamB6_, symObjAddr: 0x4488, symBinAddr: 0x4BD00, symSize: 0x8C }
  - { offset: 0x10CF6A, size: 0x8, addend: 0x0, symName: __RNvYNtNtCsATtFUPiRFW_3syn4item16StaticMutabilityNtNtCs62MdaZFMefA_5quote9to_tokens8ToTokens17into_token_streamB6_, symObjAddr: 0x4514, symBinAddr: 0x4BD8C, symSize: 0x58 }
  - { offset: 0x10CF9F, size: 0x8, addend: 0x0, symName: __RNvYNtNtCsATtFUPiRFW_3syn4item17ForeignItemStaticNtNtCs62MdaZFMefA_5quote9to_tokens8ToTokens15to_token_streamB6_, symObjAddr: 0x4600, symBinAddr: 0x4BE78, symSize: 0x8C }
  - { offset: 0x10CFE9, size: 0x8, addend: 0x0, symName: __RNvYNtNtCsATtFUPiRFW_3syn4item17ForeignItemStaticNtNtCs62MdaZFMefA_5quote9to_tokens8ToTokens17into_token_streamB6_, symObjAddr: 0x468C, symBinAddr: 0x4BF04, symSize: 0x64 }
  - { offset: 0x10D01F, size: 0x8, addend: 0x0, symName: __RNvYNtNtCsATtFUPiRFW_3syn4item4ItemNtNtCs62MdaZFMefA_5quote9to_tokens8ToTokens15to_token_streamB6_, symObjAddr: 0x47B4, symBinAddr: 0x4C02C, symSize: 0x8C }
  - { offset: 0x10D069, size: 0x8, addend: 0x0, symName: __RNvYNtNtCsATtFUPiRFW_3syn4item4ItemNtNtCs62MdaZFMefA_5quote9to_tokens8ToTokens17into_token_streamB6_, symObjAddr: 0x4840, symBinAddr: 0x4C0B8, symSize: 0x64 }
  - { offset: 0x10D09F, size: 0x8, addend: 0x0, symName: __RNvYNtNtCsATtFUPiRFW_3syn4item5FnArgNtNtCs62MdaZFMefA_5quote9to_tokens8ToTokens15to_token_streamB6_, symObjAddr: 0x4970, symBinAddr: 0x4C1E8, symSize: 0x8C }
  - { offset: 0x10D0E9, size: 0x8, addend: 0x0, symName: __RNvYNtNtCsATtFUPiRFW_3syn4item5FnArgNtNtCs62MdaZFMefA_5quote9to_tokens8ToTokens17into_token_streamB6_, symObjAddr: 0x49FC, symBinAddr: 0x4C274, symSize: 0x64 }
  - { offset: 0x10D11F, size: 0x8, addend: 0x0, symName: __RNvYNtNtCsATtFUPiRFW_3syn4item6ItemFnNtNtCs62MdaZFMefA_5quote9to_tokens8ToTokens15to_token_streamB6_, symObjAddr: 0x4B24, symBinAddr: 0x4C39C, symSize: 0x8C }
  - { offset: 0x10D169, size: 0x8, addend: 0x0, symName: __RNvYNtNtCsATtFUPiRFW_3syn4item6ItemFnNtNtCs62MdaZFMefA_5quote9to_tokens8ToTokens17into_token_streamB6_, symObjAddr: 0x4BB0, symBinAddr: 0x4C428, symSize: 0x64 }
  - { offset: 0x10D19F, size: 0x8, addend: 0x0, symName: __RNvYNtNtCsATtFUPiRFW_3syn4item7ItemModNtNtCs62MdaZFMefA_5quote9to_tokens8ToTokens15to_token_streamB6_, symObjAddr: 0x4CE0, symBinAddr: 0x4C558, symSize: 0x8C }
  - { offset: 0x10D1E9, size: 0x8, addend: 0x0, symName: __RNvYNtNtCsATtFUPiRFW_3syn4item7ItemModNtNtCs62MdaZFMefA_5quote9to_tokens8ToTokens17into_token_streamB6_, symObjAddr: 0x4D6C, symBinAddr: 0x4C5E4, symSize: 0x64 }
  - { offset: 0x10D21F, size: 0x8, addend: 0x0, symName: __RNvYNtNtCsATtFUPiRFW_3syn4item7ItemUseNtNtCs62MdaZFMefA_5quote9to_tokens8ToTokens15to_token_streamB6_, symObjAddr: 0x4E94, symBinAddr: 0x4C70C, symSize: 0x8C }
  - { offset: 0x10D269, size: 0x8, addend: 0x0, symName: __RNvYNtNtCsATtFUPiRFW_3syn4item7ItemUseNtNtCs62MdaZFMefA_5quote9to_tokens8ToTokens17into_token_streamB6_, symObjAddr: 0x4F20, symBinAddr: 0x4C798, symSize: 0x64 }
  - { offset: 0x10D29F, size: 0x8, addend: 0x0, symName: __RNvYNtNtCsATtFUPiRFW_3syn4item7UseGlobNtNtCs62MdaZFMefA_5quote9to_tokens8ToTokens15to_token_streamB6_, symObjAddr: 0x5048, symBinAddr: 0x4C8C0, symSize: 0x8C }
  - { offset: 0x10D2E9, size: 0x8, addend: 0x0, symName: __RNvYNtNtCsATtFUPiRFW_3syn4item7UseGlobNtNtCs62MdaZFMefA_5quote9to_tokens8ToTokens17into_token_streamB6_, symObjAddr: 0x50D4, symBinAddr: 0x4C94C, symSize: 0x58 }
  - { offset: 0x10D31E, size: 0x8, addend: 0x0, symName: __RNvYNtNtCsATtFUPiRFW_3syn4item7UseNameNtNtCs62MdaZFMefA_5quote9to_tokens8ToTokens15to_token_streamB6_, symObjAddr: 0x51BC, symBinAddr: 0x4CA34, symSize: 0x8C }
  - { offset: 0x10D368, size: 0x8, addend: 0x0, symName: __RNvYNtNtCsATtFUPiRFW_3syn4item7UseNameNtNtCs62MdaZFMefA_5quote9to_tokens8ToTokens17into_token_streamB6_, symObjAddr: 0x5248, symBinAddr: 0x4CAC0, symSize: 0x64 }
  - { offset: 0x10D39E, size: 0x8, addend: 0x0, symName: __RNvYNtNtCsATtFUPiRFW_3syn4item7UsePathNtNtCs62MdaZFMefA_5quote9to_tokens8ToTokens15to_token_streamB6_, symObjAddr: 0x5370, symBinAddr: 0x4CBE8, symSize: 0x8C }
  - { offset: 0x10D3E8, size: 0x8, addend: 0x0, symName: __RNvYNtNtCsATtFUPiRFW_3syn4item7UsePathNtNtCs62MdaZFMefA_5quote9to_tokens8ToTokens17into_token_streamB6_, symObjAddr: 0x53FC, symBinAddr: 0x4CC74, symSize: 0x64 }
  - { offset: 0x10D41E, size: 0x8, addend: 0x0, symName: __RNvYNtNtCsATtFUPiRFW_3syn4item7UseTreeNtNtCs62MdaZFMefA_5quote9to_tokens8ToTokens15to_token_streamB6_, symObjAddr: 0x5524, symBinAddr: 0x4CD9C, symSize: 0x8C }
  - { offset: 0x10D468, size: 0x8, addend: 0x0, symName: __RNvYNtNtCsATtFUPiRFW_3syn4item7UseTreeNtNtCs62MdaZFMefA_5quote9to_tokens8ToTokens17into_token_streamB6_, symObjAddr: 0x55B0, symBinAddr: 0x4CE28, symSize: 0x64 }
  - { offset: 0x10D49E, size: 0x8, addend: 0x0, symName: __RNvYNtNtCsATtFUPiRFW_3syn4item8ImplItemNtNtCs62MdaZFMefA_5quote9to_tokens8ToTokens15to_token_streamB6_, symObjAddr: 0x56D8, symBinAddr: 0x4CF50, symSize: 0x8C }
  - { offset: 0x10D4E8, size: 0x8, addend: 0x0, symName: __RNvYNtNtCsATtFUPiRFW_3syn4item8ImplItemNtNtCs62MdaZFMefA_5quote9to_tokens8ToTokens17into_token_streamB6_, symObjAddr: 0x5764, symBinAddr: 0x4CFDC, symSize: 0x64 }
  - { offset: 0x10D51E, size: 0x8, addend: 0x0, symName: __RNvYNtNtCsATtFUPiRFW_3syn4item8ItemEnumNtNtCs62MdaZFMefA_5quote9to_tokens8ToTokens15to_token_streamB6_, symObjAddr: 0x5894, symBinAddr: 0x4D10C, symSize: 0x8C }
  - { offset: 0x10D568, size: 0x8, addend: 0x0, symName: __RNvYNtNtCsATtFUPiRFW_3syn4item8ItemEnumNtNtCs62MdaZFMefA_5quote9to_tokens8ToTokens17into_token_streamB6_, symObjAddr: 0x5920, symBinAddr: 0x4D198, symSize: 0x64 }
  - { offset: 0x10D59E, size: 0x8, addend: 0x0, symName: __RNvYNtNtCsATtFUPiRFW_3syn4item8ItemImplNtNtCs62MdaZFMefA_5quote9to_tokens8ToTokens15to_token_streamB6_, symObjAddr: 0x5A50, symBinAddr: 0x4D2C8, symSize: 0x8C }
  - { offset: 0x10D5E8, size: 0x8, addend: 0x0, symName: __RNvYNtNtCsATtFUPiRFW_3syn4item8ItemImplNtNtCs62MdaZFMefA_5quote9to_tokens8ToTokens17into_token_streamB6_, symObjAddr: 0x5ADC, symBinAddr: 0x4D354, symSize: 0x64 }
  - { offset: 0x10D61E, size: 0x8, addend: 0x0, symName: __RNvYNtNtCsATtFUPiRFW_3syn4item8ItemTypeNtNtCs62MdaZFMefA_5quote9to_tokens8ToTokens15to_token_streamB6_, symObjAddr: 0x5C0C, symBinAddr: 0x4D484, symSize: 0x8C }
  - { offset: 0x10D668, size: 0x8, addend: 0x0, symName: __RNvYNtNtCsATtFUPiRFW_3syn4item8ItemTypeNtNtCs62MdaZFMefA_5quote9to_tokens8ToTokens17into_token_streamB6_, symObjAddr: 0x5C98, symBinAddr: 0x4D510, symSize: 0x64 }
  - { offset: 0x10D69E, size: 0x8, addend: 0x0, symName: __RNvYNtNtCsATtFUPiRFW_3syn4item8ReceiverNtNtCs62MdaZFMefA_5quote9to_tokens8ToTokens15to_token_streamB6_, symObjAddr: 0x5DC8, symBinAddr: 0x4D640, symSize: 0x8C }
  - { offset: 0x10D6E8, size: 0x8, addend: 0x0, symName: __RNvYNtNtCsATtFUPiRFW_3syn4item8ReceiverNtNtCs62MdaZFMefA_5quote9to_tokens8ToTokens17into_token_streamB6_, symObjAddr: 0x5E54, symBinAddr: 0x4D6CC, symSize: 0x64 }
  - { offset: 0x10D71E, size: 0x8, addend: 0x0, symName: __RNvYNtNtCsATtFUPiRFW_3syn4item8UseGroupNtNtCs62MdaZFMefA_5quote9to_tokens8ToTokens15to_token_streamB6_, symObjAddr: 0x5F7C, symBinAddr: 0x4D7F4, symSize: 0x8C }
  - { offset: 0x10D768, size: 0x8, addend: 0x0, symName: __RNvYNtNtCsATtFUPiRFW_3syn4item8UseGroupNtNtCs62MdaZFMefA_5quote9to_tokens8ToTokens17into_token_streamB6_, symObjAddr: 0x6008, symBinAddr: 0x4D880, symSize: 0x64 }
  - { offset: 0x10D79E, size: 0x8, addend: 0x0, symName: __RNvYNtNtCsATtFUPiRFW_3syn4item8VariadicNtNtCs62MdaZFMefA_5quote9to_tokens8ToTokens15to_token_streamB6_, symObjAddr: 0x6130, symBinAddr: 0x4D9A8, symSize: 0x8C }
  - { offset: 0x10D7E8, size: 0x8, addend: 0x0, symName: __RNvYNtNtCsATtFUPiRFW_3syn4item8VariadicNtNtCs62MdaZFMefA_5quote9to_tokens8ToTokens17into_token_streamB6_, symObjAddr: 0x61BC, symBinAddr: 0x4DA34, symSize: 0x64 }
  - { offset: 0x10D81E, size: 0x8, addend: 0x0, symName: __RNvYNtNtCsATtFUPiRFW_3syn4item9ItemConstNtNtCs62MdaZFMefA_5quote9to_tokens8ToTokens15to_token_streamB6_, symObjAddr: 0x62E4, symBinAddr: 0x4DB5C, symSize: 0x8C }
  - { offset: 0x10D868, size: 0x8, addend: 0x0, symName: __RNvYNtNtCsATtFUPiRFW_3syn4item9ItemConstNtNtCs62MdaZFMefA_5quote9to_tokens8ToTokens17into_token_streamB6_, symObjAddr: 0x6370, symBinAddr: 0x4DBE8, symSize: 0x64 }
  - { offset: 0x10D89E, size: 0x8, addend: 0x0, symName: __RNvYNtNtCsATtFUPiRFW_3syn4item9ItemMacroNtNtCs62MdaZFMefA_5quote9to_tokens8ToTokens15to_token_streamB6_, symObjAddr: 0x64A0, symBinAddr: 0x4DD18, symSize: 0x8C }
  - { offset: 0x10D8E8, size: 0x8, addend: 0x0, symName: __RNvYNtNtCsATtFUPiRFW_3syn4item9ItemMacroNtNtCs62MdaZFMefA_5quote9to_tokens8ToTokens17into_token_streamB6_, symObjAddr: 0x652C, symBinAddr: 0x4DDA4, symSize: 0x64 }
  - { offset: 0x10D91E, size: 0x8, addend: 0x0, symName: __RNvYNtNtCsATtFUPiRFW_3syn4item9ItemTraitNtNtCs62MdaZFMefA_5quote9to_tokens8ToTokens15to_token_streamB6_, symObjAddr: 0x6654, symBinAddr: 0x4DECC, symSize: 0x8C }
  - { offset: 0x10D968, size: 0x8, addend: 0x0, symName: __RNvYNtNtCsATtFUPiRFW_3syn4item9ItemTraitNtNtCs62MdaZFMefA_5quote9to_tokens8ToTokens17into_token_streamB6_, symObjAddr: 0x66E0, symBinAddr: 0x4DF58, symSize: 0x64 }
  - { offset: 0x10D99E, size: 0x8, addend: 0x0, symName: __RNvYNtNtCsATtFUPiRFW_3syn4item9ItemUnionNtNtCs62MdaZFMefA_5quote9to_tokens8ToTokens15to_token_streamB6_, symObjAddr: 0x6810, symBinAddr: 0x4E088, symSize: 0x8C }
  - { offset: 0x10D9E8, size: 0x8, addend: 0x0, symName: __RNvYNtNtCsATtFUPiRFW_3syn4item9ItemUnionNtNtCs62MdaZFMefA_5quote9to_tokens8ToTokens17into_token_streamB6_, symObjAddr: 0x689C, symBinAddr: 0x4E114, symSize: 0x64 }
  - { offset: 0x10DA1E, size: 0x8, addend: 0x0, symName: __RNvYNtNtCsATtFUPiRFW_3syn4item9SignatureNtNtCs62MdaZFMefA_5quote9to_tokens8ToTokens15to_token_streamB6_, symObjAddr: 0x69CC, symBinAddr: 0x4E244, symSize: 0x8C }
  - { offset: 0x10DA68, size: 0x8, addend: 0x0, symName: __RNvYNtNtCsATtFUPiRFW_3syn4item9SignatureNtNtCs62MdaZFMefA_5quote9to_tokens8ToTokens17into_token_streamB6_, symObjAddr: 0x6A58, symBinAddr: 0x4E2D0, symSize: 0x64 }
  - { offset: 0x10DA9E, size: 0x8, addend: 0x0, symName: __RNvYNtNtCsATtFUPiRFW_3syn4item9TraitItemNtNtCs62MdaZFMefA_5quote9to_tokens8ToTokens15to_token_streamB6_, symObjAddr: 0x6B88, symBinAddr: 0x4E400, symSize: 0x8C }
  - { offset: 0x10DAE8, size: 0x8, addend: 0x0, symName: __RNvYNtNtCsATtFUPiRFW_3syn4item9TraitItemNtNtCs62MdaZFMefA_5quote9to_tokens8ToTokens17into_token_streamB6_, symObjAddr: 0x6C14, symBinAddr: 0x4E48C, symSize: 0x64 }
  - { offset: 0x10DB1E, size: 0x8, addend: 0x0, symName: __RNvYNtNtCsATtFUPiRFW_3syn4item9UseRenameNtNtCs62MdaZFMefA_5quote9to_tokens8ToTokens15to_token_streamB6_, symObjAddr: 0x6D44, symBinAddr: 0x4E5BC, symSize: 0x8C }
  - { offset: 0x10DB68, size: 0x8, addend: 0x0, symName: __RNvYNtNtCsATtFUPiRFW_3syn4item9UseRenameNtNtCs62MdaZFMefA_5quote9to_tokens8ToTokens17into_token_streamB6_, symObjAddr: 0x6DD0, symBinAddr: 0x4E648, symSize: 0x64 }
  - { offset: 0x10DDED, size: 0x8, addend: 0x0, symName: __RNvMNtCsATtFUPiRFW_3syn4itemNtB2_4Item13replace_attrs, symObjAddr: 0x6EF8, symBinAddr: 0x4E770, symSize: 0x328 }
  - { offset: 0x10DE50, size: 0x8, addend: 0x0, symName: __RNvMs3_NtCsATtFUPiRFW_3syn4itemNtB5_9Signature8receiver, symObjAddr: 0x764C, symBinAddr: 0x4EEC4, symSize: 0xE8 }
  - { offset: 0x10DED1, size: 0x8, addend: 0x0, symName: __RNvMs4_NtCsATtFUPiRFW_3syn4itemNtB5_8Receiver8lifetime, symObjAddr: 0x7734, symBinAddr: 0x4EFAC, symSize: 0x90 }
  - { offset: 0x10DFF3, size: 0x8, addend: 0x0, symName: __RNvMs1Q_NtNtCsATtFUPiRFW_3syn3gen5debugNtNtBa_4item13ForeignItemFn5debug, symObjAddr: 0x1FC2C, symBinAddr: 0x674A4, symSize: 0x104 }
  - { offset: 0x10E05F, size: 0x8, addend: 0x0, symName: __RNvMs1S_NtNtCsATtFUPiRFW_3syn3gen5debugNtNtBa_4item16ForeignItemMacro5debug, symObjAddr: 0x1FD7C, symBinAddr: 0x675F4, symSize: 0xDC }
  - { offset: 0x10E0CB, size: 0x8, addend: 0x0, symName: __RNvMs1U_NtNtCsATtFUPiRFW_3syn3gen5debugNtNtBa_4item17ForeignItemStatic5debug, symObjAddr: 0x1FEA4, symBinAddr: 0x6771C, symSize: 0x1A4 }
  - { offset: 0x10E137, size: 0x8, addend: 0x0, symName: __RNvMs1W_NtNtCsATtFUPiRFW_3syn3gen5debugNtNtBa_4item15ForeignItemType5debug, symObjAddr: 0x20094, symBinAddr: 0x6790C, symSize: 0x154 }
  - { offset: 0x10E1A3, size: 0x8, addend: 0x0, symName: __RNvMs22_NtNtCsATtFUPiRFW_3syn3gen5debugNtNtBa_4item13ImplItemConst5debug, symObjAddr: 0x2049C, symBinAddr: 0x67D14, symSize: 0x218 }
  - { offset: 0x10E20F, size: 0x8, addend: 0x0, symName: __RNvMs24_NtNtCsATtFUPiRFW_3syn3gen5debugNtNtBa_4item10ImplItemFn5debug, symObjAddr: 0x20700, symBinAddr: 0x67F78, symSize: 0x12C }
  - { offset: 0x10E27B, size: 0x8, addend: 0x0, symName: __RNvMs26_NtNtCsATtFUPiRFW_3syn3gen5debugNtNtBa_4item13ImplItemMacro5debug, symObjAddr: 0x20878, symBinAddr: 0x680F0, symSize: 0xDC }
  - { offset: 0x10E2E7, size: 0x8, addend: 0x0, symName: __RNvMs28_NtNtCsATtFUPiRFW_3syn3gen5debugNtNtBa_4item12ImplItemType5debug, symObjAddr: 0x209A0, symBinAddr: 0x68218, symSize: 0x1CC }
  - { offset: 0x10E353, size: 0x8, addend: 0x0, symName: __RNvMs2d_NtNtCsATtFUPiRFW_3syn3gen5debugNtNtBa_4item9ItemConst5debug, symObjAddr: 0x21128, symBinAddr: 0x689A0, symSize: 0x1F4 }
  - { offset: 0x10E3BF, size: 0x8, addend: 0x0, symName: __RNvMs2f_NtNtCsATtFUPiRFW_3syn3gen5debugNtNtBa_4item8ItemEnum5debug, symObjAddr: 0x21368, symBinAddr: 0x68BE0, symSize: 0x17C }
  - { offset: 0x10E42B, size: 0x8, addend: 0x0, symName: __RNvMs2h_NtNtCsATtFUPiRFW_3syn3gen5debugNtNtBa_4item15ItemExternCrate5debug, symObjAddr: 0x21530, symBinAddr: 0x68DA8, symSize: 0x17C }
  - { offset: 0x10E497, size: 0x8, addend: 0x0, symName: __RNvMs2j_NtNtCsATtFUPiRFW_3syn3gen5debugNtNtBa_4item6ItemFn5debug, symObjAddr: 0x216F8, symBinAddr: 0x68F70, symSize: 0x104 }
  - { offset: 0x10E503, size: 0x8, addend: 0x0, symName: __RNvMs2l_NtNtCsATtFUPiRFW_3syn3gen5debugNtNtBa_4item14ItemForeignMod5debug, symObjAddr: 0x21848, symBinAddr: 0x690C0, symSize: 0x12C }
  - { offset: 0x10E56F, size: 0x8, addend: 0x0, symName: __RNvMs2n_NtNtCsATtFUPiRFW_3syn3gen5debugNtNtBa_4item8ItemImpl5debug, symObjAddr: 0x219C0, symBinAddr: 0x69238, symSize: 0x1CC }
  - { offset: 0x10E5DB, size: 0x8, addend: 0x0, symName: __RNvMs2p_NtNtCsATtFUPiRFW_3syn3gen5debugNtNtBa_4item9ItemMacro5debug, symObjAddr: 0x21BD8, symBinAddr: 0x69450, symSize: 0x104 }
  - { offset: 0x10E647, size: 0x8, addend: 0x0, symName: __RNvMs2r_NtNtCsATtFUPiRFW_3syn3gen5debugNtNtBa_4item7ItemMod5debug, symObjAddr: 0x21D28, symBinAddr: 0x695A0, symSize: 0x17C }
  - { offset: 0x10E6B3, size: 0x8, addend: 0x0, symName: __RNvMs2t_NtNtCsATtFUPiRFW_3syn3gen5debugNtNtBa_4item10ItemStatic5debug, symObjAddr: 0x21EF0, symBinAddr: 0x69768, symSize: 0x1F4 }
  - { offset: 0x10E71F, size: 0x8, addend: 0x0, symName: __RNvMs2v_NtNtCsATtFUPiRFW_3syn3gen5debugNtNtBa_4item10ItemStruct5debug, symObjAddr: 0x22130, symBinAddr: 0x699A8, symSize: 0x17C }
  - { offset: 0x10E78B, size: 0x8, addend: 0x0, symName: __RNvMs2x_NtNtCsATtFUPiRFW_3syn3gen5debugNtNtBa_4item9ItemTrait5debug, symObjAddr: 0x222F8, symBinAddr: 0x69B70, symSize: 0x234 }
  - { offset: 0x10E7F7, size: 0x8, addend: 0x0, symName: __RNvMs2z_NtNtCsATtFUPiRFW_3syn3gen5debugNtNtBa_4item14ItemTraitAlias5debug, symObjAddr: 0x22578, symBinAddr: 0x69DF0, symSize: 0x1A4 }
  - { offset: 0x10E863, size: 0x8, addend: 0x0, symName: __RNvMs2B_NtNtCsATtFUPiRFW_3syn3gen5debugNtNtBa_4item8ItemType5debug, symObjAddr: 0x22768, symBinAddr: 0x69FE0, symSize: 0x1A4 }
  - { offset: 0x10E8CF, size: 0x8, addend: 0x0, symName: __RNvMs2D_NtNtCsATtFUPiRFW_3syn3gen5debugNtNtBa_4item9ItemUnion5debug, symObjAddr: 0x22958, symBinAddr: 0x6A1D0, symSize: 0x154 }
  - { offset: 0x10E93B, size: 0x8, addend: 0x0, symName: __RNvMs2F_NtNtCsATtFUPiRFW_3syn3gen5debugNtNtBa_4item7ItemUse5debug, symObjAddr: 0x22AF8, symBinAddr: 0x6A370, symSize: 0x154 }
  - { offset: 0x10E9A7, size: 0x8, addend: 0x0, symName: __RNvMs3G_NtNtCsATtFUPiRFW_3syn3gen5debugNtNtBa_4item14TraitItemConst5debug, symObjAddr: 0x233A4, symBinAddr: 0x6AC1C, symSize: 0x1A4 }
  - { offset: 0x10EA13, size: 0x8, addend: 0x0, symName: __RNvMs3I_NtNtCsATtFUPiRFW_3syn3gen5debugNtNtBa_4item11TraitItemFn5debug, symObjAddr: 0x23594, symBinAddr: 0x6AE0C, symSize: 0x104 }
  - { offset: 0x10EA7F, size: 0x8, addend: 0x0, symName: __RNvMs3K_NtNtCsATtFUPiRFW_3syn3gen5debugNtNtBa_4item14TraitItemMacro5debug, symObjAddr: 0x236E4, symBinAddr: 0x6AF5C, symSize: 0xDC }
  - { offset: 0x10EAEB, size: 0x8, addend: 0x0, symName: __RNvMs3M_NtNtCsATtFUPiRFW_3syn3gen5debugNtNtBa_4item13TraitItemType5debug, symObjAddr: 0x2380C, symBinAddr: 0x6B084, symSize: 0x1A4 }
  - { offset: 0x10F29F, size: 0x8, addend: 0x0, symName: __RINvXNtNtCsdze8u8oDPro_5alloc5slice4hackNtNtCsATtFUPiRFW_3syn4expr3ArmNtB3_10ConvertVec6to_vecNtNtB7_5alloc6GlobalEBG_, symObjAddr: 0x0, symBinAddr: 0x6F940, symSize: 0x2C0 }
  - { offset: 0x110293, size: 0x8, addend: 0x0, symName: __RINvXNtNtCsdze8u8oDPro_5alloc5slice4hackNtNtCsATtFUPiRFW_3syn4expr3ArmNtB3_10ConvertVec6to_vecNtNtB7_5alloc6GlobalEBG_, symObjAddr: 0x0, symBinAddr: 0x6F940, symSize: 0x2C0 }
  - { offset: 0x1105E3, size: 0x8, addend: 0x0, symName: __RINvXNtNtCsdze8u8oDPro_5alloc5slice4hackTNtNtCsATtFUPiRFW_3syn4expr10FieldValueNtNtBH_5token5CommaENtB3_10ConvertVec6to_vecNtNtB7_5alloc6GlobalEBH_, symObjAddr: 0x2C0, symBinAddr: 0x6FC00, symSize: 0x2C0 }
  - { offset: 0x110933, size: 0x8, addend: 0x0, symName: __RINvXNtNtCsdze8u8oDPro_5alloc5slice4hackTNtNtCsATtFUPiRFW_3syn4expr4ExprNtNtBH_5token5CommaENtB3_10ConvertVec6to_vecNtNtB7_5alloc6GlobalEBH_, symObjAddr: 0x580, symBinAddr: 0x6FEC0, symSize: 0x2BC }
  - { offset: 0x1137FA, size: 0x8, addend: 0x0, symName: __RNvXs_NtCsATtFUPiRFW_3syn4exprNtB4_6MemberINtNtCs9f3LFPSIp77_4core7convert4FromNtCs475r2uZUTuc_11proc_macro25IdentE4from, symObjAddr: 0x72C4, symBinAddr: 0x76C04, symSize: 0x28 }
  - { offset: 0x11382E, size: 0x8, addend: 0x0, symName: __RNvXs0_NtCsATtFUPiRFW_3syn4exprNtB5_6MemberINtNtCs9f3LFPSIp77_4core7convert4FromNtB5_5IndexE4from, symObjAddr: 0x72EC, symBinAddr: 0x76C2C, symSize: 0x38 }
  - { offset: 0x113862, size: 0x8, addend: 0x0, symName: __RNvXs1_NtCsATtFUPiRFW_3syn4exprNtB5_6MemberINtNtCs9f3LFPSIp77_4core7convert4FromjE4from, symObjAddr: 0x7324, symBinAddr: 0x76C64, symSize: 0x48 }
  - { offset: 0x113896, size: 0x8, addend: 0x0, symName: __RNvXs3_NtCsATtFUPiRFW_3syn4exprNtB5_6MemberNtNtCs9f3LFPSIp77_4core3cmp9PartialEq2eq, symObjAddr: 0x736C, symBinAddr: 0x76CAC, symSize: 0x15C }
  - { offset: 0x113935, size: 0x8, addend: 0x0, symName: __RNvXs5_NtCsATtFUPiRFW_3syn4exprNtB5_6MemberNtNtCs62MdaZFMefA_5quote14ident_fragment13IdentFragment3fmt, symObjAddr: 0x74C8, symBinAddr: 0x76E08, symSize: 0xA8 }
  - { offset: 0x1139A6, size: 0x8, addend: 0x0, symName: __RNvXs5_NtCsATtFUPiRFW_3syn4exprNtB5_6MemberNtNtCs62MdaZFMefA_5quote14ident_fragment13IdentFragment4span, symObjAddr: 0x7570, symBinAddr: 0x76EB0, symSize: 0xA8 }
  - { offset: 0x113A16, size: 0x8, addend: 0x0, symName: __RNvXs7_NtCsATtFUPiRFW_3syn4exprNtB5_5IndexINtNtCs9f3LFPSIp77_4core7convert4FromjE4from, symObjAddr: 0x7684, symBinAddr: 0x76FC4, symSize: 0x84 }
  - { offset: 0x113A4A, size: 0x8, addend: 0x0, symName: __RNvXs9_NtCsATtFUPiRFW_3syn4exprNtB5_5IndexNtNtCs9f3LFPSIp77_4core3cmp9PartialEq2eq, symObjAddr: 0x7708, symBinAddr: 0x77048, symSize: 0x3C }
  - { offset: 0x113A8D, size: 0x8, addend: 0x0, symName: __RNvXsb_NtCsATtFUPiRFW_3syn4exprNtB5_5IndexNtNtCs62MdaZFMefA_5quote14ident_fragment13IdentFragment3fmt, symObjAddr: 0x7744, symBinAddr: 0x77084, symSize: 0x3C }
  - { offset: 0x113ACA, size: 0x8, addend: 0x0, symName: __RNvXsb_NtCsATtFUPiRFW_3syn4exprNtB5_5IndexNtNtCs62MdaZFMefA_5quote14ident_fragment13IdentFragment4span, symObjAddr: 0x7780, symBinAddr: 0x770C0, symSize: 0x3C }
  - { offset: 0x113B03, size: 0x8, addend: 0x0, symName: __RNvXNtNtCsATtFUPiRFW_3syn4expr7parsingNtB4_4ExprNtNtB6_5parse5Parse5parse, symObjAddr: 0x77BC, symBinAddr: 0x770FC, symSize: 0x3C }
  - { offset: 0x113B37, size: 0x8, addend: 0x0, symName: __RNvXs1_NtNtCsATtFUPiRFW_3syn4expr7parsingNtB7_9ExprMacroNtNtB9_5parse5Parse5parse, symObjAddr: 0x77F8, symBinAddr: 0x77138, symSize: 0x16C }
  - { offset: 0x113B8A, size: 0x8, addend: 0x0, symName: __RNvXs2_NtNtCsATtFUPiRFW_3syn4expr7parsingNtB7_9ExprArrayNtNtB9_5parse5Parse5parse, symObjAddr: 0x7964, symBinAddr: 0x772A4, symSize: 0x488 }
  - { offset: 0x113CBB, size: 0x8, addend: 0x0, symName: __RNvXs3_NtNtCsATtFUPiRFW_3syn4expr7parsingNtB7_10ExprRepeatNtNtB9_5parse5Parse5parse, symObjAddr: 0x7DEC, symBinAddr: 0x7772C, symSize: 0x48C }
  - { offset: 0x113DB6, size: 0x8, addend: 0x0, symName: __RNvXs4_NtNtCsATtFUPiRFW_3syn4expr7parsingNtB7_7ExprLitNtNtB9_5parse5Parse5parse, symObjAddr: 0x8278, symBinAddr: 0x77BB8, symSize: 0x14C }
  - { offset: 0x113E09, size: 0x8, addend: 0x0, symName: __RNvXs5_NtNtCsATtFUPiRFW_3syn4expr7parsingNtB7_9ExprParenNtNtB9_5parse5Parse5parse, symObjAddr: 0x83C4, symBinAddr: 0x77D04, symSize: 0x2B4 }
  - { offset: 0x113EA6, size: 0x8, addend: 0x0, symName: __RNvXs6_NtNtCsATtFUPiRFW_3syn4expr7parsingNtB7_7ExprLetNtNtB9_5parse5Parse5parse, symObjAddr: 0x8678, symBinAddr: 0x77FB8, symSize: 0x44 }
  - { offset: 0x113EEF, size: 0x8, addend: 0x0, symName: __RNvXs7_NtNtCsATtFUPiRFW_3syn4expr7parsingNtB7_6ExprIfNtNtB9_5parse5Parse5parse, symObjAddr: 0x86BC, symBinAddr: 0x77FFC, symSize: 0x1018 }
  - { offset: 0x114164, size: 0x8, addend: 0x0, symName: __RNvXs8_NtNtCsATtFUPiRFW_3syn4expr7parsingNtB7_9ExprInferNtNtB9_5parse5Parse5parse, symObjAddr: 0x96D4, symBinAddr: 0x79014, symSize: 0x1E0 }
  - { offset: 0x1141F5, size: 0x8, addend: 0x0, symName: __RNvXs9_NtNtCsATtFUPiRFW_3syn4expr7parsingNtB7_11ExprForLoopNtNtB9_5parse5Parse5parse, symObjAddr: 0x98B4, symBinAddr: 0x791F4, symSize: 0x9B8 }
  - { offset: 0x1144C1, size: 0x8, addend: 0x0, symName: __RNvXsa_NtNtCsATtFUPiRFW_3syn4expr7parsingNtB7_8ExprLoopNtNtB9_5parse5Parse5parse, symObjAddr: 0xA26C, symBinAddr: 0x79BAC, symSize: 0x5A4 }
  - { offset: 0x114672, size: 0x8, addend: 0x0, symName: __RNvXsb_NtNtCsATtFUPiRFW_3syn4expr7parsingNtB7_9ExprMatchNtNtB9_5parse5Parse5parse, symObjAddr: 0xA810, symBinAddr: 0x7A150, symSize: 0x620 }
  - { offset: 0x114859, size: 0x8, addend: 0x0, symName: __RNvXsc_NtNtCsATtFUPiRFW_3syn4expr7parsingNtB7_9ExprUnaryNtNtB9_5parse5Parse5parse, symObjAddr: 0xAE30, symBinAddr: 0x7A770, symSize: 0x60 }
  - { offset: 0x1148C8, size: 0x8, addend: 0x0, symName: __RNvXsd_NtNtCsATtFUPiRFW_3syn4expr7parsingNtB7_11ExprClosureNtNtB9_5parse5Parse5parse, symObjAddr: 0xAE90, symBinAddr: 0x7A7D0, symSize: 0x44 }
  - { offset: 0x114911, size: 0x8, addend: 0x0, symName: __RNvXse_NtNtCsATtFUPiRFW_3syn4expr7parsingNtB7_11ExprRawAddrNtNtB9_5parse5Parse5parse, symObjAddr: 0xAED4, symBinAddr: 0x7A814, symSize: 0x40C }
  - { offset: 0x1149F7, size: 0x8, addend: 0x0, symName: __RNvXsf_NtNtCsATtFUPiRFW_3syn4expr7parsingNtB7_13ExprReferenceNtNtB9_5parse5Parse5parse, symObjAddr: 0xB2E0, symBinAddr: 0x7AC20, symSize: 0x35C }
  - { offset: 0x114ABD, size: 0x8, addend: 0x0, symName: __RNvXsg_NtNtCsATtFUPiRFW_3syn4expr7parsingNtB7_9ExprBreakNtNtB9_5parse5Parse5parse, symObjAddr: 0xB63C, symBinAddr: 0x7AF7C, symSize: 0x44 }
  - { offset: 0x114B06, size: 0x8, addend: 0x0, symName: __RNvXsh_NtNtCsATtFUPiRFW_3syn4expr7parsingNtB7_10ExprReturnNtNtB9_5parse5Parse5parse, symObjAddr: 0xB680, symBinAddr: 0x7AFC0, symSize: 0x224 }
  - { offset: 0x114B68, size: 0x8, addend: 0x0, symName: __RNvXsi_NtNtCsATtFUPiRFW_3syn4expr7parsingNtB7_12ExprTryBlockNtNtB9_5parse5Parse5parse, symObjAddr: 0xB8A4, symBinAddr: 0x7B1E4, symSize: 0x230 }
  - { offset: 0x114BDA, size: 0x8, addend: 0x0, symName: __RNvXsj_NtNtCsATtFUPiRFW_3syn4expr7parsingNtB7_9ExprYieldNtNtB9_5parse5Parse5parse, symObjAddr: 0xBAD4, symBinAddr: 0x7B414, symSize: 0x224 }
  - { offset: 0x114C3C, size: 0x8, addend: 0x0, symName: __RNvXsk_NtNtCsATtFUPiRFW_3syn4expr7parsingNtB7_9ExprAsyncNtNtB9_5parse5Parse5parse, symObjAddr: 0xBCF8, symBinAddr: 0x7B638, symSize: 0x2F4 }
  - { offset: 0x114CCD, size: 0x8, addend: 0x0, symName: __RNvXsl_NtNtCsATtFUPiRFW_3syn4expr7parsingNtB7_9ExprWhileNtNtB9_5parse5Parse5parse, symObjAddr: 0xBFEC, symBinAddr: 0x7B92C, symSize: 0x774 }
  - { offset: 0x114F01, size: 0x8, addend: 0x0, symName: __RNvXsm_NtNtCsATtFUPiRFW_3syn4expr7parsingNtB7_9ExprConstNtNtB9_5parse5Parse5parse, symObjAddr: 0xC760, symBinAddr: 0x7C0A0, symSize: 0x3C8 }
  - { offset: 0x115055, size: 0x8, addend: 0x0, symName: __RNvXsn_NtNtCsATtFUPiRFW_3syn4expr7parsingNtB7_5LabelNtNtB9_5parse5Parse5parse, symObjAddr: 0xCB28, symBinAddr: 0x7C468, symSize: 0x1E4 }
  - { offset: 0x1150E6, size: 0x8, addend: 0x0, symName: __RNvXsp_NtNtCsATtFUPiRFW_3syn4expr7parsingNtB7_12ExprContinueNtNtB9_5parse5Parse5parse, symObjAddr: 0xCD0C, symBinAddr: 0x7C64C, symSize: 0x210 }
  - { offset: 0x115158, size: 0x8, addend: 0x0, symName: __RNvXsq_NtNtCsATtFUPiRFW_3syn4expr7parsingNtB7_10FieldValueNtNtB9_5parse5Parse5parse, symObjAddr: 0xCF1C, symBinAddr: 0x7C85C, symSize: 0x56C }
  - { offset: 0x1152F5, size: 0x8, addend: 0x0, symName: __RNvXsr_NtNtCsATtFUPiRFW_3syn4expr7parsingNtB7_10ExprStructNtNtB9_5parse5Parse5parse, symObjAddr: 0xD488, symBinAddr: 0x7CDC8, symSize: 0x1C0 }
  - { offset: 0x11538D, size: 0x8, addend: 0x0, symName: __RNvXss_NtNtCsATtFUPiRFW_3syn4expr7parsingNtB7_10ExprUnsafeNtNtB9_5parse5Parse5parse, symObjAddr: 0xD648, symBinAddr: 0x7CF88, symSize: 0x3C8 }
  - { offset: 0x1154E1, size: 0x8, addend: 0x0, symName: __RNvXst_NtNtCsATtFUPiRFW_3syn4expr7parsingNtB7_9ExprBlockNtNtB9_5parse5Parse5parse, symObjAddr: 0xDA10, symBinAddr: 0x7D350, symSize: 0x510 }
  - { offset: 0x115666, size: 0x8, addend: 0x0, symName: __RNvXsu_NtNtCsATtFUPiRFW_3syn4expr7parsingNtB7_11RangeLimitsNtNtB9_5parse5Parse5parse, symObjAddr: 0xDF20, symBinAddr: 0x7D860, symSize: 0x24C }
  - { offset: 0x1156F1, size: 0x8, addend: 0x0, symName: __RNvXsw_NtNtCsATtFUPiRFW_3syn4expr7parsingNtB7_8ExprPathNtNtB9_5parse5Parse5parse, symObjAddr: 0xE4C0, symBinAddr: 0x7DE00, symSize: 0x248 }
  - { offset: 0x1157DE, size: 0x8, addend: 0x0, symName: __RNvXsx_NtNtCsATtFUPiRFW_3syn4expr7parsingNtB7_6MemberNtNtB9_5parse5Parse5parse, symObjAddr: 0xE708, symBinAddr: 0x7E048, symSize: 0x110 }
  - { offset: 0x115812, size: 0x8, addend: 0x0, symName: __RNvXsz_NtNtCsATtFUPiRFW_3syn4expr7parsingNtB7_3ArmNtNtB9_5parse5Parse5parse, symObjAddr: 0xE9E8, symBinAddr: 0x7E328, symSize: 0x91C }
  - { offset: 0x115A47, size: 0x8, addend: 0x0, symName: __RNvXsA_NtNtCsATtFUPiRFW_3syn4expr7parsingNtB7_5IndexNtNtB9_5parse5Parse5parse, symObjAddr: 0xF304, symBinAddr: 0x7EC44, symSize: 0x29C }
  - { offset: 0x115AEF, size: 0x8, addend: 0x0, symName: __RNvXsB_NtNtCsATtFUPiRFW_3syn4expr7parsingNtB7_17PointerMutabilityNtNtB9_5parse5Parse5parse, symObjAddr: 0xF5A0, symBinAddr: 0x7EEE0, symSize: 0x2DC }
  - { offset: 0x115B6F, size: 0x8, addend: 0x0, symName: __RNvXsC_NtNtCsATtFUPiRFW_3syn4expr7parsingNtB7_10ExprAssignNtNtB9_5parse5Parse5parse, symObjAddr: 0x12638, symBinAddr: 0x81F78, symSize: 0x44C }
  - { offset: 0x115C2E, size: 0x8, addend: 0x0, symName: __RNvXsD_NtNtCsATtFUPiRFW_3syn4expr7parsingNtB7_9ExprAwaitNtNtB9_5parse5Parse5parse, symObjAddr: 0x12A84, symBinAddr: 0x823C4, symSize: 0x44C }
  - { offset: 0x115CED, size: 0x8, addend: 0x0, symName: __RNvXsE_NtNtCsATtFUPiRFW_3syn4expr7parsingNtB7_10ExprBinaryNtNtB9_5parse5Parse5parse, symObjAddr: 0x12ED0, symBinAddr: 0x82810, symSize: 0x44C }
  - { offset: 0x115DAC, size: 0x8, addend: 0x0, symName: __RNvXsF_NtNtCsATtFUPiRFW_3syn4expr7parsingNtB7_8ExprCallNtNtB9_5parse5Parse5parse, symObjAddr: 0x1331C, symBinAddr: 0x82C5C, symSize: 0x44C }
  - { offset: 0x115E6B, size: 0x8, addend: 0x0, symName: __RNvXsG_NtNtCsATtFUPiRFW_3syn4expr7parsingNtB7_8ExprCastNtNtB9_5parse5Parse5parse, symObjAddr: 0x13768, symBinAddr: 0x830A8, symSize: 0x44C }
  - { offset: 0x115F2A, size: 0x8, addend: 0x0, symName: __RNvXsH_NtNtCsATtFUPiRFW_3syn4expr7parsingNtB7_9ExprFieldNtNtB9_5parse5Parse5parse, symObjAddr: 0x13BB4, symBinAddr: 0x834F4, symSize: 0x44C }
  - { offset: 0x115FE9, size: 0x8, addend: 0x0, symName: __RNvXsI_NtNtCsATtFUPiRFW_3syn4expr7parsingNtB7_9ExprIndexNtNtB9_5parse5Parse5parse, symObjAddr: 0x14000, symBinAddr: 0x83940, symSize: 0x44C }
  - { offset: 0x1160A8, size: 0x8, addend: 0x0, symName: __RNvXsJ_NtNtCsATtFUPiRFW_3syn4expr7parsingNtB7_14ExprMethodCallNtNtB9_5parse5Parse5parse, symObjAddr: 0x1444C, symBinAddr: 0x83D8C, symSize: 0x44C }
  - { offset: 0x116167, size: 0x8, addend: 0x0, symName: __RNvXsK_NtNtCsATtFUPiRFW_3syn4expr7parsingNtB7_9ExprRangeNtNtB9_5parse5Parse5parse, symObjAddr: 0x14898, symBinAddr: 0x841D8, symSize: 0x44C }
  - { offset: 0x116226, size: 0x8, addend: 0x0, symName: __RNvXsL_NtNtCsATtFUPiRFW_3syn4expr7parsingNtB7_7ExprTryNtNtB9_5parse5Parse5parse, symObjAddr: 0x14CE4, symBinAddr: 0x84624, symSize: 0x44C }
  - { offset: 0x1162E5, size: 0x8, addend: 0x0, symName: __RNvXsM_NtNtCsATtFUPiRFW_3syn4expr7parsingNtB7_9ExprTupleNtNtB9_5parse5Parse5parse, symObjAddr: 0x15130, symBinAddr: 0x84A70, symSize: 0x44C }
  - { offset: 0x1163BF, size: 0x8, addend: 0x0, symName: __RNvXNtNtCsATtFUPiRFW_3syn4expr8printingNtB4_9ExprArrayNtNtCs62MdaZFMefA_5quote9to_tokens8ToTokens9to_tokens, symObjAddr: 0xF87C, symBinAddr: 0x7F1BC, symSize: 0x58 }
  - { offset: 0x1163FE, size: 0x8, addend: 0x0, symName: __RNvXs_NtNtCsATtFUPiRFW_3syn4expr8printingNtB6_10ExprAssignNtNtCs62MdaZFMefA_5quote9to_tokens8ToTokens9to_tokens, symObjAddr: 0xF8D4, symBinAddr: 0x7F214, symSize: 0x58 }
  - { offset: 0x11643D, size: 0x8, addend: 0x0, symName: __RNvXs0_NtNtCsATtFUPiRFW_3syn4expr8printingNtB7_9ExprAsyncNtNtCs62MdaZFMefA_5quote9to_tokens8ToTokens9to_tokens, symObjAddr: 0xF92C, symBinAddr: 0x7F26C, symSize: 0x74 }
  - { offset: 0x11647C, size: 0x8, addend: 0x0, symName: __RNvXs1_NtNtCsATtFUPiRFW_3syn4expr8printingNtB7_9ExprAwaitNtNtCs62MdaZFMefA_5quote9to_tokens8ToTokens9to_tokens, symObjAddr: 0xF9A0, symBinAddr: 0x7F2E0, symSize: 0x58 }
  - { offset: 0x1164BB, size: 0x8, addend: 0x0, symName: __RNvXs2_NtNtCsATtFUPiRFW_3syn4expr8printingNtB7_10ExprBinaryNtNtCs62MdaZFMefA_5quote9to_tokens8ToTokens9to_tokens, symObjAddr: 0xF9F8, symBinAddr: 0x7F338, symSize: 0x58 }
  - { offset: 0x1164FA, size: 0x8, addend: 0x0, symName: __RNvXs3_NtNtCsATtFUPiRFW_3syn4expr8printingNtB7_9ExprBlockNtNtCs62MdaZFMefA_5quote9to_tokens8ToTokens9to_tokens, symObjAddr: 0xFA50, symBinAddr: 0x7F390, symSize: 0x68 }
  - { offset: 0x116539, size: 0x8, addend: 0x0, symName: __RNvXs4_NtNtCsATtFUPiRFW_3syn4expr8printingNtB7_9ExprBreakNtNtCs62MdaZFMefA_5quote9to_tokens8ToTokens9to_tokens, symObjAddr: 0xFAB8, symBinAddr: 0x7F3F8, symSize: 0x58 }
  - { offset: 0x116578, size: 0x8, addend: 0x0, symName: __RNvXs5_NtNtCsATtFUPiRFW_3syn4expr8printingNtB7_8ExprCallNtNtCs62MdaZFMefA_5quote9to_tokens8ToTokens9to_tokens, symObjAddr: 0xFB10, symBinAddr: 0x7F450, symSize: 0x58 }
  - { offset: 0x1165B7, size: 0x8, addend: 0x0, symName: __RNvXs6_NtNtCsATtFUPiRFW_3syn4expr8printingNtB7_8ExprCastNtNtCs62MdaZFMefA_5quote9to_tokens8ToTokens9to_tokens, symObjAddr: 0xFB68, symBinAddr: 0x7F4A8, symSize: 0x58 }
  - { offset: 0x1165F6, size: 0x8, addend: 0x0, symName: __RNvXs7_NtNtCsATtFUPiRFW_3syn4expr8printingNtB7_11ExprClosureNtNtCs62MdaZFMefA_5quote9to_tokens8ToTokens9to_tokens, symObjAddr: 0xFBC0, symBinAddr: 0x7F500, symSize: 0x58 }
  - { offset: 0x116635, size: 0x8, addend: 0x0, symName: __RNvXs8_NtNtCsATtFUPiRFW_3syn4expr8printingNtB7_9ExprConstNtNtCs62MdaZFMefA_5quote9to_tokens8ToTokens9to_tokens, symObjAddr: 0xFC18, symBinAddr: 0x7F558, symSize: 0x68 }
  - { offset: 0x116674, size: 0x8, addend: 0x0, symName: __RNvXs9_NtNtCsATtFUPiRFW_3syn4expr8printingNtB7_12ExprContinueNtNtCs62MdaZFMefA_5quote9to_tokens8ToTokens9to_tokens, symObjAddr: 0xFC80, symBinAddr: 0x7F5C0, symSize: 0x64 }
  - { offset: 0x1166B3, size: 0x8, addend: 0x0, symName: __RNvXsa_NtNtCsATtFUPiRFW_3syn4expr8printingNtB7_9ExprFieldNtNtCs62MdaZFMefA_5quote9to_tokens8ToTokens9to_tokens, symObjAddr: 0xFCE4, symBinAddr: 0x7F624, symSize: 0x58 }
  - { offset: 0x1166F2, size: 0x8, addend: 0x0, symName: __RNvXsb_NtNtCsATtFUPiRFW_3syn4expr8printingNtB7_11ExprForLoopNtNtCs62MdaZFMefA_5quote9to_tokens8ToTokens9to_tokens, symObjAddr: 0xFD3C, symBinAddr: 0x7F67C, symSize: 0xC0 }
  - { offset: 0x116731, size: 0x8, addend: 0x0, symName: __RNvXsc_NtNtCsATtFUPiRFW_3syn4expr8printingNtB7_9ExprGroupNtNtCs62MdaZFMefA_5quote9to_tokens8ToTokens9to_tokens, symObjAddr: 0xFDFC, symBinAddr: 0x7F73C, symSize: 0x58 }
  - { offset: 0x116770, size: 0x8, addend: 0x0, symName: __RNvXsd_NtNtCsATtFUPiRFW_3syn4expr8printingNtB7_6ExprIfNtNtCs62MdaZFMefA_5quote9to_tokens8ToTokens9to_tokens, symObjAddr: 0xFE54, symBinAddr: 0x7F794, symSize: 0x1DC }
  - { offset: 0x116846, size: 0x8, addend: 0x0, symName: __RNvXse_NtNtCsATtFUPiRFW_3syn4expr8printingNtB7_9ExprIndexNtNtCs62MdaZFMefA_5quote9to_tokens8ToTokens9to_tokens, symObjAddr: 0x10030, symBinAddr: 0x7F970, symSize: 0x58 }
  - { offset: 0x116885, size: 0x8, addend: 0x0, symName: __RNvXsf_NtNtCsATtFUPiRFW_3syn4expr8printingNtB7_9ExprInferNtNtCs62MdaZFMefA_5quote9to_tokens8ToTokens9to_tokens, symObjAddr: 0x10088, symBinAddr: 0x7F9C8, symSize: 0x54 }
  - { offset: 0x1168C4, size: 0x8, addend: 0x0, symName: __RNvXsg_NtNtCsATtFUPiRFW_3syn4expr8printingNtB7_7ExprLetNtNtCs62MdaZFMefA_5quote9to_tokens8ToTokens9to_tokens, symObjAddr: 0x100DC, symBinAddr: 0x7FA1C, symSize: 0x58 }
  - { offset: 0x116903, size: 0x8, addend: 0x0, symName: __RNvXsh_NtNtCsATtFUPiRFW_3syn4expr8printingNtB7_7ExprLitNtNtCs62MdaZFMefA_5quote9to_tokens8ToTokens9to_tokens, symObjAddr: 0x10134, symBinAddr: 0x7FA74, symSize: 0x54 }
  - { offset: 0x116942, size: 0x8, addend: 0x0, symName: __RNvXsi_NtNtCsATtFUPiRFW_3syn4expr8printingNtB7_8ExprLoopNtNtCs62MdaZFMefA_5quote9to_tokens8ToTokens9to_tokens, symObjAddr: 0x10188, symBinAddr: 0x7FAC8, symSize: 0x78 }
  - { offset: 0x116981, size: 0x8, addend: 0x0, symName: __RNvXsj_NtNtCsATtFUPiRFW_3syn4expr8printingNtB7_9ExprMacroNtNtCs62MdaZFMefA_5quote9to_tokens8ToTokens9to_tokens, symObjAddr: 0x10200, symBinAddr: 0x7FB40, symSize: 0x54 }
  - { offset: 0x1169C0, size: 0x8, addend: 0x0, symName: __RNvXsk_NtNtCsATtFUPiRFW_3syn4expr8printingNtB7_9ExprMatchNtNtCs62MdaZFMefA_5quote9to_tokens8ToTokens9to_tokens, symObjAddr: 0x10254, symBinAddr: 0x7FB94, symSize: 0x90 }
  - { offset: 0x1169FF, size: 0x8, addend: 0x0, symName: __RNvXsl_NtNtCsATtFUPiRFW_3syn4expr8printingNtB7_14ExprMethodCallNtNtCs62MdaZFMefA_5quote9to_tokens8ToTokens9to_tokens, symObjAddr: 0x102E4, symBinAddr: 0x7FC24, symSize: 0x58 }
  - { offset: 0x116A3E, size: 0x8, addend: 0x0, symName: __RNvXsm_NtNtCsATtFUPiRFW_3syn4expr8printingNtB7_9ExprParenNtNtCs62MdaZFMefA_5quote9to_tokens8ToTokens9to_tokens, symObjAddr: 0x1033C, symBinAddr: 0x7FC7C, symSize: 0x58 }
  - { offset: 0x116A7D, size: 0x8, addend: 0x0, symName: __RNvXsn_NtNtCsATtFUPiRFW_3syn4expr8printingNtB7_8ExprPathNtNtCs62MdaZFMefA_5quote9to_tokens8ToTokens9to_tokens, symObjAddr: 0x10394, symBinAddr: 0x7FCD4, symSize: 0x64 }
  - { offset: 0x116ABC, size: 0x8, addend: 0x0, symName: __RNvXso_NtNtCsATtFUPiRFW_3syn4expr8printingNtB7_9ExprRangeNtNtCs62MdaZFMefA_5quote9to_tokens8ToTokens9to_tokens, symObjAddr: 0x103F8, symBinAddr: 0x7FD38, symSize: 0x58 }
  - { offset: 0x116AFB, size: 0x8, addend: 0x0, symName: __RNvXsp_NtNtCsATtFUPiRFW_3syn4expr8printingNtB7_11ExprRawAddrNtNtCs62MdaZFMefA_5quote9to_tokens8ToTokens9to_tokens, symObjAddr: 0x10450, symBinAddr: 0x7FD90, symSize: 0x58 }
  - { offset: 0x116B3A, size: 0x8, addend: 0x0, symName: __RNvXsq_NtNtCsATtFUPiRFW_3syn4expr8printingNtB7_13ExprReferenceNtNtCs62MdaZFMefA_5quote9to_tokens8ToTokens9to_tokens, symObjAddr: 0x104A8, symBinAddr: 0x7FDE8, symSize: 0x58 }
  - { offset: 0x116B79, size: 0x8, addend: 0x0, symName: __RNvXsr_NtNtCsATtFUPiRFW_3syn4expr8printingNtB7_10ExprRepeatNtNtCs62MdaZFMefA_5quote9to_tokens8ToTokens9to_tokens, symObjAddr: 0x10500, symBinAddr: 0x7FE40, symSize: 0x58 }
  - { offset: 0x116BB8, size: 0x8, addend: 0x0, symName: __RNvXss_NtNtCsATtFUPiRFW_3syn4expr8printingNtB7_10ExprReturnNtNtCs62MdaZFMefA_5quote9to_tokens8ToTokens9to_tokens, symObjAddr: 0x10558, symBinAddr: 0x7FE98, symSize: 0x58 }
  - { offset: 0x116BF7, size: 0x8, addend: 0x0, symName: __RNvXst_NtNtCsATtFUPiRFW_3syn4expr8printingNtB7_10ExprStructNtNtCs62MdaZFMefA_5quote9to_tokens8ToTokens9to_tokens, symObjAddr: 0x105B0, symBinAddr: 0x7FEF0, symSize: 0x78 }
  - { offset: 0x116C36, size: 0x8, addend: 0x0, symName: __RNvXsu_NtNtCsATtFUPiRFW_3syn4expr8printingNtB7_7ExprTryNtNtCs62MdaZFMefA_5quote9to_tokens8ToTokens9to_tokens, symObjAddr: 0x10628, symBinAddr: 0x7FF68, symSize: 0x58 }
  - { offset: 0x116C75, size: 0x8, addend: 0x0, symName: __RNvXsv_NtNtCsATtFUPiRFW_3syn4expr8printingNtB7_12ExprTryBlockNtNtCs62MdaZFMefA_5quote9to_tokens8ToTokens9to_tokens, symObjAddr: 0x10680, symBinAddr: 0x7FFC0, symSize: 0x64 }
  - { offset: 0x116CB4, size: 0x8, addend: 0x0, symName: __RNvXsw_NtNtCsATtFUPiRFW_3syn4expr8printingNtB7_9ExprTupleNtNtCs62MdaZFMefA_5quote9to_tokens8ToTokens9to_tokens, symObjAddr: 0x106E4, symBinAddr: 0x80024, symSize: 0x58 }
  - { offset: 0x116CF3, size: 0x8, addend: 0x0, symName: __RNvXsx_NtNtCsATtFUPiRFW_3syn4expr8printingNtB7_9ExprUnaryNtNtCs62MdaZFMefA_5quote9to_tokens8ToTokens9to_tokens, symObjAddr: 0x1073C, symBinAddr: 0x8007C, symSize: 0x58 }
  - { offset: 0x116D32, size: 0x8, addend: 0x0, symName: __RNvXsy_NtNtCsATtFUPiRFW_3syn4expr8printingNtB7_10ExprUnsafeNtNtCs62MdaZFMefA_5quote9to_tokens8ToTokens9to_tokens, symObjAddr: 0x10794, symBinAddr: 0x800D4, symSize: 0x68 }
  - { offset: 0x116D71, size: 0x8, addend: 0x0, symName: __RNvXsz_NtNtCsATtFUPiRFW_3syn4expr8printingNtB7_9ExprWhileNtNtCs62MdaZFMefA_5quote9to_tokens8ToTokens9to_tokens, symObjAddr: 0x107FC, symBinAddr: 0x8013C, symSize: 0xA0 }
  - { offset: 0x116DB0, size: 0x8, addend: 0x0, symName: __RNvXsA_NtNtCsATtFUPiRFW_3syn4expr8printingNtB7_9ExprYieldNtNtCs62MdaZFMefA_5quote9to_tokens8ToTokens9to_tokens, symObjAddr: 0x1089C, symBinAddr: 0x801DC, symSize: 0x58 }
  - { offset: 0x116DEF, size: 0x8, addend: 0x0, symName: __RNvXsB_NtNtCsATtFUPiRFW_3syn4expr8printingNtB7_3ArmNtNtCs62MdaZFMefA_5quote9to_tokens8ToTokens9to_tokens, symObjAddr: 0x108F4, symBinAddr: 0x80234, symSize: 0x10C }
  - { offset: 0x116E5C, size: 0x8, addend: 0x0, symName: __RNvXsC_NtNtCsATtFUPiRFW_3syn4expr8printingNtB7_10FieldValueNtNtCs62MdaZFMefA_5quote9to_tokens8ToTokens9to_tokens, symObjAddr: 0x10A00, symBinAddr: 0x80340, symSize: 0xB0 }
  - { offset: 0x116EB9, size: 0x8, addend: 0x0, symName: __RNvXsD_NtNtCsATtFUPiRFW_3syn4expr8printingNtB7_5IndexNtNtCs62MdaZFMefA_5quote9to_tokens8ToTokens9to_tokens, symObjAddr: 0x10AB0, symBinAddr: 0x803F0, symSize: 0xD4 }
  - { offset: 0x116F0E, size: 0x8, addend: 0x0, symName: __RNvXsE_NtNtCsATtFUPiRFW_3syn4expr8printingNtB7_5LabelNtNtCs62MdaZFMefA_5quote9to_tokens8ToTokens9to_tokens, symObjAddr: 0x10B84, symBinAddr: 0x804C4, symSize: 0x50 }
  - { offset: 0x116F4D, size: 0x8, addend: 0x0, symName: __RNvXsF_NtNtCsATtFUPiRFW_3syn4expr8printingNtB7_6MemberNtNtCs62MdaZFMefA_5quote9to_tokens8ToTokens9to_tokens, symObjAddr: 0x10BD4, symBinAddr: 0x80514, symSize: 0x98 }
  - { offset: 0x116FC0, size: 0x8, addend: 0x0, symName: __RNvXsG_NtNtCsATtFUPiRFW_3syn4expr8printingNtB7_11RangeLimitsNtNtCs62MdaZFMefA_5quote9to_tokens8ToTokens9to_tokens, symObjAddr: 0x10C6C, symBinAddr: 0x805AC, symSize: 0x94 }
  - { offset: 0x117033, size: 0x8, addend: 0x0, symName: __RNvXsH_NtNtCsATtFUPiRFW_3syn4expr8printingNtB7_17PointerMutabilityNtNtCs62MdaZFMefA_5quote9to_tokens8ToTokens9to_tokens, symObjAddr: 0x10D00, symBinAddr: 0x80640, symSize: 0x94 }
  - { offset: 0x1170AC, size: 0x8, addend: 0x0, symName: __RNcNtNtNtCsATtFUPiRFW_3syn4expr4Expr5Async0B7_, symObjAddr: 0x10D94, symBinAddr: 0x806D4, symSize: 0x3C }
  - { offset: 0x1170DB, size: 0x8, addend: 0x0, symName: __RNcNtNtNtCsATtFUPiRFW_3syn4expr4Expr5Block0B7_, symObjAddr: 0x10DD0, symBinAddr: 0x80710, symSize: 0x3C }
  - { offset: 0x11710A, size: 0x8, addend: 0x0, symName: __RNcNtNtNtCsATtFUPiRFW_3syn4expr4Expr5Break0B7_, symObjAddr: 0x10E0C, symBinAddr: 0x8074C, symSize: 0x3C }
  - { offset: 0x117139, size: 0x8, addend: 0x0, symName: __RNcNtNtNtCsATtFUPiRFW_3syn4expr4Expr7Closure0B7_, symObjAddr: 0x10E48, symBinAddr: 0x80788, symSize: 0x3C }
  - { offset: 0x117168, size: 0x8, addend: 0x0, symName: __RNcNtNtNtCsATtFUPiRFW_3syn4expr4Expr5Const0B7_, symObjAddr: 0x10E84, symBinAddr: 0x807C4, symSize: 0x3C }
  - { offset: 0x117197, size: 0x8, addend: 0x0, symName: __RNcNtNtNtCsATtFUPiRFW_3syn4expr4Expr8Continue0B7_, symObjAddr: 0x10EC0, symBinAddr: 0x80800, symSize: 0x3C }
  - { offset: 0x1171C6, size: 0x8, addend: 0x0, symName: __RNcNtNtNtCsATtFUPiRFW_3syn4expr4Expr7ForLoop0B7_, symObjAddr: 0x10EFC, symBinAddr: 0x8083C, symSize: 0x3C }
  - { offset: 0x1171F5, size: 0x8, addend: 0x0, symName: __RNcNtNtNtCsATtFUPiRFW_3syn4expr4Expr2If0B7_, symObjAddr: 0x10F38, symBinAddr: 0x80878, symSize: 0x3C }
  - { offset: 0x117224, size: 0x8, addend: 0x0, symName: __RNcNtNtNtCsATtFUPiRFW_3syn4expr4Expr5Infer0B7_, symObjAddr: 0x10F74, symBinAddr: 0x808B4, symSize: 0x20 }
  - { offset: 0x117252, size: 0x8, addend: 0x0, symName: __RNcNtNtNtCsATtFUPiRFW_3syn4expr4Expr3Let0B7_, symObjAddr: 0x10F94, symBinAddr: 0x808D4, symSize: 0x3C }
  - { offset: 0x117281, size: 0x8, addend: 0x0, symName: __RNcNtNtNtCsATtFUPiRFW_3syn4expr4Expr3Lit0B7_, symObjAddr: 0x10FD0, symBinAddr: 0x80910, symSize: 0x3C }
  - { offset: 0x1172B0, size: 0x8, addend: 0x0, symName: __RNcNtNtNtCsATtFUPiRFW_3syn4expr4Expr4Loop0B7_, symObjAddr: 0x1100C, symBinAddr: 0x8094C, symSize: 0x3C }
  - { offset: 0x1172DF, size: 0x8, addend: 0x0, symName: __RNcNtNtNtCsATtFUPiRFW_3syn4expr4Expr5Match0B7_, symObjAddr: 0x11048, symBinAddr: 0x80988, symSize: 0x3C }
  - { offset: 0x11730E, size: 0x8, addend: 0x0, symName: __RNcNtNtNtCsATtFUPiRFW_3syn4expr4Expr5Range0B7_, symObjAddr: 0x11084, symBinAddr: 0x809C4, symSize: 0x3C }
  - { offset: 0x11733D, size: 0x8, addend: 0x0, symName: __RNcNtNtNtCsATtFUPiRFW_3syn4expr4Expr6Return0B7_, symObjAddr: 0x110C0, symBinAddr: 0x80A00, symSize: 0x3C }
  - { offset: 0x11736C, size: 0x8, addend: 0x0, symName: __RNcNtNtNtCsATtFUPiRFW_3syn4expr4Expr6Struct0B7_, symObjAddr: 0x110FC, symBinAddr: 0x80A3C, symSize: 0x3C }
  - { offset: 0x11739B, size: 0x8, addend: 0x0, symName: __RNcNtNtNtCsATtFUPiRFW_3syn4expr4Expr8TryBlock0B7_, symObjAddr: 0x11138, symBinAddr: 0x80A78, symSize: 0x3C }
  - { offset: 0x1173CA, size: 0x8, addend: 0x0, symName: __RNcNtNtNtCsATtFUPiRFW_3syn4expr4Expr5Unary0B7_, symObjAddr: 0x11174, symBinAddr: 0x80AB4, symSize: 0x3C }
  - { offset: 0x1173F9, size: 0x8, addend: 0x0, symName: __RNcNtNtNtCsATtFUPiRFW_3syn4expr4Expr6Unsafe0B7_, symObjAddr: 0x111B0, symBinAddr: 0x80AF0, symSize: 0x3C }
  - { offset: 0x117428, size: 0x8, addend: 0x0, symName: __RNcNtNtNtCsATtFUPiRFW_3syn4expr4Expr5While0B7_, symObjAddr: 0x111EC, symBinAddr: 0x80B2C, symSize: 0x3C }
  - { offset: 0x117457, size: 0x8, addend: 0x0, symName: __RNcNtNtNtCsATtFUPiRFW_3syn4expr4Expr5Yield0B7_, symObjAddr: 0x11228, symBinAddr: 0x80B68, symSize: 0x3C }
  - { offset: 0x117487, size: 0x8, addend: 0x0, symName: __RNvXsc_NtCsATtFUPiRFW_3syn4exprNtB5_4ExprINtNtCs9f3LFPSIp77_4core7convert4FromNtB5_9ExprArrayE4from, symObjAddr: 0x11264, symBinAddr: 0x80BA4, symSize: 0x48 }
  - { offset: 0x1174BA, size: 0x8, addend: 0x0, symName: __RNvXsd_NtCsATtFUPiRFW_3syn4exprNtB5_4ExprINtNtCs9f3LFPSIp77_4core7convert4FromNtB5_10ExprAssignE4from, symObjAddr: 0x112AC, symBinAddr: 0x80BEC, symSize: 0x50 }
  - { offset: 0x1174ED, size: 0x8, addend: 0x0, symName: __RNvXse_NtCsATtFUPiRFW_3syn4exprNtB5_4ExprINtNtCs9f3LFPSIp77_4core7convert4FromNtB5_9ExprAsyncE4from, symObjAddr: 0x112FC, symBinAddr: 0x80C3C, symSize: 0x4C }
  - { offset: 0x117520, size: 0x8, addend: 0x0, symName: __RNvXsf_NtCsATtFUPiRFW_3syn4exprNtB5_4ExprINtNtCs9f3LFPSIp77_4core7convert4FromNtB5_9ExprAwaitE4from, symObjAddr: 0x11348, symBinAddr: 0x80C88, symSize: 0x4C }
  - { offset: 0x117553, size: 0x8, addend: 0x0, symName: __RNvXsg_NtCsATtFUPiRFW_3syn4exprNtB5_4ExprINtNtCs9f3LFPSIp77_4core7convert4FromNtB5_10ExprBinaryE4from, symObjAddr: 0x11394, symBinAddr: 0x80CD4, symSize: 0x4C }
  - { offset: 0x117586, size: 0x8, addend: 0x0, symName: __RNvXsh_NtCsATtFUPiRFW_3syn4exprNtB5_4ExprINtNtCs9f3LFPSIp77_4core7convert4FromNtB5_9ExprBlockE4from, symObjAddr: 0x113E0, symBinAddr: 0x80D20, symSize: 0x4C }
  - { offset: 0x1175B9, size: 0x8, addend: 0x0, symName: __RNvXsi_NtCsATtFUPiRFW_3syn4exprNtB5_4ExprINtNtCs9f3LFPSIp77_4core7convert4FromNtB5_9ExprBreakE4from, symObjAddr: 0x1142C, symBinAddr: 0x80D6C, symSize: 0x4C }
  - { offset: 0x1175EC, size: 0x8, addend: 0x0, symName: __RNvXsj_NtCsATtFUPiRFW_3syn4exprNtB5_4ExprINtNtCs9f3LFPSIp77_4core7convert4FromNtB5_8ExprCallE4from, symObjAddr: 0x11478, symBinAddr: 0x80DB8, symSize: 0x4C }
  - { offset: 0x11761F, size: 0x8, addend: 0x0, symName: __RNvXsk_NtCsATtFUPiRFW_3syn4exprNtB5_4ExprINtNtCs9f3LFPSIp77_4core7convert4FromNtB5_8ExprCastE4from, symObjAddr: 0x114C4, symBinAddr: 0x80E04, symSize: 0x4C }
  - { offset: 0x117652, size: 0x8, addend: 0x0, symName: __RNvXsl_NtCsATtFUPiRFW_3syn4exprNtB5_4ExprINtNtCs9f3LFPSIp77_4core7convert4FromNtB5_11ExprClosureE4from, symObjAddr: 0x11510, symBinAddr: 0x80E50, symSize: 0x4C }
  - { offset: 0x117685, size: 0x8, addend: 0x0, symName: __RNvXsm_NtCsATtFUPiRFW_3syn4exprNtB5_4ExprINtNtCs9f3LFPSIp77_4core7convert4FromNtB5_9ExprConstE4from, symObjAddr: 0x1155C, symBinAddr: 0x80E9C, symSize: 0x4C }
  - { offset: 0x1176B8, size: 0x8, addend: 0x0, symName: __RNvXsn_NtCsATtFUPiRFW_3syn4exprNtB5_4ExprINtNtCs9f3LFPSIp77_4core7convert4FromNtB5_12ExprContinueE4from, symObjAddr: 0x115A8, symBinAddr: 0x80EE8, symSize: 0x4C }
  - { offset: 0x1176EB, size: 0x8, addend: 0x0, symName: __RNvXso_NtCsATtFUPiRFW_3syn4exprNtB5_4ExprINtNtCs9f3LFPSIp77_4core7convert4FromNtB5_9ExprFieldE4from, symObjAddr: 0x115F4, symBinAddr: 0x80F34, symSize: 0x4C }
  - { offset: 0x11771E, size: 0x8, addend: 0x0, symName: __RNvXsp_NtCsATtFUPiRFW_3syn4exprNtB5_4ExprINtNtCs9f3LFPSIp77_4core7convert4FromNtB5_11ExprForLoopE4from, symObjAddr: 0x11640, symBinAddr: 0x80F80, symSize: 0x4C }
  - { offset: 0x117751, size: 0x8, addend: 0x0, symName: __RNvXsq_NtCsATtFUPiRFW_3syn4exprNtB5_4ExprINtNtCs9f3LFPSIp77_4core7convert4FromNtB5_9ExprGroupE4from, symObjAddr: 0x1168C, symBinAddr: 0x80FCC, symSize: 0x4C }
  - { offset: 0x117784, size: 0x8, addend: 0x0, symName: __RNvXsr_NtCsATtFUPiRFW_3syn4exprNtB5_4ExprINtNtCs9f3LFPSIp77_4core7convert4FromNtB5_6ExprIfE4from, symObjAddr: 0x116D8, symBinAddr: 0x81018, symSize: 0x4C }
  - { offset: 0x1177B7, size: 0x8, addend: 0x0, symName: __RNvXss_NtCsATtFUPiRFW_3syn4exprNtB5_4ExprINtNtCs9f3LFPSIp77_4core7convert4FromNtB5_9ExprIndexE4from, symObjAddr: 0x11724, symBinAddr: 0x81064, symSize: 0x4C }
  - { offset: 0x1177EA, size: 0x8, addend: 0x0, symName: __RNvXst_NtCsATtFUPiRFW_3syn4exprNtB5_4ExprINtNtCs9f3LFPSIp77_4core7convert4FromNtB5_9ExprInferE4from, symObjAddr: 0x11770, symBinAddr: 0x810B0, symSize: 0x30 }
  - { offset: 0x11781C, size: 0x8, addend: 0x0, symName: __RNvXsu_NtCsATtFUPiRFW_3syn4exprNtB5_4ExprINtNtCs9f3LFPSIp77_4core7convert4FromNtB5_7ExprLetE4from, symObjAddr: 0x117A0, symBinAddr: 0x810E0, symSize: 0x4C }
  - { offset: 0x11784F, size: 0x8, addend: 0x0, symName: __RNvXsv_NtCsATtFUPiRFW_3syn4exprNtB5_4ExprINtNtCs9f3LFPSIp77_4core7convert4FromNtB5_7ExprLitE4from, symObjAddr: 0x117EC, symBinAddr: 0x8112C, symSize: 0x4C }
  - { offset: 0x117882, size: 0x8, addend: 0x0, symName: __RNvXsw_NtCsATtFUPiRFW_3syn4exprNtB5_4ExprINtNtCs9f3LFPSIp77_4core7convert4FromNtB5_8ExprLoopE4from, symObjAddr: 0x11838, symBinAddr: 0x81178, symSize: 0x4C }
  - { offset: 0x1178B5, size: 0x8, addend: 0x0, symName: __RNvXsx_NtCsATtFUPiRFW_3syn4exprNtB5_4ExprINtNtCs9f3LFPSIp77_4core7convert4FromNtB5_9ExprMacroE4from, symObjAddr: 0x11884, symBinAddr: 0x811C4, symSize: 0x4C }
  - { offset: 0x1178E8, size: 0x8, addend: 0x0, symName: __RNvXsy_NtCsATtFUPiRFW_3syn4exprNtB5_4ExprINtNtCs9f3LFPSIp77_4core7convert4FromNtB5_9ExprMatchE4from, symObjAddr: 0x118D0, symBinAddr: 0x81210, symSize: 0x4C }
  - { offset: 0x11791B, size: 0x8, addend: 0x0, symName: __RNvXsz_NtCsATtFUPiRFW_3syn4exprNtB5_4ExprINtNtCs9f3LFPSIp77_4core7convert4FromNtB5_14ExprMethodCallE4from, symObjAddr: 0x1191C, symBinAddr: 0x8125C, symSize: 0x4C }
  - { offset: 0x11794E, size: 0x8, addend: 0x0, symName: __RNvXsA_NtCsATtFUPiRFW_3syn4exprNtB5_4ExprINtNtCs9f3LFPSIp77_4core7convert4FromNtB5_9ExprParenE4from, symObjAddr: 0x11968, symBinAddr: 0x812A8, symSize: 0x4C }
  - { offset: 0x117981, size: 0x8, addend: 0x0, symName: __RNvXsB_NtCsATtFUPiRFW_3syn4exprNtB5_4ExprINtNtCs9f3LFPSIp77_4core7convert4FromNtB5_8ExprPathE4from, symObjAddr: 0x119B4, symBinAddr: 0x812F4, symSize: 0x4C }
  - { offset: 0x1179B4, size: 0x8, addend: 0x0, symName: __RNvXsC_NtCsATtFUPiRFW_3syn4exprNtB5_4ExprINtNtCs9f3LFPSIp77_4core7convert4FromNtB5_9ExprRangeE4from, symObjAddr: 0x11A00, symBinAddr: 0x81340, symSize: 0x4C }
  - { offset: 0x1179E7, size: 0x8, addend: 0x0, symName: __RNvXsD_NtCsATtFUPiRFW_3syn4exprNtB5_4ExprINtNtCs9f3LFPSIp77_4core7convert4FromNtB5_11ExprRawAddrE4from, symObjAddr: 0x11A4C, symBinAddr: 0x8138C, symSize: 0x4C }
  - { offset: 0x117A1A, size: 0x8, addend: 0x0, symName: __RNvXsE_NtCsATtFUPiRFW_3syn4exprNtB5_4ExprINtNtCs9f3LFPSIp77_4core7convert4FromNtB5_13ExprReferenceE4from, symObjAddr: 0x11A98, symBinAddr: 0x813D8, symSize: 0x4C }
  - { offset: 0x117A4D, size: 0x8, addend: 0x0, symName: __RNvXsF_NtCsATtFUPiRFW_3syn4exprNtB5_4ExprINtNtCs9f3LFPSIp77_4core7convert4FromNtB5_10ExprRepeatE4from, symObjAddr: 0x11AE4, symBinAddr: 0x81424, symSize: 0x4C }
  - { offset: 0x117A80, size: 0x8, addend: 0x0, symName: __RNvXsG_NtCsATtFUPiRFW_3syn4exprNtB5_4ExprINtNtCs9f3LFPSIp77_4core7convert4FromNtB5_10ExprReturnE4from, symObjAddr: 0x11B30, symBinAddr: 0x81470, symSize: 0x4C }
  - { offset: 0x117AB3, size: 0x8, addend: 0x0, symName: __RNvXsH_NtCsATtFUPiRFW_3syn4exprNtB5_4ExprINtNtCs9f3LFPSIp77_4core7convert4FromNtB5_10ExprStructE4from, symObjAddr: 0x11B7C, symBinAddr: 0x814BC, symSize: 0x4C }
  - { offset: 0x117AE6, size: 0x8, addend: 0x0, symName: __RNvXsI_NtCsATtFUPiRFW_3syn4exprNtB5_4ExprINtNtCs9f3LFPSIp77_4core7convert4FromNtB5_7ExprTryE4from, symObjAddr: 0x11BC8, symBinAddr: 0x81508, symSize: 0x4C }
  - { offset: 0x117B19, size: 0x8, addend: 0x0, symName: __RNvXsJ_NtCsATtFUPiRFW_3syn4exprNtB5_4ExprINtNtCs9f3LFPSIp77_4core7convert4FromNtB5_12ExprTryBlockE4from, symObjAddr: 0x11C14, symBinAddr: 0x81554, symSize: 0x4C }
  - { offset: 0x117B4C, size: 0x8, addend: 0x0, symName: __RNvXsK_NtCsATtFUPiRFW_3syn4exprNtB5_4ExprINtNtCs9f3LFPSIp77_4core7convert4FromNtB5_9ExprTupleE4from, symObjAddr: 0x11C60, symBinAddr: 0x815A0, symSize: 0x4C }
  - { offset: 0x117B7F, size: 0x8, addend: 0x0, symName: __RNvXsL_NtCsATtFUPiRFW_3syn4exprNtB5_4ExprINtNtCs9f3LFPSIp77_4core7convert4FromNtB5_9ExprUnaryE4from, symObjAddr: 0x11CAC, symBinAddr: 0x815EC, symSize: 0x4C }
  - { offset: 0x117BB2, size: 0x8, addend: 0x0, symName: __RNvXsM_NtCsATtFUPiRFW_3syn4exprNtB5_4ExprINtNtCs9f3LFPSIp77_4core7convert4FromNtB5_10ExprUnsafeE4from, symObjAddr: 0x11CF8, symBinAddr: 0x81638, symSize: 0x4C }
  - { offset: 0x117BE5, size: 0x8, addend: 0x0, symName: __RNvXsN_NtCsATtFUPiRFW_3syn4exprNtB5_4ExprINtNtCs9f3LFPSIp77_4core7convert4FromNtB5_9ExprWhileE4from, symObjAddr: 0x11D44, symBinAddr: 0x81684, symSize: 0x4C }
  - { offset: 0x117C18, size: 0x8, addend: 0x0, symName: __RNvXsO_NtCsATtFUPiRFW_3syn4exprNtB5_4ExprINtNtCs9f3LFPSIp77_4core7convert4FromNtB5_9ExprYieldE4from, symObjAddr: 0x11D90, symBinAddr: 0x816D0, symSize: 0x4C }
  - { offset: 0x117C4B, size: 0x8, addend: 0x0, symName: __RNvXsP_NtCsATtFUPiRFW_3syn4exprNtB5_4ExprNtNtCs62MdaZFMefA_5quote9to_tokens8ToTokens9to_tokens, symObjAddr: 0x11DDC, symBinAddr: 0x8171C, symSize: 0x7D8 }
  - { offset: 0x11812C, size: 0x8, addend: 0x0, symName: __RNcNtNtNtCsATtFUPiRFW_3syn4expr6Member5Named0B7_, symObjAddr: 0x125B4, symBinAddr: 0x81EF4, symSize: 0x18 }
  - { offset: 0x11815C, size: 0x8, addend: 0x0, symName: __RNcNtNtNtCsATtFUPiRFW_3syn4expr6Member7Unnamed0B7_, symObjAddr: 0x125CC, symBinAddr: 0x81F0C, symSize: 0x28 }
  - { offset: 0x118192, size: 0x8, addend: 0x0, symName: __RNcNtNtNtCsATtFUPiRFW_3syn4expr11RangeLimits8HalfOpen0B7_, symObjAddr: 0x125F4, symBinAddr: 0x81F34, symSize: 0x24 }
  - { offset: 0x1181C2, size: 0x8, addend: 0x0, symName: __RNcNtNtNtCsATtFUPiRFW_3syn4expr11RangeLimits6Closed0B7_, symObjAddr: 0x12618, symBinAddr: 0x81F58, symSize: 0x20 }
  - { offset: 0x11AB7A, size: 0x8, addend: 0x0, symName: __RNvXs0_NtNtCsATtFUPiRFW_3syn3gen5cloneNtNtB9_4expr3ArmNtNtCs9f3LFPSIp77_4core5clone5Clone5clone, symObjAddr: 0x1557C, symBinAddr: 0x84EBC, symSize: 0x1B4 }
  - { offset: 0x11ABAC, size: 0x8, addend: 0x0, symName: __RNvXsk_NtNtCsATtFUPiRFW_3syn3gen5cloneNtNtB9_4expr4ExprNtNtCs9f3LFPSIp77_4core5clone5Clone5clone, symObjAddr: 0x15730, symBinAddr: 0x85070, symSize: 0xE14 }
  - { offset: 0x11B0A1, size: 0x8, addend: 0x0, symName: __RNvXsl_NtNtCsATtFUPiRFW_3syn3gen5cloneNtNtB9_4expr9ExprArrayNtNtCs9f3LFPSIp77_4core5clone5Clone5clone, symObjAddr: 0x16544, symBinAddr: 0x85E84, symSize: 0xC0 }
  - { offset: 0x11B0D5, size: 0x8, addend: 0x0, symName: __RNvXsm_NtNtCsATtFUPiRFW_3syn3gen5cloneNtNtB9_4expr10ExprAssignNtNtCs9f3LFPSIp77_4core5clone5Clone5clone, symObjAddr: 0x16604, symBinAddr: 0x85F44, symSize: 0x100 }
  - { offset: 0x11B109, size: 0x8, addend: 0x0, symName: __RNvXsn_NtNtCsATtFUPiRFW_3syn3gen5cloneNtNtB9_4expr9ExprAsyncNtNtCs9f3LFPSIp77_4core5clone5Clone5clone, symObjAddr: 0x16704, symBinAddr: 0x86044, symSize: 0xE4 }
  - { offset: 0x11B13D, size: 0x8, addend: 0x0, symName: __RNvXso_NtNtCsATtFUPiRFW_3syn3gen5cloneNtNtB9_4expr9ExprAwaitNtNtCs9f3LFPSIp77_4core5clone5Clone5clone, symObjAddr: 0x167E8, symBinAddr: 0x86128, symSize: 0x100 }
  - { offset: 0x11B171, size: 0x8, addend: 0x0, symName: __RNvXsp_NtNtCsATtFUPiRFW_3syn3gen5cloneNtNtB9_4expr10ExprBinaryNtNtCs9f3LFPSIp77_4core5clone5Clone5clone, symObjAddr: 0x168E8, symBinAddr: 0x86228, symSize: 0xF0 }
  - { offset: 0x11B1A5, size: 0x8, addend: 0x0, symName: __RNvXsq_NtNtCsATtFUPiRFW_3syn3gen5cloneNtNtB9_4expr9ExprBlockNtNtCs9f3LFPSIp77_4core5clone5Clone5clone, symObjAddr: 0x169D8, symBinAddr: 0x86318, symSize: 0xE8 }
  - { offset: 0x11B1D9, size: 0x8, addend: 0x0, symName: __RNvXsr_NtNtCsATtFUPiRFW_3syn3gen5cloneNtNtB9_4expr9ExprBreakNtNtCs9f3LFPSIp77_4core5clone5Clone5clone, symObjAddr: 0x16AC0, symBinAddr: 0x86400, symSize: 0xF0 }
  - { offset: 0x11B20D, size: 0x8, addend: 0x0, symName: __RNvXss_NtNtCsATtFUPiRFW_3syn3gen5cloneNtNtB9_4expr8ExprCallNtNtCs9f3LFPSIp77_4core5clone5Clone5clone, symObjAddr: 0x16BB0, symBinAddr: 0x864F0, symSize: 0x100 }
  - { offset: 0x11B241, size: 0x8, addend: 0x0, symName: __RNvXst_NtNtCsATtFUPiRFW_3syn3gen5cloneNtNtB9_4expr8ExprCastNtNtCs9f3LFPSIp77_4core5clone5Clone5clone, symObjAddr: 0x16CB0, symBinAddr: 0x865F0, symSize: 0xF0 }
  - { offset: 0x11B275, size: 0x8, addend: 0x0, symName: __RNvXsu_NtNtCsATtFUPiRFW_3syn3gen5cloneNtNtB9_4expr11ExprClosureNtNtCs9f3LFPSIp77_4core5clone5Clone5clone, symObjAddr: 0x16DA0, symBinAddr: 0x866E0, symSize: 0x254 }
  - { offset: 0x11B2A9, size: 0x8, addend: 0x0, symName: __RNvXsv_NtNtCsATtFUPiRFW_3syn3gen5cloneNtNtB9_4expr9ExprConstNtNtCs9f3LFPSIp77_4core5clone5Clone5clone, symObjAddr: 0x16FF4, symBinAddr: 0x86934, symSize: 0xBC }
  - { offset: 0x11B2DD, size: 0x8, addend: 0x0, symName: __RNvXsw_NtNtCsATtFUPiRFW_3syn3gen5cloneNtNtB9_4expr12ExprContinueNtNtCs9f3LFPSIp77_4core5clone5Clone5clone, symObjAddr: 0x170B0, symBinAddr: 0x869F0, symSize: 0xB8 }
  - { offset: 0x11B311, size: 0x8, addend: 0x0, symName: __RNvXsx_NtNtCsATtFUPiRFW_3syn3gen5cloneNtNtB9_4expr9ExprFieldNtNtCs9f3LFPSIp77_4core5clone5Clone5clone, symObjAddr: 0x17168, symBinAddr: 0x86AA8, symSize: 0x108 }
  - { offset: 0x11B345, size: 0x8, addend: 0x0, symName: __RNvXsy_NtNtCsATtFUPiRFW_3syn3gen5cloneNtNtB9_4expr11ExprForLoopNtNtCs9f3LFPSIp77_4core5clone5Clone5clone, symObjAddr: 0x17270, symBinAddr: 0x86BB0, symSize: 0x1A0 }
  - { offset: 0x11B379, size: 0x8, addend: 0x0, symName: __RNvXsz_NtNtCsATtFUPiRFW_3syn3gen5cloneNtNtB9_4expr9ExprGroupNtNtCs9f3LFPSIp77_4core5clone5Clone5clone, symObjAddr: 0x17410, symBinAddr: 0x86D50, symSize: 0xB0 }
  - { offset: 0x11B3AD, size: 0x8, addend: 0x0, symName: __RNvXsA_NtNtCsATtFUPiRFW_3syn3gen5cloneNtNtB9_4expr6ExprIfNtNtCs9f3LFPSIp77_4core5clone5Clone5clone, symObjAddr: 0x174C0, symBinAddr: 0x86E00, symSize: 0x144 }
  - { offset: 0x11B3E1, size: 0x8, addend: 0x0, symName: __RNvXsB_NtNtCsATtFUPiRFW_3syn3gen5cloneNtNtB9_4expr9ExprIndexNtNtCs9f3LFPSIp77_4core5clone5Clone5clone, symObjAddr: 0x17604, symBinAddr: 0x86F44, symSize: 0xF8 }
  - { offset: 0x11B415, size: 0x8, addend: 0x0, symName: __RNvXsC_NtNtCsATtFUPiRFW_3syn3gen5cloneNtNtB9_4expr9ExprInferNtNtCs9f3LFPSIp77_4core5clone5Clone5clone, symObjAddr: 0x176FC, symBinAddr: 0x8703C, symSize: 0xA4 }
  - { offset: 0x11B449, size: 0x8, addend: 0x0, symName: __RNvXsD_NtNtCsATtFUPiRFW_3syn3gen5cloneNtNtB9_4expr7ExprLetNtNtCs9f3LFPSIp77_4core5clone5Clone5clone, symObjAddr: 0x177A0, symBinAddr: 0x870E0, symSize: 0x11C }
  - { offset: 0x11B47D, size: 0x8, addend: 0x0, symName: __RNvXsE_NtNtCsATtFUPiRFW_3syn3gen5cloneNtNtB9_4expr7ExprLitNtNtCs9f3LFPSIp77_4core5clone5Clone5clone, symObjAddr: 0x178BC, symBinAddr: 0x871FC, symSize: 0x9C }
  - { offset: 0x11B4B1, size: 0x8, addend: 0x0, symName: __RNvXsF_NtNtCsATtFUPiRFW_3syn3gen5cloneNtNtB9_4expr8ExprLoopNtNtCs9f3LFPSIp77_4core5clone5Clone5clone, symObjAddr: 0x17958, symBinAddr: 0x87298, symSize: 0x104 }
  - { offset: 0x11B4E5, size: 0x8, addend: 0x0, symName: __RNvXsG_NtNtCsATtFUPiRFW_3syn3gen5cloneNtNtB9_4expr9ExprMacroNtNtCs9f3LFPSIp77_4core5clone5Clone5clone, symObjAddr: 0x17A5C, symBinAddr: 0x8739C, symSize: 0xA0 }
  - { offset: 0x11B519, size: 0x8, addend: 0x0, symName: __RNvXsH_NtNtCsATtFUPiRFW_3syn3gen5cloneNtNtB9_4expr9ExprMatchNtNtCs9f3LFPSIp77_4core5clone5Clone5clone, symObjAddr: 0x17AFC, symBinAddr: 0x8743C, symSize: 0x11C }
  - { offset: 0x11B54D, size: 0x8, addend: 0x0, symName: __RNvXsI_NtNtCsATtFUPiRFW_3syn3gen5cloneNtNtB9_4expr14ExprMethodCallNtNtCs9f3LFPSIp77_4core5clone5Clone5clone, symObjAddr: 0x17C18, symBinAddr: 0x87558, symSize: 0x1C8 }
  - { offset: 0x11B581, size: 0x8, addend: 0x0, symName: __RNvXsJ_NtNtCsATtFUPiRFW_3syn3gen5cloneNtNtB9_4expr9ExprParenNtNtCs9f3LFPSIp77_4core5clone5Clone5clone, symObjAddr: 0x17DE0, symBinAddr: 0x87720, symSize: 0xB8 }
  - { offset: 0x11B5B5, size: 0x8, addend: 0x0, symName: __RNvXsK_NtNtCsATtFUPiRFW_3syn3gen5cloneNtNtB9_4expr8ExprPathNtNtCs9f3LFPSIp77_4core5clone5Clone5clone, symObjAddr: 0x17E98, symBinAddr: 0x877D8, symSize: 0xE0 }
  - { offset: 0x11B5E9, size: 0x8, addend: 0x0, symName: __RNvXsL_NtNtCsATtFUPiRFW_3syn3gen5cloneNtNtB9_4expr9ExprRangeNtNtCs9f3LFPSIp77_4core5clone5Clone5clone, symObjAddr: 0x17F78, symBinAddr: 0x878B8, symSize: 0xF0 }
  - { offset: 0x11B61D, size: 0x8, addend: 0x0, symName: __RNvXsM_NtNtCsATtFUPiRFW_3syn3gen5cloneNtNtB9_4expr11ExprRawAddrNtNtCs9f3LFPSIp77_4core5clone5Clone5clone, symObjAddr: 0x18068, symBinAddr: 0x879A8, symSize: 0x104 }
