---
triple:          'arm64-apple-darwin'
binary-path:     '/Users/teddy/code/zero_to_production/newsletter_server/target/debug/deps/libactix_macros-1d41630b13664ee5.dylib'
relocations:
  - { offset: 0x1E, size: 0x8, addend: 0x0, symName: __RINvCsATtFUPiRFW_3syn5parseNtNtB2_4item6ItemFnECsgVYDIa60Vvp_12actix_macros, symObjAddr: 0x0, symBinAddr: 0x2864, symSize: 0x30 }
  - { offset: 0x128, size: 0x8, addend: 0x0, symName: __RNCNvMs3_NtNtCs27l1GJC5rMQ_3std6thread5localINtB7_8LocalKeyINtNtCs9f3LFPSIp77_4core4cell4CellPuEE7replace0CsgVYDIa60Vvp_12actix_macros, symObjAddr: 0x288C, symBinAddr: 0x50F0, symSize: 0x44 }
  - { offset: 0x2EC, size: 0x8, addend: 0x0, symName: __RNCNvXs1_NtNtNtCs27l1GJC5rMQ_3std2io5error14repr_bitpackedNtB7_4ReprNtNtNtCs9f3LFPSIp77_4core3ops4drop4Drop4drop0CsgVYDIa60Vvp_12actix_macros, symObjAddr: 0x28D0, symBinAddr: 0x5134, symSize: 0x34 }
  - { offset: 0x3A1, size: 0x8, addend: 0x0, symName: __RNvXs1_NtNtNtCs27l1GJC5rMQ_3std2io5error14repr_bitpackedNtB5_4ReprNtNtNtCs9f3LFPSIp77_4core3ops4drop4Drop4dropCsgVYDIa60Vvp_12actix_macros, symObjAddr: 0x4094, symBinAddr: 0x68F8, symSize: 0x38 }
  - { offset: 0x3CA, size: 0x8, addend: 0x0, symName: __RINvNtNtNtCs27l1GJC5rMQ_3std2io5error14repr_bitpacked11decode_reprINtNtCsdze8u8oDPro_5alloc5boxed3BoxNtB4_6CustomENCNvXs1_B2_NtB2_4ReprNtNtNtCs9f3LFPSIp77_4core3ops4drop4Drop4drop0ECsgVYDIa60Vvp_12actix_macros, symObjAddr: 0x15DC, symBinAddr: 0x3E40, symSize: 0x234 }
  - { offset: 0x693, size: 0x8, addend: 0x0, symName: __RNvNtNtNtCs27l1GJC5rMQ_3std2io5error14repr_bitpacked14kind_from_primCsgVYDIa60Vvp_12actix_macros, symObjAddr: 0x30A0, symBinAddr: 0x5904, symSize: 0x608 }
  - { offset: 0x1128, size: 0x8, addend: 0x0, symName: __RINvNvNtCs27l1GJC5rMQ_3std9panicking3try7do_callINtNtNtCs9f3LFPSIp77_4core5panic11unwind_safe16AssertUnwindSafeNCINvNtNtCsjLJ1XWNSM6u_10proc_macro6bridge6client10run_clientTNtB1Q_11TokenStreamB2L_EINtNtBR_6option6OptionB2L_ENCNCINvMs8_B1Q_INtB1Q_6ClientTNtB1U_11TokenStreamB44_EB44_E7expand2NvCsgVYDIa60Vvp_12actix_macros4mainE00E0EuEB4H_, symObjAddr: 0x1A68, symBinAddr: 0x42CC, symSize: 0x58 }
  - { offset: 0x11F9, size: 0x8, addend: 0x0, symName: __RINvNvNtCs27l1GJC5rMQ_3std9panicking3try7do_callINtNtNtCs9f3LFPSIp77_4core5panic11unwind_safe16AssertUnwindSafeNCINvNtNtCsjLJ1XWNSM6u_10proc_macro6bridge6client10run_clientTNtB1Q_11TokenStreamB2L_EINtNtBR_6option6OptionB2L_ENCNCINvMs8_B1Q_INtB1Q_6ClientTNtB1U_11TokenStreamB44_EB44_E7expand2NvCsgVYDIa60Vvp_12actix_macros4testE00E0EuEB4H_, symObjAddr: 0x1AC0, symBinAddr: 0x4324, symSize: 0x58 }
  - { offset: 0x12CA, size: 0x8, addend: 0x0, symName: __RINvNvNtCs27l1GJC5rMQ_3std9panicking3try8do_catchINtNtNtCs9f3LFPSIp77_4core5panic11unwind_safe16AssertUnwindSafeNCINvNtNtCsjLJ1XWNSM6u_10proc_macro6bridge6client10run_clientTNtB1R_11TokenStreamB2M_EINtNtBS_6option6OptionB2M_ENCNCINvMs8_B1R_INtB1R_6ClientTNtB1V_11TokenStreamB45_EB45_E7expand2NvCsgVYDIa60Vvp_12actix_macros4mainE00E0EuEB4I_, symObjAddr: 0x1B18, symBinAddr: 0x437C, symSize: 0x70 }
  - { offset: 0x135F, size: 0x8, addend: 0x0, symName: __RINvNvNtCs27l1GJC5rMQ_3std9panicking3try8do_catchINtNtNtCs9f3LFPSIp77_4core5panic11unwind_safe16AssertUnwindSafeNCINvNtNtCsjLJ1XWNSM6u_10proc_macro6bridge6client10run_clientTNtB1R_11TokenStreamB2M_EINtNtBS_6option6OptionB2M_ENCNCINvMs8_B1R_INtB1R_6ClientTNtB1V_11TokenStreamB45_EB45_E7expand2NvCsgVYDIa60Vvp_12actix_macros4testE00E0EuEB4I_, symObjAddr: 0x1B88, symBinAddr: 0x43EC, symSize: 0x70 }
  - { offset: 0x1831, size: 0x8, addend: 0x0, symName: __RNvNvMs1_NtNtCs9f3LFPSIp77_4core3ptr8non_nullINtB7_7NonNullpE13new_unchecked18precondition_checkCsgVYDIa60Vvp_12actix_macros, symObjAddr: 0x3738, symBinAddr: 0x5F9C, symSize: 0x40 }
  - { offset: 0x206F, size: 0x8, addend: 0x0, symName: __RNvNvMNtNtCs9f3LFPSIp77_4core3ptr9const_ptrPp7sub_ptr18precondition_checkCsgVYDIa60Vvp_12actix_macros, symObjAddr: 0x36A8, symBinAddr: 0x5F0C, symSize: 0x40 }
  - { offset: 0x227E, size: 0x8, addend: 0x0, symName: __RINvNtCs9f3LFPSIp77_4core3ptr13drop_in_placeDNtNtB4_5error5ErrorNtNtB4_6marker4SendNtB12_4SyncEL_ECsgVYDIa60Vvp_12actix_macros, symObjAddr: 0xB40, symBinAddr: 0x33A4, symSize: 0x48 }
  - { offset: 0x22AD, size: 0x8, addend: 0x0, symName: __RINvNtCs9f3LFPSIp77_4core3ptr13drop_in_placeINtNtB4_4cell10UnsafeCellNtNtNtCsjLJ1XWNSM6u_10proc_macro6bridge6client6BridgeEECsgVYDIa60Vvp_12actix_macros, symObjAddr: 0xB88, symBinAddr: 0x33EC, symSize: 0x24 }
  - { offset: 0x22DC, size: 0x8, addend: 0x0, symName: __RINvNtCs9f3LFPSIp77_4core3ptr13drop_in_placeINtNtB4_4cell7RefCellNtNtNtCsjLJ1XWNSM6u_10proc_macro6bridge6client6BridgeEECsgVYDIa60Vvp_12actix_macros, symObjAddr: 0xBAC, symBinAddr: 0x3410, symSize: 0x24 }
  - { offset: 0x230B, size: 0x8, addend: 0x0, symName: __RINvNtCs9f3LFPSIp77_4core3ptr13drop_in_placeINtNtB4_6option6OptionINtNtCsdze8u8oDPro_5alloc5boxed3BoxNtNtCsATtFUPiRFW_3syn4attr4MetaEEECsgVYDIa60Vvp_12actix_macros, symObjAddr: 0xBD0, symBinAddr: 0x3434, symSize: 0x44 }
  - { offset: 0x233A, size: 0x8, addend: 0x0, symName: __RINvNtCs9f3LFPSIp77_4core3ptr13drop_in_placeINtNtCsATtFUPiRFW_3syn10punctuated10PunctuatedNtNtBL_4attr4MetaNtNtBL_5token5CommaEECsgVYDIa60Vvp_12actix_macros, symObjAddr: 0xC14, symBinAddr: 0x3478, symSize: 0x60 }
  - { offset: 0x2369, size: 0x8, addend: 0x0, symName: __RINvNtCs9f3LFPSIp77_4core3ptr13drop_in_placeINtNtCsATtFUPiRFW_3syn10punctuated11PrivateIterNtNtBL_4attr4MetaNtNtBL_5token5CommaEECsgVYDIa60Vvp_12actix_macros, symObjAddr: 0xC74, symBinAddr: 0x34D8, symSize: 0x10 }
  - { offset: 0x2398, size: 0x8, addend: 0x0, symName: __RINvNtCs9f3LFPSIp77_4core3ptr13drop_in_placeINtNtCsATtFUPiRFW_3syn10punctuated4IterNtNtBL_4attr4MetaEECsgVYDIa60Vvp_12actix_macros, symObjAddr: 0xC84, symBinAddr: 0x34E8, symSize: 0x24 }
  - { offset: 0x23C7, size: 0x8, addend: 0x0, symName: __RINvNtCs9f3LFPSIp77_4core3ptr13drop_in_placeINtNtCsdze8u8oDPro_5alloc3vec3VecTNtNtCsATtFUPiRFW_3syn4attr4MetaNtNtB1i_5token5CommaEEECsgVYDIa60Vvp_12actix_macros, symObjAddr: 0xCA8, symBinAddr: 0x350C, symSize: 0x5C }
  - { offset: 0x23F6, size: 0x8, addend: 0x0, symName: __RINvNtCs9f3LFPSIp77_4core3ptr13drop_in_placeINtNtCsdze8u8oDPro_5alloc5boxed3BoxDNtNtB4_5error5ErrorNtNtB4_6marker4SendNtB1B_4SyncEL_EECsgVYDIa60Vvp_12actix_macros, symObjAddr: 0xD04, symBinAddr: 0x3568, symSize: 0x80 }
  - { offset: 0x2425, size: 0x8, addend: 0x0, symName: __RINvNtCs9f3LFPSIp77_4core3ptr13drop_in_placeINtNtCsdze8u8oDPro_5alloc5boxed3BoxINtNtCsATtFUPiRFW_3syn5drops6NoDropDINtNtB1k_10punctuated9IterTraitNtNtB1k_4attr4MetaEp4ItemRB2k_EL_EEECsgVYDIa60Vvp_12actix_macros, symObjAddr: 0xD84, symBinAddr: 0x35E8, symSize: 0x2C }
  - { offset: 0x2454, size: 0x8, addend: 0x0, symName: __RINvNtCs9f3LFPSIp77_4core3ptr13drop_in_placeINtNtCsdze8u8oDPro_5alloc5boxed3BoxNtNtCsATtFUPiRFW_3syn4attr4MetaEECsgVYDIa60Vvp_12actix_macros, symObjAddr: 0xDB0, symBinAddr: 0x3614, symSize: 0x60 }
  - { offset: 0x2483, size: 0x8, addend: 0x0, symName: __RINvNtCs9f3LFPSIp77_4core3ptr13drop_in_placeINtNtCsdze8u8oDPro_5alloc5boxed3BoxNtNtNtCs27l1GJC5rMQ_3std2io5error6CustomEECsgVYDIa60Vvp_12actix_macros, symObjAddr: 0xE10, symBinAddr: 0x3674, symSize: 0x60 }
  - { offset: 0x24B2, size: 0x8, addend: 0x0, symName: __RINvNtCs9f3LFPSIp77_4core3ptr13drop_in_placeINtNtCsdze8u8oDPro_5alloc7raw_vec6RawVecTNtNtCsATtFUPiRFW_3syn4attr4MetaNtNtB1p_5token5CommaEEECsgVYDIa60Vvp_12actix_macros, symObjAddr: 0xE70, symBinAddr: 0x36D4, symSize: 0x24 }
  - { offset: 0x24E1, size: 0x8, addend: 0x0, symName: __RINvNtCs9f3LFPSIp77_4core3ptr13drop_in_placeINtNtNtCs27l1GJC5rMQ_3std2io5error9ErrorDataINtNtCsdze8u8oDPro_5alloc5boxed3BoxNtBJ_6CustomEEECsgVYDIa60Vvp_12actix_macros, symObjAddr: 0xE94, symBinAddr: 0x36F8, symSize: 0x48 }
  - { offset: 0x2510, size: 0x8, addend: 0x0, symName: __RINvNtCs9f3LFPSIp77_4core3ptr13drop_in_placeNCNCINvNtNtCsjLJ1XWNSM6u_10proc_macro6bridge6client10run_clientTNtBN_11TokenStreamB1I_EINtNtB4_6option6OptionB1I_ENCNCINvMs8_BN_INtBN_6ClientTNtBR_11TokenStreamB2Y_EB2Y_E7expand2NvCsgVYDIa60Vvp_12actix_macros4mainE00E00EB3A_, symObjAddr: 0xEDC, symBinAddr: 0x3740, symSize: 0x24 }
  - { offset: 0x253F, size: 0x8, addend: 0x0, symName: __RINvNtCs9f3LFPSIp77_4core3ptr13drop_in_placeNCNCINvNtNtCsjLJ1XWNSM6u_10proc_macro6bridge6client10run_clientTNtBN_11TokenStreamB1I_EINtNtB4_6option6OptionB1I_ENCNCINvMs8_BN_INtBN_6ClientTNtBR_11TokenStreamB2Y_EB2Y_E7expand2NvCsgVYDIa60Vvp_12actix_macros4testE00E00EB3A_, symObjAddr: 0xF00, symBinAddr: 0x3764, symSize: 0x24 }
  - { offset: 0x256E, size: 0x8, addend: 0x0, symName: __RINvNtCs9f3LFPSIp77_4core3ptr13drop_in_placeNtNtNtCs27l1GJC5rMQ_3std2io5error5ErrorECsgVYDIa60Vvp_12actix_macros, symObjAddr: 0xF24, symBinAddr: 0x3788, symSize: 0x24 }
  - { offset: 0x259D, size: 0x8, addend: 0x0, symName: __RINvNtCs9f3LFPSIp77_4core3ptr13drop_in_placeNtNtNtCs27l1GJC5rMQ_3std2io5error6CustomECsgVYDIa60Vvp_12actix_macros, symObjAddr: 0xF48, symBinAddr: 0x37AC, symSize: 0x24 }
  - { offset: 0x25CC, size: 0x8, addend: 0x0, symName: __RINvNtCs9f3LFPSIp77_4core3ptr13drop_in_placeNtNtNtCs27l1GJC5rMQ_3std6thread5local11AccessErrorECsgVYDIa60Vvp_12actix_macros, symObjAddr: 0xF6C, symBinAddr: 0x37D0, symSize: 0x10 }
  - { offset: 0x25FB, size: 0x8, addend: 0x0, symName: __RINvNtCs9f3LFPSIp77_4core3ptr13drop_in_placeNtNtNtCsjLJ1XWNSM6u_10proc_macro6bridge3rpc12PanicMessageECsgVYDIa60Vvp_12actix_macros, symObjAddr: 0xF7C, symBinAddr: 0x37E0, symSize: 0x50 }
  - { offset: 0x262A, size: 0x8, addend: 0x0, symName: __RINvNtCs9f3LFPSIp77_4core3ptr13drop_in_placeNtNtNtCsjLJ1XWNSM6u_10proc_macro6bridge6buffer6BufferECsgVYDIa60Vvp_12actix_macros, symObjAddr: 0xFCC, symBinAddr: 0x3830, symSize: 0x24 }
  - { offset: 0x2659, size: 0x8, addend: 0x0, symName: __RINvNtCs9f3LFPSIp77_4core3ptr13drop_in_placeNtNtNtCsjLJ1XWNSM6u_10proc_macro6bridge6client6BridgeECsgVYDIa60Vvp_12actix_macros, symObjAddr: 0xFF0, symBinAddr: 0x3854, symSize: 0x24 }
  - { offset: 0x2688, size: 0x8, addend: 0x0, symName: __RINvNtCs9f3LFPSIp77_4core3ptr13drop_in_placeNtNtNtNtCs27l1GJC5rMQ_3std2io5error14repr_bitpacked4ReprECsgVYDIa60Vvp_12actix_macros, symObjAddr: 0x1014, symBinAddr: 0x3878, symSize: 0x24 }
  - { offset: 0x26B7, size: 0x8, addend: 0x0, symName: __RINvNtCs9f3LFPSIp77_4core3ptr13drop_in_placeNtNvNtNtNtCsjLJ1XWNSM6u_10proc_macro6bridge6client5state3set13RestoreOnDropECsgVYDIa60Vvp_12actix_macros, symObjAddr: 0x1038, symBinAddr: 0x389C, symSize: 0x24 }
  - { offset: 0x26E6, size: 0x8, addend: 0x0, symName: __RINvNtCs9f3LFPSIp77_4core3ptr13drop_in_placeSTNtNtCsATtFUPiRFW_3syn4attr4MetaNtNtBM_5token5CommaEECsgVYDIa60Vvp_12actix_macros, symObjAddr: 0x105C, symBinAddr: 0x38C0, symSize: 0xC4 }
  - { offset: 0x2715, size: 0x8, addend: 0x0, symName: __RINvNtCs9f3LFPSIp77_4core3ptr13drop_in_placeTNtNtCsATtFUPiRFW_3syn4attr4MetaNtNtBL_5token5CommaEECsgVYDIa60Vvp_12actix_macros, symObjAddr: 0x1120, symBinAddr: 0x3984, symSize: 0x24 }
  - { offset: 0x2744, size: 0x8, addend: 0x0, symName: __RINvNtCs9f3LFPSIp77_4core3ptr13drop_in_placeTNtNtNtCsjLJ1XWNSM6u_10proc_macro6bridge6client11TokenStreamBH_EECsgVYDIa60Vvp_12actix_macros, symObjAddr: 0x1144, symBinAddr: 0x39A8, symSize: 0x60 }
  - { offset: 0x2D3E, size: 0x8, addend: 0x0, symName: __RNvNvNtCs9f3LFPSIp77_4core3ptr13read_volatile18precondition_checkCsgVYDIa60Vvp_12actix_macros, symObjAddr: 0x3A18, symBinAddr: 0x627C, symSize: 0xEC }
  - { offset: 0x5990, size: 0x8, addend: 0x0, symName: __RNvXs5_NtCs9f3LFPSIp77_4core6optionINtB5_6OptionRNtNtCsATtFUPiRFW_3syn4attr4MetaENtNtNtNtB7_4iter6traits7collect12IntoIterator9into_iterCsgVYDIa60Vvp_12actix_macros, symObjAddr: 0x4354, symBinAddr: 0x6BB8, symSize: 0x14 }
  - { offset: 0x5A7F, size: 0x8, addend: 0x0, symName: __RNvXsO_NtCs9f3LFPSIp77_4core6optionINtB5_8IntoIterRNtNtCsATtFUPiRFW_3syn4attr4MetaENtNtB7_5clone5Clone5cloneCsgVYDIa60Vvp_12actix_macros, symObjAddr: 0x489C, symBinAddr: 0x7100, symSize: 0x68 }
  - { offset: 0x5B8F, size: 0x8, addend: 0x0, symName: __RNvXsv_NtCs9f3LFPSIp77_4core6optionINtB5_8IntoIterRNtNtCsATtFUPiRFW_3syn4attr4MetaENtNtNtNtB7_4iter6traits8iterator8Iterator4nextCsgVYDIa60Vvp_12actix_macros, symObjAddr: 0x5450, symBinAddr: 0x7CB4, symSize: 0x3C }
  - { offset: 0x5C82, size: 0x8, addend: 0x0, symName: __RNvXsv_NtCs9f3LFPSIp77_4core6optionINtB5_8IntoIterRNtNtCsATtFUPiRFW_3syn4attr4MetaENtNtNtNtB7_4iter6traits8iterator8Iterator9size_hintCsgVYDIa60Vvp_12actix_macros, symObjAddr: 0x548C, symBinAddr: 0x7CF0, symSize: 0x5C }
  - { offset: 0x5E81, size: 0x8, addend: 0x0, symName: __RNvNvMsc_NtNtCs9f3LFPSIp77_4core3num7nonzeroINtB7_7NonZeropE13new_unchecked18precondition_checkCsgVYDIa60Vvp_12actix_macros, symObjAddr: 0x3810, symBinAddr: 0x6074, symSize: 0x1C }
  - { offset: 0x5F10, size: 0x8, addend: 0x0, symName: __RNvNvMs3_NtCs9f3LFPSIp77_4core3numi13unchecked_neg18precondition_checkCsgVYDIa60Vvp_12actix_macros, symObjAddr: 0x3778, symBinAddr: 0x5FDC, symSize: 0x4C }
  - { offset: 0x5FC6, size: 0x8, addend: 0x0, symName: __RNvNvMs9_NtCs9f3LFPSIp77_4core3numj13unchecked_add18precondition_checkCsgVYDIa60Vvp_12actix_macros, symObjAddr: 0x37C4, symBinAddr: 0x6028, symSize: 0x4C }
  - { offset: 0x661C, size: 0x8, addend: 0x0, symName: __RNvXs2U_NtNtCs9f3LFPSIp77_4core5slice4iterINtB6_4IterTNtNtCsATtFUPiRFW_3syn4attr4MetaNtNtBU_5token5CommaEENtNtNtNtBa_4iter6traits8iterator8Iterator4nextCsgVYDIa60Vvp_12actix_macros, symObjAddr: 0x40CC, symBinAddr: 0x6930, symSize: 0xCC }
  - { offset: 0x6783, size: 0x8, addend: 0x0, symName: __RNvXs2V_NtNtCs9f3LFPSIp77_4core5slice4iterINtB6_4IterTNtNtCsATtFUPiRFW_3syn4attr4MetaNtNtBU_5token5CommaEENtNtNtNtBa_4iter6traits12double_ended19DoubleEndedIterator9next_backCsgVYDIa60Vvp_12actix_macros, symObjAddr: 0x4198, symBinAddr: 0x69FC, symSize: 0x114 }
  - { offset: 0x690F, size: 0x8, addend: 0x0, symName: __RNvXs5_NtNtCs9f3LFPSIp77_4core5slice4iterINtB5_4IterTNtNtCsATtFUPiRFW_3syn4attr4MetaNtNtBT_5token5CommaEENtNtB9_5clone5Clone5cloneCsgVYDIa60Vvp_12actix_macros, symObjAddr: 0x4368, symBinAddr: 0x6BCC, symSize: 0x20 }
  - { offset: 0x6A46, size: 0x8, addend: 0x0, symName: __RNvNvNtNtCs9f3LFPSIp77_4core5slice3raw14from_raw_parts18precondition_checkCsgVYDIa60Vvp_12actix_macros, symObjAddr: 0x3C04, symBinAddr: 0x6468, symSize: 0x164 }
  - { offset: 0x6BD1, size: 0x8, addend: 0x0, symName: __RNvMNtCs9f3LFPSIp77_4core5sliceSTNtNtCsATtFUPiRFW_3syn4attr4MetaNtNtBz_5token5CommaE4iterCsgVYDIa60Vvp_12actix_macros, symObjAddr: 0x2920, symBinAddr: 0x5184, symSize: 0x28 }
  - { offset: 0x6C56, size: 0x8, addend: 0x0, symName: __RNvMNtCs9f3LFPSIp77_4core5sliceSh15copy_from_sliceCsgVYDIa60Vvp_12actix_macros, symObjAddr: 0x2948, symBinAddr: 0x51AC, symSize: 0xA4 }
  - { offset: 0x70A0, size: 0x8, addend: 0x0, symName: __RNvXsp_NtCs9f3LFPSIp77_4core6resultINtB5_6ResultINtNtCsATtFUPiRFW_3syn10punctuated10PunctuatedNtNtBP_4attr4MetaNtNtBP_5token5CommaENtNtBP_5error5ErrorEINtNtNtB7_3ops9try_trait12FromResidualIBy_NtNtB7_7convert10InfallibleB25_EE13from_residualCsgVYDIa60Vvp_12actix_macros, symObjAddr: 0x536C, symBinAddr: 0x7BD0, symSize: 0x48 }
  - { offset: 0x7125, size: 0x8, addend: 0x0, symName: __RNvXsp_NtCs9f3LFPSIp77_4core6resultINtB5_6ResultNtNtCsATtFUPiRFW_3syn4path4PathNtNtBO_5error5ErrorEINtNtNtB7_3ops9try_trait12FromResidualIBy_NtNtB7_7convert10InfallibleNtCs475r2uZUTuc_11proc_macro28LexErrorEE13from_residualCsgVYDIa60Vvp_12actix_macros, symObjAddr: 0x53B4, symBinAddr: 0x7C18, symSize: 0x4C }
  - { offset: 0x7303, size: 0x8, addend: 0x0, symName: __RNvXso_NtCs9f3LFPSIp77_4core6resultINtB5_6ResultINtNtCsATtFUPiRFW_3syn10punctuated10PunctuatedNtNtBP_4attr4MetaNtNtBP_5token5CommaENtNtBP_5error5ErrorENtNtNtB7_3ops9try_trait3Try6branchCsgVYDIa60Vvp_12actix_macros, symObjAddr: 0x5104, symBinAddr: 0x7968, symSize: 0xA0 }
  - { offset: 0x7380, size: 0x8, addend: 0x0, symName: __RNvXso_NtCs9f3LFPSIp77_4core6resultINtB5_6ResultNtNtCsATtFUPiRFW_3syn4item6ItemFnNtNtBO_5error5ErrorENtNtNtB7_3ops9try_trait3Try6branchCsgVYDIa60Vvp_12actix_macros, symObjAddr: 0x51A4, symBinAddr: 0x7A08, symSize: 0xB4 }
  - { offset: 0x7905, size: 0x8, addend: 0x0, symName: __RNvNvNtCs9f3LFPSIp77_4core4hint21unreachable_unchecked18precondition_checkCsgVYDIa60Vvp_12actix_macros, symObjAddr: 0x3B04, symBinAddr: 0x6368, symSize: 0x1C }
  - { offset: 0x7934, size: 0x8, addend: 0x0, symName: __RNvXs1_NtCs9f3LFPSIp77_4core7convertNtCs475r2uZUTuc_11proc_macro211TokenStreamINtB5_4IntoNtCsjLJ1XWNSM6u_10proc_macro11TokenStreamE4intoCsgVYDIa60Vvp_12actix_macros, symObjAddr: 0x4080, symBinAddr: 0x68E4, symSize: 0x14 }
  - { offset: 0x7BAC, size: 0x8, addend: 0x0, symName: __RNvYNCNkNvNtNtNtCsjLJ1XWNSM6u_10proc_macro6bridge6client5state12BRIDGE_STATE0s_0INtNtNtCs9f3LFPSIp77_4core3ops8function6FnOnceTINtNtB1n_6option6OptionQIB22_INtNtB1n_4cell4CellPuEEEEE9call_onceCsgVYDIa60Vvp_12actix_macros, symObjAddr: 0x55AC, symBinAddr: 0x7E10, symSize: 0x4C }
  - { offset: 0x7BF0, size: 0x8, addend: 0x0, symName: __RNvYNvMNtCsATtFUPiRFW_3syn10punctuatedINtB5_10PunctuatedNtNtB7_4attr4MetaNtNtB7_5token5CommaE16parse_terminatedINtNtNtCs9f3LFPSIp77_4core3ops8function6FnOnceTRNtNtB7_5parse11ParseBufferEE9call_onceCsgVYDIa60Vvp_12actix_macros, symObjAddr: 0x5658, symBinAddr: 0x7EBC, symSize: 0x24 }
  - { offset: 0x7C34, size: 0x8, addend: 0x0, symName: __RNvYNvYINtNtCsdze8u8oDPro_5alloc5boxed3BoxNtNtCsATtFUPiRFW_3syn4attr4MetaEINtNtCs9f3LFPSIp77_4core7convert5AsRefBE_E6as_refINtNtNtB1f_3ops8function6FnOnceTRB5_EE9call_onceCsgVYDIa60Vvp_12actix_macros, symObjAddr: 0x567C, symBinAddr: 0x7EE0, symSize: 0x24 }
  - { offset: 0x7C78, size: 0x8, addend: 0x0, symName: __RNvYNvYNtNtCsATtFUPiRFW_3syn4item6ItemFnNtNtB9_5parse5Parse5parseINtNtNtCs9f3LFPSIp77_4core3ops8function6FnOnceTRNtBE_11ParseBufferEE9call_onceCsgVYDIa60Vvp_12actix_macros, symObjAddr: 0x56A0, symBinAddr: 0x7F04, symSize: 0x24 }
  - { offset: 0x7CBC, size: 0x8, addend: 0x0, symName: __RNvYNvYNtNtCsATtFUPiRFW_3syn4path4PathNtNtB9_5parse5Parse5parseINtNtNtCs9f3LFPSIp77_4core3ops8function6FnOnceTRNtBC_11ParseBufferEE9call_onceCsgVYDIa60Vvp_12actix_macros, symObjAddr: 0x56C4, symBinAddr: 0x7F28, symSize: 0x24 }
  - { offset: 0x7D00, size: 0x8, addend: 0x0, symName: __RNvYNvYNtNtNtCsjLJ1XWNSM6u_10proc_macro6bridge3rpc12PanicMessageINtNtCs9f3LFPSIp77_4core7convert4FromINtNtCsdze8u8oDPro_5alloc5boxed3BoxDNtNtB15_3any3AnyNtNtB15_6marker4SendEL_EE4fromINtNtNtB15_3ops8function6FnOnceTB1B_EE9call_onceCsgVYDIa60Vvp_12actix_macros, symObjAddr: 0x56E8, symBinAddr: 0x7F4C, symSize: 0x2C }
  - { offset: 0x7D4A, size: 0x8, addend: 0x0, symName: __RNvYNvCsgVYDIa60Vvp_12actix_macros4mainINtNtNtCs9f3LFPSIp77_4core3ops8function2FnTNtCsjLJ1XWNSM6u_10proc_macro11TokenStreamB1i_EE4callB4_, symObjAddr: 0x55F8, symBinAddr: 0x7E5C, symSize: 0x30 }
  - { offset: 0x7D8E, size: 0x8, addend: 0x0, symName: __RNvYNvCsgVYDIa60Vvp_12actix_macros4testINtNtNtCs9f3LFPSIp77_4core3ops8function2FnTNtCsjLJ1XWNSM6u_10proc_macro11TokenStreamB1i_EE4callB4_, symObjAddr: 0x5628, symBinAddr: 0x7E8C, symSize: 0x30 }
  - { offset: 0x83BA, size: 0x8, addend: 0x0, symName: __RNvXsn_NtNtCs9f3LFPSIp77_4core5panic11unwind_safeINtB5_16AssertUnwindSafeNCINvNtNtCsjLJ1XWNSM6u_10proc_macro6bridge6client10run_clientTNtB1e_11TokenStreamB29_EINtNtB9_6option6OptionB29_ENCNCINvMs8_B1e_INtB1e_6ClientTNtB1i_11TokenStreamB3s_EB3s_E7expand2NvCsgVYDIa60Vvp_12actix_macros4mainE00E0EINtNtNtB9_3ops8function6FnOnceuE9call_onceB45_, symObjAddr: 0x5094, symBinAddr: 0x78F8, symSize: 0x38 }
  - { offset: 0x8411, size: 0x8, addend: 0x0, symName: __RNvXsn_NtNtCs9f3LFPSIp77_4core5panic11unwind_safeINtB5_16AssertUnwindSafeNCINvNtNtCsjLJ1XWNSM6u_10proc_macro6bridge6client10run_clientTNtB1e_11TokenStreamB29_EINtNtB9_6option6OptionB29_ENCNCINvMs8_B1e_INtB1e_6ClientTNtB1i_11TokenStreamB3s_EB3s_E7expand2NvCsgVYDIa60Vvp_12actix_macros4testE00E0EINtNtNtB9_3ops8function6FnOnceuE9call_onceB45_, symObjAddr: 0x50CC, symBinAddr: 0x7930, symSize: 0x38 }
  - { offset: 0x84B2, size: 0x8, addend: 0x0, symName: __RINvYNtNtCsjLJ1XWNSM6u_10proc_macro12token_stream8IntoIterNtNtNtNtCs9f3LFPSIp77_4core4iter6traits8iterator8Iterator4folduNCINvNvBU_8for_each4callNtB7_9TokenTreeNCINvXsj_B7_NtB7_11TokenStreamINtNtBY_7collect6ExtendB2j_E6extendB2K_E0E0ECsgVYDIa60Vvp_12actix_macros, symObjAddr: 0x1D9C, symBinAddr: 0x4600, symSize: 0x10C }
  - { offset: 0x8541, size: 0x8, addend: 0x0, symName: __RINvYNtNtCsjLJ1XWNSM6u_10proc_macro12token_stream8IntoIterNtNtNtNtCs9f3LFPSIp77_4core4iter6traits8iterator8Iterator8for_eachNCINvXsj_B7_NtB7_11TokenStreamINtNtBY_7collect6ExtendNtB7_9TokenTreeE6extendB2a_E0ECsgVYDIa60Vvp_12actix_macros, symObjAddr: 0x1EA8, symBinAddr: 0x470C, symSize: 0x24 }
  - { offset: 0x8597, size: 0x8, addend: 0x0, symName: __RNCINvNvNtNtNtNtCs9f3LFPSIp77_4core4iter6traits8iterator8Iterator8for_each4callNtCsjLJ1XWNSM6u_10proc_macro9TokenTreeNCINvXsj_B1h_NtB1h_11TokenStreamINtNtBa_7collect6ExtendB1f_E6extendB24_E0E0CsgVYDIa60Vvp_12actix_macros, symObjAddr: 0x2724, symBinAddr: 0x4F88, symSize: 0x3C }
  - { offset: 0x8611, size: 0x8, addend: 0x0, symName: __RNvYINtNtCs9f3LFPSIp77_4core6option8IntoIterRNtNtCsATtFUPiRFW_3syn4attr4MetaENtNtNtNtB7_4iter6traits10exact_size17ExactSizeIterator3lenCsgVYDIa60Vvp_12actix_macros, symObjAddr: 0x54E8, symBinAddr: 0x7D4C, symSize: 0xC4 }
  - { offset: 0x8710, size: 0x8, addend: 0x0, symName: __RNvXsF_NtNtCs9f3LFPSIp77_4core4iter5rangejNtB5_4Step17forward_uncheckedCsgVYDIa60Vvp_12actix_macros, symObjAddr: 0x4854, symBinAddr: 0x70B8, symSize: 0x48 }
  - { offset: 0x877C, size: 0x8, addend: 0x0, symName: __RNvMNtCs9f3LFPSIp77_4core3stre8is_emptyCsgVYDIa60Vvp_12actix_macros, symObjAddr: 0x2904, symBinAddr: 0x5168, symSize: 0x1C }
  - { offset: 0x87EF, size: 0x8, addend: 0x0, symName: __RNvXs_NtNtCs9f3LFPSIp77_4core3str6traitseNtNtB8_3cmp9PartialEq2eqCsgVYDIa60Vvp_12actix_macros, symObjAddr: 0x4D1C, symBinAddr: 0x7580, symSize: 0x64 }
  - { offset: 0x88F1, size: 0x8, addend: 0x0, symName: __RNvNtCs9f3LFPSIp77_4core10intrinsics8unlikelyCsgVYDIa60Vvp_12actix_macros, symObjAddr: 0x2FBC, symBinAddr: 0x5820, symSize: 0x10 }
  - { offset: 0x8924, size: 0x8, addend: 0x0, symName: __RNvNvNtCs9f3LFPSIp77_4core10intrinsics19copy_nonoverlapping18precondition_checkCsgVYDIa60Vvp_12actix_macros, symObjAddr: 0x382C, symBinAddr: 0x6090, symSize: 0x1EC }
  - { offset: 0x8C38, size: 0x8, addend: 0x0, symName: __RNvNvMNtNtCs9f3LFPSIp77_4core5alloc6layoutNtB4_6Layout25from_size_align_unchecked18precondition_checkCsgVYDIa60Vvp_12actix_macros, symObjAddr: 0x36E8, symBinAddr: 0x5F4C, symSize: 0x50 }
  - { offset: 0x8D28, size: 0x8, addend: 0x0, symName: __RNvNvNtCs9f3LFPSIp77_4core9ub_checks17is_nonoverlapping7runtimeCsgVYDIa60Vvp_12actix_macros, symObjAddr: 0x3B20, symBinAddr: 0x6384, symSize: 0xE4 }
  - { offset: 0x9222, size: 0x8, addend: 0x0, symName: __RNCINvNtNtCsjLJ1XWNSM6u_10proc_macro6bridge6client10run_clientTNtB4_11TokenStreamBZ_EINtNtCs9f3LFPSIp77_4core6option6OptionBZ_ENCNCINvMs8_B4_INtB4_6ClientTNtB8_11TokenStreamB2t_EB2t_E7expand2NvCsgVYDIa60Vvp_12actix_macros4mainE00E0B35_, symObjAddr: 0x1F2C, symBinAddr: 0x4790, symSize: 0x3FC }
  - { offset: 0x977C, size: 0x8, addend: 0x0, symName: __RNCINvNtNtCsjLJ1XWNSM6u_10proc_macro6bridge6client10run_clientTNtB4_11TokenStreamBZ_EINtNtCs9f3LFPSIp77_4core6option6OptionBZ_ENCNCINvMs8_B4_INtB4_6ClientTNtB8_11TokenStreamB2t_EB2t_E7expand2NvCsgVYDIa60Vvp_12actix_macros4testE00E0B35_, symObjAddr: 0x2328, symBinAddr: 0x4B8C, symSize: 0x3FC }
  - { offset: 0x9CDB, size: 0x8, addend: 0x0, symName: __RNCNCINvNtNtCsjLJ1XWNSM6u_10proc_macro6bridge6client10run_clientTNtB6_11TokenStreamB11_EINtNtCs9f3LFPSIp77_4core6option6OptionB11_ENCNCINvMs8_B6_INtB6_6ClientTNtBa_11TokenStreamB2x_EB2x_E7expand2NvCsgVYDIa60Vvp_12actix_macros4mainE00E00B39_, symObjAddr: 0x2810, symBinAddr: 0x5074, symSize: 0x24 }
  - { offset: 0x9D36, size: 0x8, addend: 0x0, symName: __RNCNCINvNtNtCsjLJ1XWNSM6u_10proc_macro6bridge6client10run_clientTNtB6_11TokenStreamB11_EINtNtCs9f3LFPSIp77_4core6option6OptionB11_ENCNCINvMs8_B6_INtB6_6ClientTNtBa_11TokenStreamB2x_EB2x_E7expand2NvCsgVYDIa60Vvp_12actix_macros4testE00E00B39_, symObjAddr: 0x2834, symBinAddr: 0x5098, symSize: 0x24 }
  - { offset: 0x9E04, size: 0x8, addend: 0x0, symName: __RNCNCINvMs8_NtNtCsjLJ1XWNSM6u_10proc_macro6bridge6clientINtBa_6ClientTNtBe_11TokenStreamB16_EB16_E7expand2NvCsgVYDIa60Vvp_12actix_macros4mainE00B1I_, symObjAddr: 0x2788, symBinAddr: 0x4FEC, symSize: 0x44 }
  - { offset: 0x9E73, size: 0x8, addend: 0x0, symName: __RNCNCINvMs8_NtNtCsjLJ1XWNSM6u_10proc_macro6bridge6clientINtBa_6ClientTNtBe_11TokenStreamB16_EB16_E7expand2NvCsgVYDIa60Vvp_12actix_macros4testE00B1I_, symObjAddr: 0x27CC, symBinAddr: 0x5030, symSize: 0x44 }
  - { offset: 0x9EE3, size: 0x8, addend: 0x0, symName: __RNCINvMs8_NtNtCsjLJ1XWNSM6u_10proc_macro6bridge6clientINtB8_6ClientTNtBc_11TokenStreamB14_EB14_E7expand2NvCsgVYDIa60Vvp_12actix_macros4mainE0B1G_, symObjAddr: 0x1ECC, symBinAddr: 0x4730, symSize: 0x30 }
  - { offset: 0x9F2B, size: 0x8, addend: 0x0, symName: __RNCINvMs8_NtNtCsjLJ1XWNSM6u_10proc_macro6bridge6clientINtB8_6ClientTNtBc_11TokenStreamB14_EB14_E7expand2NvCsgVYDIa60Vvp_12actix_macros4testE0B1G_, symObjAddr: 0x1EFC, symBinAddr: 0x4760, symSize: 0x30 }
  - { offset: 0x9F9B, size: 0x8, addend: 0x0, symName: __RINvNtNtCsjLJ1XWNSM6u_10proc_macro6bridge6client10run_clientTNtB2_11TokenStreamBX_EINtNtCs9f3LFPSIp77_4core6option6OptionBX_ENCNCINvMs8_B2_INtB2_6ClientTNtB6_11TokenStreamB2r_EB2r_E7expand2NvCsgVYDIa60Vvp_12actix_macros4mainE00EB33_, symObjAddr: 0x11A4, symBinAddr: 0x3A08, symSize: 0x21C }
  - { offset: 0xA15A, size: 0x8, addend: 0x0, symName: __RINvNtNtCsjLJ1XWNSM6u_10proc_macro6bridge6client10run_clientTNtB2_11TokenStreamBX_EINtNtCs9f3LFPSIp77_4core6option6OptionBX_ENCNCINvMs8_B2_INtB2_6ClientTNtB6_11TokenStreamB2r_EB2r_E7expand2NvCsgVYDIa60Vvp_12actix_macros4testE00EB33_, symObjAddr: 0x13C0, symBinAddr: 0x3C24, symSize: 0x21C }
  - { offset: 0xA34B, size: 0x8, addend: 0x0, symName: __RINvNtNtNtCsjLJ1XWNSM6u_10proc_macro6bridge6client5state3setINtNtCs9f3LFPSIp77_4core6option6OptionNtB4_11TokenStreamENCNCINvB4_10run_clientTB1y_B1y_EBW_NCNCINvMs8_B4_INtB4_6ClientTNtB8_11TokenStreamB2S_EB2S_E7expand2NvCsgVYDIa60Vvp_12actix_macros4mainE00E00EB3u_, symObjAddr: 0x1810, symBinAddr: 0x4074, symSize: 0x12C }
  - { offset: 0xA43F, size: 0x8, addend: 0x0, symName: __RINvNtNtNtCsjLJ1XWNSM6u_10proc_macro6bridge6client5state3setINtNtCs9f3LFPSIp77_4core6option6OptionNtB4_11TokenStreamENCNCINvB4_10run_clientTB1y_B1y_EBW_NCNCINvMs8_B4_INtB4_6ClientTNtB8_11TokenStreamB2S_EB2S_E7expand2NvCsgVYDIa60Vvp_12actix_macros4testE00E00EB3u_, symObjAddr: 0x193C, symBinAddr: 0x41A0, symSize: 0x12C }
  - { offset: 0xA53D, size: 0x8, addend: 0x0, symName: __RNCNkNvNtNtNtCsjLJ1XWNSM6u_10proc_macro6bridge6client5state12BRIDGE_STATE0s_0CsgVYDIa60Vvp_12actix_macros, symObjAddr: 0x2858, symBinAddr: 0x50BC, symSize: 0x34 }
  - { offset: 0xA5E1, size: 0x8, addend: 0x0, symName: __RNvXsh_NtNtCsjLJ1XWNSM6u_10proc_macro6bridge6clientNtB5_11TokenStreamINtNtB7_3rpc6EncodeuE6encodeCsgVYDIa60Vvp_12actix_macros, symObjAddr: 0x4E88, symBinAddr: 0x76EC, symSize: 0x50 }
  - { offset: 0xA6FB, size: 0x8, addend: 0x0, symName: __RNvXsk_NtNtCsjLJ1XWNSM6u_10proc_macro6bridge6clientNtB5_11TokenStreamINtNtB7_3rpc9DecodeMutuE6decodeCsgVYDIa60Vvp_12actix_macros, symObjAddr: 0x4ED8, symBinAddr: 0x773C, symSize: 0x2C }
  - { offset: 0xA744, size: 0x8, addend: 0x0, symName: __RNvXsr_NtNtCsjLJ1XWNSM6u_10proc_macro6bridge6clientNtB5_4SpanINtNtB7_3rpc9DecodeMutuE6decodeCsgVYDIa60Vvp_12actix_macros, symObjAddr: 0x5424, symBinAddr: 0x7C88, symSize: 0x2C }
  - { offset: 0xAC9C, size: 0x8, addend: 0x0, symName: __RNvXNtNtCsjLJ1XWNSM6u_10proc_macro6bridge3rpcuINtB2_6EncodeuE6encodeCsgVYDIa60Vvp_12actix_macros, symObjAddr: 0x3E68, symBinAddr: 0x66CC, symSize: 0x14 }
  - { offset: 0xACF1, size: 0x8, addend: 0x0, symName: __RNvXs7_NtNtCsjLJ1XWNSM6u_10proc_macro6bridge3rpcINtNtNtCs9f3LFPSIp77_4core3num7nonzero7NonZeromEINtB5_9DecodeMutuE6decodeCsgVYDIa60Vvp_12actix_macros, symObjAddr: 0x46E8, symBinAddr: 0x6F4C, symSize: 0x5C }
  - { offset: 0xAD74, size: 0x8, addend: 0x0, symName: __RNvXs9_NtNtCsjLJ1XWNSM6u_10proc_macro6bridge3rpcTINtB7_11ExpnGlobalsNtNtB7_6client4SpanETNtB16_11TokenStreamB1p_EEINtB5_9DecodeMutuE6decodeCsgVYDIa60Vvp_12actix_macros, symObjAddr: 0x4744, symBinAddr: 0x6FA8, symSize: 0x90 }
  - { offset: 0xADC9, size: 0x8, addend: 0x0, symName: __RNvXs9_NtNtCsjLJ1XWNSM6u_10proc_macro6bridge3rpcTNtNtB7_6client11TokenStreamBL_EINtB5_9DecodeMutuE6decodeCsgVYDIa60Vvp_12actix_macros, symObjAddr: 0x47D4, symBinAddr: 0x7038, symSize: 0x80 }
  - { offset: 0xAF0C, size: 0x8, addend: 0x0, symName: __RNvXsa_NtNtCsjLJ1XWNSM6u_10proc_macro6bridge3rpcRShINtB5_6EncodeuE6encodeCsgVYDIa60Vvp_12actix_macros, symObjAddr: 0x4D80, symBinAddr: 0x75E4, symSize: 0xD0 }
  - { offset: 0xB017, size: 0x8, addend: 0x0, symName: __RNvXsc_NtNtCsjLJ1XWNSM6u_10proc_macro6bridge3rpcReINtB5_6EncodeuE6encodeCsgVYDIa60Vvp_12actix_macros, symObjAddr: 0x4E50, symBinAddr: 0x76B4, symSize: 0x38 }
  - { offset: 0xB0D9, size: 0x8, addend: 0x0, symName: __RNvXsl_NtNtCsjLJ1XWNSM6u_10proc_macro6bridge3rpcNtB5_12PanicMessageINtB5_6EncodeuE6encodeCsgVYDIa60Vvp_12actix_macros, symObjAddr: 0x4F04, symBinAddr: 0x7768, symSize: 0x140 }
  - { offset: 0xB321, size: 0x8, addend: 0x0, symName: __RNvXso_NtNtCsjLJ1XWNSM6u_10proc_macro6bridge3rpcmINtB5_9DecodeMutuE6decodeCsgVYDIa60Vvp_12actix_macros, symObjAddr: 0x5258, symBinAddr: 0x7ABC, symSize: 0x114 }
  - { offset: 0xB51B, size: 0x8, addend: 0x0, symName: __RINvNvNtNtCsjLJ1XWNSM6u_10proc_macro6bridge14selfless_reify31reify_to_extern_c_fn_hrt_bridge7wrapperNtNtB6_6buffer6BufferNCINvMs8_NtB6_6clientINtB24_6ClientTNtB8_11TokenStreamB2v_EB2v_E7expand2NvCsgVYDIa60Vvp_12actix_macros4mainE0EB37_, symObjAddr: 0x1BF8, symBinAddr: 0x445C, symSize: 0x4C }
  - { offset: 0xB576, size: 0x8, addend: 0x0, symName: __RINvNvNtNtCsjLJ1XWNSM6u_10proc_macro6bridge14selfless_reify31reify_to_extern_c_fn_hrt_bridge7wrapperNtNtB6_6buffer6BufferNCINvMs8_NtB6_6clientINtB24_6ClientTNtB8_11TokenStreamB2v_EB2v_E7expand2NvCsgVYDIa60Vvp_12actix_macros4testE0EB37_, symObjAddr: 0x1C44, symBinAddr: 0x44A8, symSize: 0x4C }
  - { offset: 0xB5D8, size: 0x8, addend: 0x0, symName: __RNvXs1J_NtCsjLJ1XWNSM6u_10proc_macro6bridgeINtB6_11ExpnGlobalsNtNtB6_6client4SpanEINtNtB6_3rpc9DecodeMutuE6decodeCsgVYDIa60Vvp_12actix_macros, symObjAddr: 0x3F90, symBinAddr: 0x67F4, symSize: 0xB0 }
  - { offset: 0xB62A, size: 0x8, addend: 0x0, symName: __RNvXsR_NtCsjLJ1XWNSM6u_10proc_macro6bridgeINtNtCs9f3LFPSIp77_4core6option6OptionNtNtB5_6client11TokenStreamEINtNtB5_3rpc6EncodeuE6encodeCsgVYDIa60Vvp_12actix_macros, symObjAddr: 0x4904, symBinAddr: 0x7168, symSize: 0xCC }
  - { offset: 0xB6CE, size: 0x8, addend: 0x0, symName: __RNvXsR_NtCsjLJ1XWNSM6u_10proc_macro6bridgeINtNtCs9f3LFPSIp77_4core6option6OptionReEINtNtB5_3rpc6EncodeuE6encodeCsgVYDIa60Vvp_12actix_macros, symObjAddr: 0x49D0, symBinAddr: 0x7234, symSize: 0xD8 }
  - { offset: 0xB779, size: 0x8, addend: 0x0, symName: __RNvXsV_NtCsjLJ1XWNSM6u_10proc_macro6bridgeINtNtCs9f3LFPSIp77_4core6result6ResultINtNtBJ_6option6OptionNtNtB5_6client11TokenStreamEuEINtNtB5_3rpc6EncodeuE6encodeCsgVYDIa60Vvp_12actix_macros, symObjAddr: 0x4AA8, symBinAddr: 0x730C, symSize: 0x108 }
  - { offset: 0xB83A, size: 0x8, addend: 0x0, symName: __RNvXsV_NtCsjLJ1XWNSM6u_10proc_macro6bridgeINtNtCs9f3LFPSIp77_4core6result6ResultuNtNtB5_3rpc12PanicMessageEINtB1j_6EncodeuE6encodeCsgVYDIa60Vvp_12actix_macros, symObjAddr: 0x4BB0, symBinAddr: 0x7414, symSize: 0x12C }
  - { offset: 0xBB54, size: 0x8, addend: 0x0, symName: __RINvXsj_CsjLJ1XWNSM6u_10proc_macroNtB6_11TokenStreamINtNtNtNtCs9f3LFPSIp77_4core4iter6traits7collect6ExtendNtB6_9TokenTreeE6extendBw_ECsgVYDIa60Vvp_12actix_macros, symObjAddr: 0x1C90, symBinAddr: 0x44F4, symSize: 0x10C }
  - { offset: 0xBBC7, size: 0x8, addend: 0x0, symName: __RNCINvXsj_CsjLJ1XWNSM6u_10proc_macroNtB8_11TokenStreamINtNtNtNtCs9f3LFPSIp77_4core4iter6traits7collect6ExtendNtB8_9TokenTreeE6extendBy_E0CsgVYDIa60Vvp_12actix_macros, symObjAddr: 0x2760, symBinAddr: 0x4FC4, symSize: 0x28 }
  - { offset: 0xBC27, size: 0x8, addend: 0x0, symName: __RNvXs10_CsjLJ1XWNSM6u_10proc_macroNtB6_11TokenStreamNtNtCs9f3LFPSIp77_4core5clone5Clone5cloneCsgVYDIa60Vvp_12actix_macros, symObjAddr: 0x3EB8, symBinAddr: 0x671C, symSize: 0x64 }
  - { offset: 0xC292, size: 0x8, addend: 0x0, symName: __RINvCsATtFUPiRFW_3syn5parseNtNtB2_4item6ItemFnECsgVYDIa60Vvp_12actix_macros, symObjAddr: 0x0, symBinAddr: 0x2864, symSize: 0x30 }
  - { offset: 0xC2C9, size: 0x8, addend: 0x0, symName: __RINvCsATtFUPiRFW_3syn9parse_strNtNtB2_4path4PathECsgVYDIa60Vvp_12actix_macros, symObjAddr: 0x30, symBinAddr: 0x2894, symSize: 0x38 }
  - { offset: 0x11353, size: 0x8, addend: 0x0, symName: __RNvXs0_NtCsATtFUPiRFW_3syn5dropsINtB5_6NoDropDINtNtB7_10punctuated9IterTraitNtNtB7_4attr4MetaEp4ItemRB1c_EL_ENtNtNtCs9f3LFPSIp77_4core3ops5deref8DerefMut9deref_mutCsgVYDIa60Vvp_12actix_macros, symObjAddr: 0x3E7C, symBinAddr: 0x66E0, symSize: 0x3C }
  - { offset: 0x11CFD, size: 0x8, addend: 0x0, symName: __RNvXs6_NtCsdze8u8oDPro_5alloc3vecINtB5_3VecTNtNtCsATtFUPiRFW_3syn4attr4MetaNtNtBK_5token5CommaEENtNtNtCs9f3LFPSIp77_4core3ops5deref5Deref5derefCsgVYDIa60Vvp_12actix_macros, symObjAddr: 0x4388, symBinAddr: 0x6BEC, symSize: 0x24 }
  - { offset: 0x11D43, size: 0x8, addend: 0x0, symName: __RNvXsn_NtCsdze8u8oDPro_5alloc3vecINtB5_3VecTNtNtCsATtFUPiRFW_3syn4attr4MetaNtNtBK_5token5CommaEENtNtNtCs9f3LFPSIp77_4core3ops4drop4Drop4dropCsgVYDIa60Vvp_12actix_macros, symObjAddr: 0x5044, symBinAddr: 0x78A8, symSize: 0x50 }
  - { offset: 0x12789, size: 0x8, addend: 0x0, symName: __RNvXs2_NtCsdze8u8oDPro_5alloc7raw_vecINtB5_6RawVecTNtNtCsATtFUPiRFW_3syn4attr4MetaNtNtBR_5token5CommaEENtNtNtCs9f3LFPSIp77_4core3ops4drop4Drop4dropCsgVYDIa60Vvp_12actix_macros, symObjAddr: 0x42AC, symBinAddr: 0x6B10, symSize: 0x34 }
  - { offset: 0x12869, size: 0x8, addend: 0x0, symName: __RNvXs1B_NtCsdze8u8oDPro_5alloc6stringReNtB6_8ToString9to_stringCsgVYDIa60Vvp_12actix_macros, symObjAddr: 0x3F34, symBinAddr: 0x6798, symSize: 0x5C }
  - { offset: 0x129B8, size: 0x8, addend: 0x0, symName: __RNvXsq_NtCsdze8u8oDPro_5alloc6stringNtB5_6StringNtNtNtCs9f3LFPSIp77_4core3ops5deref5Deref5derefCsgVYDIa60Vvp_12actix_macros, symObjAddr: 0x5400, symBinAddr: 0x7C64, symSize: 0x24 }
  - { offset: 0x12A61, size: 0x8, addend: 0x0, symName: __RNvXs18_NtCsdze8u8oDPro_5alloc5boxedINtB6_3BoxNtNtCsATtFUPiRFW_3syn4attr4MetaEINtNtCs9f3LFPSIp77_4core7convert5AsRefBI_E6as_refCsgVYDIa60Vvp_12actix_macros, symObjAddr: 0x3F1C, symBinAddr: 0x6780, symSize: 0x18 }
  - { offset: 0x12AA7, size: 0x8, addend: 0x0, symName: __RNvXs6_NtCsdze8u8oDPro_5alloc5boxedINtB5_3BoxDNtNtCs9f3LFPSIp77_4core5error5ErrorNtNtBM_6marker4SendNtB1j_4SyncEL_ENtNtNtBM_3ops4drop4Drop4dropCsgVYDIa60Vvp_12actix_macros, symObjAddr: 0x43AC, symBinAddr: 0x6C10, symSize: 0xC4 }
  - { offset: 0x12C25, size: 0x8, addend: 0x0, symName: __RNvXs6_NtCsdze8u8oDPro_5alloc5boxedINtB5_3BoxINtNtCsATtFUPiRFW_3syn5drops6NoDropDINtNtBM_10punctuated9IterTraitNtNtBM_4attr4MetaEp4ItemRB1L_EL_EENtNtNtCs9f3LFPSIp77_4core3ops4drop4Drop4dropCsgVYDIa60Vvp_12actix_macros, symObjAddr: 0x4470, symBinAddr: 0x6CD4, symSize: 0x118 }
  - { offset: 0x12DA3, size: 0x8, addend: 0x0, symName: __RNvXs6_NtCsdze8u8oDPro_5alloc5boxedINtB5_3BoxNtNtCsATtFUPiRFW_3syn4attr4MetaENtNtNtCs9f3LFPSIp77_4core3ops4drop4Drop4dropCsgVYDIa60Vvp_12actix_macros, symObjAddr: 0x4588, symBinAddr: 0x6DEC, symSize: 0xB0 }
  - { offset: 0x12F21, size: 0x8, addend: 0x0, symName: __RNvXs6_NtCsdze8u8oDPro_5alloc5boxedINtB5_3BoxNtNtNtCs27l1GJC5rMQ_3std2io5error6CustomENtNtNtCs9f3LFPSIp77_4core3ops4drop4Drop4dropCsgVYDIa60Vvp_12actix_macros, symObjAddr: 0x4638, symBinAddr: 0x6E9C, symSize: 0xB0 }
  - { offset: 0x1311B, size: 0x8, addend: 0x0, symName: __RNvNtCsdze8u8oDPro_5alloc3fmt6formatCsgVYDIa60Vvp_12actix_macros, symObjAddr: 0x2FCC, symBinAddr: 0x5830, symSize: 0xD4 }
  - { offset: 0x137A8, size: 0x8, addend: 0x0, symName: __RINvMNtCs9f3LFPSIp77_4core6optionINtB3_6OptionRINtNtCsdze8u8oDPro_5alloc5boxed3BoxNtNtCsATtFUPiRFW_3syn4attr4MetaEE3mapRB1i_NvYBJ_INtNtB5_7convert5AsRefB1i_E6as_refECsgVYDIa60Vvp_12actix_macros, symObjAddr: 0x68, symBinAddr: 0x28CC, symSize: 0x50 }
  - { offset: 0x13840, size: 0x8, addend: 0x0, symName: __RINvMNtCs9f3LFPSIp77_4core6optionINtB3_6OptionRNtCs475r2uZUTuc_11proc_macro25IdentE3mapNtNtCsdze8u8oDPro_5alloc6string6StringNCNvCsgVYDIa60Vvp_12actix_macros4main0EB23_, symObjAddr: 0xB8, symBinAddr: 0x291C, symSize: 0x6C }
  - { offset: 0x138AB, size: 0x8, addend: 0x0, symName: __RINvMNtCs9f3LFPSIp77_4core6optionINtB3_6OptionRNtCs475r2uZUTuc_11proc_macro25IdentE3mapNtNtCsdze8u8oDPro_5alloc6string6StringNCNvCsgVYDIa60Vvp_12actix_macros4test0EB23_, symObjAddr: 0x124, symBinAddr: 0x2988, symSize: 0x6C }
  - { offset: 0x13923, size: 0x8, addend: 0x0, symName: __RINvMNtCs9f3LFPSIp77_4core6optionINtB3_6OptionRNtNtCsATtFUPiRFW_3syn4attr4MetaE7or_elseNCNvXsw_NtBN_10punctuatedINtB1v_11PrivateIterBJ_NtNtBN_5token5CommaENtNtNtNtB5_4iter6traits8iterator8Iterator4nexts_0ECsgVYDIa60Vvp_12actix_macros, symObjAddr: 0x190, symBinAddr: 0x29F4, symSize: 0xA8 }
  - { offset: 0x139CA, size: 0x8, addend: 0x0, symName: __RINvMNtCs9f3LFPSIp77_4core6optionINtB3_6OptionRNtNtCsATtFUPiRFW_3syn4attr4MetaE7or_elseNCNvXsx_NtBN_10punctuatedINtB1v_11PrivateIterBJ_NtNtBN_5token5CommaENtNtNtNtB5_4iter6traits12double_ended19DoubleEndedIterator9next_back0ECsgVYDIa60Vvp_12actix_macros, symObjAddr: 0x238, symBinAddr: 0x2A9C, symSize: 0xA8 }
  - { offset: 0x13A2C, size: 0x8, addend: 0x0, symName: __RINvMNtCs9f3LFPSIp77_4core6optionINtB3_6OptionRTNtNtCsATtFUPiRFW_3syn4attr4MetaNtNtBO_5token5CommaEE3mapRBK_NCNCNvXsx_NtBO_10punctuatedINtB1S_11PrivateIterBK_B1f_ENtNtNtNtB5_4iter6traits12double_ended19DoubleEndedIterator9next_back00ECsgVYDIa60Vvp_12actix_macros, symObjAddr: 0x2E0, symBinAddr: 0x2B44, symSize: 0x50 }
  - { offset: 0x13A97, size: 0x8, addend: 0x0, symName: __RINvMNtCs9f3LFPSIp77_4core6optionINtB3_6OptionRTNtNtCsATtFUPiRFW_3syn4attr4MetaNtNtBO_5token5CommaEE3mapRBK_NCNvXsw_NtBO_10punctuatedINtB1Q_11PrivateIterBK_B1f_ENtNtNtNtB5_4iter6traits8iterator8Iterator4next0ECsgVYDIa60Vvp_12actix_macros, symObjAddr: 0x330, symBinAddr: 0x2B94, symSize: 0x50 }
  - { offset: 0x13C59, size: 0x8, addend: 0x0, symName: __RINvMNtCsATtFUPiRFW_3syn3litNtB3_6LitStr10parse_withNvYNtNtB5_4path4PathNtNtB5_5parse5Parse5parseECsgVYDIa60Vvp_12actix_macros, symObjAddr: 0x380, symBinAddr: 0x2BE4, symSize: 0x45C }
  - { offset: 0x13DD5, size: 0x8, addend: 0x0, symName: __RINvMNtCsATtFUPiRFW_3syn3litNtB3_6LitStr5parseNtNtB5_4path4PathECsgVYDIa60Vvp_12actix_macros, symObjAddr: 0x7DC, symBinAddr: 0x3040, symSize: 0x34 }
  - { offset: 0x13E00, size: 0x8, addend: 0x0, symName: __RINvMNtCsATtFUPiRFW_3syn5errorNtB3_5Error11new_spannedNtNtB5_5token2FnReECsgVYDIa60Vvp_12actix_macros, symObjAddr: 0x810, symBinAddr: 0x3074, symSize: 0xC0 }
  - { offset: 0x13E42, size: 0x8, addend: 0x0, symName: __RINvMNtCsATtFUPiRFW_3syn5errorNtB3_5Error11new_spannedRNtNtB5_3lit6LitStrReECsgVYDIa60Vvp_12actix_macros, symObjAddr: 0x8D0, symBinAddr: 0x3134, symSize: 0xC4 }
  - { offset: 0x13E84, size: 0x8, addend: 0x0, symName: __RINvMNtCsATtFUPiRFW_3syn5errorNtB3_5Error11new_spannedRNtNtB5_4attr4MetaReECsgVYDIa60Vvp_12actix_macros, symObjAddr: 0x994, symBinAddr: 0x31F8, symSize: 0xC4 }
  - { offset: 0x13F52, size: 0x8, addend: 0x0, symName: __RINvMs2_NtNtCs27l1GJC5rMQ_3std6thread5localINtB6_8LocalKeyINtNtCs9f3LFPSIp77_4core4cell4CellPuEE8try_withNCNvMs3_B6_BF_7replace0B1s_ECsgVYDIa60Vvp_12actix_macros, symObjAddr: 0xA58, symBinAddr: 0x32BC, symSize: 0xE8 }
  - { offset: 0x14CC7, size: 0x8, addend: 0x0, symName: __RNvMNtCs9f3LFPSIp77_4core6optionINtB2_6OptionINtNtCsdze8u8oDPro_5alloc5boxed3BoxNtNtCsATtFUPiRFW_3syn4attr4MetaEE4takeCsgVYDIa60Vvp_12actix_macros, symObjAddr: 0x29EC, symBinAddr: 0x5250, symSize: 0x2C }
  - { offset: 0x14D80, size: 0x8, addend: 0x0, symName: __RNvMNtCs9f3LFPSIp77_4core6optionINtB2_6OptionINtNtCsdze8u8oDPro_5alloc5boxed3BoxNtNtCsATtFUPiRFW_3syn4attr4MetaEE6as_refCsgVYDIa60Vvp_12actix_macros, symObjAddr: 0x2A18, symBinAddr: 0x527C, symSize: 0x4C }
  - { offset: 0x14DE6, size: 0x8, addend: 0x0, symName: __RNvMNtCs9f3LFPSIp77_4core6optionINtB2_6OptionINtNtCsdze8u8oDPro_5alloc5boxed3BoxNtNtCsATtFUPiRFW_3syn4attr4MetaEE7is_noneCsgVYDIa60Vvp_12actix_macros, symObjAddr: 0x2A64, symBinAddr: 0x52C8, symSize: 0x4C }
  - { offset: 0x14E30, size: 0x8, addend: 0x0, symName: __RNvMNtCs9f3LFPSIp77_4core6optionINtB2_6OptionINtNtCsdze8u8oDPro_5alloc5boxed3BoxNtNtCsATtFUPiRFW_3syn4attr4MetaEE7is_someCsgVYDIa60Vvp_12actix_macros, symObjAddr: 0x2AB0, symBinAddr: 0x5314, symSize: 0x48 }
  - { offset: 0x14E85, size: 0x8, addend: 0x0, symName: __RNvMNtCs9f3LFPSIp77_4core6optionINtB2_6OptionNtNtCsATtFUPiRFW_3syn5token5AsyncE7is_noneCsgVYDIa60Vvp_12actix_macros, symObjAddr: 0x2AF8, symBinAddr: 0x535C, symSize: 0x44 }
  - { offset: 0x14F5D, size: 0x8, addend: 0x0, symName: __RNvMNtCs9f3LFPSIp77_4core6optionINtB2_6OptionNtNtCsdze8u8oDPro_5alloc6string6StringE8as_derefCsgVYDIa60Vvp_12actix_macros, symObjAddr: 0x2B3C, symBinAddr: 0x53A0, symSize: 0x78 }
  - { offset: 0x15007, size: 0x8, addend: 0x0, symName: __RNvMNtCs9f3LFPSIp77_4core6resultINtB2_6ResultPuNtNtNtCs27l1GJC5rMQ_3std6thread5local11AccessErrorE6expectCsgVYDIa60Vvp_12actix_macros, symObjAddr: 0x2BB4, symBinAddr: 0x5418, symSize: 0x84 }
  - { offset: 0x15083, size: 0x8, addend: 0x0, symName: __RNvMNtCsATtFUPiRFW_3syn5dropsINtB2_6NoDropINtNtB4_10punctuated11PrivateIterNtNtB4_4attr4MetaNtNtB4_5token5CommaEE3newCsgVYDIa60Vvp_12actix_macros, symObjAddr: 0x2C38, symBinAddr: 0x549C, symSize: 0x40 }
  - { offset: 0x15136, size: 0x8, addend: 0x0, symName: __RNvMNtCsdze8u8oDPro_5alloc3vecINtB2_3VecTNtNtCsATtFUPiRFW_3syn4attr4MetaNtNtBH_5token5CommaEE3newCsgVYDIa60Vvp_12actix_macros, symObjAddr: 0x2C78, symBinAddr: 0x54DC, symSize: 0x28 }
  - { offset: 0x152DE, size: 0x8, addend: 0x0, symName: __RNvMNtCsdze8u8oDPro_5alloc6stringNtB2_6String6as_strCsgVYDIa60Vvp_12actix_macros, symObjAddr: 0x2CA0, symBinAddr: 0x5504, symSize: 0x88 }
  - { offset: 0x154B3, size: 0x8, addend: 0x0, symName: __RNvMs1_NtCsdze8u8oDPro_5alloc7raw_vecINtB5_6RawVecTNtNtCsATtFUPiRFW_3syn4attr4MetaNtNtBR_5token5CommaEE8grow_oneCsgVYDIa60Vvp_12actix_macros, symObjAddr: 0x2D28, symBinAddr: 0x558C, symSize: 0x88 }
  - { offset: 0x155AF, size: 0x8, addend: 0x0, symName: __RNvMs4_NtNtCs9f3LFPSIp77_4core5slice4iterINtB5_4IterTNtNtCsATtFUPiRFW_3syn4attr4MetaNtNtBT_5token5CommaEE3newCsgVYDIa60Vvp_12actix_macros, symObjAddr: 0x2DB0, symBinAddr: 0x5614, symSize: 0x58 }
  - { offset: 0x15811, size: 0x8, addend: 0x0, symName: __RNvMs_NtCsdze8u8oDPro_5alloc3vecINtB4_3VecTNtNtCsATtFUPiRFW_3syn4attr4MetaNtNtBJ_5token5CommaEE4pushCsgVYDIa60Vvp_12actix_macros, symObjAddr: 0x2E08, symBinAddr: 0x566C, symSize: 0x12C }
  - { offset: 0x15AF2, size: 0x8, addend: 0x0, symName: __RNvMs_NtCsdze8u8oDPro_5alloc3vecINtB4_3VecTNtNtCsATtFUPiRFW_3syn4attr4MetaNtNtBJ_5token5CommaEE8as_sliceCsgVYDIa60Vvp_12actix_macros, symObjAddr: 0x2F34, symBinAddr: 0x5798, symSize: 0x7C }
  - { offset: 0x15C0D, size: 0x8, addend: 0x0, symName: __RNvMsa_NtNtCsjLJ1XWNSM6u_10proc_macro6bridge6clientNtB5_14HandleCounters3getCsgVYDIa60Vvp_12actix_macros, symObjAddr: 0x2FB0, symBinAddr: 0x5814, symSize: 0xC }
  - { offset: 0x15D65, size: 0x8, addend: 0x0, symName: __RNvXNtCs62MdaZFMefA_5quote9to_tokensRINtNtCsdze8u8oDPro_5alloc5boxed3BoxNtNtCsATtFUPiRFW_3syn4stmt5BlockENtB2_8ToTokens9to_tokensCsgVYDIa60Vvp_12actix_macros, symObjAddr: 0x3D68, symBinAddr: 0x65CC, symSize: 0x40 }
  - { offset: 0x15DA4, size: 0x8, addend: 0x0, symName: __RNvXNtCs62MdaZFMefA_5quote9to_tokensRNtNtCsATtFUPiRFW_3syn11restriction10VisibilityNtB2_8ToTokens9to_tokensCsgVYDIa60Vvp_12actix_macros, symObjAddr: 0x3DA8, symBinAddr: 0x660C, symSize: 0x40 }
  - { offset: 0x15DE3, size: 0x8, addend: 0x0, symName: __RNvXNtCs62MdaZFMefA_5quote9to_tokensRNtNtCsATtFUPiRFW_3syn3lit6LitStrNtB2_8ToTokens9to_tokensCsgVYDIa60Vvp_12actix_macros, symObjAddr: 0x3DE8, symBinAddr: 0x664C, symSize: 0x40 }
  - { offset: 0x15E22, size: 0x8, addend: 0x0, symName: __RNvXNtCs62MdaZFMefA_5quote9to_tokensRNtNtCsATtFUPiRFW_3syn4attr4MetaNtB2_8ToTokens9to_tokensCsgVYDIa60Vvp_12actix_macros, symObjAddr: 0x3E28, symBinAddr: 0x668C, symSize: 0x40 }
  - { offset: 0x15E67, size: 0x8, addend: 0x0, symName: __RNvXs1_NtCs62MdaZFMefA_5quote9to_tokensINtNtCsdze8u8oDPro_5alloc5boxed3BoxNtNtCsATtFUPiRFW_3syn4stmt5BlockENtB5_8ToTokens9to_tokensCsgVYDIa60Vvp_12actix_macros, symObjAddr: 0x4040, symBinAddr: 0x68A4, symSize: 0x40 }
  - { offset: 0x15EAC, size: 0x8, addend: 0x0, symName: __RNvXs_NtCs62MdaZFMefA_5quote9to_tokensQNtNtCsATtFUPiRFW_3syn4item9SignatureNtB4_8ToTokens9to_tokensCsgVYDIa60Vvp_12actix_macros, symObjAddr: 0x4CDC, symBinAddr: 0x7540, symSize: 0x40 }
  - { offset: 0x15EF1, size: 0x8, addend: 0x0, symName: __RNvYRNtNtCsATtFUPiRFW_3syn3lit6LitStrNtNtCs62MdaZFMefA_5quote9to_tokens8ToTokens15to_token_streamCsgVYDIa60Vvp_12actix_macros, symObjAddr: 0x5714, symBinAddr: 0x7F78, symSize: 0x8C }
  - { offset: 0x15F3B, size: 0x8, addend: 0x0, symName: __RNvYRNtNtCsATtFUPiRFW_3syn3lit6LitStrNtNtCs62MdaZFMefA_5quote9to_tokens8ToTokens17into_token_streamCsgVYDIa60Vvp_12actix_macros, symObjAddr: 0x57A0, symBinAddr: 0x8004, symSize: 0x54 }
  - { offset: 0x15F70, size: 0x8, addend: 0x0, symName: __RNvYRNtNtCsATtFUPiRFW_3syn4attr4MetaNtNtCs62MdaZFMefA_5quote9to_tokens8ToTokens15to_token_streamCsgVYDIa60Vvp_12actix_macros, symObjAddr: 0x57F4, symBinAddr: 0x8058, symSize: 0x8C }
  - { offset: 0x15FBA, size: 0x8, addend: 0x0, symName: __RNvYRNtNtCsATtFUPiRFW_3syn4attr4MetaNtNtCs62MdaZFMefA_5quote9to_tokens8ToTokens17into_token_streamCsgVYDIa60Vvp_12actix_macros, symObjAddr: 0x5880, symBinAddr: 0x80E4, symSize: 0x54 }
  - { offset: 0x15FFB, size: 0x8, addend: 0x0, symName: __RNvXs4_NtCs62MdaZFMefA_5quote9___privateINtB5_9RepInterpRNtNtCsATtFUPiRFW_3syn4attr9AttributeENtNtB7_9to_tokens8ToTokens9to_tokensCsgVYDIa60Vvp_12actix_macros, symObjAddr: 0x42E0, symBinAddr: 0x6B44, symSize: 0x3C }
  - { offset: 0x16045, size: 0x8, addend: 0x0, symName: __RNvXs4_NtNtCs62MdaZFMefA_5quote9___private3extINtNtCsdze8u8oDPro_5alloc3vec3VecNtNtCsATtFUPiRFW_3syn4attr9AttributeENtB5_16RepAsIteratorExt15quote_into_iterCsgVYDIa60Vvp_12actix_macros, symObjAddr: 0x431C, symBinAddr: 0x6B80, symSize: 0x38 }
  - { offset: 0x16EBA, size: 0x8, addend: 0x0, symName: __RINvMs3_NtNtCsjLJ1XWNSM6u_10proc_macro6bridge6bufferNtB6_6Buffer17extend_from_arrayKj4_ECsgVYDIa60Vvp_12actix_macros, symObjAddr: 0x0, symBinAddr: 0x8198, symSize: 0x210 }
  - { offset: 0x17344, size: 0x8, addend: 0x0, symName: __RNCNCNvXsx_NtCsATtFUPiRFW_3syn10punctuatedINtB9_11PrivateIterNtNtBb_4attr4MetaNtNtBb_5token5CommaENtNtNtNtCs9f3LFPSIp77_4core4iter6traits12double_ended19DoubleEndedIterator9next_back00CsgVYDIa60Vvp_12actix_macros, symObjAddr: 0x450, symBinAddr: 0x85E8, symSize: 0x24 }
  - { offset: 0x17397, size: 0x8, addend: 0x0, symName: __RNCNvXsx_NtCsATtFUPiRFW_3syn10punctuatedINtB7_11PrivateIterNtNtB9_4attr4MetaNtNtB9_5token5CommaENtNtNtNtCs9f3LFPSIp77_4core4iter6traits12double_ended19DoubleEndedIterator9next_back0CsgVYDIa60Vvp_12actix_macros, symObjAddr: 0x4CC, symBinAddr: 0x8664, symSize: 0x38 }
  - { offset: 0x173DA, size: 0x8, addend: 0x0, symName: __RNvXsx_NtCsATtFUPiRFW_3syn10punctuatedINtB5_11PrivateIterNtNtB7_4attr4MetaNtNtB7_5token5CommaENtNtNtNtCs9f3LFPSIp77_4core4iter6traits12double_ended19DoubleEndedIterator9next_backCsgVYDIa60Vvp_12actix_macros, symObjAddr: 0x2600, symBinAddr: 0xA798, symSize: 0x40 }
  - { offset: 0x17425, size: 0x8, addend: 0x0, symName: __RNCNvXsw_NtCsATtFUPiRFW_3syn10punctuatedINtB7_11PrivateIterNtNtB9_4attr4MetaNtNtB9_5token5CommaENtNtNtNtCs9f3LFPSIp77_4core4iter6traits8iterator8Iterator4next0CsgVYDIa60Vvp_12actix_macros, symObjAddr: 0x474, symBinAddr: 0x860C, symSize: 0x24 }
  - { offset: 0x17470, size: 0x8, addend: 0x0, symName: __RNCNvXsw_NtCsATtFUPiRFW_3syn10punctuatedINtB7_11PrivateIterNtNtB9_4attr4MetaNtNtB9_5token5CommaENtNtNtNtCs9f3LFPSIp77_4core4iter6traits8iterator8Iterator4nexts_0CsgVYDIa60Vvp_12actix_macros, symObjAddr: 0x498, symBinAddr: 0x8630, symSize: 0x34 }
  - { offset: 0x174BA, size: 0x8, addend: 0x0, symName: __RNvXsw_NtCsATtFUPiRFW_3syn10punctuatedINtB5_11PrivateIterNtNtB7_4attr4MetaNtNtB7_5token5CommaENtNtNtNtCs9f3LFPSIp77_4core4iter6traits8iterator8Iterator4nextCsgVYDIa60Vvp_12actix_macros, symObjAddr: 0x25BC, symBinAddr: 0xA754, symSize: 0x44 }
  - { offset: 0x17666, size: 0x8, addend: 0x0, symName: __RNvXs9_NtCsATtFUPiRFW_3syn10punctuatedRINtB5_10PunctuatedNtNtB7_4attr4MetaNtNtB7_5token5CommaENtNtNtNtCs9f3LFPSIp77_4core4iter6traits7collect12IntoIterator9into_iterCsgVYDIa60Vvp_12actix_macros, symObjAddr: 0x1624, symBinAddr: 0x97BC, symSize: 0x34 }
  - { offset: 0x176AC, size: 0x8, addend: 0x0, symName: __RNvXsA_NtCsATtFUPiRFW_3syn10punctuatedINtB5_11PrivateIterNtNtB7_4attr4MetaNtNtB7_5token5CommaEINtB5_9IterTraitBT_E9clone_boxCsgVYDIa60Vvp_12actix_macros, symObjAddr: 0x1658, symBinAddr: 0x97F0, symSize: 0x94 }
  - { offset: 0x17710, size: 0x8, addend: 0x0, symName: __RNvXst_NtCsATtFUPiRFW_3syn10punctuatedINtB5_4IterNtNtB7_4attr4MetaENtNtNtNtCs9f3LFPSIp77_4core4iter6traits8iterator8Iterator4nextCsgVYDIa60Vvp_12actix_macros, symObjAddr: 0x2574, symBinAddr: 0xA70C, symSize: 0x48 }
  - { offset: 0x1774D, size: 0x8, addend: 0x0, symName: __RNvXsy_NtCsATtFUPiRFW_3syn10punctuatedINtB5_11PrivateIterNtNtB7_4attr4MetaNtNtB7_5token5CommaENtNtNtNtCs9f3LFPSIp77_4core4iter6traits10exact_size17ExactSizeIterator3lenCsgVYDIa60Vvp_12actix_macros, symObjAddr: 0x2640, symBinAddr: 0xA7D8, symSize: 0xC4 }
  - { offset: 0x1783D, size: 0x8, addend: 0x0, symName: __RNvXsz_NtCsATtFUPiRFW_3syn10punctuatedINtB5_11PrivateIterNtNtB7_4attr4MetaNtNtB7_5token5CommaENtNtCs9f3LFPSIp77_4core5clone5Clone5cloneCsgVYDIa60Vvp_12actix_macros, symObjAddr: 0x2704, symBinAddr: 0xA89C, symSize: 0x68 }
  - { offset: 0x1C101, size: 0x8, addend: 0x0, symName: __RINvNtCsATtFUPiRFW_3syn5parse12parse_scopedNvYNtNtB4_4path4PathNtB2_5Parse5parseECsgVYDIa60Vvp_12actix_macros, symObjAddr: 0x420, symBinAddr: 0x85B8, symSize: 0x30 }
  - { offset: 0x1C213, size: 0x8, addend: 0x0, symName: __RNvXsh_NtCsATtFUPiRFW_3syn5parseNvMNtB7_10punctuatedINtBx_10PunctuatedNtNtB7_4attr4MetaNtNtB7_5token5CommaE16parse_terminatedNtB5_6Parser6parse2CsgVYDIa60Vvp_12actix_macros, symObjAddr: 0x1778, symBinAddr: 0x9910, symSize: 0x354 }
  - { offset: 0x1C320, size: 0x8, addend: 0x0, symName: __RNvXsh_NtCsATtFUPiRFW_3syn5parseNvYNtNtB7_4item6ItemFnNtB5_5Parse5parseNtB5_6Parser6parse2CsgVYDIa60Vvp_12actix_macros, symObjAddr: 0x1ACC, symBinAddr: 0x9C64, symSize: 0x36C }
  - { offset: 0x1C42E, size: 0x8, addend: 0x0, symName: __RNvXsh_NtCsATtFUPiRFW_3syn5parseNvYNtNtB7_4path4PathNtB5_5Parse5parseNtB5_6Parser14___parse_scopedCsgVYDIa60Vvp_12actix_macros, symObjAddr: 0x1E38, symBinAddr: 0x9FD0, symSize: 0x3D4 }
  - { offset: 0x1C579, size: 0x8, addend: 0x0, symName: __RNvXsh_NtCsATtFUPiRFW_3syn5parseNvYNtNtB7_4path4PathNtB5_5Parse5parseNtB5_6Parser6parse2CsgVYDIa60Vvp_12actix_macros, symObjAddr: 0x220C, symBinAddr: 0xA3A4, symSize: 0x368 }
  - { offset: 0x1C68D, size: 0x8, addend: 0x0, symName: __RNvYNvMNtCsATtFUPiRFW_3syn10punctuatedINtB5_10PunctuatedNtNtB7_4attr4MetaNtNtB7_5token5CommaE16parse_terminatedNtNtB7_5parse6Parser5parseCsgVYDIa60Vvp_12actix_macros, symObjAddr: 0x2B1C, symBinAddr: 0xACB4, symSize: 0x88 }
  - { offset: 0x1C6D3, size: 0x8, addend: 0x0, symName: __RNvYNvYNtNtCsATtFUPiRFW_3syn4item6ItemFnNtNtB9_5parse5Parse5parseNtBE_6Parser5parseCsgVYDIa60Vvp_12actix_macros, symObjAddr: 0x2BA4, symBinAddr: 0xAD3C, symSize: 0x88 }
  - { offset: 0x1C719, size: 0x8, addend: 0x0, symName: __RNvYNvYNtNtCsATtFUPiRFW_3syn4path4PathNtNtB9_5parse5Parse5parseNtBC_6Parser9parse_strCsgVYDIa60Vvp_12actix_macros, symObjAddr: 0x2C2C, symBinAddr: 0xADC4, symSize: 0x11C }
  - { offset: 0x1D10E, size: 0x8, addend: 0x0, symName: __RNvNtCsdze8u8oDPro_5alloc5alloc12alloc_zeroedCsgVYDIa60Vvp_12actix_macros, symObjAddr: 0x1344, symBinAddr: 0x94DC, symSize: 0x80 }
  - { offset: 0x1D1DB, size: 0x8, addend: 0x0, symName: __RNvXs_NtCsdze8u8oDPro_5alloc5allocNtB4_6GlobalNtNtCs9f3LFPSIp77_4core5alloc9Allocator10deallocateCsgVYDIa60Vvp_12actix_macros, symObjAddr: 0x16EC, symBinAddr: 0x9884, symSize: 0x8C }
  - { offset: 0x1D2C0, size: 0x8, addend: 0x0, symName: __RNvNtCsdze8u8oDPro_5alloc5alloc15exchange_mallocCsgVYDIa60Vvp_12actix_macros, symObjAddr: 0x13C4, symBinAddr: 0x955C, symSize: 0xA8 }
  - { offset: 0x1D3CF, size: 0x8, addend: 0x0, symName: __RNvNtCsdze8u8oDPro_5alloc5alloc5allocCsgVYDIa60Vvp_12actix_macros, symObjAddr: 0x146C, symBinAddr: 0x9604, symSize: 0x80 }
  - { offset: 0x1E939, size: 0x8, addend: 0x0, symName: __RNvXs5_NtNtCsjLJ1XWNSM6u_10proc_macro6bridge6bufferNtB5_6BufferNtNtNtCs9f3LFPSIp77_4core3ops4drop4Drop4dropCsgVYDIa60Vvp_12actix_macros, symObjAddr: 0x14EC, symBinAddr: 0x9684, symSize: 0x138 }
  - { offset: 0x22B26, size: 0x8, addend: 0x0, symName: __RNvYINtNtCsATtFUPiRFW_3syn10punctuated11PrivateIterNtNtB7_4attr4MetaNtNtB7_5token5CommaENtNtNtNtCs9f3LFPSIp77_4core4iter6traits10exact_size17ExactSizeIterator8is_emptyCsgVYDIa60Vvp_12actix_macros, symObjAddr: 0x276C, symBinAddr: 0xA904, symSize: 0x2C }
  - { offset: 0x22B67, size: 0x8, addend: 0x0, symName: __RNvYINtNtCsATtFUPiRFW_3syn10punctuated11PrivateIterNtNtB7_4attr4MetaNtNtB7_5token5CommaENtNtNtNtCs9f3LFPSIp77_4core4iter6traits12double_ended19DoubleEndedIterator15advance_back_byCsgVYDIa60Vvp_12actix_macros, symObjAddr: 0x2798, symBinAddr: 0xA930, symSize: 0x134 }
  - { offset: 0x22CB4, size: 0x8, addend: 0x0, symName: __RNvYINtNtCsATtFUPiRFW_3syn10punctuated11PrivateIterNtNtB7_4attr4MetaNtNtB7_5token5CommaENtNtNtNtCs9f3LFPSIp77_4core4iter6traits12double_ended19DoubleEndedIterator8nth_backCsgVYDIa60Vvp_12actix_macros, symObjAddr: 0x28CC, symBinAddr: 0xAA64, symSize: 0x68 }
  - { offset: 0x22D3E, size: 0x8, addend: 0x0, symName: __RNvYINtNtCsATtFUPiRFW_3syn10punctuated11PrivateIterNtNtB7_4attr4MetaNtNtB7_5token5CommaENtNtNtNtCs9f3LFPSIp77_4core4iter6traits8iterator8Iterator10advance_byCsgVYDIa60Vvp_12actix_macros, symObjAddr: 0x2934, symBinAddr: 0xAACC, symSize: 0x134 }
  - { offset: 0x22E93, size: 0x8, addend: 0x0, symName: __RNvYINtNtCsATtFUPiRFW_3syn10punctuated11PrivateIterNtNtB7_4attr4MetaNtNtB7_5token5CommaENtNtNtNtCs9f3LFPSIp77_4core4iter6traits8iterator8Iterator3nthCsgVYDIa60Vvp_12actix_macros, symObjAddr: 0x2A68, symBinAddr: 0xAC00, symSize: 0x80 }
  - { offset: 0x22F66, size: 0x8, addend: 0x0, symName: __RNvYINtNtCsATtFUPiRFW_3syn10punctuated11PrivateIterNtNtB7_4attr4MetaNtNtB7_5token5CommaENtNtNtNtCs9f3LFPSIp77_4core4iter6traits8iterator8Iterator9size_hintCsgVYDIa60Vvp_12actix_macros, symObjAddr: 0x2AE8, symBinAddr: 0xAC80, symSize: 0x34 }
  - { offset: 0x2368D, size: 0x8, addend: 0x0, symName: ___rustc_proc_macro_decls_c54101f39de60821__, symObjAddr: 0x5AB8, symBinAddr: 0x38C5B8, symSize: 0x0 }
  - { offset: 0x2369B, size: 0x8, addend: 0x0, symName: __RNvCsgVYDIa60Vvp_12actix_macros4main, symObjAddr: 0x2D48, symBinAddr: 0xAEE0, symSize: 0xE3C }
  - { offset: 0x2396A, size: 0x8, addend: 0x0, symName: __RNCNvCsgVYDIa60Vvp_12actix_macros4main0B3_, symObjAddr: 0x3B84, symBinAddr: 0xBD1C, symSize: 0x98 }
  - { offset: 0x239A8, size: 0x8, addend: 0x0, symName: __RNvCsgVYDIa60Vvp_12actix_macros4test, symObjAddr: 0x3C1C, symBinAddr: 0xBDB4, symSize: 0x1108 }
  - { offset: 0x23CFA, size: 0x8, addend: 0x0, symName: __RNCNvCsgVYDIa60Vvp_12actix_macros4test0B3_, symObjAddr: 0x4D24, symBinAddr: 0xCEBC, symSize: 0x98 }
  - { offset: 0x23D38, size: 0x8, addend: 0x0, symName: __RNvCsgVYDIa60Vvp_12actix_macros23input_and_compile_error, symObjAddr: 0x4DBC, symBinAddr: 0xCF54, symSize: 0xE0 }
  - { offset: 0x241D1, size: 0x8, addend: 0x0, symName: __RINvMs3_NtNtCsjLJ1XWNSM6u_10proc_macro6bridge6bufferNtB6_6Buffer17extend_from_arrayKj4_ECsgVYDIa60Vvp_12actix_macros, symObjAddr: 0x0, symBinAddr: 0x8198, symSize: 0x210 }
  - { offset: 0x24843, size: 0x8, addend: 0x0, symName: __RINvMs3_NtNtCsjLJ1XWNSM6u_10proc_macro6bridge6bufferNtB6_6Buffer17extend_from_arrayKj8_ECsgVYDIa60Vvp_12actix_macros, symObjAddr: 0x210, symBinAddr: 0x83A8, symSize: 0x210 }
  - { offset: 0x24CB2, size: 0x8, addend: 0x0, symName: __RNvMNtCsATtFUPiRFW_3syn10punctuatedINtB2_10PunctuatedNtNtB4_4attr4MetaNtNtB4_5token5CommaE10push_punctCsgVYDIa60Vvp_12actix_macros, symObjAddr: 0x504, symBinAddr: 0x869C, symSize: 0x1D8 }
  - { offset: 0x24D30, size: 0x8, addend: 0x0, symName: __RNvMNtCsATtFUPiRFW_3syn10punctuatedINtB2_10PunctuatedNtNtB4_4attr4MetaNtNtB4_5token5CommaE10push_valueCsgVYDIa60Vvp_12actix_macros, symObjAddr: 0x6DC, symBinAddr: 0x8874, symSize: 0x1B4 }
  - { offset: 0x24DCC, size: 0x8, addend: 0x0, symName: __RNvMNtCsATtFUPiRFW_3syn10punctuatedINtB2_10PunctuatedNtNtB4_4attr4MetaNtNtB4_5token5CommaE16parse_terminatedCsgVYDIa60Vvp_12actix_macros, symObjAddr: 0x890, symBinAddr: 0x8A28, symSize: 0x3C }
  - { offset: 0x24E0E, size: 0x8, addend: 0x0, symName: __RNvMNtCsATtFUPiRFW_3syn10punctuatedINtB2_10PunctuatedNtNtB4_4attr4MetaNtNtB4_5token5CommaE17empty_or_trailingCsgVYDIa60Vvp_12actix_macros, symObjAddr: 0x8CC, symBinAddr: 0x8A64, symSize: 0x34 }
  - { offset: 0x24E5A, size: 0x8, addend: 0x0, symName: __RNvMNtCsATtFUPiRFW_3syn10punctuatedINtB2_10PunctuatedNtNtB4_4attr4MetaNtNtB4_5token5CommaE21parse_terminated_withCsgVYDIa60Vvp_12actix_macros, symObjAddr: 0x900, symBinAddr: 0x8A98, symSize: 0x384 }
  - { offset: 0x24F5D, size: 0x8, addend: 0x0, symName: __RNvMNtCsATtFUPiRFW_3syn10punctuatedINtB2_10PunctuatedNtNtB4_4attr4MetaNtNtB4_5token5CommaE3newCsgVYDIa60Vvp_12actix_macros, symObjAddr: 0xC84, symBinAddr: 0x8E1C, symSize: 0x54 }
  - { offset: 0x24FD8, size: 0x8, addend: 0x0, symName: __RNvMNtCsATtFUPiRFW_3syn10punctuatedINtB2_10PunctuatedNtNtB4_4attr4MetaNtNtB4_5token5CommaE4iterCsgVYDIa60Vvp_12actix_macros, symObjAddr: 0xCD8, symBinAddr: 0x8E70, symSize: 0xC8 }
  - { offset: 0x251A9, size: 0x8, addend: 0x0, symName: __RNvMNtCsdze8u8oDPro_5alloc5allocNtB2_6Global10alloc_implCsgVYDIa60Vvp_12actix_macros, symObjAddr: 0xDA0, symBinAddr: 0x8F38, symSize: 0x1BC }
  - { offset: 0x25789, size: 0x8, addend: 0x0, symName: __RNvMs3_NtNtCsjLJ1XWNSM6u_10proc_macro6bridge6bufferNtB5_6Buffer17extend_from_sliceCsgVYDIa60Vvp_12actix_macros, symObjAddr: 0xF5C, symBinAddr: 0x90F4, symSize: 0x208 }
  - { offset: 0x25DF3, size: 0x8, addend: 0x0, symName: __RNvMs3_NtNtCsjLJ1XWNSM6u_10proc_macro6bridge6bufferNtB5_6Buffer4pushCsgVYDIa60Vvp_12actix_macros, symObjAddr: 0x1164, symBinAddr: 0x92FC, symSize: 0x1E0 }
  - { offset: 0x2689B, size: 0x8, addend: 0x0, symName: __RINvMs_NtCsdze8u8oDPro_5alloc3vecINtB5_3VecReE10retain_mutNCNvMNtCsATtFUPiRFW_3syn9lookaheadNtBZ_10Lookahead15error0EB11_, symObjAddr: 0x0, symBinAddr: 0xD048, symSize: 0xE4 }
  - { offset: 0x2760D, size: 0x8, addend: 0x0, symName: __RNvXsP_NtCs9f3LFPSIp77_4core3fmtRINtNtCsdze8u8oDPro_5alloc3vec3VecNtNtCsATtFUPiRFW_3syn4item4ItemENtB5_5Debug3fmtB16_, symObjAddr: 0x9934, symBinAddr: 0x1697C, symSize: 0x30 }
  - { offset: 0x27653, size: 0x8, addend: 0x0, symName: __RNvXsP_NtCs9f3LFPSIp77_4core3fmtRINtNtCsdze8u8oDPro_5alloc3vec3VechENtB5_5Debug3fmtCsATtFUPiRFW_3syn, symObjAddr: 0x9964, symBinAddr: 0x169AC, symSize: 0x30 }
  - { offset: 0x356A8, size: 0x8, addend: 0x0, symName: __RNvXs1_NtCs9f3LFPSIp77_4core7convertINtNtCsdze8u8oDPro_5alloc3vec3VechEINtB5_4IntoBy_E4intoCsATtFUPiRFW_3syn, symObjAddr: 0x82EC, symBinAddr: 0x15334, symSize: 0x18 }
  - { offset: 0x358EA, size: 0x8, addend: 0x0, symName: __RINvNvMs_NtCsdze8u8oDPro_5alloc3vecINtB7_3VecppE10retain_mut12process_loopNCNvMNtCsATtFUPiRFW_3syn9lookaheadNtB1f_10Lookahead15error0ReNtNtB9_5alloc6GlobalKb0_EB1h_, symObjAddr: 0xCE0, symBinAddr: 0xDD28, symSize: 0xE4 }
  - { offset: 0x35A9C, size: 0x8, addend: 0x0, symName: __RINvNvMs_NtCsdze8u8oDPro_5alloc3vecINtB7_3VecppE10retain_mut12process_loopNCNvMNtCsATtFUPiRFW_3syn9lookaheadNtB1f_10Lookahead15error0ReNtNtB9_5alloc6GlobalKb1_EB1h_, symObjAddr: 0xDC4, symBinAddr: 0xDE0C, symSize: 0x1B0 }
  - { offset: 0x35D55, size: 0x8, addend: 0x0, symName: __RNvXNvMs_NtCsdze8u8oDPro_5alloc3vecINtB7_3VecppE10retain_mutINtB2_15BackshiftOnDropReNtNtB9_5alloc6GlobalENtNtNtCs9f3LFPSIp77_4core3ops4drop4Drop4dropCsATtFUPiRFW_3syn, symObjAddr: 0x7F00, symBinAddr: 0x14F48, symSize: 0x134 }
  - { offset: 0x38F36, size: 0x8, addend: 0x0, symName: __RINvXsd_NtCsdze8u8oDPro_5alloc3vecINtB6_3VecNtCs475r2uZUTuc_11proc_macro29TokenTreeEINtNtNtNtCs9f3LFPSIp77_4core4iter6traits7collect12FromIteratorBG_E9from_iterNtNtBI_12token_stream8IntoIterECsATtFUPiRFW_3syn, symObjAddr: 0xF74, symBinAddr: 0xDFBC, symSize: 0x34 }
  - { offset: 0x38F7D, size: 0x8, addend: 0x0, symName: __RINvXsh_NtCsdze8u8oDPro_5alloc3vecINtB6_3VecNtCs475r2uZUTuc_11proc_macro29TokenTreeEINtNtNtNtCs9f3LFPSIp77_4core4iter6traits7collect6ExtendBG_E6extendINtNtNtB1r_8adapters7flatten7FlattenINtNtB2t_3map3MapIB2Z_IB2Z_INtNtNtB1t_5slice4iter4IterNtNtCsATtFUPiRFW_3syn5error12ErrorMessageENvMs_B3S_B3Q_16to_compile_errorENCINvXs7_BI_NtBI_11TokenStreamINtB1n_12FromIteratorB5e_E9from_iterB3k_E0ENCINvXs6_NtBI_3impNtB6m_11TokenStreamIB5x_B6v_E9from_iterB3f_Es_0EEEB3U_, symObjAddr: 0xFA8, symBinAddr: 0xDFF0, symSize: 0x40 }
  - { offset: 0x38FD2, size: 0x8, addend: 0x0, symName: __RINvXsh_NtCsdze8u8oDPro_5alloc3vecINtB6_3VecNtNtCsATtFUPiRFW_3syn4attr9AttributeEINtNtNtNtCs9f3LFPSIp77_4core4iter6traits7collect6ExtendBG_E6extendBw_EBK_, symObjAddr: 0xFE8, symBinAddr: 0xE030, symSize: 0x40 }
  - { offset: 0x39027, size: 0x8, addend: 0x0, symName: __RINvXsh_NtCsdze8u8oDPro_5alloc3vecINtB6_3VecNtNtCsATtFUPiRFW_3syn4data5FieldEINtNtNtNtCs9f3LFPSIp77_4core4iter6traits7collect6ExtendBG_E6extendINtNtB1m_6option6OptionBG_EEBK_, symObjAddr: 0x1028, symBinAddr: 0xE070, symSize: 0x48 }
  - { offset: 0x3907C, size: 0x8, addend: 0x0, symName: __RINvXsh_NtCsdze8u8oDPro_5alloc3vecINtB6_3VecNtNtCsATtFUPiRFW_3syn4data5FieldEINtNtNtNtCs9f3LFPSIp77_4core4iter6traits7collect6ExtendBG_E6extendINtNtNtB1k_8adapters3map3MapINtNtB6_9into_iter8IntoIterTBG_NtNtBK_5token5CommaEENCNvXs8_NtBK_10punctuatedINtB3H_10PunctuatedBG_B3e_ENtB1g_12IntoIterator9into_iter0EEBK_, symObjAddr: 0x1070, symBinAddr: 0xE0B8, symSize: 0x40 }
  - { offset: 0x390D1, size: 0x8, addend: 0x0, symName: __RINvXsh_NtCsdze8u8oDPro_5alloc3vecINtB6_3VecNtNtCsATtFUPiRFW_3syn4data5FieldEINtNtNtNtCs9f3LFPSIp77_4core4iter6traits7collect6ExtendBG_E6extendINtNtNtB1k_8adapters3map3MapINtNtB6_9into_iter8IntoIterTBG_uEENCNvXs8_NtBK_10punctuatedINtB3p_10PunctuatedBG_uENtB1g_12IntoIterator9into_iter0EEBK_, symObjAddr: 0x10B0, symBinAddr: 0xE0F8, symSize: 0x40 }
  - { offset: 0x39126, size: 0x8, addend: 0x0, symName: __RINvXsh_NtCsdze8u8oDPro_5alloc3vecINtB6_3VecNtNtCsATtFUPiRFW_3syn5error12ErrorMessageEINtNtNtNtCs9f3LFPSIp77_4core4iter6traits7collect6ExtendBG_E6extendBw_EBK_, symObjAddr: 0x10F0, symBinAddr: 0xE138, symSize: 0x40 }
  - { offset: 0x3917B, size: 0x8, addend: 0x0, symName: __RINvXsh_NtCsdze8u8oDPro_5alloc3vecINtB6_3VecNtNtCsATtFUPiRFW_3syn8generics14TypeParamBoundEINtNtNtNtCs9f3LFPSIp77_4core4iter6traits7collect6ExtendBG_E6extendINtNtB1A_6option6OptionBG_EEBK_, symObjAddr: 0x1130, symBinAddr: 0xE178, symSize: 0x40 }
  - { offset: 0x391D0, size: 0x8, addend: 0x0, symName: __RINvXsh_NtCsdze8u8oDPro_5alloc3vecINtB6_3VecNtNtCsATtFUPiRFW_3syn8generics14TypeParamBoundEINtNtNtNtCs9f3LFPSIp77_4core4iter6traits7collect6ExtendBG_E6extendINtNtNtB1y_8adapters3map3MapINtNtB6_9into_iter8IntoIterTBG_NtNtBK_5token4PlusEENCNvXs8_NtBK_10punctuatedINtB3U_10PunctuatedBG_B3s_ENtB1u_12IntoIterator9into_iter0EEBK_, symObjAddr: 0x1170, symBinAddr: 0xE1B8, symSize: 0x40 }
  - { offset: 0x39230, size: 0x8, addend: 0x0, symName: __RNCINvMsi_NtCsdze8u8oDPro_5alloc3vecINtB8_3VecNtNtCsATtFUPiRFW_3syn4data5FieldE14extend_trustedINtNtCs9f3LFPSIp77_4core6option8IntoIterBI_EE0BM_, symObjAddr: 0x11B0, symBinAddr: 0xE1F8, symSize: 0x78 }
  - { offset: 0x39323, size: 0x8, addend: 0x0, symName: __RNCINvMsi_NtCsdze8u8oDPro_5alloc3vecINtB8_3VecNtNtCsATtFUPiRFW_3syn4data5FieldE14extend_trustedINtNtNtNtCs9f3LFPSIp77_4core4iter8adapters3map3MapINtNtB8_9into_iter8IntoIterTBI_NtNtBM_5token5CommaEENCNvXs8_NtBM_10punctuatedINtB3h_10PunctuatedBI_B2O_ENtNtNtB1C_6traits7collect12IntoIterator9into_iter0EE0BM_, symObjAddr: 0x1228, symBinAddr: 0xE270, symSize: 0x78 }
  - { offset: 0x39416, size: 0x8, addend: 0x0, symName: __RNCINvMsi_NtCsdze8u8oDPro_5alloc3vecINtB8_3VecNtNtCsATtFUPiRFW_3syn4data5FieldE14extend_trustedINtNtNtNtCs9f3LFPSIp77_4core4iter8adapters3map3MapINtNtB8_9into_iter8IntoIterTBI_uEENCNvXs8_NtBM_10punctuatedINtB2Z_10PunctuatedBI_uENtNtNtB1C_6traits7collect12IntoIterator9into_iter0EE0BM_, symObjAddr: 0x12A0, symBinAddr: 0xE2E8, symSize: 0x78 }
  - { offset: 0x39509, size: 0x8, addend: 0x0, symName: __RNCINvMsi_NtCsdze8u8oDPro_5alloc3vecINtB8_3VecNtNtCsATtFUPiRFW_3syn8generics14TypeParamBoundE14extend_trustedINtNtCs9f3LFPSIp77_4core6option8IntoIterBI_EE0BM_, symObjAddr: 0x1318, symBinAddr: 0xE360, symSize: 0x78 }
  - { offset: 0x395FC, size: 0x8, addend: 0x0, symName: __RNCINvMsi_NtCsdze8u8oDPro_5alloc3vecINtB8_3VecNtNtCsATtFUPiRFW_3syn8generics14TypeParamBoundE14extend_trustedINtNtNtNtCs9f3LFPSIp77_4core4iter8adapters3map3MapINtNtB8_9into_iter8IntoIterTBI_NtNtBM_5token4PlusEENCNvXs8_NtBM_10punctuatedINtB3u_10PunctuatedBI_B32_ENtNtNtB1Q_6traits7collect12IntoIterator9into_iter0EE0BM_, symObjAddr: 0x1390, symBinAddr: 0xE3D8, symSize: 0x78 }
  - { offset: 0x39BD5, size: 0x8, addend: 0x0, symName: __RNvXNtNtCsdze8u8oDPro_5alloc3vec10partial_eqINtB4_3VecNtNtCsATtFUPiRFW_3syn4attr9AttributeENtNtCs9f3LFPSIp77_4core3cmp9PartialEq2eqBU_, symObjAddr: 0x7034, symBinAddr: 0x1407C, symSize: 0x7C }
  - { offset: 0x39C58, size: 0x8, addend: 0x0, symName: __RNvXNtNtCsdze8u8oDPro_5alloc3vec10partial_eqINtB4_3VecNtNtCsATtFUPiRFW_3syn4expr3ArmENtNtCs9f3LFPSIp77_4core3cmp9PartialEq2eqBU_, symObjAddr: 0x70B0, symBinAddr: 0x140F8, symSize: 0x7C }
  - { offset: 0x39CDB, size: 0x8, addend: 0x0, symName: __RNvXNtNtCsdze8u8oDPro_5alloc3vec10partial_eqINtB4_3VecNtNtCsATtFUPiRFW_3syn4item11ForeignItemENtNtCs9f3LFPSIp77_4core3cmp9PartialEq2eqBU_, symObjAddr: 0x712C, symBinAddr: 0x14174, symSize: 0x7C }
  - { offset: 0x39D5E, size: 0x8, addend: 0x0, symName: __RNvXNtNtCsdze8u8oDPro_5alloc3vec10partial_eqINtB4_3VecNtNtCsATtFUPiRFW_3syn4item4ItemENtNtCs9f3LFPSIp77_4core3cmp9PartialEq2eqBU_, symObjAddr: 0x71A8, symBinAddr: 0x141F0, symSize: 0x7C }
  - { offset: 0x39DE1, size: 0x8, addend: 0x0, symName: __RNvXNtNtCsdze8u8oDPro_5alloc3vec10partial_eqINtB4_3VecNtNtCsATtFUPiRFW_3syn4item8ImplItemENtNtCs9f3LFPSIp77_4core3cmp9PartialEq2eqBU_, symObjAddr: 0x7224, symBinAddr: 0x1426C, symSize: 0x7C }
  - { offset: 0x39E64, size: 0x8, addend: 0x0, symName: __RNvXNtNtCsdze8u8oDPro_5alloc3vec10partial_eqINtB4_3VecNtNtCsATtFUPiRFW_3syn4item9TraitItemENtNtCs9f3LFPSIp77_4core3cmp9PartialEq2eqBU_, symObjAddr: 0x72A0, symBinAddr: 0x142E8, symSize: 0x7C }
  - { offset: 0x39EE7, size: 0x8, addend: 0x0, symName: __RNvXNtNtCsdze8u8oDPro_5alloc3vec10partial_eqINtB4_3VecNtNtCsATtFUPiRFW_3syn4stmt4StmtENtNtCs9f3LFPSIp77_4core3cmp9PartialEq2eqBU_, symObjAddr: 0x731C, symBinAddr: 0x14364, symSize: 0x7C }
  - { offset: 0x39F6A, size: 0x8, addend: 0x0, symName: __RNvXNtNtCsdze8u8oDPro_5alloc3vec10partial_eqINtB4_3VecTNtNtCsATtFUPiRFW_3syn2ty4TypeNtNtBV_5token5CommaEENtNtCs9f3LFPSIp77_4core3cmp9PartialEq2eqBV_, symObjAddr: 0x7398, symBinAddr: 0x143E0, symSize: 0x7C }
  - { offset: 0x39FED, size: 0x8, addend: 0x0, symName: __RNvXNtNtCsdze8u8oDPro_5alloc3vec10partial_eqINtB4_3VecTNtNtCsATtFUPiRFW_3syn2ty9BareFnArgNtNtBV_5token5CommaEENtNtCs9f3LFPSIp77_4core3cmp9PartialEq2eqBV_, symObjAddr: 0x7414, symBinAddr: 0x1445C, symSize: 0x7C }
  - { offset: 0x3A070, size: 0x8, addend: 0x0, symName: __RNvXNtNtCsdze8u8oDPro_5alloc3vec10partial_eqINtB4_3VecTNtNtCsATtFUPiRFW_3syn3pat3PatNtNtBV_5token2OrEENtNtCs9f3LFPSIp77_4core3cmp9PartialEq2eqBV_, symObjAddr: 0x7490, symBinAddr: 0x144D8, symSize: 0x7C }
  - { offset: 0x3A0F3, size: 0x8, addend: 0x0, symName: __RNvXNtNtCsdze8u8oDPro_5alloc3vec10partial_eqINtB4_3VecTNtNtCsATtFUPiRFW_3syn3pat3PatNtNtBV_5token5CommaEENtNtCs9f3LFPSIp77_4core3cmp9PartialEq2eqBV_, symObjAddr: 0x750C, symBinAddr: 0x14554, symSize: 0x7C }
  - { offset: 0x3A176, size: 0x8, addend: 0x0, symName: __RNvXNtNtCsdze8u8oDPro_5alloc3vec10partial_eqINtB4_3VecTNtNtCsATtFUPiRFW_3syn3pat8FieldPatNtNtBV_5token5CommaEENtNtCs9f3LFPSIp77_4core3cmp9PartialEq2eqBV_, symObjAddr: 0x7588, symBinAddr: 0x145D0, symSize: 0x7C }
  - { offset: 0x3A1F9, size: 0x8, addend: 0x0, symName: __RNvXNtNtCsdze8u8oDPro_5alloc3vec10partial_eqINtB4_3VecTNtNtCsATtFUPiRFW_3syn4data5FieldNtNtBV_5token5CommaEENtNtCs9f3LFPSIp77_4core3cmp9PartialEq2eqBV_, symObjAddr: 0x7604, symBinAddr: 0x1464C, symSize: 0x7C }
  - { offset: 0x3A27C, size: 0x8, addend: 0x0, symName: __RNvXNtNtCsdze8u8oDPro_5alloc3vec10partial_eqINtB4_3VecTNtNtCsATtFUPiRFW_3syn4data7VariantNtNtBV_5token5CommaEENtNtCs9f3LFPSIp77_4core3cmp9PartialEq2eqBV_, symObjAddr: 0x7680, symBinAddr: 0x146C8, symSize: 0x7C }
  - { offset: 0x3A2FF, size: 0x8, addend: 0x0, symName: __RNvXNtNtCsdze8u8oDPro_5alloc3vec10partial_eqINtB4_3VecTNtNtCsATtFUPiRFW_3syn4expr10FieldValueNtNtBV_5token5CommaEENtNtCs9f3LFPSIp77_4core3cmp9PartialEq2eqBV_, symObjAddr: 0x76FC, symBinAddr: 0x14744, symSize: 0x7C }
  - { offset: 0x3A382, size: 0x8, addend: 0x0, symName: __RNvXNtNtCsdze8u8oDPro_5alloc3vec10partial_eqINtB4_3VecTNtNtCsATtFUPiRFW_3syn4expr4ExprNtNtBV_5token5CommaEENtNtCs9f3LFPSIp77_4core3cmp9PartialEq2eqBV_, symObjAddr: 0x7778, symBinAddr: 0x147C0, symSize: 0x7C }
  - { offset: 0x3A405, size: 0x8, addend: 0x0, symName: __RNvXNtNtCsdze8u8oDPro_5alloc3vec10partial_eqINtB4_3VecTNtNtCsATtFUPiRFW_3syn4item5FnArgNtNtBV_5token5CommaEENtNtCs9f3LFPSIp77_4core3cmp9PartialEq2eqBV_, symObjAddr: 0x77F4, symBinAddr: 0x1483C, symSize: 0x7C }
  - { offset: 0x3A488, size: 0x8, addend: 0x0, symName: __RNvXNtNtCsdze8u8oDPro_5alloc3vec10partial_eqINtB4_3VecTNtNtCsATtFUPiRFW_3syn4item7UseTreeNtNtBV_5token5CommaEENtNtCs9f3LFPSIp77_4core3cmp9PartialEq2eqBV_, symObjAddr: 0x7870, symBinAddr: 0x148B8, symSize: 0x7C }
  - { offset: 0x3A50B, size: 0x8, addend: 0x0, symName: __RNvXNtNtCsdze8u8oDPro_5alloc3vec10partial_eqINtB4_3VecTNtNtCsATtFUPiRFW_3syn4path11PathSegmentNtNtBV_5token7PathSepEENtNtCs9f3LFPSIp77_4core3cmp9PartialEq2eqBV_, symObjAddr: 0x78EC, symBinAddr: 0x14934, symSize: 0x7C }
  - { offset: 0x3A58E, size: 0x8, addend: 0x0, symName: __RNvXNtNtCsdze8u8oDPro_5alloc3vec10partial_eqINtB4_3VecTNtNtCsATtFUPiRFW_3syn4path15GenericArgumentNtNtBV_5token5CommaEENtNtCs9f3LFPSIp77_4core3cmp9PartialEq2eqBV_, symObjAddr: 0x7968, symBinAddr: 0x149B0, symSize: 0x7C }
  - { offset: 0x3A611, size: 0x8, addend: 0x0, symName: __RNvXNtNtCsdze8u8oDPro_5alloc3vec10partial_eqINtB4_3VecTNtNtCsATtFUPiRFW_3syn8generics12GenericParamNtNtBV_5token5CommaEENtNtCs9f3LFPSIp77_4core3cmp9PartialEq2eqBV_, symObjAddr: 0x79E4, symBinAddr: 0x14A2C, symSize: 0x7C }
  - { offset: 0x3A694, size: 0x8, addend: 0x0, symName: __RNvXNtNtCsdze8u8oDPro_5alloc3vec10partial_eqINtB4_3VecTNtNtCsATtFUPiRFW_3syn8generics13CapturedParamNtNtBV_5token5CommaEENtNtCs9f3LFPSIp77_4core3cmp9PartialEq2eqBV_, symObjAddr: 0x7A60, symBinAddr: 0x14AA8, symSize: 0x7C }
  - { offset: 0x3A717, size: 0x8, addend: 0x0, symName: __RNvXNtNtCsdze8u8oDPro_5alloc3vec10partial_eqINtB4_3VecTNtNtCsATtFUPiRFW_3syn8generics14TypeParamBoundNtNtBV_5token4PlusEENtNtCs9f3LFPSIp77_4core3cmp9PartialEq2eqBV_, symObjAddr: 0x7ADC, symBinAddr: 0x14B24, symSize: 0x7C }
  - { offset: 0x3A79A, size: 0x8, addend: 0x0, symName: __RNvXNtNtCsdze8u8oDPro_5alloc3vec10partial_eqINtB4_3VecTNtNtCsATtFUPiRFW_3syn8generics14WherePredicateNtNtBV_5token5CommaEENtNtCs9f3LFPSIp77_4core3cmp9PartialEq2eqBV_, symObjAddr: 0x7B58, symBinAddr: 0x14BA0, symSize: 0x7C }
  - { offset: 0x3A81D, size: 0x8, addend: 0x0, symName: __RNvXNtNtCsdze8u8oDPro_5alloc3vec10partial_eqINtB4_3VecTNtNtCsATtFUPiRFW_3syn8lifetime8LifetimeNtNtBV_5token4PlusEENtNtCs9f3LFPSIp77_4core3cmp9PartialEq2eqBV_, symObjAddr: 0x7BD4, symBinAddr: 0x14C1C, symSize: 0x7C }
  - { offset: 0x3A8AC, size: 0x8, addend: 0x0, symName: __RNvXNtNtCsdze8u8oDPro_5alloc3vec11spec_extendINtB4_3VecNtCs475r2uZUTuc_11proc_macro29TokenTreeEINtB2_10SpecExtendBR_INtNtNtNtCs9f3LFPSIp77_4core4iter8adapters7flatten7FlattenINtNtB1V_3map3MapIB2N_IB2N_INtNtNtB1Z_5slice4iter4IterNtNtCsATtFUPiRFW_3syn5error12ErrorMessageENvMs_B3G_B3E_16to_compile_errorENCINvXs7_BT_NtBT_11TokenStreamINtNtNtB1X_6traits7collect12FromIteratorB52_E9from_iterB38_E0ENCINvXs6_NtBT_3impNtB6t_11TokenStreamIB5l_B6C_E9from_iterB33_Es_0EEE11spec_extendB3I_, symObjAddr: 0x7C50, symBinAddr: 0x14C98, symSize: 0x24 }
  - { offset: 0x3A8FE, size: 0x8, addend: 0x0, symName: __RNvXNtNtCsdze8u8oDPro_5alloc3vec11spec_extendINtB4_3VecNtCs475r2uZUTuc_11proc_macro29TokenTreeEINtB2_10SpecExtendBR_NtNtBT_12token_stream8IntoIterE11spec_extendCsATtFUPiRFW_3syn, symObjAddr: 0x7C74, symBinAddr: 0x14CBC, symSize: 0x24 }
  - { offset: 0x3A956, size: 0x8, addend: 0x0, symName: __RNvXs0_NtNtCsdze8u8oDPro_5alloc3vec11spec_extendINtB7_3VecNtNtCsATtFUPiRFW_3syn4attr9AttributeEINtB5_10SpecExtendBU_INtNtB7_9into_iter8IntoIterBU_EE11spec_extendBY_, symObjAddr: 0x81C4, symBinAddr: 0x1520C, symSize: 0x94 }
  - { offset: 0x3A9BC, size: 0x8, addend: 0x0, symName: __RNvXs0_NtNtCsdze8u8oDPro_5alloc3vec11spec_extendINtB7_3VecNtNtCsATtFUPiRFW_3syn5error12ErrorMessageEINtB5_10SpecExtendBU_INtNtB7_9into_iter8IntoIterBU_EE11spec_extendBY_, symObjAddr: 0x8258, symBinAddr: 0x152A0, symSize: 0x94 }
  - { offset: 0x3AA28, size: 0x8, addend: 0x0, symName: __RNvXs2_NtNtCsdze8u8oDPro_5alloc3vec11spec_extendINtB7_3VechEINtB5_10SpecExtendRhINtNtNtCs9f3LFPSIp77_4core5slice4iter4IterhEE11spec_extendCsATtFUPiRFW_3syn, symObjAddr: 0x8304, symBinAddr: 0x1534C, symSize: 0xA8 }
  - { offset: 0x3ABE7, size: 0x8, addend: 0x0, symName: __RNvXs_NtNtCsdze8u8oDPro_5alloc3vec11spec_extendINtB6_3VecNtNtCsATtFUPiRFW_3syn4data5FieldEINtB4_10SpecExtendBT_INtNtCs9f3LFPSIp77_4core6option8IntoIterBT_EE11spec_extendBX_, symObjAddr: 0x99AC, symBinAddr: 0x169F4, symSize: 0x24 }
  - { offset: 0x3AC39, size: 0x8, addend: 0x0, symName: __RNvXs_NtNtCsdze8u8oDPro_5alloc3vec11spec_extendINtB6_3VecNtNtCsATtFUPiRFW_3syn4data5FieldEINtB4_10SpecExtendBT_INtNtNtNtCs9f3LFPSIp77_4core4iter8adapters3map3MapINtNtB6_9into_iter8IntoIterTBT_NtNtBX_5token5CommaEENCNvXs8_NtBX_10punctuatedINtB3x_10PunctuatedBT_B34_ENtNtNtB1S_6traits7collect12IntoIterator9into_iter0EE11spec_extendBX_, symObjAddr: 0x99D0, symBinAddr: 0x16A18, symSize: 0x24 }
  - { offset: 0x3AC8B, size: 0x8, addend: 0x0, symName: __RNvXs_NtNtCsdze8u8oDPro_5alloc3vec11spec_extendINtB6_3VecNtNtCsATtFUPiRFW_3syn4data5FieldEINtB4_10SpecExtendBT_INtNtNtNtCs9f3LFPSIp77_4core4iter8adapters3map3MapINtNtB6_9into_iter8IntoIterTBT_uEENCNvXs8_NtBX_10punctuatedINtB3f_10PunctuatedBT_uENtNtNtB1S_6traits7collect12IntoIterator9into_iter0EE11spec_extendBX_, symObjAddr: 0x99F4, symBinAddr: 0x16A3C, symSize: 0x24 }
  - { offset: 0x3ACDD, size: 0x8, addend: 0x0, symName: __RNvXs_NtNtCsdze8u8oDPro_5alloc3vec11spec_extendINtB6_3VecNtNtCsATtFUPiRFW_3syn8generics14TypeParamBoundEINtB4_10SpecExtendBT_INtNtCs9f3LFPSIp77_4core6option8IntoIterBT_EE11spec_extendBX_, symObjAddr: 0x9A18, symBinAddr: 0x16A60, symSize: 0x24 }
  - { offset: 0x3AD2F, size: 0x8, addend: 0x0, symName: __RNvXs_NtNtCsdze8u8oDPro_5alloc3vec11spec_extendINtB6_3VecNtNtCsATtFUPiRFW_3syn8generics14TypeParamBoundEINtB4_10SpecExtendBT_INtNtNtNtCs9f3LFPSIp77_4core4iter8adapters3map3MapINtNtB6_9into_iter8IntoIterTBT_NtNtBX_5token4PlusEENCNvXs8_NtBX_10punctuatedINtB3K_10PunctuatedBT_B3i_ENtNtNtB26_6traits7collect12IntoIterator9into_iter0EE11spec_extendBX_, symObjAddr: 0x9A3C, symBinAddr: 0x16A84, symSize: 0x24 }
  - { offset: 0x3AD8D, size: 0x8, addend: 0x0, symName: __RNvXNtNtCsdze8u8oDPro_5alloc3vec14spec_from_iterINtB4_3VecNtCs475r2uZUTuc_11proc_macro29TokenTreeEINtB2_12SpecFromIterBU_NtNtBW_12token_stream8IntoIterE9from_iterCsATtFUPiRFW_3syn, symObjAddr: 0x7C98, symBinAddr: 0x14CE0, symSize: 0x14 }
  - { offset: 0x3ADD8, size: 0x8, addend: 0x0, symName: __RNvXNtNtCsdze8u8oDPro_5alloc3vec21spec_from_iter_nestedINtB4_3VecNtCs475r2uZUTuc_11proc_macro29TokenTreeEINtB2_18SpecFromIterNestedB11_NtNtB13_12token_stream8IntoIterE9from_iterCsATtFUPiRFW_3syn, symObjAddr: 0x7CAC, symBinAddr: 0x14CF4, symSize: 0x254 }
  - { offset: 0x3B121, size: 0x8, addend: 0x0, symName: __RNvXs6_NtCsdze8u8oDPro_5alloc3vecINtB5_3VecNtNtCsATtFUPiRFW_3syn4attr9AttributeENtNtNtCs9f3LFPSIp77_4core3ops5deref5Deref5derefBJ_, symObjAddr: 0x83AC, symBinAddr: 0x153F4, symSize: 0x24 }
  - { offset: 0x3B161, size: 0x8, addend: 0x0, symName: __RNvXs6_NtCsdze8u8oDPro_5alloc3vecINtB5_3VecNtNtCsATtFUPiRFW_3syn4expr3ArmENtNtNtCs9f3LFPSIp77_4core3ops5deref5Deref5derefBJ_, symObjAddr: 0x83D0, symBinAddr: 0x15418, symSize: 0x24 }
  - { offset: 0x3B1A1, size: 0x8, addend: 0x0, symName: __RNvXs6_NtCsdze8u8oDPro_5alloc3vecINtB5_3VecNtNtCsATtFUPiRFW_3syn5error12ErrorMessageENtNtNtCs9f3LFPSIp77_4core3ops5deref5Deref5derefBJ_, symObjAddr: 0x83F4, symBinAddr: 0x1543C, symSize: 0x24 }
  - { offset: 0x3B1E1, size: 0x8, addend: 0x0, symName: __RNvXs6_NtCsdze8u8oDPro_5alloc3vecINtB5_3VecReENtNtNtCs9f3LFPSIp77_4core3ops5deref5Deref5derefCsATtFUPiRFW_3syn, symObjAddr: 0x8418, symBinAddr: 0x15460, symSize: 0x24 }
  - { offset: 0x3B221, size: 0x8, addend: 0x0, symName: __RNvXs6_NtCsdze8u8oDPro_5alloc3vecINtB5_3VecTNtNtCsATtFUPiRFW_3syn2ty4TypeNtNtBK_5token5CommaEENtNtNtCs9f3LFPSIp77_4core3ops5deref5Deref5derefBK_, symObjAddr: 0x843C, symBinAddr: 0x15484, symSize: 0x24 }
  - { offset: 0x3B261, size: 0x8, addend: 0x0, symName: __RNvXs6_NtCsdze8u8oDPro_5alloc3vecINtB5_3VecTNtNtCsATtFUPiRFW_3syn2ty9BareFnArgNtNtBK_5token5CommaEENtNtNtCs9f3LFPSIp77_4core3ops5deref5Deref5derefBK_, symObjAddr: 0x8460, symBinAddr: 0x154A8, symSize: 0x24 }
  - { offset: 0x3B2A1, size: 0x8, addend: 0x0, symName: __RNvXs6_NtCsdze8u8oDPro_5alloc3vecINtB5_3VecTNtNtCsATtFUPiRFW_3syn3pat3PatNtNtBK_5token2OrEENtNtNtCs9f3LFPSIp77_4core3ops5deref5Deref5derefBK_, symObjAddr: 0x8484, symBinAddr: 0x154CC, symSize: 0x24 }
  - { offset: 0x3B2E1, size: 0x8, addend: 0x0, symName: __RNvXs6_NtCsdze8u8oDPro_5alloc3vecINtB5_3VecTNtNtCsATtFUPiRFW_3syn3pat3PatNtNtBK_5token5CommaEENtNtNtCs9f3LFPSIp77_4core3ops5deref5Deref5derefBK_, symObjAddr: 0x84A8, symBinAddr: 0x154F0, symSize: 0x24 }
  - { offset: 0x3B321, size: 0x8, addend: 0x0, symName: __RNvXs6_NtCsdze8u8oDPro_5alloc3vecINtB5_3VecTNtNtCsATtFUPiRFW_3syn3pat8FieldPatNtNtBK_5token5CommaEENtNtNtCs9f3LFPSIp77_4core3ops5deref5Deref5derefBK_, symObjAddr: 0x84CC, symBinAddr: 0x15514, symSize: 0x24 }
  - { offset: 0x3B361, size: 0x8, addend: 0x0, symName: __RNvXs6_NtCsdze8u8oDPro_5alloc3vecINtB5_3VecTNtNtCsATtFUPiRFW_3syn4data5FieldNtNtBK_5token5CommaEENtNtNtCs9f3LFPSIp77_4core3ops5deref5Deref5derefBK_, symObjAddr: 0x84F0, symBinAddr: 0x15538, symSize: 0x24 }
  - { offset: 0x3B3A1, size: 0x8, addend: 0x0, symName: __RNvXs6_NtCsdze8u8oDPro_5alloc3vecINtB5_3VecTNtNtCsATtFUPiRFW_3syn4data7VariantNtNtBK_5token5CommaEENtNtNtCs9f3LFPSIp77_4core3ops5deref5Deref5derefBK_, symObjAddr: 0x8514, symBinAddr: 0x1555C, symSize: 0x24 }
  - { offset: 0x3B3E1, size: 0x8, addend: 0x0, symName: __RNvXs6_NtCsdze8u8oDPro_5alloc3vecINtB5_3VecTNtNtCsATtFUPiRFW_3syn4expr10FieldValueNtNtBK_5token5CommaEENtNtNtCs9f3LFPSIp77_4core3ops5deref5Deref5derefBK_, symObjAddr: 0x8538, symBinAddr: 0x15580, symSize: 0x24 }
  - { offset: 0x3B421, size: 0x8, addend: 0x0, symName: __RNvXs6_NtCsdze8u8oDPro_5alloc3vecINtB5_3VecTNtNtCsATtFUPiRFW_3syn4expr4ExprNtNtBK_5token5CommaEENtNtNtCs9f3LFPSIp77_4core3ops5deref5Deref5derefBK_, symObjAddr: 0x855C, symBinAddr: 0x155A4, symSize: 0x24 }
  - { offset: 0x3B461, size: 0x8, addend: 0x0, symName: __RNvXs6_NtCsdze8u8oDPro_5alloc3vecINtB5_3VecTNtNtCsATtFUPiRFW_3syn4item5FnArgNtNtBK_5token5CommaEENtNtNtCs9f3LFPSIp77_4core3ops5deref5Deref5derefBK_, symObjAddr: 0x8580, symBinAddr: 0x155C8, symSize: 0x24 }
  - { offset: 0x3B4A1, size: 0x8, addend: 0x0, symName: __RNvXs6_NtCsdze8u8oDPro_5alloc3vecINtB5_3VecTNtNtCsATtFUPiRFW_3syn4item7UseTreeNtNtBK_5token5CommaEENtNtNtCs9f3LFPSIp77_4core3ops5deref5Deref5derefBK_, symObjAddr: 0x85A4, symBinAddr: 0x155EC, symSize: 0x24 }
  - { offset: 0x3B4E1, size: 0x8, addend: 0x0, symName: __RNvXs6_NtCsdze8u8oDPro_5alloc3vecINtB5_3VecTNtNtCsATtFUPiRFW_3syn4path11PathSegmentNtNtBK_5token7PathSepEENtNtNtCs9f3LFPSIp77_4core3ops5deref5Deref5derefBK_, symObjAddr: 0x85C8, symBinAddr: 0x15610, symSize: 0x24 }
  - { offset: 0x3B521, size: 0x8, addend: 0x0, symName: __RNvXs6_NtCsdze8u8oDPro_5alloc3vecINtB5_3VecTNtNtCsATtFUPiRFW_3syn4path15GenericArgumentNtNtBK_5token5CommaEENtNtNtCs9f3LFPSIp77_4core3ops5deref5Deref5derefBK_, symObjAddr: 0x85EC, symBinAddr: 0x15634, symSize: 0x24 }
  - { offset: 0x3B561, size: 0x8, addend: 0x0, symName: __RNvXs6_NtCsdze8u8oDPro_5alloc3vecINtB5_3VecTNtNtCsATtFUPiRFW_3syn8generics12GenericParamNtNtBK_5token5CommaEENtNtNtCs9f3LFPSIp77_4core3ops5deref5Deref5derefBK_, symObjAddr: 0x8610, symBinAddr: 0x15658, symSize: 0x24 }
  - { offset: 0x3B5A1, size: 0x8, addend: 0x0, symName: __RNvXs6_NtCsdze8u8oDPro_5alloc3vecINtB5_3VecTNtNtCsATtFUPiRFW_3syn8generics13CapturedParamNtNtBK_5token5CommaEENtNtNtCs9f3LFPSIp77_4core3ops5deref5Deref5derefBK_, symObjAddr: 0x8634, symBinAddr: 0x1567C, symSize: 0x24 }
  - { offset: 0x3B5E1, size: 0x8, addend: 0x0, symName: __RNvXs6_NtCsdze8u8oDPro_5alloc3vecINtB5_3VecTNtNtCsATtFUPiRFW_3syn8generics14TypeParamBoundNtNtBK_5token4PlusEENtNtNtCs9f3LFPSIp77_4core3ops5deref5Deref5derefBK_, symObjAddr: 0x8658, symBinAddr: 0x156A0, symSize: 0x24 }
  - { offset: 0x3B621, size: 0x8, addend: 0x0, symName: __RNvXs6_NtCsdze8u8oDPro_5alloc3vecINtB5_3VecTNtNtCsATtFUPiRFW_3syn8generics14WherePredicateNtNtBK_5token5CommaEENtNtNtCs9f3LFPSIp77_4core3ops5deref5Deref5derefBK_, symObjAddr: 0x867C, symBinAddr: 0x156C4, symSize: 0x24 }
  - { offset: 0x3B661, size: 0x8, addend: 0x0, symName: __RNvXs6_NtCsdze8u8oDPro_5alloc3vecINtB5_3VecTNtNtCsATtFUPiRFW_3syn8lifetime8LifetimeNtNtBK_5token4PlusEENtNtNtCs9f3LFPSIp77_4core3ops5deref5Deref5derefBK_, symObjAddr: 0x86A0, symBinAddr: 0x156E8, symSize: 0x24 }
  - { offset: 0x3B6A1, size: 0x8, addend: 0x0, symName: __RNvXs6_NtCsdze8u8oDPro_5alloc3vecINtB5_3VechENtNtNtCs9f3LFPSIp77_4core3ops5deref5Deref5derefCsATtFUPiRFW_3syn, symObjAddr: 0x86C4, symBinAddr: 0x1570C, symSize: 0x24 }
  - { offset: 0x3C7C7, size: 0x8, addend: 0x0, symName: __RNvXs7_NtCsdze8u8oDPro_5alloc3vecINtB5_3VecTNtNtCsATtFUPiRFW_3syn4data5FieldNtNtBK_5token5CommaEENtNtNtCs9f3LFPSIp77_4core3ops5deref8DerefMut9deref_mutBK_, symObjAddr: 0x86E8, symBinAddr: 0x15730, symSize: 0x24 }
  - { offset: 0x3C807, size: 0x8, addend: 0x0, symName: __RNvXs7_NtCsdze8u8oDPro_5alloc3vecINtB5_3VecTNtNtCsATtFUPiRFW_3syn4path11PathSegmentNtNtBK_5token7PathSepEENtNtNtCs9f3LFPSIp77_4core3ops5deref8DerefMut9deref_mutBK_, symObjAddr: 0x870C, symBinAddr: 0x15754, symSize: 0x24 }
  - { offset: 0x3C847, size: 0x8, addend: 0x0, symName: __RNvXs7_NtCsdze8u8oDPro_5alloc3vecINtB5_3VecTNtNtCsATtFUPiRFW_3syn8generics12GenericParamNtNtBK_5token5CommaEENtNtNtCs9f3LFPSIp77_4core3ops5deref8DerefMut9deref_mutBK_, symObjAddr: 0x8730, symBinAddr: 0x15778, symSize: 0x24 }
  - { offset: 0x3C91D, size: 0x8, addend: 0x0, symName: __RNvXs9_NtCsdze8u8oDPro_5alloc3vecINtB5_3VecNtNtCsATtFUPiRFW_3syn4attr9AttributeENtNtCs9f3LFPSIp77_4core5clone5Clone5cloneBJ_, symObjAddr: 0x8754, symBinAddr: 0x1579C, symSize: 0xB0 }
  - { offset: 0x3CB81, size: 0x8, addend: 0x0, symName: __RNvXs9_NtCsdze8u8oDPro_5alloc3vecINtB5_3VecNtNtCsATtFUPiRFW_3syn4expr3ArmENtNtCs9f3LFPSIp77_4core5clone5Clone5cloneBJ_, symObjAddr: 0x8804, symBinAddr: 0x1584C, symSize: 0xB0 }
  - { offset: 0x3CDE5, size: 0x8, addend: 0x0, symName: __RNvXs9_NtCsdze8u8oDPro_5alloc3vecINtB5_3VecNtNtCsATtFUPiRFW_3syn4item11ForeignItemENtNtCs9f3LFPSIp77_4core5clone5Clone5cloneBJ_, symObjAddr: 0x88B4, symBinAddr: 0x158FC, symSize: 0xB0 }
  - { offset: 0x3D049, size: 0x8, addend: 0x0, symName: __RNvXs9_NtCsdze8u8oDPro_5alloc3vecINtB5_3VecNtNtCsATtFUPiRFW_3syn4item4ItemENtNtCs9f3LFPSIp77_4core5clone5Clone5cloneBJ_, symObjAddr: 0x8964, symBinAddr: 0x159AC, symSize: 0xB0 }
  - { offset: 0x3D2AD, size: 0x8, addend: 0x0, symName: __RNvXs9_NtCsdze8u8oDPro_5alloc3vecINtB5_3VecNtNtCsATtFUPiRFW_3syn4item8ImplItemENtNtCs9f3LFPSIp77_4core5clone5Clone5cloneBJ_, symObjAddr: 0x8A14, symBinAddr: 0x15A5C, symSize: 0xB0 }
  - { offset: 0x3D511, size: 0x8, addend: 0x0, symName: __RNvXs9_NtCsdze8u8oDPro_5alloc3vecINtB5_3VecNtNtCsATtFUPiRFW_3syn4item9TraitItemENtNtCs9f3LFPSIp77_4core5clone5Clone5cloneBJ_, symObjAddr: 0x8AC4, symBinAddr: 0x15B0C, symSize: 0xB0 }
  - { offset: 0x3D775, size: 0x8, addend: 0x0, symName: __RNvXs9_NtCsdze8u8oDPro_5alloc3vecINtB5_3VecNtNtCsATtFUPiRFW_3syn4stmt4StmtENtNtCs9f3LFPSIp77_4core5clone5Clone5cloneBJ_, symObjAddr: 0x8B74, symBinAddr: 0x15BBC, symSize: 0xB0 }
  - { offset: 0x3D9D9, size: 0x8, addend: 0x0, symName: __RNvXs9_NtCsdze8u8oDPro_5alloc3vecINtB5_3VecNtNtCsATtFUPiRFW_3syn5error12ErrorMessageENtNtCs9f3LFPSIp77_4core5clone5Clone5cloneBJ_, symObjAddr: 0x8C24, symBinAddr: 0x15C6C, symSize: 0xB0 }
  - { offset: 0x3DC3D, size: 0x8, addend: 0x0, symName: __RNvXs9_NtCsdze8u8oDPro_5alloc3vecINtB5_3VecTNtNtCsATtFUPiRFW_3syn2ty4TypeNtNtBK_5token5CommaEENtNtCs9f3LFPSIp77_4core5clone5Clone5cloneBK_, symObjAddr: 0x8CD4, symBinAddr: 0x15D1C, symSize: 0xB0 }
  - { offset: 0x3DEA1, size: 0x8, addend: 0x0, symName: __RNvXs9_NtCsdze8u8oDPro_5alloc3vecINtB5_3VecTNtNtCsATtFUPiRFW_3syn2ty9BareFnArgNtNtBK_5token5CommaEENtNtCs9f3LFPSIp77_4core5clone5Clone5cloneBK_, symObjAddr: 0x8D84, symBinAddr: 0x15DCC, symSize: 0xB0 }
  - { offset: 0x3E105, size: 0x8, addend: 0x0, symName: __RNvXs9_NtCsdze8u8oDPro_5alloc3vecINtB5_3VecTNtNtCsATtFUPiRFW_3syn3pat3PatNtNtBK_5token2OrEENtNtCs9f3LFPSIp77_4core5clone5Clone5cloneBK_, symObjAddr: 0x8E34, symBinAddr: 0x15E7C, symSize: 0xB0 }
  - { offset: 0x3E369, size: 0x8, addend: 0x0, symName: __RNvXs9_NtCsdze8u8oDPro_5alloc3vecINtB5_3VecTNtNtCsATtFUPiRFW_3syn3pat3PatNtNtBK_5token5CommaEENtNtCs9f3LFPSIp77_4core5clone5Clone5cloneBK_, symObjAddr: 0x8EE4, symBinAddr: 0x15F2C, symSize: 0xB0 }
  - { offset: 0x3E5CD, size: 0x8, addend: 0x0, symName: __RNvXs9_NtCsdze8u8oDPro_5alloc3vecINtB5_3VecTNtNtCsATtFUPiRFW_3syn3pat8FieldPatNtNtBK_5token5CommaEENtNtCs9f3LFPSIp77_4core5clone5Clone5cloneBK_, symObjAddr: 0x8F94, symBinAddr: 0x15FDC, symSize: 0xB0 }
  - { offset: 0x3E831, size: 0x8, addend: 0x0, symName: __RNvXs9_NtCsdze8u8oDPro_5alloc3vecINtB5_3VecTNtNtCsATtFUPiRFW_3syn4data5FieldNtNtBK_5token5CommaEENtNtCs9f3LFPSIp77_4core5clone5Clone5cloneBK_, symObjAddr: 0x9044, symBinAddr: 0x1608C, symSize: 0xB0 }
  - { offset: 0x3EA95, size: 0x8, addend: 0x0, symName: __RNvXs9_NtCsdze8u8oDPro_5alloc3vecINtB5_3VecTNtNtCsATtFUPiRFW_3syn4data7VariantNtNtBK_5token5CommaEENtNtCs9f3LFPSIp77_4core5clone5Clone5cloneBK_, symObjAddr: 0x90F4, symBinAddr: 0x1613C, symSize: 0xB0 }
  - { offset: 0x3ECF9, size: 0x8, addend: 0x0, symName: __RNvXs9_NtCsdze8u8oDPro_5alloc3vecINtB5_3VecTNtNtCsATtFUPiRFW_3syn4expr10FieldValueNtNtBK_5token5CommaEENtNtCs9f3LFPSIp77_4core5clone5Clone5cloneBK_, symObjAddr: 0x91A4, symBinAddr: 0x161EC, symSize: 0xB0 }
  - { offset: 0x3EF5D, size: 0x8, addend: 0x0, symName: __RNvXs9_NtCsdze8u8oDPro_5alloc3vecINtB5_3VecTNtNtCsATtFUPiRFW_3syn4expr4ExprNtNtBK_5token5CommaEENtNtCs9f3LFPSIp77_4core5clone5Clone5cloneBK_, symObjAddr: 0x9254, symBinAddr: 0x1629C, symSize: 0xB0 }
  - { offset: 0x3F1C1, size: 0x8, addend: 0x0, symName: __RNvXs9_NtCsdze8u8oDPro_5alloc3vecINtB5_3VecTNtNtCsATtFUPiRFW_3syn4item5FnArgNtNtBK_5token5CommaEENtNtCs9f3LFPSIp77_4core5clone5Clone5cloneBK_, symObjAddr: 0x9304, symBinAddr: 0x1634C, symSize: 0xB0 }
  - { offset: 0x3F425, size: 0x8, addend: 0x0, symName: __RNvXs9_NtCsdze8u8oDPro_5alloc3vecINtB5_3VecTNtNtCsATtFUPiRFW_3syn4item7UseTreeNtNtBK_5token5CommaEENtNtCs9f3LFPSIp77_4core5clone5Clone5cloneBK_, symObjAddr: 0x93B4, symBinAddr: 0x163FC, symSize: 0xB0 }
  - { offset: 0x3F689, size: 0x8, addend: 0x0, symName: __RNvXs9_NtCsdze8u8oDPro_5alloc3vecINtB5_3VecTNtNtCsATtFUPiRFW_3syn4path11PathSegmentNtNtBK_5token7PathSepEENtNtCs9f3LFPSIp77_4core5clone5Clone5cloneBK_, symObjAddr: 0x9464, symBinAddr: 0x164AC, symSize: 0xB0 }
  - { offset: 0x3F8ED, size: 0x8, addend: 0x0, symName: __RNvXs9_NtCsdze8u8oDPro_5alloc3vecINtB5_3VecTNtNtCsATtFUPiRFW_3syn4path15GenericArgumentNtNtBK_5token5CommaEENtNtCs9f3LFPSIp77_4core5clone5Clone5cloneBK_, symObjAddr: 0x9514, symBinAddr: 0x1655C, symSize: 0xB0 }
  - { offset: 0x3FB51, size: 0x8, addend: 0x0, symName: __RNvXs9_NtCsdze8u8oDPro_5alloc3vecINtB5_3VecTNtNtCsATtFUPiRFW_3syn8generics12GenericParamNtNtBK_5token5CommaEENtNtCs9f3LFPSIp77_4core5clone5Clone5cloneBK_, symObjAddr: 0x95C4, symBinAddr: 0x1660C, symSize: 0xB0 }
  - { offset: 0x3FDB5, size: 0x8, addend: 0x0, symName: __RNvXs9_NtCsdze8u8oDPro_5alloc3vecINtB5_3VecTNtNtCsATtFUPiRFW_3syn8generics13CapturedParamNtNtBK_5token5CommaEENtNtCs9f3LFPSIp77_4core5clone5Clone5cloneBK_, symObjAddr: 0x9674, symBinAddr: 0x166BC, symSize: 0xB0 }
  - { offset: 0x40019, size: 0x8, addend: 0x0, symName: __RNvXs9_NtCsdze8u8oDPro_5alloc3vecINtB5_3VecTNtNtCsATtFUPiRFW_3syn8generics14TypeParamBoundNtNtBK_5token4PlusEENtNtCs9f3LFPSIp77_4core5clone5Clone5cloneBK_, symObjAddr: 0x9724, symBinAddr: 0x1676C, symSize: 0xB0 }
  - { offset: 0x4027D, size: 0x8, addend: 0x0, symName: __RNvXs9_NtCsdze8u8oDPro_5alloc3vecINtB5_3VecTNtNtCsATtFUPiRFW_3syn8generics14WherePredicateNtNtBK_5token5CommaEENtNtCs9f3LFPSIp77_4core5clone5Clone5cloneBK_, symObjAddr: 0x97D4, symBinAddr: 0x1681C, symSize: 0xB0 }
  - { offset: 0x404E1, size: 0x8, addend: 0x0, symName: __RNvXs9_NtCsdze8u8oDPro_5alloc3vecINtB5_3VecTNtNtCsATtFUPiRFW_3syn8lifetime8LifetimeNtNtBK_5token4PlusEENtNtCs9f3LFPSIp77_4core5clone5Clone5cloneBK_, symObjAddr: 0x9884, symBinAddr: 0x168CC, symSize: 0xB0 }
  - { offset: 0x4074B, size: 0x8, addend: 0x0, symName: __RNvXsb_NtCsdze8u8oDPro_5alloc3vecINtB5_3VecNtNtCsATtFUPiRFW_3syn4attr9AttributeEINtNtNtCs9f3LFPSIp77_4core3ops5index5IndexNtNtB1l_5range9RangeFullE5indexBJ_, symObjAddr: 0x9A60, symBinAddr: 0x16AA8, symSize: 0x90 }
  - { offset: 0x40929, size: 0x8, addend: 0x0, symName: __RNvXsb_NtCsdze8u8oDPro_5alloc3vecINtB5_3VecNtNtCsATtFUPiRFW_3syn4expr3ArmEINtNtNtCs9f3LFPSIp77_4core3ops5index5IndexNtNtB1f_5range9RangeFullE5indexBJ_, symObjAddr: 0x9AF0, symBinAddr: 0x16B38, symSize: 0x90 }
  - { offset: 0x40B07, size: 0x8, addend: 0x0, symName: __RNvXsb_NtCsdze8u8oDPro_5alloc3vecINtB5_3VecNtNtCsATtFUPiRFW_3syn4item11ForeignItemEINtNtNtCs9f3LFPSIp77_4core3ops5index5IndexNtNtB1o_5range9RangeFullE5indexBJ_, symObjAddr: 0x9B80, symBinAddr: 0x16BC8, symSize: 0x90 }
  - { offset: 0x40CE5, size: 0x8, addend: 0x0, symName: __RNvXsb_NtCsdze8u8oDPro_5alloc3vecINtB5_3VecNtNtCsATtFUPiRFW_3syn4item4ItemEINtNtNtCs9f3LFPSIp77_4core3ops5index5IndexNtNtB1g_5range9RangeFullE5indexBJ_, symObjAddr: 0x9C10, symBinAddr: 0x16C58, symSize: 0x90 }
  - { offset: 0x40EC3, size: 0x8, addend: 0x0, symName: __RNvXsb_NtCsdze8u8oDPro_5alloc3vecINtB5_3VecNtNtCsATtFUPiRFW_3syn4item8ImplItemEINtNtNtCs9f3LFPSIp77_4core3ops5index5IndexNtNtB1k_5range9RangeFullE5indexBJ_, symObjAddr: 0x9CA0, symBinAddr: 0x16CE8, symSize: 0x90 }
  - { offset: 0x410A1, size: 0x8, addend: 0x0, symName: __RNvXsb_NtCsdze8u8oDPro_5alloc3vecINtB5_3VecNtNtCsATtFUPiRFW_3syn4item9TraitItemEINtNtNtCs9f3LFPSIp77_4core3ops5index5IndexNtNtB1l_5range9RangeFullE5indexBJ_, symObjAddr: 0x9D30, symBinAddr: 0x16D78, symSize: 0x90 }
  - { offset: 0x4127F, size: 0x8, addend: 0x0, symName: __RNvXsb_NtCsdze8u8oDPro_5alloc3vecINtB5_3VecNtNtCsATtFUPiRFW_3syn4stmt4StmtEINtNtNtCs9f3LFPSIp77_4core3ops5index5IndexNtNtB1g_5range9RangeFullE5indexBJ_, symObjAddr: 0x9DC0, symBinAddr: 0x16E08, symSize: 0x90 }
  - { offset: 0x4145D, size: 0x8, addend: 0x0, symName: __RNvXsb_NtCsdze8u8oDPro_5alloc3vecINtB5_3VecNtNtCsATtFUPiRFW_3syn5error12ErrorMessageEINtNtNtCs9f3LFPSIp77_4core3ops5index5IndexjE5indexBJ_, symObjAddr: 0x9E50, symBinAddr: 0x16E98, symSize: 0x9C }
  - { offset: 0x4163B, size: 0x8, addend: 0x0, symName: __RNvXsb_NtCsdze8u8oDPro_5alloc3vecINtB5_3VecReEINtNtNtCs9f3LFPSIp77_4core3ops5index5IndexjE5indexCsATtFUPiRFW_3syn, symObjAddr: 0x9EEC, symBinAddr: 0x16F34, symSize: 0x9C }
  - { offset: 0x41819, size: 0x8, addend: 0x0, symName: __RNvXsb_NtCsdze8u8oDPro_5alloc3vecINtB5_3VecTNtNtCsATtFUPiRFW_3syn2ty4TypeNtNtBK_5token5CommaEEINtNtNtCs9f3LFPSIp77_4core3ops5index5IndexNtNtB1z_5range9RangeFullE5indexBK_, symObjAddr: 0x9F88, symBinAddr: 0x16FD0, symSize: 0x90 }
  - { offset: 0x419F7, size: 0x8, addend: 0x0, symName: __RNvXsb_NtCsdze8u8oDPro_5alloc3vecINtB5_3VecTNtNtCsATtFUPiRFW_3syn2ty9BareFnArgNtNtBK_5token5CommaEEINtNtNtCs9f3LFPSIp77_4core3ops5index5IndexNtNtB1E_5range9RangeFullE5indexBK_, symObjAddr: 0xA018, symBinAddr: 0x17060, symSize: 0x90 }
  - { offset: 0x41BD5, size: 0x8, addend: 0x0, symName: __RNvXsb_NtCsdze8u8oDPro_5alloc3vecINtB5_3VecTNtNtCsATtFUPiRFW_3syn3pat3PatNtNtBK_5token2OrEEINtNtNtCs9f3LFPSIp77_4core3ops5index5IndexNtNtB1w_5range9RangeFullE5indexBK_, symObjAddr: 0xA0A8, symBinAddr: 0x170F0, symSize: 0x90 }
  - { offset: 0x41DB3, size: 0x8, addend: 0x0, symName: __RNvXsb_NtCsdze8u8oDPro_5alloc3vecINtB5_3VecTNtNtCsATtFUPiRFW_3syn3pat3PatNtNtBK_5token5CommaEEINtNtNtCs9f3LFPSIp77_4core3ops5index5IndexNtNtB1z_5range9RangeFullE5indexBK_, symObjAddr: 0xA138, symBinAddr: 0x17180, symSize: 0x90 }
  - { offset: 0x41F91, size: 0x8, addend: 0x0, symName: __RNvXsb_NtCsdze8u8oDPro_5alloc3vecINtB5_3VecTNtNtCsATtFUPiRFW_3syn3pat3PatNtNtBK_5token5CommaEEINtNtNtCs9f3LFPSIp77_4core3ops5index5IndexjE5indexBK_, symObjAddr: 0xA1C8, symBinAddr: 0x17210, symSize: 0x9C }
  - { offset: 0x4216F, size: 0x8, addend: 0x0, symName: __RNvXsb_NtCsdze8u8oDPro_5alloc3vecINtB5_3VecTNtNtCsATtFUPiRFW_3syn3pat8FieldPatNtNtBK_5token5CommaEEINtNtNtCs9f3LFPSIp77_4core3ops5index5IndexNtNtB1E_5range9RangeFullE5indexBK_, symObjAddr: 0xA264, symBinAddr: 0x172AC, symSize: 0x90 }
  - { offset: 0x4234D, size: 0x8, addend: 0x0, symName: __RNvXsb_NtCsdze8u8oDPro_5alloc3vecINtB5_3VecTNtNtCsATtFUPiRFW_3syn4data5FieldNtNtBK_5token5CommaEEINtNtNtCs9f3LFPSIp77_4core3ops5index5IndexNtNtB1C_5range9RangeFullE5indexBK_, symObjAddr: 0xA2F4, symBinAddr: 0x1733C, symSize: 0x90 }
  - { offset: 0x4252B, size: 0x8, addend: 0x0, symName: __RNvXsb_NtCsdze8u8oDPro_5alloc3vecINtB5_3VecTNtNtCsATtFUPiRFW_3syn4data7VariantNtNtBK_5token5CommaEEINtNtNtCs9f3LFPSIp77_4core3ops5index5IndexNtNtB1E_5range9RangeFullE5indexBK_, symObjAddr: 0xA384, symBinAddr: 0x173CC, symSize: 0x90 }
  - { offset: 0x42709, size: 0x8, addend: 0x0, symName: __RNvXsb_NtCsdze8u8oDPro_5alloc3vecINtB5_3VecTNtNtCsATtFUPiRFW_3syn4expr10FieldValueNtNtBK_5token5CommaEEINtNtNtCs9f3LFPSIp77_4core3ops5index5IndexNtNtB1I_5range9RangeFullE5indexBK_, symObjAddr: 0xA414, symBinAddr: 0x1745C, symSize: 0x90 }
  - { offset: 0x428E7, size: 0x8, addend: 0x0, symName: __RNvXsb_NtCsdze8u8oDPro_5alloc3vecINtB5_3VecTNtNtCsATtFUPiRFW_3syn4expr4ExprNtNtBK_5token5CommaEEINtNtNtCs9f3LFPSIp77_4core3ops5index5IndexNtNtB1B_5range9RangeFullE5indexBK_, symObjAddr: 0xA4A4, symBinAddr: 0x174EC, symSize: 0x90 }
  - { offset: 0x42AC5, size: 0x8, addend: 0x0, symName: __RNvXsb_NtCsdze8u8oDPro_5alloc3vecINtB5_3VecTNtNtCsATtFUPiRFW_3syn4item5FnArgNtNtBK_5token5CommaEEINtNtNtCs9f3LFPSIp77_4core3ops5index5IndexNtNtB1C_5range9RangeFullE5indexBK_, symObjAddr: 0xA534, symBinAddr: 0x1757C, symSize: 0x90 }
  - { offset: 0x42CA3, size: 0x8, addend: 0x0, symName: __RNvXsb_NtCsdze8u8oDPro_5alloc3vecINtB5_3VecTNtNtCsATtFUPiRFW_3syn4item7UseTreeNtNtBK_5token5CommaEEINtNtNtCs9f3LFPSIp77_4core3ops5index5IndexNtNtB1E_5range9RangeFullE5indexBK_, symObjAddr: 0xA5C4, symBinAddr: 0x1760C, symSize: 0x90 }
  - { offset: 0x42E81, size: 0x8, addend: 0x0, symName: __RNvXsb_NtCsdze8u8oDPro_5alloc3vecINtB5_3VecTNtNtCsATtFUPiRFW_3syn4path11PathSegmentNtNtBK_5token7PathSepEEINtNtNtCs9f3LFPSIp77_4core3ops5index5IndexNtNtB1L_5range9RangeFullE5indexBK_, symObjAddr: 0xA654, symBinAddr: 0x1769C, symSize: 0x90 }
  - { offset: 0x4305F, size: 0x8, addend: 0x0, symName: __RNvXsb_NtCsdze8u8oDPro_5alloc3vecINtB5_3VecTNtNtCsATtFUPiRFW_3syn4path11PathSegmentNtNtBK_5token7PathSepEEINtNtNtCs9f3LFPSIp77_4core3ops5index5IndexjE5indexBK_, symObjAddr: 0xA6E4, symBinAddr: 0x1772C, symSize: 0x9C }
  - { offset: 0x4323D, size: 0x8, addend: 0x0, symName: __RNvXsb_NtCsdze8u8oDPro_5alloc3vecINtB5_3VecTNtNtCsATtFUPiRFW_3syn4path15GenericArgumentNtNtBK_5token5CommaEEINtNtNtCs9f3LFPSIp77_4core3ops5index5IndexNtNtB1N_5range9RangeFullE5indexBK_, symObjAddr: 0xA780, symBinAddr: 0x177C8, symSize: 0x90 }
  - { offset: 0x4341B, size: 0x8, addend: 0x0, symName: __RNvXsb_NtCsdze8u8oDPro_5alloc3vecINtB5_3VecTNtNtCsATtFUPiRFW_3syn8generics12GenericParamNtNtBK_5token5CommaEEINtNtNtCs9f3LFPSIp77_4core3ops5index5IndexNtNtB1O_5range9RangeFullE5indexBK_, symObjAddr: 0xA810, symBinAddr: 0x17858, symSize: 0x90 }
  - { offset: 0x435F9, size: 0x8, addend: 0x0, symName: __RNvXsb_NtCsdze8u8oDPro_5alloc3vecINtB5_3VecTNtNtCsATtFUPiRFW_3syn8generics13CapturedParamNtNtBK_5token5CommaEEINtNtNtCs9f3LFPSIp77_4core3ops5index5IndexNtNtB1P_5range9RangeFullE5indexBK_, symObjAddr: 0xA8A0, symBinAddr: 0x178E8, symSize: 0x90 }
  - { offset: 0x437D7, size: 0x8, addend: 0x0, symName: __RNvXsb_NtCsdze8u8oDPro_5alloc3vecINtB5_3VecTNtNtCsATtFUPiRFW_3syn8generics14TypeParamBoundNtNtBK_5token4PlusEEINtNtNtCs9f3LFPSIp77_4core3ops5index5IndexNtNtB1P_5range9RangeFullE5indexBK_, symObjAddr: 0xA930, symBinAddr: 0x17978, symSize: 0x90 }
  - { offset: 0x439B5, size: 0x8, addend: 0x0, symName: __RNvXsb_NtCsdze8u8oDPro_5alloc3vecINtB5_3VecTNtNtCsATtFUPiRFW_3syn8generics14WherePredicateNtNtBK_5token5CommaEEINtNtNtCs9f3LFPSIp77_4core3ops5index5IndexNtNtB1Q_5range9RangeFullE5indexBK_, symObjAddr: 0xA9C0, symBinAddr: 0x17A08, symSize: 0x90 }
  - { offset: 0x43B93, size: 0x8, addend: 0x0, symName: __RNvXsb_NtCsdze8u8oDPro_5alloc3vecINtB5_3VecTNtNtCsATtFUPiRFW_3syn8lifetime8LifetimeNtNtBK_5token4PlusEEINtNtNtCs9f3LFPSIp77_4core3ops5index5IndexNtNtB1I_5range9RangeFullE5indexBK_, symObjAddr: 0xAA50, symBinAddr: 0x17A98, symSize: 0x90 }
  - { offset: 0x43D71, size: 0x8, addend: 0x0, symName: __RNvXsb_NtCsdze8u8oDPro_5alloc3vecINtB5_3VechEINtNtNtCs9f3LFPSIp77_4core3ops5index5IndexINtNtBM_5range9RangeFromjEE5indexCsATtFUPiRFW_3syn, symObjAddr: 0xAAE0, symBinAddr: 0x17B28, symSize: 0x98 }
  - { offset: 0x43F4F, size: 0x8, addend: 0x0, symName: __RNvXsb_NtCsdze8u8oDPro_5alloc3vecINtB5_3VechEINtNtNtCs9f3LFPSIp77_4core3ops5index5IndexjE5indexCsATtFUPiRFW_3syn, symObjAddr: 0xAB78, symBinAddr: 0x17BC0, symSize: 0x98 }
  - { offset: 0x44133, size: 0x8, addend: 0x0, symName: __RNvXsc_NtCsdze8u8oDPro_5alloc3vecINtB5_3VecNtNtCsATtFUPiRFW_3syn6buffer5EntryEINtNtNtCs9f3LFPSIp77_4core3ops5index8IndexMutjE9index_mutBJ_, symObjAddr: 0xAC10, symBinAddr: 0x17C58, symSize: 0x9C }
  - { offset: 0x442E4, size: 0x8, addend: 0x0, symName: __RNvXsc_NtCsdze8u8oDPro_5alloc3vecINtB5_3VechEINtNtNtCs9f3LFPSIp77_4core3ops5index8IndexMutjE9index_mutCsATtFUPiRFW_3syn, symObjAddr: 0xACAC, symBinAddr: 0x17CF4, symSize: 0x98 }
  - { offset: 0x4449B, size: 0x8, addend: 0x0, symName: __RNvXse_NtCsdze8u8oDPro_5alloc3vecINtB5_3VecNtNtCsATtFUPiRFW_3syn4attr9AttributeENtNtNtNtCs9f3LFPSIp77_4core4iter6traits7collect12IntoIterator9into_iterBJ_, symObjAddr: 0xAD44, symBinAddr: 0x17D8C, symSize: 0xF8 }
  - { offset: 0x4476A, size: 0x8, addend: 0x0, symName: __RNvXse_NtCsdze8u8oDPro_5alloc3vecINtB5_3VecNtNtCsATtFUPiRFW_3syn4data5FieldENtNtNtNtCs9f3LFPSIp77_4core4iter6traits7collect12IntoIterator9into_iterBJ_, symObjAddr: 0xAE3C, symBinAddr: 0x17E84, symSize: 0x100 }
  - { offset: 0x44A39, size: 0x8, addend: 0x0, symName: __RNvXse_NtCsdze8u8oDPro_5alloc3vecINtB5_3VecNtNtCsATtFUPiRFW_3syn5error12ErrorMessageENtNtNtNtCs9f3LFPSIp77_4core4iter6traits7collect12IntoIterator9into_iterBJ_, symObjAddr: 0xAF3C, symBinAddr: 0x17F84, symSize: 0x100 }
  - { offset: 0x44D08, size: 0x8, addend: 0x0, symName: __RNvXse_NtCsdze8u8oDPro_5alloc3vecINtB5_3VecNtNtCsATtFUPiRFW_3syn8generics14TypeParamBoundENtNtNtNtCs9f3LFPSIp77_4core4iter6traits7collect12IntoIterator9into_iterBJ_, symObjAddr: 0xB03C, symBinAddr: 0x18084, symSize: 0x100 }
  - { offset: 0x44FD7, size: 0x8, addend: 0x0, symName: __RNvXse_NtCsdze8u8oDPro_5alloc3vecINtB5_3VecTNtNtCsATtFUPiRFW_3syn4data5FieldNtNtBK_5token5CommaEENtNtNtNtCs9f3LFPSIp77_4core4iter6traits7collect12IntoIterator9into_iterBK_, symObjAddr: 0xB13C, symBinAddr: 0x18184, symSize: 0x100 }
  - { offset: 0x452A6, size: 0x8, addend: 0x0, symName: __RNvXse_NtCsdze8u8oDPro_5alloc3vecINtB5_3VecTNtNtCsATtFUPiRFW_3syn4data5FielduEENtNtNtNtCs9f3LFPSIp77_4core4iter6traits7collect12IntoIterator9into_iterBK_, symObjAddr: 0xB23C, symBinAddr: 0x18284, symSize: 0x100 }
  - { offset: 0x45575, size: 0x8, addend: 0x0, symName: __RNvXse_NtCsdze8u8oDPro_5alloc3vecINtB5_3VecTNtNtCsATtFUPiRFW_3syn4path11PathSegmentNtNtBK_5token7PathSepEENtNtNtNtCs9f3LFPSIp77_4core4iter6traits7collect12IntoIterator9into_iterBK_, symObjAddr: 0xB33C, symBinAddr: 0x18384, symSize: 0x100 }
  - { offset: 0x45844, size: 0x8, addend: 0x0, symName: __RNvXse_NtCsdze8u8oDPro_5alloc3vecINtB5_3VecTNtNtCsATtFUPiRFW_3syn8generics14TypeParamBoundNtNtBK_5token4PlusEENtNtNtNtCs9f3LFPSIp77_4core4iter6traits7collect12IntoIterator9into_iterBK_, symObjAddr: 0xB43C, symBinAddr: 0x18484, symSize: 0xF8 }
  - { offset: 0x45B19, size: 0x8, addend: 0x0, symName: __RNvXsf_NtCsdze8u8oDPro_5alloc3vecRINtB5_3VecNtNtCsATtFUPiRFW_3syn4attr9AttributeENtNtNtNtCs9f3LFPSIp77_4core4iter6traits7collect12IntoIterator9into_iterBK_, symObjAddr: 0xB534, symBinAddr: 0x1857C, symSize: 0xB0 }
  - { offset: 0x45D99, size: 0x8, addend: 0x0, symName: __RNvXsf_NtCsdze8u8oDPro_5alloc3vecRINtB5_3VecNtNtCsATtFUPiRFW_3syn4item11ForeignItemENtNtNtNtCs9f3LFPSIp77_4core4iter6traits7collect12IntoIterator9into_iterBK_, symObjAddr: 0xB5E4, symBinAddr: 0x1862C, symSize: 0xB8 }
  - { offset: 0x46019, size: 0x8, addend: 0x0, symName: __RNvXsf_NtCsdze8u8oDPro_5alloc3vecRINtB5_3VecNtNtCsATtFUPiRFW_3syn4item4ItemENtNtNtNtCs9f3LFPSIp77_4core4iter6traits7collect12IntoIterator9into_iterBK_, symObjAddr: 0xB69C, symBinAddr: 0x186E4, symSize: 0xB8 }
  - { offset: 0x46299, size: 0x8, addend: 0x0, symName: __RNvXsf_NtCsdze8u8oDPro_5alloc3vecRINtB5_3VecNtNtCsATtFUPiRFW_3syn4item8ImplItemENtNtNtNtCs9f3LFPSIp77_4core4iter6traits7collect12IntoIterator9into_iterBK_, symObjAddr: 0xB754, symBinAddr: 0x1879C, symSize: 0xB8 }
  - { offset: 0x46519, size: 0x8, addend: 0x0, symName: __RNvXsf_NtCsdze8u8oDPro_5alloc3vecRINtB5_3VecNtNtCsATtFUPiRFW_3syn4item9TraitItemENtNtNtNtCs9f3LFPSIp77_4core4iter6traits7collect12IntoIterator9into_iterBK_, symObjAddr: 0xB80C, symBinAddr: 0x18854, symSize: 0xB8 }
  - { offset: 0x46799, size: 0x8, addend: 0x0, symName: __RNvXsf_NtCsdze8u8oDPro_5alloc3vecRINtB5_3VecNtNtCsATtFUPiRFW_3syn4stmt4StmtENtNtNtNtCs9f3LFPSIp77_4core4iter6traits7collect12IntoIterator9into_iterBK_, symObjAddr: 0xB8C4, symBinAddr: 0x1890C, symSize: 0xB8 }
  - { offset: 0x46A19, size: 0x8, addend: 0x0, symName: __RNvXsf_NtCsdze8u8oDPro_5alloc3vecRINtB5_3VecTNtNtCsATtFUPiRFW_3syn2ty4TypeNtNtBL_5token5CommaEENtNtNtNtCs9f3LFPSIp77_4core4iter6traits7collect12IntoIterator9into_iterBL_, symObjAddr: 0xB97C, symBinAddr: 0x189C4, symSize: 0xB8 }
  - { offset: 0x46C99, size: 0x8, addend: 0x0, symName: __RNvXsf_NtCsdze8u8oDPro_5alloc3vecRINtB5_3VecTNtNtCsATtFUPiRFW_3syn2ty9BareFnArgNtNtBL_5token5CommaEENtNtNtNtCs9f3LFPSIp77_4core4iter6traits7collect12IntoIterator9into_iterBL_, symObjAddr: 0xBA34, symBinAddr: 0x18A7C, symSize: 0xB8 }
  - { offset: 0x46F19, size: 0x8, addend: 0x0, symName: __RNvXsf_NtCsdze8u8oDPro_5alloc3vecRINtB5_3VecTNtNtCsATtFUPiRFW_3syn3pat3PatNtNtBL_5token2OrEENtNtNtNtCs9f3LFPSIp77_4core4iter6traits7collect12IntoIterator9into_iterBL_, symObjAddr: 0xBAEC, symBinAddr: 0x18B34, symSize: 0xB8 }
  - { offset: 0x47199, size: 0x8, addend: 0x0, symName: __RNvXsf_NtCsdze8u8oDPro_5alloc3vecRINtB5_3VecTNtNtCsATtFUPiRFW_3syn3pat3PatNtNtBL_5token5CommaEENtNtNtNtCs9f3LFPSIp77_4core4iter6traits7collect12IntoIterator9into_iterBL_, symObjAddr: 0xBBA4, symBinAddr: 0x18BEC, symSize: 0xB8 }
  - { offset: 0x47419, size: 0x8, addend: 0x0, symName: __RNvXsf_NtCsdze8u8oDPro_5alloc3vecRINtB5_3VecTNtNtCsATtFUPiRFW_3syn3pat8FieldPatNtNtBL_5token5CommaEENtNtNtNtCs9f3LFPSIp77_4core4iter6traits7collect12IntoIterator9into_iterBL_, symObjAddr: 0xBC5C, symBinAddr: 0x18CA4, symSize: 0xB8 }
  - { offset: 0x47699, size: 0x8, addend: 0x0, symName: __RNvXsf_NtCsdze8u8oDPro_5alloc3vecRINtB5_3VecTNtNtCsATtFUPiRFW_3syn4data5FieldNtNtBL_5token5CommaEENtNtNtNtCs9f3LFPSIp77_4core4iter6traits7collect12IntoIterator9into_iterBL_, symObjAddr: 0xBD14, symBinAddr: 0x18D5C, symSize: 0xB8 }
  - { offset: 0x47919, size: 0x8, addend: 0x0, symName: __RNvXsf_NtCsdze8u8oDPro_5alloc3vecRINtB5_3VecTNtNtCsATtFUPiRFW_3syn4data7VariantNtNtBL_5token5CommaEENtNtNtNtCs9f3LFPSIp77_4core4iter6traits7collect12IntoIterator9into_iterBL_, symObjAddr: 0xBDCC, symBinAddr: 0x18E14, symSize: 0xB8 }
  - { offset: 0x47B99, size: 0x8, addend: 0x0, symName: __RNvXsf_NtCsdze8u8oDPro_5alloc3vecRINtB5_3VecTNtNtCsATtFUPiRFW_3syn4expr10FieldValueNtNtBL_5token5CommaEENtNtNtNtCs9f3LFPSIp77_4core4iter6traits7collect12IntoIterator9into_iterBL_, symObjAddr: 0xBE84, symBinAddr: 0x18ECC, symSize: 0xB8 }
  - { offset: 0x47E19, size: 0x8, addend: 0x0, symName: __RNvXsf_NtCsdze8u8oDPro_5alloc3vecRINtB5_3VecTNtNtCsATtFUPiRFW_3syn4expr4ExprNtNtBL_5token5CommaEENtNtNtNtCs9f3LFPSIp77_4core4iter6traits7collect12IntoIterator9into_iterBL_, symObjAddr: 0xBF3C, symBinAddr: 0x18F84, symSize: 0xB8 }
  - { offset: 0x48099, size: 0x8, addend: 0x0, symName: __RNvXsf_NtCsdze8u8oDPro_5alloc3vecRINtB5_3VecTNtNtCsATtFUPiRFW_3syn4item5FnArgNtNtBL_5token5CommaEENtNtNtNtCs9f3LFPSIp77_4core4iter6traits7collect12IntoIterator9into_iterBL_, symObjAddr: 0xBFF4, symBinAddr: 0x1903C, symSize: 0xB8 }
  - { offset: 0x48319, size: 0x8, addend: 0x0, symName: __RNvXsf_NtCsdze8u8oDPro_5alloc3vecRINtB5_3VecTNtNtCsATtFUPiRFW_3syn4item7UseTreeNtNtBL_5token5CommaEENtNtNtNtCs9f3LFPSIp77_4core4iter6traits7collect12IntoIterator9into_iterBL_, symObjAddr: 0xC0AC, symBinAddr: 0x190F4, symSize: 0xB8 }
  - { offset: 0x48599, size: 0x8, addend: 0x0, symName: __RNvXsf_NtCsdze8u8oDPro_5alloc3vecRINtB5_3VecTNtNtCsATtFUPiRFW_3syn4path11PathSegmentNtNtBL_5token7PathSepEENtNtNtNtCs9f3LFPSIp77_4core4iter6traits7collect12IntoIterator9into_iterBL_, symObjAddr: 0xC164, symBinAddr: 0x191AC, symSize: 0xB8 }
  - { offset: 0x48819, size: 0x8, addend: 0x0, symName: __RNvXsf_NtCsdze8u8oDPro_5alloc3vecRINtB5_3VecTNtNtCsATtFUPiRFW_3syn4path15GenericArgumentNtNtBL_5token5CommaEENtNtNtNtCs9f3LFPSIp77_4core4iter6traits7collect12IntoIterator9into_iterBL_, symObjAddr: 0xC21C, symBinAddr: 0x19264, symSize: 0xB8 }
  - { offset: 0x48A99, size: 0x8, addend: 0x0, symName: __RNvXsf_NtCsdze8u8oDPro_5alloc3vecRINtB5_3VecTNtNtCsATtFUPiRFW_3syn8generics12GenericParamNtNtBL_5token5CommaEENtNtNtNtCs9f3LFPSIp77_4core4iter6traits7collect12IntoIterator9into_iterBL_, symObjAddr: 0xC2D4, symBinAddr: 0x1931C, symSize: 0xB8 }
  - { offset: 0x48D19, size: 0x8, addend: 0x0, symName: __RNvXsf_NtCsdze8u8oDPro_5alloc3vecRINtB5_3VecTNtNtCsATtFUPiRFW_3syn8generics13CapturedParamNtNtBL_5token5CommaEENtNtNtNtCs9f3LFPSIp77_4core4iter6traits7collect12IntoIterator9into_iterBL_, symObjAddr: 0xC38C, symBinAddr: 0x193D4, symSize: 0xB8 }
  - { offset: 0x48F99, size: 0x8, addend: 0x0, symName: __RNvXsf_NtCsdze8u8oDPro_5alloc3vecRINtB5_3VecTNtNtCsATtFUPiRFW_3syn8generics14TypeParamBoundNtNtBL_5token4PlusEENtNtNtNtCs9f3LFPSIp77_4core4iter6traits7collect12IntoIterator9into_iterBL_, symObjAddr: 0xC444, symBinAddr: 0x1948C, symSize: 0xB0 }
  - { offset: 0x49219, size: 0x8, addend: 0x0, symName: __RNvXsf_NtCsdze8u8oDPro_5alloc3vecRINtB5_3VecTNtNtCsATtFUPiRFW_3syn8generics14WherePredicateNtNtBL_5token5CommaEENtNtNtNtCs9f3LFPSIp77_4core4iter6traits7collect12IntoIterator9into_iterBL_, symObjAddr: 0xC4F4, symBinAddr: 0x1953C, symSize: 0xB8 }
  - { offset: 0x49499, size: 0x8, addend: 0x0, symName: __RNvXsf_NtCsdze8u8oDPro_5alloc3vecRINtB5_3VecTNtNtCsATtFUPiRFW_3syn8lifetime8LifetimeNtNtBL_5token4PlusEENtNtNtNtCs9f3LFPSIp77_4core4iter6traits7collect12IntoIterator9into_iterBL_, symObjAddr: 0xC5AC, symBinAddr: 0x195F4, symSize: 0xB8 }
  - { offset: 0x4971F, size: 0x8, addend: 0x0, symName: __RNvXsg_NtCsdze8u8oDPro_5alloc3vecQINtB5_3VechENtNtNtNtCs9f3LFPSIp77_4core4iter6traits7collect12IntoIterator9into_iterCsATtFUPiRFW_3syn, symObjAddr: 0xC664, symBinAddr: 0x196AC, symSize: 0xB0 }
  - { offset: 0x49993, size: 0x8, addend: 0x0, symName: __RNvXsn_NtCsdze8u8oDPro_5alloc3vecINtB5_3VecNtNtCsATtFUPiRFW_3syn4attr9AttributeENtNtNtCs9f3LFPSIp77_4core3ops4drop4Drop4dropBJ_, symObjAddr: 0xC714, symBinAddr: 0x1975C, symSize: 0x50 }
  - { offset: 0x49AA0, size: 0x8, addend: 0x0, symName: __RNvXsn_NtCsdze8u8oDPro_5alloc3vecINtB5_3VecNtNtCsATtFUPiRFW_3syn4data5FieldENtNtNtCs9f3LFPSIp77_4core3ops4drop4Drop4dropBJ_, symObjAddr: 0xC764, symBinAddr: 0x197AC, symSize: 0x50 }
  - { offset: 0x49BAD, size: 0x8, addend: 0x0, symName: __RNvXsn_NtCsdze8u8oDPro_5alloc3vecINtB5_3VecNtNtCsATtFUPiRFW_3syn4expr3ArmENtNtNtCs9f3LFPSIp77_4core3ops4drop4Drop4dropBJ_, symObjAddr: 0xC7B4, symBinAddr: 0x197FC, symSize: 0x50 }
  - { offset: 0x49CBA, size: 0x8, addend: 0x0, symName: __RNvXsn_NtCsdze8u8oDPro_5alloc3vecINtB5_3VecNtNtCsATtFUPiRFW_3syn4expr6ExprIfENtNtNtCs9f3LFPSIp77_4core3ops4drop4Drop4dropBJ_, symObjAddr: 0xC804, symBinAddr: 0x1984C, symSize: 0x50 }
  - { offset: 0x49DC7, size: 0x8, addend: 0x0, symName: __RNvXsn_NtCsdze8u8oDPro_5alloc3vecINtB5_3VecNtNtCsATtFUPiRFW_3syn4item11ForeignItemENtNtNtCs9f3LFPSIp77_4core3ops4drop4Drop4dropBJ_, symObjAddr: 0xC854, symBinAddr: 0x1989C, symSize: 0x50 }
  - { offset: 0x49ED4, size: 0x8, addend: 0x0, symName: __RNvXsn_NtCsdze8u8oDPro_5alloc3vecINtB5_3VecNtNtCsATtFUPiRFW_3syn4item4ItemENtNtNtCs9f3LFPSIp77_4core3ops4drop4Drop4dropBJ_, symObjAddr: 0xC8A4, symBinAddr: 0x198EC, symSize: 0x50 }
  - { offset: 0x49FE1, size: 0x8, addend: 0x0, symName: __RNvXsn_NtCsdze8u8oDPro_5alloc3vecINtB5_3VecNtNtCsATtFUPiRFW_3syn4item8ImplItemENtNtNtCs9f3LFPSIp77_4core3ops4drop4Drop4dropBJ_, symObjAddr: 0xC8F4, symBinAddr: 0x1993C, symSize: 0x50 }
  - { offset: 0x4A0EE, size: 0x8, addend: 0x0, symName: __RNvXsn_NtCsdze8u8oDPro_5alloc3vecINtB5_3VecNtNtCsATtFUPiRFW_3syn4item9TraitItemENtNtNtCs9f3LFPSIp77_4core3ops4drop4Drop4dropBJ_, symObjAddr: 0xC944, symBinAddr: 0x1998C, symSize: 0x50 }
  - { offset: 0x4A1FB, size: 0x8, addend: 0x0, symName: __RNvXsn_NtCsdze8u8oDPro_5alloc3vecINtB5_3VecNtNtCsATtFUPiRFW_3syn4stmt4StmtENtNtNtCs9f3LFPSIp77_4core3ops4drop4Drop4dropBJ_, symObjAddr: 0xC994, symBinAddr: 0x199DC, symSize: 0x50 }
  - { offset: 0x4A308, size: 0x8, addend: 0x0, symName: __RNvXsn_NtCsdze8u8oDPro_5alloc3vecINtB5_3VecNtNtCsATtFUPiRFW_3syn5error12ErrorMessageENtNtNtCs9f3LFPSIp77_4core3ops4drop4Drop4dropBJ_, symObjAddr: 0xC9E4, symBinAddr: 0x19A2C, symSize: 0x50 }
  - { offset: 0x4A415, size: 0x8, addend: 0x0, symName: __RNvXsn_NtCsdze8u8oDPro_5alloc3vecINtB5_3VecNtNtCsATtFUPiRFW_3syn6buffer5EntryENtNtNtCs9f3LFPSIp77_4core3ops4drop4Drop4dropBJ_, symObjAddr: 0xCA34, symBinAddr: 0x19A7C, symSize: 0x50 }
  - { offset: 0x4A522, size: 0x8, addend: 0x0, symName: __RNvXsn_NtCsdze8u8oDPro_5alloc3vecINtB5_3VecNtNtCsATtFUPiRFW_3syn8generics14TypeParamBoundENtNtNtCs9f3LFPSIp77_4core3ops4drop4Drop4dropBJ_, symObjAddr: 0xCA84, symBinAddr: 0x19ACC, symSize: 0x50 }
  - { offset: 0x4A62F, size: 0x8, addend: 0x0, symName: __RNvXsn_NtCsdze8u8oDPro_5alloc3vecINtB5_3VecReENtNtNtCs9f3LFPSIp77_4core3ops4drop4Drop4dropCsATtFUPiRFW_3syn, symObjAddr: 0xCAD4, symBinAddr: 0x19B1C, symSize: 0x3C }
  - { offset: 0x4A73C, size: 0x8, addend: 0x0, symName: __RNvXsn_NtCsdze8u8oDPro_5alloc3vecINtB5_3VecTNtNtCsATtFUPiRFW_3syn2ty4TypeNtNtBK_5token5CommaEENtNtNtCs9f3LFPSIp77_4core3ops4drop4Drop4dropBK_, symObjAddr: 0xCB10, symBinAddr: 0x19B58, symSize: 0x50 }
  - { offset: 0x4A849, size: 0x8, addend: 0x0, symName: __RNvXsn_NtCsdze8u8oDPro_5alloc3vecINtB5_3VecTNtNtCsATtFUPiRFW_3syn2ty9BareFnArgNtNtBK_5token5CommaEENtNtNtCs9f3LFPSIp77_4core3ops4drop4Drop4dropBK_, symObjAddr: 0xCB60, symBinAddr: 0x19BA8, symSize: 0x50 }
  - { offset: 0x4A956, size: 0x8, addend: 0x0, symName: __RNvXsn_NtCsdze8u8oDPro_5alloc3vecINtB5_3VecTNtNtCsATtFUPiRFW_3syn3pat3PatNtNtBK_5token2OrEENtNtNtCs9f3LFPSIp77_4core3ops4drop4Drop4dropBK_, symObjAddr: 0xCBB0, symBinAddr: 0x19BF8, symSize: 0x50 }
  - { offset: 0x4AA63, size: 0x8, addend: 0x0, symName: __RNvXsn_NtCsdze8u8oDPro_5alloc3vecINtB5_3VecTNtNtCsATtFUPiRFW_3syn3pat3PatNtNtBK_5token5CommaEENtNtNtCs9f3LFPSIp77_4core3ops4drop4Drop4dropBK_, symObjAddr: 0xCC00, symBinAddr: 0x19C48, symSize: 0x50 }
  - { offset: 0x4AB70, size: 0x8, addend: 0x0, symName: __RNvXsn_NtCsdze8u8oDPro_5alloc3vecINtB5_3VecTNtNtCsATtFUPiRFW_3syn3pat8FieldPatNtNtBK_5token5CommaEENtNtNtCs9f3LFPSIp77_4core3ops4drop4Drop4dropBK_, symObjAddr: 0xCC50, symBinAddr: 0x19C98, symSize: 0x50 }
  - { offset: 0x4AC7D, size: 0x8, addend: 0x0, symName: __RNvXsn_NtCsdze8u8oDPro_5alloc3vecINtB5_3VecTNtNtCsATtFUPiRFW_3syn4data5FieldNtNtBK_5token5CommaEENtNtNtCs9f3LFPSIp77_4core3ops4drop4Drop4dropBK_, symObjAddr: 0xCCA0, symBinAddr: 0x19CE8, symSize: 0x50 }
  - { offset: 0x4AD8A, size: 0x8, addend: 0x0, symName: __RNvXsn_NtCsdze8u8oDPro_5alloc3vecINtB5_3VecTNtNtCsATtFUPiRFW_3syn4data5FielduEENtNtNtCs9f3LFPSIp77_4core3ops4drop4Drop4dropBK_, symObjAddr: 0xCCF0, symBinAddr: 0x19D38, symSize: 0x50 }
  - { offset: 0x4AE97, size: 0x8, addend: 0x0, symName: __RNvXsn_NtCsdze8u8oDPro_5alloc3vecINtB5_3VecTNtNtCsATtFUPiRFW_3syn4data7VariantNtNtBK_5token5CommaEENtNtNtCs9f3LFPSIp77_4core3ops4drop4Drop4dropBK_, symObjAddr: 0xCD40, symBinAddr: 0x19D88, symSize: 0x50 }
  - { offset: 0x4AFA4, size: 0x8, addend: 0x0, symName: __RNvXsn_NtCsdze8u8oDPro_5alloc3vecINtB5_3VecTNtNtCsATtFUPiRFW_3syn4expr10FieldValueNtNtBK_5token5CommaEENtNtNtCs9f3LFPSIp77_4core3ops4drop4Drop4dropBK_, symObjAddr: 0xCD90, symBinAddr: 0x19DD8, symSize: 0x50 }
  - { offset: 0x4B0B1, size: 0x8, addend: 0x0, symName: __RNvXsn_NtCsdze8u8oDPro_5alloc3vecINtB5_3VecTNtNtCsATtFUPiRFW_3syn4expr4ExprNtNtBK_5token5CommaEENtNtNtCs9f3LFPSIp77_4core3ops4drop4Drop4dropBK_, symObjAddr: 0xCDE0, symBinAddr: 0x19E28, symSize: 0x50 }
  - { offset: 0x4B1BE, size: 0x8, addend: 0x0, symName: __RNvXsn_NtCsdze8u8oDPro_5alloc3vecINtB5_3VecTNtNtCsATtFUPiRFW_3syn4item5FnArgNtNtBK_5token5CommaEENtNtNtCs9f3LFPSIp77_4core3ops4drop4Drop4dropBK_, symObjAddr: 0xCE30, symBinAddr: 0x19E78, symSize: 0x50 }
  - { offset: 0x4B2CB, size: 0x8, addend: 0x0, symName: __RNvXsn_NtCsdze8u8oDPro_5alloc3vecINtB5_3VecTNtNtCsATtFUPiRFW_3syn4item7UseTreeNtNtBK_5token5CommaEENtNtNtCs9f3LFPSIp77_4core3ops4drop4Drop4dropBK_, symObjAddr: 0xCE80, symBinAddr: 0x19EC8, symSize: 0x50 }
  - { offset: 0x4B3D8, size: 0x8, addend: 0x0, symName: __RNvXsn_NtCsdze8u8oDPro_5alloc3vecINtB5_3VecTNtNtCsATtFUPiRFW_3syn4path11PathSegmentNtNtBK_5token7PathSepEENtNtNtCs9f3LFPSIp77_4core3ops4drop4Drop4dropBK_, symObjAddr: 0xCED0, symBinAddr: 0x19F18, symSize: 0x50 }
  - { offset: 0x4B4E5, size: 0x8, addend: 0x0, symName: __RNvXsn_NtCsdze8u8oDPro_5alloc3vecINtB5_3VecTNtNtCsATtFUPiRFW_3syn4path15GenericArgumentNtNtBK_5token5CommaEENtNtNtCs9f3LFPSIp77_4core3ops4drop4Drop4dropBK_, symObjAddr: 0xCF20, symBinAddr: 0x19F68, symSize: 0x50 }
  - { offset: 0x4B5F2, size: 0x8, addend: 0x0, symName: __RNvXsn_NtCsdze8u8oDPro_5alloc3vecINtB5_3VecTNtNtCsATtFUPiRFW_3syn8generics12GenericParamNtNtBK_5token5CommaEENtNtNtCs9f3LFPSIp77_4core3ops4drop4Drop4dropBK_, symObjAddr: 0xCF70, symBinAddr: 0x19FB8, symSize: 0x50 }
  - { offset: 0x4B6FF, size: 0x8, addend: 0x0, symName: __RNvXsn_NtCsdze8u8oDPro_5alloc3vecINtB5_3VecTNtNtCsATtFUPiRFW_3syn8generics13CapturedParamNtNtBK_5token5CommaEENtNtNtCs9f3LFPSIp77_4core3ops4drop4Drop4dropBK_, symObjAddr: 0xCFC0, symBinAddr: 0x1A008, symSize: 0x50 }
  - { offset: 0x4B80C, size: 0x8, addend: 0x0, symName: __RNvXsn_NtCsdze8u8oDPro_5alloc3vecINtB5_3VecTNtNtCsATtFUPiRFW_3syn8generics14TypeParamBoundNtNtBK_5token4PlusEENtNtNtCs9f3LFPSIp77_4core3ops4drop4Drop4dropBK_, symObjAddr: 0xD010, symBinAddr: 0x1A058, symSize: 0x50 }
  - { offset: 0x4B919, size: 0x8, addend: 0x0, symName: __RNvXsn_NtCsdze8u8oDPro_5alloc3vecINtB5_3VecTNtNtCsATtFUPiRFW_3syn8generics14WherePredicateNtNtBK_5token5CommaEENtNtNtCs9f3LFPSIp77_4core3ops4drop4Drop4dropBK_, symObjAddr: 0xD060, symBinAddr: 0x1A0A8, symSize: 0x50 }
  - { offset: 0x4BA26, size: 0x8, addend: 0x0, symName: __RNvXsn_NtCsdze8u8oDPro_5alloc3vecINtB5_3VecTNtNtCsATtFUPiRFW_3syn8lifetime8LifetimeNtNtBK_5token4PlusEENtNtNtCs9f3LFPSIp77_4core3ops4drop4Drop4dropBK_, symObjAddr: 0xD0B0, symBinAddr: 0x1A0F8, symSize: 0x50 }
  - { offset: 0x4BB39, size: 0x8, addend: 0x0, symName: __RNvXsp_NtCsdze8u8oDPro_5alloc3vecINtB5_3VecNtNtCsATtFUPiRFW_3syn4attr9AttributeENtNtCs9f3LFPSIp77_4core3fmt5Debug3fmtBJ_, symObjAddr: 0xD100, symBinAddr: 0x1A148, symSize: 0x8C }
  - { offset: 0x4BC9D, size: 0x8, addend: 0x0, symName: __RNvXsp_NtCsdze8u8oDPro_5alloc3vecINtB5_3VecNtNtCsATtFUPiRFW_3syn4expr3ArmENtNtCs9f3LFPSIp77_4core3fmt5Debug3fmtBJ_, symObjAddr: 0xD18C, symBinAddr: 0x1A1D4, symSize: 0x8C }
  - { offset: 0x4BE01, size: 0x8, addend: 0x0, symName: __RNvXsp_NtCsdze8u8oDPro_5alloc3vecINtB5_3VecNtNtCsATtFUPiRFW_3syn4item11ForeignItemENtNtCs9f3LFPSIp77_4core3fmt5Debug3fmtBJ_, symObjAddr: 0xD218, symBinAddr: 0x1A260, symSize: 0x8C }
  - { offset: 0x4BF65, size: 0x8, addend: 0x0, symName: __RNvXsp_NtCsdze8u8oDPro_5alloc3vecINtB5_3VecNtNtCsATtFUPiRFW_3syn4item4ItemENtNtCs9f3LFPSIp77_4core3fmt5Debug3fmtBJ_, symObjAddr: 0xD2A4, symBinAddr: 0x1A2EC, symSize: 0x8C }
  - { offset: 0x4C0C9, size: 0x8, addend: 0x0, symName: __RNvXsp_NtCsdze8u8oDPro_5alloc3vecINtB5_3VecNtNtCsATtFUPiRFW_3syn4item8ImplItemENtNtCs9f3LFPSIp77_4core3fmt5Debug3fmtBJ_, symObjAddr: 0xD330, symBinAddr: 0x1A378, symSize: 0x8C }
  - { offset: 0x4C22D, size: 0x8, addend: 0x0, symName: __RNvXsp_NtCsdze8u8oDPro_5alloc3vecINtB5_3VecNtNtCsATtFUPiRFW_3syn4item9TraitItemENtNtCs9f3LFPSIp77_4core3fmt5Debug3fmtBJ_, symObjAddr: 0xD3BC, symBinAddr: 0x1A404, symSize: 0x8C }
  - { offset: 0x4C391, size: 0x8, addend: 0x0, symName: __RNvXsp_NtCsdze8u8oDPro_5alloc3vecINtB5_3VecNtNtCsATtFUPiRFW_3syn4stmt4StmtENtNtCs9f3LFPSIp77_4core3fmt5Debug3fmtBJ_, symObjAddr: 0xD448, symBinAddr: 0x1A490, symSize: 0x8C }
  - { offset: 0x4C4F5, size: 0x8, addend: 0x0, symName: __RNvXsp_NtCsdze8u8oDPro_5alloc3vecINtB5_3VecNtNtCsATtFUPiRFW_3syn5error12ErrorMessageENtNtCs9f3LFPSIp77_4core3fmt5Debug3fmtBJ_, symObjAddr: 0xD4D4, symBinAddr: 0x1A51C, symSize: 0x8C }
  - { offset: 0x4C659, size: 0x8, addend: 0x0, symName: __RNvXsp_NtCsdze8u8oDPro_5alloc3vecINtB5_3VechENtNtCs9f3LFPSIp77_4core3fmt5Debug3fmtCsATtFUPiRFW_3syn, symObjAddr: 0xD560, symBinAddr: 0x1A5A8, symSize: 0x88 }
  - { offset: 0x4F61A, size: 0x8, addend: 0x0, symName: __RNvXsS_NtCsdze8u8oDPro_5alloc6stringINtNtB7_3vec3VechEINtNtCs9f3LFPSIp77_4core7convert4FromNtB5_6StringE4fromCsATtFUPiRFW_3syn, symObjAddr: 0x9994, symBinAddr: 0x169DC, symSize: 0x18 }
  - { offset: 0x4F859, size: 0x8, addend: 0x0, symName: __RNvXNvMs_NtNtCsdze8u8oDPro_5alloc3ffi5c_strNtB7_7CString3newINtNtBb_3vec3VechENtB2_11SpecNewImpl13spec_new_implCsATtFUPiRFW_3syn, symObjAddr: 0x8034, symBinAddr: 0x1507C, symSize: 0x190 }
  - { offset: 0x554E8, size: 0x8, addend: 0x0, symName: __RNvXs0_NtCsATtFUPiRFW_3syn11parse_quoteINtNtCsdze8u8oDPro_5alloc3vec3VecNtNtB7_4attr9AttributeENtB5_10ParseQuote5parse, symObjAddr: 0xD5E8, symBinAddr: 0x1A630, symSize: 0x1C4 }
  - { offset: 0x5554D, size: 0x8, addend: 0x0, symName: __RNvXs5_NtCsATtFUPiRFW_3syn11parse_quoteINtNtCsdze8u8oDPro_5alloc3vec3VecNtNtB7_4stmt4StmtENtB5_10ParseQuote5parse, symObjAddr: 0xD7AC, symBinAddr: 0x1A7F4, symSize: 0x34 }
  - { offset: 0x5557F, size: 0x8, addend: 0x0, symName: __RNvXs6_NtCsATtFUPiRFW_3syn11parse_quoteINtNtCsdze8u8oDPro_5alloc3vec3VecNtNtB7_4expr3ArmENtB5_10ParseQuote5parse, symObjAddr: 0xD7E0, symBinAddr: 0x1A828, symSize: 0x34 }
  - { offset: 0x556FA, size: 0x8, addend: 0x0, symName: __RINvMs_NtCsdze8u8oDPro_5alloc3vecINtB5_3VecReE10retain_mutNCNvMNtCsATtFUPiRFW_3syn9lookaheadNtBZ_10Lookahead15error0EB11_, symObjAddr: 0x0, symBinAddr: 0xD048, symSize: 0xE4 }
  - { offset: 0x55A31, size: 0x8, addend: 0x0, symName: __RINvMsi_NtCsdze8u8oDPro_5alloc3vecINtB6_3VecNtCs475r2uZUTuc_11proc_macro29TokenTreeE16extend_desugaredINtNtNtNtCs9f3LFPSIp77_4core4iter8adapters7flatten7FlattenINtNtB1H_3map3MapIB2z_IB2z_INtNtNtB1L_5slice4iter4IterNtNtCsATtFUPiRFW_3syn5error12ErrorMessageENvMs_B3s_B3q_16to_compile_errorENCINvXs7_BI_NtBI_11TokenStreamINtNtNtB1J_6traits7collect12FromIteratorB4O_E9from_iterB2U_E0ENCINvXs6_NtBI_3impNtB6f_11TokenStreamIB57_B6o_E9from_iterB2P_Es_0EEEB3u_, symObjAddr: 0xE4, symBinAddr: 0xD12C, symSize: 0x1E0 }
  - { offset: 0x55E7E, size: 0x8, addend: 0x0, symName: __RINvMsi_NtCsdze8u8oDPro_5alloc3vecINtB6_3VecNtCs475r2uZUTuc_11proc_macro29TokenTreeE16extend_desugaredNtNtBI_12token_stream8IntoIterECsATtFUPiRFW_3syn, symObjAddr: 0x2C4, symBinAddr: 0xD30C, symSize: 0x1E0 }
  - { offset: 0x5687B, size: 0x8, addend: 0x0, symName: __RINvMsi_NtCsdze8u8oDPro_5alloc3vecINtB6_3VecNtNtCsATtFUPiRFW_3syn4data5FieldE14extend_trustedINtNtCs9f3LFPSIp77_4core6option8IntoIterBG_EEBK_, symObjAddr: 0x4A4, symBinAddr: 0xD4EC, symSize: 0x1B4 }
  - { offset: 0x56BFE, size: 0x8, addend: 0x0, symName: __RINvMsi_NtCsdze8u8oDPro_5alloc3vecINtB6_3VecNtNtCsATtFUPiRFW_3syn4data5FieldE14extend_trustedINtNtNtNtCs9f3LFPSIp77_4core4iter8adapters3map3MapINtNtB6_9into_iter8IntoIterTBG_NtNtBK_5token5CommaEENCNvXs8_NtBK_10punctuatedINtB3f_10PunctuatedBG_B2M_ENtNtNtB1A_6traits7collect12IntoIterator9into_iter0EEBK_, symObjAddr: 0x658, symBinAddr: 0xD6A0, symSize: 0x19C }
  - { offset: 0x56FA1, size: 0x8, addend: 0x0, symName: __RINvMsi_NtCsdze8u8oDPro_5alloc3vecINtB6_3VecNtNtCsATtFUPiRFW_3syn4data5FieldE14extend_trustedINtNtNtNtCs9f3LFPSIp77_4core4iter8adapters3map3MapINtNtB6_9into_iter8IntoIterTBG_uEENCNvXs8_NtBK_10punctuatedINtB2X_10PunctuatedBG_uENtNtNtB1A_6traits7collect12IntoIterator9into_iter0EEBK_, symObjAddr: 0x7F4, symBinAddr: 0xD83C, symSize: 0x19C }
  - { offset: 0x5734B, size: 0x8, addend: 0x0, symName: __RINvMsi_NtCsdze8u8oDPro_5alloc3vecINtB6_3VecNtNtCsATtFUPiRFW_3syn8generics14TypeParamBoundE14extend_trustedINtNtCs9f3LFPSIp77_4core6option8IntoIterBG_EEBK_, symObjAddr: 0x990, symBinAddr: 0xD9D8, symSize: 0x1B4 }
  - { offset: 0x576CE, size: 0x8, addend: 0x0, symName: __RINvMsi_NtCsdze8u8oDPro_5alloc3vecINtB6_3VecNtNtCsATtFUPiRFW_3syn8generics14TypeParamBoundE14extend_trustedINtNtNtNtCs9f3LFPSIp77_4core4iter8adapters3map3MapINtNtB6_9into_iter8IntoIterTBG_NtNtBK_5token4PlusEENCNvXs8_NtBK_10punctuatedINtB3s_10PunctuatedBG_B30_ENtNtNtB1O_6traits7collect12IntoIterator9into_iter0EEBK_, symObjAddr: 0xB44, symBinAddr: 0xDB8C, symSize: 0x19C }
  - { offset: 0x57CA1, size: 0x8, addend: 0x0, symName: __RNvMNtCsdze8u8oDPro_5alloc3vecINtB2_3VecNtNtCsATtFUPiRFW_3syn4attr9AttributeE3newBG_, symObjAddr: 0x1408, symBinAddr: 0xE450, symSize: 0x28 }
  - { offset: 0x57D8A, size: 0x8, addend: 0x0, symName: __RNvMNtCsdze8u8oDPro_5alloc3vecINtB2_3VecNtNtCsATtFUPiRFW_3syn4data5FieldE13with_capacityBG_, symObjAddr: 0x1430, symBinAddr: 0xE478, symSize: 0x44 }
  - { offset: 0x57E6D, size: 0x8, addend: 0x0, symName: __RNvMNtCsdze8u8oDPro_5alloc3vecINtB2_3VecNtNtCsATtFUPiRFW_3syn4expr3ArmE3newBG_, symObjAddr: 0x1474, symBinAddr: 0xE4BC, symSize: 0x28 }
  - { offset: 0x57F61, size: 0x8, addend: 0x0, symName: __RNvMNtCsdze8u8oDPro_5alloc3vecINtB2_3VecNtNtCsATtFUPiRFW_3syn4expr6ExprIfE3newBG_, symObjAddr: 0x149C, symBinAddr: 0xE4E4, symSize: 0x28 }
  - { offset: 0x58055, size: 0x8, addend: 0x0, symName: __RNvMNtCsdze8u8oDPro_5alloc3vecINtB2_3VecNtNtCsATtFUPiRFW_3syn4item11ForeignItemE3newBG_, symObjAddr: 0x14C4, symBinAddr: 0xE50C, symSize: 0x28 }
  - { offset: 0x58149, size: 0x8, addend: 0x0, symName: __RNvMNtCsdze8u8oDPro_5alloc3vecINtB2_3VecNtNtCsATtFUPiRFW_3syn4item4ItemE3newBG_, symObjAddr: 0x14EC, symBinAddr: 0xE534, symSize: 0x28 }
  - { offset: 0x5823D, size: 0x8, addend: 0x0, symName: __RNvMNtCsdze8u8oDPro_5alloc3vecINtB2_3VecNtNtCsATtFUPiRFW_3syn4item8ImplItemE3newBG_, symObjAddr: 0x1514, symBinAddr: 0xE55C, symSize: 0x28 }
  - { offset: 0x58331, size: 0x8, addend: 0x0, symName: __RNvMNtCsdze8u8oDPro_5alloc3vecINtB2_3VecNtNtCsATtFUPiRFW_3syn4item9TraitItemE3newBG_, symObjAddr: 0x153C, symBinAddr: 0xE584, symSize: 0x28 }
  - { offset: 0x58425, size: 0x8, addend: 0x0, symName: __RNvMNtCsdze8u8oDPro_5alloc3vecINtB2_3VecNtNtCsATtFUPiRFW_3syn4stmt4StmtE3newBG_, symObjAddr: 0x1564, symBinAddr: 0xE5AC, symSize: 0x28 }
  - { offset: 0x58519, size: 0x8, addend: 0x0, symName: __RNvMNtCsdze8u8oDPro_5alloc3vecINtB2_3VecNtNtCsATtFUPiRFW_3syn6buffer5EntryE3newBG_, symObjAddr: 0x158C, symBinAddr: 0xE5D4, symSize: 0x28 }
  - { offset: 0x58602, size: 0x8, addend: 0x0, symName: __RNvMNtCsdze8u8oDPro_5alloc3vecINtB2_3VecNtNtCsATtFUPiRFW_3syn8generics14TypeParamBoundE13with_capacityBG_, symObjAddr: 0x15B4, symBinAddr: 0xE5FC, symSize: 0x44 }
  - { offset: 0x586E5, size: 0x8, addend: 0x0, symName: __RNvMNtCsdze8u8oDPro_5alloc3vecINtB2_3VecReE3newCsATtFUPiRFW_3syn, symObjAddr: 0x15F8, symBinAddr: 0xE640, symSize: 0x28 }
  - { offset: 0x587D9, size: 0x8, addend: 0x0, symName: __RNvMNtCsdze8u8oDPro_5alloc3vecINtB2_3VecTNtNtCsATtFUPiRFW_3syn2ty4TypeNtNtBH_5token5CommaEE3newBH_, symObjAddr: 0x1620, symBinAddr: 0xE668, symSize: 0x28 }
  - { offset: 0x588CD, size: 0x8, addend: 0x0, symName: __RNvMNtCsdze8u8oDPro_5alloc3vecINtB2_3VecTNtNtCsATtFUPiRFW_3syn2ty9BareFnArgNtNtBH_5token5CommaEE3newBH_, symObjAddr: 0x1648, symBinAddr: 0xE690, symSize: 0x28 }
  - { offset: 0x589C1, size: 0x8, addend: 0x0, symName: __RNvMNtCsdze8u8oDPro_5alloc3vecINtB2_3VecTNtNtCsATtFUPiRFW_3syn3pat3PatNtNtBH_5token2OrEE3newBH_, symObjAddr: 0x1670, symBinAddr: 0xE6B8, symSize: 0x28 }
  - { offset: 0x58AB5, size: 0x8, addend: 0x0, symName: __RNvMNtCsdze8u8oDPro_5alloc3vecINtB2_3VecTNtNtCsATtFUPiRFW_3syn3pat3PatNtNtBH_5token5CommaEE3newBH_, symObjAddr: 0x1698, symBinAddr: 0xE6E0, symSize: 0x28 }
  - { offset: 0x58BA9, size: 0x8, addend: 0x0, symName: __RNvMNtCsdze8u8oDPro_5alloc3vecINtB2_3VecTNtNtCsATtFUPiRFW_3syn3pat8FieldPatNtNtBH_5token5CommaEE3newBH_, symObjAddr: 0x16C0, symBinAddr: 0xE708, symSize: 0x28 }
  - { offset: 0x58C9D, size: 0x8, addend: 0x0, symName: __RNvMNtCsdze8u8oDPro_5alloc3vecINtB2_3VecTNtNtCsATtFUPiRFW_3syn4data5FieldNtNtBH_5token5CommaEE3newBH_, symObjAddr: 0x16E8, symBinAddr: 0xE730, symSize: 0x28 }
  - { offset: 0x58D91, size: 0x8, addend: 0x0, symName: __RNvMNtCsdze8u8oDPro_5alloc3vecINtB2_3VecTNtNtCsATtFUPiRFW_3syn4data5FielduEE3newBH_, symObjAddr: 0x1710, symBinAddr: 0xE758, symSize: 0x28 }
  - { offset: 0x58E85, size: 0x8, addend: 0x0, symName: __RNvMNtCsdze8u8oDPro_5alloc3vecINtB2_3VecTNtNtCsATtFUPiRFW_3syn4data7VariantNtNtBH_5token5CommaEE3newBH_, symObjAddr: 0x1738, symBinAddr: 0xE780, symSize: 0x28 }
  - { offset: 0x58F79, size: 0x8, addend: 0x0, symName: __RNvMNtCsdze8u8oDPro_5alloc3vecINtB2_3VecTNtNtCsATtFUPiRFW_3syn4expr10FieldValueNtNtBH_5token5CommaEE3newBH_, symObjAddr: 0x1760, symBinAddr: 0xE7A8, symSize: 0x28 }
  - { offset: 0x5906D, size: 0x8, addend: 0x0, symName: __RNvMNtCsdze8u8oDPro_5alloc3vecINtB2_3VecTNtNtCsATtFUPiRFW_3syn4expr4ExprNtNtBH_5token5CommaEE3newBH_, symObjAddr: 0x1788, symBinAddr: 0xE7D0, symSize: 0x28 }
  - { offset: 0x59161, size: 0x8, addend: 0x0, symName: __RNvMNtCsdze8u8oDPro_5alloc3vecINtB2_3VecTNtNtCsATtFUPiRFW_3syn4item5FnArgNtNtBH_5token5CommaEE3newBH_, symObjAddr: 0x17B0, symBinAddr: 0xE7F8, symSize: 0x28 }
  - { offset: 0x59255, size: 0x8, addend: 0x0, symName: __RNvMNtCsdze8u8oDPro_5alloc3vecINtB2_3VecTNtNtCsATtFUPiRFW_3syn4item7UseTreeNtNtBH_5token5CommaEE3newBH_, symObjAddr: 0x17D8, symBinAddr: 0xE820, symSize: 0x28 }
  - { offset: 0x59349, size: 0x8, addend: 0x0, symName: __RNvMNtCsdze8u8oDPro_5alloc3vecINtB2_3VecTNtNtCsATtFUPiRFW_3syn4path11PathSegmentNtNtBH_5token7PathSepEE3newBH_, symObjAddr: 0x1800, symBinAddr: 0xE848, symSize: 0x28 }
  - { offset: 0x5943D, size: 0x8, addend: 0x0, symName: __RNvMNtCsdze8u8oDPro_5alloc3vecINtB2_3VecTNtNtCsATtFUPiRFW_3syn4path15GenericArgumentNtNtBH_5token5CommaEE3newBH_, symObjAddr: 0x1828, symBinAddr: 0xE870, symSize: 0x28 }
  - { offset: 0x59531, size: 0x8, addend: 0x0, symName: __RNvMNtCsdze8u8oDPro_5alloc3vecINtB2_3VecTNtNtCsATtFUPiRFW_3syn8generics12GenericParamNtNtBH_5token5CommaEE3newBH_, symObjAddr: 0x1850, symBinAddr: 0xE898, symSize: 0x28 }
  - { offset: 0x59625, size: 0x8, addend: 0x0, symName: __RNvMNtCsdze8u8oDPro_5alloc3vecINtB2_3VecTNtNtCsATtFUPiRFW_3syn8generics13CapturedParamNtNtBH_5token5CommaEE3newBH_, symObjAddr: 0x1878, symBinAddr: 0xE8C0, symSize: 0x28 }
  - { offset: 0x59719, size: 0x8, addend: 0x0, symName: __RNvMNtCsdze8u8oDPro_5alloc3vecINtB2_3VecTNtNtCsATtFUPiRFW_3syn8generics14TypeParamBoundNtNtBH_5token4PlusEE3newBH_, symObjAddr: 0x18A0, symBinAddr: 0xE8E8, symSize: 0x28 }
  - { offset: 0x5980D, size: 0x8, addend: 0x0, symName: __RNvMNtCsdze8u8oDPro_5alloc3vecINtB2_3VecTNtNtCsATtFUPiRFW_3syn8generics14WherePredicateNtNtBH_5token5CommaEE3newBH_, symObjAddr: 0x18C8, symBinAddr: 0xE910, symSize: 0x28 }
  - { offset: 0x59901, size: 0x8, addend: 0x0, symName: __RNvMNtCsdze8u8oDPro_5alloc3vecINtB2_3VecTNtNtCsATtFUPiRFW_3syn8lifetime8LifetimeNtNtBH_5token4PlusEE3newBH_, symObjAddr: 0x18F0, symBinAddr: 0xE938, symSize: 0x28 }
  - { offset: 0x599F5, size: 0x8, addend: 0x0, symName: __RNvMNtCsdze8u8oDPro_5alloc3vecINtB2_3VechE3newCsATtFUPiRFW_3syn, symObjAddr: 0x1918, symBinAddr: 0xE960, symSize: 0x28 }
  - { offset: 0x59B67, size: 0x8, addend: 0x0, symName: __RNvMs0_NtCsdze8u8oDPro_5alloc3vecINtB5_3VechE17extend_from_sliceCsATtFUPiRFW_3syn, symObjAddr: 0x1940, symBinAddr: 0xE988, symSize: 0x6C }
  - { offset: 0x59CD7, size: 0x8, addend: 0x0, symName: __RNvMs0_NtCsdze8u8oDPro_5alloc3vecINtB5_3VechE6resizeCsATtFUPiRFW_3syn, symObjAddr: 0x19AC, symBinAddr: 0xE9F4, symSize: 0xB4 }
  - { offset: 0x59EDC, size: 0x8, addend: 0x0, symName: __RNvMs2_NtCsdze8u8oDPro_5alloc3vecINtB5_3VechE11extend_withCsATtFUPiRFW_3syn, symObjAddr: 0x1A60, symBinAddr: 0xEAA8, symSize: 0x240 }
  - { offset: 0x5A369, size: 0x8, addend: 0x0, symName: __RNvMs_NtCsdze8u8oDPro_5alloc3vecINtB4_3VecNtNtCsATtFUPiRFW_3syn4attr9AttributeE15append_elementsBI_, symObjAddr: 0x1CA0, symBinAddr: 0xECE8, symSize: 0xEC }
  - { offset: 0x5A699, size: 0x8, addend: 0x0, symName: __RNvMs_NtCsdze8u8oDPro_5alloc3vecINtB4_3VecNtNtCsATtFUPiRFW_3syn4attr9AttributeE18spare_capacity_mutBI_, symObjAddr: 0x1D8C, symBinAddr: 0xEDD4, symSize: 0xDC }
  - { offset: 0x5A97F, size: 0x8, addend: 0x0, symName: __RNvMs_NtCsdze8u8oDPro_5alloc3vecINtB4_3VecNtNtCsATtFUPiRFW_3syn4attr9AttributeE4pushBI_, symObjAddr: 0x1E68, symBinAddr: 0xEEB0, symSize: 0x124 }
  - { offset: 0x5ACC8, size: 0x8, addend: 0x0, symName: __RNvMs_NtCsdze8u8oDPro_5alloc3vecINtB4_3VecNtNtCsATtFUPiRFW_3syn4attr9AttributeE6appendBI_, symObjAddr: 0x1F8C, symBinAddr: 0xEFD4, symSize: 0x9C }
  - { offset: 0x5AF3F, size: 0x8, addend: 0x0, symName: __RNvMs_NtCsdze8u8oDPro_5alloc3vecINtB4_3VecNtNtCsATtFUPiRFW_3syn4attr9AttributeE7reserveBI_, symObjAddr: 0x2028, symBinAddr: 0xF070, symSize: 0xC4 }
  - { offset: 0x5B169, size: 0x8, addend: 0x0, symName: __RNvMs_NtCsdze8u8oDPro_5alloc3vecINtB4_3VecNtNtCsATtFUPiRFW_3syn4attr9AttributeE8as_sliceBI_, symObjAddr: 0x20EC, symBinAddr: 0xF134, symSize: 0x7C }
  - { offset: 0x5B29C, size: 0x8, addend: 0x0, symName: __RNvMs_NtCsdze8u8oDPro_5alloc3vecINtB4_3VecNtNtCsATtFUPiRFW_3syn4attr9AttributeE8is_emptyBI_, symObjAddr: 0x2168, symBinAddr: 0xF1B0, symSize: 0x20 }
  - { offset: 0x5B3F3, size: 0x8, addend: 0x0, symName: __RNvMs_NtCsdze8u8oDPro_5alloc3vecINtB4_3VecNtNtCsATtFUPiRFW_3syn4data5FieldE7reserveBI_, symObjAddr: 0x2188, symBinAddr: 0xF1D0, symSize: 0xC4 }
  - { offset: 0x5B6EE, size: 0x8, addend: 0x0, symName: __RNvMs_NtCsdze8u8oDPro_5alloc3vecINtB4_3VecNtNtCsATtFUPiRFW_3syn4expr3ArmE18spare_capacity_mutBI_, symObjAddr: 0x224C, symBinAddr: 0xF294, symSize: 0xE0 }
  - { offset: 0x5B89A, size: 0x8, addend: 0x0, symName: __RNvMs_NtCsdze8u8oDPro_5alloc3vecINtB4_3VecNtNtCsATtFUPiRFW_3syn4expr3ArmE3lenBI_, symObjAddr: 0x232C, symBinAddr: 0xF374, symSize: 0x18 }
  - { offset: 0x5BA16, size: 0x8, addend: 0x0, symName: __RNvMs_NtCsdze8u8oDPro_5alloc3vecINtB4_3VecNtNtCsATtFUPiRFW_3syn4expr3ArmE4pushBI_, symObjAddr: 0x2344, symBinAddr: 0xF38C, symSize: 0x12C }
  - { offset: 0x5BD12, size: 0x8, addend: 0x0, symName: __RNvMs_NtCsdze8u8oDPro_5alloc3vecINtB4_3VecNtNtCsATtFUPiRFW_3syn4expr3ArmE8as_sliceBI_, symObjAddr: 0x2470, symBinAddr: 0xF4B8, symSize: 0x7C }
  - { offset: 0x5BFD6, size: 0x8, addend: 0x0, symName: __RNvMs_NtCsdze8u8oDPro_5alloc3vecINtB4_3VecNtNtCsATtFUPiRFW_3syn4expr6ExprIfE3popBI_, symObjAddr: 0x24EC, symBinAddr: 0xF534, symSize: 0x11C }
  - { offset: 0x5C2ED, size: 0x8, addend: 0x0, symName: __RNvMs_NtCsdze8u8oDPro_5alloc3vecINtB4_3VecNtNtCsATtFUPiRFW_3syn4expr6ExprIfE4pushBI_, symObjAddr: 0x2608, symBinAddr: 0xF650, symSize: 0x12C }
  - { offset: 0x5C692, size: 0x8, addend: 0x0, symName: __RNvMs_NtCsdze8u8oDPro_5alloc3vecINtB4_3VecNtNtCsATtFUPiRFW_3syn4item11ForeignItemE18spare_capacity_mutBI_, symObjAddr: 0x2734, symBinAddr: 0xF77C, symSize: 0xE0 }
  - { offset: 0x5C978, size: 0x8, addend: 0x0, symName: __RNvMs_NtCsdze8u8oDPro_5alloc3vecINtB4_3VecNtNtCsATtFUPiRFW_3syn4item11ForeignItemE4pushBI_, symObjAddr: 0x2814, symBinAddr: 0xF85C, symSize: 0x12C }
  - { offset: 0x5CD1D, size: 0x8, addend: 0x0, symName: __RNvMs_NtCsdze8u8oDPro_5alloc3vecINtB4_3VecNtNtCsATtFUPiRFW_3syn4item4ItemE18spare_capacity_mutBI_, symObjAddr: 0x2940, symBinAddr: 0xF988, symSize: 0xE0 }
  - { offset: 0x5D003, size: 0x8, addend: 0x0, symName: __RNvMs_NtCsdze8u8oDPro_5alloc3vecINtB4_3VecNtNtCsATtFUPiRFW_3syn4item4ItemE4pushBI_, symObjAddr: 0x2A20, symBinAddr: 0xFA68, symSize: 0x12C }
  - { offset: 0x5D3A8, size: 0x8, addend: 0x0, symName: __RNvMs_NtCsdze8u8oDPro_5alloc3vecINtB4_3VecNtNtCsATtFUPiRFW_3syn4item8ImplItemE18spare_capacity_mutBI_, symObjAddr: 0x2B4C, symBinAddr: 0xFB94, symSize: 0xE0 }
  - { offset: 0x5D68E, size: 0x8, addend: 0x0, symName: __RNvMs_NtCsdze8u8oDPro_5alloc3vecINtB4_3VecNtNtCsATtFUPiRFW_3syn4item8ImplItemE4pushBI_, symObjAddr: 0x2C2C, symBinAddr: 0xFC74, symSize: 0x12C }
  - { offset: 0x5DA33, size: 0x8, addend: 0x0, symName: __RNvMs_NtCsdze8u8oDPro_5alloc3vecINtB4_3VecNtNtCsATtFUPiRFW_3syn4item9TraitItemE18spare_capacity_mutBI_, symObjAddr: 0x2D58, symBinAddr: 0xFDA0, symSize: 0xE0 }
  - { offset: 0x5DD19, size: 0x8, addend: 0x0, symName: __RNvMs_NtCsdze8u8oDPro_5alloc3vecINtB4_3VecNtNtCsATtFUPiRFW_3syn4item9TraitItemE4pushBI_, symObjAddr: 0x2E38, symBinAddr: 0xFE80, symSize: 0x12C }
  - { offset: 0x5E0BE, size: 0x8, addend: 0x0, symName: __RNvMs_NtCsdze8u8oDPro_5alloc3vecINtB4_3VecNtNtCsATtFUPiRFW_3syn4stmt4StmtE18spare_capacity_mutBI_, symObjAddr: 0x2F64, symBinAddr: 0xFFAC, symSize: 0xE0 }
  - { offset: 0x5E3A4, size: 0x8, addend: 0x0, symName: __RNvMs_NtCsdze8u8oDPro_5alloc3vecINtB4_3VecNtNtCsATtFUPiRFW_3syn4stmt4StmtE4pushBI_, symObjAddr: 0x3044, symBinAddr: 0x1008C, symSize: 0x12C }
  - { offset: 0x5E714, size: 0x8, addend: 0x0, symName: __RNvMs_NtCsdze8u8oDPro_5alloc3vecINtB4_3VecNtNtCsATtFUPiRFW_3syn5error12ErrorMessageE15append_elementsBI_, symObjAddr: 0x3170, symBinAddr: 0x101B8, symSize: 0xF4 }
  - { offset: 0x5EA44, size: 0x8, addend: 0x0, symName: __RNvMs_NtCsdze8u8oDPro_5alloc3vecINtB4_3VecNtNtCsATtFUPiRFW_3syn5error12ErrorMessageE18spare_capacity_mutBI_, symObjAddr: 0x3264, symBinAddr: 0x102AC, symSize: 0xE0 }
  - { offset: 0x5EBE3, size: 0x8, addend: 0x0, symName: __RNvMs_NtCsdze8u8oDPro_5alloc3vecINtB4_3VecNtNtCsATtFUPiRFW_3syn5error12ErrorMessageE3lenBI_, symObjAddr: 0x3344, symBinAddr: 0x1038C, symSize: 0x18 }
  - { offset: 0x5ED1C, size: 0x8, addend: 0x0, symName: __RNvMs_NtCsdze8u8oDPro_5alloc3vecINtB4_3VecNtNtCsATtFUPiRFW_3syn5error12ErrorMessageE7reserveBI_, symObjAddr: 0x335C, symBinAddr: 0x103A4, symSize: 0xC4 }
  - { offset: 0x5EF64, size: 0x8, addend: 0x0, symName: __RNvMs_NtCsdze8u8oDPro_5alloc3vecINtB4_3VecNtNtCsATtFUPiRFW_3syn5error12ErrorMessageE8as_sliceBI_, symObjAddr: 0x3420, symBinAddr: 0x10468, symSize: 0x7C }
  - { offset: 0x5F2DF, size: 0x8, addend: 0x0, symName: __RNvMs_NtCsdze8u8oDPro_5alloc3vecINtB4_3VecNtNtCsATtFUPiRFW_3syn6buffer5EntryE16into_boxed_sliceBI_, symObjAddr: 0x349C, symBinAddr: 0x104E4, symSize: 0x1BC }
  - { offset: 0x5F59A, size: 0x8, addend: 0x0, symName: __RNvMs_NtCsdze8u8oDPro_5alloc3vecINtB4_3VecNtNtCsATtFUPiRFW_3syn6buffer5EntryE3lenBI_, symObjAddr: 0x3658, symBinAddr: 0x106A0, symSize: 0x18 }
  - { offset: 0x5F723, size: 0x8, addend: 0x0, symName: __RNvMs_NtCsdze8u8oDPro_5alloc3vecINtB4_3VecNtNtCsATtFUPiRFW_3syn6buffer5EntryE4pushBI_, symObjAddr: 0x3670, symBinAddr: 0x106B8, symSize: 0x10C }
  - { offset: 0x5FA1D, size: 0x8, addend: 0x0, symName: __RNvMs_NtCsdze8u8oDPro_5alloc3vecINtB4_3VecNtNtCsATtFUPiRFW_3syn8generics14TypeParamBoundE7reserveBI_, symObjAddr: 0x377C, symBinAddr: 0x107C4, symSize: 0xC4 }
  - { offset: 0x5FB69, size: 0x8, addend: 0x0, symName: __RNvMs_NtCsdze8u8oDPro_5alloc3vecINtB4_3VecReE3lenCsATtFUPiRFW_3syn, symObjAddr: 0x3840, symBinAddr: 0x10888, symSize: 0x18 }
  - { offset: 0x5FCE5, size: 0x8, addend: 0x0, symName: __RNvMs_NtCsdze8u8oDPro_5alloc3vecINtB4_3VecReE4pushCsATtFUPiRFW_3syn, symObjAddr: 0x3858, symBinAddr: 0x108A0, symSize: 0x100 }
  - { offset: 0x5FFB6, size: 0x8, addend: 0x0, symName: __RNvMs_NtCsdze8u8oDPro_5alloc3vecINtB4_3VecReE8as_sliceCsATtFUPiRFW_3syn, symObjAddr: 0x3958, symBinAddr: 0x109A0, symSize: 0x7C }
  - { offset: 0x60273, size: 0x8, addend: 0x0, symName: __RNvMs_NtCsdze8u8oDPro_5alloc3vecINtB4_3VecTNtNtCsATtFUPiRFW_3syn2ty4TypeNtNtBJ_5token5CommaEE18spare_capacity_mutBJ_, symObjAddr: 0x39D4, symBinAddr: 0x10A1C, symSize: 0xE0 }
  - { offset: 0x6041F, size: 0x8, addend: 0x0, symName: __RNvMs_NtCsdze8u8oDPro_5alloc3vecINtB4_3VecTNtNtCsATtFUPiRFW_3syn2ty4TypeNtNtBJ_5token5CommaEE3lenBJ_, symObjAddr: 0x3AB4, symBinAddr: 0x10AFC, symSize: 0x18 }
  - { offset: 0x6059B, size: 0x8, addend: 0x0, symName: __RNvMs_NtCsdze8u8oDPro_5alloc3vecINtB4_3VecTNtNtCsATtFUPiRFW_3syn2ty4TypeNtNtBJ_5token5CommaEE4pushBJ_, symObjAddr: 0x3ACC, symBinAddr: 0x10B14, symSize: 0x12C }
  - { offset: 0x60897, size: 0x8, addend: 0x0, symName: __RNvMs_NtCsdze8u8oDPro_5alloc3vecINtB4_3VecTNtNtCsATtFUPiRFW_3syn2ty4TypeNtNtBJ_5token5CommaEE8as_sliceBJ_, symObjAddr: 0x3BF8, symBinAddr: 0x10C40, symSize: 0x7C }
  - { offset: 0x60B54, size: 0x8, addend: 0x0, symName: __RNvMs_NtCsdze8u8oDPro_5alloc3vecINtB4_3VecTNtNtCsATtFUPiRFW_3syn2ty9BareFnArgNtNtBJ_5token5CommaEE18spare_capacity_mutBJ_, symObjAddr: 0x3C74, symBinAddr: 0x10CBC, symSize: 0xE0 }
  - { offset: 0x60D00, size: 0x8, addend: 0x0, symName: __RNvMs_NtCsdze8u8oDPro_5alloc3vecINtB4_3VecTNtNtCsATtFUPiRFW_3syn2ty9BareFnArgNtNtBJ_5token5CommaEE3lenBJ_, symObjAddr: 0x3D54, symBinAddr: 0x10D9C, symSize: 0x18 }
  - { offset: 0x60E7C, size: 0x8, addend: 0x0, symName: __RNvMs_NtCsdze8u8oDPro_5alloc3vecINtB4_3VecTNtNtCsATtFUPiRFW_3syn2ty9BareFnArgNtNtBJ_5token5CommaEE4pushBJ_, symObjAddr: 0x3D6C, symBinAddr: 0x10DB4, symSize: 0x12C }
  - { offset: 0x61177, size: 0x8, addend: 0x0, symName: __RNvMs_NtCsdze8u8oDPro_5alloc3vecINtB4_3VecTNtNtCsATtFUPiRFW_3syn2ty9BareFnArgNtNtBJ_5token5CommaEE8as_sliceBJ_, symObjAddr: 0x3E98, symBinAddr: 0x10EE0, symSize: 0x7C }
  - { offset: 0x61434, size: 0x8, addend: 0x0, symName: __RNvMs_NtCsdze8u8oDPro_5alloc3vecINtB4_3VecTNtNtCsATtFUPiRFW_3syn3pat3PatNtNtBJ_5token2OrEE18spare_capacity_mutBJ_, symObjAddr: 0x3F14, symBinAddr: 0x10F5C, symSize: 0xE0 }
  - { offset: 0x6171A, size: 0x8, addend: 0x0, symName: __RNvMs_NtCsdze8u8oDPro_5alloc3vecINtB4_3VecTNtNtCsATtFUPiRFW_3syn3pat3PatNtNtBJ_5token2OrEE4pushBJ_, symObjAddr: 0x3FF4, symBinAddr: 0x1103C, symSize: 0x12C }
  - { offset: 0x61A22, size: 0x8, addend: 0x0, symName: __RNvMs_NtCsdze8u8oDPro_5alloc3vecINtB4_3VecTNtNtCsATtFUPiRFW_3syn3pat3PatNtNtBJ_5token2OrEE8as_sliceBJ_, symObjAddr: 0x4120, symBinAddr: 0x11168, symSize: 0x7C }
  - { offset: 0x61CDF, size: 0x8, addend: 0x0, symName: __RNvMs_NtCsdze8u8oDPro_5alloc3vecINtB4_3VecTNtNtCsATtFUPiRFW_3syn3pat3PatNtNtBJ_5token5CommaEE18spare_capacity_mutBJ_, symObjAddr: 0x419C, symBinAddr: 0x111E4, symSize: 0xE0 }
  - { offset: 0x61E8B, size: 0x8, addend: 0x0, symName: __RNvMs_NtCsdze8u8oDPro_5alloc3vecINtB4_3VecTNtNtCsATtFUPiRFW_3syn3pat3PatNtNtBJ_5token5CommaEE3lenBJ_, symObjAddr: 0x427C, symBinAddr: 0x112C4, symSize: 0x18 }
  - { offset: 0x62007, size: 0x8, addend: 0x0, symName: __RNvMs_NtCsdze8u8oDPro_5alloc3vecINtB4_3VecTNtNtCsATtFUPiRFW_3syn3pat3PatNtNtBJ_5token5CommaEE4pushBJ_, symObjAddr: 0x4294, symBinAddr: 0x112DC, symSize: 0x12C }
  - { offset: 0x62302, size: 0x8, addend: 0x0, symName: __RNvMs_NtCsdze8u8oDPro_5alloc3vecINtB4_3VecTNtNtCsATtFUPiRFW_3syn3pat3PatNtNtBJ_5token5CommaEE8as_sliceBJ_, symObjAddr: 0x43C0, symBinAddr: 0x11408, symSize: 0x7C }
  - { offset: 0x625BF, size: 0x8, addend: 0x0, symName: __RNvMs_NtCsdze8u8oDPro_5alloc3vecINtB4_3VecTNtNtCsATtFUPiRFW_3syn3pat8FieldPatNtNtBJ_5token5CommaEE18spare_capacity_mutBJ_, symObjAddr: 0x443C, symBinAddr: 0x11484, symSize: 0xE0 }
  - { offset: 0x628A5, size: 0x8, addend: 0x0, symName: __RNvMs_NtCsdze8u8oDPro_5alloc3vecINtB4_3VecTNtNtCsATtFUPiRFW_3syn3pat8FieldPatNtNtBJ_5token5CommaEE4pushBJ_, symObjAddr: 0x451C, symBinAddr: 0x11564, symSize: 0x12C }
  - { offset: 0x62BAE, size: 0x8, addend: 0x0, symName: __RNvMs_NtCsdze8u8oDPro_5alloc3vecINtB4_3VecTNtNtCsATtFUPiRFW_3syn3pat8FieldPatNtNtBJ_5token5CommaEE8as_sliceBJ_, symObjAddr: 0x4648, symBinAddr: 0x11690, symSize: 0x7C }
  - { offset: 0x62E04, size: 0x8, addend: 0x0, symName: __RNvMs_NtCsdze8u8oDPro_5alloc3vecINtB4_3VecTNtNtCsATtFUPiRFW_3syn4data5FieldNtNtBJ_5token5CommaEE12as_mut_sliceBJ_, symObjAddr: 0x46C4, symBinAddr: 0x1170C, symSize: 0x7C }
  - { offset: 0x630AB, size: 0x8, addend: 0x0, symName: __RNvMs_NtCsdze8u8oDPro_5alloc3vecINtB4_3VecTNtNtCsATtFUPiRFW_3syn4data5FieldNtNtBJ_5token5CommaEE18spare_capacity_mutBJ_, symObjAddr: 0x4740, symBinAddr: 0x11788, symSize: 0xE0 }
  - { offset: 0x63257, size: 0x8, addend: 0x0, symName: __RNvMs_NtCsdze8u8oDPro_5alloc3vecINtB4_3VecTNtNtCsATtFUPiRFW_3syn4data5FieldNtNtBJ_5token5CommaEE3lenBJ_, symObjAddr: 0x4820, symBinAddr: 0x11868, symSize: 0x18 }
  - { offset: 0x633D3, size: 0x8, addend: 0x0, symName: __RNvMs_NtCsdze8u8oDPro_5alloc3vecINtB4_3VecTNtNtCsATtFUPiRFW_3syn4data5FieldNtNtBJ_5token5CommaEE4pushBJ_, symObjAddr: 0x4838, symBinAddr: 0x11880, symSize: 0x12C }
  - { offset: 0x636C5, size: 0x8, addend: 0x0, symName: __RNvMs_NtCsdze8u8oDPro_5alloc3vecINtB4_3VecTNtNtCsATtFUPiRFW_3syn4data5FieldNtNtBJ_5token5CommaEE8as_sliceBJ_, symObjAddr: 0x4964, symBinAddr: 0x119AC, symSize: 0x7C }
  - { offset: 0x637E0, size: 0x8, addend: 0x0, symName: __RNvMs_NtCsdze8u8oDPro_5alloc3vecINtB4_3VecTNtNtCsATtFUPiRFW_3syn4data5FielduEE3lenBJ_, symObjAddr: 0x49E0, symBinAddr: 0x11A28, symSize: 0x18 }
  - { offset: 0x639C4, size: 0x8, addend: 0x0, symName: __RNvMs_NtCsdze8u8oDPro_5alloc3vecINtB4_3VecTNtNtCsATtFUPiRFW_3syn4data7VariantNtNtBJ_5token5CommaEE18spare_capacity_mutBJ_, symObjAddr: 0x49F8, symBinAddr: 0x11A40, symSize: 0xE0 }
  - { offset: 0x63CAA, size: 0x8, addend: 0x0, symName: __RNvMs_NtCsdze8u8oDPro_5alloc3vecINtB4_3VecTNtNtCsATtFUPiRFW_3syn4data7VariantNtNtBJ_5token5CommaEE4pushBJ_, symObjAddr: 0x4AD8, symBinAddr: 0x11B20, symSize: 0x12C }
  - { offset: 0x63FB3, size: 0x8, addend: 0x0, symName: __RNvMs_NtCsdze8u8oDPro_5alloc3vecINtB4_3VecTNtNtCsATtFUPiRFW_3syn4data7VariantNtNtBJ_5token5CommaEE8as_sliceBJ_, symObjAddr: 0x4C04, symBinAddr: 0x11C4C, symSize: 0x7C }
  - { offset: 0x64270, size: 0x8, addend: 0x0, symName: __RNvMs_NtCsdze8u8oDPro_5alloc3vecINtB4_3VecTNtNtCsATtFUPiRFW_3syn4expr10FieldValueNtNtBJ_5token5CommaEE18spare_capacity_mutBJ_, symObjAddr: 0x4C80, symBinAddr: 0x11CC8, symSize: 0xE0 }
  - { offset: 0x64556, size: 0x8, addend: 0x0, symName: __RNvMs_NtCsdze8u8oDPro_5alloc3vecINtB4_3VecTNtNtCsATtFUPiRFW_3syn4expr10FieldValueNtNtBJ_5token5CommaEE4pushBJ_, symObjAddr: 0x4D60, symBinAddr: 0x11DA8, symSize: 0x12C }
  - { offset: 0x6485E, size: 0x8, addend: 0x0, symName: __RNvMs_NtCsdze8u8oDPro_5alloc3vecINtB4_3VecTNtNtCsATtFUPiRFW_3syn4expr10FieldValueNtNtBJ_5token5CommaEE8as_sliceBJ_, symObjAddr: 0x4E8C, symBinAddr: 0x11ED4, symSize: 0x7C }
  - { offset: 0x64B1B, size: 0x8, addend: 0x0, symName: __RNvMs_NtCsdze8u8oDPro_5alloc3vecINtB4_3VecTNtNtCsATtFUPiRFW_3syn4expr4ExprNtNtBJ_5token5CommaEE18spare_capacity_mutBJ_, symObjAddr: 0x4F08, symBinAddr: 0x11F50, symSize: 0xE0 }
  - { offset: 0x64CC7, size: 0x8, addend: 0x0, symName: __RNvMs_NtCsdze8u8oDPro_5alloc3vecINtB4_3VecTNtNtCsATtFUPiRFW_3syn4expr4ExprNtNtBJ_5token5CommaEE3lenBJ_, symObjAddr: 0x4FE8, symBinAddr: 0x12030, symSize: 0x18 }
  - { offset: 0x64E43, size: 0x8, addend: 0x0, symName: __RNvMs_NtCsdze8u8oDPro_5alloc3vecINtB4_3VecTNtNtCsATtFUPiRFW_3syn4expr4ExprNtNtBJ_5token5CommaEE4pushBJ_, symObjAddr: 0x5000, symBinAddr: 0x12048, symSize: 0x12C }
  - { offset: 0x6513F, size: 0x8, addend: 0x0, symName: __RNvMs_NtCsdze8u8oDPro_5alloc3vecINtB4_3VecTNtNtCsATtFUPiRFW_3syn4expr4ExprNtNtBJ_5token5CommaEE8as_sliceBJ_, symObjAddr: 0x512C, symBinAddr: 0x12174, symSize: 0x7C }
  - { offset: 0x653FC, size: 0x8, addend: 0x0, symName: __RNvMs_NtCsdze8u8oDPro_5alloc3vecINtB4_3VecTNtNtCsATtFUPiRFW_3syn4item5FnArgNtNtBJ_5token5CommaEE18spare_capacity_mutBJ_, symObjAddr: 0x51A8, symBinAddr: 0x121F0, symSize: 0xE0 }
  - { offset: 0x655A8, size: 0x8, addend: 0x0, symName: __RNvMs_NtCsdze8u8oDPro_5alloc3vecINtB4_3VecTNtNtCsATtFUPiRFW_3syn4item5FnArgNtNtBJ_5token5CommaEE3lenBJ_, symObjAddr: 0x5288, symBinAddr: 0x122D0, symSize: 0x18 }
  - { offset: 0x65724, size: 0x8, addend: 0x0, symName: __RNvMs_NtCsdze8u8oDPro_5alloc3vecINtB4_3VecTNtNtCsATtFUPiRFW_3syn4item5FnArgNtNtBJ_5token5CommaEE4pushBJ_, symObjAddr: 0x52A0, symBinAddr: 0x122E8, symSize: 0x12C }
  - { offset: 0x65A20, size: 0x8, addend: 0x0, symName: __RNvMs_NtCsdze8u8oDPro_5alloc3vecINtB4_3VecTNtNtCsATtFUPiRFW_3syn4item5FnArgNtNtBJ_5token5CommaEE8as_sliceBJ_, symObjAddr: 0x53CC, symBinAddr: 0x12414, symSize: 0x7C }
  - { offset: 0x65CDD, size: 0x8, addend: 0x0, symName: __RNvMs_NtCsdze8u8oDPro_5alloc3vecINtB4_3VecTNtNtCsATtFUPiRFW_3syn4item7UseTreeNtNtBJ_5token5CommaEE18spare_capacity_mutBJ_, symObjAddr: 0x5448, symBinAddr: 0x12490, symSize: 0xE0 }
  - { offset: 0x65FC3, size: 0x8, addend: 0x0, symName: __RNvMs_NtCsdze8u8oDPro_5alloc3vecINtB4_3VecTNtNtCsATtFUPiRFW_3syn4item7UseTreeNtNtBJ_5token5CommaEE4pushBJ_, symObjAddr: 0x5528, symBinAddr: 0x12570, symSize: 0x12C }
  - { offset: 0x662CC, size: 0x8, addend: 0x0, symName: __RNvMs_NtCsdze8u8oDPro_5alloc3vecINtB4_3VecTNtNtCsATtFUPiRFW_3syn4item7UseTreeNtNtBJ_5token5CommaEE8as_sliceBJ_, symObjAddr: 0x5654, symBinAddr: 0x1269C, symSize: 0x7C }
  - { offset: 0x6652F, size: 0x8, addend: 0x0, symName: __RNvMs_NtCsdze8u8oDPro_5alloc3vecINtB4_3VecTNtNtCsATtFUPiRFW_3syn4path11PathSegmentNtNtBJ_5token7PathSepEE12as_mut_sliceBJ_, symObjAddr: 0x56D0, symBinAddr: 0x12718, symSize: 0x7C }
  - { offset: 0x667D6, size: 0x8, addend: 0x0, symName: __RNvMs_NtCsdze8u8oDPro_5alloc3vecINtB4_3VecTNtNtCsATtFUPiRFW_3syn4path11PathSegmentNtNtBJ_5token7PathSepEE18spare_capacity_mutBJ_, symObjAddr: 0x574C, symBinAddr: 0x12794, symSize: 0xE0 }
  - { offset: 0x66982, size: 0x8, addend: 0x0, symName: __RNvMs_NtCsdze8u8oDPro_5alloc3vecINtB4_3VecTNtNtCsATtFUPiRFW_3syn4path11PathSegmentNtNtBJ_5token7PathSepEE3lenBJ_, symObjAddr: 0x582C, symBinAddr: 0x12874, symSize: 0x18 }
  - { offset: 0x66B2C, size: 0x8, addend: 0x0, symName: __RNvMs_NtCsdze8u8oDPro_5alloc3vecINtB4_3VecTNtNtCsATtFUPiRFW_3syn4path11PathSegmentNtNtBJ_5token7PathSepEE3popBJ_, symObjAddr: 0x5844, symBinAddr: 0x1288C, symSize: 0x120 }
  - { offset: 0x66E43, size: 0x8, addend: 0x0, symName: __RNvMs_NtCsdze8u8oDPro_5alloc3vecINtB4_3VecTNtNtCsATtFUPiRFW_3syn4path11PathSegmentNtNtBJ_5token7PathSepEE4pushBJ_, symObjAddr: 0x5964, symBinAddr: 0x129AC, symSize: 0x12C }
  - { offset: 0x67135, size: 0x8, addend: 0x0, symName: __RNvMs_NtCsdze8u8oDPro_5alloc3vecINtB4_3VecTNtNtCsATtFUPiRFW_3syn4path11PathSegmentNtNtBJ_5token7PathSepEE8as_sliceBJ_, symObjAddr: 0x5A90, symBinAddr: 0x12AD8, symSize: 0x7C }
  - { offset: 0x673F2, size: 0x8, addend: 0x0, symName: __RNvMs_NtCsdze8u8oDPro_5alloc3vecINtB4_3VecTNtNtCsATtFUPiRFW_3syn4path15GenericArgumentNtNtBJ_5token5CommaEE18spare_capacity_mutBJ_, symObjAddr: 0x5B0C, symBinAddr: 0x12B54, symSize: 0xE0 }
  - { offset: 0x6759E, size: 0x8, addend: 0x0, symName: __RNvMs_NtCsdze8u8oDPro_5alloc3vecINtB4_3VecTNtNtCsATtFUPiRFW_3syn4path15GenericArgumentNtNtBJ_5token5CommaEE3lenBJ_, symObjAddr: 0x5BEC, symBinAddr: 0x12C34, symSize: 0x18 }
  - { offset: 0x6771A, size: 0x8, addend: 0x0, symName: __RNvMs_NtCsdze8u8oDPro_5alloc3vecINtB4_3VecTNtNtCsATtFUPiRFW_3syn4path15GenericArgumentNtNtBJ_5token5CommaEE4pushBJ_, symObjAddr: 0x5C04, symBinAddr: 0x12C4C, symSize: 0x12C }
  - { offset: 0x67A15, size: 0x8, addend: 0x0, symName: __RNvMs_NtCsdze8u8oDPro_5alloc3vecINtB4_3VecTNtNtCsATtFUPiRFW_3syn4path15GenericArgumentNtNtBJ_5token5CommaEE8as_sliceBJ_, symObjAddr: 0x5D30, symBinAddr: 0x12D78, symSize: 0x7C }
  - { offset: 0x67C78, size: 0x8, addend: 0x0, symName: __RNvMs_NtCsdze8u8oDPro_5alloc3vecINtB4_3VecTNtNtCsATtFUPiRFW_3syn8generics12GenericParamNtNtBJ_5token5CommaEE12as_mut_sliceBJ_, symObjAddr: 0x5DAC, symBinAddr: 0x12DF4, symSize: 0x7C }
  - { offset: 0x67F1F, size: 0x8, addend: 0x0, symName: __RNvMs_NtCsdze8u8oDPro_5alloc3vecINtB4_3VecTNtNtCsATtFUPiRFW_3syn8generics12GenericParamNtNtBJ_5token5CommaEE18spare_capacity_mutBJ_, symObjAddr: 0x5E28, symBinAddr: 0x12E70, symSize: 0xE0 }
  - { offset: 0x680CB, size: 0x8, addend: 0x0, symName: __RNvMs_NtCsdze8u8oDPro_5alloc3vecINtB4_3VecTNtNtCsATtFUPiRFW_3syn8generics12GenericParamNtNtBJ_5token5CommaEE3lenBJ_, symObjAddr: 0x5F08, symBinAddr: 0x12F50, symSize: 0x18 }
  - { offset: 0x68247, size: 0x8, addend: 0x0, symName: __RNvMs_NtCsdze8u8oDPro_5alloc3vecINtB4_3VecTNtNtCsATtFUPiRFW_3syn8generics12GenericParamNtNtBJ_5token5CommaEE4pushBJ_, symObjAddr: 0x5F20, symBinAddr: 0x12F68, symSize: 0x12C }
  - { offset: 0x6853A, size: 0x8, addend: 0x0, symName: __RNvMs_NtCsdze8u8oDPro_5alloc3vecINtB4_3VecTNtNtCsATtFUPiRFW_3syn8generics12GenericParamNtNtBJ_5token5CommaEE8as_sliceBJ_, symObjAddr: 0x604C, symBinAddr: 0x13094, symSize: 0x7C }
  - { offset: 0x687F7, size: 0x8, addend: 0x0, symName: __RNvMs_NtCsdze8u8oDPro_5alloc3vecINtB4_3VecTNtNtCsATtFUPiRFW_3syn8generics13CapturedParamNtNtBJ_5token5CommaEE18spare_capacity_mutBJ_, symObjAddr: 0x60C8, symBinAddr: 0x13110, symSize: 0xE0 }
  - { offset: 0x68ADD, size: 0x8, addend: 0x0, symName: __RNvMs_NtCsdze8u8oDPro_5alloc3vecINtB4_3VecTNtNtCsATtFUPiRFW_3syn8generics13CapturedParamNtNtBJ_5token5CommaEE4pushBJ_, symObjAddr: 0x61A8, symBinAddr: 0x131F0, symSize: 0x124 }
  - { offset: 0x68DE5, size: 0x8, addend: 0x0, symName: __RNvMs_NtCsdze8u8oDPro_5alloc3vecINtB4_3VecTNtNtCsATtFUPiRFW_3syn8generics13CapturedParamNtNtBJ_5token5CommaEE8as_sliceBJ_, symObjAddr: 0x62CC, symBinAddr: 0x13314, symSize: 0x7C }
  - { offset: 0x69095, size: 0x8, addend: 0x0, symName: __RNvMs_NtCsdze8u8oDPro_5alloc3vecINtB4_3VecTNtNtCsATtFUPiRFW_3syn8generics14TypeParamBoundNtNtBJ_5token4PlusEE18spare_capacity_mutBJ_, symObjAddr: 0x6348, symBinAddr: 0x13390, symSize: 0xDC }
  - { offset: 0x69241, size: 0x8, addend: 0x0, symName: __RNvMs_NtCsdze8u8oDPro_5alloc3vecINtB4_3VecTNtNtCsATtFUPiRFW_3syn8generics14TypeParamBoundNtNtBJ_5token4PlusEE3lenBJ_, symObjAddr: 0x6424, symBinAddr: 0x1346C, symSize: 0x18 }
  - { offset: 0x693BD, size: 0x8, addend: 0x0, symName: __RNvMs_NtCsdze8u8oDPro_5alloc3vecINtB4_3VecTNtNtCsATtFUPiRFW_3syn8generics14TypeParamBoundNtNtBJ_5token4PlusEE4pushBJ_, symObjAddr: 0x643C, symBinAddr: 0x13484, symSize: 0x124 }
  - { offset: 0x696B8, size: 0x8, addend: 0x0, symName: __RNvMs_NtCsdze8u8oDPro_5alloc3vecINtB4_3VecTNtNtCsATtFUPiRFW_3syn8generics14TypeParamBoundNtNtBJ_5token4PlusEE8as_sliceBJ_, symObjAddr: 0x6560, symBinAddr: 0x135A8, symSize: 0x7C }
  - { offset: 0x69975, size: 0x8, addend: 0x0, symName: __RNvMs_NtCsdze8u8oDPro_5alloc3vecINtB4_3VecTNtNtCsATtFUPiRFW_3syn8generics14WherePredicateNtNtBJ_5token5CommaEE18spare_capacity_mutBJ_, symObjAddr: 0x65DC, symBinAddr: 0x13624, symSize: 0xE0 }
  - { offset: 0x69B21, size: 0x8, addend: 0x0, symName: __RNvMs_NtCsdze8u8oDPro_5alloc3vecINtB4_3VecTNtNtCsATtFUPiRFW_3syn8generics14WherePredicateNtNtBJ_5token5CommaEE3lenBJ_, symObjAddr: 0x66BC, symBinAddr: 0x13704, symSize: 0x18 }
  - { offset: 0x69C9D, size: 0x8, addend: 0x0, symName: __RNvMs_NtCsdze8u8oDPro_5alloc3vecINtB4_3VecTNtNtCsATtFUPiRFW_3syn8generics14WherePredicateNtNtBJ_5token5CommaEE4pushBJ_, symObjAddr: 0x66D4, symBinAddr: 0x1371C, symSize: 0x12C }
  - { offset: 0x69F98, size: 0x8, addend: 0x0, symName: __RNvMs_NtCsdze8u8oDPro_5alloc3vecINtB4_3VecTNtNtCsATtFUPiRFW_3syn8generics14WherePredicateNtNtBJ_5token5CommaEE8as_sliceBJ_, symObjAddr: 0x6800, symBinAddr: 0x13848, symSize: 0x7C }
  - { offset: 0x6A255, size: 0x8, addend: 0x0, symName: __RNvMs_NtCsdze8u8oDPro_5alloc3vecINtB4_3VecTNtNtCsATtFUPiRFW_3syn8lifetime8LifetimeNtNtBJ_5token4PlusEE18spare_capacity_mutBJ_, symObjAddr: 0x687C, symBinAddr: 0x138C4, symSize: 0xE0 }
  - { offset: 0x6A401, size: 0x8, addend: 0x0, symName: __RNvMs_NtCsdze8u8oDPro_5alloc3vecINtB4_3VecTNtNtCsATtFUPiRFW_3syn8lifetime8LifetimeNtNtBJ_5token4PlusEE3lenBJ_, symObjAddr: 0x695C, symBinAddr: 0x139A4, symSize: 0x18 }
  - { offset: 0x6A57D, size: 0x8, addend: 0x0, symName: __RNvMs_NtCsdze8u8oDPro_5alloc3vecINtB4_3VecTNtNtCsATtFUPiRFW_3syn8lifetime8LifetimeNtNtBJ_5token4PlusEE4pushBJ_, symObjAddr: 0x6974, symBinAddr: 0x139BC, symSize: 0x124 }
  - { offset: 0x6A879, size: 0x8, addend: 0x0, symName: __RNvMs_NtCsdze8u8oDPro_5alloc3vecINtB4_3VecTNtNtCsATtFUPiRFW_3syn8lifetime8LifetimeNtNtBJ_5token4PlusEE8as_sliceBJ_, symObjAddr: 0x6A98, symBinAddr: 0x13AE0, symSize: 0x7C }
  - { offset: 0x6ABA6, size: 0x8, addend: 0x0, symName: __RNvMs_NtCsdze8u8oDPro_5alloc3vecINtB4_3VechE16into_boxed_sliceCsATtFUPiRFW_3syn, symObjAddr: 0x6B14, symBinAddr: 0x13B5C, symSize: 0x1B8 }
  - { offset: 0x6AFD3, size: 0x8, addend: 0x0, symName: __RNvMs_NtCsdze8u8oDPro_5alloc3vecINtB4_3VechE18spare_capacity_mutCsATtFUPiRFW_3syn, symObjAddr: 0x6CCC, symBinAddr: 0x13D14, symSize: 0xD4 }
  - { offset: 0x6B172, size: 0x8, addend: 0x0, symName: __RNvMs_NtCsdze8u8oDPro_5alloc3vecINtB4_3VechE3lenCsATtFUPiRFW_3syn, symObjAddr: 0x6DA0, symBinAddr: 0x13DE8, symSize: 0x18 }
  - { offset: 0x6B285, size: 0x8, addend: 0x0, symName: __RNvMs_NtCsdze8u8oDPro_5alloc3vecINtB4_3VechE8as_sliceCsATtFUPiRFW_3syn, symObjAddr: 0x6DB8, symBinAddr: 0x13E00, symSize: 0x78 }
  - { offset: 0x6B48D, size: 0x8, addend: 0x0, symName: __RNvMs_NtCsdze8u8oDPro_5alloc3vecINtB4_3VechE8truncateCsATtFUPiRFW_3syn, symObjAddr: 0x6E30, symBinAddr: 0x13E78, symSize: 0x80 }
  - { offset: 0x6B89F, size: 0x8, addend: 0x0, symName: __RNvMs_NtCsdze8u8oDPro_5alloc3vecINtB4_3VechE9split_offCsATtFUPiRFW_3syn, symObjAddr: 0x6EB0, symBinAddr: 0x13EF8, symSize: 0x184 }
  - { offset: 0x76654, size: 0x8, addend: 0x0, symName: __RINvXNtNtCsdze8u8oDPro_5alloc5slice4hackNtNtCsATtFUPiRFW_3syn4item11ForeignItemNtB3_10ConvertVec6to_vecNtNtB7_5alloc6GlobalEBG_, symObjAddr: 0x0, symBinAddr: 0x1A85C, symSize: 0x2C0 }
  - { offset: 0x77BC6, size: 0x8, addend: 0x0, symName: __RNvXs_NtCsATtFUPiRFW_3syn4itemNtB4_4ItemINtNtCs9f3LFPSIp77_4core7convert4FromNtNtB6_6derive11DeriveInputE4from, symObjAddr: 0x7220, symBinAddr: 0x21A7C, symSize: 0x42C }
  - { offset: 0x77C55, size: 0x8, addend: 0x0, symName: __RNvXNtNtCsATtFUPiRFW_3syn4item7parsingNtB4_4ItemNtNtB6_5parse5Parse5parse, symObjAddr: 0x77C4, symBinAddr: 0x22020, symSize: 0x1B4 }
  - { offset: 0x77CFB, size: 0x8, addend: 0x0, symName: __RNvXs0_NtNtCsATtFUPiRFW_3syn4item7parsingNtB7_9ItemMacroNtNtB9_5parse5Parse5parse, symObjAddr: 0x7978, symBinAddr: 0x221D4, symSize: 0x640 }
  - { offset: 0x77EC6, size: 0x8, addend: 0x0, symName: __RNvXs1_NtNtCsATtFUPiRFW_3syn4item7parsingNtB7_15ItemExternCrateNtNtB9_5parse5Parse5parse, symObjAddr: 0x7FB8, symBinAddr: 0x22814, symSize: 0x95C }
  - { offset: 0x780CF, size: 0x8, addend: 0x0, symName: __RNvXs2_NtNtCsATtFUPiRFW_3syn4item7parsingNtB7_7ItemUseNtNtB9_5parse5Parse5parse, symObjAddr: 0x8914, symBinAddr: 0x23170, symSize: 0x58 }
  - { offset: 0x78120, size: 0x8, addend: 0x0, symName: __RNvXs3_NtNtCsATtFUPiRFW_3syn4item7parsingNtB7_7UseTreeNtNtB9_5parse5Parse5parse, symObjAddr: 0x896C, symBinAddr: 0x231C8, symSize: 0x58 }
  - { offset: 0x78171, size: 0x8, addend: 0x0, symName: __RNvXs4_NtNtCsATtFUPiRFW_3syn4item7parsingNtB7_10ItemStaticNtNtB9_5parse5Parse5parse, symObjAddr: 0x89C4, symBinAddr: 0x23220, symSize: 0xAC0 }
  - { offset: 0x78375, size: 0x8, addend: 0x0, symName: __RNvXs5_NtNtCsATtFUPiRFW_3syn4item7parsingNtB7_9ItemConstNtNtB9_5parse5Parse5parse, symObjAddr: 0x9484, symBinAddr: 0x23CE0, symSize: 0xA64 }
  - { offset: 0x78643, size: 0x8, addend: 0x0, symName: __RNvXs6_NtNtCsATtFUPiRFW_3syn4item7parsingNtB7_9SignatureNtNtB9_5parse5Parse5parse, symObjAddr: 0x9EE8, symBinAddr: 0x24744, symSize: 0x60 }
  - { offset: 0x78694, size: 0x8, addend: 0x0, symName: __RNvXs7_NtNtCsATtFUPiRFW_3syn4item7parsingNtB7_6ItemFnNtNtB9_5parse5Parse5parse, symObjAddr: 0x9F48, symBinAddr: 0x247A4, symSize: 0x378 }
  - { offset: 0x787C7, size: 0x8, addend: 0x0, symName: __RNvXs8_NtNtCsATtFUPiRFW_3syn4item7parsingNtB7_5FnArgNtNtB9_5parse5Parse5parse, symObjAddr: 0xA2C0, symBinAddr: 0x24B1C, symSize: 0x2E0 }
  - { offset: 0x788C2, size: 0x8, addend: 0x0, symName: __RNvXs9_NtNtCsATtFUPiRFW_3syn4item7parsingNtB7_8ReceiverNtNtB9_5parse5Parse5parse, symObjAddr: 0xA5A0, symBinAddr: 0x24DFC, symSize: 0x98C }
  - { offset: 0x78B15, size: 0x8, addend: 0x0, symName: __RNvXsa_NtNtCsATtFUPiRFW_3syn4item7parsingNtB7_7ItemModNtNtB9_5parse5Parse5parse, symObjAddr: 0xAF2C, symBinAddr: 0x25788, symSize: 0xC60 }
  - { offset: 0x78D75, size: 0x8, addend: 0x0, symName: __RNvXsb_NtNtCsATtFUPiRFW_3syn4item7parsingNtB7_14ItemForeignModNtNtB9_5parse5Parse5parse, symObjAddr: 0xBB8C, symBinAddr: 0x263E8, symSize: 0x61C }
  - { offset: 0x78F24, size: 0x8, addend: 0x0, symName: __RNvXsc_NtNtCsATtFUPiRFW_3syn4item7parsingNtB7_11ForeignItemNtNtB9_5parse5Parse5parse, symObjAddr: 0xC1A8, symBinAddr: 0x26A04, symSize: 0x1DB8 }
  - { offset: 0x79588, size: 0x8, addend: 0x0, symName: __RNvXsd_NtNtCsATtFUPiRFW_3syn4item7parsingNtB7_13ForeignItemFnNtNtB9_5parse5Parse5parse, symObjAddr: 0xDF60, symBinAddr: 0x287BC, symSize: 0x3C0 }
  - { offset: 0x796E8, size: 0x8, addend: 0x0, symName: __RNvXse_NtNtCsATtFUPiRFW_3syn4item7parsingNtB7_17ForeignItemStaticNtNtB9_5parse5Parse5parse, symObjAddr: 0xE320, symBinAddr: 0x28B7C, symSize: 0x830 }
  - { offset: 0x7988F, size: 0x8, addend: 0x0, symName: __RNvXsf_NtNtCsATtFUPiRFW_3syn4item7parsingNtB7_15ForeignItemTypeNtNtB9_5parse5Parse5parse, symObjAddr: 0xEB50, symBinAddr: 0x293AC, symSize: 0x744 }
  - { offset: 0x79A1F, size: 0x8, addend: 0x0, symName: __RNvXsg_NtNtCsATtFUPiRFW_3syn4item7parsingNtB7_16ForeignItemMacroNtNtB9_5parse5Parse5parse, symObjAddr: 0xF294, symBinAddr: 0x29AF0, symSize: 0x33C }
  - { offset: 0x79B32, size: 0x8, addend: 0x0, symName: __RNvXsh_NtNtCsATtFUPiRFW_3syn4item7parsingNtB7_8ItemTypeNtNtB9_5parse5Parse5parse, symObjAddr: 0xF5D0, symBinAddr: 0x29E2C, symSize: 0x9D4 }
  - { offset: 0x79D1E, size: 0x8, addend: 0x0, symName: __RNvXsi_NtNtCsATtFUPiRFW_3syn4item7parsingNtB7_10ItemStructNtNtB9_5parse5Parse5parse, symObjAddr: 0xFFA4, symBinAddr: 0x2A800, symSize: 0x650 }
  - { offset: 0x79F19, size: 0x8, addend: 0x0, symName: __RNvXsj_NtNtCsATtFUPiRFW_3syn4item7parsingNtB7_8ItemEnumNtNtB9_5parse5Parse5parse, symObjAddr: 0x105F4, symBinAddr: 0x2AE50, symSize: 0x650 }
  - { offset: 0x7A114, size: 0x8, addend: 0x0, symName: __RNvXsk_NtNtCsATtFUPiRFW_3syn4item7parsingNtB7_9ItemUnionNtNtB9_5parse5Parse5parse, symObjAddr: 0x10C44, symBinAddr: 0x2B4A0, symSize: 0x640 }
  - { offset: 0x7A2FF, size: 0x8, addend: 0x0, symName: __RNvXsl_NtNtCsATtFUPiRFW_3syn4item7parsingNtB7_9ItemTraitNtNtB9_5parse5Parse5parse, symObjAddr: 0x11284, symBinAddr: 0x2BAE0, symSize: 0x640 }
  - { offset: 0x7A503, size: 0x8, addend: 0x0, symName: __RNvXsm_NtNtCsATtFUPiRFW_3syn4item7parsingNtB7_14ItemTraitAliasNtNtB9_5parse5Parse5parse, symObjAddr: 0x118C4, symBinAddr: 0x2C120, symSize: 0x270 }
  - { offset: 0x7A5B7, size: 0x8, addend: 0x0, symName: __RNvXsn_NtNtCsATtFUPiRFW_3syn4item7parsingNtB7_9TraitItemNtNtB9_5parse5Parse5parse, symObjAddr: 0x11B34, symBinAddr: 0x2C390, symSize: 0x1690 }
  - { offset: 0x7AA25, size: 0x8, addend: 0x0, symName: __RNvXso_NtNtCsATtFUPiRFW_3syn4item7parsingNtB7_14TraitItemConstNtNtB9_5parse5Parse5parse, symObjAddr: 0x131C4, symBinAddr: 0x2DA20, symSize: 0x88C }
  - { offset: 0x7AC67, size: 0x8, addend: 0x0, symName: __RNvXsp_NtNtCsATtFUPiRFW_3syn4item7parsingNtB7_11TraitItemFnNtNtB9_5parse5Parse5parse, symObjAddr: 0x13A50, symBinAddr: 0x2E2AC, symSize: 0x800 }
  - { offset: 0x7AE67, size: 0x8, addend: 0x0, symName: __RNvXsq_NtNtCsATtFUPiRFW_3syn4item7parsingNtB7_13TraitItemTypeNtNtB9_5parse5Parse5parse, symObjAddr: 0x14250, symBinAddr: 0x2EAAC, symSize: 0x730 }
  - { offset: 0x7B08D, size: 0x8, addend: 0x0, symName: __RNvXsr_NtNtCsATtFUPiRFW_3syn4item7parsingNtB7_14TraitItemMacroNtNtB9_5parse5Parse5parse, symObjAddr: 0x14980, symBinAddr: 0x2F1DC, symSize: 0x33C }
  - { offset: 0x7B1A0, size: 0x8, addend: 0x0, symName: __RNvXss_NtNtCsATtFUPiRFW_3syn4item7parsingNtB7_8ItemImplNtNtB9_5parse5Parse5parse, symObjAddr: 0x14CBC, symBinAddr: 0x2F518, symSize: 0x60 }
  - { offset: 0x7B1F1, size: 0x8, addend: 0x0, symName: __RNvXst_NtNtCsATtFUPiRFW_3syn4item7parsingNtB7_8ImplItemNtNtB9_5parse5Parse5parse, symObjAddr: 0x14D1C, symBinAddr: 0x2F578, symSize: 0x1AC8 }
  - { offset: 0x7B70A, size: 0x8, addend: 0x0, symName: __RNvXsu_NtNtCsATtFUPiRFW_3syn4item7parsingNtB7_13ImplItemConstNtNtB9_5parse5Parse5parse, symObjAddr: 0x167E4, symBinAddr: 0x31040, symSize: 0x9D0 }
  - { offset: 0x7B9C5, size: 0x8, addend: 0x0, symName: __RNvXsv_NtNtCsATtFUPiRFW_3syn4item7parsingNtB7_10ImplItemFnNtNtB9_5parse5Parse5parse, symObjAddr: 0x171B4, symBinAddr: 0x31A10, symSize: 0x60 }
  - { offset: 0x7BA16, size: 0x8, addend: 0x0, symName: __RNvXsw_NtNtCsATtFUPiRFW_3syn4item7parsingNtB7_12ImplItemTypeNtNtB9_5parse5Parse5parse, symObjAddr: 0x17214, symBinAddr: 0x31A70, symSize: 0x844 }
  - { offset: 0x7BCA4, size: 0x8, addend: 0x0, symName: __RNvXsx_NtNtCsATtFUPiRFW_3syn4item7parsingNtB7_13ImplItemMacroNtNtB9_5parse5Parse5parse, symObjAddr: 0x17A58, symBinAddr: 0x322B4, symSize: 0x33C }
  - { offset: 0x7BDB7, size: 0x8, addend: 0x0, symName: __RNvXsz_NtNtCsATtFUPiRFW_3syn4item7parsingNtB7_16StaticMutabilityNtNtB9_5parse5Parse5parse, symObjAddr: 0x17D94, symBinAddr: 0x325F0, symSize: 0xDC }
  - { offset: 0x7BE8E, size: 0x8, addend: 0x0, symName: __RNvXNtNtCsATtFUPiRFW_3syn4item8printingNtB4_15ItemExternCrateNtNtCs62MdaZFMefA_5quote9to_tokens8ToTokens9to_tokens, symObjAddr: 0x17E70, symBinAddr: 0x326CC, symSize: 0x110 }
  - { offset: 0x7BEFB, size: 0x8, addend: 0x0, symName: __RNvXs_NtNtCsATtFUPiRFW_3syn4item8printingNtB6_7ItemUseNtNtCs62MdaZFMefA_5quote9to_tokens8ToTokens9to_tokens, symObjAddr: 0x17F80, symBinAddr: 0x327DC, symSize: 0xA4 }
  - { offset: 0x7BF3A, size: 0x8, addend: 0x0, symName: __RNvXs0_NtNtCsATtFUPiRFW_3syn4item8printingNtB7_10ItemStaticNtNtCs62MdaZFMefA_5quote9to_tokens8ToTokens9to_tokens, symObjAddr: 0x18024, symBinAddr: 0x32880, symSize: 0xE4 }
  - { offset: 0x7BF79, size: 0x8, addend: 0x0, symName: __RNvXs1_NtNtCsATtFUPiRFW_3syn4item8printingNtB7_9ItemConstNtNtCs62MdaZFMefA_5quote9to_tokens8ToTokens9to_tokens, symObjAddr: 0x18108, symBinAddr: 0x32964, symSize: 0xD4 }
  - { offset: 0x7BFB8, size: 0x8, addend: 0x0, symName: __RNvXs2_NtNtCsATtFUPiRFW_3syn4item8printingNtB7_6ItemFnNtNtCs62MdaZFMefA_5quote9to_tokens8ToTokens9to_tokens, symObjAddr: 0x181DC, symBinAddr: 0x32A38, symSize: 0x8C }
  - { offset: 0x7BFF7, size: 0x8, addend: 0x0, symName: __RNvXs3_NtNtCsATtFUPiRFW_3syn4item8printingNtB7_7ItemModNtNtCs62MdaZFMefA_5quote9to_tokens8ToTokens9to_tokens, symObjAddr: 0x18268, symBinAddr: 0x32AC4, symSize: 0x110 }
  - { offset: 0x7C064, size: 0x8, addend: 0x0, symName: __RNvXs4_NtNtCsATtFUPiRFW_3syn4item8printingNtB7_14ItemForeignModNtNtCs62MdaZFMefA_5quote9to_tokens8ToTokens9to_tokens, symObjAddr: 0x18378, symBinAddr: 0x32BD4, symSize: 0x88 }
  - { offset: 0x7C0A3, size: 0x8, addend: 0x0, symName: __RNvXs5_NtNtCsATtFUPiRFW_3syn4item8printingNtB7_8ItemTypeNtNtCs62MdaZFMefA_5quote9to_tokens8ToTokens9to_tokens, symObjAddr: 0x18400, symBinAddr: 0x32C5C, symSize: 0xD4 }
  - { offset: 0x7C0E2, size: 0x8, addend: 0x0, symName: __RNvXs6_NtNtCsATtFUPiRFW_3syn4item8printingNtB7_8ItemEnumNtNtCs62MdaZFMefA_5quote9to_tokens8ToTokens9to_tokens, symObjAddr: 0x184D4, symBinAddr: 0x32D30, symSize: 0xB8 }
  - { offset: 0x7C121, size: 0x8, addend: 0x0, symName: __RNvXs7_NtNtCsATtFUPiRFW_3syn4item8printingNtB7_10ItemStructNtNtCs62MdaZFMefA_5quote9to_tokens8ToTokens9to_tokens, symObjAddr: 0x1858C, symBinAddr: 0x32DE8, symSize: 0x188 }
  - { offset: 0x7C19C, size: 0x8, addend: 0x0, symName: __RNvXs8_NtNtCsATtFUPiRFW_3syn4item8printingNtB7_9ItemUnionNtNtCs62MdaZFMefA_5quote9to_tokens8ToTokens9to_tokens, symObjAddr: 0x18714, symBinAddr: 0x32F70, symSize: 0xB4 }
  - { offset: 0x7C1DB, size: 0x8, addend: 0x0, symName: __RNvXs9_NtNtCsATtFUPiRFW_3syn4item8printingNtB7_9ItemTraitNtNtCs62MdaZFMefA_5quote9to_tokens8ToTokens9to_tokens, symObjAddr: 0x187C8, symBinAddr: 0x33024, symSize: 0x130 }
  - { offset: 0x7C21A, size: 0x8, addend: 0x0, symName: __RNvXsa_NtNtCsATtFUPiRFW_3syn4item8printingNtB7_14ItemTraitAliasNtNtCs62MdaZFMefA_5quote9to_tokens8ToTokens9to_tokens, symObjAddr: 0x188F8, symBinAddr: 0x33154, symSize: 0xD4 }
  - { offset: 0x7C259, size: 0x8, addend: 0x0, symName: __RNvXsb_NtNtCsATtFUPiRFW_3syn4item8printingNtB7_8ItemImplNtNtCs62MdaZFMefA_5quote9to_tokens8ToTokens9to_tokens, symObjAddr: 0x189CC, symBinAddr: 0x33228, symSize: 0x14C }
  - { offset: 0x7C2D6, size: 0x8, addend: 0x0, symName: __RNvXsc_NtNtCsATtFUPiRFW_3syn4item8printingNtB7_9ItemMacroNtNtCs62MdaZFMefA_5quote9to_tokens8ToTokens9to_tokens, symObjAddr: 0x18B18, symBinAddr: 0x33374, symSize: 0x148 }
  - { offset: 0x7C367, size: 0x8, addend: 0x0, symName: __RNvXsd_NtNtCsATtFUPiRFW_3syn4item8printingNtB7_7UsePathNtNtCs62MdaZFMefA_5quote9to_tokens8ToTokens9to_tokens, symObjAddr: 0x18C60, symBinAddr: 0x334BC, symSize: 0x60 }
  - { offset: 0x7C3A6, size: 0x8, addend: 0x0, symName: __RNvXse_NtNtCsATtFUPiRFW_3syn4item8printingNtB7_7UseNameNtNtCs62MdaZFMefA_5quote9to_tokens8ToTokens9to_tokens, symObjAddr: 0x18CC0, symBinAddr: 0x3351C, symSize: 0x3C }
  - { offset: 0x7C3E5, size: 0x8, addend: 0x0, symName: __RNvXsf_NtNtCsATtFUPiRFW_3syn4item8printingNtB7_9UseRenameNtNtCs62MdaZFMefA_5quote9to_tokens8ToTokens9to_tokens, symObjAddr: 0x18CFC, symBinAddr: 0x33558, symSize: 0x60 }
  - { offset: 0x7C424, size: 0x8, addend: 0x0, symName: __RNvXsg_NtNtCsATtFUPiRFW_3syn4item8printingNtB7_7UseGlobNtNtCs62MdaZFMefA_5quote9to_tokens8ToTokens9to_tokens, symObjAddr: 0x18D5C, symBinAddr: 0x335B8, symSize: 0x3C }
  - { offset: 0x7C463, size: 0x8, addend: 0x0, symName: __RNvXsh_NtNtCsATtFUPiRFW_3syn4item8printingNtB7_8UseGroupNtNtCs62MdaZFMefA_5quote9to_tokens8ToTokens9to_tokens, symObjAddr: 0x18D98, symBinAddr: 0x335F4, symSize: 0x44 }
  - { offset: 0x7C4A2, size: 0x8, addend: 0x0, symName: __RNvXsi_NtNtCsATtFUPiRFW_3syn4item8printingNtB7_14TraitItemConstNtNtCs62MdaZFMefA_5quote9to_tokens8ToTokens9to_tokens, symObjAddr: 0x18DDC, symBinAddr: 0x33638, symSize: 0x110 }
  - { offset: 0x7C50F, size: 0x8, addend: 0x0, symName: __RNvXsj_NtNtCsATtFUPiRFW_3syn4item8printingNtB7_11TraitItemFnNtNtCs62MdaZFMefA_5quote9to_tokens8ToTokens9to_tokens, symObjAddr: 0x18EEC, symBinAddr: 0x33748, symSize: 0xD4 }
  - { offset: 0x7C56C, size: 0x8, addend: 0x0, symName: __RNvXsk_NtNtCsATtFUPiRFW_3syn4item8printingNtB7_13TraitItemTypeNtNtCs62MdaZFMefA_5quote9to_tokens8ToTokens9to_tokens, symObjAddr: 0x18FC0, symBinAddr: 0x3381C, symSize: 0x168 }
  - { offset: 0x7C5D9, size: 0x8, addend: 0x0, symName: __RNvXsl_NtNtCsATtFUPiRFW_3syn4item8printingNtB7_14TraitItemMacroNtNtCs62MdaZFMefA_5quote9to_tokens8ToTokens9to_tokens, symObjAddr: 0x19128, symBinAddr: 0x33984, symSize: 0x74 }
  - { offset: 0x7C618, size: 0x8, addend: 0x0, symName: __RNvXsm_NtNtCsATtFUPiRFW_3syn4item8printingNtB7_13ImplItemConstNtNtCs62MdaZFMefA_5quote9to_tokens8ToTokens9to_tokens, symObjAddr: 0x1919C, symBinAddr: 0x339F8, symSize: 0xE4 }
  - { offset: 0x7C657, size: 0x8, addend: 0x0, symName: __RNvXsn_NtNtCsATtFUPiRFW_3syn4item8printingNtB7_10ImplItemFnNtNtCs62MdaZFMefA_5quote9to_tokens8ToTokens9to_tokens, symObjAddr: 0x19280, symBinAddr: 0x33ADC, symSize: 0x98 }
  - { offset: 0x7C696, size: 0x8, addend: 0x0, symName: __RNvXso_NtNtCsATtFUPiRFW_3syn4item8printingNtB7_12ImplItemTypeNtNtCs62MdaZFMefA_5quote9to_tokens8ToTokens9to_tokens, symObjAddr: 0x19318, symBinAddr: 0x33B74, symSize: 0xE4 }
  - { offset: 0x7C6D5, size: 0x8, addend: 0x0, symName: __RNvXsp_NtNtCsATtFUPiRFW_3syn4item8printingNtB7_13ImplItemMacroNtNtCs62MdaZFMefA_5quote9to_tokens8ToTokens9to_tokens, symObjAddr: 0x193FC, symBinAddr: 0x33C58, symSize: 0x74 }
  - { offset: 0x7C714, size: 0x8, addend: 0x0, symName: __RNvXsq_NtNtCsATtFUPiRFW_3syn4item8printingNtB7_13ForeignItemFnNtNtCs62MdaZFMefA_5quote9to_tokens8ToTokens9to_tokens, symObjAddr: 0x19470, symBinAddr: 0x33CCC, symSize: 0x84 }
  - { offset: 0x7C753, size: 0x8, addend: 0x0, symName: __RNvXsr_NtNtCsATtFUPiRFW_3syn4item8printingNtB7_17ForeignItemStaticNtNtCs62MdaZFMefA_5quote9to_tokens8ToTokens9to_tokens, symObjAddr: 0x194F4, symBinAddr: 0x33D50, symSize: 0xC4 }
  - { offset: 0x7C792, size: 0x8, addend: 0x0, symName: __RNvXss_NtNtCsATtFUPiRFW_3syn4item8printingNtB7_15ForeignItemTypeNtNtCs62MdaZFMefA_5quote9to_tokens8ToTokens9to_tokens, symObjAddr: 0x195B8, symBinAddr: 0x33E14, symSize: 0xB4 }
  - { offset: 0x7C7D1, size: 0x8, addend: 0x0, symName: __RNvXst_NtNtCsATtFUPiRFW_3syn4item8printingNtB7_16ForeignItemMacroNtNtCs62MdaZFMefA_5quote9to_tokens8ToTokens9to_tokens, symObjAddr: 0x1966C, symBinAddr: 0x33EC8, symSize: 0x74 }
  - { offset: 0x7C810, size: 0x8, addend: 0x0, symName: __RNvXsu_NtNtCsATtFUPiRFW_3syn4item8printingNtB7_9SignatureNtNtCs62MdaZFMefA_5quote9to_tokens8ToTokens9to_tokens, symObjAddr: 0x196E0, symBinAddr: 0x33F3C, symSize: 0xD4 }
  - { offset: 0x7C84F, size: 0x8, addend: 0x0, symName: __RNvXsv_NtNtCsATtFUPiRFW_3syn4item8printingNtB7_8ReceiverNtNtCs62MdaZFMefA_5quote9to_tokens8ToTokens9to_tokens, symObjAddr: 0x197B4, symBinAddr: 0x34010, symSize: 0x40C }
  - { offset: 0x7C944, size: 0x8, addend: 0x0, symName: __RNvXsw_NtNtCsATtFUPiRFW_3syn4item8printingNtB7_8VariadicNtNtCs62MdaZFMefA_5quote9to_tokens8ToTokens9to_tokens, symObjAddr: 0x19BC0, symBinAddr: 0x3441C, symSize: 0xE0 }
  - { offset: 0x7C9B1, size: 0x8, addend: 0x0, symName: __RNvXsx_NtNtCsATtFUPiRFW_3syn4item8printingNtB7_16StaticMutabilityNtNtCs62MdaZFMefA_5quote9to_tokens8ToTokens9to_tokens, symObjAddr: 0x19CA0, symBinAddr: 0x344FC, symSize: 0x7C }
  - { offset: 0x7CA14, size: 0x8, addend: 0x0, symName: __RNcNtNtNtCsATtFUPiRFW_3syn4item4Item4Enum0B7_, symObjAddr: 0x19D1C, symBinAddr: 0x34578, symSize: 0x3C }
  - { offset: 0x7CA43, size: 0x8, addend: 0x0, symName: __RNcNtNtNtCsATtFUPiRFW_3syn4item4Item11ExternCrate0B7_, symObjAddr: 0x19D58, symBinAddr: 0x345B4, symSize: 0x3C }
  - { offset: 0x7CA72, size: 0x8, addend: 0x0, symName: __RNcNtNtNtCsATtFUPiRFW_3syn4item4Item2Fn0B7_, symObjAddr: 0x19D94, symBinAddr: 0x345F0, symSize: 0x30 }
  - { offset: 0x7CAA1, size: 0x8, addend: 0x0, symName: __RNcNtNtNtCsATtFUPiRFW_3syn4item4Item10ForeignMod0B7_, symObjAddr: 0x19DC4, symBinAddr: 0x34620, symSize: 0x3C }
  - { offset: 0x7CAD0, size: 0x8, addend: 0x0, symName: __RNcNtNtNtCsATtFUPiRFW_3syn4item4Item5Macro0B7_, symObjAddr: 0x19E00, symBinAddr: 0x3465C, symSize: 0x3C }
  - { offset: 0x7CAFF, size: 0x8, addend: 0x0, symName: __RNcNtNtNtCsATtFUPiRFW_3syn4item4Item3Mod0B7_, symObjAddr: 0x19E3C, symBinAddr: 0x34698, symSize: 0x3C }
  - { offset: 0x7CB2E, size: 0x8, addend: 0x0, symName: __RNcNtNtNtCsATtFUPiRFW_3syn4item4Item6Struct0B7_, symObjAddr: 0x19E78, symBinAddr: 0x346D4, symSize: 0x3C }
  - { offset: 0x7CB5D, size: 0x8, addend: 0x0, symName: __RNcNtNtNtCsATtFUPiRFW_3syn4item4Item5Trait0B7_, symObjAddr: 0x19EB4, symBinAddr: 0x34710, symSize: 0x3C }
  - { offset: 0x7CB8C, size: 0x8, addend: 0x0, symName: __RNcNtNtNtCsATtFUPiRFW_3syn4item4Item10TraitAlias0B7_, symObjAddr: 0x19EF0, symBinAddr: 0x3474C, symSize: 0x3C }
  - { offset: 0x7CBBB, size: 0x8, addend: 0x0, symName: __RNcNtNtNtCsATtFUPiRFW_3syn4item4Item5Union0B7_, symObjAddr: 0x19F2C, symBinAddr: 0x34788, symSize: 0x3C }
  - { offset: 0x7CBEB, size: 0x8, addend: 0x0, symName: __RNvXs5_NtCsATtFUPiRFW_3syn4itemNtB5_4ItemINtNtCs9f3LFPSIp77_4core7convert4FromNtB5_9ItemConstE4from, symObjAddr: 0x19F68, symBinAddr: 0x347C4, symSize: 0x4C }
  - { offset: 0x7CC1E, size: 0x8, addend: 0x0, symName: __RNvXs6_NtCsATtFUPiRFW_3syn4itemNtB5_4ItemINtNtCs9f3LFPSIp77_4core7convert4FromNtB5_8ItemEnumE4from, symObjAddr: 0x19FB4, symBinAddr: 0x34810, symSize: 0x4C }
  - { offset: 0x7CC51, size: 0x8, addend: 0x0, symName: __RNvXs7_NtCsATtFUPiRFW_3syn4itemNtB5_4ItemINtNtCs9f3LFPSIp77_4core7convert4FromNtB5_15ItemExternCrateE4from, symObjAddr: 0x1A000, symBinAddr: 0x3485C, symSize: 0x4C }
  - { offset: 0x7CC84, size: 0x8, addend: 0x0, symName: __RNvXs8_NtCsATtFUPiRFW_3syn4itemNtB5_4ItemINtNtCs9f3LFPSIp77_4core7convert4FromNtB5_6ItemFnE4from, symObjAddr: 0x1A04C, symBinAddr: 0x348A8, symSize: 0x40 }
  - { offset: 0x7CCB7, size: 0x8, addend: 0x0, symName: __RNvXs9_NtCsATtFUPiRFW_3syn4itemNtB5_4ItemINtNtCs9f3LFPSIp77_4core7convert4FromNtB5_14ItemForeignModE4from, symObjAddr: 0x1A08C, symBinAddr: 0x348E8, symSize: 0x4C }
  - { offset: 0x7CCEA, size: 0x8, addend: 0x0, symName: __RNvXsa_NtCsATtFUPiRFW_3syn4itemNtB5_4ItemINtNtCs9f3LFPSIp77_4core7convert4FromNtB5_8ItemImplE4from, symObjAddr: 0x1A0D8, symBinAddr: 0x34934, symSize: 0x4C }
  - { offset: 0x7CD1D, size: 0x8, addend: 0x0, symName: __RNvXsb_NtCsATtFUPiRFW_3syn4itemNtB5_4ItemINtNtCs9f3LFPSIp77_4core7convert4FromNtB5_9ItemMacroE4from, symObjAddr: 0x1A124, symBinAddr: 0x34980, symSize: 0x4C }
  - { offset: 0x7CD50, size: 0x8, addend: 0x0, symName: __RNvXsc_NtCsATtFUPiRFW_3syn4itemNtB5_4ItemINtNtCs9f3LFPSIp77_4core7convert4FromNtB5_7ItemModE4from, symObjAddr: 0x1A170, symBinAddr: 0x349CC, symSize: 0x4C }
  - { offset: 0x7CD83, size: 0x8, addend: 0x0, symName: __RNvXsd_NtCsATtFUPiRFW_3syn4itemNtB5_4ItemINtNtCs9f3LFPSIp77_4core7convert4FromNtB5_10ItemStaticE4from, symObjAddr: 0x1A1BC, symBinAddr: 0x34A18, symSize: 0x4C }
  - { offset: 0x7CDB6, size: 0x8, addend: 0x0, symName: __RNvXse_NtCsATtFUPiRFW_3syn4itemNtB5_4ItemINtNtCs9f3LFPSIp77_4core7convert4FromNtB5_10ItemStructE4from, symObjAddr: 0x1A208, symBinAddr: 0x34A64, symSize: 0x4C }
  - { offset: 0x7CDE9, size: 0x8, addend: 0x0, symName: __RNvXsf_NtCsATtFUPiRFW_3syn4itemNtB5_4ItemINtNtCs9f3LFPSIp77_4core7convert4FromNtB5_9ItemTraitE4from, symObjAddr: 0x1A254, symBinAddr: 0x34AB0, symSize: 0x4C }
  - { offset: 0x7CE1C, size: 0x8, addend: 0x0, symName: __RNvXsg_NtCsATtFUPiRFW_3syn4itemNtB5_4ItemINtNtCs9f3LFPSIp77_4core7convert4FromNtB5_14ItemTraitAliasE4from, symObjAddr: 0x1A2A0, symBinAddr: 0x34AFC, symSize: 0x4C }
  - { offset: 0x7CE4F, size: 0x8, addend: 0x0, symName: __RNvXsh_NtCsATtFUPiRFW_3syn4itemNtB5_4ItemINtNtCs9f3LFPSIp77_4core7convert4FromNtB5_8ItemTypeE4from, symObjAddr: 0x1A2EC, symBinAddr: 0x34B48, symSize: 0x4C }
  - { offset: 0x7CE82, size: 0x8, addend: 0x0, symName: __RNvXsi_NtCsATtFUPiRFW_3syn4itemNtB5_4ItemINtNtCs9f3LFPSIp77_4core7convert4FromNtB5_9ItemUnionE4from, symObjAddr: 0x1A338, symBinAddr: 0x34B94, symSize: 0x4C }
  - { offset: 0x7CEB5, size: 0x8, addend: 0x0, symName: __RNvXsj_NtCsATtFUPiRFW_3syn4itemNtB5_4ItemINtNtCs9f3LFPSIp77_4core7convert4FromNtB5_7ItemUseE4from, symObjAddr: 0x1A384, symBinAddr: 0x34BE0, symSize: 0x4C }
  - { offset: 0x7CEE8, size: 0x8, addend: 0x0, symName: __RNvXsk_NtCsATtFUPiRFW_3syn4itemNtB5_4ItemNtNtCs62MdaZFMefA_5quote9to_tokens8ToTokens9to_tokens, symObjAddr: 0x1A3D0, symBinAddr: 0x34C2C, symSize: 0x35C }
  - { offset: 0x7D0F2, size: 0x8, addend: 0x0, symName: __RNvXsl_NtCsATtFUPiRFW_3syn4itemNtB5_7UseTreeINtNtCs9f3LFPSIp77_4core7convert4FromNtB5_7UsePathE4from, symObjAddr: 0x1A72C, symBinAddr: 0x34F88, symSize: 0x48 }
  - { offset: 0x7D125, size: 0x8, addend: 0x0, symName: __RNvXsm_NtCsATtFUPiRFW_3syn4itemNtB5_7UseTreeINtNtCs9f3LFPSIp77_4core7convert4FromNtB5_7UseNameE4from, symObjAddr: 0x1A774, symBinAddr: 0x34FD0, symSize: 0x30 }
  - { offset: 0x7D157, size: 0x8, addend: 0x0, symName: __RNvXsn_NtCsATtFUPiRFW_3syn4itemNtB5_7UseTreeINtNtCs9f3LFPSIp77_4core7convert4FromNtB5_9UseRenameE4from, symObjAddr: 0x1A7A4, symBinAddr: 0x35000, symSize: 0x4C }
  - { offset: 0x7D18A, size: 0x8, addend: 0x0, symName: __RNvXso_NtCsATtFUPiRFW_3syn4itemNtB5_7UseTreeINtNtCs9f3LFPSIp77_4core7convert4FromNtB5_7UseGlobE4from, symObjAddr: 0x1A7F0, symBinAddr: 0x3504C, symSize: 0x3C }
  - { offset: 0x7D1BC, size: 0x8, addend: 0x0, symName: __RNvXsp_NtCsATtFUPiRFW_3syn4itemNtB5_7UseTreeINtNtCs9f3LFPSIp77_4core7convert4FromNtB5_8UseGroupE4from, symObjAddr: 0x1A82C, symBinAddr: 0x35088, symSize: 0x4C }
  - { offset: 0x7D1EF, size: 0x8, addend: 0x0, symName: __RNvXsq_NtCsATtFUPiRFW_3syn4itemNtB5_7UseTreeNtNtCs62MdaZFMefA_5quote9to_tokens8ToTokens9to_tokens, symObjAddr: 0x1A878, symBinAddr: 0x350D4, symSize: 0x15C }
  - { offset: 0x7D2B9, size: 0x8, addend: 0x0, symName: __RNcNtNtNtCsATtFUPiRFW_3syn4item11ForeignItem5Macro0B7_, symObjAddr: 0x1A9D4, symBinAddr: 0x35230, symSize: 0x3C }
  - { offset: 0x7D2EB, size: 0x8, addend: 0x0, symName: __RNvXsr_NtCsATtFUPiRFW_3syn4itemNtB5_11ForeignItemINtNtCs9f3LFPSIp77_4core7convert4FromNtB5_13ForeignItemFnE4from, symObjAddr: 0x1AA10, symBinAddr: 0x3526C, symSize: 0x40 }
  - { offset: 0x7D31E, size: 0x8, addend: 0x0, symName: __RNvXss_NtCsATtFUPiRFW_3syn4itemNtB5_11ForeignItemINtNtCs9f3LFPSIp77_4core7convert4FromNtB5_17ForeignItemStaticE4from, symObjAddr: 0x1AA50, symBinAddr: 0x352AC, symSize: 0x4C }
  - { offset: 0x7D351, size: 0x8, addend: 0x0, symName: __RNvXst_NtCsATtFUPiRFW_3syn4itemNtB5_11ForeignItemINtNtCs9f3LFPSIp77_4core7convert4FromNtB5_15ForeignItemTypeE4from, symObjAddr: 0x1AA9C, symBinAddr: 0x352F8, symSize: 0x4C }
  - { offset: 0x7D384, size: 0x8, addend: 0x0, symName: __RNvXsu_NtCsATtFUPiRFW_3syn4itemNtB5_11ForeignItemINtNtCs9f3LFPSIp77_4core7convert4FromNtB5_16ForeignItemMacroE4from, symObjAddr: 0x1AAE8, symBinAddr: 0x35344, symSize: 0x4C }
  - { offset: 0x7D3B7, size: 0x8, addend: 0x0, symName: __RNvXsv_NtCsATtFUPiRFW_3syn4itemNtB5_11ForeignItemNtNtCs62MdaZFMefA_5quote9to_tokens8ToTokens9to_tokens, symObjAddr: 0x1AB34, symBinAddr: 0x35390, symSize: 0x168 }
  - { offset: 0x7D481, size: 0x8, addend: 0x0, symName: __RNcNtNtNtCsATtFUPiRFW_3syn4item9TraitItem2Fn0B7_, symObjAddr: 0x1AC9C, symBinAddr: 0x354F8, symSize: 0x3C }
  - { offset: 0x7D4B2, size: 0x8, addend: 0x0, symName: __RNcNtNtNtCsATtFUPiRFW_3syn4item9TraitItem5Macro0B7_, symObjAddr: 0x1ACD8, symBinAddr: 0x35534, symSize: 0x3C }
  - { offset: 0x7D4E4, size: 0x8, addend: 0x0, symName: __RNvXsw_NtCsATtFUPiRFW_3syn4itemNtB5_9TraitItemINtNtCs9f3LFPSIp77_4core7convert4FromNtB5_14TraitItemConstE4from, symObjAddr: 0x1AD14, symBinAddr: 0x35570, symSize: 0x40 }
  - { offset: 0x7D517, size: 0x8, addend: 0x0, symName: __RNvXsx_NtCsATtFUPiRFW_3syn4itemNtB5_9TraitItemINtNtCs9f3LFPSIp77_4core7convert4FromNtB5_11TraitItemFnE4from, symObjAddr: 0x1AD54, symBinAddr: 0x355B0, symSize: 0x4C }
  - { offset: 0x7D54A, size: 0x8, addend: 0x0, symName: __RNvXsy_NtCsATtFUPiRFW_3syn4itemNtB5_9TraitItemINtNtCs9f3LFPSIp77_4core7convert4FromNtB5_13TraitItemTypeE4from, symObjAddr: 0x1ADA0, symBinAddr: 0x355FC, symSize: 0x4C }
  - { offset: 0x7D57D, size: 0x8, addend: 0x0, symName: __RNvXsz_NtCsATtFUPiRFW_3syn4itemNtB5_9TraitItemINtNtCs9f3LFPSIp77_4core7convert4FromNtB5_14TraitItemMacroE4from, symObjAddr: 0x1ADEC, symBinAddr: 0x35648, symSize: 0x4C }
  - { offset: 0x7D5B0, size: 0x8, addend: 0x0, symName: __RNvXsA_NtCsATtFUPiRFW_3syn4itemNtB5_9TraitItemNtNtCs62MdaZFMefA_5quote9to_tokens8ToTokens9to_tokens, symObjAddr: 0x1AE38, symBinAddr: 0x35694, symSize: 0x168 }
  - { offset: 0x7D67A, size: 0x8, addend: 0x0, symName: __RNcNtNtNtCsATtFUPiRFW_3syn4item8ImplItem5Macro0B7_, symObjAddr: 0x1AFA0, symBinAddr: 0x357FC, symSize: 0x3C }
  - { offset: 0x7D6AC, size: 0x8, addend: 0x0, symName: __RNvXsB_NtCsATtFUPiRFW_3syn4itemNtB5_8ImplItemINtNtCs9f3LFPSIp77_4core7convert4FromNtB5_13ImplItemConstE4from, symObjAddr: 0x1AFDC, symBinAddr: 0x35838, symSize: 0x40 }
  - { offset: 0x7D6DF, size: 0x8, addend: 0x0, symName: __RNvXsC_NtCsATtFUPiRFW_3syn4itemNtB5_8ImplItemINtNtCs9f3LFPSIp77_4core7convert4FromNtB5_10ImplItemFnE4from, symObjAddr: 0x1B01C, symBinAddr: 0x35878, symSize: 0x4C }
  - { offset: 0x7D712, size: 0x8, addend: 0x0, symName: __RNvXsD_NtCsATtFUPiRFW_3syn4itemNtB5_8ImplItemINtNtCs9f3LFPSIp77_4core7convert4FromNtB5_12ImplItemTypeE4from, symObjAddr: 0x1B068, symBinAddr: 0x358C4, symSize: 0x4C }
  - { offset: 0x7D745, size: 0x8, addend: 0x0, symName: __RNvXsE_NtCsATtFUPiRFW_3syn4itemNtB5_8ImplItemINtNtCs9f3LFPSIp77_4core7convert4FromNtB5_13ImplItemMacroE4from, symObjAddr: 0x1B0B4, symBinAddr: 0x35910, symSize: 0x4C }
  - { offset: 0x7D778, size: 0x8, addend: 0x0, symName: __RNvXsF_NtCsATtFUPiRFW_3syn4itemNtB5_8ImplItemNtNtCs62MdaZFMefA_5quote9to_tokens8ToTokens9to_tokens, symObjAddr: 0x1B100, symBinAddr: 0x3595C, symSize: 0x168 }
  - { offset: 0x7D83D, size: 0x8, addend: 0x0, symName: __RNvXsG_NtCsATtFUPiRFW_3syn4itemNtB5_5FnArgINtNtCs9f3LFPSIp77_4core7convert4FromNtB5_8ReceiverE4from, symObjAddr: 0x1B268, symBinAddr: 0x35AC4, symSize: 0x40 }
  - { offset: 0x7D870, size: 0x8, addend: 0x0, symName: __RNvXsH_NtCsATtFUPiRFW_3syn4itemNtB5_5FnArgINtNtCs9f3LFPSIp77_4core7convert4FromNtNtB7_3pat7PatTypeE4from, symObjAddr: 0x1B2A8, symBinAddr: 0x35B04, symSize: 0x4C }
  - { offset: 0x7D8A3, size: 0x8, addend: 0x0, symName: __RNvXsI_NtCsATtFUPiRFW_3syn4itemNtB5_5FnArgNtNtCs62MdaZFMefA_5quote9to_tokens8ToTokens9to_tokens, symObjAddr: 0x1B2F4, symBinAddr: 0x35B50, symSize: 0xA0 }
  - { offset: 0x7D916, size: 0x8, addend: 0x0, symName: __RNcNtNtNtCsATtFUPiRFW_3syn4item16StaticMutability3Mut0B7_, symObjAddr: 0x1B394, symBinAddr: 0x35BF0, symSize: 0x20 }
  - { offset: 0x813C4, size: 0x8, addend: 0x0, symName: __RNvXs16_NtNtCsATtFUPiRFW_3syn3gen5cloneNtNtBa_4item5FnArgNtNtCs9f3LFPSIp77_4core5clone5Clone5clone, symObjAddr: 0x1B3B4, symBinAddr: 0x35C10, symSize: 0xDC }
  - { offset: 0x8142C, size: 0x8, addend: 0x0, symName: __RNvXs17_NtNtCsATtFUPiRFW_3syn3gen5cloneNtNtBa_4item11ForeignItemNtNtCs9f3LFPSIp77_4core5clone5Clone5clone, symObjAddr: 0x1B490, symBinAddr: 0x35CEC, symSize: 0x224 }
  - { offset: 0x814EE, size: 0x8, addend: 0x0, symName: __RNvXs18_NtNtCsATtFUPiRFW_3syn3gen5cloneNtNtBa_4item13ForeignItemFnNtNtCs9f3LFPSIp77_4core5clone5Clone5clone, symObjAddr: 0x1B6B4, symBinAddr: 0x35F10, symSize: 0x134 }
  - { offset: 0x81522, size: 0x8, addend: 0x0, symName: __RNvXs19_NtNtCsATtFUPiRFW_3syn3gen5cloneNtNtBa_4item16ForeignItemMacroNtNtCs9f3LFPSIp77_4core5clone5Clone5clone, symObjAddr: 0x1B7E8, symBinAddr: 0x36044, symSize: 0xEC }
  - { offset: 0x81556, size: 0x8, addend: 0x0, symName: __RNvXs1a_NtNtCsATtFUPiRFW_3syn3gen5cloneNtNtBa_4item17ForeignItemStaticNtNtCs9f3LFPSIp77_4core5clone5Clone5clone, symObjAddr: 0x1B8D4, symBinAddr: 0x36130, symSize: 0x1D4 }
  - { offset: 0x8158A, size: 0x8, addend: 0x0, symName: __RNvXs1b_NtNtCsATtFUPiRFW_3syn3gen5cloneNtNtBa_4item15ForeignItemTypeNtNtCs9f3LFPSIp77_4core5clone5Clone5clone, symObjAddr: 0x1BAA8, symBinAddr: 0x36304, symSize: 0x190 }
  - { offset: 0x815BE, size: 0x8, addend: 0x0, symName: __RNvXs1f_NtNtCsATtFUPiRFW_3syn3gen5cloneNtNtBa_4item8ImplItemNtNtCs9f3LFPSIp77_4core5clone5Clone5clone, symObjAddr: 0x1BC38, symBinAddr: 0x36494, symSize: 0x21C }
  - { offset: 0x81680, size: 0x8, addend: 0x0, symName: __RNvXs1g_NtNtCsATtFUPiRFW_3syn3gen5cloneNtNtBa_4item13ImplItemConstNtNtCs9f3LFPSIp77_4core5clone5Clone5clone, symObjAddr: 0x1BE54, symBinAddr: 0x366B0, symSize: 0x2A4 }
  - { offset: 0x816B4, size: 0x8, addend: 0x0, symName: __RNvXs1h_NtNtCsATtFUPiRFW_3syn3gen5cloneNtNtBa_4item10ImplItemFnNtNtCs9f3LFPSIp77_4core5clone5Clone5clone, symObjAddr: 0x1C0F8, symBinAddr: 0x36954, symSize: 0x158 }
  - { offset: 0x816E8, size: 0x8, addend: 0x0, symName: __RNvXs1i_NtNtCsATtFUPiRFW_3syn3gen5cloneNtNtBa_4item13ImplItemMacroNtNtCs9f3LFPSIp77_4core5clone5Clone5clone, symObjAddr: 0x1C250, symBinAddr: 0x36AAC, symSize: 0xEC }
  - { offset: 0x8171C, size: 0x8, addend: 0x0, symName: __RNvXs1j_NtNtCsATtFUPiRFW_3syn3gen5cloneNtNtBa_4item12ImplItemTypeNtNtCs9f3LFPSIp77_4core5clone5Clone5clone, symObjAddr: 0x1C33C, symBinAddr: 0x36B98, symSize: 0x230 }
  - { offset: 0x81750, size: 0x8, addend: 0x0, symName: __RNvXs1k_NtNtCsATtFUPiRFW_3syn3gen5cloneNtNtBa_4item15ImplRestrictionNtNtCs9f3LFPSIp77_4core5clone5Clone5clone, symObjAddr: 0x1C56C, symBinAddr: 0x36DC8, symSize: 0xC }
  - { offset: 0x81780, size: 0x8, addend: 0x0, symName: __RNvXs1m_NtNtCsATtFUPiRFW_3syn3gen5cloneNtNtBa_4item4ItemNtNtCs9f3LFPSIp77_4core5clone5Clone5clone, symObjAddr: 0x1C578, symBinAddr: 0x36DD4, symSize: 0x5C8 }
  - { offset: 0x81997, size: 0x8, addend: 0x0, symName: __RNvXs1n_NtNtCsATtFUPiRFW_3syn3gen5cloneNtNtBa_4item9ItemConstNtNtCs9f3LFPSIp77_4core5clone5Clone5clone, symObjAddr: 0x1CB40, symBinAddr: 0x3739C, symSize: 0x268 }
  - { offset: 0x819CB, size: 0x8, addend: 0x0, symName: __RNvXs1o_NtNtCsATtFUPiRFW_3syn3gen5cloneNtNtBa_4item8ItemEnumNtNtCs9f3LFPSIp77_4core5clone5Clone5clone, symObjAddr: 0x1CDA8, symBinAddr: 0x37604, symSize: 0x1B8 }
  - { offset: 0x819FF, size: 0x8, addend: 0x0, symName: __RNvXs1p_NtNtCsATtFUPiRFW_3syn3gen5cloneNtNtBa_4item15ItemExternCrateNtNtCs9f3LFPSIp77_4core5clone5Clone5clone, symObjAddr: 0x1CF60, symBinAddr: 0x377BC, symSize: 0x19C }
  - { offset: 0x81A33, size: 0x8, addend: 0x0, symName: __RNvXs1q_NtNtCsATtFUPiRFW_3syn3gen5cloneNtNtBa_4item6ItemFnNtNtCs9f3LFPSIp77_4core5clone5Clone5clone, symObjAddr: 0x1D0FC, symBinAddr: 0x37958, symSize: 0x124 }
  - { offset: 0x81A67, size: 0x8, addend: 0x0, symName: __RNvXs1r_NtNtCsATtFUPiRFW_3syn3gen5cloneNtNtBa_4item14ItemForeignModNtNtCs9f3LFPSIp77_4core5clone5Clone5clone, symObjAddr: 0x1D220, symBinAddr: 0x37A7C, symSize: 0x13C }
  - { offset: 0x81A9B, size: 0x8, addend: 0x0, symName: __RNvXs1s_NtNtCsATtFUPiRFW_3syn3gen5cloneNtNtBa_4item8ItemImplNtNtCs9f3LFPSIp77_4core5clone5Clone5clone, symObjAddr: 0x1D35C, symBinAddr: 0x37BB8, symSize: 0x210 }
  - { offset: 0x81ACF, size: 0x8, addend: 0x0, symName: __RNvXs1t_NtNtCsATtFUPiRFW_3syn3gen5cloneNtNtBa_4item9ItemMacroNtNtCs9f3LFPSIp77_4core5clone5Clone5clone, symObjAddr: 0x1D56C, symBinAddr: 0x37DC8, symSize: 0x12C }
  - { offset: 0x81B03, size: 0x8, addend: 0x0, symName: __RNvXs1u_NtNtCsATtFUPiRFW_3syn3gen5cloneNtNtBa_4item7ItemModNtNtCs9f3LFPSIp77_4core5clone5Clone5clone, symObjAddr: 0x1D698, symBinAddr: 0x37EF4, symSize: 0x1B0 }
  - { offset: 0x81B37, size: 0x8, addend: 0x0, symName: __RNvXs1v_NtNtCsATtFUPiRFW_3syn3gen5cloneNtNtBa_4item10ItemStaticNtNtCs9f3LFPSIp77_4core5clone5Clone5clone, symObjAddr: 0x1D848, symBinAddr: 0x380A4, symSize: 0x240 }
  - { offset: 0x81B6B, size: 0x8, addend: 0x0, symName: __RNvXs1w_NtNtCsATtFUPiRFW_3syn3gen5cloneNtNtBa_4item10ItemStructNtNtCs9f3LFPSIp77_4core5clone5Clone5clone, symObjAddr: 0x1DA88, symBinAddr: 0x382E4, symSize: 0x1D4 }
  - { offset: 0x81B9F, size: 0x8, addend: 0x0, symName: __RNvXs1x_NtNtCsATtFUPiRFW_3syn3gen5cloneNtNtBa_4item9ItemTraitNtNtCs9f3LFPSIp77_4core5clone5Clone5clone, symObjAddr: 0x1DC5C, symBinAddr: 0x384B8, symSize: 0x278 }
  - { offset: 0x81BD3, size: 0x8, addend: 0x0, symName: __RNvXs1y_NtNtCsATtFUPiRFW_3syn3gen5cloneNtNtBa_4item14ItemTraitAliasNtNtCs9f3LFPSIp77_4core5clone5Clone5clone, symObjAddr: 0x1DED4, symBinAddr: 0x38730, symSize: 0x1FC }
  - { offset: 0x81C07, size: 0x8, addend: 0x0, symName: __RNvXs1z_NtNtCsATtFUPiRFW_3syn3gen5cloneNtNtBa_4item8ItemTypeNtNtCs9f3LFPSIp77_4core5clone5Clone5clone, symObjAddr: 0x1E0D0, symBinAddr: 0x3892C, symSize: 0x1FC }
  - { offset: 0x81C3B, size: 0x8, addend: 0x0, symName: __RNvXs1A_NtNtCsATtFUPiRFW_3syn3gen5cloneNtNtBa_4item9ItemUnionNtNtCs9f3LFPSIp77_4core5clone5Clone5clone, symObjAddr: 0x1E2CC, symBinAddr: 0x38B28, symSize: 0x18C }
  - { offset: 0x81C6F, size: 0x8, addend: 0x0, symName: __RNvXs1B_NtNtCsATtFUPiRFW_3syn3gen5cloneNtNtBa_4item7ItemUseNtNtCs9f3LFPSIp77_4core5clone5Clone5clone, symObjAddr: 0x1E458, symBinAddr: 0x38CB4, symSize: 0x16C }
  - { offset: 0x81CA3, size: 0x8, addend: 0x0, symName: __RNvXs2b_NtNtCsATtFUPiRFW_3syn3gen5cloneNtNtBa_4item8ReceiverNtNtCs9f3LFPSIp77_4core5clone5Clone5clone, symObjAddr: 0x1E5C4, symBinAddr: 0x38E20, symSize: 0x14C }
  - { offset: 0x81CD7, size: 0x8, addend: 0x0, symName: __RNvXs2d_NtNtCsATtFUPiRFW_3syn3gen5cloneNtNtBa_4item9SignatureNtNtCs9f3LFPSIp77_4core5clone5Clone5clone, symObjAddr: 0x1E710, symBinAddr: 0x38F6C, symSize: 0x278 }
  - { offset: 0x81D0B, size: 0x8, addend: 0x0, symName: __RNvXs2e_NtNtCsATtFUPiRFW_3syn3gen5cloneNtNtBa_4item16StaticMutabilityNtNtCs9f3LFPSIp77_4core5clone5Clone5clone, symObjAddr: 0x1E988, symBinAddr: 0x391E4, symSize: 0x88 }
  - { offset: 0x81D5D, size: 0x8, addend: 0x0, symName: __RNvXs2k_NtNtCsATtFUPiRFW_3syn3gen5cloneNtNtBa_4item9TraitItemNtNtCs9f3LFPSIp77_4core5clone5Clone5clone, symObjAddr: 0x1EA10, symBinAddr: 0x3926C, symSize: 0x21C }
  - { offset: 0x81E1F, size: 0x8, addend: 0x0, symName: __RNvXs2l_NtNtCsATtFUPiRFW_3syn3gen5cloneNtNtBa_4item14TraitItemConstNtNtCs9f3LFPSIp77_4core5clone5Clone5clone, symObjAddr: 0x1EC2C, symBinAddr: 0x39488, symSize: 0x210 }
  - { offset: 0x81E53, size: 0x8, addend: 0x0, symName: __RNvXs2m_NtNtCsATtFUPiRFW_3syn3gen5cloneNtNtBa_4item11TraitItemFnNtNtCs9f3LFPSIp77_4core5clone5Clone5clone, symObjAddr: 0x1EE3C, symBinAddr: 0x39698, symSize: 0x138 }
  - { offset: 0x81E87, size: 0x8, addend: 0x0, symName: __RNvXs2n_NtNtCsATtFUPiRFW_3syn3gen5cloneNtNtBa_4item14TraitItemMacroNtNtCs9f3LFPSIp77_4core5clone5Clone5clone, symObjAddr: 0x1EF74, symBinAddr: 0x397D0, symSize: 0xEC }
  - { offset: 0x81EBB, size: 0x8, addend: 0x0, symName: __RNvXs2o_NtNtCsATtFUPiRFW_3syn3gen5cloneNtNtBa_4item13TraitItemTypeNtNtCs9f3LFPSIp77_4core5clone5Clone5clone, symObjAddr: 0x1F060, symBinAddr: 0x398BC, symSize: 0x204 }
  - { offset: 0x81EEF, size: 0x8, addend: 0x0, symName: __RNvXs2I_NtNtCsATtFUPiRFW_3syn3gen5cloneNtNtBa_4item7UseGlobNtNtCs9f3LFPSIp77_4core5clone5Clone5clone, symObjAddr: 0x1F264, symBinAddr: 0x39AC0, symSize: 0x4C }
  - { offset: 0x81F23, size: 0x8, addend: 0x0, symName: __RNvXs2J_NtNtCsATtFUPiRFW_3syn3gen5cloneNtNtBa_4item8UseGroupNtNtCs9f3LFPSIp77_4core5clone5Clone5clone, symObjAddr: 0x1F2B0, symBinAddr: 0x39B0C, symSize: 0x70 }
  - { offset: 0x81F57, size: 0x8, addend: 0x0, symName: __RNvXs2K_NtNtCsATtFUPiRFW_3syn3gen5cloneNtNtBa_4item7UseNameNtNtCs9f3LFPSIp77_4core5clone5Clone5clone, symObjAddr: 0x1F320, symBinAddr: 0x39B7C, symSize: 0x50 }
  - { offset: 0x81F8B, size: 0x8, addend: 0x0, symName: __RNvXs2L_NtNtCsATtFUPiRFW_3syn3gen5cloneNtNtBa_4item7UsePathNtNtCs9f3LFPSIp77_4core5clone5Clone5clone, symObjAddr: 0x1F370, symBinAddr: 0x39BCC, symSize: 0xC0 }
  - { offset: 0x81FBF, size: 0x8, addend: 0x0, symName: __RNvXs2M_NtNtCsATtFUPiRFW_3syn3gen5cloneNtNtBa_4item9UseRenameNtNtCs9f3LFPSIp77_4core5clone5Clone5clone, symObjAddr: 0x1F430, symBinAddr: 0x39C8C, symSize: 0xB8 }
  - { offset: 0x81FF3, size: 0x8, addend: 0x0, symName: __RNvXs2N_NtNtCsATtFUPiRFW_3syn3gen5cloneNtNtBa_4item7UseTreeNtNtCs9f3LFPSIp77_4core5clone5Clone5clone, symObjAddr: 0x1F4E8, symBinAddr: 0x39D44, symSize: 0x20C }
  - { offset: 0x820B6, size: 0x8, addend: 0x0, symName: __RNvXs2O_NtNtCsATtFUPiRFW_3syn3gen5cloneNtNtBa_4item8VariadicNtNtCs9f3LFPSIp77_4core5clone5Clone5clone, symObjAddr: 0x1F6F4, symBinAddr: 0x39F50, symSize: 0x100 }
  - { offset: 0x820F0, size: 0x8, addend: 0x0, symName: __RNvXs1N_NtNtCsATtFUPiRFW_3syn3gen5debugNtNtBa_4item5FnArgNtNtCs9f3LFPSIp77_4core3fmt5Debug3fmt, symObjAddr: 0x1F7F4, symBinAddr: 0x3A050, symSize: 0x184 }
  - { offset: 0x821C0, size: 0x8, addend: 0x0, symName: __RNvXs1O_NtNtCsATtFUPiRFW_3syn3gen5debugNtNtBa_4item11ForeignItemNtNtCs9f3LFPSIp77_4core3fmt5Debug3fmt, symObjAddr: 0x1F978, symBinAddr: 0x3A1D4, symSize: 0x268 }
  - { offset: 0x822CC, size: 0x8, addend: 0x0, symName: __RNvXs1P_NtNtCsATtFUPiRFW_3syn3gen5debugNtNtBa_4item13ForeignItemFnNtNtCs9f3LFPSIp77_4core3fmt5Debug3fmt, symObjAddr: 0x1FBE0, symBinAddr: 0x3A43C, symSize: 0x4C }
  - { offset: 0x8230F, size: 0x8, addend: 0x0, symName: __RNvXs1R_NtNtCsATtFUPiRFW_3syn3gen5debugNtNtBa_4item16ForeignItemMacroNtNtCs9f3LFPSIp77_4core3fmt5Debug3fmt, symObjAddr: 0x1FD30, symBinAddr: 0x3A58C, symSize: 0x4C }
  - { offset: 0x82352, size: 0x8, addend: 0x0, symName: __RNvXs1T_NtNtCsATtFUPiRFW_3syn3gen5debugNtNtBa_4item17ForeignItemStaticNtNtCs9f3LFPSIp77_4core3fmt5Debug3fmt, symObjAddr: 0x1FE58, symBinAddr: 0x3A6B4, symSize: 0x4C }
  - { offset: 0x82395, size: 0x8, addend: 0x0, symName: __RNvXs1V_NtNtCsATtFUPiRFW_3syn3gen5debugNtNtBa_4item15ForeignItemTypeNtNtCs9f3LFPSIp77_4core3fmt5Debug3fmt, symObjAddr: 0x20048, symBinAddr: 0x3A8A4, symSize: 0x4C }
  - { offset: 0x823D8, size: 0x8, addend: 0x0, symName: __RNvXs20_NtNtCsATtFUPiRFW_3syn3gen5debugNtNtBa_4item8ImplItemNtNtCs9f3LFPSIp77_4core3fmt5Debug3fmt, symObjAddr: 0x201E8, symBinAddr: 0x3AA44, symSize: 0x268 }
  - { offset: 0x824E4, size: 0x8, addend: 0x0, symName: __RNvXs21_NtNtCsATtFUPiRFW_3syn3gen5debugNtNtBa_4item13ImplItemConstNtNtCs9f3LFPSIp77_4core3fmt5Debug3fmt, symObjAddr: 0x20450, symBinAddr: 0x3ACAC, symSize: 0x4C }
  - { offset: 0x82527, size: 0x8, addend: 0x0, symName: __RNvXs23_NtNtCsATtFUPiRFW_3syn3gen5debugNtNtBa_4item10ImplItemFnNtNtCs9f3LFPSIp77_4core3fmt5Debug3fmt, symObjAddr: 0x206B4, symBinAddr: 0x3AF10, symSize: 0x4C }
  - { offset: 0x8256A, size: 0x8, addend: 0x0, symName: __RNvXs25_NtNtCsATtFUPiRFW_3syn3gen5debugNtNtBa_4item13ImplItemMacroNtNtCs9f3LFPSIp77_4core3fmt5Debug3fmt, symObjAddr: 0x2082C, symBinAddr: 0x3B088, symSize: 0x4C }
  - { offset: 0x825AD, size: 0x8, addend: 0x0, symName: __RNvXs27_NtNtCsATtFUPiRFW_3syn3gen5debugNtNtBa_4item12ImplItemTypeNtNtCs9f3LFPSIp77_4core3fmt5Debug3fmt, symObjAddr: 0x20954, symBinAddr: 0x3B1B0, symSize: 0x4C }
  - { offset: 0x825F0, size: 0x8, addend: 0x0, symName: __RNvXs29_NtNtCsATtFUPiRFW_3syn3gen5debugNtNtBa_4item15ImplRestrictionNtNtCs9f3LFPSIp77_4core3fmt5Debug3fmt, symObjAddr: 0x20B6C, symBinAddr: 0x3B3C8, symSize: 0x10 }
  - { offset: 0x82633, size: 0x8, addend: 0x0, symName: __RNvXs2b_NtNtCsATtFUPiRFW_3syn3gen5debugNtNtBa_4item4ItemNtNtCs9f3LFPSIp77_4core3fmt5Debug3fmt, symObjAddr: 0x20B7C, symBinAddr: 0x3B3D8, symSize: 0x560 }
  - { offset: 0x82897, size: 0x8, addend: 0x0, symName: __RNvXs2c_NtNtCsATtFUPiRFW_3syn3gen5debugNtNtBa_4item9ItemConstNtNtCs9f3LFPSIp77_4core3fmt5Debug3fmt, symObjAddr: 0x210DC, symBinAddr: 0x3B938, symSize: 0x4C }
  - { offset: 0x828DA, size: 0x8, addend: 0x0, symName: __RNvXs2e_NtNtCsATtFUPiRFW_3syn3gen5debugNtNtBa_4item8ItemEnumNtNtCs9f3LFPSIp77_4core3fmt5Debug3fmt, symObjAddr: 0x2131C, symBinAddr: 0x3BB78, symSize: 0x4C }
  - { offset: 0x8291D, size: 0x8, addend: 0x0, symName: __RNvXs2g_NtNtCsATtFUPiRFW_3syn3gen5debugNtNtBa_4item15ItemExternCrateNtNtCs9f3LFPSIp77_4core3fmt5Debug3fmt, symObjAddr: 0x214E4, symBinAddr: 0x3BD40, symSize: 0x4C }
  - { offset: 0x82960, size: 0x8, addend: 0x0, symName: __RNvXs2i_NtNtCsATtFUPiRFW_3syn3gen5debugNtNtBa_4item6ItemFnNtNtCs9f3LFPSIp77_4core3fmt5Debug3fmt, symObjAddr: 0x216AC, symBinAddr: 0x3BF08, symSize: 0x4C }
  - { offset: 0x829A3, size: 0x8, addend: 0x0, symName: __RNvXs2k_NtNtCsATtFUPiRFW_3syn3gen5debugNtNtBa_4item14ItemForeignModNtNtCs9f3LFPSIp77_4core3fmt5Debug3fmt, symObjAddr: 0x217FC, symBinAddr: 0x3C058, symSize: 0x4C }
  - { offset: 0x829E6, size: 0x8, addend: 0x0, symName: __RNvXs2m_NtNtCsATtFUPiRFW_3syn3gen5debugNtNtBa_4item8ItemImplNtNtCs9f3LFPSIp77_4core3fmt5Debug3fmt, symObjAddr: 0x21974, symBinAddr: 0x3C1D0, symSize: 0x4C }
  - { offset: 0x82A29, size: 0x8, addend: 0x0, symName: __RNvXs2o_NtNtCsATtFUPiRFW_3syn3gen5debugNtNtBa_4item9ItemMacroNtNtCs9f3LFPSIp77_4core3fmt5Debug3fmt, symObjAddr: 0x21B8C, symBinAddr: 0x3C3E8, symSize: 0x4C }
  - { offset: 0x82A6C, size: 0x8, addend: 0x0, symName: __RNvXs2q_NtNtCsATtFUPiRFW_3syn3gen5debugNtNtBa_4item7ItemModNtNtCs9f3LFPSIp77_4core3fmt5Debug3fmt, symObjAddr: 0x21CDC, symBinAddr: 0x3C538, symSize: 0x4C }
  - { offset: 0x82AAF, size: 0x8, addend: 0x0, symName: __RNvXs2s_NtNtCsATtFUPiRFW_3syn3gen5debugNtNtBa_4item10ItemStaticNtNtCs9f3LFPSIp77_4core3fmt5Debug3fmt, symObjAddr: 0x21EA4, symBinAddr: 0x3C700, symSize: 0x4C }
  - { offset: 0x82AF2, size: 0x8, addend: 0x0, symName: __RNvXs2u_NtNtCsATtFUPiRFW_3syn3gen5debugNtNtBa_4item10ItemStructNtNtCs9f3LFPSIp77_4core3fmt5Debug3fmt, symObjAddr: 0x220E4, symBinAddr: 0x3C940, symSize: 0x4C }
  - { offset: 0x82B35, size: 0x8, addend: 0x0, symName: __RNvXs2w_NtNtCsATtFUPiRFW_3syn3gen5debugNtNtBa_4item9ItemTraitNtNtCs9f3LFPSIp77_4core3fmt5Debug3fmt, symObjAddr: 0x222AC, symBinAddr: 0x3CB08, symSize: 0x4C }
  - { offset: 0x82B78, size: 0x8, addend: 0x0, symName: __RNvXs2y_NtNtCsATtFUPiRFW_3syn3gen5debugNtNtBa_4item14ItemTraitAliasNtNtCs9f3LFPSIp77_4core3fmt5Debug3fmt, symObjAddr: 0x2252C, symBinAddr: 0x3CD88, symSize: 0x4C }
  - { offset: 0x82BBB, size: 0x8, addend: 0x0, symName: __RNvXs2A_NtNtCsATtFUPiRFW_3syn3gen5debugNtNtBa_4item8ItemTypeNtNtCs9f3LFPSIp77_4core3fmt5Debug3fmt, symObjAddr: 0x2271C, symBinAddr: 0x3CF78, symSize: 0x4C }
  - { offset: 0x82BFE, size: 0x8, addend: 0x0, symName: __RNvXs2C_NtNtCsATtFUPiRFW_3syn3gen5debugNtNtBa_4item9ItemUnionNtNtCs9f3LFPSIp77_4core3fmt5Debug3fmt, symObjAddr: 0x2290C, symBinAddr: 0x3D168, symSize: 0x4C }
  - { offset: 0x82C41, size: 0x8, addend: 0x0, symName: __RNvXs2E_NtNtCsATtFUPiRFW_3syn3gen5debugNtNtBa_4item7ItemUseNtNtCs9f3LFPSIp77_4core3fmt5Debug3fmt, symObjAddr: 0x22AAC, symBinAddr: 0x3D308, symSize: 0x4C }
  - { offset: 0x82C84, size: 0x8, addend: 0x0, symName: __RNvXs3v_NtNtCsATtFUPiRFW_3syn3gen5debugNtNtBa_4item8ReceiverNtNtCs9f3LFPSIp77_4core3fmt5Debug3fmt, symObjAddr: 0x22C4C, symBinAddr: 0x3D4A8, symSize: 0x150 }
  - { offset: 0x82CE5, size: 0x8, addend: 0x0, symName: __RNvXs3x_NtNtCsATtFUPiRFW_3syn3gen5debugNtNtBa_4item9SignatureNtNtCs9f3LFPSIp77_4core3fmt5Debug3fmt, symObjAddr: 0x22D9C, symBinAddr: 0x3D5F8, symSize: 0x20C }
  - { offset: 0x82D46, size: 0x8, addend: 0x0, symName: __RNvXs3y_NtNtCsATtFUPiRFW_3syn3gen5debugNtNtBa_4item16StaticMutabilityNtNtCs9f3LFPSIp77_4core3fmt5Debug3fmt, symObjAddr: 0x22FA8, symBinAddr: 0x3D804, symSize: 0x148 }
  - { offset: 0x82DE2, size: 0x8, addend: 0x0, symName: __RNvXs3E_NtNtCsATtFUPiRFW_3syn3gen5debugNtNtBa_4item9TraitItemNtNtCs9f3LFPSIp77_4core3fmt5Debug3fmt, symObjAddr: 0x230F0, symBinAddr: 0x3D94C, symSize: 0x268 }
  - { offset: 0x82EEE, size: 0x8, addend: 0x0, symName: __RNvXs3F_NtNtCsATtFUPiRFW_3syn3gen5debugNtNtBa_4item14TraitItemConstNtNtCs9f3LFPSIp77_4core3fmt5Debug3fmt, symObjAddr: 0x23358, symBinAddr: 0x3DBB4, symSize: 0x4C }
  - { offset: 0x82F31, size: 0x8, addend: 0x0, symName: __RNvXs3H_NtNtCsATtFUPiRFW_3syn3gen5debugNtNtBa_4item11TraitItemFnNtNtCs9f3LFPSIp77_4core3fmt5Debug3fmt, symObjAddr: 0x23548, symBinAddr: 0x3DDA4, symSize: 0x4C }
  - { offset: 0x82F74, size: 0x8, addend: 0x0, symName: __RNvXs3J_NtNtCsATtFUPiRFW_3syn3gen5debugNtNtBa_4item14TraitItemMacroNtNtCs9f3LFPSIp77_4core3fmt5Debug3fmt, symObjAddr: 0x23698, symBinAddr: 0x3DEF4, symSize: 0x4C }
  - { offset: 0x82FB7, size: 0x8, addend: 0x0, symName: __RNvXs3L_NtNtCsATtFUPiRFW_3syn3gen5debugNtNtBa_4item13TraitItemTypeNtNtCs9f3LFPSIp77_4core3fmt5Debug3fmt, symObjAddr: 0x237C0, symBinAddr: 0x3E01C, symSize: 0x4C }
  - { offset: 0x82FFA, size: 0x8, addend: 0x0, symName: __RNvXs4j_NtNtCsATtFUPiRFW_3syn3gen5debugNtNtBa_4item7UseGlobNtNtCs9f3LFPSIp77_4core3fmt5Debug3fmt, symObjAddr: 0x239B0, symBinAddr: 0x3E20C, symSize: 0x88 }
  - { offset: 0x8305B, size: 0x8, addend: 0x0, symName: __RNvXs4k_NtNtCsATtFUPiRFW_3syn3gen5debugNtNtBa_4item8UseGroupNtNtCs9f3LFPSIp77_4core3fmt5Debug3fmt, symObjAddr: 0x23A38, symBinAddr: 0x3E294, symSize: 0xB0 }
  - { offset: 0x830BC, size: 0x8, addend: 0x0, symName: __RNvXs4l_NtNtCsATtFUPiRFW_3syn3gen5debugNtNtBa_4item7UseNameNtNtCs9f3LFPSIp77_4core3fmt5Debug3fmt, symObjAddr: 0x23AE8, symBinAddr: 0x3E344, symSize: 0x88 }
  - { offset: 0x8311D, size: 0x8, addend: 0x0, symName: __RNvXs4m_NtNtCsATtFUPiRFW_3syn3gen5debugNtNtBa_4item7UsePathNtNtCs9f3LFPSIp77_4core3fmt5Debug3fmt, symObjAddr: 0x23B70, symBinAddr: 0x3E3CC, symSize: 0xD8 }
  - { offset: 0x8317E, size: 0x8, addend: 0x0, symName: __RNvXs4n_NtNtCsATtFUPiRFW_3syn3gen5debugNtNtBa_4item9UseRenameNtNtCs9f3LFPSIp77_4core3fmt5Debug3fmt, symObjAddr: 0x23C48, symBinAddr: 0x3E4A4, symSize: 0xD8 }
  - { offset: 0x831DF, size: 0x8, addend: 0x0, symName: __RNvXs4o_NtNtCsATtFUPiRFW_3syn3gen5debugNtNtBa_4item7UseTreeNtNtCs9f3LFPSIp77_4core3fmt5Debug3fmt, symObjAddr: 0x23D20, symBinAddr: 0x3E57C, symSize: 0x310 }
  - { offset: 0x8336A, size: 0x8, addend: 0x0, symName: __RNvXs4p_NtNtCsATtFUPiRFW_3syn3gen5debugNtNtBa_4item8VariadicNtNtCs9f3LFPSIp77_4core3fmt5Debug3fmt, symObjAddr: 0x24030, symBinAddr: 0x3E88C, symSize: 0x100 }
  - { offset: 0x833D1, size: 0x8, addend: 0x0, symName: __RNvXs2b_NtNtCsATtFUPiRFW_3syn3gen2eqNtNtBa_4item5FnArgNtNtCs9f3LFPSIp77_4core3cmp9PartialEq2eq, symObjAddr: 0x24130, symBinAddr: 0x3E98C, symSize: 0x170 }
  - { offset: 0x83470, size: 0x8, addend: 0x0, symName: __RNvXs2d_NtNtCsATtFUPiRFW_3syn3gen2eqNtNtBa_4item11ForeignItemNtNtCs9f3LFPSIp77_4core3cmp9PartialEq2eq, symObjAddr: 0x242A0, symBinAddr: 0x3EAFC, symSize: 0x368 }
  - { offset: 0x8359B, size: 0x8, addend: 0x0, symName: __RNvXs2f_NtNtCsATtFUPiRFW_3syn3gen2eqNtNtBa_4item13ForeignItemFnNtNtCs9f3LFPSIp77_4core3cmp9PartialEq2eq, symObjAddr: 0x24608, symBinAddr: 0x3EE64, symSize: 0xCC }
  - { offset: 0x835DE, size: 0x8, addend: 0x0, symName: __RNvXs2h_NtNtCsATtFUPiRFW_3syn3gen2eqNtNtBa_4item16ForeignItemMacroNtNtCs9f3LFPSIp77_4core3cmp9PartialEq2eq, symObjAddr: 0x246D4, symBinAddr: 0x3EF30, symSize: 0xCC }
  - { offset: 0x83621, size: 0x8, addend: 0x0, symName: __RNvXs2j_NtNtCsATtFUPiRFW_3syn3gen2eqNtNtBa_4item17ForeignItemStaticNtNtCs9f3LFPSIp77_4core3cmp9PartialEq2eq, symObjAddr: 0x247A0, symBinAddr: 0x3EFFC, symSize: 0x134 }
  - { offset: 0x83664, size: 0x8, addend: 0x0, symName: __RNvXs2l_NtNtCsATtFUPiRFW_3syn3gen2eqNtNtBa_4item15ForeignItemTypeNtNtCs9f3LFPSIp77_4core3cmp9PartialEq2eq, symObjAddr: 0x248D4, symBinAddr: 0x3F130, symSize: 0x100 }
  - { offset: 0x836A7, size: 0x8, addend: 0x0, symName: __RNvXs2t_NtNtCsATtFUPiRFW_3syn3gen2eqNtNtBa_4item8ImplItemNtNtCs9f3LFPSIp77_4core3cmp9PartialEq2eq, symObjAddr: 0x249D4, symBinAddr: 0x3F230, symSize: 0x368 }
  - { offset: 0x837D2, size: 0x8, addend: 0x0, symName: __RNvXs2v_NtNtCsATtFUPiRFW_3syn3gen2eqNtNtBa_4item13ImplItemConstNtNtCs9f3LFPSIp77_4core3cmp9PartialEq2eq, symObjAddr: 0x24D3C, symBinAddr: 0x3F598, symSize: 0x19C }
  - { offset: 0x83815, size: 0x8, addend: 0x0, symName: __RNvXs2x_NtNtCsATtFUPiRFW_3syn3gen2eqNtNtBa_4item10ImplItemFnNtNtCs9f3LFPSIp77_4core3cmp9PartialEq2eq, symObjAddr: 0x24ED8, symBinAddr: 0x3F734, symSize: 0x134 }
  - { offset: 0x83858, size: 0x8, addend: 0x0, symName: __RNvXs2z_NtNtCsATtFUPiRFW_3syn3gen2eqNtNtBa_4item13ImplItemMacroNtNtCs9f3LFPSIp77_4core3cmp9PartialEq2eq, symObjAddr: 0x2500C, symBinAddr: 0x3F868, symSize: 0xCC }
  - { offset: 0x8389B, size: 0x8, addend: 0x0, symName: __RNvXs2B_NtNtCsATtFUPiRFW_3syn3gen2eqNtNtBa_4item12ImplItemTypeNtNtCs9f3LFPSIp77_4core3cmp9PartialEq2eq, symObjAddr: 0x250D8, symBinAddr: 0x3F934, symSize: 0x168 }
  - { offset: 0x838DE, size: 0x8, addend: 0x0, symName: __RNvXs2D_NtNtCsATtFUPiRFW_3syn3gen2eqNtNtBa_4item15ImplRestrictionNtNtCs9f3LFPSIp77_4core3cmp9PartialEq2eq, symObjAddr: 0x25240, symBinAddr: 0x3FA9C, symSize: 0x10 }
  - { offset: 0x83921, size: 0x8, addend: 0x0, symName: __RNvXs2F_NtNtCsATtFUPiRFW_3syn3gen2eqNtNtBa_4item4ItemNtNtCs9f3LFPSIp77_4core3cmp9PartialEq2eq, symObjAddr: 0x25250, symBinAddr: 0x3FAAC, symSize: 0x9B0 }
  - { offset: 0x83C60, size: 0x8, addend: 0x0, symName: __RNvXs2H_NtNtCsATtFUPiRFW_3syn3gen2eqNtNtBa_4item9ItemConstNtNtCs9f3LFPSIp77_4core3cmp9PartialEq2eq, symObjAddr: 0x25C00, symBinAddr: 0x4045C, symSize: 0x168 }
  - { offset: 0x83CA3, size: 0x8, addend: 0x0, symName: __RNvXs2J_NtNtCsATtFUPiRFW_3syn3gen2eqNtNtBa_4item8ItemEnumNtNtCs9f3LFPSIp77_4core3cmp9PartialEq2eq, symObjAddr: 0x25D68, symBinAddr: 0x405C4, symSize: 0x134 }
  - { offset: 0x83CE6, size: 0x8, addend: 0x0, symName: __RNvXs2L_NtNtCsATtFUPiRFW_3syn3gen2eqNtNtBa_4item15ItemExternCrateNtNtCs9f3LFPSIp77_4core3cmp9PartialEq2eq, symObjAddr: 0x25E9C, symBinAddr: 0x406F8, symSize: 0x100 }
  - { offset: 0x83D29, size: 0x8, addend: 0x0, symName: __RNvXs2N_NtNtCsATtFUPiRFW_3syn3gen2eqNtNtBa_4item6ItemFnNtNtCs9f3LFPSIp77_4core3cmp9PartialEq2eq, symObjAddr: 0x25F9C, symBinAddr: 0x407F8, symSize: 0x100 }
  - { offset: 0x83D6C, size: 0x8, addend: 0x0, symName: __RNvXs2P_NtNtCsATtFUPiRFW_3syn3gen2eqNtNtBa_4item14ItemForeignModNtNtCs9f3LFPSIp77_4core3cmp9PartialEq2eq, symObjAddr: 0x2609C, symBinAddr: 0x408F8, symSize: 0x100 }
  - { offset: 0x83DAF, size: 0x8, addend: 0x0, symName: __RNvXs2R_NtNtCsATtFUPiRFW_3syn3gen2eqNtNtBa_4item8ItemImplNtNtCs9f3LFPSIp77_4core3cmp9PartialEq2eq, symObjAddr: 0x2619C, symBinAddr: 0x409F8, symSize: 0x19C }
  - { offset: 0x83DF2, size: 0x8, addend: 0x0, symName: __RNvXs2T_NtNtCsATtFUPiRFW_3syn3gen2eqNtNtBa_4item9ItemMacroNtNtCs9f3LFPSIp77_4core3cmp9PartialEq2eq, symObjAddr: 0x26338, symBinAddr: 0x40B94, symSize: 0x100 }
  - { offset: 0x83E35, size: 0x8, addend: 0x0, symName: __RNvXs2V_NtNtCsATtFUPiRFW_3syn3gen2eqNtNtBa_4item7ItemModNtNtCs9f3LFPSIp77_4core3cmp9PartialEq2eq, symObjAddr: 0x26438, symBinAddr: 0x40C94, symSize: 0x168 }
  - { offset: 0x83E78, size: 0x8, addend: 0x0, symName: __RNvXs2X_NtNtCsATtFUPiRFW_3syn3gen2eqNtNtBa_4item10ItemStaticNtNtCs9f3LFPSIp77_4core3cmp9PartialEq2eq, symObjAddr: 0x265A0, symBinAddr: 0x40DFC, symSize: 0x168 }
  - { offset: 0x83EBB, size: 0x8, addend: 0x0, symName: __RNvXs2Z_NtNtCsATtFUPiRFW_3syn3gen2eqNtNtBa_4item10ItemStructNtNtCs9f3LFPSIp77_4core3cmp9PartialEq2eq, symObjAddr: 0x26708, symBinAddr: 0x40F64, symSize: 0x168 }
  - { offset: 0x83EFE, size: 0x8, addend: 0x0, symName: __RNvXs31_NtNtCsATtFUPiRFW_3syn3gen2eqNtNtBa_4item9ItemTraitNtNtCs9f3LFPSIp77_4core3cmp9PartialEq2eq, symObjAddr: 0x26870, symBinAddr: 0x410CC, symSize: 0x238 }
  - { offset: 0x83F41, size: 0x8, addend: 0x0, symName: __RNvXs33_NtNtCsATtFUPiRFW_3syn3gen2eqNtNtBa_4item14ItemTraitAliasNtNtCs9f3LFPSIp77_4core3cmp9PartialEq2eq, symObjAddr: 0x26AA8, symBinAddr: 0x41304, symSize: 0x134 }
  - { offset: 0x83F84, size: 0x8, addend: 0x0, symName: __RNvXs35_NtNtCsATtFUPiRFW_3syn3gen2eqNtNtBa_4item8ItemTypeNtNtCs9f3LFPSIp77_4core3cmp9PartialEq2eq, symObjAddr: 0x26BDC, symBinAddr: 0x41438, symSize: 0x134 }
  - { offset: 0x83FC7, size: 0x8, addend: 0x0, symName: __RNvXs37_NtNtCsATtFUPiRFW_3syn3gen2eqNtNtBa_4item9ItemUnionNtNtCs9f3LFPSIp77_4core3cmp9PartialEq2eq, symObjAddr: 0x26D10, symBinAddr: 0x4156C, symSize: 0x134 }
  - { offset: 0x8400A, size: 0x8, addend: 0x0, symName: __RNvXs39_NtNtCsATtFUPiRFW_3syn3gen2eqNtNtBa_4item7ItemUseNtNtCs9f3LFPSIp77_4core3cmp9PartialEq2eq, symObjAddr: 0x26E44, symBinAddr: 0x416A0, symSize: 0x100 }
  - { offset: 0x8404D, size: 0x8, addend: 0x0, symName: __RNvXs4m_NtNtCsATtFUPiRFW_3syn3gen2eqNtNtBa_4item8ReceiverNtNtCs9f3LFPSIp77_4core3cmp9PartialEq2eq, symObjAddr: 0x26F44, symBinAddr: 0x417A0, symSize: 0x134 }
  - { offset: 0x84090, size: 0x8, addend: 0x0, symName: __RNvXs4q_NtNtCsATtFUPiRFW_3syn3gen2eqNtNtBa_4item9SignatureNtNtCs9f3LFPSIp77_4core3cmp9PartialEq2eq, symObjAddr: 0x27078, symBinAddr: 0x418D4, symSize: 0x204 }
  - { offset: 0x840D3, size: 0x8, addend: 0x0, symName: __RNvXs4s_NtNtCsATtFUPiRFW_3syn3gen2eqNtNtBa_4item16StaticMutabilityNtNtCs9f3LFPSIp77_4core3cmp9PartialEq2eq, symObjAddr: 0x2727C, symBinAddr: 0x41AD8, symSize: 0xFC }
  - { offset: 0x84116, size: 0x8, addend: 0x0, symName: __RNvXs4C_NtNtCsATtFUPiRFW_3syn3gen2eqNtNtBa_4item9TraitItemNtNtCs9f3LFPSIp77_4core3cmp9PartialEq2eq, symObjAddr: 0x27378, symBinAddr: 0x41BD4, symSize: 0x368 }
  - { offset: 0x84241, size: 0x8, addend: 0x0, symName: __RNvXs4E_NtNtCsATtFUPiRFW_3syn3gen2eqNtNtBa_4item14TraitItemConstNtNtCs9f3LFPSIp77_4core3cmp9PartialEq2eq, symObjAddr: 0x276E0, symBinAddr: 0x41F3C, symSize: 0x134 }
  - { offset: 0x84284, size: 0x8, addend: 0x0, symName: __RNvXs4G_NtNtCsATtFUPiRFW_3syn3gen2eqNtNtBa_4item11TraitItemFnNtNtCs9f3LFPSIp77_4core3cmp9PartialEq2eq, symObjAddr: 0x27814, symBinAddr: 0x42070, symSize: 0x100 }
  - { offset: 0x842C7, size: 0x8, addend: 0x0, symName: __RNvXs4I_NtNtCsATtFUPiRFW_3syn3gen2eqNtNtBa_4item14TraitItemMacroNtNtCs9f3LFPSIp77_4core3cmp9PartialEq2eq, symObjAddr: 0x27914, symBinAddr: 0x42170, symSize: 0xCC }
  - { offset: 0x8430A, size: 0x8, addend: 0x0, symName: __RNvXs4K_NtNtCsATtFUPiRFW_3syn3gen2eqNtNtBa_4item13TraitItemTypeNtNtCs9f3LFPSIp77_4core3cmp9PartialEq2eq, symObjAddr: 0x279E0, symBinAddr: 0x4223C, symSize: 0x168 }
  - { offset: 0x8434D, size: 0x8, addend: 0x0, symName: __RNvXs5m_NtNtCsATtFUPiRFW_3syn3gen2eqNtNtBa_4item7UseGlobNtNtCs9f3LFPSIp77_4core3cmp9PartialEq2eq, symObjAddr: 0x27B48, symBinAddr: 0x423A4, symSize: 0x2C }
  - { offset: 0x84390, size: 0x8, addend: 0x0, symName: __RNvXs5o_NtNtCsATtFUPiRFW_3syn3gen2eqNtNtBa_4item8UseGroupNtNtCs9f3LFPSIp77_4core3cmp9PartialEq2eq, symObjAddr: 0x27B74, symBinAddr: 0x423D0, symSize: 0x3C }
  - { offset: 0x843D3, size: 0x8, addend: 0x0, symName: __RNvXs5q_NtNtCsATtFUPiRFW_3syn3gen2eqNtNtBa_4item7UseNameNtNtCs9f3LFPSIp77_4core3cmp9PartialEq2eq, symObjAddr: 0x27BB0, symBinAddr: 0x4240C, symSize: 0x3C }
  - { offset: 0x84416, size: 0x8, addend: 0x0, symName: __RNvXs5s_NtNtCsATtFUPiRFW_3syn3gen2eqNtNtBa_4item7UsePathNtNtCs9f3LFPSIp77_4core3cmp9PartialEq2eq, symObjAddr: 0x27BEC, symBinAddr: 0x42448, symSize: 0x8C }
  - { offset: 0x84459, size: 0x8, addend: 0x0, symName: __RNvXs5u_NtNtCsATtFUPiRFW_3syn3gen2eqNtNtBa_4item9UseRenameNtNtCs9f3LFPSIp77_4core3cmp9PartialEq2eq, symObjAddr: 0x27C78, symBinAddr: 0x424D4, symSize: 0x84 }
  - { offset: 0x8449C, size: 0x8, addend: 0x0, symName: __RNvXs5w_NtNtCsATtFUPiRFW_3syn3gen2eqNtNtBa_4item7UseTreeNtNtCs9f3LFPSIp77_4core3cmp9PartialEq2eq, symObjAddr: 0x27CFC, symBinAddr: 0x42558, symSize: 0x300 }
  - { offset: 0x845C6, size: 0x8, addend: 0x0, symName: __RNvXs5y_NtNtCsATtFUPiRFW_3syn3gen2eqNtNtBa_4item8VariadicNtNtCs9f3LFPSIp77_4core3cmp9PartialEq2eq, symObjAddr: 0x27FFC, symBinAddr: 0x42858, symSize: 0xCC }
  - { offset: 0x85AF7, size: 0x8, addend: 0x0, symName: __RINvXNtNtCsdze8u8oDPro_5alloc5slice4hackNtNtCsATtFUPiRFW_3syn4item11ForeignItemNtB3_10ConvertVec6to_vecNtNtB7_5alloc6GlobalEBG_, symObjAddr: 0x0, symBinAddr: 0x1A85C, symSize: 0x2C0 }
  - { offset: 0x85E47, size: 0x8, addend: 0x0, symName: __RINvXNtNtCsdze8u8oDPro_5alloc5slice4hackNtNtCsATtFUPiRFW_3syn4item4ItemNtB3_10ConvertVec6to_vecNtNtB7_5alloc6GlobalEBG_, symObjAddr: 0x2C0, symBinAddr: 0x1AB1C, symSize: 0x2C0 }
  - { offset: 0x86197, size: 0x8, addend: 0x0, symName: __RINvXNtNtCsdze8u8oDPro_5alloc5slice4hackNtNtCsATtFUPiRFW_3syn4item8ImplItemNtB3_10ConvertVec6to_vecNtNtB7_5alloc6GlobalEBG_, symObjAddr: 0x580, symBinAddr: 0x1ADDC, symSize: 0x2C0 }
  - { offset: 0x864E7, size: 0x8, addend: 0x0, symName: __RINvXNtNtCsdze8u8oDPro_5alloc5slice4hackNtNtCsATtFUPiRFW_3syn4item9TraitItemNtB3_10ConvertVec6to_vecNtNtB7_5alloc6GlobalEBG_, symObjAddr: 0x840, symBinAddr: 0x1B09C, symSize: 0x2C0 }
  - { offset: 0x86837, size: 0x8, addend: 0x0, symName: __RINvXNtNtCsdze8u8oDPro_5alloc5slice4hackTNtNtCsATtFUPiRFW_3syn4item5FnArgNtNtBH_5token5CommaENtB3_10ConvertVec6to_vecNtNtB7_5alloc6GlobalEBH_, symObjAddr: 0xB00, symBinAddr: 0x1B35C, symSize: 0x2BC }
  - { offset: 0x86B87, size: 0x8, addend: 0x0, symName: __RINvXNtNtCsdze8u8oDPro_5alloc5slice4hackTNtNtCsATtFUPiRFW_3syn4item7UseTreeNtNtBH_5token5CommaENtB3_10ConvertVec6to_vecNtNtB7_5alloc6GlobalEBH_, symObjAddr: 0xDBC, symBinAddr: 0x1B618, symSize: 0x2BC }
  - { offset: 0x8A70B, size: 0x8, addend: 0x0, symName: __RNvXsP_NtCs9f3LFPSIp77_4core3fmtRNtNtCsATtFUPiRFW_3syn4item11ForeignItemNtB5_5Debug3fmtBz_, symObjAddr: 0x2370, symBinAddr: 0x1CBCC, symSize: 0x30 }
  - { offset: 0x8A751, size: 0x8, addend: 0x0, symName: __RNvXsP_NtCs9f3LFPSIp77_4core3fmtRNtNtCsATtFUPiRFW_3syn4item15ImplRestrictionNtB5_5Debug3fmtBz_, symObjAddr: 0x23A0, symBinAddr: 0x1CBFC, symSize: 0x30 }
  - { offset: 0x8A797, size: 0x8, addend: 0x0, symName: __RNvXsP_NtCs9f3LFPSIp77_4core3fmtRNtNtCsATtFUPiRFW_3syn4item4ItemNtB5_5Debug3fmtBz_, symObjAddr: 0x23D0, symBinAddr: 0x1CC2C, symSize: 0x30 }
  - { offset: 0x8A7DD, size: 0x8, addend: 0x0, symName: __RNvXsP_NtCs9f3LFPSIp77_4core3fmtRNtNtCsATtFUPiRFW_3syn4item8ImplItemNtB5_5Debug3fmtBz_, symObjAddr: 0x2400, symBinAddr: 0x1CC5C, symSize: 0x30 }
  - { offset: 0x8A823, size: 0x8, addend: 0x0, symName: __RNvXsP_NtCs9f3LFPSIp77_4core3fmtRNtNtCsATtFUPiRFW_3syn4item8VariadicNtB5_5Debug3fmtBz_, symObjAddr: 0x2430, symBinAddr: 0x1CC8C, symSize: 0x30 }
  - { offset: 0x8A869, size: 0x8, addend: 0x0, symName: __RNvXsP_NtCs9f3LFPSIp77_4core3fmtRNtNtCsATtFUPiRFW_3syn4item9TraitItemNtB5_5Debug3fmtBz_, symObjAddr: 0x2460, symBinAddr: 0x1CCBC, symSize: 0x30 }
  - { offset: 0x8A8B5, size: 0x8, addend: 0x0, symName: __RNvXso_NtCs9f3LFPSIp77_4core3fmtSNtNtCsATtFUPiRFW_3syn4item11ForeignItemNtB5_5Debug3fmtBz_, symObjAddr: 0x2490, symBinAddr: 0x1CCEC, symSize: 0x90 }
  - { offset: 0x8A9F5, size: 0x8, addend: 0x0, symName: __RNvXso_NtCs9f3LFPSIp77_4core3fmtSNtNtCsATtFUPiRFW_3syn4item4ItemNtB5_5Debug3fmtBz_, symObjAddr: 0x2520, symBinAddr: 0x1CD7C, symSize: 0x90 }
  - { offset: 0x8AB35, size: 0x8, addend: 0x0, symName: __RNvXso_NtCs9f3LFPSIp77_4core3fmtSNtNtCsATtFUPiRFW_3syn4item8ImplItemNtB5_5Debug3fmtBz_, symObjAddr: 0x25B0, symBinAddr: 0x1CE0C, symSize: 0x90 }
  - { offset: 0x8AC75, size: 0x8, addend: 0x0, symName: __RNvXso_NtCs9f3LFPSIp77_4core3fmtSNtNtCsATtFUPiRFW_3syn4item9TraitItemNtB5_5Debug3fmtBz_, symObjAddr: 0x2640, symBinAddr: 0x1CE9C, symSize: 0x90 }
  - { offset: 0x8B16E, size: 0x8, addend: 0x0, symName: __RNvMNtCs9f3LFPSIp77_4core5sliceSTNtNtCsATtFUPiRFW_3syn4item5FnArgNtNtBz_5token5CommaE4iterBz_, symObjAddr: 0x1078, symBinAddr: 0x1B8D4, symSize: 0x28 }
  - { offset: 0x8B1A5, size: 0x8, addend: 0x0, symName: __RNvMNtCs9f3LFPSIp77_4core5sliceSTNtNtCsATtFUPiRFW_3syn4item7UseTreeNtNtBz_5token5CommaE4iterBz_, symObjAddr: 0x10A0, symBinAddr: 0x1B8FC, symSize: 0x28 }
  - { offset: 0x8B283, size: 0x8, addend: 0x0, symName: __RNvXs2_NtNtCs9f3LFPSIp77_4core5slice3cmpSNtNtCsATtFUPiRFW_3syn4item11ForeignItemINtB5_14SlicePartialEqBD_E5equalBH_, symObjAddr: 0x12D8, symBinAddr: 0x1BB34, symSize: 0x17C }
  - { offset: 0x8B363, size: 0x8, addend: 0x0, symName: __RNvXs2_NtNtCs9f3LFPSIp77_4core5slice3cmpSNtNtCsATtFUPiRFW_3syn4item4ItemINtB5_14SlicePartialEqBD_E5equalBH_, symObjAddr: 0x1454, symBinAddr: 0x1BCB0, symSize: 0x17C }
  - { offset: 0x8B443, size: 0x8, addend: 0x0, symName: __RNvXs2_NtNtCs9f3LFPSIp77_4core5slice3cmpSNtNtCsATtFUPiRFW_3syn4item8ImplItemINtB5_14SlicePartialEqBD_E5equalBH_, symObjAddr: 0x15D0, symBinAddr: 0x1BE2C, symSize: 0x17C }
  - { offset: 0x8B523, size: 0x8, addend: 0x0, symName: __RNvXs2_NtNtCs9f3LFPSIp77_4core5slice3cmpSNtNtCsATtFUPiRFW_3syn4item9TraitItemINtB5_14SlicePartialEqBD_E5equalBH_, symObjAddr: 0x174C, symBinAddr: 0x1BFA8, symSize: 0x17C }
  - { offset: 0x8B603, size: 0x8, addend: 0x0, symName: __RNvXs2_NtNtCs9f3LFPSIp77_4core5slice3cmpSTNtNtCsATtFUPiRFW_3syn4item5FnArgNtNtBI_5token5CommaEINtB5_14SlicePartialEqBD_E5equalBI_, symObjAddr: 0x18C8, symBinAddr: 0x1C124, symSize: 0x17C }
  - { offset: 0x8B6E3, size: 0x8, addend: 0x0, symName: __RNvXs2_NtNtCs9f3LFPSIp77_4core5slice3cmpSTNtNtCsATtFUPiRFW_3syn4item7UseTreeNtNtBI_5token5CommaEINtB5_14SlicePartialEqBD_E5equalBI_, symObjAddr: 0x1A44, symBinAddr: 0x1C2A0, symSize: 0x17C }
  - { offset: 0x8C4BB, size: 0x8, addend: 0x0, symName: __RNvXNtNtCs9f3LFPSIp77_4core5clone6uninitNtNtCsATtFUPiRFW_3syn4item5FnArgNtB2_8CopySpec9clone_oneBG_, symObjAddr: 0x1248, symBinAddr: 0x1BAA4, symSize: 0x48 }
  - { offset: 0x8C51F, size: 0x8, addend: 0x0, symName: __RNvXNtNtCs9f3LFPSIp77_4core5clone6uninitNtNtCsATtFUPiRFW_3syn4item7UseTreeNtB2_8CopySpec9clone_oneBG_, symObjAddr: 0x1290, symBinAddr: 0x1BAEC, symSize: 0x48 }
  - { offset: 0x8C58A, size: 0x8, addend: 0x0, symName: __RNvYNtNtCsATtFUPiRFW_3syn4item10ImplItemFnNtNtCs9f3LFPSIp77_4core5clone5Clone10clone_fromB6_, symObjAddr: 0x2800, symBinAddr: 0x1D05C, symSize: 0x8C }
  - { offset: 0x8C5C9, size: 0x8, addend: 0x0, symName: __RNvYNtNtCsATtFUPiRFW_3syn4item10ItemStaticNtNtCs9f3LFPSIp77_4core5clone5Clone10clone_fromB6_, symObjAddr: 0x29BC, symBinAddr: 0x1D218, symSize: 0x84 }
  - { offset: 0x8C608, size: 0x8, addend: 0x0, symName: __RNvYNtNtCsATtFUPiRFW_3syn4item10ItemStructNtNtCs9f3LFPSIp77_4core5clone5Clone10clone_fromB6_, symObjAddr: 0x2B70, symBinAddr: 0x1D3CC, symSize: 0x8C }
  - { offset: 0x8C647, size: 0x8, addend: 0x0, symName: __RNvYNtNtCsATtFUPiRFW_3syn4item11ForeignItemNtNtCs9f3LFPSIp77_4core5clone5Clone10clone_fromB6_, symObjAddr: 0x2D2C, symBinAddr: 0x1D588, symSize: 0x8C }
  - { offset: 0x8C686, size: 0x8, addend: 0x0, symName: __RNvYNtNtCsATtFUPiRFW_3syn4item11TraitItemFnNtNtCs9f3LFPSIp77_4core5clone5Clone10clone_fromB6_, symObjAddr: 0x2EE8, symBinAddr: 0x1D744, symSize: 0x8C }
  - { offset: 0x8C6C5, size: 0x8, addend: 0x0, symName: __RNvYNtNtCsATtFUPiRFW_3syn4item12ImplItemTypeNtNtCs9f3LFPSIp77_4core5clone5Clone10clone_fromB6_, symObjAddr: 0x30A4, symBinAddr: 0x1D900, symSize: 0x8C }
  - { offset: 0x8C704, size: 0x8, addend: 0x0, symName: __RNvYNtNtCsATtFUPiRFW_3syn4item13ForeignItemFnNtNtCs9f3LFPSIp77_4core5clone5Clone10clone_fromB6_, symObjAddr: 0x3260, symBinAddr: 0x1DABC, symSize: 0x8C }
  - { offset: 0x8C743, size: 0x8, addend: 0x0, symName: __RNvYNtNtCsATtFUPiRFW_3syn4item13ImplItemConstNtNtCs9f3LFPSIp77_4core5clone5Clone10clone_fromB6_, symObjAddr: 0x341C, symBinAddr: 0x1DC78, symSize: 0x8C }
  - { offset: 0x8C782, size: 0x8, addend: 0x0, symName: __RNvYNtNtCsATtFUPiRFW_3syn4item13ImplItemMacroNtNtCs9f3LFPSIp77_4core5clone5Clone10clone_fromB6_, symObjAddr: 0x35D8, symBinAddr: 0x1DE34, symSize: 0x84 }
  - { offset: 0x8C7C1, size: 0x8, addend: 0x0, symName: __RNvYNtNtCsATtFUPiRFW_3syn4item13TraitItemTypeNtNtCs9f3LFPSIp77_4core5clone5Clone10clone_fromB6_, symObjAddr: 0x378C, symBinAddr: 0x1DFE8, symSize: 0x8C }
  - { offset: 0x8C800, size: 0x8, addend: 0x0, symName: __RNvYNtNtCsATtFUPiRFW_3syn4item14ItemForeignModNtNtCs9f3LFPSIp77_4core5clone5Clone10clone_fromB6_, symObjAddr: 0x3948, symBinAddr: 0x1E1A4, symSize: 0x84 }
  - { offset: 0x8C83F, size: 0x8, addend: 0x0, symName: __RNvYNtNtCsATtFUPiRFW_3syn4item14ItemTraitAliasNtNtCs9f3LFPSIp77_4core5clone5Clone10clone_fromB6_, symObjAddr: 0x3AFC, symBinAddr: 0x1E358, symSize: 0x8C }
  - { offset: 0x8C87E, size: 0x8, addend: 0x0, symName: __RNvYNtNtCsATtFUPiRFW_3syn4item14TraitItemConstNtNtCs9f3LFPSIp77_4core5clone5Clone10clone_fromB6_, symObjAddr: 0x3CB8, symBinAddr: 0x1E514, symSize: 0x8C }
  - { offset: 0x8C8BD, size: 0x8, addend: 0x0, symName: __RNvYNtNtCsATtFUPiRFW_3syn4item14TraitItemMacroNtNtCs9f3LFPSIp77_4core5clone5Clone10clone_fromB6_, symObjAddr: 0x3E74, symBinAddr: 0x1E6D0, symSize: 0x84 }
  - { offset: 0x8C8FC, size: 0x8, addend: 0x0, symName: __RNvYNtNtCsATtFUPiRFW_3syn4item15ForeignItemTypeNtNtCs9f3LFPSIp77_4core5clone5Clone10clone_fromB6_, symObjAddr: 0x4028, symBinAddr: 0x1E884, symSize: 0x84 }
  - { offset: 0x8C93B, size: 0x8, addend: 0x0, symName: __RNvYNtNtCsATtFUPiRFW_3syn4item15ImplRestrictionNtNtCs9f3LFPSIp77_4core5clone5Clone10clone_fromB6_, symObjAddr: 0x40EC, symBinAddr: 0x1E948, symSize: 0x34 }
  - { offset: 0x8C97A, size: 0x8, addend: 0x0, symName: __RNvYNtNtCsATtFUPiRFW_3syn4item15ItemExternCrateNtNtCs9f3LFPSIp77_4core5clone5Clone10clone_fromB6_, symObjAddr: 0x4250, symBinAddr: 0x1EAAC, symSize: 0x84 }
  - { offset: 0x8C9B9, size: 0x8, addend: 0x0, symName: __RNvYNtNtCsATtFUPiRFW_3syn4item16ForeignItemMacroNtNtCs9f3LFPSIp77_4core5clone5Clone10clone_fromB6_, symObjAddr: 0x4404, symBinAddr: 0x1EC60, symSize: 0x84 }
  - { offset: 0x8C9F8, size: 0x8, addend: 0x0, symName: __RNvYNtNtCsATtFUPiRFW_3syn4item16StaticMutabilityNtNtCs9f3LFPSIp77_4core5clone5Clone10clone_fromB6_, symObjAddr: 0x45AC, symBinAddr: 0x1EE08, symSize: 0x54 }
  - { offset: 0x8CA37, size: 0x8, addend: 0x0, symName: __RNvYNtNtCsATtFUPiRFW_3syn4item17ForeignItemStaticNtNtCs9f3LFPSIp77_4core5clone5Clone10clone_fromB6_, symObjAddr: 0x4730, symBinAddr: 0x1EF8C, symSize: 0x84 }
  - { offset: 0x8CA76, size: 0x8, addend: 0x0, symName: __RNvYNtNtCsATtFUPiRFW_3syn4item4ItemNtNtCs9f3LFPSIp77_4core5clone5Clone10clone_fromB6_, symObjAddr: 0x48E4, symBinAddr: 0x1F140, symSize: 0x8C }
  - { offset: 0x8CAB5, size: 0x8, addend: 0x0, symName: __RNvYNtNtCsATtFUPiRFW_3syn4item5FnArgNtNtCs9f3LFPSIp77_4core5clone5Clone10clone_fromB6_, symObjAddr: 0x4AA0, symBinAddr: 0x1F2FC, symSize: 0x84 }
  - { offset: 0x8CAF4, size: 0x8, addend: 0x0, symName: __RNvYNtNtCsATtFUPiRFW_3syn4item6ItemFnNtNtCs9f3LFPSIp77_4core5clone5Clone10clone_fromB6_, symObjAddr: 0x4C54, symBinAddr: 0x1F4B0, symSize: 0x8C }
  - { offset: 0x8CB33, size: 0x8, addend: 0x0, symName: __RNvYNtNtCsATtFUPiRFW_3syn4item7ItemModNtNtCs9f3LFPSIp77_4core5clone5Clone10clone_fromB6_, symObjAddr: 0x4E10, symBinAddr: 0x1F66C, symSize: 0x84 }
  - { offset: 0x8CB72, size: 0x8, addend: 0x0, symName: __RNvYNtNtCsATtFUPiRFW_3syn4item7ItemUseNtNtCs9f3LFPSIp77_4core5clone5Clone10clone_fromB6_, symObjAddr: 0x4FC4, symBinAddr: 0x1F820, symSize: 0x84 }
  - { offset: 0x8CBB1, size: 0x8, addend: 0x0, symName: __RNvYNtNtCsATtFUPiRFW_3syn4item7UseGlobNtNtCs9f3LFPSIp77_4core5clone5Clone10clone_fromB6_, symObjAddr: 0x516C, symBinAddr: 0x1F9C8, symSize: 0x50 }
  - { offset: 0x8CBF0, size: 0x8, addend: 0x0, symName: __RNvYNtNtCsATtFUPiRFW_3syn4item7UseNameNtNtCs9f3LFPSIp77_4core5clone5Clone10clone_fromB6_, symObjAddr: 0x52EC, symBinAddr: 0x1FB48, symSize: 0x84 }
  - { offset: 0x8CC2F, size: 0x8, addend: 0x0, symName: __RNvYNtNtCsATtFUPiRFW_3syn4item7UsePathNtNtCs9f3LFPSIp77_4core5clone5Clone10clone_fromB6_, symObjAddr: 0x54A0, symBinAddr: 0x1FCFC, symSize: 0x84 }
  - { offset: 0x8CC6E, size: 0x8, addend: 0x0, symName: __RNvYNtNtCsATtFUPiRFW_3syn4item7UseTreeNtNtCs9f3LFPSIp77_4core5clone5Clone10clone_fromB6_, symObjAddr: 0x5654, symBinAddr: 0x1FEB0, symSize: 0x84 }
  - { offset: 0x8CCAD, size: 0x8, addend: 0x0, symName: __RNvYNtNtCsATtFUPiRFW_3syn4item8ImplItemNtNtCs9f3LFPSIp77_4core5clone5Clone10clone_fromB6_, symObjAddr: 0x5808, symBinAddr: 0x20064, symSize: 0x8C }
  - { offset: 0x8CCEC, size: 0x8, addend: 0x0, symName: __RNvYNtNtCsATtFUPiRFW_3syn4item8ItemEnumNtNtCs9f3LFPSIp77_4core5clone5Clone10clone_fromB6_, symObjAddr: 0x59C4, symBinAddr: 0x20220, symSize: 0x8C }
  - { offset: 0x8CD2B, size: 0x8, addend: 0x0, symName: __RNvYNtNtCsATtFUPiRFW_3syn4item8ItemImplNtNtCs9f3LFPSIp77_4core5clone5Clone10clone_fromB6_, symObjAddr: 0x5B80, symBinAddr: 0x203DC, symSize: 0x8C }
  - { offset: 0x8CD6A, size: 0x8, addend: 0x0, symName: __RNvYNtNtCsATtFUPiRFW_3syn4item8ItemTypeNtNtCs9f3LFPSIp77_4core5clone5Clone10clone_fromB6_, symObjAddr: 0x5D3C, symBinAddr: 0x20598, symSize: 0x8C }
  - { offset: 0x8CDA9, size: 0x8, addend: 0x0, symName: __RNvYNtNtCsATtFUPiRFW_3syn4item8ReceiverNtNtCs9f3LFPSIp77_4core5clone5Clone10clone_fromB6_, symObjAddr: 0x5EF8, symBinAddr: 0x20754, symSize: 0x84 }
  - { offset: 0x8CDE8, size: 0x8, addend: 0x0, symName: __RNvYNtNtCsATtFUPiRFW_3syn4item8UseGroupNtNtCs9f3LFPSIp77_4core5clone5Clone10clone_fromB6_, symObjAddr: 0x60AC, symBinAddr: 0x20908, symSize: 0x84 }
  - { offset: 0x8CE27, size: 0x8, addend: 0x0, symName: __RNvYNtNtCsATtFUPiRFW_3syn4item8VariadicNtNtCs9f3LFPSIp77_4core5clone5Clone10clone_fromB6_, symObjAddr: 0x6260, symBinAddr: 0x20ABC, symSize: 0x84 }
  - { offset: 0x8CE66, size: 0x8, addend: 0x0, symName: __RNvYNtNtCsATtFUPiRFW_3syn4item9ItemConstNtNtCs9f3LFPSIp77_4core5clone5Clone10clone_fromB6_, symObjAddr: 0x6414, symBinAddr: 0x20C70, symSize: 0x8C }
  - { offset: 0x8CEA5, size: 0x8, addend: 0x0, symName: __RNvYNtNtCsATtFUPiRFW_3syn4item9ItemMacroNtNtCs9f3LFPSIp77_4core5clone5Clone10clone_fromB6_, symObjAddr: 0x65D0, symBinAddr: 0x20E2C, symSize: 0x84 }
  - { offset: 0x8CEE4, size: 0x8, addend: 0x0, symName: __RNvYNtNtCsATtFUPiRFW_3syn4item9ItemTraitNtNtCs9f3LFPSIp77_4core5clone5Clone10clone_fromB6_, symObjAddr: 0x6784, symBinAddr: 0x20FE0, symSize: 0x8C }
  - { offset: 0x8CF23, size: 0x8, addend: 0x0, symName: __RNvYNtNtCsATtFUPiRFW_3syn4item9ItemUnionNtNtCs9f3LFPSIp77_4core5clone5Clone10clone_fromB6_, symObjAddr: 0x6940, symBinAddr: 0x2119C, symSize: 0x8C }
  - { offset: 0x8CF62, size: 0x8, addend: 0x0, symName: __RNvYNtNtCsATtFUPiRFW_3syn4item9SignatureNtNtCs9f3LFPSIp77_4core5clone5Clone10clone_fromB6_, symObjAddr: 0x6AFC, symBinAddr: 0x21358, symSize: 0x8C }
  - { offset: 0x8CFA1, size: 0x8, addend: 0x0, symName: __RNvYNtNtCsATtFUPiRFW_3syn4item9TraitItemNtNtCs9f3LFPSIp77_4core5clone5Clone10clone_fromB6_, symObjAddr: 0x6CB8, symBinAddr: 0x21514, symSize: 0x8C }
  - { offset: 0x8CFE0, size: 0x8, addend: 0x0, symName: __RNvYNtNtCsATtFUPiRFW_3syn4item9UseRenameNtNtCs9f3LFPSIp77_4core5clone5Clone10clone_fromB6_, symObjAddr: 0x6E74, symBinAddr: 0x216D0, symSize: 0x84 }
  - { offset: 0x8D168, size: 0x8, addend: 0x0, symName: __RNvXs7_NtNtCs9f3LFPSIp77_4core3cmp5implsRNtNtCsATtFUPiRFW_3syn4item10ImplItemFnNtB7_9PartialEq2eqBH_, symObjAddr: 0x1BC0, symBinAddr: 0x1C41C, symSize: 0x34 }
  - { offset: 0x8D1B7, size: 0x8, addend: 0x0, symName: __RNvXs7_NtNtCs9f3LFPSIp77_4core3cmp5implsRNtNtCsATtFUPiRFW_3syn4item10ItemStaticNtB7_9PartialEq2eqBH_, symObjAddr: 0x1BF4, symBinAddr: 0x1C450, symSize: 0x34 }
  - { offset: 0x8D206, size: 0x8, addend: 0x0, symName: __RNvXs7_NtNtCs9f3LFPSIp77_4core3cmp5implsRNtNtCsATtFUPiRFW_3syn4item10ItemStructNtB7_9PartialEq2eqBH_, symObjAddr: 0x1C28, symBinAddr: 0x1C484, symSize: 0x34 }
  - { offset: 0x8D255, size: 0x8, addend: 0x0, symName: __RNvXs7_NtNtCs9f3LFPSIp77_4core3cmp5implsRNtNtCsATtFUPiRFW_3syn4item11TraitItemFnNtB7_9PartialEq2eqBH_, symObjAddr: 0x1C5C, symBinAddr: 0x1C4B8, symSize: 0x34 }
  - { offset: 0x8D2A4, size: 0x8, addend: 0x0, symName: __RNvXs7_NtNtCs9f3LFPSIp77_4core3cmp5implsRNtNtCsATtFUPiRFW_3syn4item12ImplItemTypeNtB7_9PartialEq2eqBH_, symObjAddr: 0x1C90, symBinAddr: 0x1C4EC, symSize: 0x34 }
  - { offset: 0x8D2F3, size: 0x8, addend: 0x0, symName: __RNvXs7_NtNtCs9f3LFPSIp77_4core3cmp5implsRNtNtCsATtFUPiRFW_3syn4item13ForeignItemFnNtB7_9PartialEq2eqBH_, symObjAddr: 0x1CC4, symBinAddr: 0x1C520, symSize: 0x34 }
  - { offset: 0x8D342, size: 0x8, addend: 0x0, symName: __RNvXs7_NtNtCs9f3LFPSIp77_4core3cmp5implsRNtNtCsATtFUPiRFW_3syn4item13ImplItemConstNtB7_9PartialEq2eqBH_, symObjAddr: 0x1CF8, symBinAddr: 0x1C554, symSize: 0x34 }
  - { offset: 0x8D391, size: 0x8, addend: 0x0, symName: __RNvXs7_NtNtCs9f3LFPSIp77_4core3cmp5implsRNtNtCsATtFUPiRFW_3syn4item13ImplItemMacroNtB7_9PartialEq2eqBH_, symObjAddr: 0x1D2C, symBinAddr: 0x1C588, symSize: 0x34 }
  - { offset: 0x8D3E0, size: 0x8, addend: 0x0, symName: __RNvXs7_NtNtCs9f3LFPSIp77_4core3cmp5implsRNtNtCsATtFUPiRFW_3syn4item13TraitItemTypeNtB7_9PartialEq2eqBH_, symObjAddr: 0x1D60, symBinAddr: 0x1C5BC, symSize: 0x34 }
  - { offset: 0x8D42F, size: 0x8, addend: 0x0, symName: __RNvXs7_NtNtCs9f3LFPSIp77_4core3cmp5implsRNtNtCsATtFUPiRFW_3syn4item14ItemForeignModNtB7_9PartialEq2eqBH_, symObjAddr: 0x1D94, symBinAddr: 0x1C5F0, symSize: 0x34 }
  - { offset: 0x8D47E, size: 0x8, addend: 0x0, symName: __RNvXs7_NtNtCs9f3LFPSIp77_4core3cmp5implsRNtNtCsATtFUPiRFW_3syn4item14ItemTraitAliasNtB7_9PartialEq2eqBH_, symObjAddr: 0x1DC8, symBinAddr: 0x1C624, symSize: 0x34 }
  - { offset: 0x8D4CD, size: 0x8, addend: 0x0, symName: __RNvXs7_NtNtCs9f3LFPSIp77_4core3cmp5implsRNtNtCsATtFUPiRFW_3syn4item14TraitItemConstNtB7_9PartialEq2eqBH_, symObjAddr: 0x1DFC, symBinAddr: 0x1C658, symSize: 0x34 }
  - { offset: 0x8D51C, size: 0x8, addend: 0x0, symName: __RNvXs7_NtNtCs9f3LFPSIp77_4core3cmp5implsRNtNtCsATtFUPiRFW_3syn4item14TraitItemMacroNtB7_9PartialEq2eqBH_, symObjAddr: 0x1E30, symBinAddr: 0x1C68C, symSize: 0x34 }
  - { offset: 0x8D56B, size: 0x8, addend: 0x0, symName: __RNvXs7_NtNtCs9f3LFPSIp77_4core3cmp5implsRNtNtCsATtFUPiRFW_3syn4item15ForeignItemTypeNtB7_9PartialEq2eqBH_, symObjAddr: 0x1E64, symBinAddr: 0x1C6C0, symSize: 0x34 }
  - { offset: 0x8D5BA, size: 0x8, addend: 0x0, symName: __RNvXs7_NtNtCs9f3LFPSIp77_4core3cmp5implsRNtNtCsATtFUPiRFW_3syn4item15ItemExternCrateNtB7_9PartialEq2eqBH_, symObjAddr: 0x1E98, symBinAddr: 0x1C6F4, symSize: 0x34 }
  - { offset: 0x8D609, size: 0x8, addend: 0x0, symName: __RNvXs7_NtNtCs9f3LFPSIp77_4core3cmp5implsRNtNtCsATtFUPiRFW_3syn4item16ForeignItemMacroNtB7_9PartialEq2eqBH_, symObjAddr: 0x1ECC, symBinAddr: 0x1C728, symSize: 0x34 }
  - { offset: 0x8D658, size: 0x8, addend: 0x0, symName: __RNvXs7_NtNtCs9f3LFPSIp77_4core3cmp5implsRNtNtCsATtFUPiRFW_3syn4item17ForeignItemStaticNtB7_9PartialEq2eqBH_, symObjAddr: 0x1F00, symBinAddr: 0x1C75C, symSize: 0x34 }
  - { offset: 0x8D6A7, size: 0x8, addend: 0x0, symName: __RNvXs7_NtNtCs9f3LFPSIp77_4core3cmp5implsRNtNtCsATtFUPiRFW_3syn4item4ItemNtB7_9PartialEq2eqBH_, symObjAddr: 0x1F34, symBinAddr: 0x1C790, symSize: 0x34 }
  - { offset: 0x8D6F6, size: 0x8, addend: 0x0, symName: __RNvXs7_NtNtCs9f3LFPSIp77_4core3cmp5implsRNtNtCsATtFUPiRFW_3syn4item6ItemFnNtB7_9PartialEq2eqBH_, symObjAddr: 0x1F68, symBinAddr: 0x1C7C4, symSize: 0x34 }
  - { offset: 0x8D745, size: 0x8, addend: 0x0, symName: __RNvXs7_NtNtCs9f3LFPSIp77_4core3cmp5implsRNtNtCsATtFUPiRFW_3syn4item7ItemModNtB7_9PartialEq2eqBH_, symObjAddr: 0x1F9C, symBinAddr: 0x1C7F8, symSize: 0x34 }
  - { offset: 0x8D794, size: 0x8, addend: 0x0, symName: __RNvXs7_NtNtCs9f3LFPSIp77_4core3cmp5implsRNtNtCsATtFUPiRFW_3syn4item7ItemUseNtB7_9PartialEq2eqBH_, symObjAddr: 0x1FD0, symBinAddr: 0x1C82C, symSize: 0x34 }
  - { offset: 0x8D7E3, size: 0x8, addend: 0x0, symName: __RNvXs7_NtNtCs9f3LFPSIp77_4core3cmp5implsRNtNtCsATtFUPiRFW_3syn4item7UseGlobNtB7_9PartialEq2eqBH_, symObjAddr: 0x2004, symBinAddr: 0x1C860, symSize: 0x34 }
  - { offset: 0x8D832, size: 0x8, addend: 0x0, symName: __RNvXs7_NtNtCs9f3LFPSIp77_4core3cmp5implsRNtNtCsATtFUPiRFW_3syn4item7UseNameNtB7_9PartialEq2eqBH_, symObjAddr: 0x2038, symBinAddr: 0x1C894, symSize: 0x34 }
  - { offset: 0x8D881, size: 0x8, addend: 0x0, symName: __RNvXs7_NtNtCs9f3LFPSIp77_4core3cmp5implsRNtNtCsATtFUPiRFW_3syn4item7UsePathNtB7_9PartialEq2eqBH_, symObjAddr: 0x206C, symBinAddr: 0x1C8C8, symSize: 0x34 }
  - { offset: 0x8D8D0, size: 0x8, addend: 0x0, symName: __RNvXs7_NtNtCs9f3LFPSIp77_4core3cmp5implsRNtNtCsATtFUPiRFW_3syn4item8ItemEnumNtB7_9PartialEq2eqBH_, symObjAddr: 0x20A0, symBinAddr: 0x1C8FC, symSize: 0x34 }
  - { offset: 0x8D91F, size: 0x8, addend: 0x0, symName: __RNvXs7_NtNtCs9f3LFPSIp77_4core3cmp5implsRNtNtCsATtFUPiRFW_3syn4item8ItemImplNtB7_9PartialEq2eqBH_, symObjAddr: 0x20D4, symBinAddr: 0x1C930, symSize: 0x34 }
  - { offset: 0x8D96E, size: 0x8, addend: 0x0, symName: __RNvXs7_NtNtCs9f3LFPSIp77_4core3cmp5implsRNtNtCsATtFUPiRFW_3syn4item8ItemTypeNtB7_9PartialEq2eqBH_, symObjAddr: 0x2108, symBinAddr: 0x1C964, symSize: 0x34 }
  - { offset: 0x8D9BD, size: 0x8, addend: 0x0, symName: __RNvXs7_NtNtCs9f3LFPSIp77_4core3cmp5implsRNtNtCsATtFUPiRFW_3syn4item8ReceiverNtB7_9PartialEq2eqBH_, symObjAddr: 0x213C, symBinAddr: 0x1C998, symSize: 0x34 }
  - { offset: 0x8DA0C, size: 0x8, addend: 0x0, symName: __RNvXs7_NtNtCs9f3LFPSIp77_4core3cmp5implsRNtNtCsATtFUPiRFW_3syn4item8UseGroupNtB7_9PartialEq2eqBH_, symObjAddr: 0x2170, symBinAddr: 0x1C9CC, symSize: 0x34 }
  - { offset: 0x8DA5B, size: 0x8, addend: 0x0, symName: __RNvXs7_NtNtCs9f3LFPSIp77_4core3cmp5implsRNtNtCsATtFUPiRFW_3syn4item9ItemConstNtB7_9PartialEq2eqBH_, symObjAddr: 0x21A4, symBinAddr: 0x1CA00, symSize: 0x34 }
  - { offset: 0x8DAAA, size: 0x8, addend: 0x0, symName: __RNvXs7_NtNtCs9f3LFPSIp77_4core3cmp5implsRNtNtCsATtFUPiRFW_3syn4item9ItemMacroNtB7_9PartialEq2eqBH_, symObjAddr: 0x21D8, symBinAddr: 0x1CA34, symSize: 0x34 }
  - { offset: 0x8DAF9, size: 0x8, addend: 0x0, symName: __RNvXs7_NtNtCs9f3LFPSIp77_4core3cmp5implsRNtNtCsATtFUPiRFW_3syn4item9ItemTraitNtB7_9PartialEq2eqBH_, symObjAddr: 0x220C, symBinAddr: 0x1CA68, symSize: 0x34 }
  - { offset: 0x8DB48, size: 0x8, addend: 0x0, symName: __RNvXs7_NtNtCs9f3LFPSIp77_4core3cmp5implsRNtNtCsATtFUPiRFW_3syn4item9ItemUnionNtB7_9PartialEq2eqBH_, symObjAddr: 0x2240, symBinAddr: 0x1CA9C, symSize: 0x34 }
  - { offset: 0x8DB97, size: 0x8, addend: 0x0, symName: __RNvXs7_NtNtCs9f3LFPSIp77_4core3cmp5implsRNtNtCsATtFUPiRFW_3syn4item9UseRenameNtB7_9PartialEq2eqBH_, symObjAddr: 0x2274, symBinAddr: 0x1CAD0, symSize: 0x34 }
  - { offset: 0x8DBED, size: 0x8, addend: 0x0, symName: __RNvYNtNtCsATtFUPiRFW_3syn4item10ImplItemFnNtNtCs9f3LFPSIp77_4core3cmp2Eq27assert_receiver_is_total_eqB6_, symObjAddr: 0x27C0, symBinAddr: 0x1D01C, symSize: 0x10 }
  - { offset: 0x8DC20, size: 0x8, addend: 0x0, symName: __RNvYNtNtCsATtFUPiRFW_3syn4item10ItemStaticNtNtCs9f3LFPSIp77_4core3cmp2Eq27assert_receiver_is_total_eqB6_, symObjAddr: 0x297C, symBinAddr: 0x1D1D8, symSize: 0x10 }
  - { offset: 0x8DC53, size: 0x8, addend: 0x0, symName: __RNvYNtNtCsATtFUPiRFW_3syn4item10ItemStructNtNtCs9f3LFPSIp77_4core3cmp2Eq27assert_receiver_is_total_eqB6_, symObjAddr: 0x2B30, symBinAddr: 0x1D38C, symSize: 0x10 }
  - { offset: 0x8DC86, size: 0x8, addend: 0x0, symName: __RNvYNtNtCsATtFUPiRFW_3syn4item11ForeignItemNtNtCs9f3LFPSIp77_4core3cmp2Eq27assert_receiver_is_total_eqB6_, symObjAddr: 0x2CEC, symBinAddr: 0x1D548, symSize: 0x10 }
  - { offset: 0x8DCB9, size: 0x8, addend: 0x0, symName: __RNvYNtNtCsATtFUPiRFW_3syn4item11TraitItemFnNtNtCs9f3LFPSIp77_4core3cmp2Eq27assert_receiver_is_total_eqB6_, symObjAddr: 0x2EA8, symBinAddr: 0x1D704, symSize: 0x10 }
  - { offset: 0x8DCEC, size: 0x8, addend: 0x0, symName: __RNvYNtNtCsATtFUPiRFW_3syn4item12ImplItemTypeNtNtCs9f3LFPSIp77_4core3cmp2Eq27assert_receiver_is_total_eqB6_, symObjAddr: 0x3064, symBinAddr: 0x1D8C0, symSize: 0x10 }
  - { offset: 0x8DD1F, size: 0x8, addend: 0x0, symName: __RNvYNtNtCsATtFUPiRFW_3syn4item13ForeignItemFnNtNtCs9f3LFPSIp77_4core3cmp2Eq27assert_receiver_is_total_eqB6_, symObjAddr: 0x3220, symBinAddr: 0x1DA7C, symSize: 0x10 }
  - { offset: 0x8DD52, size: 0x8, addend: 0x0, symName: __RNvYNtNtCsATtFUPiRFW_3syn4item13ImplItemConstNtNtCs9f3LFPSIp77_4core3cmp2Eq27assert_receiver_is_total_eqB6_, symObjAddr: 0x33DC, symBinAddr: 0x1DC38, symSize: 0x10 }
  - { offset: 0x8DD85, size: 0x8, addend: 0x0, symName: __RNvYNtNtCsATtFUPiRFW_3syn4item13ImplItemMacroNtNtCs9f3LFPSIp77_4core3cmp2Eq27assert_receiver_is_total_eqB6_, symObjAddr: 0x3598, symBinAddr: 0x1DDF4, symSize: 0x10 }
  - { offset: 0x8DDB8, size: 0x8, addend: 0x0, symName: __RNvYNtNtCsATtFUPiRFW_3syn4item13TraitItemTypeNtNtCs9f3LFPSIp77_4core3cmp2Eq27assert_receiver_is_total_eqB6_, symObjAddr: 0x374C, symBinAddr: 0x1DFA8, symSize: 0x10 }
  - { offset: 0x8DDEB, size: 0x8, addend: 0x0, symName: __RNvYNtNtCsATtFUPiRFW_3syn4item14ItemForeignModNtNtCs9f3LFPSIp77_4core3cmp2Eq27assert_receiver_is_total_eqB6_, symObjAddr: 0x3908, symBinAddr: 0x1E164, symSize: 0x10 }
  - { offset: 0x8DE1E, size: 0x8, addend: 0x0, symName: __RNvYNtNtCsATtFUPiRFW_3syn4item14ItemTraitAliasNtNtCs9f3LFPSIp77_4core3cmp2Eq27assert_receiver_is_total_eqB6_, symObjAddr: 0x3ABC, symBinAddr: 0x1E318, symSize: 0x10 }
  - { offset: 0x8DE51, size: 0x8, addend: 0x0, symName: __RNvYNtNtCsATtFUPiRFW_3syn4item14TraitItemConstNtNtCs9f3LFPSIp77_4core3cmp2Eq27assert_receiver_is_total_eqB6_, symObjAddr: 0x3C78, symBinAddr: 0x1E4D4, symSize: 0x10 }
  - { offset: 0x8DE84, size: 0x8, addend: 0x0, symName: __RNvYNtNtCsATtFUPiRFW_3syn4item14TraitItemMacroNtNtCs9f3LFPSIp77_4core3cmp2Eq27assert_receiver_is_total_eqB6_, symObjAddr: 0x3E34, symBinAddr: 0x1E690, symSize: 0x10 }
  - { offset: 0x8DEB7, size: 0x8, addend: 0x0, symName: __RNvYNtNtCsATtFUPiRFW_3syn4item15ForeignItemTypeNtNtCs9f3LFPSIp77_4core3cmp2Eq27assert_receiver_is_total_eqB6_, symObjAddr: 0x3FE8, symBinAddr: 0x1E844, symSize: 0x10 }
  - { offset: 0x8DEEA, size: 0x8, addend: 0x0, symName: __RNvYNtNtCsATtFUPiRFW_3syn4item15ImplRestrictionNtNtCs9f3LFPSIp77_4core3cmp2Eq27assert_receiver_is_total_eqB6_, symObjAddr: 0x40AC, symBinAddr: 0x1E908, symSize: 0x10 }
  - { offset: 0x8DF1D, size: 0x8, addend: 0x0, symName: __RNvYNtNtCsATtFUPiRFW_3syn4item15ItemExternCrateNtNtCs9f3LFPSIp77_4core3cmp2Eq27assert_receiver_is_total_eqB6_, symObjAddr: 0x4210, symBinAddr: 0x1EA6C, symSize: 0x10 }
  - { offset: 0x8DF50, size: 0x8, addend: 0x0, symName: __RNvYNtNtCsATtFUPiRFW_3syn4item16ForeignItemMacroNtNtCs9f3LFPSIp77_4core3cmp2Eq27assert_receiver_is_total_eqB6_, symObjAddr: 0x43C4, symBinAddr: 0x1EC20, symSize: 0x10 }
  - { offset: 0x8DF83, size: 0x8, addend: 0x0, symName: __RNvYNtNtCsATtFUPiRFW_3syn4item16StaticMutabilityNtNtCs9f3LFPSIp77_4core3cmp2Eq27assert_receiver_is_total_eqB6_, symObjAddr: 0x456C, symBinAddr: 0x1EDC8, symSize: 0x10 }
  - { offset: 0x8DFB6, size: 0x8, addend: 0x0, symName: __RNvYNtNtCsATtFUPiRFW_3syn4item17ForeignItemStaticNtNtCs9f3LFPSIp77_4core3cmp2Eq27assert_receiver_is_total_eqB6_, symObjAddr: 0x46F0, symBinAddr: 0x1EF4C, symSize: 0x10 }
  - { offset: 0x8DFE9, size: 0x8, addend: 0x0, symName: __RNvYNtNtCsATtFUPiRFW_3syn4item4ItemNtNtCs9f3LFPSIp77_4core3cmp2Eq27assert_receiver_is_total_eqB6_, symObjAddr: 0x48A4, symBinAddr: 0x1F100, symSize: 0x10 }
  - { offset: 0x8E01C, size: 0x8, addend: 0x0, symName: __RNvYNtNtCsATtFUPiRFW_3syn4item5FnArgNtNtCs9f3LFPSIp77_4core3cmp2Eq27assert_receiver_is_total_eqB6_, symObjAddr: 0x4A60, symBinAddr: 0x1F2BC, symSize: 0x10 }
  - { offset: 0x8E04F, size: 0x8, addend: 0x0, symName: __RNvYNtNtCsATtFUPiRFW_3syn4item6ItemFnNtNtCs9f3LFPSIp77_4core3cmp2Eq27assert_receiver_is_total_eqB6_, symObjAddr: 0x4C14, symBinAddr: 0x1F470, symSize: 0x10 }
  - { offset: 0x8E082, size: 0x8, addend: 0x0, symName: __RNvYNtNtCsATtFUPiRFW_3syn4item7ItemModNtNtCs9f3LFPSIp77_4core3cmp2Eq27assert_receiver_is_total_eqB6_, symObjAddr: 0x4DD0, symBinAddr: 0x1F62C, symSize: 0x10 }
  - { offset: 0x8E0B5, size: 0x8, addend: 0x0, symName: __RNvYNtNtCsATtFUPiRFW_3syn4item7ItemUseNtNtCs9f3LFPSIp77_4core3cmp2Eq27assert_receiver_is_total_eqB6_, symObjAddr: 0x4F84, symBinAddr: 0x1F7E0, symSize: 0x10 }
  - { offset: 0x8E0E8, size: 0x8, addend: 0x0, symName: __RNvYNtNtCsATtFUPiRFW_3syn4item7UseGlobNtNtCs9f3LFPSIp77_4core3cmp2Eq27assert_receiver_is_total_eqB6_, symObjAddr: 0x512C, symBinAddr: 0x1F988, symSize: 0x10 }
  - { offset: 0x8E11B, size: 0x8, addend: 0x0, symName: __RNvYNtNtCsATtFUPiRFW_3syn4item7UseNameNtNtCs9f3LFPSIp77_4core3cmp2Eq27assert_receiver_is_total_eqB6_, symObjAddr: 0x52AC, symBinAddr: 0x1FB08, symSize: 0x10 }
  - { offset: 0x8E14E, size: 0x8, addend: 0x0, symName: __RNvYNtNtCsATtFUPiRFW_3syn4item7UsePathNtNtCs9f3LFPSIp77_4core3cmp2Eq27assert_receiver_is_total_eqB6_, symObjAddr: 0x5460, symBinAddr: 0x1FCBC, symSize: 0x10 }
  - { offset: 0x8E181, size: 0x8, addend: 0x0, symName: __RNvYNtNtCsATtFUPiRFW_3syn4item7UseTreeNtNtCs9f3LFPSIp77_4core3cmp2Eq27assert_receiver_is_total_eqB6_, symObjAddr: 0x5614, symBinAddr: 0x1FE70, symSize: 0x10 }
  - { offset: 0x8E1B4, size: 0x8, addend: 0x0, symName: __RNvYNtNtCsATtFUPiRFW_3syn4item8ImplItemNtNtCs9f3LFPSIp77_4core3cmp2Eq27assert_receiver_is_total_eqB6_, symObjAddr: 0x57C8, symBinAddr: 0x20024, symSize: 0x10 }
  - { offset: 0x8E1E7, size: 0x8, addend: 0x0, symName: __RNvYNtNtCsATtFUPiRFW_3syn4item8ItemEnumNtNtCs9f3LFPSIp77_4core3cmp2Eq27assert_receiver_is_total_eqB6_, symObjAddr: 0x5984, symBinAddr: 0x201E0, symSize: 0x10 }
  - { offset: 0x8E21A, size: 0x8, addend: 0x0, symName: __RNvYNtNtCsATtFUPiRFW_3syn4item8ItemImplNtNtCs9f3LFPSIp77_4core3cmp2Eq27assert_receiver_is_total_eqB6_, symObjAddr: 0x5B40, symBinAddr: 0x2039C, symSize: 0x10 }
  - { offset: 0x8E24D, size: 0x8, addend: 0x0, symName: __RNvYNtNtCsATtFUPiRFW_3syn4item8ItemTypeNtNtCs9f3LFPSIp77_4core3cmp2Eq27assert_receiver_is_total_eqB6_, symObjAddr: 0x5CFC, symBinAddr: 0x20558, symSize: 0x10 }
  - { offset: 0x8E280, size: 0x8, addend: 0x0, symName: __RNvYNtNtCsATtFUPiRFW_3syn4item8ReceiverNtNtCs9f3LFPSIp77_4core3cmp2Eq27assert_receiver_is_total_eqB6_, symObjAddr: 0x5EB8, symBinAddr: 0x20714, symSize: 0x10 }
  - { offset: 0x8E2B3, size: 0x8, addend: 0x0, symName: __RNvYNtNtCsATtFUPiRFW_3syn4item8UseGroupNtNtCs9f3LFPSIp77_4core3cmp2Eq27assert_receiver_is_total_eqB6_, symObjAddr: 0x606C, symBinAddr: 0x208C8, symSize: 0x10 }
  - { offset: 0x8E2E6, size: 0x8, addend: 0x0, symName: __RNvYNtNtCsATtFUPiRFW_3syn4item8VariadicNtNtCs9f3LFPSIp77_4core3cmp2Eq27assert_receiver_is_total_eqB6_, symObjAddr: 0x6220, symBinAddr: 0x20A7C, symSize: 0x10 }
  - { offset: 0x8E319, size: 0x8, addend: 0x0, symName: __RNvYNtNtCsATtFUPiRFW_3syn4item9ItemConstNtNtCs9f3LFPSIp77_4core3cmp2Eq27assert_receiver_is_total_eqB6_, symObjAddr: 0x63D4, symBinAddr: 0x20C30, symSize: 0x10 }
  - { offset: 0x8E34C, size: 0x8, addend: 0x0, symName: __RNvYNtNtCsATtFUPiRFW_3syn4item9ItemMacroNtNtCs9f3LFPSIp77_4core3cmp2Eq27assert_receiver_is_total_eqB6_, symObjAddr: 0x6590, symBinAddr: 0x20DEC, symSize: 0x10 }
  - { offset: 0x8E37F, size: 0x8, addend: 0x0, symName: __RNvYNtNtCsATtFUPiRFW_3syn4item9ItemTraitNtNtCs9f3LFPSIp77_4core3cmp2Eq27assert_receiver_is_total_eqB6_, symObjAddr: 0x6744, symBinAddr: 0x20FA0, symSize: 0x10 }
  - { offset: 0x8E3B2, size: 0x8, addend: 0x0, symName: __RNvYNtNtCsATtFUPiRFW_3syn4item9ItemUnionNtNtCs9f3LFPSIp77_4core3cmp2Eq27assert_receiver_is_total_eqB6_, symObjAddr: 0x6900, symBinAddr: 0x2115C, symSize: 0x10 }
  - { offset: 0x8E3E5, size: 0x8, addend: 0x0, symName: __RNvYNtNtCsATtFUPiRFW_3syn4item9SignatureNtNtCs9f3LFPSIp77_4core3cmp2Eq27assert_receiver_is_total_eqB6_, symObjAddr: 0x6ABC, symBinAddr: 0x21318, symSize: 0x10 }
  - { offset: 0x8E418, size: 0x8, addend: 0x0, symName: __RNvYNtNtCsATtFUPiRFW_3syn4item9TraitItemNtNtCs9f3LFPSIp77_4core3cmp2Eq27assert_receiver_is_total_eqB6_, symObjAddr: 0x6C78, symBinAddr: 0x214D4, symSize: 0x10 }
  - { offset: 0x8E44B, size: 0x8, addend: 0x0, symName: __RNvYNtNtCsATtFUPiRFW_3syn4item9UseRenameNtNtCs9f3LFPSIp77_4core3cmp2Eq27assert_receiver_is_total_eqB6_, symObjAddr: 0x6E34, symBinAddr: 0x21690, symSize: 0x10 }
  - { offset: 0x8E484, size: 0x8, addend: 0x0, symName: __RNvYNtNtCsATtFUPiRFW_3syn4item10ImplItemFnNtNtCs9f3LFPSIp77_4core3cmp9PartialEq2neB6_, symObjAddr: 0x27D0, symBinAddr: 0x1D02C, symSize: 0x30 }
  - { offset: 0x8E4D3, size: 0x8, addend: 0x0, symName: __RNvYNtNtCsATtFUPiRFW_3syn4item10ItemStaticNtNtCs9f3LFPSIp77_4core3cmp9PartialEq2neB6_, symObjAddr: 0x298C, symBinAddr: 0x1D1E8, symSize: 0x30 }
  - { offset: 0x8E522, size: 0x8, addend: 0x0, symName: __RNvYNtNtCsATtFUPiRFW_3syn4item10ItemStructNtNtCs9f3LFPSIp77_4core3cmp9PartialEq2neB6_, symObjAddr: 0x2B40, symBinAddr: 0x1D39C, symSize: 0x30 }
  - { offset: 0x8E571, size: 0x8, addend: 0x0, symName: __RNvYNtNtCsATtFUPiRFW_3syn4item11ForeignItemNtNtCs9f3LFPSIp77_4core3cmp9PartialEq2neB6_, symObjAddr: 0x2CFC, symBinAddr: 0x1D558, symSize: 0x30 }
  - { offset: 0x8E5C0, size: 0x8, addend: 0x0, symName: __RNvYNtNtCsATtFUPiRFW_3syn4item11TraitItemFnNtNtCs9f3LFPSIp77_4core3cmp9PartialEq2neB6_, symObjAddr: 0x2EB8, symBinAddr: 0x1D714, symSize: 0x30 }
  - { offset: 0x8E60F, size: 0x8, addend: 0x0, symName: __RNvYNtNtCsATtFUPiRFW_3syn4item12ImplItemTypeNtNtCs9f3LFPSIp77_4core3cmp9PartialEq2neB6_, symObjAddr: 0x3074, symBinAddr: 0x1D8D0, symSize: 0x30 }
  - { offset: 0x8E65E, size: 0x8, addend: 0x0, symName: __RNvYNtNtCsATtFUPiRFW_3syn4item13ForeignItemFnNtNtCs9f3LFPSIp77_4core3cmp9PartialEq2neB6_, symObjAddr: 0x3230, symBinAddr: 0x1DA8C, symSize: 0x30 }
  - { offset: 0x8E6AD, size: 0x8, addend: 0x0, symName: __RNvYNtNtCsATtFUPiRFW_3syn4item13ImplItemConstNtNtCs9f3LFPSIp77_4core3cmp9PartialEq2neB6_, symObjAddr: 0x33EC, symBinAddr: 0x1DC48, symSize: 0x30 }
  - { offset: 0x8E6FC, size: 0x8, addend: 0x0, symName: __RNvYNtNtCsATtFUPiRFW_3syn4item13ImplItemMacroNtNtCs9f3LFPSIp77_4core3cmp9PartialEq2neB6_, symObjAddr: 0x35A8, symBinAddr: 0x1DE04, symSize: 0x30 }
  - { offset: 0x8E74B, size: 0x8, addend: 0x0, symName: __RNvYNtNtCsATtFUPiRFW_3syn4item13TraitItemTypeNtNtCs9f3LFPSIp77_4core3cmp9PartialEq2neB6_, symObjAddr: 0x375C, symBinAddr: 0x1DFB8, symSize: 0x30 }
  - { offset: 0x8E79A, size: 0x8, addend: 0x0, symName: __RNvYNtNtCsATtFUPiRFW_3syn4item14ItemForeignModNtNtCs9f3LFPSIp77_4core3cmp9PartialEq2neB6_, symObjAddr: 0x3918, symBinAddr: 0x1E174, symSize: 0x30 }
  - { offset: 0x8E7E9, size: 0x8, addend: 0x0, symName: __RNvYNtNtCsATtFUPiRFW_3syn4item14ItemTraitAliasNtNtCs9f3LFPSIp77_4core3cmp9PartialEq2neB6_, symObjAddr: 0x3ACC, symBinAddr: 0x1E328, symSize: 0x30 }
  - { offset: 0x8E838, size: 0x8, addend: 0x0, symName: __RNvYNtNtCsATtFUPiRFW_3syn4item14TraitItemConstNtNtCs9f3LFPSIp77_4core3cmp9PartialEq2neB6_, symObjAddr: 0x3C88, symBinAddr: 0x1E4E4, symSize: 0x30 }
  - { offset: 0x8E887, size: 0x8, addend: 0x0, symName: __RNvYNtNtCsATtFUPiRFW_3syn4item14TraitItemMacroNtNtCs9f3LFPSIp77_4core3cmp9PartialEq2neB6_, symObjAddr: 0x3E44, symBinAddr: 0x1E6A0, symSize: 0x30 }
  - { offset: 0x8E8D6, size: 0x8, addend: 0x0, symName: __RNvYNtNtCsATtFUPiRFW_3syn4item15ForeignItemTypeNtNtCs9f3LFPSIp77_4core3cmp9PartialEq2neB6_, symObjAddr: 0x3FF8, symBinAddr: 0x1E854, symSize: 0x30 }
  - { offset: 0x8E925, size: 0x8, addend: 0x0, symName: __RNvYNtNtCsATtFUPiRFW_3syn4item15ImplRestrictionNtNtCs9f3LFPSIp77_4core3cmp9PartialEq2neB6_, symObjAddr: 0x40BC, symBinAddr: 0x1E918, symSize: 0x30 }
  - { offset: 0x8E974, size: 0x8, addend: 0x0, symName: __RNvYNtNtCsATtFUPiRFW_3syn4item15ItemExternCrateNtNtCs9f3LFPSIp77_4core3cmp9PartialEq2neB6_, symObjAddr: 0x4220, symBinAddr: 0x1EA7C, symSize: 0x30 }
  - { offset: 0x8E9C3, size: 0x8, addend: 0x0, symName: __RNvYNtNtCsATtFUPiRFW_3syn4item16ForeignItemMacroNtNtCs9f3LFPSIp77_4core3cmp9PartialEq2neB6_, symObjAddr: 0x43D4, symBinAddr: 0x1EC30, symSize: 0x30 }
  - { offset: 0x8EA12, size: 0x8, addend: 0x0, symName: __RNvYNtNtCsATtFUPiRFW_3syn4item16StaticMutabilityNtNtCs9f3LFPSIp77_4core3cmp9PartialEq2neB6_, symObjAddr: 0x457C, symBinAddr: 0x1EDD8, symSize: 0x30 }
  - { offset: 0x8EA61, size: 0x8, addend: 0x0, symName: __RNvYNtNtCsATtFUPiRFW_3syn4item17ForeignItemStaticNtNtCs9f3LFPSIp77_4core3cmp9PartialEq2neB6_, symObjAddr: 0x4700, symBinAddr: 0x1EF5C, symSize: 0x30 }
  - { offset: 0x8EAB0, size: 0x8, addend: 0x0, symName: __RNvYNtNtCsATtFUPiRFW_3syn4item4ItemNtNtCs9f3LFPSIp77_4core3cmp9PartialEq2neB6_, symObjAddr: 0x48B4, symBinAddr: 0x1F110, symSize: 0x30 }
  - { offset: 0x8EAFF, size: 0x8, addend: 0x0, symName: __RNvYNtNtCsATtFUPiRFW_3syn4item5FnArgNtNtCs9f3LFPSIp77_4core3cmp9PartialEq2neB6_, symObjAddr: 0x4A70, symBinAddr: 0x1F2CC, symSize: 0x30 }
  - { offset: 0x8EB4E, size: 0x8, addend: 0x0, symName: __RNvYNtNtCsATtFUPiRFW_3syn4item6ItemFnNtNtCs9f3LFPSIp77_4core3cmp9PartialEq2neB6_, symObjAddr: 0x4C24, symBinAddr: 0x1F480, symSize: 0x30 }
  - { offset: 0x8EB9D, size: 0x8, addend: 0x0, symName: __RNvYNtNtCsATtFUPiRFW_3syn4item7ItemModNtNtCs9f3LFPSIp77_4core3cmp9PartialEq2neB6_, symObjAddr: 0x4DE0, symBinAddr: 0x1F63C, symSize: 0x30 }
  - { offset: 0x8EBEC, size: 0x8, addend: 0x0, symName: __RNvYNtNtCsATtFUPiRFW_3syn4item7ItemUseNtNtCs9f3LFPSIp77_4core3cmp9PartialEq2neB6_, symObjAddr: 0x4F94, symBinAddr: 0x1F7F0, symSize: 0x30 }
  - { offset: 0x8EC3B, size: 0x8, addend: 0x0, symName: __RNvYNtNtCsATtFUPiRFW_3syn4item7UseGlobNtNtCs9f3LFPSIp77_4core3cmp9PartialEq2neB6_, symObjAddr: 0x513C, symBinAddr: 0x1F998, symSize: 0x30 }
  - { offset: 0x8EC8A, size: 0x8, addend: 0x0, symName: __RNvYNtNtCsATtFUPiRFW_3syn4item7UseNameNtNtCs9f3LFPSIp77_4core3cmp9PartialEq2neB6_, symObjAddr: 0x52BC, symBinAddr: 0x1FB18, symSize: 0x30 }
  - { offset: 0x8ECD9, size: 0x8, addend: 0x0, symName: __RNvYNtNtCsATtFUPiRFW_3syn4item7UsePathNtNtCs9f3LFPSIp77_4core3cmp9PartialEq2neB6_, symObjAddr: 0x5470, symBinAddr: 0x1FCCC, symSize: 0x30 }
  - { offset: 0x8ED28, size: 0x8, addend: 0x0, symName: __RNvYNtNtCsATtFUPiRFW_3syn4item7UseTreeNtNtCs9f3LFPSIp77_4core3cmp9PartialEq2neB6_, symObjAddr: 0x5624, symBinAddr: 0x1FE80, symSize: 0x30 }
  - { offset: 0x8ED77, size: 0x8, addend: 0x0, symName: __RNvYNtNtCsATtFUPiRFW_3syn4item8ImplItemNtNtCs9f3LFPSIp77_4core3cmp9PartialEq2neB6_, symObjAddr: 0x57D8, symBinAddr: 0x20034, symSize: 0x30 }
  - { offset: 0x8EDC6, size: 0x8, addend: 0x0, symName: __RNvYNtNtCsATtFUPiRFW_3syn4item8ItemEnumNtNtCs9f3LFPSIp77_4core3cmp9PartialEq2neB6_, symObjAddr: 0x5994, symBinAddr: 0x201F0, symSize: 0x30 }
  - { offset: 0x8EE15, size: 0x8, addend: 0x0, symName: __RNvYNtNtCsATtFUPiRFW_3syn4item8ItemImplNtNtCs9f3LFPSIp77_4core3cmp9PartialEq2neB6_, symObjAddr: 0x5B50, symBinAddr: 0x203AC, symSize: 0x30 }
  - { offset: 0x8EE64, size: 0x8, addend: 0x0, symName: __RNvYNtNtCsATtFUPiRFW_3syn4item8ItemTypeNtNtCs9f3LFPSIp77_4core3cmp9PartialEq2neB6_, symObjAddr: 0x5D0C, symBinAddr: 0x20568, symSize: 0x30 }
  - { offset: 0x8EEB3, size: 0x8, addend: 0x0, symName: __RNvYNtNtCsATtFUPiRFW_3syn4item8ReceiverNtNtCs9f3LFPSIp77_4core3cmp9PartialEq2neB6_, symObjAddr: 0x5EC8, symBinAddr: 0x20724, symSize: 0x30 }
  - { offset: 0x8EF02, size: 0x8, addend: 0x0, symName: __RNvYNtNtCsATtFUPiRFW_3syn4item8UseGroupNtNtCs9f3LFPSIp77_4core3cmp9PartialEq2neB6_, symObjAddr: 0x607C, symBinAddr: 0x208D8, symSize: 0x30 }
  - { offset: 0x8EF51, size: 0x8, addend: 0x0, symName: __RNvYNtNtCsATtFUPiRFW_3syn4item8VariadicNtNtCs9f3LFPSIp77_4core3cmp9PartialEq2neB6_, symObjAddr: 0x6230, symBinAddr: 0x20A8C, symSize: 0x30 }
  - { offset: 0x8EFA0, size: 0x8, addend: 0x0, symName: __RNvYNtNtCsATtFUPiRFW_3syn4item9ItemConstNtNtCs9f3LFPSIp77_4core3cmp9PartialEq2neB6_, symObjAddr: 0x63E4, symBinAddr: 0x20C40, symSize: 0x30 }
  - { offset: 0x8EFEF, size: 0x8, addend: 0x0, symName: __RNvYNtNtCsATtFUPiRFW_3syn4item9ItemMacroNtNtCs9f3LFPSIp77_4core3cmp9PartialEq2neB6_, symObjAddr: 0x65A0, symBinAddr: 0x20DFC, symSize: 0x30 }
  - { offset: 0x8F03E, size: 0x8, addend: 0x0, symName: __RNvYNtNtCsATtFUPiRFW_3syn4item9ItemTraitNtNtCs9f3LFPSIp77_4core3cmp9PartialEq2neB6_, symObjAddr: 0x6754, symBinAddr: 0x20FB0, symSize: 0x30 }
  - { offset: 0x8F08D, size: 0x8, addend: 0x0, symName: __RNvYNtNtCsATtFUPiRFW_3syn4item9ItemUnionNtNtCs9f3LFPSIp77_4core3cmp9PartialEq2neB6_, symObjAddr: 0x6910, symBinAddr: 0x2116C, symSize: 0x30 }
  - { offset: 0x8F0DC, size: 0x8, addend: 0x0, symName: __RNvYNtNtCsATtFUPiRFW_3syn4item9SignatureNtNtCs9f3LFPSIp77_4core3cmp9PartialEq2neB6_, symObjAddr: 0x6ACC, symBinAddr: 0x21328, symSize: 0x30 }
  - { offset: 0x8F12B, size: 0x8, addend: 0x0, symName: __RNvYNtNtCsATtFUPiRFW_3syn4item9TraitItemNtNtCs9f3LFPSIp77_4core3cmp9PartialEq2neB6_, symObjAddr: 0x6C88, symBinAddr: 0x214E4, symSize: 0x30 }
  - { offset: 0x8F17A, size: 0x8, addend: 0x0, symName: __RNvYNtNtCsATtFUPiRFW_3syn4item9UseRenameNtNtCs9f3LFPSIp77_4core3cmp9PartialEq2neB6_, symObjAddr: 0x6E44, symBinAddr: 0x216A0, symSize: 0x30 }
  - { offset: 0x8F1D5, size: 0x8, addend: 0x0, symName: __RNvXs8_NtCs9f3LFPSIp77_4core5tupleTNtNtCsATtFUPiRFW_3syn4item5FnArgNtNtBB_5token5CommaENtNtB7_3cmp9PartialEq2neBB_, symObjAddr: 0x22A8, symBinAddr: 0x1CB04, symSize: 0x64 }
  - { offset: 0x8F221, size: 0x8, addend: 0x0, symName: __RNvXs8_NtCs9f3LFPSIp77_4core5tupleTNtNtCsATtFUPiRFW_3syn4item7UseTreeNtNtBB_5token5CommaENtNtB7_3cmp9PartialEq2neBB_, symObjAddr: 0x230C, symBinAddr: 0x1CB68, symSize: 0x64 }
  - { offset: 0x91ABE, size: 0x8, addend: 0x0, symName: __RNvXNtCs62MdaZFMefA_5quote9to_tokensRNtNtCsATtFUPiRFW_3syn4item11ForeignItemNtB2_8ToTokens9to_tokensBD_, symObjAddr: 0x10C8, symBinAddr: 0x1B924, symSize: 0x40 }
  - { offset: 0x91AFD, size: 0x8, addend: 0x0, symName: __RNvXNtCs62MdaZFMefA_5quote9to_tokensRNtNtCsATtFUPiRFW_3syn4item4ItemNtB2_8ToTokens9to_tokensBD_, symObjAddr: 0x1108, symBinAddr: 0x1B964, symSize: 0x40 }
  - { offset: 0x91B3C, size: 0x8, addend: 0x0, symName: __RNvXNtCs62MdaZFMefA_5quote9to_tokensRNtNtCsATtFUPiRFW_3syn4item5FnArgNtB2_8ToTokens9to_tokensBD_, symObjAddr: 0x1148, symBinAddr: 0x1B9A4, symSize: 0x40 }
  - { offset: 0x91B7B, size: 0x8, addend: 0x0, symName: __RNvXNtCs62MdaZFMefA_5quote9to_tokensRNtNtCsATtFUPiRFW_3syn4item7UseTreeNtB2_8ToTokens9to_tokensBD_, symObjAddr: 0x1188, symBinAddr: 0x1B9E4, symSize: 0x40 }
  - { offset: 0x91BBA, size: 0x8, addend: 0x0, symName: __RNvXNtCs62MdaZFMefA_5quote9to_tokensRNtNtCsATtFUPiRFW_3syn4item8ImplItemNtB2_8ToTokens9to_tokensBD_, symObjAddr: 0x11C8, symBinAddr: 0x1BA24, symSize: 0x40 }
  - { offset: 0x91BF9, size: 0x8, addend: 0x0, symName: __RNvXNtCs62MdaZFMefA_5quote9to_tokensRNtNtCsATtFUPiRFW_3syn4item9TraitItemNtB2_8ToTokens9to_tokensBD_, symObjAddr: 0x1208, symBinAddr: 0x1BA64, symSize: 0x40 }
  - { offset: 0x91C3E, size: 0x8, addend: 0x0, symName: __RNvYNtNtCsATtFUPiRFW_3syn4item10ImplItemFnNtNtCs62MdaZFMefA_5quote9to_tokens8ToTokens15to_token_streamB6_, symObjAddr: 0x26D0, symBinAddr: 0x1CF2C, symSize: 0x8C }
  - { offset: 0x91C88, size: 0x8, addend: 0x0, symName: __RNvYNtNtCsATtFUPiRFW_3syn4item10ImplItemFnNtNtCs62MdaZFMefA_5quote9to_tokens8ToTokens17into_token_streamB6_, symObjAddr: 0x275C, symBinAddr: 0x1CFB8, symSize: 0x64 }
  - { offset: 0x91CBE, size: 0x8, addend: 0x0, symName: __RNvYNtNtCsATtFUPiRFW_3syn4item10ItemStaticNtNtCs62MdaZFMefA_5quote9to_tokens8ToTokens15to_token_streamB6_, symObjAddr: 0x288C, symBinAddr: 0x1D0E8, symSize: 0x8C }
  - { offset: 0x91D08, size: 0x8, addend: 0x0, symName: __RNvYNtNtCsATtFUPiRFW_3syn4item10ItemStaticNtNtCs62MdaZFMefA_5quote9to_tokens8ToTokens17into_token_streamB6_, symObjAddr: 0x2918, symBinAddr: 0x1D174, symSize: 0x64 }
  - { offset: 0x91D3E, size: 0x8, addend: 0x0, symName: __RNvYNtNtCsATtFUPiRFW_3syn4item10ItemStructNtNtCs62MdaZFMefA_5quote9to_tokens8ToTokens15to_token_streamB6_, symObjAddr: 0x2A40, symBinAddr: 0x1D29C, symSize: 0x8C }
  - { offset: 0x91D88, size: 0x8, addend: 0x0, symName: __RNvYNtNtCsATtFUPiRFW_3syn4item10ItemStructNtNtCs62MdaZFMefA_5quote9to_tokens8ToTokens17into_token_streamB6_, symObjAddr: 0x2ACC, symBinAddr: 0x1D328, symSize: 0x64 }
  - { offset: 0x91DBE, size: 0x8, addend: 0x0, symName: __RNvYNtNtCsATtFUPiRFW_3syn4item11ForeignItemNtNtCs62MdaZFMefA_5quote9to_tokens8ToTokens15to_token_streamB6_, symObjAddr: 0x2BFC, symBinAddr: 0x1D458, symSize: 0x8C }
  - { offset: 0x91E08, size: 0x8, addend: 0x0, symName: __RNvYNtNtCsATtFUPiRFW_3syn4item11ForeignItemNtNtCs62MdaZFMefA_5quote9to_tokens8ToTokens17into_token_streamB6_, symObjAddr: 0x2C88, symBinAddr: 0x1D4E4, symSize: 0x64 }
  - { offset: 0x91E3E, size: 0x8, addend: 0x0, symName: __RNvYNtNtCsATtFUPiRFW_3syn4item11TraitItemFnNtNtCs62MdaZFMefA_5quote9to_tokens8ToTokens15to_token_streamB6_, symObjAddr: 0x2DB8, symBinAddr: 0x1D614, symSize: 0x8C }
  - { offset: 0x91E88, size: 0x8, addend: 0x0, symName: __RNvYNtNtCsATtFUPiRFW_3syn4item11TraitItemFnNtNtCs62MdaZFMefA_5quote9to_tokens8ToTokens17into_token_streamB6_, symObjAddr: 0x2E44, symBinAddr: 0x1D6A0, symSize: 0x64 }
  - { offset: 0x91EBE, size: 0x8, addend: 0x0, symName: __RNvYNtNtCsATtFUPiRFW_3syn4item12ImplItemTypeNtNtCs62MdaZFMefA_5quote9to_tokens8ToTokens15to_token_streamB6_, symObjAddr: 0x2F74, symBinAddr: 0x1D7D0, symSize: 0x8C }
  - { offset: 0x91F08, size: 0x8, addend: 0x0, symName: __RNvYNtNtCsATtFUPiRFW_3syn4item12ImplItemTypeNtNtCs62MdaZFMefA_5quote9to_tokens8ToTokens17into_token_streamB6_, symObjAddr: 0x3000, symBinAddr: 0x1D85C, symSize: 0x64 }
  - { offset: 0x91F3E, size: 0x8, addend: 0x0, symName: __RNvYNtNtCsATtFUPiRFW_3syn4item13ForeignItemFnNtNtCs62MdaZFMefA_5quote9to_tokens8ToTokens15to_token_streamB6_, symObjAddr: 0x3130, symBinAddr: 0x1D98C, symSize: 0x8C }
  - { offset: 0x91F88, size: 0x8, addend: 0x0, symName: __RNvYNtNtCsATtFUPiRFW_3syn4item13ForeignItemFnNtNtCs62MdaZFMefA_5quote9to_tokens8ToTokens17into_token_streamB6_, symObjAddr: 0x31BC, symBinAddr: 0x1DA18, symSize: 0x64 }
  - { offset: 0x91FBE, size: 0x8, addend: 0x0, symName: __RNvYNtNtCsATtFUPiRFW_3syn4item13ImplItemConstNtNtCs62MdaZFMefA_5quote9to_tokens8ToTokens15to_token_streamB6_, symObjAddr: 0x32EC, symBinAddr: 0x1DB48, symSize: 0x8C }
  - { offset: 0x92008, size: 0x8, addend: 0x0, symName: __RNvYNtNtCsATtFUPiRFW_3syn4item13ImplItemConstNtNtCs62MdaZFMefA_5quote9to_tokens8ToTokens17into_token_streamB6_, symObjAddr: 0x3378, symBinAddr: 0x1DBD4, symSize: 0x64 }
  - { offset: 0x9203E, size: 0x8, addend: 0x0, symName: __RNvYNtNtCsATtFUPiRFW_3syn4item13ImplItemMacroNtNtCs62MdaZFMefA_5quote9to_tokens8ToTokens15to_token_streamB6_, symObjAddr: 0x34A8, symBinAddr: 0x1DD04, symSize: 0x8C }
  - { offset: 0x92088, size: 0x8, addend: 0x0, symName: __RNvYNtNtCsATtFUPiRFW_3syn4item13ImplItemMacroNtNtCs62MdaZFMefA_5quote9to_tokens8ToTokens17into_token_streamB6_, symObjAddr: 0x3534, symBinAddr: 0x1DD90, symSize: 0x64 }
  - { offset: 0x920BE, size: 0x8, addend: 0x0, symName: __RNvYNtNtCsATtFUPiRFW_3syn4item13TraitItemTypeNtNtCs62MdaZFMefA_5quote9to_tokens8ToTokens15to_token_streamB6_, symObjAddr: 0x365C, symBinAddr: 0x1DEB8, symSize: 0x8C }
  - { offset: 0x92108, size: 0x8, addend: 0x0, symName: __RNvYNtNtCsATtFUPiRFW_3syn4item13TraitItemTypeNtNtCs62MdaZFMefA_5quote9to_tokens8ToTokens17into_token_streamB6_, symObjAddr: 0x36E8, symBinAddr: 0x1DF44, symSize: 0x64 }
  - { offset: 0x9213E, size: 0x8, addend: 0x0, symName: __RNvYNtNtCsATtFUPiRFW_3syn4item14ItemForeignModNtNtCs62MdaZFMefA_5quote9to_tokens8ToTokens15to_token_streamB6_, symObjAddr: 0x3818, symBinAddr: 0x1E074, symSize: 0x8C }
  - { offset: 0x92188, size: 0x8, addend: 0x0, symName: __RNvYNtNtCsATtFUPiRFW_3syn4item14ItemForeignModNtNtCs62MdaZFMefA_5quote9to_tokens8ToTokens17into_token_streamB6_, symObjAddr: 0x38A4, symBinAddr: 0x1E100, symSize: 0x64 }
  - { offset: 0x921BE, size: 0x8, addend: 0x0, symName: __RNvYNtNtCsATtFUPiRFW_3syn4item14ItemTraitAliasNtNtCs62MdaZFMefA_5quote9to_tokens8ToTokens15to_token_streamB6_, symObjAddr: 0x39CC, symBinAddr: 0x1E228, symSize: 0x8C }
  - { offset: 0x92208, size: 0x8, addend: 0x0, symName: __RNvYNtNtCsATtFUPiRFW_3syn4item14ItemTraitAliasNtNtCs62MdaZFMefA_5quote9to_tokens8ToTokens17into_token_streamB6_, symObjAddr: 0x3A58, symBinAddr: 0x1E2B4, symSize: 0x64 }
  - { offset: 0x9223E, size: 0x8, addend: 0x0, symName: __RNvYNtNtCsATtFUPiRFW_3syn4item14TraitItemConstNtNtCs62MdaZFMefA_5quote9to_tokens8ToTokens15to_token_streamB6_, symObjAddr: 0x3B88, symBinAddr: 0x1E3E4, symSize: 0x8C }
  - { offset: 0x92288, size: 0x8, addend: 0x0, symName: __RNvYNtNtCsATtFUPiRFW_3syn4item14TraitItemConstNtNtCs62MdaZFMefA_5quote9to_tokens8ToTokens17into_token_streamB6_, symObjAddr: 0x3C14, symBinAddr: 0x1E470, symSize: 0x64 }
  - { offset: 0x922BE, size: 0x8, addend: 0x0, symName: __RNvYNtNtCsATtFUPiRFW_3syn4item14TraitItemMacroNtNtCs62MdaZFMefA_5quote9to_tokens8ToTokens15to_token_streamB6_, symObjAddr: 0x3D44, symBinAddr: 0x1E5A0, symSize: 0x8C }
  - { offset: 0x92308, size: 0x8, addend: 0x0, symName: __RNvYNtNtCsATtFUPiRFW_3syn4item14TraitItemMacroNtNtCs62MdaZFMefA_5quote9to_tokens8ToTokens17into_token_streamB6_, symObjAddr: 0x3DD0, symBinAddr: 0x1E62C, symSize: 0x64 }
  - { offset: 0x9233E, size: 0x8, addend: 0x0, symName: __RNvYNtNtCsATtFUPiRFW_3syn4item15ForeignItemTypeNtNtCs62MdaZFMefA_5quote9to_tokens8ToTokens15to_token_streamB6_, symObjAddr: 0x3EF8, symBinAddr: 0x1E754, symSize: 0x8C }
  - { offset: 0x92388, size: 0x8, addend: 0x0, symName: __RNvYNtNtCsATtFUPiRFW_3syn4item15ForeignItemTypeNtNtCs62MdaZFMefA_5quote9to_tokens8ToTokens17into_token_streamB6_, symObjAddr: 0x3F84, symBinAddr: 0x1E7E0, symSize: 0x64 }
  - { offset: 0x923BE, size: 0x8, addend: 0x0, symName: __RNvYNtNtCsATtFUPiRFW_3syn4item15ItemExternCrateNtNtCs62MdaZFMefA_5quote9to_tokens8ToTokens15to_token_streamB6_, symObjAddr: 0x4120, symBinAddr: 0x1E97C, symSize: 0x8C }
  - { offset: 0x92408, size: 0x8, addend: 0x0, symName: __RNvYNtNtCsATtFUPiRFW_3syn4item15ItemExternCrateNtNtCs62MdaZFMefA_5quote9to_tokens8ToTokens17into_token_streamB6_, symObjAddr: 0x41AC, symBinAddr: 0x1EA08, symSize: 0x64 }
  - { offset: 0x9243E, size: 0x8, addend: 0x0, symName: __RNvYNtNtCsATtFUPiRFW_3syn4item16ForeignItemMacroNtNtCs62MdaZFMefA_5quote9to_tokens8ToTokens15to_token_streamB6_, symObjAddr: 0x42D4, symBinAddr: 0x1EB30, symSize: 0x8C }
  - { offset: 0x92488, size: 0x8, addend: 0x0, symName: __RNvYNtNtCsATtFUPiRFW_3syn4item16ForeignItemMacroNtNtCs62MdaZFMefA_5quote9to_tokens8ToTokens17into_token_streamB6_, symObjAddr: 0x4360, symBinAddr: 0x1EBBC, symSize: 0x64 }
  - { offset: 0x924BE, size: 0x8, addend: 0x0, symName: __RNvYNtNtCsATtFUPiRFW_3syn4item16StaticMutabilityNtNtCs62MdaZFMefA_5quote9to_tokens8ToTokens15to_token_streamB6_, symObjAddr: 0x4488, symBinAddr: 0x1ECE4, symSize: 0x8C }
  - { offset: 0x92508, size: 0x8, addend: 0x0, symName: __RNvYNtNtCsATtFUPiRFW_3syn4item16StaticMutabilityNtNtCs62MdaZFMefA_5quote9to_tokens8ToTokens17into_token_streamB6_, symObjAddr: 0x4514, symBinAddr: 0x1ED70, symSize: 0x58 }
  - { offset: 0x9253D, size: 0x8, addend: 0x0, symName: __RNvYNtNtCsATtFUPiRFW_3syn4item17ForeignItemStaticNtNtCs62MdaZFMefA_5quote9to_tokens8ToTokens15to_token_streamB6_, symObjAddr: 0x4600, symBinAddr: 0x1EE5C, symSize: 0x8C }
  - { offset: 0x92587, size: 0x8, addend: 0x0, symName: __RNvYNtNtCsATtFUPiRFW_3syn4item17ForeignItemStaticNtNtCs62MdaZFMefA_5quote9to_tokens8ToTokens17into_token_streamB6_, symObjAddr: 0x468C, symBinAddr: 0x1EEE8, symSize: 0x64 }
  - { offset: 0x925BD, size: 0x8, addend: 0x0, symName: __RNvYNtNtCsATtFUPiRFW_3syn4item4ItemNtNtCs62MdaZFMefA_5quote9to_tokens8ToTokens15to_token_streamB6_, symObjAddr: 0x47B4, symBinAddr: 0x1F010, symSize: 0x8C }
  - { offset: 0x92607, size: 0x8, addend: 0x0, symName: __RNvYNtNtCsATtFUPiRFW_3syn4item4ItemNtNtCs62MdaZFMefA_5quote9to_tokens8ToTokens17into_token_streamB6_, symObjAddr: 0x4840, symBinAddr: 0x1F09C, symSize: 0x64 }
  - { offset: 0x9263D, size: 0x8, addend: 0x0, symName: __RNvYNtNtCsATtFUPiRFW_3syn4item5FnArgNtNtCs62MdaZFMefA_5quote9to_tokens8ToTokens15to_token_streamB6_, symObjAddr: 0x4970, symBinAddr: 0x1F1CC, symSize: 0x8C }
  - { offset: 0x92687, size: 0x8, addend: 0x0, symName: __RNvYNtNtCsATtFUPiRFW_3syn4item5FnArgNtNtCs62MdaZFMefA_5quote9to_tokens8ToTokens17into_token_streamB6_, symObjAddr: 0x49FC, symBinAddr: 0x1F258, symSize: 0x64 }
  - { offset: 0x926BD, size: 0x8, addend: 0x0, symName: __RNvYNtNtCsATtFUPiRFW_3syn4item6ItemFnNtNtCs62MdaZFMefA_5quote9to_tokens8ToTokens15to_token_streamB6_, symObjAddr: 0x4B24, symBinAddr: 0x1F380, symSize: 0x8C }
  - { offset: 0x92707, size: 0x8, addend: 0x0, symName: __RNvYNtNtCsATtFUPiRFW_3syn4item6ItemFnNtNtCs62MdaZFMefA_5quote9to_tokens8ToTokens17into_token_streamB6_, symObjAddr: 0x4BB0, symBinAddr: 0x1F40C, symSize: 0x64 }
  - { offset: 0x9273D, size: 0x8, addend: 0x0, symName: __RNvYNtNtCsATtFUPiRFW_3syn4item7ItemModNtNtCs62MdaZFMefA_5quote9to_tokens8ToTokens15to_token_streamB6_, symObjAddr: 0x4CE0, symBinAddr: 0x1F53C, symSize: 0x8C }
  - { offset: 0x92787, size: 0x8, addend: 0x0, symName: __RNvYNtNtCsATtFUPiRFW_3syn4item7ItemModNtNtCs62MdaZFMefA_5quote9to_tokens8ToTokens17into_token_streamB6_, symObjAddr: 0x4D6C, symBinAddr: 0x1F5C8, symSize: 0x64 }
  - { offset: 0x927BD, size: 0x8, addend: 0x0, symName: __RNvYNtNtCsATtFUPiRFW_3syn4item7ItemUseNtNtCs62MdaZFMefA_5quote9to_tokens8ToTokens15to_token_streamB6_, symObjAddr: 0x4E94, symBinAddr: 0x1F6F0, symSize: 0x8C }
  - { offset: 0x92807, size: 0x8, addend: 0x0, symName: __RNvYNtNtCsATtFUPiRFW_3syn4item7ItemUseNtNtCs62MdaZFMefA_5quote9to_tokens8ToTokens17into_token_streamB6_, symObjAddr: 0x4F20, symBinAddr: 0x1F77C, symSize: 0x64 }
  - { offset: 0x9283D, size: 0x8, addend: 0x0, symName: __RNvYNtNtCsATtFUPiRFW_3syn4item7UseGlobNtNtCs62MdaZFMefA_5quote9to_tokens8ToTokens15to_token_streamB6_, symObjAddr: 0x5048, symBinAddr: 0x1F8A4, symSize: 0x8C }
  - { offset: 0x92887, size: 0x8, addend: 0x0, symName: __RNvYNtNtCsATtFUPiRFW_3syn4item7UseGlobNtNtCs62MdaZFMefA_5quote9to_tokens8ToTokens17into_token_streamB6_, symObjAddr: 0x50D4, symBinAddr: 0x1F930, symSize: 0x58 }
  - { offset: 0x928BC, size: 0x8, addend: 0x0, symName: __RNvYNtNtCsATtFUPiRFW_3syn4item7UseNameNtNtCs62MdaZFMefA_5quote9to_tokens8ToTokens15to_token_streamB6_, symObjAddr: 0x51BC, symBinAddr: 0x1FA18, symSize: 0x8C }
  - { offset: 0x92906, size: 0x8, addend: 0x0, symName: __RNvYNtNtCsATtFUPiRFW_3syn4item7UseNameNtNtCs62MdaZFMefA_5quote9to_tokens8ToTokens17into_token_streamB6_, symObjAddr: 0x5248, symBinAddr: 0x1FAA4, symSize: 0x64 }
  - { offset: 0x9293C, size: 0x8, addend: 0x0, symName: __RNvYNtNtCsATtFUPiRFW_3syn4item7UsePathNtNtCs62MdaZFMefA_5quote9to_tokens8ToTokens15to_token_streamB6_, symObjAddr: 0x5370, symBinAddr: 0x1FBCC, symSize: 0x8C }
  - { offset: 0x92986, size: 0x8, addend: 0x0, symName: __RNvYNtNtCsATtFUPiRFW_3syn4item7UsePathNtNtCs62MdaZFMefA_5quote9to_tokens8ToTokens17into_token_streamB6_, symObjAddr: 0x53FC, symBinAddr: 0x1FC58, symSize: 0x64 }
  - { offset: 0x929BC, size: 0x8, addend: 0x0, symName: __RNvYNtNtCsATtFUPiRFW_3syn4item7UseTreeNtNtCs62MdaZFMefA_5quote9to_tokens8ToTokens15to_token_streamB6_, symObjAddr: 0x5524, symBinAddr: 0x1FD80, symSize: 0x8C }
  - { offset: 0x92A06, size: 0x8, addend: 0x0, symName: __RNvYNtNtCsATtFUPiRFW_3syn4item7UseTreeNtNtCs62MdaZFMefA_5quote9to_tokens8ToTokens17into_token_streamB6_, symObjAddr: 0x55B0, symBinAddr: 0x1FE0C, symSize: 0x64 }
  - { offset: 0x92A3C, size: 0x8, addend: 0x0, symName: __RNvYNtNtCsATtFUPiRFW_3syn4item8ImplItemNtNtCs62MdaZFMefA_5quote9to_tokens8ToTokens15to_token_streamB6_, symObjAddr: 0x56D8, symBinAddr: 0x1FF34, symSize: 0x8C }
  - { offset: 0x92A86, size: 0x8, addend: 0x0, symName: __RNvYNtNtCsATtFUPiRFW_3syn4item8ImplItemNtNtCs62MdaZFMefA_5quote9to_tokens8ToTokens17into_token_streamB6_, symObjAddr: 0x5764, symBinAddr: 0x1FFC0, symSize: 0x64 }
  - { offset: 0x92ABC, size: 0x8, addend: 0x0, symName: __RNvYNtNtCsATtFUPiRFW_3syn4item8ItemEnumNtNtCs62MdaZFMefA_5quote9to_tokens8ToTokens15to_token_streamB6_, symObjAddr: 0x5894, symBinAddr: 0x200F0, symSize: 0x8C }
  - { offset: 0x92B06, size: 0x8, addend: 0x0, symName: __RNvYNtNtCsATtFUPiRFW_3syn4item8ItemEnumNtNtCs62MdaZFMefA_5quote9to_tokens8ToTokens17into_token_streamB6_, symObjAddr: 0x5920, symBinAddr: 0x2017C, symSize: 0x64 }
  - { offset: 0x92B3C, size: 0x8, addend: 0x0, symName: __RNvYNtNtCsATtFUPiRFW_3syn4item8ItemImplNtNtCs62MdaZFMefA_5quote9to_tokens8ToTokens15to_token_streamB6_, symObjAddr: 0x5A50, symBinAddr: 0x202AC, symSize: 0x8C }
  - { offset: 0x92B86, size: 0x8, addend: 0x0, symName: __RNvYNtNtCsATtFUPiRFW_3syn4item8ItemImplNtNtCs62MdaZFMefA_5quote9to_tokens8ToTokens17into_token_streamB6_, symObjAddr: 0x5ADC, symBinAddr: 0x20338, symSize: 0x64 }
  - { offset: 0x92BBC, size: 0x8, addend: 0x0, symName: __RNvYNtNtCsATtFUPiRFW_3syn4item8ItemTypeNtNtCs62MdaZFMefA_5quote9to_tokens8ToTokens15to_token_streamB6_, symObjAddr: 0x5C0C, symBinAddr: 0x20468, symSize: 0x8C }
  - { offset: 0x92C06, size: 0x8, addend: 0x0, symName: __RNvYNtNtCsATtFUPiRFW_3syn4item8ItemTypeNtNtCs62MdaZFMefA_5quote9to_tokens8ToTokens17into_token_streamB6_, symObjAddr: 0x5C98, symBinAddr: 0x204F4, symSize: 0x64 }
  - { offset: 0x92C3C, size: 0x8, addend: 0x0, symName: __RNvYNtNtCsATtFUPiRFW_3syn4item8ReceiverNtNtCs62MdaZFMefA_5quote9to_tokens8ToTokens15to_token_streamB6_, symObjAddr: 0x5DC8, symBinAddr: 0x20624, symSize: 0x8C }
  - { offset: 0x92C86, size: 0x8, addend: 0x0, symName: __RNvYNtNtCsATtFUPiRFW_3syn4item8ReceiverNtNtCs62MdaZFMefA_5quote9to_tokens8ToTokens17into_token_streamB6_, symObjAddr: 0x5E54, symBinAddr: 0x206B0, symSize: 0x64 }
  - { offset: 0x92CBC, size: 0x8, addend: 0x0, symName: __RNvYNtNtCsATtFUPiRFW_3syn4item8UseGroupNtNtCs62MdaZFMefA_5quote9to_tokens8ToTokens15to_token_streamB6_, symObjAddr: 0x5F7C, symBinAddr: 0x207D8, symSize: 0x8C }
  - { offset: 0x92D06, size: 0x8, addend: 0x0, symName: __RNvYNtNtCsATtFUPiRFW_3syn4item8UseGroupNtNtCs62MdaZFMefA_5quote9to_tokens8ToTokens17into_token_streamB6_, symObjAddr: 0x6008, symBinAddr: 0x20864, symSize: 0x64 }
  - { offset: 0x92D3C, size: 0x8, addend: 0x0, symName: __RNvYNtNtCsATtFUPiRFW_3syn4item8VariadicNtNtCs62MdaZFMefA_5quote9to_tokens8ToTokens15to_token_streamB6_, symObjAddr: 0x6130, symBinAddr: 0x2098C, symSize: 0x8C }
  - { offset: 0x92D86, size: 0x8, addend: 0x0, symName: __RNvYNtNtCsATtFUPiRFW_3syn4item8VariadicNtNtCs62MdaZFMefA_5quote9to_tokens8ToTokens17into_token_streamB6_, symObjAddr: 0x61BC, symBinAddr: 0x20A18, symSize: 0x64 }
  - { offset: 0x92DBC, size: 0x8, addend: 0x0, symName: __RNvYNtNtCsATtFUPiRFW_3syn4item9ItemConstNtNtCs62MdaZFMefA_5quote9to_tokens8ToTokens15to_token_streamB6_, symObjAddr: 0x62E4, symBinAddr: 0x20B40, symSize: 0x8C }
  - { offset: 0x92E06, size: 0x8, addend: 0x0, symName: __RNvYNtNtCsATtFUPiRFW_3syn4item9ItemConstNtNtCs62MdaZFMefA_5quote9to_tokens8ToTokens17into_token_streamB6_, symObjAddr: 0x6370, symBinAddr: 0x20BCC, symSize: 0x64 }
  - { offset: 0x92E3C, size: 0x8, addend: 0x0, symName: __RNvYNtNtCsATtFUPiRFW_3syn4item9ItemMacroNtNtCs62MdaZFMefA_5quote9to_tokens8ToTokens15to_token_streamB6_, symObjAddr: 0x64A0, symBinAddr: 0x20CFC, symSize: 0x8C }
  - { offset: 0x92E86, size: 0x8, addend: 0x0, symName: __RNvYNtNtCsATtFUPiRFW_3syn4item9ItemMacroNtNtCs62MdaZFMefA_5quote9to_tokens8ToTokens17into_token_streamB6_, symObjAddr: 0x652C, symBinAddr: 0x20D88, symSize: 0x64 }
  - { offset: 0x92EBC, size: 0x8, addend: 0x0, symName: __RNvYNtNtCsATtFUPiRFW_3syn4item9ItemTraitNtNtCs62MdaZFMefA_5quote9to_tokens8ToTokens15to_token_streamB6_, symObjAddr: 0x6654, symBinAddr: 0x20EB0, symSize: 0x8C }
  - { offset: 0x92F06, size: 0x8, addend: 0x0, symName: __RNvYNtNtCsATtFUPiRFW_3syn4item9ItemTraitNtNtCs62MdaZFMefA_5quote9to_tokens8ToTokens17into_token_streamB6_, symObjAddr: 0x66E0, symBinAddr: 0x20F3C, symSize: 0x64 }
  - { offset: 0x92F3C, size: 0x8, addend: 0x0, symName: __RNvYNtNtCsATtFUPiRFW_3syn4item9ItemUnionNtNtCs62MdaZFMefA_5quote9to_tokens8ToTokens15to_token_streamB6_, symObjAddr: 0x6810, symBinAddr: 0x2106C, symSize: 0x8C }
  - { offset: 0x92F86, size: 0x8, addend: 0x0, symName: __RNvYNtNtCsATtFUPiRFW_3syn4item9ItemUnionNtNtCs62MdaZFMefA_5quote9to_tokens8ToTokens17into_token_streamB6_, symObjAddr: 0x689C, symBinAddr: 0x210F8, symSize: 0x64 }
  - { offset: 0x92FBC, size: 0x8, addend: 0x0, symName: __RNvYNtNtCsATtFUPiRFW_3syn4item9SignatureNtNtCs62MdaZFMefA_5quote9to_tokens8ToTokens15to_token_streamB6_, symObjAddr: 0x69CC, symBinAddr: 0x21228, symSize: 0x8C }
  - { offset: 0x93006, size: 0x8, addend: 0x0, symName: __RNvYNtNtCsATtFUPiRFW_3syn4item9SignatureNtNtCs62MdaZFMefA_5quote9to_tokens8ToTokens17into_token_streamB6_, symObjAddr: 0x6A58, symBinAddr: 0x212B4, symSize: 0x64 }
  - { offset: 0x9303C, size: 0x8, addend: 0x0, symName: __RNvYNtNtCsATtFUPiRFW_3syn4item9TraitItemNtNtCs62MdaZFMefA_5quote9to_tokens8ToTokens15to_token_streamB6_, symObjAddr: 0x6B88, symBinAddr: 0x213E4, symSize: 0x8C }
  - { offset: 0x93086, size: 0x8, addend: 0x0, symName: __RNvYNtNtCsATtFUPiRFW_3syn4item9TraitItemNtNtCs62MdaZFMefA_5quote9to_tokens8ToTokens17into_token_streamB6_, symObjAddr: 0x6C14, symBinAddr: 0x21470, symSize: 0x64 }
  - { offset: 0x930BC, size: 0x8, addend: 0x0, symName: __RNvYNtNtCsATtFUPiRFW_3syn4item9UseRenameNtNtCs62MdaZFMefA_5quote9to_tokens8ToTokens15to_token_streamB6_, symObjAddr: 0x6D44, symBinAddr: 0x215A0, symSize: 0x8C }
  - { offset: 0x93106, size: 0x8, addend: 0x0, symName: __RNvYNtNtCsATtFUPiRFW_3syn4item9UseRenameNtNtCs62MdaZFMefA_5quote9to_tokens8ToTokens17into_token_streamB6_, symObjAddr: 0x6DD0, symBinAddr: 0x2162C, symSize: 0x64 }
  - { offset: 0x9338B, size: 0x8, addend: 0x0, symName: __RNvMNtCsATtFUPiRFW_3syn4itemNtB2_4Item13replace_attrs, symObjAddr: 0x6EF8, symBinAddr: 0x21754, symSize: 0x328 }
  - { offset: 0x933EE, size: 0x8, addend: 0x0, symName: __RNvMs3_NtCsATtFUPiRFW_3syn4itemNtB5_9Signature8receiver, symObjAddr: 0x764C, symBinAddr: 0x21EA8, symSize: 0xE8 }
  - { offset: 0x9346F, size: 0x8, addend: 0x0, symName: __RNvMs4_NtCsATtFUPiRFW_3syn4itemNtB5_8Receiver8lifetime, symObjAddr: 0x7734, symBinAddr: 0x21F90, symSize: 0x90 }
  - { offset: 0x93591, size: 0x8, addend: 0x0, symName: __RNvMs1Q_NtNtCsATtFUPiRFW_3syn3gen5debugNtNtBa_4item13ForeignItemFn5debug, symObjAddr: 0x1FC2C, symBinAddr: 0x3A488, symSize: 0x104 }
  - { offset: 0x935FD, size: 0x8, addend: 0x0, symName: __RNvMs1S_NtNtCsATtFUPiRFW_3syn3gen5debugNtNtBa_4item16ForeignItemMacro5debug, symObjAddr: 0x1FD7C, symBinAddr: 0x3A5D8, symSize: 0xDC }
  - { offset: 0x93669, size: 0x8, addend: 0x0, symName: __RNvMs1U_NtNtCsATtFUPiRFW_3syn3gen5debugNtNtBa_4item17ForeignItemStatic5debug, symObjAddr: 0x1FEA4, symBinAddr: 0x3A700, symSize: 0x1A4 }
  - { offset: 0x936D5, size: 0x8, addend: 0x0, symName: __RNvMs1W_NtNtCsATtFUPiRFW_3syn3gen5debugNtNtBa_4item15ForeignItemType5debug, symObjAddr: 0x20094, symBinAddr: 0x3A8F0, symSize: 0x154 }
  - { offset: 0x93741, size: 0x8, addend: 0x0, symName: __RNvMs22_NtNtCsATtFUPiRFW_3syn3gen5debugNtNtBa_4item13ImplItemConst5debug, symObjAddr: 0x2049C, symBinAddr: 0x3ACF8, symSize: 0x218 }
  - { offset: 0x937AD, size: 0x8, addend: 0x0, symName: __RNvMs24_NtNtCsATtFUPiRFW_3syn3gen5debugNtNtBa_4item10ImplItemFn5debug, symObjAddr: 0x20700, symBinAddr: 0x3AF5C, symSize: 0x12C }
  - { offset: 0x93819, size: 0x8, addend: 0x0, symName: __RNvMs26_NtNtCsATtFUPiRFW_3syn3gen5debugNtNtBa_4item13ImplItemMacro5debug, symObjAddr: 0x20878, symBinAddr: 0x3B0D4, symSize: 0xDC }
  - { offset: 0x93885, size: 0x8, addend: 0x0, symName: __RNvMs28_NtNtCsATtFUPiRFW_3syn3gen5debugNtNtBa_4item12ImplItemType5debug, symObjAddr: 0x209A0, symBinAddr: 0x3B1FC, symSize: 0x1CC }
  - { offset: 0x938F1, size: 0x8, addend: 0x0, symName: __RNvMs2d_NtNtCsATtFUPiRFW_3syn3gen5debugNtNtBa_4item9ItemConst5debug, symObjAddr: 0x21128, symBinAddr: 0x3B984, symSize: 0x1F4 }
  - { offset: 0x9395D, size: 0x8, addend: 0x0, symName: __RNvMs2f_NtNtCsATtFUPiRFW_3syn3gen5debugNtNtBa_4item8ItemEnum5debug, symObjAddr: 0x21368, symBinAddr: 0x3BBC4, symSize: 0x17C }
  - { offset: 0x939C9, size: 0x8, addend: 0x0, symName: __RNvMs2h_NtNtCsATtFUPiRFW_3syn3gen5debugNtNtBa_4item15ItemExternCrate5debug, symObjAddr: 0x21530, symBinAddr: 0x3BD8C, symSize: 0x17C }
  - { offset: 0x93A35, size: 0x8, addend: 0x0, symName: __RNvMs2j_NtNtCsATtFUPiRFW_3syn3gen5debugNtNtBa_4item6ItemFn5debug, symObjAddr: 0x216F8, symBinAddr: 0x3BF54, symSize: 0x104 }
  - { offset: 0x93AA1, size: 0x8, addend: 0x0, symName: __RNvMs2l_NtNtCsATtFUPiRFW_3syn3gen5debugNtNtBa_4item14ItemForeignMod5debug, symObjAddr: 0x21848, symBinAddr: 0x3C0A4, symSize: 0x12C }
  - { offset: 0x93B0D, size: 0x8, addend: 0x0, symName: __RNvMs2n_NtNtCsATtFUPiRFW_3syn3gen5debugNtNtBa_4item8ItemImpl5debug, symObjAddr: 0x219C0, symBinAddr: 0x3C21C, symSize: 0x1CC }
  - { offset: 0x93B79, size: 0x8, addend: 0x0, symName: __RNvMs2p_NtNtCsATtFUPiRFW_3syn3gen5debugNtNtBa_4item9ItemMacro5debug, symObjAddr: 0x21BD8, symBinAddr: 0x3C434, symSize: 0x104 }
  - { offset: 0x93BE5, size: 0x8, addend: 0x0, symName: __RNvMs2r_NtNtCsATtFUPiRFW_3syn3gen5debugNtNtBa_4item7ItemMod5debug, symObjAddr: 0x21D28, symBinAddr: 0x3C584, symSize: 0x17C }
  - { offset: 0x93C51, size: 0x8, addend: 0x0, symName: __RNvMs2t_NtNtCsATtFUPiRFW_3syn3gen5debugNtNtBa_4item10ItemStatic5debug, symObjAddr: 0x21EF0, symBinAddr: 0x3C74C, symSize: 0x1F4 }
  - { offset: 0x93CBD, size: 0x8, addend: 0x0, symName: __RNvMs2v_NtNtCsATtFUPiRFW_3syn3gen5debugNtNtBa_4item10ItemStruct5debug, symObjAddr: 0x22130, symBinAddr: 0x3C98C, symSize: 0x17C }
  - { offset: 0x93D29, size: 0x8, addend: 0x0, symName: __RNvMs2x_NtNtCsATtFUPiRFW_3syn3gen5debugNtNtBa_4item9ItemTrait5debug, symObjAddr: 0x222F8, symBinAddr: 0x3CB54, symSize: 0x234 }
  - { offset: 0x93D95, size: 0x8, addend: 0x0, symName: __RNvMs2z_NtNtCsATtFUPiRFW_3syn3gen5debugNtNtBa_4item14ItemTraitAlias5debug, symObjAddr: 0x22578, symBinAddr: 0x3CDD4, symSize: 0x1A4 }
  - { offset: 0x93E01, size: 0x8, addend: 0x0, symName: __RNvMs2B_NtNtCsATtFUPiRFW_3syn3gen5debugNtNtBa_4item8ItemType5debug, symObjAddr: 0x22768, symBinAddr: 0x3CFC4, symSize: 0x1A4 }
  - { offset: 0x93E6D, size: 0x8, addend: 0x0, symName: __RNvMs2D_NtNtCsATtFUPiRFW_3syn3gen5debugNtNtBa_4item9ItemUnion5debug, symObjAddr: 0x22958, symBinAddr: 0x3D1B4, symSize: 0x154 }
  - { offset: 0x93ED9, size: 0x8, addend: 0x0, symName: __RNvMs2F_NtNtCsATtFUPiRFW_3syn3gen5debugNtNtBa_4item7ItemUse5debug, symObjAddr: 0x22AF8, symBinAddr: 0x3D354, symSize: 0x154 }
  - { offset: 0x93F45, size: 0x8, addend: 0x0, symName: __RNvMs3G_NtNtCsATtFUPiRFW_3syn3gen5debugNtNtBa_4item14TraitItemConst5debug, symObjAddr: 0x233A4, symBinAddr: 0x3DC00, symSize: 0x1A4 }
  - { offset: 0x93FB1, size: 0x8, addend: 0x0, symName: __RNvMs3I_NtNtCsATtFUPiRFW_3syn3gen5debugNtNtBa_4item11TraitItemFn5debug, symObjAddr: 0x23594, symBinAddr: 0x3DDF0, symSize: 0x104 }
  - { offset: 0x9401D, size: 0x8, addend: 0x0, symName: __RNvMs3K_NtNtCsATtFUPiRFW_3syn3gen5debugNtNtBa_4item14TraitItemMacro5debug, symObjAddr: 0x236E4, symBinAddr: 0x3DF40, symSize: 0xDC }
  - { offset: 0x94089, size: 0x8, addend: 0x0, symName: __RNvMs3M_NtNtCsATtFUPiRFW_3syn3gen5debugNtNtBa_4item13TraitItemType5debug, symObjAddr: 0x2380C, symBinAddr: 0x3E068, symSize: 0x1A4 }
  - { offset: 0x9483D, size: 0x8, addend: 0x0, symName: __RINvXNtNtCsdze8u8oDPro_5alloc5slice4hackNtNtCsATtFUPiRFW_3syn4expr3ArmNtB3_10ConvertVec6to_vecNtNtB7_5alloc6GlobalEBG_, symObjAddr: 0x0, symBinAddr: 0x42924, symSize: 0x2C0 }
  - { offset: 0x95831, size: 0x8, addend: 0x0, symName: __RINvXNtNtCsdze8u8oDPro_5alloc5slice4hackNtNtCsATtFUPiRFW_3syn4expr3ArmNtB3_10ConvertVec6to_vecNtNtB7_5alloc6GlobalEBG_, symObjAddr: 0x0, symBinAddr: 0x42924, symSize: 0x2C0 }
  - { offset: 0x95B81, size: 0x8, addend: 0x0, symName: __RINvXNtNtCsdze8u8oDPro_5alloc5slice4hackTNtNtCsATtFUPiRFW_3syn4expr10FieldValueNtNtBH_5token5CommaENtB3_10ConvertVec6to_vecNtNtB7_5alloc6GlobalEBH_, symObjAddr: 0x2C0, symBinAddr: 0x42BE4, symSize: 0x2C0 }
  - { offset: 0x95ED1, size: 0x8, addend: 0x0, symName: __RINvXNtNtCsdze8u8oDPro_5alloc5slice4hackTNtNtCsATtFUPiRFW_3syn4expr4ExprNtNtBH_5token5CommaENtB3_10ConvertVec6to_vecNtNtB7_5alloc6GlobalEBH_, symObjAddr: 0x580, symBinAddr: 0x42EA4, symSize: 0x2BC }
  - { offset: 0x98D98, size: 0x8, addend: 0x0, symName: __RNvXs_NtCsATtFUPiRFW_3syn4exprNtB4_6MemberINtNtCs9f3LFPSIp77_4core7convert4FromNtCs475r2uZUTuc_11proc_macro25IdentE4from, symObjAddr: 0x72C4, symBinAddr: 0x49BE8, symSize: 0x28 }
  - { offset: 0x98DCC, size: 0x8, addend: 0x0, symName: __RNvXs0_NtCsATtFUPiRFW_3syn4exprNtB5_6MemberINtNtCs9f3LFPSIp77_4core7convert4FromNtB5_5IndexE4from, symObjAddr: 0x72EC, symBinAddr: 0x49C10, symSize: 0x38 }
  - { offset: 0x98E00, size: 0x8, addend: 0x0, symName: __RNvXs1_NtCsATtFUPiRFW_3syn4exprNtB5_6MemberINtNtCs9f3LFPSIp77_4core7convert4FromjE4from, symObjAddr: 0x7324, symBinAddr: 0x49C48, symSize: 0x48 }
  - { offset: 0x98E34, size: 0x8, addend: 0x0, symName: __RNvXs3_NtCsATtFUPiRFW_3syn4exprNtB5_6MemberNtNtCs9f3LFPSIp77_4core3cmp9PartialEq2eq, symObjAddr: 0x736C, symBinAddr: 0x49C90, symSize: 0x15C }
  - { offset: 0x98ED3, size: 0x8, addend: 0x0, symName: __RNvXs5_NtCsATtFUPiRFW_3syn4exprNtB5_6MemberNtNtCs62MdaZFMefA_5quote14ident_fragment13IdentFragment3fmt, symObjAddr: 0x74C8, symBinAddr: 0x49DEC, symSize: 0xA8 }
  - { offset: 0x98F44, size: 0x8, addend: 0x0, symName: __RNvXs5_NtCsATtFUPiRFW_3syn4exprNtB5_6MemberNtNtCs62MdaZFMefA_5quote14ident_fragment13IdentFragment4span, symObjAddr: 0x7570, symBinAddr: 0x49E94, symSize: 0xA8 }
  - { offset: 0x98FB4, size: 0x8, addend: 0x0, symName: __RNvXs7_NtCsATtFUPiRFW_3syn4exprNtB5_5IndexINtNtCs9f3LFPSIp77_4core7convert4FromjE4from, symObjAddr: 0x7684, symBinAddr: 0x49FA8, symSize: 0x84 }
  - { offset: 0x98FE8, size: 0x8, addend: 0x0, symName: __RNvXs9_NtCsATtFUPiRFW_3syn4exprNtB5_5IndexNtNtCs9f3LFPSIp77_4core3cmp9PartialEq2eq, symObjAddr: 0x7708, symBinAddr: 0x4A02C, symSize: 0x3C }
  - { offset: 0x9902B, size: 0x8, addend: 0x0, symName: __RNvXsb_NtCsATtFUPiRFW_3syn4exprNtB5_5IndexNtNtCs62MdaZFMefA_5quote14ident_fragment13IdentFragment3fmt, symObjAddr: 0x7744, symBinAddr: 0x4A068, symSize: 0x3C }
  - { offset: 0x99068, size: 0x8, addend: 0x0, symName: __RNvXsb_NtCsATtFUPiRFW_3syn4exprNtB5_5IndexNtNtCs62MdaZFMefA_5quote14ident_fragment13IdentFragment4span, symObjAddr: 0x7780, symBinAddr: 0x4A0A4, symSize: 0x3C }
  - { offset: 0x990A1, size: 0x8, addend: 0x0, symName: __RNvXNtNtCsATtFUPiRFW_3syn4expr7parsingNtB4_4ExprNtNtB6_5parse5Parse5parse, symObjAddr: 0x77BC, symBinAddr: 0x4A0E0, symSize: 0x3C }
  - { offset: 0x990D5, size: 0x8, addend: 0x0, symName: __RNvXs1_NtNtCsATtFUPiRFW_3syn4expr7parsingNtB7_9ExprMacroNtNtB9_5parse5Parse5parse, symObjAddr: 0x77F8, symBinAddr: 0x4A11C, symSize: 0x16C }
  - { offset: 0x99128, size: 0x8, addend: 0x0, symName: __RNvXs2_NtNtCsATtFUPiRFW_3syn4expr7parsingNtB7_9ExprArrayNtNtB9_5parse5Parse5parse, symObjAddr: 0x7964, symBinAddr: 0x4A288, symSize: 0x488 }
  - { offset: 0x99259, size: 0x8, addend: 0x0, symName: __RNvXs3_NtNtCsATtFUPiRFW_3syn4expr7parsingNtB7_10ExprRepeatNtNtB9_5parse5Parse5parse, symObjAddr: 0x7DEC, symBinAddr: 0x4A710, symSize: 0x48C }
  - { offset: 0x99354, size: 0x8, addend: 0x0, symName: __RNvXs4_NtNtCsATtFUPiRFW_3syn4expr7parsingNtB7_7ExprLitNtNtB9_5parse5Parse5parse, symObjAddr: 0x8278, symBinAddr: 0x4AB9C, symSize: 0x14C }
  - { offset: 0x993A7, size: 0x8, addend: 0x0, symName: __RNvXs5_NtNtCsATtFUPiRFW_3syn4expr7parsingNtB7_9ExprParenNtNtB9_5parse5Parse5parse, symObjAddr: 0x83C4, symBinAddr: 0x4ACE8, symSize: 0x2B4 }
  - { offset: 0x99444, size: 0x8, addend: 0x0, symName: __RNvXs6_NtNtCsATtFUPiRFW_3syn4expr7parsingNtB7_7ExprLetNtNtB9_5parse5Parse5parse, symObjAddr: 0x8678, symBinAddr: 0x4AF9C, symSize: 0x44 }
  - { offset: 0x9948D, size: 0x8, addend: 0x0, symName: __RNvXs7_NtNtCsATtFUPiRFW_3syn4expr7parsingNtB7_6ExprIfNtNtB9_5parse5Parse5parse, symObjAddr: 0x86BC, symBinAddr: 0x4AFE0, symSize: 0x1018 }
  - { offset: 0x99702, size: 0x8, addend: 0x0, symName: __RNvXs8_NtNtCsATtFUPiRFW_3syn4expr7parsingNtB7_9ExprInferNtNtB9_5parse5Parse5parse, symObjAddr: 0x96D4, symBinAddr: 0x4BFF8, symSize: 0x1E0 }
  - { offset: 0x99793, size: 0x8, addend: 0x0, symName: __RNvXs9_NtNtCsATtFUPiRFW_3syn4expr7parsingNtB7_11ExprForLoopNtNtB9_5parse5Parse5parse, symObjAddr: 0x98B4, symBinAddr: 0x4C1D8, symSize: 0x9B8 }
  - { offset: 0x99A5F, size: 0x8, addend: 0x0, symName: __RNvXsa_NtNtCsATtFUPiRFW_3syn4expr7parsingNtB7_8ExprLoopNtNtB9_5parse5Parse5parse, symObjAddr: 0xA26C, symBinAddr: 0x4CB90, symSize: 0x5A4 }
  - { offset: 0x99C10, size: 0x8, addend: 0x0, symName: __RNvXsb_NtNtCsATtFUPiRFW_3syn4expr7parsingNtB7_9ExprMatchNtNtB9_5parse5Parse5parse, symObjAddr: 0xA810, symBinAddr: 0x4D134, symSize: 0x620 }
  - { offset: 0x99DF7, size: 0x8, addend: 0x0, symName: __RNvXsc_NtNtCsATtFUPiRFW_3syn4expr7parsingNtB7_9ExprUnaryNtNtB9_5parse5Parse5parse, symObjAddr: 0xAE30, symBinAddr: 0x4D754, symSize: 0x60 }
  - { offset: 0x99E66, size: 0x8, addend: 0x0, symName: __RNvXsd_NtNtCsATtFUPiRFW_3syn4expr7parsingNtB7_11ExprClosureNtNtB9_5parse5Parse5parse, symObjAddr: 0xAE90, symBinAddr: 0x4D7B4, symSize: 0x44 }
  - { offset: 0x99EAF, size: 0x8, addend: 0x0, symName: __RNvXse_NtNtCsATtFUPiRFW_3syn4expr7parsingNtB7_11ExprRawAddrNtNtB9_5parse5Parse5parse, symObjAddr: 0xAED4, symBinAddr: 0x4D7F8, symSize: 0x40C }
  - { offset: 0x99F95, size: 0x8, addend: 0x0, symName: __RNvXsf_NtNtCsATtFUPiRFW_3syn4expr7parsingNtB7_13ExprReferenceNtNtB9_5parse5Parse5parse, symObjAddr: 0xB2E0, symBinAddr: 0x4DC04, symSize: 0x35C }
  - { offset: 0x9A05B, size: 0x8, addend: 0x0, symName: __RNvXsg_NtNtCsATtFUPiRFW_3syn4expr7parsingNtB7_9ExprBreakNtNtB9_5parse5Parse5parse, symObjAddr: 0xB63C, symBinAddr: 0x4DF60, symSize: 0x44 }
  - { offset: 0x9A0A4, size: 0x8, addend: 0x0, symName: __RNvXsh_NtNtCsATtFUPiRFW_3syn4expr7parsingNtB7_10ExprReturnNtNtB9_5parse5Parse5parse, symObjAddr: 0xB680, symBinAddr: 0x4DFA4, symSize: 0x224 }
  - { offset: 0x9A106, size: 0x8, addend: 0x0, symName: __RNvXsi_NtNtCsATtFUPiRFW_3syn4expr7parsingNtB7_12ExprTryBlockNtNtB9_5parse5Parse5parse, symObjAddr: 0xB8A4, symBinAddr: 0x4E1C8, symSize: 0x230 }
  - { offset: 0x9A178, size: 0x8, addend: 0x0, symName: __RNvXsj_NtNtCsATtFUPiRFW_3syn4expr7parsingNtB7_9ExprYieldNtNtB9_5parse5Parse5parse, symObjAddr: 0xBAD4, symBinAddr: 0x4E3F8, symSize: 0x224 }
  - { offset: 0x9A1DA, size: 0x8, addend: 0x0, symName: __RNvXsk_NtNtCsATtFUPiRFW_3syn4expr7parsingNtB7_9ExprAsyncNtNtB9_5parse5Parse5parse, symObjAddr: 0xBCF8, symBinAddr: 0x4E61C, symSize: 0x2F4 }
  - { offset: 0x9A26B, size: 0x8, addend: 0x0, symName: __RNvXsl_NtNtCsATtFUPiRFW_3syn4expr7parsingNtB7_9ExprWhileNtNtB9_5parse5Parse5parse, symObjAddr: 0xBFEC, symBinAddr: 0x4E910, symSize: 0x774 }
  - { offset: 0x9A49F, size: 0x8, addend: 0x0, symName: __RNvXsm_NtNtCsATtFUPiRFW_3syn4expr7parsingNtB7_9ExprConstNtNtB9_5parse5Parse5parse, symObjAddr: 0xC760, symBinAddr: 0x4F084, symSize: 0x3C8 }
  - { offset: 0x9A5F3, size: 0x8, addend: 0x0, symName: __RNvXsn_NtNtCsATtFUPiRFW_3syn4expr7parsingNtB7_5LabelNtNtB9_5parse5Parse5parse, symObjAddr: 0xCB28, symBinAddr: 0x4F44C, symSize: 0x1E4 }
  - { offset: 0x9A684, size: 0x8, addend: 0x0, symName: __RNvXsp_NtNtCsATtFUPiRFW_3syn4expr7parsingNtB7_12ExprContinueNtNtB9_5parse5Parse5parse, symObjAddr: 0xCD0C, symBinAddr: 0x4F630, symSize: 0x210 }
  - { offset: 0x9A6F6, size: 0x8, addend: 0x0, symName: __RNvXsq_NtNtCsATtFUPiRFW_3syn4expr7parsingNtB7_10FieldValueNtNtB9_5parse5Parse5parse, symObjAddr: 0xCF1C, symBinAddr: 0x4F840, symSize: 0x56C }
  - { offset: 0x9A893, size: 0x8, addend: 0x0, symName: __RNvXsr_NtNtCsATtFUPiRFW_3syn4expr7parsingNtB7_10ExprStructNtNtB9_5parse5Parse5parse, symObjAddr: 0xD488, symBinAddr: 0x4FDAC, symSize: 0x1C0 }
  - { offset: 0x9A92B, size: 0x8, addend: 0x0, symName: __RNvXss_NtNtCsATtFUPiRFW_3syn4expr7parsingNtB7_10ExprUnsafeNtNtB9_5parse5Parse5parse, symObjAddr: 0xD648, symBinAddr: 0x4FF6C, symSize: 0x3C8 }
  - { offset: 0x9AA7F, size: 0x8, addend: 0x0, symName: __RNvXst_NtNtCsATtFUPiRFW_3syn4expr7parsingNtB7_9ExprBlockNtNtB9_5parse5Parse5parse, symObjAddr: 0xDA10, symBinAddr: 0x50334, symSize: 0x510 }
  - { offset: 0x9AC04, size: 0x8, addend: 0x0, symName: __RNvXsu_NtNtCsATtFUPiRFW_3syn4expr7parsingNtB7_11RangeLimitsNtNtB9_5parse5Parse5parse, symObjAddr: 0xDF20, symBinAddr: 0x50844, symSize: 0x24C }
  - { offset: 0x9AC8F, size: 0x8, addend: 0x0, symName: __RNvXsw_NtNtCsATtFUPiRFW_3syn4expr7parsingNtB7_8ExprPathNtNtB9_5parse5Parse5parse, symObjAddr: 0xE4C0, symBinAddr: 0x50DE4, symSize: 0x248 }
  - { offset: 0x9AD7C, size: 0x8, addend: 0x0, symName: __RNvXsx_NtNtCsATtFUPiRFW_3syn4expr7parsingNtB7_6MemberNtNtB9_5parse5Parse5parse, symObjAddr: 0xE708, symBinAddr: 0x5102C, symSize: 0x110 }
  - { offset: 0x9ADB0, size: 0x8, addend: 0x0, symName: __RNvXsz_NtNtCsATtFUPiRFW_3syn4expr7parsingNtB7_3ArmNtNtB9_5parse5Parse5parse, symObjAddr: 0xE9E8, symBinAddr: 0x5130C, symSize: 0x91C }
  - { offset: 0x9AFE5, size: 0x8, addend: 0x0, symName: __RNvXsA_NtNtCsATtFUPiRFW_3syn4expr7parsingNtB7_5IndexNtNtB9_5parse5Parse5parse, symObjAddr: 0xF304, symBinAddr: 0x51C28, symSize: 0x29C }
  - { offset: 0x9B08D, size: 0x8, addend: 0x0, symName: __RNvXsB_NtNtCsATtFUPiRFW_3syn4expr7parsingNtB7_17PointerMutabilityNtNtB9_5parse5Parse5parse, symObjAddr: 0xF5A0, symBinAddr: 0x51EC4, symSize: 0x2DC }
  - { offset: 0x9B10D, size: 0x8, addend: 0x0, symName: __RNvXsC_NtNtCsATtFUPiRFW_3syn4expr7parsingNtB7_10ExprAssignNtNtB9_5parse5Parse5parse, symObjAddr: 0x12638, symBinAddr: 0x54F5C, symSize: 0x44C }
  - { offset: 0x9B1CC, size: 0x8, addend: 0x0, symName: __RNvXsD_NtNtCsATtFUPiRFW_3syn4expr7parsingNtB7_9ExprAwaitNtNtB9_5parse5Parse5parse, symObjAddr: 0x12A84, symBinAddr: 0x553A8, symSize: 0x44C }
  - { offset: 0x9B28B, size: 0x8, addend: 0x0, symName: __RNvXsE_NtNtCsATtFUPiRFW_3syn4expr7parsingNtB7_10ExprBinaryNtNtB9_5parse5Parse5parse, symObjAddr: 0x12ED0, symBinAddr: 0x557F4, symSize: 0x44C }
  - { offset: 0x9B34A, size: 0x8, addend: 0x0, symName: __RNvXsF_NtNtCsATtFUPiRFW_3syn4expr7parsingNtB7_8ExprCallNtNtB9_5parse5Parse5parse, symObjAddr: 0x1331C, symBinAddr: 0x55C40, symSize: 0x44C }
  - { offset: 0x9B409, size: 0x8, addend: 0x0, symName: __RNvXsG_NtNtCsATtFUPiRFW_3syn4expr7parsingNtB7_8ExprCastNtNtB9_5parse5Parse5parse, symObjAddr: 0x13768, symBinAddr: 0x5608C, symSize: 0x44C }
  - { offset: 0x9B4C8, size: 0x8, addend: 0x0, symName: __RNvXsH_NtNtCsATtFUPiRFW_3syn4expr7parsingNtB7_9ExprFieldNtNtB9_5parse5Parse5parse, symObjAddr: 0x13BB4, symBinAddr: 0x564D8, symSize: 0x44C }
  - { offset: 0x9B587, size: 0x8, addend: 0x0, symName: __RNvXsI_NtNtCsATtFUPiRFW_3syn4expr7parsingNtB7_9ExprIndexNtNtB9_5parse5Parse5parse, symObjAddr: 0x14000, symBinAddr: 0x56924, symSize: 0x44C }
  - { offset: 0x9B646, size: 0x8, addend: 0x0, symName: __RNvXsJ_NtNtCsATtFUPiRFW_3syn4expr7parsingNtB7_14ExprMethodCallNtNtB9_5parse5Parse5parse, symObjAddr: 0x1444C, symBinAddr: 0x56D70, symSize: 0x44C }
  - { offset: 0x9B705, size: 0x8, addend: 0x0, symName: __RNvXsK_NtNtCsATtFUPiRFW_3syn4expr7parsingNtB7_9ExprRangeNtNtB9_5parse5Parse5parse, symObjAddr: 0x14898, symBinAddr: 0x571BC, symSize: 0x44C }
  - { offset: 0x9B7C4, size: 0x8, addend: 0x0, symName: __RNvXsL_NtNtCsATtFUPiRFW_3syn4expr7parsingNtB7_7ExprTryNtNtB9_5parse5Parse5parse, symObjAddr: 0x14CE4, symBinAddr: 0x57608, symSize: 0x44C }
  - { offset: 0x9B883, size: 0x8, addend: 0x0, symName: __RNvXsM_NtNtCsATtFUPiRFW_3syn4expr7parsingNtB7_9ExprTupleNtNtB9_5parse5Parse5parse, symObjAddr: 0x15130, symBinAddr: 0x57A54, symSize: 0x44C }
  - { offset: 0x9B95D, size: 0x8, addend: 0x0, symName: __RNvXNtNtCsATtFUPiRFW_3syn4expr8printingNtB4_9ExprArrayNtNtCs62MdaZFMefA_5quote9to_tokens8ToTokens9to_tokens, symObjAddr: 0xF87C, symBinAddr: 0x521A0, symSize: 0x58 }
  - { offset: 0x9B99C, size: 0x8, addend: 0x0, symName: __RNvXs_NtNtCsATtFUPiRFW_3syn4expr8printingNtB6_10ExprAssignNtNtCs62MdaZFMefA_5quote9to_tokens8ToTokens9to_tokens, symObjAddr: 0xF8D4, symBinAddr: 0x521F8, symSize: 0x58 }
  - { offset: 0x9B9DB, size: 0x8, addend: 0x0, symName: __RNvXs0_NtNtCsATtFUPiRFW_3syn4expr8printingNtB7_9ExprAsyncNtNtCs62MdaZFMefA_5quote9to_tokens8ToTokens9to_tokens, symObjAddr: 0xF92C, symBinAddr: 0x52250, symSize: 0x74 }
  - { offset: 0x9BA1A, size: 0x8, addend: 0x0, symName: __RNvXs1_NtNtCsATtFUPiRFW_3syn4expr8printingNtB7_9ExprAwaitNtNtCs62MdaZFMefA_5quote9to_tokens8ToTokens9to_tokens, symObjAddr: 0xF9A0, symBinAddr: 0x522C4, symSize: 0x58 }
  - { offset: 0x9BA59, size: 0x8, addend: 0x0, symName: __RNvXs2_NtNtCsATtFUPiRFW_3syn4expr8printingNtB7_10ExprBinaryNtNtCs62MdaZFMefA_5quote9to_tokens8ToTokens9to_tokens, symObjAddr: 0xF9F8, symBinAddr: 0x5231C, symSize: 0x58 }
  - { offset: 0x9BA98, size: 0x8, addend: 0x0, symName: __RNvXs3_NtNtCsATtFUPiRFW_3syn4expr8printingNtB7_9ExprBlockNtNtCs62MdaZFMefA_5quote9to_tokens8ToTokens9to_tokens, symObjAddr: 0xFA50, symBinAddr: 0x52374, symSize: 0x68 }
  - { offset: 0x9BAD7, size: 0x8, addend: 0x0, symName: __RNvXs4_NtNtCsATtFUPiRFW_3syn4expr8printingNtB7_9ExprBreakNtNtCs62MdaZFMefA_5quote9to_tokens8ToTokens9to_tokens, symObjAddr: 0xFAB8, symBinAddr: 0x523DC, symSize: 0x58 }
  - { offset: 0x9BB16, size: 0x8, addend: 0x0, symName: __RNvXs5_NtNtCsATtFUPiRFW_3syn4expr8printingNtB7_8ExprCallNtNtCs62MdaZFMefA_5quote9to_tokens8ToTokens9to_tokens, symObjAddr: 0xFB10, symBinAddr: 0x52434, symSize: 0x58 }
  - { offset: 0x9BB55, size: 0x8, addend: 0x0, symName: __RNvXs6_NtNtCsATtFUPiRFW_3syn4expr8printingNtB7_8ExprCastNtNtCs62MdaZFMefA_5quote9to_tokens8ToTokens9to_tokens, symObjAddr: 0xFB68, symBinAddr: 0x5248C, symSize: 0x58 }
  - { offset: 0x9BB94, size: 0x8, addend: 0x0, symName: __RNvXs7_NtNtCsATtFUPiRFW_3syn4expr8printingNtB7_11ExprClosureNtNtCs62MdaZFMefA_5quote9to_tokens8ToTokens9to_tokens, symObjAddr: 0xFBC0, symBinAddr: 0x524E4, symSize: 0x58 }
  - { offset: 0x9BBD3, size: 0x8, addend: 0x0, symName: __RNvXs8_NtNtCsATtFUPiRFW_3syn4expr8printingNtB7_9ExprConstNtNtCs62MdaZFMefA_5quote9to_tokens8ToTokens9to_tokens, symObjAddr: 0xFC18, symBinAddr: 0x5253C, symSize: 0x68 }
  - { offset: 0x9BC12, size: 0x8, addend: 0x0, symName: __RNvXs9_NtNtCsATtFUPiRFW_3syn4expr8printingNtB7_12ExprContinueNtNtCs62MdaZFMefA_5quote9to_tokens8ToTokens9to_tokens, symObjAddr: 0xFC80, symBinAddr: 0x525A4, symSize: 0x64 }
  - { offset: 0x9BC51, size: 0x8, addend: 0x0, symName: __RNvXsa_NtNtCsATtFUPiRFW_3syn4expr8printingNtB7_9ExprFieldNtNtCs62MdaZFMefA_5quote9to_tokens8ToTokens9to_tokens, symObjAddr: 0xFCE4, symBinAddr: 0x52608, symSize: 0x58 }
  - { offset: 0x9BC90, size: 0x8, addend: 0x0, symName: __RNvXsb_NtNtCsATtFUPiRFW_3syn4expr8printingNtB7_11ExprForLoopNtNtCs62MdaZFMefA_5quote9to_tokens8ToTokens9to_tokens, symObjAddr: 0xFD3C, symBinAddr: 0x52660, symSize: 0xC0 }
  - { offset: 0x9BCCF, size: 0x8, addend: 0x0, symName: __RNvXsc_NtNtCsATtFUPiRFW_3syn4expr8printingNtB7_9ExprGroupNtNtCs62MdaZFMefA_5quote9to_tokens8ToTokens9to_tokens, symObjAddr: 0xFDFC, symBinAddr: 0x52720, symSize: 0x58 }
  - { offset: 0x9BD0E, size: 0x8, addend: 0x0, symName: __RNvXsd_NtNtCsATtFUPiRFW_3syn4expr8printingNtB7_6ExprIfNtNtCs62MdaZFMefA_5quote9to_tokens8ToTokens9to_tokens, symObjAddr: 0xFE54, symBinAddr: 0x52778, symSize: 0x1DC }
  - { offset: 0x9BDE4, size: 0x8, addend: 0x0, symName: __RNvXse_NtNtCsATtFUPiRFW_3syn4expr8printingNtB7_9ExprIndexNtNtCs62MdaZFMefA_5quote9to_tokens8ToTokens9to_tokens, symObjAddr: 0x10030, symBinAddr: 0x52954, symSize: 0x58 }
  - { offset: 0x9BE23, size: 0x8, addend: 0x0, symName: __RNvXsf_NtNtCsATtFUPiRFW_3syn4expr8printingNtB7_9ExprInferNtNtCs62MdaZFMefA_5quote9to_tokens8ToTokens9to_tokens, symObjAddr: 0x10088, symBinAddr: 0x529AC, symSize: 0x54 }
  - { offset: 0x9BE62, size: 0x8, addend: 0x0, symName: __RNvXsg_NtNtCsATtFUPiRFW_3syn4expr8printingNtB7_7ExprLetNtNtCs62MdaZFMefA_5quote9to_tokens8ToTokens9to_tokens, symObjAddr: 0x100DC, symBinAddr: 0x52A00, symSize: 0x58 }
  - { offset: 0x9BEA1, size: 0x8, addend: 0x0, symName: __RNvXsh_NtNtCsATtFUPiRFW_3syn4expr8printingNtB7_7ExprLitNtNtCs62MdaZFMefA_5quote9to_tokens8ToTokens9to_tokens, symObjAddr: 0x10134, symBinAddr: 0x52A58, symSize: 0x54 }
  - { offset: 0x9BEE0, size: 0x8, addend: 0x0, symName: __RNvXsi_NtNtCsATtFUPiRFW_3syn4expr8printingNtB7_8ExprLoopNtNtCs62MdaZFMefA_5quote9to_tokens8ToTokens9to_tokens, symObjAddr: 0x10188, symBinAddr: 0x52AAC, symSize: 0x78 }
  - { offset: 0x9BF1F, size: 0x8, addend: 0x0, symName: __RNvXsj_NtNtCsATtFUPiRFW_3syn4expr8printingNtB7_9ExprMacroNtNtCs62MdaZFMefA_5quote9to_tokens8ToTokens9to_tokens, symObjAddr: 0x10200, symBinAddr: 0x52B24, symSize: 0x54 }
  - { offset: 0x9BF5E, size: 0x8, addend: 0x0, symName: __RNvXsk_NtNtCsATtFUPiRFW_3syn4expr8printingNtB7_9ExprMatchNtNtCs62MdaZFMefA_5quote9to_tokens8ToTokens9to_tokens, symObjAddr: 0x10254, symBinAddr: 0x52B78, symSize: 0x90 }
  - { offset: 0x9BF9D, size: 0x8, addend: 0x0, symName: __RNvXsl_NtNtCsATtFUPiRFW_3syn4expr8printingNtB7_14ExprMethodCallNtNtCs62MdaZFMefA_5quote9to_tokens8ToTokens9to_tokens, symObjAddr: 0x102E4, symBinAddr: 0x52C08, symSize: 0x58 }
  - { offset: 0x9BFDC, size: 0x8, addend: 0x0, symName: __RNvXsm_NtNtCsATtFUPiRFW_3syn4expr8printingNtB7_9ExprParenNtNtCs62MdaZFMefA_5quote9to_tokens8ToTokens9to_tokens, symObjAddr: 0x1033C, symBinAddr: 0x52C60, symSize: 0x58 }
  - { offset: 0x9C01B, size: 0x8, addend: 0x0, symName: __RNvXsn_NtNtCsATtFUPiRFW_3syn4expr8printingNtB7_8ExprPathNtNtCs62MdaZFMefA_5quote9to_tokens8ToTokens9to_tokens, symObjAddr: 0x10394, symBinAddr: 0x52CB8, symSize: 0x64 }
  - { offset: 0x9C05A, size: 0x8, addend: 0x0, symName: __RNvXso_NtNtCsATtFUPiRFW_3syn4expr8printingNtB7_9ExprRangeNtNtCs62MdaZFMefA_5quote9to_tokens8ToTokens9to_tokens, symObjAddr: 0x103F8, symBinAddr: 0x52D1C, symSize: 0x58 }
  - { offset: 0x9C099, size: 0x8, addend: 0x0, symName: __RNvXsp_NtNtCsATtFUPiRFW_3syn4expr8printingNtB7_11ExprRawAddrNtNtCs62MdaZFMefA_5quote9to_tokens8ToTokens9to_tokens, symObjAddr: 0x10450, symBinAddr: 0x52D74, symSize: 0x58 }
  - { offset: 0x9C0D8, size: 0x8, addend: 0x0, symName: __RNvXsq_NtNtCsATtFUPiRFW_3syn4expr8printingNtB7_13ExprReferenceNtNtCs62MdaZFMefA_5quote9to_tokens8ToTokens9to_tokens, symObjAddr: 0x104A8, symBinAddr: 0x52DCC, symSize: 0x58 }
  - { offset: 0x9C117, size: 0x8, addend: 0x0, symName: __RNvXsr_NtNtCsATtFUPiRFW_3syn4expr8printingNtB7_10ExprRepeatNtNtCs62MdaZFMefA_5quote9to_tokens8ToTokens9to_tokens, symObjAddr: 0x10500, symBinAddr: 0x52E24, symSize: 0x58 }
  - { offset: 0x9C156, size: 0x8, addend: 0x0, symName: __RNvXss_NtNtCsATtFUPiRFW_3syn4expr8printingNtB7_10ExprReturnNtNtCs62MdaZFMefA_5quote9to_tokens8ToTokens9to_tokens, symObjAddr: 0x10558, symBinAddr: 0x52E7C, symSize: 0x58 }
  - { offset: 0x9C195, size: 0x8, addend: 0x0, symName: __RNvXst_NtNtCsATtFUPiRFW_3syn4expr8printingNtB7_10ExprStructNtNtCs62MdaZFMefA_5quote9to_tokens8ToTokens9to_tokens, symObjAddr: 0x105B0, symBinAddr: 0x52ED4, symSize: 0x78 }
  - { offset: 0x9C1D4, size: 0x8, addend: 0x0, symName: __RNvXsu_NtNtCsATtFUPiRFW_3syn4expr8printingNtB7_7ExprTryNtNtCs62MdaZFMefA_5quote9to_tokens8ToTokens9to_tokens, symObjAddr: 0x10628, symBinAddr: 0x52F4C, symSize: 0x58 }
  - { offset: 0x9C213, size: 0x8, addend: 0x0, symName: __RNvXsv_NtNtCsATtFUPiRFW_3syn4expr8printingNtB7_12ExprTryBlockNtNtCs62MdaZFMefA_5quote9to_tokens8ToTokens9to_tokens, symObjAddr: 0x10680, symBinAddr: 0x52FA4, symSize: 0x64 }
  - { offset: 0x9C252, size: 0x8, addend: 0x0, symName: __RNvXsw_NtNtCsATtFUPiRFW_3syn4expr8printingNtB7_9ExprTupleNtNtCs62MdaZFMefA_5quote9to_tokens8ToTokens9to_tokens, symObjAddr: 0x106E4, symBinAddr: 0x53008, symSize: 0x58 }
  - { offset: 0x9C291, size: 0x8, addend: 0x0, symName: __RNvXsx_NtNtCsATtFUPiRFW_3syn4expr8printingNtB7_9ExprUnaryNtNtCs62MdaZFMefA_5quote9to_tokens8ToTokens9to_tokens, symObjAddr: 0x1073C, symBinAddr: 0x53060, symSize: 0x58 }
  - { offset: 0x9C2D0, size: 0x8, addend: 0x0, symName: __RNvXsy_NtNtCsATtFUPiRFW_3syn4expr8printingNtB7_10ExprUnsafeNtNtCs62MdaZFMefA_5quote9to_tokens8ToTokens9to_tokens, symObjAddr: 0x10794, symBinAddr: 0x530B8, symSize: 0x68 }
  - { offset: 0x9C30F, size: 0x8, addend: 0x0, symName: __RNvXsz_NtNtCsATtFUPiRFW_3syn4expr8printingNtB7_9ExprWhileNtNtCs62MdaZFMefA_5quote9to_tokens8ToTokens9to_tokens, symObjAddr: 0x107FC, symBinAddr: 0x53120, symSize: 0xA0 }
  - { offset: 0x9C34E, size: 0x8, addend: 0x0, symName: __RNvXsA_NtNtCsATtFUPiRFW_3syn4expr8printingNtB7_9ExprYieldNtNtCs62MdaZFMefA_5quote9to_tokens8ToTokens9to_tokens, symObjAddr: 0x1089C, symBinAddr: 0x531C0, symSize: 0x58 }
  - { offset: 0x9C38D, size: 0x8, addend: 0x0, symName: __RNvXsB_NtNtCsATtFUPiRFW_3syn4expr8printingNtB7_3ArmNtNtCs62MdaZFMefA_5quote9to_tokens8ToTokens9to_tokens, symObjAddr: 0x108F4, symBinAddr: 0x53218, symSize: 0x10C }
  - { offset: 0x9C3FA, size: 0x8, addend: 0x0, symName: __RNvXsC_NtNtCsATtFUPiRFW_3syn4expr8printingNtB7_10FieldValueNtNtCs62MdaZFMefA_5quote9to_tokens8ToTokens9to_tokens, symObjAddr: 0x10A00, symBinAddr: 0x53324, symSize: 0xB0 }
  - { offset: 0x9C457, size: 0x8, addend: 0x0, symName: __RNvXsD_NtNtCsATtFUPiRFW_3syn4expr8printingNtB7_5IndexNtNtCs62MdaZFMefA_5quote9to_tokens8ToTokens9to_tokens, symObjAddr: 0x10AB0, symBinAddr: 0x533D4, symSize: 0xD4 }
  - { offset: 0x9C4AC, size: 0x8, addend: 0x0, symName: __RNvXsE_NtNtCsATtFUPiRFW_3syn4expr8printingNtB7_5LabelNtNtCs62MdaZFMefA_5quote9to_tokens8ToTokens9to_tokens, symObjAddr: 0x10B84, symBinAddr: 0x534A8, symSize: 0x50 }
  - { offset: 0x9C4EB, size: 0x8, addend: 0x0, symName: __RNvXsF_NtNtCsATtFUPiRFW_3syn4expr8printingNtB7_6MemberNtNtCs62MdaZFMefA_5quote9to_tokens8ToTokens9to_tokens, symObjAddr: 0x10BD4, symBinAddr: 0x534F8, symSize: 0x98 }
  - { offset: 0x9C55E, size: 0x8, addend: 0x0, symName: __RNvXsG_NtNtCsATtFUPiRFW_3syn4expr8printingNtB7_11RangeLimitsNtNtCs62MdaZFMefA_5quote9to_tokens8ToTokens9to_tokens, symObjAddr: 0x10C6C, symBinAddr: 0x53590, symSize: 0x94 }
  - { offset: 0x9C5D1, size: 0x8, addend: 0x0, symName: __RNvXsH_NtNtCsATtFUPiRFW_3syn4expr8printingNtB7_17PointerMutabilityNtNtCs62MdaZFMefA_5quote9to_tokens8ToTokens9to_tokens, symObjAddr: 0x10D00, symBinAddr: 0x53624, symSize: 0x94 }
  - { offset: 0x9C64A, size: 0x8, addend: 0x0, symName: __RNcNtNtNtCsATtFUPiRFW_3syn4expr4Expr5Async0B7_, symObjAddr: 0x10D94, symBinAddr: 0x536B8, symSize: 0x3C }
  - { offset: 0x9C679, size: 0x8, addend: 0x0, symName: __RNcNtNtNtCsATtFUPiRFW_3syn4expr4Expr5Block0B7_, symObjAddr: 0x10DD0, symBinAddr: 0x536F4, symSize: 0x3C }
  - { offset: 0x9C6A8, size: 0x8, addend: 0x0, symName: __RNcNtNtNtCsATtFUPiRFW_3syn4expr4Expr5Break0B7_, symObjAddr: 0x10E0C, symBinAddr: 0x53730, symSize: 0x3C }
  - { offset: 0x9C6D7, size: 0x8, addend: 0x0, symName: __RNcNtNtNtCsATtFUPiRFW_3syn4expr4Expr7Closure0B7_, symObjAddr: 0x10E48, symBinAddr: 0x5376C, symSize: 0x3C }
  - { offset: 0x9C706, size: 0x8, addend: 0x0, symName: __RNcNtNtNtCsATtFUPiRFW_3syn4expr4Expr5Const0B7_, symObjAddr: 0x10E84, symBinAddr: 0x537A8, symSize: 0x3C }
  - { offset: 0x9C735, size: 0x8, addend: 0x0, symName: __RNcNtNtNtCsATtFUPiRFW_3syn4expr4Expr8Continue0B7_, symObjAddr: 0x10EC0, symBinAddr: 0x537E4, symSize: 0x3C }
  - { offset: 0x9C764, size: 0x8, addend: 0x0, symName: __RNcNtNtNtCsATtFUPiRFW_3syn4expr4Expr7ForLoop0B7_, symObjAddr: 0x10EFC, symBinAddr: 0x53820, symSize: 0x3C }
  - { offset: 0x9C793, size: 0x8, addend: 0x0, symName: __RNcNtNtNtCsATtFUPiRFW_3syn4expr4Expr2If0B7_, symObjAddr: 0x10F38, symBinAddr: 0x5385C, symSize: 0x3C }
  - { offset: 0x9C7C2, size: 0x8, addend: 0x0, symName: __RNcNtNtNtCsATtFUPiRFW_3syn4expr4Expr5Infer0B7_, symObjAddr: 0x10F74, symBinAddr: 0x53898, symSize: 0x20 }
  - { offset: 0x9C7F0, size: 0x8, addend: 0x0, symName: __RNcNtNtNtCsATtFUPiRFW_3syn4expr4Expr3Let0B7_, symObjAddr: 0x10F94, symBinAddr: 0x538B8, symSize: 0x3C }
  - { offset: 0x9C81F, size: 0x8, addend: 0x0, symName: __RNcNtNtNtCsATtFUPiRFW_3syn4expr4Expr3Lit0B7_, symObjAddr: 0x10FD0, symBinAddr: 0x538F4, symSize: 0x3C }
  - { offset: 0x9C84E, size: 0x8, addend: 0x0, symName: __RNcNtNtNtCsATtFUPiRFW_3syn4expr4Expr4Loop0B7_, symObjAddr: 0x1100C, symBinAddr: 0x53930, symSize: 0x3C }
  - { offset: 0x9C87D, size: 0x8, addend: 0x0, symName: __RNcNtNtNtCsATtFUPiRFW_3syn4expr4Expr5Match0B7_, symObjAddr: 0x11048, symBinAddr: 0x5396C, symSize: 0x3C }
  - { offset: 0x9C8AC, size: 0x8, addend: 0x0, symName: __RNcNtNtNtCsATtFUPiRFW_3syn4expr4Expr5Range0B7_, symObjAddr: 0x11084, symBinAddr: 0x539A8, symSize: 0x3C }
  - { offset: 0x9C8DB, size: 0x8, addend: 0x0, symName: __RNcNtNtNtCsATtFUPiRFW_3syn4expr4Expr6Return0B7_, symObjAddr: 0x110C0, symBinAddr: 0x539E4, symSize: 0x3C }
  - { offset: 0x9C90A, size: 0x8, addend: 0x0, symName: __RNcNtNtNtCsATtFUPiRFW_3syn4expr4Expr6Struct0B7_, symObjAddr: 0x110FC, symBinAddr: 0x53A20, symSize: 0x3C }
  - { offset: 0x9C939, size: 0x8, addend: 0x0, symName: __RNcNtNtNtCsATtFUPiRFW_3syn4expr4Expr8TryBlock0B7_, symObjAddr: 0x11138, symBinAddr: 0x53A5C, symSize: 0x3C }
  - { offset: 0x9C968, size: 0x8, addend: 0x0, symName: __RNcNtNtNtCsATtFUPiRFW_3syn4expr4Expr5Unary0B7_, symObjAddr: 0x11174, symBinAddr: 0x53A98, symSize: 0x3C }
  - { offset: 0x9C997, size: 0x8, addend: 0x0, symName: __RNcNtNtNtCsATtFUPiRFW_3syn4expr4Expr6Unsafe0B7_, symObjAddr: 0x111B0, symBinAddr: 0x53AD4, symSize: 0x3C }
  - { offset: 0x9C9C6, size: 0x8, addend: 0x0, symName: __RNcNtNtNtCsATtFUPiRFW_3syn4expr4Expr5While0B7_, symObjAddr: 0x111EC, symBinAddr: 0x53B10, symSize: 0x3C }
  - { offset: 0x9C9F5, size: 0x8, addend: 0x0, symName: __RNcNtNtNtCsATtFUPiRFW_3syn4expr4Expr5Yield0B7_, symObjAddr: 0x11228, symBinAddr: 0x53B4C, symSize: 0x3C }
  - { offset: 0x9CA25, size: 0x8, addend: 0x0, symName: __RNvXsc_NtCsATtFUPiRFW_3syn4exprNtB5_4ExprINtNtCs9f3LFPSIp77_4core7convert4FromNtB5_9ExprArrayE4from, symObjAddr: 0x11264, symBinAddr: 0x53B88, symSize: 0x48 }
  - { offset: 0x9CA58, size: 0x8, addend: 0x0, symName: __RNvXsd_NtCsATtFUPiRFW_3syn4exprNtB5_4ExprINtNtCs9f3LFPSIp77_4core7convert4FromNtB5_10ExprAssignE4from, symObjAddr: 0x112AC, symBinAddr: 0x53BD0, symSize: 0x50 }
  - { offset: 0x9CA8B, size: 0x8, addend: 0x0, symName: __RNvXse_NtCsATtFUPiRFW_3syn4exprNtB5_4ExprINtNtCs9f3LFPSIp77_4core7convert4FromNtB5_9ExprAsyncE4from, symObjAddr: 0x112FC, symBinAddr: 0x53C20, symSize: 0x4C }
  - { offset: 0x9CABE, size: 0x8, addend: 0x0, symName: __RNvXsf_NtCsATtFUPiRFW_3syn4exprNtB5_4ExprINtNtCs9f3LFPSIp77_4core7convert4FromNtB5_9ExprAwaitE4from, symObjAddr: 0x11348, symBinAddr: 0x53C6C, symSize: 0x4C }
  - { offset: 0x9CAF1, size: 0x8, addend: 0x0, symName: __RNvXsg_NtCsATtFUPiRFW_3syn4exprNtB5_4ExprINtNtCs9f3LFPSIp77_4core7convert4FromNtB5_10ExprBinaryE4from, symObjAddr: 0x11394, symBinAddr: 0x53CB8, symSize: 0x4C }
  - { offset: 0x9CB24, size: 0x8, addend: 0x0, symName: __RNvXsh_NtCsATtFUPiRFW_3syn4exprNtB5_4ExprINtNtCs9f3LFPSIp77_4core7convert4FromNtB5_9ExprBlockE4from, symObjAddr: 0x113E0, symBinAddr: 0x53D04, symSize: 0x4C }
  - { offset: 0x9CB57, size: 0x8, addend: 0x0, symName: __RNvXsi_NtCsATtFUPiRFW_3syn4exprNtB5_4ExprINtNtCs9f3LFPSIp77_4core7convert4FromNtB5_9ExprBreakE4from, symObjAddr: 0x1142C, symBinAddr: 0x53D50, symSize: 0x4C }
  - { offset: 0x9CB8A, size: 0x8, addend: 0x0, symName: __RNvXsj_NtCsATtFUPiRFW_3syn4exprNtB5_4ExprINtNtCs9f3LFPSIp77_4core7convert4FromNtB5_8ExprCallE4from, symObjAddr: 0x11478, symBinAddr: 0x53D9C, symSize: 0x4C }
  - { offset: 0x9CBBD, size: 0x8, addend: 0x0, symName: __RNvXsk_NtCsATtFUPiRFW_3syn4exprNtB5_4ExprINtNtCs9f3LFPSIp77_4core7convert4FromNtB5_8ExprCastE4from, symObjAddr: 0x114C4, symBinAddr: 0x53DE8, symSize: 0x4C }
  - { offset: 0x9CBF0, size: 0x8, addend: 0x0, symName: __RNvXsl_NtCsATtFUPiRFW_3syn4exprNtB5_4ExprINtNtCs9f3LFPSIp77_4core7convert4FromNtB5_11ExprClosureE4from, symObjAddr: 0x11510, symBinAddr: 0x53E34, symSize: 0x4C }
  - { offset: 0x9CC23, size: 0x8, addend: 0x0, symName: __RNvXsm_NtCsATtFUPiRFW_3syn4exprNtB5_4ExprINtNtCs9f3LFPSIp77_4core7convert4FromNtB5_9ExprConstE4from, symObjAddr: 0x1155C, symBinAddr: 0x53E80, symSize: 0x4C }
  - { offset: 0x9CC56, size: 0x8, addend: 0x0, symName: __RNvXsn_NtCsATtFUPiRFW_3syn4exprNtB5_4ExprINtNtCs9f3LFPSIp77_4core7convert4FromNtB5_12ExprContinueE4from, symObjAddr: 0x115A8, symBinAddr: 0x53ECC, symSize: 0x4C }
  - { offset: 0x9CC89, size: 0x8, addend: 0x0, symName: __RNvXso_NtCsATtFUPiRFW_3syn4exprNtB5_4ExprINtNtCs9f3LFPSIp77_4core7convert4FromNtB5_9ExprFieldE4from, symObjAddr: 0x115F4, symBinAddr: 0x53F18, symSize: 0x4C }
  - { offset: 0x9CCBC, size: 0x8, addend: 0x0, symName: __RNvXsp_NtCsATtFUPiRFW_3syn4exprNtB5_4ExprINtNtCs9f3LFPSIp77_4core7convert4FromNtB5_11ExprForLoopE4from, symObjAddr: 0x11640, symBinAddr: 0x53F64, symSize: 0x4C }
  - { offset: 0x9CCEF, size: 0x8, addend: 0x0, symName: __RNvXsq_NtCsATtFUPiRFW_3syn4exprNtB5_4ExprINtNtCs9f3LFPSIp77_4core7convert4FromNtB5_9ExprGroupE4from, symObjAddr: 0x1168C, symBinAddr: 0x53FB0, symSize: 0x4C }
  - { offset: 0x9CD22, size: 0x8, addend: 0x0, symName: __RNvXsr_NtCsATtFUPiRFW_3syn4exprNtB5_4ExprINtNtCs9f3LFPSIp77_4core7convert4FromNtB5_6ExprIfE4from, symObjAddr: 0x116D8, symBinAddr: 0x53FFC, symSize: 0x4C }
  - { offset: 0x9CD55, size: 0x8, addend: 0x0, symName: __RNvXss_NtCsATtFUPiRFW_3syn4exprNtB5_4ExprINtNtCs9f3LFPSIp77_4core7convert4FromNtB5_9ExprIndexE4from, symObjAddr: 0x11724, symBinAddr: 0x54048, symSize: 0x4C }
  - { offset: 0x9CD88, size: 0x8, addend: 0x0, symName: __RNvXst_NtCsATtFUPiRFW_3syn4exprNtB5_4ExprINtNtCs9f3LFPSIp77_4core7convert4FromNtB5_9ExprInferE4from, symObjAddr: 0x11770, symBinAddr: 0x54094, symSize: 0x30 }
  - { offset: 0x9CDBA, size: 0x8, addend: 0x0, symName: __RNvXsu_NtCsATtFUPiRFW_3syn4exprNtB5_4ExprINtNtCs9f3LFPSIp77_4core7convert4FromNtB5_7ExprLetE4from, symObjAddr: 0x117A0, symBinAddr: 0x540C4, symSize: 0x4C }
  - { offset: 0x9CDED, size: 0x8, addend: 0x0, symName: __RNvXsv_NtCsATtFUPiRFW_3syn4exprNtB5_4ExprINtNtCs9f3LFPSIp77_4core7convert4FromNtB5_7ExprLitE4from, symObjAddr: 0x117EC, symBinAddr: 0x54110, symSize: 0x4C }
  - { offset: 0x9CE20, size: 0x8, addend: 0x0, symName: __RNvXsw_NtCsATtFUPiRFW_3syn4exprNtB5_4ExprINtNtCs9f3LFPSIp77_4core7convert4FromNtB5_8ExprLoopE4from, symObjAddr: 0x11838, symBinAddr: 0x5415C, symSize: 0x4C }
  - { offset: 0x9CE53, size: 0x8, addend: 0x0, symName: __RNvXsx_NtCsATtFUPiRFW_3syn4exprNtB5_4ExprINtNtCs9f3LFPSIp77_4core7convert4FromNtB5_9ExprMacroE4from, symObjAddr: 0x11884, symBinAddr: 0x541A8, symSize: 0x4C }
  - { offset: 0x9CE86, size: 0x8, addend: 0x0, symName: __RNvXsy_NtCsATtFUPiRFW_3syn4exprNtB5_4ExprINtNtCs9f3LFPSIp77_4core7convert4FromNtB5_9ExprMatchE4from, symObjAddr: 0x118D0, symBinAddr: 0x541F4, symSize: 0x4C }
  - { offset: 0x9CEB9, size: 0x8, addend: 0x0, symName: __RNvXsz_NtCsATtFUPiRFW_3syn4exprNtB5_4ExprINtNtCs9f3LFPSIp77_4core7convert4FromNtB5_14ExprMethodCallE4from, symObjAddr: 0x1191C, symBinAddr: 0x54240, symSize: 0x4C }
  - { offset: 0x9CEEC, size: 0x8, addend: 0x0, symName: __RNvXsA_NtCsATtFUPiRFW_3syn4exprNtB5_4ExprINtNtCs9f3LFPSIp77_4core7convert4FromNtB5_9ExprParenE4from, symObjAddr: 0x11968, symBinAddr: 0x5428C, symSize: 0x4C }
  - { offset: 0x9CF1F, size: 0x8, addend: 0x0, symName: __RNvXsB_NtCsATtFUPiRFW_3syn4exprNtB5_4ExprINtNtCs9f3LFPSIp77_4core7convert4FromNtB5_8ExprPathE4from, symObjAddr: 0x119B4, symBinAddr: 0x542D8, symSize: 0x4C }
  - { offset: 0x9CF52, size: 0x8, addend: 0x0, symName: __RNvXsC_NtCsATtFUPiRFW_3syn4exprNtB5_4ExprINtNtCs9f3LFPSIp77_4core7convert4FromNtB5_9ExprRangeE4from, symObjAddr: 0x11A00, symBinAddr: 0x54324, symSize: 0x4C }
  - { offset: 0x9CF85, size: 0x8, addend: 0x0, symName: __RNvXsD_NtCsATtFUPiRFW_3syn4exprNtB5_4ExprINtNtCs9f3LFPSIp77_4core7convert4FromNtB5_11ExprRawAddrE4from, symObjAddr: 0x11A4C, symBinAddr: 0x54370, symSize: 0x4C }
  - { offset: 0x9CFB8, size: 0x8, addend: 0x0, symName: __RNvXsE_NtCsATtFUPiRFW_3syn4exprNtB5_4ExprINtNtCs9f3LFPSIp77_4core7convert4FromNtB5_13ExprReferenceE4from, symObjAddr: 0x11A98, symBinAddr: 0x543BC, symSize: 0x4C }
  - { offset: 0x9CFEB, size: 0x8, addend: 0x0, symName: __RNvXsF_NtCsATtFUPiRFW_3syn4exprNtB5_4ExprINtNtCs9f3LFPSIp77_4core7convert4FromNtB5_10ExprRepeatE4from, symObjAddr: 0x11AE4, symBinAddr: 0x54408, symSize: 0x4C }
  - { offset: 0x9D01E, size: 0x8, addend: 0x0, symName: __RNvXsG_NtCsATtFUPiRFW_3syn4exprNtB5_4ExprINtNtCs9f3LFPSIp77_4core7convert4FromNtB5_10ExprReturnE4from, symObjAddr: 0x11B30, symBinAddr: 0x54454, symSize: 0x4C }
  - { offset: 0x9D051, size: 0x8, addend: 0x0, symName: __RNvXsH_NtCsATtFUPiRFW_3syn4exprNtB5_4ExprINtNtCs9f3LFPSIp77_4core7convert4FromNtB5_10ExprStructE4from, symObjAddr: 0x11B7C, symBinAddr: 0x544A0, symSize: 0x4C }
  - { offset: 0x9D084, size: 0x8, addend: 0x0, symName: __RNvXsI_NtCsATtFUPiRFW_3syn4exprNtB5_4ExprINtNtCs9f3LFPSIp77_4core7convert4FromNtB5_7ExprTryE4from, symObjAddr: 0x11BC8, symBinAddr: 0x544EC, symSize: 0x4C }
  - { offset: 0x9D0B7, size: 0x8, addend: 0x0, symName: __RNvXsJ_NtCsATtFUPiRFW_3syn4exprNtB5_4ExprINtNtCs9f3LFPSIp77_4core7convert4FromNtB5_12ExprTryBlockE4from, symObjAddr: 0x11C14, symBinAddr: 0x54538, symSize: 0x4C }
  - { offset: 0x9D0EA, size: 0x8, addend: 0x0, symName: __RNvXsK_NtCsATtFUPiRFW_3syn4exprNtB5_4ExprINtNtCs9f3LFPSIp77_4core7convert4FromNtB5_9ExprTupleE4from, symObjAddr: 0x11C60, symBinAddr: 0x54584, symSize: 0x4C }
  - { offset: 0x9D11D, size: 0x8, addend: 0x0, symName: __RNvXsL_NtCsATtFUPiRFW_3syn4exprNtB5_4ExprINtNtCs9f3LFPSIp77_4core7convert4FromNtB5_9ExprUnaryE4from, symObjAddr: 0x11CAC, symBinAddr: 0x545D0, symSize: 0x4C }
  - { offset: 0x9D150, size: 0x8, addend: 0x0, symName: __RNvXsM_NtCsATtFUPiRFW_3syn4exprNtB5_4ExprINtNtCs9f3LFPSIp77_4core7convert4FromNtB5_10ExprUnsafeE4from, symObjAddr: 0x11CF8, symBinAddr: 0x5461C, symSize: 0x4C }
  - { offset: 0x9D183, size: 0x8, addend: 0x0, symName: __RNvXsN_NtCsATtFUPiRFW_3syn4exprNtB5_4ExprINtNtCs9f3LFPSIp77_4core7convert4FromNtB5_9ExprWhileE4from, symObjAddr: 0x11D44, symBinAddr: 0x54668, symSize: 0x4C }
  - { offset: 0x9D1B6, size: 0x8, addend: 0x0, symName: __RNvXsO_NtCsATtFUPiRFW_3syn4exprNtB5_4ExprINtNtCs9f3LFPSIp77_4core7convert4FromNtB5_9ExprYieldE4from, symObjAddr: 0x11D90, symBinAddr: 0x546B4, symSize: 0x4C }
  - { offset: 0x9D1E9, size: 0x8, addend: 0x0, symName: __RNvXsP_NtCsATtFUPiRFW_3syn4exprNtB5_4ExprNtNtCs62MdaZFMefA_5quote9to_tokens8ToTokens9to_tokens, symObjAddr: 0x11DDC, symBinAddr: 0x54700, symSize: 0x7D8 }
  - { offset: 0x9D6CA, size: 0x8, addend: 0x0, symName: __RNcNtNtNtCsATtFUPiRFW_3syn4expr6Member5Named0B7_, symObjAddr: 0x125B4, symBinAddr: 0x54ED8, symSize: 0x18 }
  - { offset: 0x9D6FA, size: 0x8, addend: 0x0, symName: __RNcNtNtNtCsATtFUPiRFW_3syn4expr6Member7Unnamed0B7_, symObjAddr: 0x125CC, symBinAddr: 0x54EF0, symSize: 0x28 }
  - { offset: 0x9D730, size: 0x8, addend: 0x0, symName: __RNcNtNtNtCsATtFUPiRFW_3syn4expr11RangeLimits8HalfOpen0B7_, symObjAddr: 0x125F4, symBinAddr: 0x54F18, symSize: 0x24 }
  - { offset: 0x9D760, size: 0x8, addend: 0x0, symName: __RNcNtNtNtCsATtFUPiRFW_3syn4expr11RangeLimits6Closed0B7_, symObjAddr: 0x12618, symBinAddr: 0x54F3C, symSize: 0x20 }
  - { offset: 0xA0118, size: 0x8, addend: 0x0, symName: __RNvXs0_NtNtCsATtFUPiRFW_3syn3gen5cloneNtNtB9_4expr3ArmNtNtCs9f3LFPSIp77_4core5clone5Clone5clone, symObjAddr: 0x1557C, symBinAddr: 0x57EA0, symSize: 0x1B4 }
  - { offset: 0xA014A, size: 0x8, addend: 0x0, symName: __RNvXsk_NtNtCsATtFUPiRFW_3syn3gen5cloneNtNtB9_4expr4ExprNtNtCs9f3LFPSIp77_4core5clone5Clone5clone, symObjAddr: 0x15730, symBinAddr: 0x58054, symSize: 0xE14 }
  - { offset: 0xA063F, size: 0x8, addend: 0x0, symName: __RNvXsl_NtNtCsATtFUPiRFW_3syn3gen5cloneNtNtB9_4expr9ExprArrayNtNtCs9f3LFPSIp77_4core5clone5Clone5clone, symObjAddr: 0x16544, symBinAddr: 0x58E68, symSize: 0xC0 }
  - { offset: 0xA0673, size: 0x8, addend: 0x0, symName: __RNvXsm_NtNtCsATtFUPiRFW_3syn3gen5cloneNtNtB9_4expr10ExprAssignNtNtCs9f3LFPSIp77_4core5clone5Clone5clone, symObjAddr: 0x16604, symBinAddr: 0x58F28, symSize: 0x100 }
  - { offset: 0xA06A7, size: 0x8, addend: 0x0, symName: __RNvXsn_NtNtCsATtFUPiRFW_3syn3gen5cloneNtNtB9_4expr9ExprAsyncNtNtCs9f3LFPSIp77_4core5clone5Clone5clone, symObjAddr: 0x16704, symBinAddr: 0x59028, symSize: 0xE4 }
  - { offset: 0xA06DB, size: 0x8, addend: 0x0, symName: __RNvXso_NtNtCsATtFUPiRFW_3syn3gen5cloneNtNtB9_4expr9ExprAwaitNtNtCs9f3LFPSIp77_4core5clone5Clone5clone, symObjAddr: 0x167E8, symBinAddr: 0x5910C, symSize: 0x100 }
  - { offset: 0xA070F, size: 0x8, addend: 0x0, symName: __RNvXsp_NtNtCsATtFUPiRFW_3syn3gen5cloneNtNtB9_4expr10ExprBinaryNtNtCs9f3LFPSIp77_4core5clone5Clone5clone, symObjAddr: 0x168E8, symBinAddr: 0x5920C, symSize: 0xF0 }
  - { offset: 0xA0743, size: 0x8, addend: 0x0, symName: __RNvXsq_NtNtCsATtFUPiRFW_3syn3gen5cloneNtNtB9_4expr9ExprBlockNtNtCs9f3LFPSIp77_4core5clone5Clone5clone, symObjAddr: 0x169D8, symBinAddr: 0x592FC, symSize: 0xE8 }
  - { offset: 0xA0777, size: 0x8, addend: 0x0, symName: __RNvXsr_NtNtCsATtFUPiRFW_3syn3gen5cloneNtNtB9_4expr9ExprBreakNtNtCs9f3LFPSIp77_4core5clone5Clone5clone, symObjAddr: 0x16AC0, symBinAddr: 0x593E4, symSize: 0xF0 }
  - { offset: 0xA07AB, size: 0x8, addend: 0x0, symName: __RNvXss_NtNtCsATtFUPiRFW_3syn3gen5cloneNtNtB9_4expr8ExprCallNtNtCs9f3LFPSIp77_4core5clone5Clone5clone, symObjAddr: 0x16BB0, symBinAddr: 0x594D4, symSize: 0x100 }
  - { offset: 0xA07DF, size: 0x8, addend: 0x0, symName: __RNvXst_NtNtCsATtFUPiRFW_3syn3gen5cloneNtNtB9_4expr8ExprCastNtNtCs9f3LFPSIp77_4core5clone5Clone5clone, symObjAddr: 0x16CB0, symBinAddr: 0x595D4, symSize: 0xF0 }
  - { offset: 0xA0813, size: 0x8, addend: 0x0, symName: __RNvXsu_NtNtCsATtFUPiRFW_3syn3gen5cloneNtNtB9_4expr11ExprClosureNtNtCs9f3LFPSIp77_4core5clone5Clone5clone, symObjAddr: 0x16DA0, symBinAddr: 0x596C4, symSize: 0x254 }
  - { offset: 0xA0847, size: 0x8, addend: 0x0, symName: __RNvXsv_NtNtCsATtFUPiRFW_3syn3gen5cloneNtNtB9_4expr9ExprConstNtNtCs9f3LFPSIp77_4core5clone5Clone5clone, symObjAddr: 0x16FF4, symBinAddr: 0x59918, symSize: 0xBC }
  - { offset: 0xA087B, size: 0x8, addend: 0x0, symName: __RNvXsw_NtNtCsATtFUPiRFW_3syn3gen5cloneNtNtB9_4expr12ExprContinueNtNtCs9f3LFPSIp77_4core5clone5Clone5clone, symObjAddr: 0x170B0, symBinAddr: 0x599D4, symSize: 0xB8 }
  - { offset: 0xA08AF, size: 0x8, addend: 0x0, symName: __RNvXsx_NtNtCsATtFUPiRFW_3syn3gen5cloneNtNtB9_4expr9ExprFieldNtNtCs9f3LFPSIp77_4core5clone5Clone5clone, symObjAddr: 0x17168, symBinAddr: 0x59A8C, symSize: 0x108 }
  - { offset: 0xA08E3, size: 0x8, addend: 0x0, symName: __RNvXsy_NtNtCsATtFUPiRFW_3syn3gen5cloneNtNtB9_4expr11ExprForLoopNtNtCs9f3LFPSIp77_4core5clone5Clone5clone, symObjAddr: 0x17270, symBinAddr: 0x59B94, symSize: 0x1A0 }
  - { offset: 0xA0917, size: 0x8, addend: 0x0, symName: __RNvXsz_NtNtCsATtFUPiRFW_3syn3gen5cloneNtNtB9_4expr9ExprGroupNtNtCs9f3LFPSIp77_4core5clone5Clone5clone, symObjAddr: 0x17410, symBinAddr: 0x59D34, symSize: 0xB0 }
  - { offset: 0xA094B, size: 0x8, addend: 0x0, symName: __RNvXsA_NtNtCsATtFUPiRFW_3syn3gen5cloneNtNtB9_4expr6ExprIfNtNtCs9f3LFPSIp77_4core5clone5Clone5clone, symObjAddr: 0x174C0, symBinAddr: 0x59DE4, symSize: 0x144 }
  - { offset: 0xA097F, size: 0x8, addend: 0x0, symName: __RNvXsB_NtNtCsATtFUPiRFW_3syn3gen5cloneNtNtB9_4expr9ExprIndexNtNtCs9f3LFPSIp77_4core5clone5Clone5clone, symObjAddr: 0x17604, symBinAddr: 0x59F28, symSize: 0xF8 }
  - { offset: 0xA09B3, size: 0x8, addend: 0x0, symName: __RNvXsC_NtNtCsATtFUPiRFW_3syn3gen5cloneNtNtB9_4expr9ExprInferNtNtCs9f3LFPSIp77_4core5clone5Clone5clone, symObjAddr: 0x176FC, symBinAddr: 0x5A020, symSize: 0xA4 }
  - { offset: 0xA09E7, size: 0x8, addend: 0x0, symName: __RNvXsD_NtNtCsATtFUPiRFW_3syn3gen5cloneNtNtB9_4expr7ExprLetNtNtCs9f3LFPSIp77_4core5clone5Clone5clone, symObjAddr: 0x177A0, symBinAddr: 0x5A0C4, symSize: 0x11C }
  - { offset: 0xA0A1B, size: 0x8, addend: 0x0, symName: __RNvXsE_NtNtCsATtFUPiRFW_3syn3gen5cloneNtNtB9_4expr7ExprLitNtNtCs9f3LFPSIp77_4core5clone5Clone5clone, symObjAddr: 0x178BC, symBinAddr: 0x5A1E0, symSize: 0x9C }
  - { offset: 0xA0A4F, size: 0x8, addend: 0x0, symName: __RNvXsF_NtNtCsATtFUPiRFW_3syn3gen5cloneNtNtB9_4expr8ExprLoopNtNtCs9f3LFPSIp77_4core5clone5Clone5clone, symObjAddr: 0x17958, symBinAddr: 0x5A27C, symSize: 0x104 }
  - { offset: 0xA0A83, size: 0x8, addend: 0x0, symName: __RNvXsG_NtNtCsATtFUPiRFW_3syn3gen5cloneNtNtB9_4expr9ExprMacroNtNtCs9f3LFPSIp77_4core5clone5Clone5clone, symObjAddr: 0x17A5C, symBinAddr: 0x5A380, symSize: 0xA0 }
  - { offset: 0xA0AB7, size: 0x8, addend: 0x0, symName: __RNvXsH_NtNtCsATtFUPiRFW_3syn3gen5cloneNtNtB9_4expr9ExprMatchNtNtCs9f3LFPSIp77_4core5clone5Clone5clone, symObjAddr: 0x17AFC, symBinAddr: 0x5A420, symSize: 0x11C }
  - { offset: 0xA0AEB, size: 0x8, addend: 0x0, symName: __RNvXsI_NtNtCsATtFUPiRFW_3syn3gen5cloneNtNtB9_4expr14ExprMethodCallNtNtCs9f3LFPSIp77_4core5clone5Clone5clone, symObjAddr: 0x17C18, symBinAddr: 0x5A53C, symSize: 0x1C8 }
  - { offset: 0xA0B1F, size: 0x8, addend: 0x0, symName: __RNvXsJ_NtNtCsATtFUPiRFW_3syn3gen5cloneNtNtB9_4expr9ExprParenNtNtCs9f3LFPSIp77_4core5clone5Clone5clone, symObjAddr: 0x17DE0, symBinAddr: 0x5A704, symSize: 0xB8 }
  - { offset: 0xA0B53, size: 0x8, addend: 0x0, symName: __RNvXsK_NtNtCsATtFUPiRFW_3syn3gen5cloneNtNtB9_4expr8ExprPathNtNtCs9f3LFPSIp77_4core5clone5Clone5clone, symObjAddr: 0x17E98, symBinAddr: 0x5A7BC, symSize: 0xE0 }
  - { offset: 0xA0B87, size: 0x8, addend: 0x0, symName: __RNvXsL_NtNtCsATtFUPiRFW_3syn3gen5cloneNtNtB9_4expr9ExprRangeNtNtCs9f3LFPSIp77_4core5clone5Clone5clone, symObjAddr: 0x17F78, symBinAddr: 0x5A89C, symSize: 0xF0 }
  - { offset: 0xA0BBB, size: 0x8, addend: 0x0, symName: __RNvXsM_NtNtCsATtFUPiRFW_3syn3gen5cloneNtNtB9_4expr11ExprRawAddrNtNtCs9f3LFPSIp77_4core5clone5Clone5clone, symObjAddr: 0x18068, symBinAddr: 0x5A98C, symSize: 0x104 }
  - { offset: 0xA0BEF, size: 0x8, addend: 0x0, symName: __RNvXsN_NtNtCsATtFUPiRFW_3syn3gen5cloneNtNtB9_4expr13ExprReferenceNtNtCs9f3LFPSIp77_4core5clone5Clone5clone, symObjAddr: 0x1816C, symBinAddr: 0x5AA90, symSize: 0xE8 }
  - { offset: 0xA0C23, size: 0x8, addend: 0x0, symName: __RNvXsO_NtNtCsATtFUPiRFW_3syn3gen5cloneNtNtB9_4expr10ExprRepeatNtNtCs9f3LFPSIp77_4core5clone5Clone5clone, symObjAddr: 0x18254, symBinAddr: 0x5AB78, symSize: 0x124 }
  - { offset: 0xA0C57, size: 0x8, addend: 0x0, symName: __RNvXsP_NtNtCsATtFUPiRFW_3syn3gen5cloneNtNtB9_4expr10ExprReturnNtNtCs9f3LFPSIp77_4core5clone5Clone5clone, symObjAddr: 0x18378, symBinAddr: 0x5AC9C, symSize: 0xB0 }
  - { offset: 0xA0C8B, size: 0x8, addend: 0x0, symName: __RNvXsQ_NtNtCsATtFUPiRFW_3syn3gen5cloneNtNtB9_4expr10ExprStructNtNtCs9f3LFPSIp77_4core5clone5Clone5clone, symObjAddr: 0x18428, symBinAddr: 0x5AD4C, symSize: 0x1B0 }
  - { offset: 0xA0CBF, size: 0x8, addend: 0x0, symName: __RNvXsR_NtNtCsATtFUPiRFW_3syn3gen5cloneNtNtB9_4expr7ExprTryNtNtCs9f3LFPSIp77_4core5clone5Clone5clone, symObjAddr: 0x185D8, symBinAddr: 0x5AEFC, symSize: 0xE4 }
  - { offset: 0xA0CF3, size: 0x8, addend: 0x0, symName: __RNvXsS_NtNtCsATtFUPiRFW_3syn3gen5cloneNtNtB9_4expr12ExprTryBlockNtNtCs9f3LFPSIp77_4core5clone5Clone5clone, symObjAddr: 0x186BC, symBinAddr: 0x5AFE0, symSize: 0xBC }
  - { offset: 0xA0D27, size: 0x8, addend: 0x0, symName: __RNvXsT_NtNtCsATtFUPiRFW_3syn3gen5cloneNtNtB9_4expr9ExprTupleNtNtCs9f3LFPSIp77_4core5clone5Clone5clone, symObjAddr: 0x18778, symBinAddr: 0x5B09C, symSize: 0xC0 }
  - { offset: 0xA0D5B, size: 0x8, addend: 0x0, symName: __RNvXsU_NtNtCsATtFUPiRFW_3syn3gen5cloneNtNtB9_4expr9ExprUnaryNtNtCs9f3LFPSIp77_4core5clone5Clone5clone, symObjAddr: 0x18838, symBinAddr: 0x5B15C, symSize: 0xC0 }
  - { offset: 0xA0D8F, size: 0x8, addend: 0x0, symName: __RNvXsV_NtNtCsATtFUPiRFW_3syn3gen5cloneNtNtB9_4expr10ExprUnsafeNtNtCs9f3LFPSIp77_4core5clone5Clone5clone, symObjAddr: 0x188F8, symBinAddr: 0x5B21C, symSize: 0xBC }
  - { offset: 0xA0DC3, size: 0x8, addend: 0x0, symName: __RNvXsW_NtNtCsATtFUPiRFW_3syn3gen5cloneNtNtB9_4expr9ExprWhileNtNtCs9f3LFPSIp77_4core5clone5Clone5clone, symObjAddr: 0x189B4, symBinAddr: 0x5B2D8, symSize: 0x144 }
  - { offset: 0xA0DF7, size: 0x8, addend: 0x0, symName: __RNvXsX_NtNtCsATtFUPiRFW_3syn3gen5cloneNtNtB9_4expr9ExprYieldNtNtCs9f3LFPSIp77_4core5clone5Clone5clone, symObjAddr: 0x18AF8, symBinAddr: 0x5B41C, symSize: 0xB0 }
  - { offset: 0xA0E2B, size: 0x8, addend: 0x0, symName: __RNvXs11_NtNtCsATtFUPiRFW_3syn3gen5cloneNtNtBa_4expr10FieldValueNtNtCs9f3LFPSIp77_4core5clone5Clone5clone, symObjAddr: 0x18BA8, symBinAddr: 0x5B4CC, symSize: 0x110 }
  - { offset: 0xA0E5F, size: 0x8, addend: 0x0, symName: __RNvXs1l_NtNtCsATtFUPiRFW_3syn3gen5cloneNtNtBa_4expr5IndexNtNtCs9f3LFPSIp77_4core5clone5Clone5clone, symObjAddr: 0x18CB8, symBinAddr: 0x5B5DC, symSize: 0x48 }
  - { offset: 0xA0E93, size: 0x8, addend: 0x0, symName: __RNvXs1C_NtNtCsATtFUPiRFW_3syn3gen5cloneNtNtBa_4expr5LabelNtNtCs9f3LFPSIp77_4core5clone5Clone5clone, symObjAddr: 0x18D00, symBinAddr: 0x5B624, symSize: 0xA4 }
  - { offset: 0xA0EC7, size: 0x8, addend: 0x0, symName: __RNvXs1K_NtNtCsATtFUPiRFW_3syn3gen5cloneNtNtBa_4expr6MemberNtNtCs9f3LFPSIp77_4core5clone5Clone5clone, symObjAddr: 0x18DA4, symBinAddr: 0x5B6C8, symSize: 0xB8 }
  - { offset: 0xA0F2F, size: 0x8, addend: 0x0, symName: __RNvXs24_NtNtCsATtFUPiRFW_3syn3gen5cloneNtNtBa_4expr17PointerMutabilityNtNtCs9f3LFPSIp77_4core5clone5Clone5clone, symObjAddr: 0x18E5C, symBinAddr: 0x5B780, symSize: 0xA0 }
  - { offset: 0xA0F97, size: 0x8, addend: 0x0, symName: __RNvXs2a_NtNtCsATtFUPiRFW_3syn3gen5cloneNtNtBa_4expr11RangeLimitsNtNtCs9f3LFPSIp77_4core5clone5Clone5clone, symObjAddr: 0x18EFC, symBinAddr: 0x5B820, symSize: 0x2C }
  - { offset: 0xA0FD1, size: 0x8, addend: 0x0, symName: __RNvXs1_NtNtCsATtFUPiRFW_3syn3gen5debugNtNtB9_4expr3ArmNtNtCs9f3LFPSIp77_4core3fmt5Debug3fmt, symObjAddr: 0x18F28, symBinAddr: 0x5B84C, symSize: 0x14C }
  - { offset: 0xA102E, size: 0x8, addend: 0x0, symName: __RNvXsm_NtNtCsATtFUPiRFW_3syn3gen5debugNtNtB9_4expr4ExprNtNtCs9f3LFPSIp77_4core3fmt5Debug3fmt, symObjAddr: 0x19074, symBinAddr: 0x5B998, symSize: 0xC14 }
  - { offset: 0xA157A, size: 0x8, addend: 0x0, symName: __RNvXsn_NtNtCsATtFUPiRFW_3syn3gen5debugNtNtB9_4expr9ExprArrayNtNtCs9f3LFPSIp77_4core3fmt5Debug3fmt, symObjAddr: 0x19C88, symBinAddr: 0x5C5AC, symSize: 0x4C }
  - { offset: 0xA15BD, size: 0x8, addend: 0x0, symName: __RNvXsp_NtNtCsATtFUPiRFW_3syn3gen5debugNtNtB9_4expr10ExprAssignNtNtCs9f3LFPSIp77_4core3fmt5Debug3fmt, symObjAddr: 0x19DB0, symBinAddr: 0x5C6D4, symSize: 0x4C }
  - { offset: 0xA1600, size: 0x8, addend: 0x0, symName: __RNvXsr_NtNtCsATtFUPiRFW_3syn3gen5debugNtNtB9_4expr9ExprAsyncNtNtCs9f3LFPSIp77_4core3fmt5Debug3fmt, symObjAddr: 0x19F00, symBinAddr: 0x5C824, symSize: 0x4C }
  - { offset: 0xA1643, size: 0x8, addend: 0x0, symName: __RNvXst_NtNtCsATtFUPiRFW_3syn3gen5debugNtNtB9_4expr9ExprAwaitNtNtCs9f3LFPSIp77_4core3fmt5Debug3fmt, symObjAddr: 0x1A050, symBinAddr: 0x5C974, symSize: 0x4C }
  - { offset: 0xA1686, size: 0x8, addend: 0x0, symName: __RNvXsv_NtNtCsATtFUPiRFW_3syn3gen5debugNtNtB9_4expr10ExprBinaryNtNtCs9f3LFPSIp77_4core3fmt5Debug3fmt, symObjAddr: 0x1A1A0, symBinAddr: 0x5CAC4, symSize: 0x4C }
  - { offset: 0xA16C9, size: 0x8, addend: 0x0, symName: __RNvXsx_NtNtCsATtFUPiRFW_3syn3gen5debugNtNtB9_4expr9ExprBlockNtNtCs9f3LFPSIp77_4core3fmt5Debug3fmt, symObjAddr: 0x1A2F0, symBinAddr: 0x5CC14, symSize: 0x4C }
  - { offset: 0xA170C, size: 0x8, addend: 0x0, symName: __RNvXsz_NtNtCsATtFUPiRFW_3syn3gen5debugNtNtB9_4expr9ExprBreakNtNtCs9f3LFPSIp77_4core3fmt5Debug3fmt, symObjAddr: 0x1A414, symBinAddr: 0x5CD38, symSize: 0x4C }
  - { offset: 0xA174F, size: 0x8, addend: 0x0, symName: __RNvXsB_NtNtCsATtFUPiRFW_3syn3gen5debugNtNtB9_4expr8ExprCallNtNtCs9f3LFPSIp77_4core3fmt5Debug3fmt, symObjAddr: 0x1A564, symBinAddr: 0x5CE88, symSize: 0x4C }
  - { offset: 0xA1792, size: 0x8, addend: 0x0, symName: __RNvXsD_NtNtCsATtFUPiRFW_3syn3gen5debugNtNtB9_4expr8ExprCastNtNtCs9f3LFPSIp77_4core3fmt5Debug3fmt, symObjAddr: 0x1A6B4, symBinAddr: 0x5CFD8, symSize: 0x4C }
  - { offset: 0xA17D5, size: 0x8, addend: 0x0, symName: __RNvXsF_NtNtCsATtFUPiRFW_3syn3gen5debugNtNtB9_4expr11ExprClosureNtNtCs9f3LFPSIp77_4core3fmt5Debug3fmt, symObjAddr: 0x1A804, symBinAddr: 0x5D128, symSize: 0x4C }
  - { offset: 0xA1818, size: 0x8, addend: 0x0, symName: __RNvXsH_NtNtCsATtFUPiRFW_3syn3gen5debugNtNtB9_4expr9ExprConstNtNtCs9f3LFPSIp77_4core3fmt5Debug3fmt, symObjAddr: 0x1AA60, symBinAddr: 0x5D384, symSize: 0x4C }
  - { offset: 0xA185B, size: 0x8, addend: 0x0, symName: __RNvXsJ_NtNtCsATtFUPiRFW_3syn3gen5debugNtNtB9_4expr12ExprContinueNtNtCs9f3LFPSIp77_4core3fmt5Debug3fmt, symObjAddr: 0x1AB88, symBinAddr: 0x5D4AC, symSize: 0x4C }
  - { offset: 0xA189E, size: 0x8, addend: 0x0, symName: __RNvXsL_NtNtCsATtFUPiRFW_3syn3gen5debugNtNtB9_4expr9ExprFieldNtNtCs9f3LFPSIp77_4core3fmt5Debug3fmt, symObjAddr: 0x1ACB0, symBinAddr: 0x5D5D4, symSize: 0x4C }
  - { offset: 0xA18E1, size: 0x8, addend: 0x0, symName: __RNvXsN_NtNtCsATtFUPiRFW_3syn3gen5debugNtNtB9_4expr11ExprForLoopNtNtCs9f3LFPSIp77_4core3fmt5Debug3fmt, symObjAddr: 0x1AE00, symBinAddr: 0x5D724, symSize: 0x4C }
  - { offset: 0xA1924, size: 0x8, addend: 0x0, symName: __RNvXsP_NtNtCsATtFUPiRFW_3syn3gen5debugNtNtB9_4expr9ExprGroupNtNtCs9f3LFPSIp77_4core3fmt5Debug3fmt, symObjAddr: 0x1AFC8, symBinAddr: 0x5D8EC, symSize: 0x4C }
  - { offset: 0xA1967, size: 0x8, addend: 0x0, symName: __RNvXsR_NtNtCsATtFUPiRFW_3syn3gen5debugNtNtB9_4expr6ExprIfNtNtCs9f3LFPSIp77_4core3fmt5Debug3fmt, symObjAddr: 0x1B0F0, symBinAddr: 0x5DA14, symSize: 0x4C }
  - { offset: 0xA19AA, size: 0x8, addend: 0x0, symName: __RNvXsT_NtNtCsATtFUPiRFW_3syn3gen5debugNtNtB9_4expr9ExprIndexNtNtCs9f3LFPSIp77_4core3fmt5Debug3fmt, symObjAddr: 0x1B268, symBinAddr: 0x5DB8C, symSize: 0x4C }
  - { offset: 0xA19ED, size: 0x8, addend: 0x0, symName: __RNvXsV_NtNtCsATtFUPiRFW_3syn3gen5debugNtNtB9_4expr9ExprInferNtNtCs9f3LFPSIp77_4core3fmt5Debug3fmt, symObjAddr: 0x1B3B8, symBinAddr: 0x5DCDC, symSize: 0x4C }
  - { offset: 0xA1A30, size: 0x8, addend: 0x0, symName: __RNvXsX_NtNtCsATtFUPiRFW_3syn3gen5debugNtNtB9_4expr7ExprLetNtNtCs9f3LFPSIp77_4core3fmt5Debug3fmt, symObjAddr: 0x1B4B8, symBinAddr: 0x5DDDC, symSize: 0x4C }
  - { offset: 0xA1A73, size: 0x8, addend: 0x0, symName: __RNvXsZ_NtNtCsATtFUPiRFW_3syn3gen5debugNtNtB9_4expr7ExprLitNtNtCs9f3LFPSIp77_4core3fmt5Debug3fmt, symObjAddr: 0x1B630, symBinAddr: 0x5DF54, symSize: 0x4C }
  - { offset: 0xA1AB6, size: 0x8, addend: 0x0, symName: __RNvXs11_NtNtCsATtFUPiRFW_3syn3gen5debugNtNtBa_4expr8ExprLoopNtNtCs9f3LFPSIp77_4core3fmt5Debug3fmt, symObjAddr: 0x1B730, symBinAddr: 0x5E054, symSize: 0x4C }
  - { offset: 0xA1AF9, size: 0x8, addend: 0x0, symName: __RNvXs13_NtNtCsATtFUPiRFW_3syn3gen5debugNtNtBa_4expr9ExprMacroNtNtCs9f3LFPSIp77_4core3fmt5Debug3fmt, symObjAddr: 0x1B880, symBinAddr: 0x5E1A4, symSize: 0x4C }
  - { offset: 0xA1B3C, size: 0x8, addend: 0x0, symName: __RNvXs15_NtNtCsATtFUPiRFW_3syn3gen5debugNtNtBa_4expr9ExprMatchNtNtCs9f3LFPSIp77_4core3fmt5Debug3fmt, symObjAddr: 0x1B980, symBinAddr: 0x5E2A4, symSize: 0x4C }
  - { offset: 0xA1B7F, size: 0x8, addend: 0x0, symName: __RNvXs17_NtNtCsATtFUPiRFW_3syn3gen5debugNtNtBa_4expr14ExprMethodCallNtNtCs9f3LFPSIp77_4core3fmt5Debug3fmt, symObjAddr: 0x1BAF8, symBinAddr: 0x5E41C, symSize: 0x4C }
  - { offset: 0xA1BC2, size: 0x8, addend: 0x0, symName: __RNvXs19_NtNtCsATtFUPiRFW_3syn3gen5debugNtNtBa_4expr9ExprParenNtNtCs9f3LFPSIp77_4core3fmt5Debug3fmt, symObjAddr: 0x1BCC0, symBinAddr: 0x5E5E4, symSize: 0x4C }
  - { offset: 0xA1C05, size: 0x8, addend: 0x0, symName: __RNvXs1b_NtNtCsATtFUPiRFW_3syn3gen5debugNtNtBa_4expr8ExprPathNtNtCs9f3LFPSIp77_4core3fmt5Debug3fmt, symObjAddr: 0x1BDE8, symBinAddr: 0x5E70C, symSize: 0x4C }
  - { offset: 0xA1C48, size: 0x8, addend: 0x0, symName: __RNvXs1d_NtNtCsATtFUPiRFW_3syn3gen5debugNtNtBa_4expr9ExprRangeNtNtCs9f3LFPSIp77_4core3fmt5Debug3fmt, symObjAddr: 0x1BF10, symBinAddr: 0x5E834, symSize: 0x4C }
  - { offset: 0xA1C8B, size: 0x8, addend: 0x0, symName: __RNvXs1f_NtNtCsATtFUPiRFW_3syn3gen5debugNtNtBa_4expr11ExprRawAddrNtNtCs9f3LFPSIp77_4core3fmt5Debug3fmt, symObjAddr: 0x1C060, symBinAddr: 0x5E984, symSize: 0x4C }
  - { offset: 0xA1CCE, size: 0x8, addend: 0x0, symName: __RNvXs1h_NtNtCsATtFUPiRFW_3syn3gen5debugNtNtBa_4expr13ExprReferenceNtNtCs9f3LFPSIp77_4core3fmt5Debug3fmt, symObjAddr: 0x1C1D8, symBinAddr: 0x5EAFC, symSize: 0x4C }
  - { offset: 0xA1D11, size: 0x8, addend: 0x0, symName: __RNvXs1j_NtNtCsATtFUPiRFW_3syn3gen5debugNtNtBa_4expr10ExprRepeatNtNtCs9f3LFPSIp77_4core3fmt5Debug3fmt, symObjAddr: 0x1C328, symBinAddr: 0x5EC4C, symSize: 0x4C }
  - { offset: 0xA1D54, size: 0x8, addend: 0x0, symName: __RNvXs1l_NtNtCsATtFUPiRFW_3syn3gen5debugNtNtBa_4expr10ExprReturnNtNtCs9f3LFPSIp77_4core3fmt5Debug3fmt, symObjAddr: 0x1C4A0, symBinAddr: 0x5EDC4, symSize: 0x4C }
  - { offset: 0xA1D97, size: 0x8, addend: 0x0, symName: __RNvXs1n_NtNtCsATtFUPiRFW_3syn3gen5debugNtNtBa_4expr10ExprStructNtNtCs9f3LFPSIp77_4core3fmt5Debug3fmt, symObjAddr: 0x1C5C8, symBinAddr: 0x5EEEC, symSize: 0x4C }
  - { offset: 0xA1DDA, size: 0x8, addend: 0x0, symName: __RNvXs1p_NtNtCsATtFUPiRFW_3syn3gen5debugNtNtBa_4expr7ExprTryNtNtCs9f3LFPSIp77_4core3fmt5Debug3fmt, symObjAddr: 0x1C790, symBinAddr: 0x5F0B4, symSize: 0x4C }
  - { offset: 0xA1E1D, size: 0x8, addend: 0x0, symName: __RNvXs1r_NtNtCsATtFUPiRFW_3syn3gen5debugNtNtBa_4expr12ExprTryBlockNtNtCs9f3LFPSIp77_4core3fmt5Debug3fmt, symObjAddr: 0x1C8B8, symBinAddr: 0x5F1DC, symSize: 0x4C }
  - { offset: 0xA1E60, size: 0x8, addend: 0x0, symName: __RNvXs1t_NtNtCsATtFUPiRFW_3syn3gen5debugNtNtBa_4expr9ExprTupleNtNtCs9f3LFPSIp77_4core3fmt5Debug3fmt, symObjAddr: 0x1C9E0, symBinAddr: 0x5F304, symSize: 0x4C }
  - { offset: 0xA1EA3, size: 0x8, addend: 0x0, symName: __RNvXs1v_NtNtCsATtFUPiRFW_3syn3gen5debugNtNtBa_4expr9ExprUnaryNtNtCs9f3LFPSIp77_4core3fmt5Debug3fmt, symObjAddr: 0x1CB08, symBinAddr: 0x5F42C, symSize: 0x4C }
  - { offset: 0xA1EE6, size: 0x8, addend: 0x0, symName: __RNvXs1x_NtNtCsATtFUPiRFW_3syn3gen5debugNtNtBa_4expr10ExprUnsafeNtNtCs9f3LFPSIp77_4core3fmt5Debug3fmt, symObjAddr: 0x1CC30, symBinAddr: 0x5F554, symSize: 0x4C }
  - { offset: 0xA1F29, size: 0x8, addend: 0x0, symName: __RNvXs1z_NtNtCsATtFUPiRFW_3syn3gen5debugNtNtBa_4expr9ExprWhileNtNtCs9f3LFPSIp77_4core3fmt5Debug3fmt, symObjAddr: 0x1CD58, symBinAddr: 0x5F67C, symSize: 0x4C }
  - { offset: 0xA1F6C, size: 0x8, addend: 0x0, symName: __RNvXs1B_NtNtCsATtFUPiRFW_3syn3gen5debugNtNtBa_4expr9ExprYieldNtNtCs9f3LFPSIp77_4core3fmt5Debug3fmt, symObjAddr: 0x1CED0, symBinAddr: 0x5F7F4, symSize: 0x4C }
  - { offset: 0xA1FAF, size: 0x8, addend: 0x0, symName: __RNvXs1G_NtNtCsATtFUPiRFW_3syn3gen5debugNtNtBa_4expr10FieldValueNtNtCs9f3LFPSIp77_4core3fmt5Debug3fmt, symObjAddr: 0x1CFF8, symBinAddr: 0x5F91C, symSize: 0x100 }
  - { offset: 0xA2010, size: 0x8, addend: 0x0, symName: __RNvXs2a_NtNtCsATtFUPiRFW_3syn3gen5debugNtNtBa_4expr5IndexNtNtCs9f3LFPSIp77_4core3fmt5Debug3fmt, symObjAddr: 0x1D0F8, symBinAddr: 0x5FA1C, symSize: 0xB0 }
  - { offset: 0xA2071, size: 0x8, addend: 0x0, symName: __RNvXs2G_NtNtCsATtFUPiRFW_3syn3gen5debugNtNtBa_4expr5LabelNtNtCs9f3LFPSIp77_4core3fmt5Debug3fmt, symObjAddr: 0x1D1A8, symBinAddr: 0x5FACC, symSize: 0xB0 }
  - { offset: 0xA20D2, size: 0x8, addend: 0x0, symName: __RNvXs2Q_NtNtCsATtFUPiRFW_3syn3gen5debugNtNtBa_4expr6MemberNtNtCs9f3LFPSIp77_4core3fmt5Debug3fmt, symObjAddr: 0x1D258, symBinAddr: 0x5FB7C, symSize: 0x178 }
  - { offset: 0xA21A3, size: 0x8, addend: 0x0, symName: __RNvXs3p_NtNtCsATtFUPiRFW_3syn3gen5debugNtNtBa_4expr17PointerMutabilityNtNtCs9f3LFPSIp77_4core3fmt5Debug3fmt, symObjAddr: 0x1D3D0, symBinAddr: 0x5FCF4, symSize: 0x17C }
  - { offset: 0xA2273, size: 0x8, addend: 0x0, symName: __RNvXs3u_NtNtCsATtFUPiRFW_3syn3gen5debugNtNtBa_4expr11RangeLimitsNtNtCs9f3LFPSIp77_4core3fmt5Debug3fmt, symObjAddr: 0x1D54C, symBinAddr: 0x5FE70, symSize: 0x17C }
  - { offset: 0xA2349, size: 0x8, addend: 0x0, symName: __RNvXs3_NtNtCsATtFUPiRFW_3syn3gen2eqNtNtB9_4expr3ArmNtNtCs9f3LFPSIp77_4core3cmp9PartialEq2eq, symObjAddr: 0x1D6C8, symBinAddr: 0x5FFEC, symSize: 0x134 }
  - { offset: 0xA2389, size: 0x8, addend: 0x0, symName: __RNvXsD_NtNtCsATtFUPiRFW_3syn3gen2eqNtNtB9_4expr4ExprNtNtCs9f3LFPSIp77_4core3cmp9PartialEq2eq, symObjAddr: 0x1D7FC, symBinAddr: 0x60120, symSize: 0x1508 }
  - { offset: 0xA2B46, size: 0x8, addend: 0x0, symName: __RNvXsF_NtNtCsATtFUPiRFW_3syn3gen2eqNtNtB9_4expr9ExprArrayNtNtCs9f3LFPSIp77_4core3cmp9PartialEq2eq, symObjAddr: 0x1ED04, symBinAddr: 0x61628, symSize: 0x84 }
  - { offset: 0xA2B89, size: 0x8, addend: 0x0, symName: __RNvXsH_NtNtCsATtFUPiRFW_3syn3gen2eqNtNtB9_4expr10ExprAssignNtNtCs9f3LFPSIp77_4core3cmp9PartialEq2eq, symObjAddr: 0x1ED88, symBinAddr: 0x616AC, symSize: 0xCC }
  - { offset: 0xA2BCC, size: 0x8, addend: 0x0, symName: __RNvXsJ_NtNtCsATtFUPiRFW_3syn3gen2eqNtNtB9_4expr9ExprAsyncNtNtCs9f3LFPSIp77_4core3cmp9PartialEq2eq, symObjAddr: 0x1EE54, symBinAddr: 0x61778, symSize: 0xCC }
  - { offset: 0xA2C0F, size: 0x8, addend: 0x0, symName: __RNvXsL_NtNtCsATtFUPiRFW_3syn3gen2eqNtNtB9_4expr9ExprAwaitNtNtCs9f3LFPSIp77_4core3cmp9PartialEq2eq, symObjAddr: 0x1EF20, symBinAddr: 0x61844, symSize: 0x84 }
  - { offset: 0xA2C52, size: 0x8, addend: 0x0, symName: __RNvXsN_NtNtCsATtFUPiRFW_3syn3gen2eqNtNtB9_4expr10ExprBinaryNtNtCs9f3LFPSIp77_4core3cmp9PartialEq2eq, symObjAddr: 0x1EFA4, symBinAddr: 0x618C8, symSize: 0x100 }
  - { offset: 0xA2C95, size: 0x8, addend: 0x0, symName: __RNvXsP_NtNtCsATtFUPiRFW_3syn3gen2eqNtNtB9_4expr9ExprBlockNtNtCs9f3LFPSIp77_4core3cmp9PartialEq2eq, symObjAddr: 0x1F0A4, symBinAddr: 0x619C8, symSize: 0xCC }
  - { offset: 0xA2CD8, size: 0x8, addend: 0x0, symName: __RNvXsR_NtNtCsATtFUPiRFW_3syn3gen2eqNtNtB9_4expr9ExprBreakNtNtCs9f3LFPSIp77_4core3cmp9PartialEq2eq, symObjAddr: 0x1F170, symBinAddr: 0x61A94, symSize: 0xCC }
  - { offset: 0xA2D1B, size: 0x8, addend: 0x0, symName: __RNvXsT_NtNtCsATtFUPiRFW_3syn3gen2eqNtNtB9_4expr8ExprCallNtNtCs9f3LFPSIp77_4core3cmp9PartialEq2eq, symObjAddr: 0x1F23C, symBinAddr: 0x61B60, symSize: 0xCC }
  - { offset: 0xA2D5E, size: 0x8, addend: 0x0, symName: __RNvXsV_NtNtCsATtFUPiRFW_3syn3gen2eqNtNtB9_4expr8ExprCastNtNtCs9f3LFPSIp77_4core3cmp9PartialEq2eq, symObjAddr: 0x1F308, symBinAddr: 0x61C2C, symSize: 0xCC }
  - { offset: 0xA2DA1, size: 0x8, addend: 0x0, symName: __RNvXsX_NtNtCsATtFUPiRFW_3syn3gen2eqNtNtB9_4expr11ExprClosureNtNtCs9f3LFPSIp77_4core3cmp9PartialEq2eq, symObjAddr: 0x1F3D4, symBinAddr: 0x61CF8, symSize: 0x204 }
  - { offset: 0xA2DE4, size: 0x8, addend: 0x0, symName: __RNvXsZ_NtNtCsATtFUPiRFW_3syn3gen2eqNtNtB9_4expr9ExprConstNtNtCs9f3LFPSIp77_4core3cmp9PartialEq2eq, symObjAddr: 0x1F5D8, symBinAddr: 0x61EFC, symSize: 0x84 }
  - { offset: 0xA2E27, size: 0x8, addend: 0x0, symName: __RNvXs11_NtNtCsATtFUPiRFW_3syn3gen2eqNtNtBa_4expr12ExprContinueNtNtCs9f3LFPSIp77_4core3cmp9PartialEq2eq, symObjAddr: 0x1F65C, symBinAddr: 0x61F80, symSize: 0x84 }
  - { offset: 0xA2E6A, size: 0x8, addend: 0x0, symName: __RNvXs13_NtNtCsATtFUPiRFW_3syn3gen2eqNtNtBa_4expr9ExprFieldNtNtCs9f3LFPSIp77_4core3cmp9PartialEq2eq, symObjAddr: 0x1F6E0, symBinAddr: 0x62004, symSize: 0xCC }
  - { offset: 0xA2EAD, size: 0x8, addend: 0x0, symName: __RNvXs15_NtNtCsATtFUPiRFW_3syn3gen2eqNtNtBa_4expr11ExprForLoopNtNtCs9f3LFPSIp77_4core3cmp9PartialEq2eq, symObjAddr: 0x1F7AC, symBinAddr: 0x620D0, symSize: 0x134 }
  - { offset: 0xA2EF0, size: 0x8, addend: 0x0, symName: __RNvXs17_NtNtCsATtFUPiRFW_3syn3gen2eqNtNtBa_4expr9ExprGroupNtNtCs9f3LFPSIp77_4core3cmp9PartialEq2eq, symObjAddr: 0x1F8E0, symBinAddr: 0x62204, symSize: 0x84 }
  - { offset: 0xA2F33, size: 0x8, addend: 0x0, symName: __RNvXs19_NtNtCsATtFUPiRFW_3syn3gen2eqNtNtBa_4expr6ExprIfNtNtCs9f3LFPSIp77_4core3cmp9PartialEq2eq, symObjAddr: 0x1F964, symBinAddr: 0x62288, symSize: 0x100 }
  - { offset: 0xA2F76, size: 0x8, addend: 0x0, symName: __RNvXs1b_NtNtCsATtFUPiRFW_3syn3gen2eqNtNtBa_4expr9ExprIndexNtNtCs9f3LFPSIp77_4core3cmp9PartialEq2eq, symObjAddr: 0x1FA64, symBinAddr: 0x62388, symSize: 0xCC }
  - { offset: 0xA2FB9, size: 0x8, addend: 0x0, symName: __RNvXs1d_NtNtCsATtFUPiRFW_3syn3gen2eqNtNtBa_4expr9ExprInferNtNtCs9f3LFPSIp77_4core3cmp9PartialEq2eq, symObjAddr: 0x1FB30, symBinAddr: 0x62454, symSize: 0x3C }
  - { offset: 0xA2FFC, size: 0x8, addend: 0x0, symName: __RNvXs1f_NtNtCsATtFUPiRFW_3syn3gen2eqNtNtBa_4expr7ExprLetNtNtCs9f3LFPSIp77_4core3cmp9PartialEq2eq, symObjAddr: 0x1FB6C, symBinAddr: 0x62490, symSize: 0xCC }
  - { offset: 0xA303F, size: 0x8, addend: 0x0, symName: __RNvXs1h_NtNtCsATtFUPiRFW_3syn3gen2eqNtNtBa_4expr7ExprLitNtNtCs9f3LFPSIp77_4core3cmp9PartialEq2eq, symObjAddr: 0x1FC38, symBinAddr: 0x6255C, symSize: 0x84 }
  - { offset: 0xA3082, size: 0x8, addend: 0x0, symName: __RNvXs1j_NtNtCsATtFUPiRFW_3syn3gen2eqNtNtBa_4expr8ExprLoopNtNtCs9f3LFPSIp77_4core3cmp9PartialEq2eq, symObjAddr: 0x1FCBC, symBinAddr: 0x625E0, symSize: 0xCC }
  - { offset: 0xA30C5, size: 0x8, addend: 0x0, symName: __RNvXs1l_NtNtCsATtFUPiRFW_3syn3gen2eqNtNtBa_4expr9ExprMacroNtNtCs9f3LFPSIp77_4core3cmp9PartialEq2eq, symObjAddr: 0x1FD88, symBinAddr: 0x626AC, symSize: 0x84 }
  - { offset: 0xA3108, size: 0x8, addend: 0x0, symName: __RNvXs1n_NtNtCsATtFUPiRFW_3syn3gen2eqNtNtBa_4expr9ExprMatchNtNtCs9f3LFPSIp77_4core3cmp9PartialEq2eq, symObjAddr: 0x1FE0C, symBinAddr: 0x62730, symSize: 0xCC }
  - { offset: 0xA314B, size: 0x8, addend: 0x0, symName: __RNvXs1p_NtNtCsATtFUPiRFW_3syn3gen2eqNtNtBa_4expr14ExprMethodCallNtNtCs9f3LFPSIp77_4core3cmp9PartialEq2eq, symObjAddr: 0x1FED8, symBinAddr: 0x627FC, symSize: 0x134 }
  - { offset: 0xA318E, size: 0x8, addend: 0x0, symName: __RNvXs1r_NtNtCsATtFUPiRFW_3syn3gen2eqNtNtBa_4expr9ExprParenNtNtCs9f3LFPSIp77_4core3cmp9PartialEq2eq, symObjAddr: 0x2000C, symBinAddr: 0x62930, symSize: 0x84 }
  - { offset: 0xA31D1, size: 0x8, addend: 0x0, symName: __RNvXs1t_NtNtCsATtFUPiRFW_3syn3gen2eqNtNtBa_4expr8ExprPathNtNtCs9f3LFPSIp77_4core3cmp9PartialEq2eq, symObjAddr: 0x20090, symBinAddr: 0x629B4, symSize: 0xCC }
  - { offset: 0xA3214, size: 0x8, addend: 0x0, symName: __RNvXs1v_NtNtCsATtFUPiRFW_3syn3gen2eqNtNtBa_4expr9ExprRangeNtNtCs9f3LFPSIp77_4core3cmp9PartialEq2eq, symObjAddr: 0x2015C, symBinAddr: 0x62A80, symSize: 0x100 }
  - { offset: 0xA3257, size: 0x8, addend: 0x0, symName: __RNvXs1x_NtNtCsATtFUPiRFW_3syn3gen2eqNtNtBa_4expr11ExprRawAddrNtNtCs9f3LFPSIp77_4core3cmp9PartialEq2eq, symObjAddr: 0x2025C, symBinAddr: 0x62B80, symSize: 0xCC }
  - { offset: 0xA329A, size: 0x8, addend: 0x0, symName: __RNvXs1z_NtNtCsATtFUPiRFW_3syn3gen2eqNtNtBa_4expr13ExprReferenceNtNtCs9f3LFPSIp77_4core3cmp9PartialEq2eq, symObjAddr: 0x20328, symBinAddr: 0x62C4C, symSize: 0xCC }
  - { offset: 0xA32DD, size: 0x8, addend: 0x0, symName: __RNvXs1B_NtNtCsATtFUPiRFW_3syn3gen2eqNtNtBa_4expr10ExprRepeatNtNtCs9f3LFPSIp77_4core3cmp9PartialEq2eq, symObjAddr: 0x203F4, symBinAddr: 0x62D18, symSize: 0xCC }
  - { offset: 0xA3320, size: 0x8, addend: 0x0, symName: __RNvXs1D_NtNtCsATtFUPiRFW_3syn3gen2eqNtNtBa_4expr10ExprReturnNtNtCs9f3LFPSIp77_4core3cmp9PartialEq2eq, symObjAddr: 0x204C0, symBinAddr: 0x62DE4, symSize: 0x84 }
  - { offset: 0xA3363, size: 0x8, addend: 0x0, symName: __RNvXs1F_NtNtCsATtFUPiRFW_3syn3gen2eqNtNtBa_4expr10ExprStructNtNtCs9f3LFPSIp77_4core3cmp9PartialEq2eq, symObjAddr: 0x20544, symBinAddr: 0x62E68, symSize: 0x168 }
  - { offset: 0xA33A6, size: 0x8, addend: 0x0, symName: __RNvXs1H_NtNtCsATtFUPiRFW_3syn3gen2eqNtNtBa_4expr7ExprTryNtNtCs9f3LFPSIp77_4core3cmp9PartialEq2eq, symObjAddr: 0x206AC, symBinAddr: 0x62FD0, symSize: 0x84 }
  - { offset: 0xA33E9, size: 0x8, addend: 0x0, symName: __RNvXs1J_NtNtCsATtFUPiRFW_3syn3gen2eqNtNtBa_4expr12ExprTryBlockNtNtCs9f3LFPSIp77_4core3cmp9PartialEq2eq, symObjAddr: 0x20730, symBinAddr: 0x63054, symSize: 0x84 }
  - { offset: 0xA342C, size: 0x8, addend: 0x0, symName: __RNvXs1L_NtNtCsATtFUPiRFW_3syn3gen2eqNtNtBa_4expr9ExprTupleNtNtCs9f3LFPSIp77_4core3cmp9PartialEq2eq, symObjAddr: 0x207B4, symBinAddr: 0x630D8, symSize: 0x84 }
  - { offset: 0xA346F, size: 0x8, addend: 0x0, symName: __RNvXs1N_NtNtCsATtFUPiRFW_3syn3gen2eqNtNtBa_4expr9ExprUnaryNtNtCs9f3LFPSIp77_4core3cmp9PartialEq2eq, symObjAddr: 0x20838, symBinAddr: 0x6315C, symSize: 0xCC }
  - { offset: 0xA34B2, size: 0x8, addend: 0x0, symName: __RNvXs1P_NtNtCsATtFUPiRFW_3syn3gen2eqNtNtBa_4expr10ExprUnsafeNtNtCs9f3LFPSIp77_4core3cmp9PartialEq2eq, symObjAddr: 0x20904, symBinAddr: 0x63228, symSize: 0x84 }
  - { offset: 0xA34F5, size: 0x8, addend: 0x0, symName: __RNvXs1R_NtNtCsATtFUPiRFW_3syn3gen2eqNtNtBa_4expr9ExprWhileNtNtCs9f3LFPSIp77_4core3cmp9PartialEq2eq, symObjAddr: 0x20988, symBinAddr: 0x632AC, symSize: 0x100 }
  - { offset: 0xA3538, size: 0x8, addend: 0x0, symName: __RNvXs1T_NtNtCsATtFUPiRFW_3syn3gen2eqNtNtBa_4expr9ExprYieldNtNtCs9f3LFPSIp77_4core3cmp9PartialEq2eq, symObjAddr: 0x20A88, symBinAddr: 0x633AC, symSize: 0x84 }
  - { offset: 0xA357B, size: 0x8, addend: 0x0, symName: __RNvXs21_NtNtCsATtFUPiRFW_3syn3gen2eqNtNtBa_4expr10FieldValueNtNtCs9f3LFPSIp77_4core3cmp9PartialEq2eq, symObjAddr: 0x20B0C, symBinAddr: 0x63430, symSize: 0x100 }
  - { offset: 0xA35BE, size: 0x8, addend: 0x0, symName: __RNvXs3b_NtNtCsATtFUPiRFW_3syn3gen2eqNtNtBa_4expr5LabelNtNtCs9f3LFPSIp77_4core3cmp9PartialEq2eq, symObjAddr: 0x20C0C, symBinAddr: 0x63530, symSize: 0x3C }
  - { offset: 0xA3601, size: 0x8, addend: 0x0, symName: __RNvXs4a_NtNtCsATtFUPiRFW_3syn3gen2eqNtNtBa_4expr17PointerMutabilityNtNtCs9f3LFPSIp77_4core3cmp9PartialEq2eq, symObjAddr: 0x20C48, symBinAddr: 0x6356C, symSize: 0xFC }
  - { offset: 0xA3644, size: 0x8, addend: 0x0, symName: __RNvXs4k_NtNtCsATtFUPiRFW_3syn3gen2eqNtNtBa_4expr11RangeLimitsNtNtCs9f3LFPSIp77_4core3cmp9PartialEq2eq, symObjAddr: 0x20D44, symBinAddr: 0x63668, symSize: 0xFC }
  - { offset: 0xA6735, size: 0x8, addend: 0x0, symName: __RNvXsP_NtCs9f3LFPSIp77_4core3fmtRNtNtCsATtFUPiRFW_3syn4expr3ArmNtB5_5Debug3fmtBz_, symObjAddr: 0x175C, symBinAddr: 0x44080, symSize: 0x30 }
  - { offset: 0xA677B, size: 0x8, addend: 0x0, symName: __RNvXsP_NtCs9f3LFPSIp77_4core3fmtRNtNtCsATtFUPiRFW_3syn4expr4ExprNtB5_5Debug3fmtBz_, symObjAddr: 0x178C, symBinAddr: 0x440B0, symSize: 0x30 }
  - { offset: 0xA67C1, size: 0x8, addend: 0x0, symName: __RNvXsP_NtCs9f3LFPSIp77_4core3fmtRNtNtCsATtFUPiRFW_3syn4expr5LabelNtB5_5Debug3fmtBz_, symObjAddr: 0x17BC, symBinAddr: 0x440E0, symSize: 0x30 }
  - { offset: 0xA680D, size: 0x8, addend: 0x0, symName: __RNvXso_NtCs9f3LFPSIp77_4core3fmtSNtNtCsATtFUPiRFW_3syn4expr3ArmNtB5_5Debug3fmtBz_, symObjAddr: 0x17EC, symBinAddr: 0x44110, symSize: 0x90 }
  - { offset: 0xA6B95, size: 0x8, addend: 0x0, symName: __RNvMNtCs9f3LFPSIp77_4core5sliceSNtNtCsATtFUPiRFW_3syn4expr3Arm4iterBy_, symObjAddr: 0x83C, symBinAddr: 0x43160, symSize: 0x28 }
  - { offset: 0xA6BCC, size: 0x8, addend: 0x0, symName: __RNvMNtCs9f3LFPSIp77_4core5sliceSTNtNtCsATtFUPiRFW_3syn4expr10FieldValueNtNtBz_5token5CommaE4iterBz_, symObjAddr: 0x864, symBinAddr: 0x43188, symSize: 0x28 }
  - { offset: 0xA6C03, size: 0x8, addend: 0x0, symName: __RNvMNtCs9f3LFPSIp77_4core5sliceSTNtNtCsATtFUPiRFW_3syn4expr4ExprNtNtBz_5token5CommaE4iterBz_, symObjAddr: 0x88C, symBinAddr: 0x431B0, symSize: 0x28 }
  - { offset: 0xA6C6C, size: 0x8, addend: 0x0, symName: __RNvXs2_NtNtCs9f3LFPSIp77_4core5slice3cmpSNtNtCsATtFUPiRFW_3syn4expr3ArmINtB5_14SlicePartialEqBD_E5equalBH_, symObjAddr: 0x9CC, symBinAddr: 0x432F0, symSize: 0x17C }
  - { offset: 0xA6D4C, size: 0x8, addend: 0x0, symName: __RNvXs2_NtNtCs9f3LFPSIp77_4core5slice3cmpSTNtNtCsATtFUPiRFW_3syn4expr10FieldValueNtNtBI_5token5CommaEINtB5_14SlicePartialEqBD_E5equalBI_, symObjAddr: 0xB48, symBinAddr: 0x4346C, symSize: 0x17C }
  - { offset: 0xA6E2C, size: 0x8, addend: 0x0, symName: __RNvXs2_NtNtCs9f3LFPSIp77_4core5slice3cmpSTNtNtCsATtFUPiRFW_3syn4expr4ExprNtNtBI_5token5CommaEINtB5_14SlicePartialEqBD_E5equalBI_, symObjAddr: 0xCC4, symBinAddr: 0x435E8, symSize: 0x17C }
  - { offset: 0xA75B7, size: 0x8, addend: 0x0, symName: __RNvXNtNtCs9f3LFPSIp77_4core5clone6uninitNtNtCsATtFUPiRFW_3syn4expr10FieldValueNtB2_8CopySpec9clone_oneBG_, symObjAddr: 0x934, symBinAddr: 0x43258, symSize: 0x50 }
  - { offset: 0xA761B, size: 0x8, addend: 0x0, symName: __RNvXNtNtCs9f3LFPSIp77_4core5clone6uninitNtNtCsATtFUPiRFW_3syn4expr4ExprNtB2_8CopySpec9clone_oneBG_, symObjAddr: 0x984, symBinAddr: 0x432A8, symSize: 0x48 }
  - { offset: 0xA7686, size: 0x8, addend: 0x0, symName: __RNvYNtNtCsATtFUPiRFW_3syn4expr10ExprAssignNtNtCs9f3LFPSIp77_4core5clone5Clone10clone_fromB6_, symObjAddr: 0x19AC, symBinAddr: 0x442D0, symSize: 0x84 }
  - { offset: 0xA76C5, size: 0x8, addend: 0x0, symName: __RNvYNtNtCsATtFUPiRFW_3syn4expr10ExprBinaryNtNtCs9f3LFPSIp77_4core5clone5Clone10clone_fromB6_, symObjAddr: 0x1B60, symBinAddr: 0x44484, symSize: 0x84 }
  - { offset: 0xA7704, size: 0x8, addend: 0x0, symName: __RNvYNtNtCsATtFUPiRFW_3syn4expr10ExprRepeatNtNtCs9f3LFPSIp77_4core5clone5Clone10clone_fromB6_, symObjAddr: 0x1D14, symBinAddr: 0x44638, symSize: 0x84 }
  - { offset: 0xA7743, size: 0x8, addend: 0x0, symName: __RNvYNtNtCsATtFUPiRFW_3syn4expr10ExprReturnNtNtCs9f3LFPSIp77_4core5clone5Clone10clone_fromB6_, symObjAddr: 0x1EC8, symBinAddr: 0x447EC, symSize: 0x84 }
  - { offset: 0xA7782, size: 0x8, addend: 0x0, symName: __RNvYNtNtCsATtFUPiRFW_3syn4expr10ExprStructNtNtCs9f3LFPSIp77_4core5clone5Clone10clone_fromB6_, symObjAddr: 0x207C, symBinAddr: 0x449A0, symSize: 0x84 }
  - { offset: 0xA77C1, size: 0x8, addend: 0x0, symName: __RNvYNtNtCsATtFUPiRFW_3syn4expr10ExprUnsafeNtNtCs9f3LFPSIp77_4core5clone5Clone10clone_fromB6_, symObjAddr: 0x2230, symBinAddr: 0x44B54, symSize: 0x84 }
  - { offset: 0xA7800, size: 0x8, addend: 0x0, symName: __RNvYNtNtCsATtFUPiRFW_3syn4expr10FieldValueNtNtCs9f3LFPSIp77_4core5clone5Clone10clone_fromB6_, symObjAddr: 0x23E4, symBinAddr: 0x44D08, symSize: 0x8C }
  - { offset: 0xA783F, size: 0x8, addend: 0x0, symName: __RNvYNtNtCsATtFUPiRFW_3syn4expr11ExprClosureNtNtCs9f3LFPSIp77_4core5clone5Clone10clone_fromB6_, symObjAddr: 0x25A0, symBinAddr: 0x44EC4, symSize: 0x84 }
  - { offset: 0xA787E, size: 0x8, addend: 0x0, symName: __RNvYNtNtCsATtFUPiRFW_3syn4expr11ExprForLoopNtNtCs9f3LFPSIp77_4core5clone5Clone10clone_fromB6_, symObjAddr: 0x2754, symBinAddr: 0x45078, symSize: 0x84 }
  - { offset: 0xA78BD, size: 0x8, addend: 0x0, symName: __RNvYNtNtCsATtFUPiRFW_3syn4expr11ExprRawAddrNtNtCs9f3LFPSIp77_4core5clone5Clone10clone_fromB6_, symObjAddr: 0x2908, symBinAddr: 0x4522C, symSize: 0x84 }
  - { offset: 0xA78FC, size: 0x8, addend: 0x0, symName: __RNvYNtNtCsATtFUPiRFW_3syn4expr11RangeLimitsNtNtCs9f3LFPSIp77_4core5clone5Clone10clone_fromB6_, symObjAddr: 0x2AA0, symBinAddr: 0x453C4, symSize: 0x48 }
  - { offset: 0xA793B, size: 0x8, addend: 0x0, symName: __RNvYNtNtCsATtFUPiRFW_3syn4expr12ExprContinueNtNtCs9f3LFPSIp77_4core5clone5Clone10clone_fromB6_, symObjAddr: 0x2C18, symBinAddr: 0x4553C, symSize: 0x84 }
  - { offset: 0xA797A, size: 0x8, addend: 0x0, symName: __RNvYNtNtCsATtFUPiRFW_3syn4expr12ExprTryBlockNtNtCs9f3LFPSIp77_4core5clone5Clone10clone_fromB6_, symObjAddr: 0x2DCC, symBinAddr: 0x456F0, symSize: 0x84 }
  - { offset: 0xA79B9, size: 0x8, addend: 0x0, symName: __RNvYNtNtCsATtFUPiRFW_3syn4expr13ExprReferenceNtNtCs9f3LFPSIp77_4core5clone5Clone10clone_fromB6_, symObjAddr: 0x2F80, symBinAddr: 0x458A4, symSize: 0x84 }
  - { offset: 0xA79F8, size: 0x8, addend: 0x0, symName: __RNvYNtNtCsATtFUPiRFW_3syn4expr14ExprMethodCallNtNtCs9f3LFPSIp77_4core5clone5Clone10clone_fromB6_, symObjAddr: 0x3134, symBinAddr: 0x45A58, symSize: 0x84 }
  - { offset: 0xA7A37, size: 0x8, addend: 0x0, symName: __RNvYNtNtCsATtFUPiRFW_3syn4expr17PointerMutabilityNtNtCs9f3LFPSIp77_4core5clone5Clone10clone_fromB6_, symObjAddr: 0x32DC, symBinAddr: 0x45C00, symSize: 0x54 }
  - { offset: 0xA7A76, size: 0x8, addend: 0x0, symName: __RNvYNtNtCsATtFUPiRFW_3syn4expr3ArmNtNtCs9f3LFPSIp77_4core5clone5Clone10clone_fromB6_, symObjAddr: 0x3460, symBinAddr: 0x45D84, symSize: 0x8C }
  - { offset: 0xA7AB5, size: 0x8, addend: 0x0, symName: __RNvYNtNtCsATtFUPiRFW_3syn4expr4ExprNtNtCs9f3LFPSIp77_4core5clone5Clone10clone_fromB6_, symObjAddr: 0x361C, symBinAddr: 0x45F40, symSize: 0x84 }
  - { offset: 0xA7AF4, size: 0x8, addend: 0x0, symName: __RNvYNtNtCsATtFUPiRFW_3syn4expr5IndexNtNtCs9f3LFPSIp77_4core5clone5Clone10clone_fromB6_, symObjAddr: 0x37C4, symBinAddr: 0x460E8, symSize: 0x54 }
  - { offset: 0xA7B33, size: 0x8, addend: 0x0, symName: __RNvYNtNtCsATtFUPiRFW_3syn4expr5LabelNtNtCs9f3LFPSIp77_4core5clone5Clone10clone_fromB6_, symObjAddr: 0x3948, symBinAddr: 0x4626C, symSize: 0x84 }
  - { offset: 0xA7B72, size: 0x8, addend: 0x0, symName: __RNvYNtNtCsATtFUPiRFW_3syn4expr6ExprIfNtNtCs9f3LFPSIp77_4core5clone5Clone10clone_fromB6_, symObjAddr: 0x3AFC, symBinAddr: 0x46420, symSize: 0x84 }
  - { offset: 0xA7BB1, size: 0x8, addend: 0x0, symName: __RNvYNtNtCsATtFUPiRFW_3syn4expr6MemberNtNtCs9f3LFPSIp77_4core5clone5Clone10clone_fromB6_, symObjAddr: 0x3CB0, symBinAddr: 0x465D4, symSize: 0x84 }
  - { offset: 0xA7BF0, size: 0x8, addend: 0x0, symName: __RNvYNtNtCsATtFUPiRFW_3syn4expr7ExprLetNtNtCs9f3LFPSIp77_4core5clone5Clone10clone_fromB6_, symObjAddr: 0x3E64, symBinAddr: 0x46788, symSize: 0x84 }
  - { offset: 0xA7C2F, size: 0x8, addend: 0x0, symName: __RNvYNtNtCsATtFUPiRFW_3syn4expr7ExprLitNtNtCs9f3LFPSIp77_4core5clone5Clone10clone_fromB6_, symObjAddr: 0x4018, symBinAddr: 0x4693C, symSize: 0x84 }
  - { offset: 0xA7C6E, size: 0x8, addend: 0x0, symName: __RNvYNtNtCsATtFUPiRFW_3syn4expr7ExprTryNtNtCs9f3LFPSIp77_4core5clone5Clone10clone_fromB6_, symObjAddr: 0x41CC, symBinAddr: 0x46AF0, symSize: 0x84 }
  - { offset: 0xA7CAD, size: 0x8, addend: 0x0, symName: __RNvYNtNtCsATtFUPiRFW_3syn4expr8ExprCallNtNtCs9f3LFPSIp77_4core5clone5Clone10clone_fromB6_, symObjAddr: 0x4380, symBinAddr: 0x46CA4, symSize: 0x84 }
  - { offset: 0xA7CEC, size: 0x8, addend: 0x0, symName: __RNvYNtNtCsATtFUPiRFW_3syn4expr8ExprCastNtNtCs9f3LFPSIp77_4core5clone5Clone10clone_fromB6_, symObjAddr: 0x4534, symBinAddr: 0x46E58, symSize: 0x84 }
  - { offset: 0xA7D2B, size: 0x8, addend: 0x0, symName: __RNvYNtNtCsATtFUPiRFW_3syn4expr8ExprLoopNtNtCs9f3LFPSIp77_4core5clone5Clone10clone_fromB6_, symObjAddr: 0x46E8, symBinAddr: 0x4700C, symSize: 0x84 }
  - { offset: 0xA7D6A, size: 0x8, addend: 0x0, symName: __RNvYNtNtCsATtFUPiRFW_3syn4expr8ExprPathNtNtCs9f3LFPSIp77_4core5clone5Clone10clone_fromB6_, symObjAddr: 0x489C, symBinAddr: 0x471C0, symSize: 0x84 }
  - { offset: 0xA7DA9, size: 0x8, addend: 0x0, symName: __RNvYNtNtCsATtFUPiRFW_3syn4expr9ExprArrayNtNtCs9f3LFPSIp77_4core5clone5Clone10clone_fromB6_, symObjAddr: 0x4A50, symBinAddr: 0x47374, symSize: 0x84 }
  - { offset: 0xA7DE8, size: 0x8, addend: 0x0, symName: __RNvYNtNtCsATtFUPiRFW_3syn4expr9ExprAsyncNtNtCs9f3LFPSIp77_4core5clone5Clone10clone_fromB6_, symObjAddr: 0x4C04, symBinAddr: 0x47528, symSize: 0x84 }
  - { offset: 0xA7E27, size: 0x8, addend: 0x0, symName: __RNvYNtNtCsATtFUPiRFW_3syn4expr9ExprAwaitNtNtCs9f3LFPSIp77_4core5clone5Clone10clone_fromB6_, symObjAddr: 0x4DB8, symBinAddr: 0x476DC, symSize: 0x84 }
  - { offset: 0xA7E66, size: 0x8, addend: 0x0, symName: __RNvYNtNtCsATtFUPiRFW_3syn4expr9ExprBlockNtNtCs9f3LFPSIp77_4core5clone5Clone10clone_fromB6_, symObjAddr: 0x4F6C, symBinAddr: 0x47890, symSize: 0x84 }
  - { offset: 0xA7EA5, size: 0x8, addend: 0x0, symName: __RNvYNtNtCsATtFUPiRFW_3syn4expr9ExprBreakNtNtCs9f3LFPSIp77_4core5clone5Clone10clone_fromB6_, symObjAddr: 0x5120, symBinAddr: 0x47A44, symSize: 0x84 }
  - { offset: 0xA7EE4, size: 0x8, addend: 0x0, symName: __RNvYNtNtCsATtFUPiRFW_3syn4expr9ExprConstNtNtCs9f3LFPSIp77_4core5clone5Clone10clone_fromB6_, symObjAddr: 0x52D4, symBinAddr: 0x47BF8, symSize: 0x84 }
  - { offset: 0xA7F23, size: 0x8, addend: 0x0, symName: __RNvYNtNtCsATtFUPiRFW_3syn4expr9ExprFieldNtNtCs9f3LFPSIp77_4core5clone5Clone10clone_fromB6_, symObjAddr: 0x5488, symBinAddr: 0x47DAC, symSize: 0x84 }
  - { offset: 0xA7F62, size: 0x8, addend: 0x0, symName: __RNvYNtNtCsATtFUPiRFW_3syn4expr9ExprGroupNtNtCs9f3LFPSIp77_4core5clone5Clone10clone_fromB6_, symObjAddr: 0x563C, symBinAddr: 0x47F60, symSize: 0x84 }
  - { offset: 0xA7FA1, size: 0x8, addend: 0x0, symName: __RNvYNtNtCsATtFUPiRFW_3syn4expr9ExprIndexNtNtCs9f3LFPSIp77_4core5clone5Clone10clone_fromB6_, symObjAddr: 0x57F0, symBinAddr: 0x48114, symSize: 0x84 }
  - { offset: 0xA7FE0, size: 0x8, addend: 0x0, symName: __RNvYNtNtCsATtFUPiRFW_3syn4expr9ExprInferNtNtCs9f3LFPSIp77_4core5clone5Clone10clone_fromB6_, symObjAddr: 0x59A4, symBinAddr: 0x482C8, symSize: 0x84 }
  - { offset: 0xA801F, size: 0x8, addend: 0x0, symName: __RNvYNtNtCsATtFUPiRFW_3syn4expr9ExprMacroNtNtCs9f3LFPSIp77_4core5clone5Clone10clone_fromB6_, symObjAddr: 0x5B58, symBinAddr: 0x4847C, symSize: 0x84 }
  - { offset: 0xA805E, size: 0x8, addend: 0x0, symName: __RNvYNtNtCsATtFUPiRFW_3syn4expr9ExprMatchNtNtCs9f3LFPSIp77_4core5clone5Clone10clone_fromB6_, symObjAddr: 0x5D0C, symBinAddr: 0x48630, symSize: 0x84 }
  - { offset: 0xA809D, size: 0x8, addend: 0x0, symName: __RNvYNtNtCsATtFUPiRFW_3syn4expr9ExprParenNtNtCs9f3LFPSIp77_4core5clone5Clone10clone_fromB6_, symObjAddr: 0x5EC0, symBinAddr: 0x487E4, symSize: 0x84 }
  - { offset: 0xA80DC, size: 0x8, addend: 0x0, symName: __RNvYNtNtCsATtFUPiRFW_3syn4expr9ExprRangeNtNtCs9f3LFPSIp77_4core5clone5Clone10clone_fromB6_, symObjAddr: 0x6074, symBinAddr: 0x48998, symSize: 0x84 }
  - { offset: 0xA811B, size: 0x8, addend: 0x0, symName: __RNvYNtNtCsATtFUPiRFW_3syn4expr9ExprTupleNtNtCs9f3LFPSIp77_4core5clone5Clone10clone_fromB6_, symObjAddr: 0x6228, symBinAddr: 0x48B4C, symSize: 0x84 }
  - { offset: 0xA815A, size: 0x8, addend: 0x0, symName: __RNvYNtNtCsATtFUPiRFW_3syn4expr9ExprUnaryNtNtCs9f3LFPSIp77_4core5clone5Clone10clone_fromB6_, symObjAddr: 0x63DC, symBinAddr: 0x48D00, symSize: 0x84 }
  - { offset: 0xA8199, size: 0x8, addend: 0x0, symName: __RNvYNtNtCsATtFUPiRFW_3syn4expr9ExprWhileNtNtCs9f3LFPSIp77_4core5clone5Clone10clone_fromB6_, symObjAddr: 0x6590, symBinAddr: 0x48EB4, symSize: 0x84 }
  - { offset: 0xA81D8, size: 0x8, addend: 0x0, symName: __RNvYNtNtCsATtFUPiRFW_3syn4expr9ExprYieldNtNtCs9f3LFPSIp77_4core5clone5Clone10clone_fromB6_, symObjAddr: 0x6744, symBinAddr: 0x49068, symSize: 0x84 }
  - { offset: 0xA82E2, size: 0x8, addend: 0x0, symName: __RNvXs7_NtNtCs9f3LFPSIp77_4core3cmp5implsRNtNtCsATtFUPiRFW_3syn4expr10ExprAssignNtB7_9PartialEq2eqBH_, symObjAddr: 0xE40, symBinAddr: 0x43764, symSize: 0x34 }
  - { offset: 0xA8331, size: 0x8, addend: 0x0, symName: __RNvXs7_NtNtCs9f3LFPSIp77_4core3cmp5implsRNtNtCsATtFUPiRFW_3syn4expr10ExprBinaryNtB7_9PartialEq2eqBH_, symObjAddr: 0xE74, symBinAddr: 0x43798, symSize: 0x34 }
  - { offset: 0xA8380, size: 0x8, addend: 0x0, symName: __RNvXs7_NtNtCs9f3LFPSIp77_4core3cmp5implsRNtNtCsATtFUPiRFW_3syn4expr10ExprRepeatNtB7_9PartialEq2eqBH_, symObjAddr: 0xEA8, symBinAddr: 0x437CC, symSize: 0x34 }
  - { offset: 0xA83CF, size: 0x8, addend: 0x0, symName: __RNvXs7_NtNtCs9f3LFPSIp77_4core3cmp5implsRNtNtCsATtFUPiRFW_3syn4expr10ExprReturnNtB7_9PartialEq2eqBH_, symObjAddr: 0xEDC, symBinAddr: 0x43800, symSize: 0x34 }
  - { offset: 0xA841E, size: 0x8, addend: 0x0, symName: __RNvXs7_NtNtCs9f3LFPSIp77_4core3cmp5implsRNtNtCsATtFUPiRFW_3syn4expr10ExprStructNtB7_9PartialEq2eqBH_, symObjAddr: 0xF10, symBinAddr: 0x43834, symSize: 0x34 }
  - { offset: 0xA846D, size: 0x8, addend: 0x0, symName: __RNvXs7_NtNtCs9f3LFPSIp77_4core3cmp5implsRNtNtCsATtFUPiRFW_3syn4expr10ExprUnsafeNtB7_9PartialEq2eqBH_, symObjAddr: 0xF44, symBinAddr: 0x43868, symSize: 0x34 }
  - { offset: 0xA84BC, size: 0x8, addend: 0x0, symName: __RNvXs7_NtNtCs9f3LFPSIp77_4core3cmp5implsRNtNtCsATtFUPiRFW_3syn4expr11ExprClosureNtB7_9PartialEq2eqBH_, symObjAddr: 0xF78, symBinAddr: 0x4389C, symSize: 0x34 }
  - { offset: 0xA850B, size: 0x8, addend: 0x0, symName: __RNvXs7_NtNtCs9f3LFPSIp77_4core3cmp5implsRNtNtCsATtFUPiRFW_3syn4expr11ExprForLoopNtB7_9PartialEq2eqBH_, symObjAddr: 0xFAC, symBinAddr: 0x438D0, symSize: 0x34 }
  - { offset: 0xA855A, size: 0x8, addend: 0x0, symName: __RNvXs7_NtNtCs9f3LFPSIp77_4core3cmp5implsRNtNtCsATtFUPiRFW_3syn4expr11ExprRawAddrNtB7_9PartialEq2eqBH_, symObjAddr: 0xFE0, symBinAddr: 0x43904, symSize: 0x34 }
  - { offset: 0xA85A9, size: 0x8, addend: 0x0, symName: __RNvXs7_NtNtCs9f3LFPSIp77_4core3cmp5implsRNtNtCsATtFUPiRFW_3syn4expr12ExprContinueNtB7_9PartialEq2eqBH_, symObjAddr: 0x1014, symBinAddr: 0x43938, symSize: 0x34 }
  - { offset: 0xA85F8, size: 0x8, addend: 0x0, symName: __RNvXs7_NtNtCs9f3LFPSIp77_4core3cmp5implsRNtNtCsATtFUPiRFW_3syn4expr12ExprTryBlockNtB7_9PartialEq2eqBH_, symObjAddr: 0x1048, symBinAddr: 0x4396C, symSize: 0x34 }
  - { offset: 0xA8647, size: 0x8, addend: 0x0, symName: __RNvXs7_NtNtCs9f3LFPSIp77_4core3cmp5implsRNtNtCsATtFUPiRFW_3syn4expr13ExprReferenceNtB7_9PartialEq2eqBH_, symObjAddr: 0x107C, symBinAddr: 0x439A0, symSize: 0x34 }
  - { offset: 0xA8696, size: 0x8, addend: 0x0, symName: __RNvXs7_NtNtCs9f3LFPSIp77_4core3cmp5implsRNtNtCsATtFUPiRFW_3syn4expr14ExprMethodCallNtB7_9PartialEq2eqBH_, symObjAddr: 0x10B0, symBinAddr: 0x439D4, symSize: 0x34 }
  - { offset: 0xA86E5, size: 0x8, addend: 0x0, symName: __RNvXs7_NtNtCs9f3LFPSIp77_4core3cmp5implsRNtNtCsATtFUPiRFW_3syn4expr4ExprNtB7_9PartialEq2eqBH_, symObjAddr: 0x10E4, symBinAddr: 0x43A08, symSize: 0x34 }
  - { offset: 0xA8734, size: 0x8, addend: 0x0, symName: __RNvXs7_NtNtCs9f3LFPSIp77_4core3cmp5implsRNtNtCsATtFUPiRFW_3syn4expr5IndexNtB7_9PartialEq2eqBH_, symObjAddr: 0x1118, symBinAddr: 0x43A3C, symSize: 0x34 }
  - { offset: 0xA8783, size: 0x8, addend: 0x0, symName: __RNvXs7_NtNtCs9f3LFPSIp77_4core3cmp5implsRNtNtCsATtFUPiRFW_3syn4expr6ExprIfNtB7_9PartialEq2eqBH_, symObjAddr: 0x114C, symBinAddr: 0x43A70, symSize: 0x34 }
  - { offset: 0xA87D2, size: 0x8, addend: 0x0, symName: __RNvXs7_NtNtCs9f3LFPSIp77_4core3cmp5implsRNtNtCsATtFUPiRFW_3syn4expr7ExprLetNtB7_9PartialEq2eqBH_, symObjAddr: 0x1180, symBinAddr: 0x43AA4, symSize: 0x34 }
  - { offset: 0xA8821, size: 0x8, addend: 0x0, symName: __RNvXs7_NtNtCs9f3LFPSIp77_4core3cmp5implsRNtNtCsATtFUPiRFW_3syn4expr7ExprLitNtB7_9PartialEq2eqBH_, symObjAddr: 0x11B4, symBinAddr: 0x43AD8, symSize: 0x34 }
  - { offset: 0xA8870, size: 0x8, addend: 0x0, symName: __RNvXs7_NtNtCs9f3LFPSIp77_4core3cmp5implsRNtNtCsATtFUPiRFW_3syn4expr7ExprTryNtB7_9PartialEq2eqBH_, symObjAddr: 0x11E8, symBinAddr: 0x43B0C, symSize: 0x34 }
  - { offset: 0xA88BF, size: 0x8, addend: 0x0, symName: __RNvXs7_NtNtCs9f3LFPSIp77_4core3cmp5implsRNtNtCsATtFUPiRFW_3syn4expr8ExprCallNtB7_9PartialEq2eqBH_, symObjAddr: 0x121C, symBinAddr: 0x43B40, symSize: 0x34 }
  - { offset: 0xA890E, size: 0x8, addend: 0x0, symName: __RNvXs7_NtNtCs9f3LFPSIp77_4core3cmp5implsRNtNtCsATtFUPiRFW_3syn4expr8ExprCastNtB7_9PartialEq2eqBH_, symObjAddr: 0x1250, symBinAddr: 0x43B74, symSize: 0x34 }
  - { offset: 0xA895D, size: 0x8, addend: 0x0, symName: __RNvXs7_NtNtCs9f3LFPSIp77_4core3cmp5implsRNtNtCsATtFUPiRFW_3syn4expr8ExprLoopNtB7_9PartialEq2eqBH_, symObjAddr: 0x1284, symBinAddr: 0x43BA8, symSize: 0x34 }
  - { offset: 0xA89AC, size: 0x8, addend: 0x0, symName: __RNvXs7_NtNtCs9f3LFPSIp77_4core3cmp5implsRNtNtCsATtFUPiRFW_3syn4expr8ExprPathNtB7_9PartialEq2eqBH_, symObjAddr: 0x12B8, symBinAddr: 0x43BDC, symSize: 0x34 }
  - { offset: 0xA89FB, size: 0x8, addend: 0x0, symName: __RNvXs7_NtNtCs9f3LFPSIp77_4core3cmp5implsRNtNtCsATtFUPiRFW_3syn4expr9ExprArrayNtB7_9PartialEq2eqBH_, symObjAddr: 0x12EC, symBinAddr: 0x43C10, symSize: 0x34 }
  - { offset: 0xA8A4A, size: 0x8, addend: 0x0, symName: __RNvXs7_NtNtCs9f3LFPSIp77_4core3cmp5implsRNtNtCsATtFUPiRFW_3syn4expr9ExprAsyncNtB7_9PartialEq2eqBH_, symObjAddr: 0x1320, symBinAddr: 0x43C44, symSize: 0x34 }
  - { offset: 0xA8A99, size: 0x8, addend: 0x0, symName: __RNvXs7_NtNtCs9f3LFPSIp77_4core3cmp5implsRNtNtCsATtFUPiRFW_3syn4expr9ExprAwaitNtB7_9PartialEq2eqBH_, symObjAddr: 0x1354, symBinAddr: 0x43C78, symSize: 0x34 }
  - { offset: 0xA8AE8, size: 0x8, addend: 0x0, symName: __RNvXs7_NtNtCs9f3LFPSIp77_4core3cmp5implsRNtNtCsATtFUPiRFW_3syn4expr9ExprBlockNtB7_9PartialEq2eqBH_, symObjAddr: 0x1388, symBinAddr: 0x43CAC, symSize: 0x34 }
  - { offset: 0xA8B37, size: 0x8, addend: 0x0, symName: __RNvXs7_NtNtCs9f3LFPSIp77_4core3cmp5implsRNtNtCsATtFUPiRFW_3syn4expr9ExprBreakNtB7_9PartialEq2eqBH_, symObjAddr: 0x13BC, symBinAddr: 0x43CE0, symSize: 0x34 }
  - { offset: 0xA8B86, size: 0x8, addend: 0x0, symName: __RNvXs7_NtNtCs9f3LFPSIp77_4core3cmp5implsRNtNtCsATtFUPiRFW_3syn4expr9ExprConstNtB7_9PartialEq2eqBH_, symObjAddr: 0x13F0, symBinAddr: 0x43D14, symSize: 0x34 }
  - { offset: 0xA8BD5, size: 0x8, addend: 0x0, symName: __RNvXs7_NtNtCs9f3LFPSIp77_4core3cmp5implsRNtNtCsATtFUPiRFW_3syn4expr9ExprFieldNtB7_9PartialEq2eqBH_, symObjAddr: 0x1424, symBinAddr: 0x43D48, symSize: 0x34 }
  - { offset: 0xA8C24, size: 0x8, addend: 0x0, symName: __RNvXs7_NtNtCs9f3LFPSIp77_4core3cmp5implsRNtNtCsATtFUPiRFW_3syn4expr9ExprGroupNtB7_9PartialEq2eqBH_, symObjAddr: 0x1458, symBinAddr: 0x43D7C, symSize: 0x34 }
  - { offset: 0xA8C73, size: 0x8, addend: 0x0, symName: __RNvXs7_NtNtCs9f3LFPSIp77_4core3cmp5implsRNtNtCsATtFUPiRFW_3syn4expr9ExprIndexNtB7_9PartialEq2eqBH_, symObjAddr: 0x148C, symBinAddr: 0x43DB0, symSize: 0x34 }
  - { offset: 0xA8CC2, size: 0x8, addend: 0x0, symName: __RNvXs7_NtNtCs9f3LFPSIp77_4core3cmp5implsRNtNtCsATtFUPiRFW_3syn4expr9ExprInferNtB7_9PartialEq2eqBH_, symObjAddr: 0x14C0, symBinAddr: 0x43DE4, symSize: 0x34 }
  - { offset: 0xA8D11, size: 0x8, addend: 0x0, symName: __RNvXs7_NtNtCs9f3LFPSIp77_4core3cmp5implsRNtNtCsATtFUPiRFW_3syn4expr9ExprMacroNtB7_9PartialEq2eqBH_, symObjAddr: 0x14F4, symBinAddr: 0x43E18, symSize: 0x34 }
  - { offset: 0xA8D60, size: 0x8, addend: 0x0, symName: __RNvXs7_NtNtCs9f3LFPSIp77_4core3cmp5implsRNtNtCsATtFUPiRFW_3syn4expr9ExprMatchNtB7_9PartialEq2eqBH_, symObjAddr: 0x1528, symBinAddr: 0x43E4C, symSize: 0x34 }
  - { offset: 0xA8DAF, size: 0x8, addend: 0x0, symName: __RNvXs7_NtNtCs9f3LFPSIp77_4core3cmp5implsRNtNtCsATtFUPiRFW_3syn4expr9ExprParenNtB7_9PartialEq2eqBH_, symObjAddr: 0x155C, symBinAddr: 0x43E80, symSize: 0x34 }
  - { offset: 0xA8DFE, size: 0x8, addend: 0x0, symName: __RNvXs7_NtNtCs9f3LFPSIp77_4core3cmp5implsRNtNtCsATtFUPiRFW_3syn4expr9ExprRangeNtB7_9PartialEq2eqBH_, symObjAddr: 0x1590, symBinAddr: 0x43EB4, symSize: 0x34 }
  - { offset: 0xA8E4D, size: 0x8, addend: 0x0, symName: __RNvXs7_NtNtCs9f3LFPSIp77_4core3cmp5implsRNtNtCsATtFUPiRFW_3syn4expr9ExprTupleNtB7_9PartialEq2eqBH_, symObjAddr: 0x15C4, symBinAddr: 0x43EE8, symSize: 0x34 }
  - { offset: 0xA8E9C, size: 0x8, addend: 0x0, symName: __RNvXs7_NtNtCs9f3LFPSIp77_4core3cmp5implsRNtNtCsATtFUPiRFW_3syn4expr9ExprUnaryNtB7_9PartialEq2eqBH_, symObjAddr: 0x15F8, symBinAddr: 0x43F1C, symSize: 0x34 }
  - { offset: 0xA8EEB, size: 0x8, addend: 0x0, symName: __RNvXs7_NtNtCs9f3LFPSIp77_4core3cmp5implsRNtNtCsATtFUPiRFW_3syn4expr9ExprWhileNtB7_9PartialEq2eqBH_, symObjAddr: 0x162C, symBinAddr: 0x43F50, symSize: 0x34 }
  - { offset: 0xA8F3A, size: 0x8, addend: 0x0, symName: __RNvXs7_NtNtCs9f3LFPSIp77_4core3cmp5implsRNtNtCsATtFUPiRFW_3syn4expr9ExprYieldNtB7_9PartialEq2eqBH_, symObjAddr: 0x1660, symBinAddr: 0x43F84, symSize: 0x34 }
  - { offset: 0xA8F90, size: 0x8, addend: 0x0, symName: __RNvYNtNtCsATtFUPiRFW_3syn4expr10ExprAssignNtNtCs9f3LFPSIp77_4core3cmp2Eq27assert_receiver_is_total_eqB6_, symObjAddr: 0x196C, symBinAddr: 0x44290, symSize: 0x10 }
  - { offset: 0xA8FC3, size: 0x8, addend: 0x0, symName: __RNvYNtNtCsATtFUPiRFW_3syn4expr10ExprBinaryNtNtCs9f3LFPSIp77_4core3cmp2Eq27assert_receiver_is_total_eqB6_, symObjAddr: 0x1B20, symBinAddr: 0x44444, symSize: 0x10 }
  - { offset: 0xA8FF6, size: 0x8, addend: 0x0, symName: __RNvYNtNtCsATtFUPiRFW_3syn4expr10ExprRepeatNtNtCs9f3LFPSIp77_4core3cmp2Eq27assert_receiver_is_total_eqB6_, symObjAddr: 0x1CD4, symBinAddr: 0x445F8, symSize: 0x10 }
  - { offset: 0xA9029, size: 0x8, addend: 0x0, symName: __RNvYNtNtCsATtFUPiRFW_3syn4expr10ExprReturnNtNtCs9f3LFPSIp77_4core3cmp2Eq27assert_receiver_is_total_eqB6_, symObjAddr: 0x1E88, symBinAddr: 0x447AC, symSize: 0x10 }
  - { offset: 0xA905C, size: 0x8, addend: 0x0, symName: __RNvYNtNtCsATtFUPiRFW_3syn4expr10ExprStructNtNtCs9f3LFPSIp77_4core3cmp2Eq27assert_receiver_is_total_eqB6_, symObjAddr: 0x203C, symBinAddr: 0x44960, symSize: 0x10 }
  - { offset: 0xA908F, size: 0x8, addend: 0x0, symName: __RNvYNtNtCsATtFUPiRFW_3syn4expr10ExprUnsafeNtNtCs9f3LFPSIp77_4core3cmp2Eq27assert_receiver_is_total_eqB6_, symObjAddr: 0x21F0, symBinAddr: 0x44B14, symSize: 0x10 }
  - { offset: 0xA90C2, size: 0x8, addend: 0x0, symName: __RNvYNtNtCsATtFUPiRFW_3syn4expr10FieldValueNtNtCs9f3LFPSIp77_4core3cmp2Eq27assert_receiver_is_total_eqB6_, symObjAddr: 0x23A4, symBinAddr: 0x44CC8, symSize: 0x10 }
  - { offset: 0xA90F5, size: 0x8, addend: 0x0, symName: __RNvYNtNtCsATtFUPiRFW_3syn4expr11ExprClosureNtNtCs9f3LFPSIp77_4core3cmp2Eq27assert_receiver_is_total_eqB6_, symObjAddr: 0x2560, symBinAddr: 0x44E84, symSize: 0x10 }
  - { offset: 0xA9128, size: 0x8, addend: 0x0, symName: __RNvYNtNtCsATtFUPiRFW_3syn4expr11ExprForLoopNtNtCs9f3LFPSIp77_4core3cmp2Eq27assert_receiver_is_total_eqB6_, symObjAddr: 0x2714, symBinAddr: 0x45038, symSize: 0x10 }
  - { offset: 0xA915B, size: 0x8, addend: 0x0, symName: __RNvYNtNtCsATtFUPiRFW_3syn4expr11ExprRawAddrNtNtCs9f3LFPSIp77_4core3cmp2Eq27assert_receiver_is_total_eqB6_, symObjAddr: 0x28C8, symBinAddr: 0x451EC, symSize: 0x10 }
  - { offset: 0xA918E, size: 0x8, addend: 0x0, symName: __RNvYNtNtCsATtFUPiRFW_3syn4expr11RangeLimitsNtNtCs9f3LFPSIp77_4core3cmp2Eq27assert_receiver_is_total_eqB6_, symObjAddr: 0x2A60, symBinAddr: 0x45384, symSize: 0x10 }
  - { offset: 0xA91C1, size: 0x8, addend: 0x0, symName: __RNvYNtNtCsATtFUPiRFW_3syn4expr12ExprContinueNtNtCs9f3LFPSIp77_4core3cmp2Eq27assert_receiver_is_total_eqB6_, symObjAddr: 0x2BD8, symBinAddr: 0x454FC, symSize: 0x10 }
  - { offset: 0xA91F4, size: 0x8, addend: 0x0, symName: __RNvYNtNtCsATtFUPiRFW_3syn4expr12ExprTryBlockNtNtCs9f3LFPSIp77_4core3cmp2Eq27assert_receiver_is_total_eqB6_, symObjAddr: 0x2D8C, symBinAddr: 0x456B0, symSize: 0x10 }
  - { offset: 0xA9227, size: 0x8, addend: 0x0, symName: __RNvYNtNtCsATtFUPiRFW_3syn4expr13ExprReferenceNtNtCs9f3LFPSIp77_4core3cmp2Eq27assert_receiver_is_total_eqB6_, symObjAddr: 0x2F40, symBinAddr: 0x45864, symSize: 0x10 }
  - { offset: 0xA925A, size: 0x8, addend: 0x0, symName: __RNvYNtNtCsATtFUPiRFW_3syn4expr14ExprMethodCallNtNtCs9f3LFPSIp77_4core3cmp2Eq27assert_receiver_is_total_eqB6_, symObjAddr: 0x30F4, symBinAddr: 0x45A18, symSize: 0x10 }
  - { offset: 0xA928D, size: 0x8, addend: 0x0, symName: __RNvYNtNtCsATtFUPiRFW_3syn4expr17PointerMutabilityNtNtCs9f3LFPSIp77_4core3cmp2Eq27assert_receiver_is_total_eqB6_, symObjAddr: 0x329C, symBinAddr: 0x45BC0, symSize: 0x10 }
  - { offset: 0xA92C0, size: 0x8, addend: 0x0, symName: __RNvYNtNtCsATtFUPiRFW_3syn4expr3ArmNtNtCs9f3LFPSIp77_4core3cmp2Eq27assert_receiver_is_total_eqB6_, symObjAddr: 0x3420, symBinAddr: 0x45D44, symSize: 0x10 }
  - { offset: 0xA92F3, size: 0x8, addend: 0x0, symName: __RNvYNtNtCsATtFUPiRFW_3syn4expr4ExprNtNtCs9f3LFPSIp77_4core3cmp2Eq27assert_receiver_is_total_eqB6_, symObjAddr: 0x35DC, symBinAddr: 0x45F00, symSize: 0x10 }
  - { offset: 0xA9326, size: 0x8, addend: 0x0, symName: __RNvYNtNtCsATtFUPiRFW_3syn4expr5IndexNtNtCs9f3LFPSIp77_4core3cmp2Eq27assert_receiver_is_total_eqB6_, symObjAddr: 0x3784, symBinAddr: 0x460A8, symSize: 0x10 }
  - { offset: 0xA9359, size: 0x8, addend: 0x0, symName: __RNvYNtNtCsATtFUPiRFW_3syn4expr5LabelNtNtCs9f3LFPSIp77_4core3cmp2Eq27assert_receiver_is_total_eqB6_, symObjAddr: 0x3908, symBinAddr: 0x4622C, symSize: 0x10 }
  - { offset: 0xA938C, size: 0x8, addend: 0x0, symName: __RNvYNtNtCsATtFUPiRFW_3syn4expr6ExprIfNtNtCs9f3LFPSIp77_4core3cmp2Eq27assert_receiver_is_total_eqB6_, symObjAddr: 0x3ABC, symBinAddr: 0x463E0, symSize: 0x10 }
  - { offset: 0xA93BF, size: 0x8, addend: 0x0, symName: __RNvYNtNtCsATtFUPiRFW_3syn4expr6MemberNtNtCs9f3LFPSIp77_4core3cmp2Eq27assert_receiver_is_total_eqB6_, symObjAddr: 0x3C70, symBinAddr: 0x46594, symSize: 0x10 }
  - { offset: 0xA93F2, size: 0x8, addend: 0x0, symName: __RNvYNtNtCsATtFUPiRFW_3syn4expr7ExprLetNtNtCs9f3LFPSIp77_4core3cmp2Eq27assert_receiver_is_total_eqB6_, symObjAddr: 0x3E24, symBinAddr: 0x46748, symSize: 0x10 }
  - { offset: 0xA9425, size: 0x8, addend: 0x0, symName: __RNvYNtNtCsATtFUPiRFW_3syn4expr7ExprLitNtNtCs9f3LFPSIp77_4core3cmp2Eq27assert_receiver_is_total_eqB6_, symObjAddr: 0x3FD8, symBinAddr: 0x468FC, symSize: 0x10 }
  - { offset: 0xA9458, size: 0x8, addend: 0x0, symName: __RNvYNtNtCsATtFUPiRFW_3syn4expr7ExprTryNtNtCs9f3LFPSIp77_4core3cmp2Eq27assert_receiver_is_total_eqB6_, symObjAddr: 0x418C, symBinAddr: 0x46AB0, symSize: 0x10 }
  - { offset: 0xA948B, size: 0x8, addend: 0x0, symName: __RNvYNtNtCsATtFUPiRFW_3syn4expr8ExprCallNtNtCs9f3LFPSIp77_4core3cmp2Eq27assert_receiver_is_total_eqB6_, symObjAddr: 0x4340, symBinAddr: 0x46C64, symSize: 0x10 }
  - { offset: 0xA94BE, size: 0x8, addend: 0x0, symName: __RNvYNtNtCsATtFUPiRFW_3syn4expr8ExprCastNtNtCs9f3LFPSIp77_4core3cmp2Eq27assert_receiver_is_total_eqB6_, symObjAddr: 0x44F4, symBinAddr: 0x46E18, symSize: 0x10 }
  - { offset: 0xA94F1, size: 0x8, addend: 0x0, symName: __RNvYNtNtCsATtFUPiRFW_3syn4expr8ExprLoopNtNtCs9f3LFPSIp77_4core3cmp2Eq27assert_receiver_is_total_eqB6_, symObjAddr: 0x46A8, symBinAddr: 0x46FCC, symSize: 0x10 }
  - { offset: 0xA9524, size: 0x8, addend: 0x0, symName: __RNvYNtNtCsATtFUPiRFW_3syn4expr8ExprPathNtNtCs9f3LFPSIp77_4core3cmp2Eq27assert_receiver_is_total_eqB6_, symObjAddr: 0x485C, symBinAddr: 0x47180, symSize: 0x10 }
  - { offset: 0xA9557, size: 0x8, addend: 0x0, symName: __RNvYNtNtCsATtFUPiRFW_3syn4expr9ExprArrayNtNtCs9f3LFPSIp77_4core3cmp2Eq27assert_receiver_is_total_eqB6_, symObjAddr: 0x4A10, symBinAddr: 0x47334, symSize: 0x10 }
  - { offset: 0xA958A, size: 0x8, addend: 0x0, symName: __RNvYNtNtCsATtFUPiRFW_3syn4expr9ExprAsyncNtNtCs9f3LFPSIp77_4core3cmp2Eq27assert_receiver_is_total_eqB6_, symObjAddr: 0x4BC4, symBinAddr: 0x474E8, symSize: 0x10 }
  - { offset: 0xA95BD, size: 0x8, addend: 0x0, symName: __RNvYNtNtCsATtFUPiRFW_3syn4expr9ExprAwaitNtNtCs9f3LFPSIp77_4core3cmp2Eq27assert_receiver_is_total_eqB6_, symObjAddr: 0x4D78, symBinAddr: 0x4769C, symSize: 0x10 }
  - { offset: 0xA95F0, size: 0x8, addend: 0x0, symName: __RNvYNtNtCsATtFUPiRFW_3syn4expr9ExprBlockNtNtCs9f3LFPSIp77_4core3cmp2Eq27assert_receiver_is_total_eqB6_, symObjAddr: 0x4F2C, symBinAddr: 0x47850, symSize: 0x10 }
  - { offset: 0xA9623, size: 0x8, addend: 0x0, symName: __RNvYNtNtCsATtFUPiRFW_3syn4expr9ExprBreakNtNtCs9f3LFPSIp77_4core3cmp2Eq27assert_receiver_is_total_eqB6_, symObjAddr: 0x50E0, symBinAddr: 0x47A04, symSize: 0x10 }
  - { offset: 0xA9656, size: 0x8, addend: 0x0, symName: __RNvYNtNtCsATtFUPiRFW_3syn4expr9ExprConstNtNtCs9f3LFPSIp77_4core3cmp2Eq27assert_receiver_is_total_eqB6_, symObjAddr: 0x5294, symBinAddr: 0x47BB8, symSize: 0x10 }
  - { offset: 0xA9689, size: 0x8, addend: 0x0, symName: __RNvYNtNtCsATtFUPiRFW_3syn4expr9ExprFieldNtNtCs9f3LFPSIp77_4core3cmp2Eq27assert_receiver_is_total_eqB6_, symObjAddr: 0x5448, symBinAddr: 0x47D6C, symSize: 0x10 }
  - { offset: 0xA96BC, size: 0x8, addend: 0x0, symName: __RNvYNtNtCsATtFUPiRFW_3syn4expr9ExprGroupNtNtCs9f3LFPSIp77_4core3cmp2Eq27assert_receiver_is_total_eqB6_, symObjAddr: 0x55FC, symBinAddr: 0x47F20, symSize: 0x10 }
  - { offset: 0xA96EF, size: 0x8, addend: 0x0, symName: __RNvYNtNtCsATtFUPiRFW_3syn4expr9ExprIndexNtNtCs9f3LFPSIp77_4core3cmp2Eq27assert_receiver_is_total_eqB6_, symObjAddr: 0x57B0, symBinAddr: 0x480D4, symSize: 0x10 }
  - { offset: 0xA9722, size: 0x8, addend: 0x0, symName: __RNvYNtNtCsATtFUPiRFW_3syn4expr9ExprInferNtNtCs9f3LFPSIp77_4core3cmp2Eq27assert_receiver_is_total_eqB6_, symObjAddr: 0x5964, symBinAddr: 0x48288, symSize: 0x10 }
  - { offset: 0xA9755, size: 0x8, addend: 0x0, symName: __RNvYNtNtCsATtFUPiRFW_3syn4expr9ExprMacroNtNtCs9f3LFPSIp77_4core3cmp2Eq27assert_receiver_is_total_eqB6_, symObjAddr: 0x5B18, symBinAddr: 0x4843C, symSize: 0x10 }
  - { offset: 0xA9788, size: 0x8, addend: 0x0, symName: __RNvYNtNtCsATtFUPiRFW_3syn4expr9ExprMatchNtNtCs9f3LFPSIp77_4core3cmp2Eq27assert_receiver_is_total_eqB6_, symObjAddr: 0x5CCC, symBinAddr: 0x485F0, symSize: 0x10 }
  - { offset: 0xA97BB, size: 0x8, addend: 0x0, symName: __RNvYNtNtCsATtFUPiRFW_3syn4expr9ExprParenNtNtCs9f3LFPSIp77_4core3cmp2Eq27assert_receiver_is_total_eqB6_, symObjAddr: 0x5E80, symBinAddr: 0x487A4, symSize: 0x10 }
  - { offset: 0xA97EE, size: 0x8, addend: 0x0, symName: __RNvYNtNtCsATtFUPiRFW_3syn4expr9ExprRangeNtNtCs9f3LFPSIp77_4core3cmp2Eq27assert_receiver_is_total_eqB6_, symObjAddr: 0x6034, symBinAddr: 0x48958, symSize: 0x10 }
  - { offset: 0xA9821, size: 0x8, addend: 0x0, symName: __RNvYNtNtCsATtFUPiRFW_3syn4expr9ExprTupleNtNtCs9f3LFPSIp77_4core3cmp2Eq27assert_receiver_is_total_eqB6_, symObjAddr: 0x61E8, symBinAddr: 0x48B0C, symSize: 0x10 }
  - { offset: 0xA9854, size: 0x8, addend: 0x0, symName: __RNvYNtNtCsATtFUPiRFW_3syn4expr9ExprUnaryNtNtCs9f3LFPSIp77_4core3cmp2Eq27assert_receiver_is_total_eqB6_, symObjAddr: 0x639C, symBinAddr: 0x48CC0, symSize: 0x10 }
  - { offset: 0xA9887, size: 0x8, addend: 0x0, symName: __RNvYNtNtCsATtFUPiRFW_3syn4expr9ExprWhileNtNtCs9f3LFPSIp77_4core3cmp2Eq27assert_receiver_is_total_eqB6_, symObjAddr: 0x6550, symBinAddr: 0x48E74, symSize: 0x10 }
  - { offset: 0xA98BA, size: 0x8, addend: 0x0, symName: __RNvYNtNtCsATtFUPiRFW_3syn4expr9ExprYieldNtNtCs9f3LFPSIp77_4core3cmp2Eq27assert_receiver_is_total_eqB6_, symObjAddr: 0x6704, symBinAddr: 0x49028, symSize: 0x10 }
  - { offset: 0xA98F3, size: 0x8, addend: 0x0, symName: __RNvYNtNtCsATtFUPiRFW_3syn4expr10ExprAssignNtNtCs9f3LFPSIp77_4core3cmp9PartialEq2neB6_, symObjAddr: 0x197C, symBinAddr: 0x442A0, symSize: 0x30 }
  - { offset: 0xA9942, size: 0x8, addend: 0x0, symName: __RNvYNtNtCsATtFUPiRFW_3syn4expr10ExprBinaryNtNtCs9f3LFPSIp77_4core3cmp9PartialEq2neB6_, symObjAddr: 0x1B30, symBinAddr: 0x44454, symSize: 0x30 }
  - { offset: 0xA9991, size: 0x8, addend: 0x0, symName: __RNvYNtNtCsATtFUPiRFW_3syn4expr10ExprRepeatNtNtCs9f3LFPSIp77_4core3cmp9PartialEq2neB6_, symObjAddr: 0x1CE4, symBinAddr: 0x44608, symSize: 0x30 }
  - { offset: 0xA99E0, size: 0x8, addend: 0x0, symName: __RNvYNtNtCsATtFUPiRFW_3syn4expr10ExprReturnNtNtCs9f3LFPSIp77_4core3cmp9PartialEq2neB6_, symObjAddr: 0x1E98, symBinAddr: 0x447BC, symSize: 0x30 }
  - { offset: 0xA9A2F, size: 0x8, addend: 0x0, symName: __RNvYNtNtCsATtFUPiRFW_3syn4expr10ExprStructNtNtCs9f3LFPSIp77_4core3cmp9PartialEq2neB6_, symObjAddr: 0x204C, symBinAddr: 0x44970, symSize: 0x30 }
  - { offset: 0xA9A7E, size: 0x8, addend: 0x0, symName: __RNvYNtNtCsATtFUPiRFW_3syn4expr10ExprUnsafeNtNtCs9f3LFPSIp77_4core3cmp9PartialEq2neB6_, symObjAddr: 0x2200, symBinAddr: 0x44B24, symSize: 0x30 }
  - { offset: 0xA9ACD, size: 0x8, addend: 0x0, symName: __RNvYNtNtCsATtFUPiRFW_3syn4expr10FieldValueNtNtCs9f3LFPSIp77_4core3cmp9PartialEq2neB6_, symObjAddr: 0x23B4, symBinAddr: 0x44CD8, symSize: 0x30 }
  - { offset: 0xA9B1C, size: 0x8, addend: 0x0, symName: __RNvYNtNtCsATtFUPiRFW_3syn4expr11ExprClosureNtNtCs9f3LFPSIp77_4core3cmp9PartialEq2neB6_, symObjAddr: 0x2570, symBinAddr: 0x44E94, symSize: 0x30 }
  - { offset: 0xA9B6B, size: 0x8, addend: 0x0, symName: __RNvYNtNtCsATtFUPiRFW_3syn4expr11ExprForLoopNtNtCs9f3LFPSIp77_4core3cmp9PartialEq2neB6_, symObjAddr: 0x2724, symBinAddr: 0x45048, symSize: 0x30 }
  - { offset: 0xA9BBA, size: 0x8, addend: 0x0, symName: __RNvYNtNtCsATtFUPiRFW_3syn4expr11ExprRawAddrNtNtCs9f3LFPSIp77_4core3cmp9PartialEq2neB6_, symObjAddr: 0x28D8, symBinAddr: 0x451FC, symSize: 0x30 }
  - { offset: 0xA9C09, size: 0x8, addend: 0x0, symName: __RNvYNtNtCsATtFUPiRFW_3syn4expr11RangeLimitsNtNtCs9f3LFPSIp77_4core3cmp9PartialEq2neB6_, symObjAddr: 0x2A70, symBinAddr: 0x45394, symSize: 0x30 }
  - { offset: 0xA9C58, size: 0x8, addend: 0x0, symName: __RNvYNtNtCsATtFUPiRFW_3syn4expr12ExprContinueNtNtCs9f3LFPSIp77_4core3cmp9PartialEq2neB6_, symObjAddr: 0x2BE8, symBinAddr: 0x4550C, symSize: 0x30 }
  - { offset: 0xA9CA7, size: 0x8, addend: 0x0, symName: __RNvYNtNtCsATtFUPiRFW_3syn4expr12ExprTryBlockNtNtCs9f3LFPSIp77_4core3cmp9PartialEq2neB6_, symObjAddr: 0x2D9C, symBinAddr: 0x456C0, symSize: 0x30 }
  - { offset: 0xA9CF6, size: 0x8, addend: 0x0, symName: __RNvYNtNtCsATtFUPiRFW_3syn4expr13ExprReferenceNtNtCs9f3LFPSIp77_4core3cmp9PartialEq2neB6_, symObjAddr: 0x2F50, symBinAddr: 0x45874, symSize: 0x30 }
  - { offset: 0xA9D45, size: 0x8, addend: 0x0, symName: __RNvYNtNtCsATtFUPiRFW_3syn4expr14ExprMethodCallNtNtCs9f3LFPSIp77_4core3cmp9PartialEq2neB6_, symObjAddr: 0x3104, symBinAddr: 0x45A28, symSize: 0x30 }
  - { offset: 0xA9D94, size: 0x8, addend: 0x0, symName: __RNvYNtNtCsATtFUPiRFW_3syn4expr17PointerMutabilityNtNtCs9f3LFPSIp77_4core3cmp9PartialEq2neB6_, symObjAddr: 0x32AC, symBinAddr: 0x45BD0, symSize: 0x30 }
  - { offset: 0xA9DE3, size: 0x8, addend: 0x0, symName: __RNvYNtNtCsATtFUPiRFW_3syn4expr3ArmNtNtCs9f3LFPSIp77_4core3cmp9PartialEq2neB6_, symObjAddr: 0x3430, symBinAddr: 0x45D54, symSize: 0x30 }
  - { offset: 0xA9E32, size: 0x8, addend: 0x0, symName: __RNvYNtNtCsATtFUPiRFW_3syn4expr4ExprNtNtCs9f3LFPSIp77_4core3cmp9PartialEq2neB6_, symObjAddr: 0x35EC, symBinAddr: 0x45F10, symSize: 0x30 }
  - { offset: 0xA9E81, size: 0x8, addend: 0x0, symName: __RNvYNtNtCsATtFUPiRFW_3syn4expr5IndexNtNtCs9f3LFPSIp77_4core3cmp9PartialEq2neB6_, symObjAddr: 0x3794, symBinAddr: 0x460B8, symSize: 0x30 }
  - { offset: 0xA9ED0, size: 0x8, addend: 0x0, symName: __RNvYNtNtCsATtFUPiRFW_3syn4expr5LabelNtNtCs9f3LFPSIp77_4core3cmp9PartialEq2neB6_, symObjAddr: 0x3918, symBinAddr: 0x4623C, symSize: 0x30 }
  - { offset: 0xA9F1F, size: 0x8, addend: 0x0, symName: __RNvYNtNtCsATtFUPiRFW_3syn4expr6ExprIfNtNtCs9f3LFPSIp77_4core3cmp9PartialEq2neB6_, symObjAddr: 0x3ACC, symBinAddr: 0x463F0, symSize: 0x30 }
  - { offset: 0xA9F6E, size: 0x8, addend: 0x0, symName: __RNvYNtNtCsATtFUPiRFW_3syn4expr6MemberNtNtCs9f3LFPSIp77_4core3cmp9PartialEq2neB6_, symObjAddr: 0x3C80, symBinAddr: 0x465A4, symSize: 0x30 }
  - { offset: 0xA9FBD, size: 0x8, addend: 0x0, symName: __RNvYNtNtCsATtFUPiRFW_3syn4expr7ExprLetNtNtCs9f3LFPSIp77_4core3cmp9PartialEq2neB6_, symObjAddr: 0x3E34, symBinAddr: 0x46758, symSize: 0x30 }
  - { offset: 0xAA00C, size: 0x8, addend: 0x0, symName: __RNvYNtNtCsATtFUPiRFW_3syn4expr7ExprLitNtNtCs9f3LFPSIp77_4core3cmp9PartialEq2neB6_, symObjAddr: 0x3FE8, symBinAddr: 0x4690C, symSize: 0x30 }
  - { offset: 0xAA05B, size: 0x8, addend: 0x0, symName: __RNvYNtNtCsATtFUPiRFW_3syn4expr7ExprTryNtNtCs9f3LFPSIp77_4core3cmp9PartialEq2neB6_, symObjAddr: 0x419C, symBinAddr: 0x46AC0, symSize: 0x30 }
  - { offset: 0xAA0AA, size: 0x8, addend: 0x0, symName: __RNvYNtNtCsATtFUPiRFW_3syn4expr8ExprCallNtNtCs9f3LFPSIp77_4core3cmp9PartialEq2neB6_, symObjAddr: 0x4350, symBinAddr: 0x46C74, symSize: 0x30 }
  - { offset: 0xAA0F9, size: 0x8, addend: 0x0, symName: __RNvYNtNtCsATtFUPiRFW_3syn4expr8ExprCastNtNtCs9f3LFPSIp77_4core3cmp9PartialEq2neB6_, symObjAddr: 0x4504, symBinAddr: 0x46E28, symSize: 0x30 }
  - { offset: 0xAA148, size: 0x8, addend: 0x0, symName: __RNvYNtNtCsATtFUPiRFW_3syn4expr8ExprLoopNtNtCs9f3LFPSIp77_4core3cmp9PartialEq2neB6_, symObjAddr: 0x46B8, symBinAddr: 0x46FDC, symSize: 0x30 }
  - { offset: 0xAA197, size: 0x8, addend: 0x0, symName: __RNvYNtNtCsATtFUPiRFW_3syn4expr8ExprPathNtNtCs9f3LFPSIp77_4core3cmp9PartialEq2neB6_, symObjAddr: 0x486C, symBinAddr: 0x47190, symSize: 0x30 }
  - { offset: 0xAA1E6, size: 0x8, addend: 0x0, symName: __RNvYNtNtCsATtFUPiRFW_3syn4expr9ExprArrayNtNtCs9f3LFPSIp77_4core3cmp9PartialEq2neB6_, symObjAddr: 0x4A20, symBinAddr: 0x47344, symSize: 0x30 }
  - { offset: 0xAA235, size: 0x8, addend: 0x0, symName: __RNvYNtNtCsATtFUPiRFW_3syn4expr9ExprAsyncNtNtCs9f3LFPSIp77_4core3cmp9PartialEq2neB6_, symObjAddr: 0x4BD4, symBinAddr: 0x474F8, symSize: 0x30 }
  - { offset: 0xAA284, size: 0x8, addend: 0x0, symName: __RNvYNtNtCsATtFUPiRFW_3syn4expr9ExprAwaitNtNtCs9f3LFPSIp77_4core3cmp9PartialEq2neB6_, symObjAddr: 0x4D88, symBinAddr: 0x476AC, symSize: 0x30 }
  - { offset: 0xAA2D3, size: 0x8, addend: 0x0, symName: __RNvYNtNtCsATtFUPiRFW_3syn4expr9ExprBlockNtNtCs9f3LFPSIp77_4core3cmp9PartialEq2neB6_, symObjAddr: 0x4F3C, symBinAddr: 0x47860, symSize: 0x30 }
  - { offset: 0xAA322, size: 0x8, addend: 0x0, symName: __RNvYNtNtCsATtFUPiRFW_3syn4expr9ExprBreakNtNtCs9f3LFPSIp77_4core3cmp9PartialEq2neB6_, symObjAddr: 0x50F0, symBinAddr: 0x47A14, symSize: 0x30 }
  - { offset: 0xAA371, size: 0x8, addend: 0x0, symName: __RNvYNtNtCsATtFUPiRFW_3syn4expr9ExprConstNtNtCs9f3LFPSIp77_4core3cmp9PartialEq2neB6_, symObjAddr: 0x52A4, symBinAddr: 0x47BC8, symSize: 0x30 }
  - { offset: 0xAA3C0, size: 0x8, addend: 0x0, symName: __RNvYNtNtCsATtFUPiRFW_3syn4expr9ExprFieldNtNtCs9f3LFPSIp77_4core3cmp9PartialEq2neB6_, symObjAddr: 0x5458, symBinAddr: 0x47D7C, symSize: 0x30 }
  - { offset: 0xAA40F, size: 0x8, addend: 0x0, symName: __RNvYNtNtCsATtFUPiRFW_3syn4expr9ExprGroupNtNtCs9f3LFPSIp77_4core3cmp9PartialEq2neB6_, symObjAddr: 0x560C, symBinAddr: 0x47F30, symSize: 0x30 }
  - { offset: 0xAA45E, size: 0x8, addend: 0x0, symName: __RNvYNtNtCsATtFUPiRFW_3syn4expr9ExprIndexNtNtCs9f3LFPSIp77_4core3cmp9PartialEq2neB6_, symObjAddr: 0x57C0, symBinAddr: 0x480E4, symSize: 0x30 }
  - { offset: 0xAA4AD, size: 0x8, addend: 0x0, symName: __RNvYNtNtCsATtFUPiRFW_3syn4expr9ExprInferNtNtCs9f3LFPSIp77_4core3cmp9PartialEq2neB6_, symObjAddr: 0x5974, symBinAddr: 0x48298, symSize: 0x30 }
  - { offset: 0xAA4FC, size: 0x8, addend: 0x0, symName: __RNvYNtNtCsATtFUPiRFW_3syn4expr9ExprMacroNtNtCs9f3LFPSIp77_4core3cmp9PartialEq2neB6_, symObjAddr: 0x5B28, symBinAddr: 0x4844C, symSize: 0x30 }
  - { offset: 0xAA54B, size: 0x8, addend: 0x0, symName: __RNvYNtNtCsATtFUPiRFW_3syn4expr9ExprMatchNtNtCs9f3LFPSIp77_4core3cmp9PartialEq2neB6_, symObjAddr: 0x5CDC, symBinAddr: 0x48600, symSize: 0x30 }
  - { offset: 0xAA59A, size: 0x8, addend: 0x0, symName: __RNvYNtNtCsATtFUPiRFW_3syn4expr9ExprParenNtNtCs9f3LFPSIp77_4core3cmp9PartialEq2neB6_, symObjAddr: 0x5E90, symBinAddr: 0x487B4, symSize: 0x30 }
  - { offset: 0xAA5E9, size: 0x8, addend: 0x0, symName: __RNvYNtNtCsATtFUPiRFW_3syn4expr9ExprRangeNtNtCs9f3LFPSIp77_4core3cmp9PartialEq2neB6_, symObjAddr: 0x6044, symBinAddr: 0x48968, symSize: 0x30 }
  - { offset: 0xAA638, size: 0x8, addend: 0x0, symName: __RNvYNtNtCsATtFUPiRFW_3syn4expr9ExprTupleNtNtCs9f3LFPSIp77_4core3cmp9PartialEq2neB6_, symObjAddr: 0x61F8, symBinAddr: 0x48B1C, symSize: 0x30 }
  - { offset: 0xAA687, size: 0x8, addend: 0x0, symName: __RNvYNtNtCsATtFUPiRFW_3syn4expr9ExprUnaryNtNtCs9f3LFPSIp77_4core3cmp9PartialEq2neB6_, symObjAddr: 0x63AC, symBinAddr: 0x48CD0, symSize: 0x30 }
  - { offset: 0xAA6D6, size: 0x8, addend: 0x0, symName: __RNvYNtNtCsATtFUPiRFW_3syn4expr9ExprWhileNtNtCs9f3LFPSIp77_4core3cmp9PartialEq2neB6_, symObjAddr: 0x6560, symBinAddr: 0x48E84, symSize: 0x30 }
  - { offset: 0xAA725, size: 0x8, addend: 0x0, symName: __RNvYNtNtCsATtFUPiRFW_3syn4expr9ExprYieldNtNtCs9f3LFPSIp77_4core3cmp9PartialEq2neB6_, symObjAddr: 0x6714, symBinAddr: 0x49038, symSize: 0x30 }
  - { offset: 0xAA780, size: 0x8, addend: 0x0, symName: __RNvXs8_NtCs9f3LFPSIp77_4core5tupleTNtNtCsATtFUPiRFW_3syn4expr10FieldValueNtNtBB_5token5CommaENtNtB7_3cmp9PartialEq2neBB_, symObjAddr: 0x1694, symBinAddr: 0x43FB8, symSize: 0x64 }
  - { offset: 0xAA7CC, size: 0x8, addend: 0x0, symName: __RNvXs8_NtCs9f3LFPSIp77_4core5tupleTNtNtCsATtFUPiRFW_3syn4expr4ExprNtNtBB_5token5CommaENtNtB7_3cmp9PartialEq2neBB_, symObjAddr: 0x16F8, symBinAddr: 0x4401C, symSize: 0x64 }
  - { offset: 0xACEEB, size: 0x8, addend: 0x0, symName: __RNvXNtCs62MdaZFMefA_5quote9to_tokensRNtNtCsATtFUPiRFW_3syn4expr10FieldValueNtB2_8ToTokens9to_tokensBD_, symObjAddr: 0x8B4, symBinAddr: 0x431D8, symSize: 0x40 }
  - { offset: 0xACF2A, size: 0x8, addend: 0x0, symName: __RNvXNtCs62MdaZFMefA_5quote9to_tokensRNtNtCsATtFUPiRFW_3syn4expr4ExprNtB2_8ToTokens9to_tokensBD_, symObjAddr: 0x8F4, symBinAddr: 0x43218, symSize: 0x40 }
  - { offset: 0xACF6F, size: 0x8, addend: 0x0, symName: __RNvYNtNtCsATtFUPiRFW_3syn4expr10ExprAssignNtNtCs62MdaZFMefA_5quote9to_tokens8ToTokens15to_token_streamB6_, symObjAddr: 0x187C, symBinAddr: 0x441A0, symSize: 0x8C }
  - { offset: 0xACFB9, size: 0x8, addend: 0x0, symName: __RNvYNtNtCsATtFUPiRFW_3syn4expr10ExprAssignNtNtCs62MdaZFMefA_5quote9to_tokens8ToTokens17into_token_streamB6_, symObjAddr: 0x1908, symBinAddr: 0x4422C, symSize: 0x64 }
  - { offset: 0xACFEF, size: 0x8, addend: 0x0, symName: __RNvYNtNtCsATtFUPiRFW_3syn4expr10ExprBinaryNtNtCs62MdaZFMefA_5quote9to_tokens8ToTokens15to_token_streamB6_, symObjAddr: 0x1A30, symBinAddr: 0x44354, symSize: 0x8C }
  - { offset: 0xAD039, size: 0x8, addend: 0x0, symName: __RNvYNtNtCsATtFUPiRFW_3syn4expr10ExprBinaryNtNtCs62MdaZFMefA_5quote9to_tokens8ToTokens17into_token_streamB6_, symObjAddr: 0x1ABC, symBinAddr: 0x443E0, symSize: 0x64 }
  - { offset: 0xAD06F, size: 0x8, addend: 0x0, symName: __RNvYNtNtCsATtFUPiRFW_3syn4expr10ExprRepeatNtNtCs62MdaZFMefA_5quote9to_tokens8ToTokens15to_token_streamB6_, symObjAddr: 0x1BE4, symBinAddr: 0x44508, symSize: 0x8C }
  - { offset: 0xAD0B9, size: 0x8, addend: 0x0, symName: __RNvYNtNtCsATtFUPiRFW_3syn4expr10ExprRepeatNtNtCs62MdaZFMefA_5quote9to_tokens8ToTokens17into_token_streamB6_, symObjAddr: 0x1C70, symBinAddr: 0x44594, symSize: 0x64 }
  - { offset: 0xAD0EF, size: 0x8, addend: 0x0, symName: __RNvYNtNtCsATtFUPiRFW_3syn4expr10ExprReturnNtNtCs62MdaZFMefA_5quote9to_tokens8ToTokens15to_token_streamB6_, symObjAddr: 0x1D98, symBinAddr: 0x446BC, symSize: 0x8C }
  - { offset: 0xAD139, size: 0x8, addend: 0x0, symName: __RNvYNtNtCsATtFUPiRFW_3syn4expr10ExprReturnNtNtCs62MdaZFMefA_5quote9to_tokens8ToTokens17into_token_streamB6_, symObjAddr: 0x1E24, symBinAddr: 0x44748, symSize: 0x64 }
  - { offset: 0xAD16F, size: 0x8, addend: 0x0, symName: __RNvYNtNtCsATtFUPiRFW_3syn4expr10ExprStructNtNtCs62MdaZFMefA_5quote9to_tokens8ToTokens15to_token_streamB6_, symObjAddr: 0x1F4C, symBinAddr: 0x44870, symSize: 0x8C }
  - { offset: 0xAD1B9, size: 0x8, addend: 0x0, symName: __RNvYNtNtCsATtFUPiRFW_3syn4expr10ExprStructNtNtCs62MdaZFMefA_5quote9to_tokens8ToTokens17into_token_streamB6_, symObjAddr: 0x1FD8, symBinAddr: 0x448FC, symSize: 0x64 }
  - { offset: 0xAD1EF, size: 0x8, addend: 0x0, symName: __RNvYNtNtCsATtFUPiRFW_3syn4expr10ExprUnsafeNtNtCs62MdaZFMefA_5quote9to_tokens8ToTokens15to_token_streamB6_, symObjAddr: 0x2100, symBinAddr: 0x44A24, symSize: 0x8C }
  - { offset: 0xAD239, size: 0x8, addend: 0x0, symName: __RNvYNtNtCsATtFUPiRFW_3syn4expr10ExprUnsafeNtNtCs62MdaZFMefA_5quote9to_tokens8ToTokens17into_token_streamB6_, symObjAddr: 0x218C, symBinAddr: 0x44AB0, symSize: 0x64 }
  - { offset: 0xAD26F, size: 0x8, addend: 0x0, symName: __RNvYNtNtCsATtFUPiRFW_3syn4expr10FieldValueNtNtCs62MdaZFMefA_5quote9to_tokens8ToTokens15to_token_streamB6_, symObjAddr: 0x22B4, symBinAddr: 0x44BD8, symSize: 0x8C }
  - { offset: 0xAD2B9, size: 0x8, addend: 0x0, symName: __RNvYNtNtCsATtFUPiRFW_3syn4expr10FieldValueNtNtCs62MdaZFMefA_5quote9to_tokens8ToTokens17into_token_streamB6_, symObjAddr: 0x2340, symBinAddr: 0x44C64, symSize: 0x64 }
  - { offset: 0xAD2EF, size: 0x8, addend: 0x0, symName: __RNvYNtNtCsATtFUPiRFW_3syn4expr11ExprClosureNtNtCs62MdaZFMefA_5quote9to_tokens8ToTokens15to_token_streamB6_, symObjAddr: 0x2470, symBinAddr: 0x44D94, symSize: 0x8C }
  - { offset: 0xAD339, size: 0x8, addend: 0x0, symName: __RNvYNtNtCsATtFUPiRFW_3syn4expr11ExprClosureNtNtCs62MdaZFMefA_5quote9to_tokens8ToTokens17into_token_streamB6_, symObjAddr: 0x24FC, symBinAddr: 0x44E20, symSize: 0x64 }
  - { offset: 0xAD36F, size: 0x8, addend: 0x0, symName: __RNvYNtNtCsATtFUPiRFW_3syn4expr11ExprForLoopNtNtCs62MdaZFMefA_5quote9to_tokens8ToTokens15to_token_streamB6_, symObjAddr: 0x2624, symBinAddr: 0x44F48, symSize: 0x8C }
  - { offset: 0xAD3B9, size: 0x8, addend: 0x0, symName: __RNvYNtNtCsATtFUPiRFW_3syn4expr11ExprForLoopNtNtCs62MdaZFMefA_5quote9to_tokens8ToTokens17into_token_streamB6_, symObjAddr: 0x26B0, symBinAddr: 0x44FD4, symSize: 0x64 }
  - { offset: 0xAD3EF, size: 0x8, addend: 0x0, symName: __RNvYNtNtCsATtFUPiRFW_3syn4expr11ExprRawAddrNtNtCs62MdaZFMefA_5quote9to_tokens8ToTokens15to_token_streamB6_, symObjAddr: 0x27D8, symBinAddr: 0x450FC, symSize: 0x8C }
  - { offset: 0xAD439, size: 0x8, addend: 0x0, symName: __RNvYNtNtCsATtFUPiRFW_3syn4expr11ExprRawAddrNtNtCs62MdaZFMefA_5quote9to_tokens8ToTokens17into_token_streamB6_, symObjAddr: 0x2864, symBinAddr: 0x45188, symSize: 0x64 }
  - { offset: 0xAD46F, size: 0x8, addend: 0x0, symName: __RNvYNtNtCsATtFUPiRFW_3syn4expr11RangeLimitsNtNtCs62MdaZFMefA_5quote9to_tokens8ToTokens15to_token_streamB6_, symObjAddr: 0x298C, symBinAddr: 0x452B0, symSize: 0x8C }
  - { offset: 0xAD4B9, size: 0x8, addend: 0x0, symName: __RNvYNtNtCsATtFUPiRFW_3syn4expr11RangeLimitsNtNtCs62MdaZFMefA_5quote9to_tokens8ToTokens17into_token_streamB6_, symObjAddr: 0x2A18, symBinAddr: 0x4533C, symSize: 0x48 }
  - { offset: 0xAD4EF, size: 0x8, addend: 0x0, symName: __RNvYNtNtCsATtFUPiRFW_3syn4expr12ExprContinueNtNtCs62MdaZFMefA_5quote9to_tokens8ToTokens15to_token_streamB6_, symObjAddr: 0x2AE8, symBinAddr: 0x4540C, symSize: 0x8C }
  - { offset: 0xAD539, size: 0x8, addend: 0x0, symName: __RNvYNtNtCsATtFUPiRFW_3syn4expr12ExprContinueNtNtCs62MdaZFMefA_5quote9to_tokens8ToTokens17into_token_streamB6_, symObjAddr: 0x2B74, symBinAddr: 0x45498, symSize: 0x64 }
  - { offset: 0xAD56F, size: 0x8, addend: 0x0, symName: __RNvYNtNtCsATtFUPiRFW_3syn4expr12ExprTryBlockNtNtCs62MdaZFMefA_5quote9to_tokens8ToTokens15to_token_streamB6_, symObjAddr: 0x2C9C, symBinAddr: 0x455C0, symSize: 0x8C }
  - { offset: 0xAD5B9, size: 0x8, addend: 0x0, symName: __RNvYNtNtCsATtFUPiRFW_3syn4expr12ExprTryBlockNtNtCs62MdaZFMefA_5quote9to_tokens8ToTokens17into_token_streamB6_, symObjAddr: 0x2D28, symBinAddr: 0x4564C, symSize: 0x64 }
  - { offset: 0xAD5EF, size: 0x8, addend: 0x0, symName: __RNvYNtNtCsATtFUPiRFW_3syn4expr13ExprReferenceNtNtCs62MdaZFMefA_5quote9to_tokens8ToTokens15to_token_streamB6_, symObjAddr: 0x2E50, symBinAddr: 0x45774, symSize: 0x8C }
  - { offset: 0xAD639, size: 0x8, addend: 0x0, symName: __RNvYNtNtCsATtFUPiRFW_3syn4expr13ExprReferenceNtNtCs62MdaZFMefA_5quote9to_tokens8ToTokens17into_token_streamB6_, symObjAddr: 0x2EDC, symBinAddr: 0x45800, symSize: 0x64 }
  - { offset: 0xAD66F, size: 0x8, addend: 0x0, symName: __RNvYNtNtCsATtFUPiRFW_3syn4expr14ExprMethodCallNtNtCs62MdaZFMefA_5quote9to_tokens8ToTokens15to_token_streamB6_, symObjAddr: 0x3004, symBinAddr: 0x45928, symSize: 0x8C }
  - { offset: 0xAD6B9, size: 0x8, addend: 0x0, symName: __RNvYNtNtCsATtFUPiRFW_3syn4expr14ExprMethodCallNtNtCs62MdaZFMefA_5quote9to_tokens8ToTokens17into_token_streamB6_, symObjAddr: 0x3090, symBinAddr: 0x459B4, symSize: 0x64 }
  - { offset: 0xAD6EF, size: 0x8, addend: 0x0, symName: __RNvYNtNtCsATtFUPiRFW_3syn4expr17PointerMutabilityNtNtCs62MdaZFMefA_5quote9to_tokens8ToTokens15to_token_streamB6_, symObjAddr: 0x31B8, symBinAddr: 0x45ADC, symSize: 0x8C }
  - { offset: 0xAD739, size: 0x8, addend: 0x0, symName: __RNvYNtNtCsATtFUPiRFW_3syn4expr17PointerMutabilityNtNtCs62MdaZFMefA_5quote9to_tokens8ToTokens17into_token_streamB6_, symObjAddr: 0x3244, symBinAddr: 0x45B68, symSize: 0x58 }
  - { offset: 0xAD76E, size: 0x8, addend: 0x0, symName: __RNvYNtNtCsATtFUPiRFW_3syn4expr3ArmNtNtCs62MdaZFMefA_5quote9to_tokens8ToTokens15to_token_streamB6_, symObjAddr: 0x3330, symBinAddr: 0x45C54, symSize: 0x8C }
  - { offset: 0xAD7B8, size: 0x8, addend: 0x0, symName: __RNvYNtNtCsATtFUPiRFW_3syn4expr3ArmNtNtCs62MdaZFMefA_5quote9to_tokens8ToTokens17into_token_streamB6_, symObjAddr: 0x33BC, symBinAddr: 0x45CE0, symSize: 0x64 }
  - { offset: 0xAD7EE, size: 0x8, addend: 0x0, symName: __RNvYNtNtCsATtFUPiRFW_3syn4expr4ExprNtNtCs62MdaZFMefA_5quote9to_tokens8ToTokens15to_token_streamB6_, symObjAddr: 0x34EC, symBinAddr: 0x45E10, symSize: 0x8C }
  - { offset: 0xAD838, size: 0x8, addend: 0x0, symName: __RNvYNtNtCsATtFUPiRFW_3syn4expr4ExprNtNtCs62MdaZFMefA_5quote9to_tokens8ToTokens17into_token_streamB6_, symObjAddr: 0x3578, symBinAddr: 0x45E9C, symSize: 0x64 }
  - { offset: 0xAD86E, size: 0x8, addend: 0x0, symName: __RNvYNtNtCsATtFUPiRFW_3syn4expr5IndexNtNtCs62MdaZFMefA_5quote9to_tokens8ToTokens15to_token_streamB6_, symObjAddr: 0x36A0, symBinAddr: 0x45FC4, symSize: 0x8C }
  - { offset: 0xAD8B8, size: 0x8, addend: 0x0, symName: __RNvYNtNtCsATtFUPiRFW_3syn4expr5IndexNtNtCs62MdaZFMefA_5quote9to_tokens8ToTokens17into_token_streamB6_, symObjAddr: 0x372C, symBinAddr: 0x46050, symSize: 0x58 }
  - { offset: 0xAD8ED, size: 0x8, addend: 0x0, symName: __RNvYNtNtCsATtFUPiRFW_3syn4expr5LabelNtNtCs62MdaZFMefA_5quote9to_tokens8ToTokens15to_token_streamB6_, symObjAddr: 0x3818, symBinAddr: 0x4613C, symSize: 0x8C }
  - { offset: 0xAD937, size: 0x8, addend: 0x0, symName: __RNvYNtNtCsATtFUPiRFW_3syn4expr5LabelNtNtCs62MdaZFMefA_5quote9to_tokens8ToTokens17into_token_streamB6_, symObjAddr: 0x38A4, symBinAddr: 0x461C8, symSize: 0x64 }
  - { offset: 0xAD96D, size: 0x8, addend: 0x0, symName: __RNvYNtNtCsATtFUPiRFW_3syn4expr6ExprIfNtNtCs62MdaZFMefA_5quote9to_tokens8ToTokens15to_token_streamB6_, symObjAddr: 0x39CC, symBinAddr: 0x462F0, symSize: 0x8C }
  - { offset: 0xAD9B7, size: 0x8, addend: 0x0, symName: __RNvYNtNtCsATtFUPiRFW_3syn4expr6ExprIfNtNtCs62MdaZFMefA_5quote9to_tokens8ToTokens17into_token_streamB6_, symObjAddr: 0x3A58, symBinAddr: 0x4637C, symSize: 0x64 }
  - { offset: 0xAD9ED, size: 0x8, addend: 0x0, symName: __RNvYNtNtCsATtFUPiRFW_3syn4expr6MemberNtNtCs62MdaZFMefA_5quote9to_tokens8ToTokens15to_token_streamB6_, symObjAddr: 0x3B80, symBinAddr: 0x464A4, symSize: 0x8C }
  - { offset: 0xADA37, size: 0x8, addend: 0x0, symName: __RNvYNtNtCsATtFUPiRFW_3syn4expr6MemberNtNtCs62MdaZFMefA_5quote9to_tokens8ToTokens17into_token_streamB6_, symObjAddr: 0x3C0C, symBinAddr: 0x46530, symSize: 0x64 }
  - { offset: 0xADA6D, size: 0x8, addend: 0x0, symName: __RNvYNtNtCsATtFUPiRFW_3syn4expr7ExprLetNtNtCs62MdaZFMefA_5quote9to_tokens8ToTokens15to_token_streamB6_, symObjAddr: 0x3D34, symBinAddr: 0x46658, symSize: 0x8C }
  - { offset: 0xADAB7, size: 0x8, addend: 0x0, symName: __RNvYNtNtCsATtFUPiRFW_3syn4expr7ExprLetNtNtCs62MdaZFMefA_5quote9to_tokens8ToTokens17into_token_streamB6_, symObjAddr: 0x3DC0, symBinAddr: 0x466E4, symSize: 0x64 }
  - { offset: 0xADAED, size: 0x8, addend: 0x0, symName: __RNvYNtNtCsATtFUPiRFW_3syn4expr7ExprLitNtNtCs62MdaZFMefA_5quote9to_tokens8ToTokens15to_token_streamB6_, symObjAddr: 0x3EE8, symBinAddr: 0x4680C, symSize: 0x8C }
  - { offset: 0xADB37, size: 0x8, addend: 0x0, symName: __RNvYNtNtCsATtFUPiRFW_3syn4expr7ExprLitNtNtCs62MdaZFMefA_5quote9to_tokens8ToTokens17into_token_streamB6_, symObjAddr: 0x3F74, symBinAddr: 0x46898, symSize: 0x64 }
  - { offset: 0xADB6D, size: 0x8, addend: 0x0, symName: __RNvYNtNtCsATtFUPiRFW_3syn4expr7ExprTryNtNtCs62MdaZFMefA_5quote9to_tokens8ToTokens15to_token_streamB6_, symObjAddr: 0x409C, symBinAddr: 0x469C0, symSize: 0x8C }
  - { offset: 0xADBB7, size: 0x8, addend: 0x0, symName: __RNvYNtNtCsATtFUPiRFW_3syn4expr7ExprTryNtNtCs62MdaZFMefA_5quote9to_tokens8ToTokens17into_token_streamB6_, symObjAddr: 0x4128, symBinAddr: 0x46A4C, symSize: 0x64 }
  - { offset: 0xADBED, size: 0x8, addend: 0x0, symName: __RNvYNtNtCsATtFUPiRFW_3syn4expr8ExprCallNtNtCs62MdaZFMefA_5quote9to_tokens8ToTokens15to_token_streamB6_, symObjAddr: 0x4250, symBinAddr: 0x46B74, symSize: 0x8C }
  - { offset: 0xADC37, size: 0x8, addend: 0x0, symName: __RNvYNtNtCsATtFUPiRFW_3syn4expr8ExprCallNtNtCs62MdaZFMefA_5quote9to_tokens8ToTokens17into_token_streamB6_, symObjAddr: 0x42DC, symBinAddr: 0x46C00, symSize: 0x64 }
  - { offset: 0xADC6D, size: 0x8, addend: 0x0, symName: __RNvYNtNtCsATtFUPiRFW_3syn4expr8ExprCastNtNtCs62MdaZFMefA_5quote9to_tokens8ToTokens15to_token_streamB6_, symObjAddr: 0x4404, symBinAddr: 0x46D28, symSize: 0x8C }
  - { offset: 0xADCB7, size: 0x8, addend: 0x0, symName: __RNvYNtNtCsATtFUPiRFW_3syn4expr8ExprCastNtNtCs62MdaZFMefA_5quote9to_tokens8ToTokens17into_token_streamB6_, symObjAddr: 0x4490, symBinAddr: 0x46DB4, symSize: 0x64 }
  - { offset: 0xADCED, size: 0x8, addend: 0x0, symName: __RNvYNtNtCsATtFUPiRFW_3syn4expr8ExprLoopNtNtCs62MdaZFMefA_5quote9to_tokens8ToTokens15to_token_streamB6_, symObjAddr: 0x45B8, symBinAddr: 0x46EDC, symSize: 0x8C }
  - { offset: 0xADD37, size: 0x8, addend: 0x0, symName: __RNvYNtNtCsATtFUPiRFW_3syn4expr8ExprLoopNtNtCs62MdaZFMefA_5quote9to_tokens8ToTokens17into_token_streamB6_, symObjAddr: 0x4644, symBinAddr: 0x46F68, symSize: 0x64 }
  - { offset: 0xADD6D, size: 0x8, addend: 0x0, symName: __RNvYNtNtCsATtFUPiRFW_3syn4expr8ExprPathNtNtCs62MdaZFMefA_5quote9to_tokens8ToTokens15to_token_streamB6_, symObjAddr: 0x476C, symBinAddr: 0x47090, symSize: 0x8C }
  - { offset: 0xADDB7, size: 0x8, addend: 0x0, symName: __RNvYNtNtCsATtFUPiRFW_3syn4expr8ExprPathNtNtCs62MdaZFMefA_5quote9to_tokens8ToTokens17into_token_streamB6_, symObjAddr: 0x47F8, symBinAddr: 0x4711C, symSize: 0x64 }
  - { offset: 0xADDED, size: 0x8, addend: 0x0, symName: __RNvYNtNtCsATtFUPiRFW_3syn4expr9ExprArrayNtNtCs62MdaZFMefA_5quote9to_tokens8ToTokens15to_token_streamB6_, symObjAddr: 0x4920, symBinAddr: 0x47244, symSize: 0x8C }
  - { offset: 0xADE37, size: 0x8, addend: 0x0, symName: __RNvYNtNtCsATtFUPiRFW_3syn4expr9ExprArrayNtNtCs62MdaZFMefA_5quote9to_tokens8ToTokens17into_token_streamB6_, symObjAddr: 0x49AC, symBinAddr: 0x472D0, symSize: 0x64 }
  - { offset: 0xADE6D, size: 0x8, addend: 0x0, symName: __RNvYNtNtCsATtFUPiRFW_3syn4expr9ExprAsyncNtNtCs62MdaZFMefA_5quote9to_tokens8ToTokens15to_token_streamB6_, symObjAddr: 0x4AD4, symBinAddr: 0x473F8, symSize: 0x8C }
  - { offset: 0xADEB7, size: 0x8, addend: 0x0, symName: __RNvYNtNtCsATtFUPiRFW_3syn4expr9ExprAsyncNtNtCs62MdaZFMefA_5quote9to_tokens8ToTokens17into_token_streamB6_, symObjAddr: 0x4B60, symBinAddr: 0x47484, symSize: 0x64 }
  - { offset: 0xADEED, size: 0x8, addend: 0x0, symName: __RNvYNtNtCsATtFUPiRFW_3syn4expr9ExprAwaitNtNtCs62MdaZFMefA_5quote9to_tokens8ToTokens15to_token_streamB6_, symObjAddr: 0x4C88, symBinAddr: 0x475AC, symSize: 0x8C }
  - { offset: 0xADF37, size: 0x8, addend: 0x0, symName: __RNvYNtNtCsATtFUPiRFW_3syn4expr9ExprAwaitNtNtCs62MdaZFMefA_5quote9to_tokens8ToTokens17into_token_streamB6_, symObjAddr: 0x4D14, symBinAddr: 0x47638, symSize: 0x64 }
  - { offset: 0xADF6D, size: 0x8, addend: 0x0, symName: __RNvYNtNtCsATtFUPiRFW_3syn4expr9ExprBlockNtNtCs62MdaZFMefA_5quote9to_tokens8ToTokens15to_token_streamB6_, symObjAddr: 0x4E3C, symBinAddr: 0x47760, symSize: 0x8C }
  - { offset: 0xADFB7, size: 0x8, addend: 0x0, symName: __RNvYNtNtCsATtFUPiRFW_3syn4expr9ExprBlockNtNtCs62MdaZFMefA_5quote9to_tokens8ToTokens17into_token_streamB6_, symObjAddr: 0x4EC8, symBinAddr: 0x477EC, symSize: 0x64 }
  - { offset: 0xADFED, size: 0x8, addend: 0x0, symName: __RNvYNtNtCsATtFUPiRFW_3syn4expr9ExprBreakNtNtCs62MdaZFMefA_5quote9to_tokens8ToTokens15to_token_streamB6_, symObjAddr: 0x4FF0, symBinAddr: 0x47914, symSize: 0x8C }
  - { offset: 0xAE037, size: 0x8, addend: 0x0, symName: __RNvYNtNtCsATtFUPiRFW_3syn4expr9ExprBreakNtNtCs62MdaZFMefA_5quote9to_tokens8ToTokens17into_token_streamB6_, symObjAddr: 0x507C, symBinAddr: 0x479A0, symSize: 0x64 }
  - { offset: 0xAE06D, size: 0x8, addend: 0x0, symName: __RNvYNtNtCsATtFUPiRFW_3syn4expr9ExprConstNtNtCs62MdaZFMefA_5quote9to_tokens8ToTokens15to_token_streamB6_, symObjAddr: 0x51A4, symBinAddr: 0x47AC8, symSize: 0x8C }
  - { offset: 0xAE0B7, size: 0x8, addend: 0x0, symName: __RNvYNtNtCsATtFUPiRFW_3syn4expr9ExprConstNtNtCs62MdaZFMefA_5quote9to_tokens8ToTokens17into_token_streamB6_, symObjAddr: 0x5230, symBinAddr: 0x47B54, symSize: 0x64 }
  - { offset: 0xAE0ED, size: 0x8, addend: 0x0, symName: __RNvYNtNtCsATtFUPiRFW_3syn4expr9ExprFieldNtNtCs62MdaZFMefA_5quote9to_tokens8ToTokens15to_token_streamB6_, symObjAddr: 0x5358, symBinAddr: 0x47C7C, symSize: 0x8C }
  - { offset: 0xAE137, size: 0x8, addend: 0x0, symName: __RNvYNtNtCsATtFUPiRFW_3syn4expr9ExprFieldNtNtCs62MdaZFMefA_5quote9to_tokens8ToTokens17into_token_streamB6_, symObjAddr: 0x53E4, symBinAddr: 0x47D08, symSize: 0x64 }
  - { offset: 0xAE16D, size: 0x8, addend: 0x0, symName: __RNvYNtNtCsATtFUPiRFW_3syn4expr9ExprGroupNtNtCs62MdaZFMefA_5quote9to_tokens8ToTokens15to_token_streamB6_, symObjAddr: 0x550C, symBinAddr: 0x47E30, symSize: 0x8C }
  - { offset: 0xAE1B7, size: 0x8, addend: 0x0, symName: __RNvYNtNtCsATtFUPiRFW_3syn4expr9ExprGroupNtNtCs62MdaZFMefA_5quote9to_tokens8ToTokens17into_token_streamB6_, symObjAddr: 0x5598, symBinAddr: 0x47EBC, symSize: 0x64 }
  - { offset: 0xAE1ED, size: 0x8, addend: 0x0, symName: __RNvYNtNtCsATtFUPiRFW_3syn4expr9ExprIndexNtNtCs62MdaZFMefA_5quote9to_tokens8ToTokens15to_token_streamB6_, symObjAddr: 0x56C0, symBinAddr: 0x47FE4, symSize: 0x8C }
  - { offset: 0xAE237, size: 0x8, addend: 0x0, symName: __RNvYNtNtCsATtFUPiRFW_3syn4expr9ExprIndexNtNtCs62MdaZFMefA_5quote9to_tokens8ToTokens17into_token_streamB6_, symObjAddr: 0x574C, symBinAddr: 0x48070, symSize: 0x64 }
  - { offset: 0xAE26D, size: 0x8, addend: 0x0, symName: __RNvYNtNtCsATtFUPiRFW_3syn4expr9ExprInferNtNtCs62MdaZFMefA_5quote9to_tokens8ToTokens15to_token_streamB6_, symObjAddr: 0x5874, symBinAddr: 0x48198, symSize: 0x8C }
  - { offset: 0xAE2B7, size: 0x8, addend: 0x0, symName: __RNvYNtNtCsATtFUPiRFW_3syn4expr9ExprInferNtNtCs62MdaZFMefA_5quote9to_tokens8ToTokens17into_token_streamB6_, symObjAddr: 0x5900, symBinAddr: 0x48224, symSize: 0x64 }
  - { offset: 0xAE2ED, size: 0x8, addend: 0x0, symName: __RNvYNtNtCsATtFUPiRFW_3syn4expr9ExprMacroNtNtCs62MdaZFMefA_5quote9to_tokens8ToTokens15to_token_streamB6_, symObjAddr: 0x5A28, symBinAddr: 0x4834C, symSize: 0x8C }
  - { offset: 0xAE337, size: 0x8, addend: 0x0, symName: __RNvYNtNtCsATtFUPiRFW_3syn4expr9ExprMacroNtNtCs62MdaZFMefA_5quote9to_tokens8ToTokens17into_token_streamB6_, symObjAddr: 0x5AB4, symBinAddr: 0x483D8, symSize: 0x64 }
  - { offset: 0xAE36D, size: 0x8, addend: 0x0, symName: __RNvYNtNtCsATtFUPiRFW_3syn4expr9ExprMatchNtNtCs62MdaZFMefA_5quote9to_tokens8ToTokens15to_token_streamB6_, symObjAddr: 0x5BDC, symBinAddr: 0x48500, symSize: 0x8C }
  - { offset: 0xAE3B7, size: 0x8, addend: 0x0, symName: __RNvYNtNtCsATtFUPiRFW_3syn4expr9ExprMatchNtNtCs62MdaZFMefA_5quote9to_tokens8ToTokens17into_token_streamB6_, symObjAddr: 0x5C68, symBinAddr: 0x4858C, symSize: 0x64 }
  - { offset: 0xAE3ED, size: 0x8, addend: 0x0, symName: __RNvYNtNtCsATtFUPiRFW_3syn4expr9ExprParenNtNtCs62MdaZFMefA_5quote9to_tokens8ToTokens15to_token_streamB6_, symObjAddr: 0x5D90, symBinAddr: 0x486B4, symSize: 0x8C }
  - { offset: 0xAE437, size: 0x8, addend: 0x0, symName: __RNvYNtNtCsATtFUPiRFW_3syn4expr9ExprParenNtNtCs62MdaZFMefA_5quote9to_tokens8ToTokens17into_token_streamB6_, symObjAddr: 0x5E1C, symBinAddr: 0x48740, symSize: 0x64 }
  - { offset: 0xAE46D, size: 0x8, addend: 0x0, symName: __RNvYNtNtCsATtFUPiRFW_3syn4expr9ExprRangeNtNtCs62MdaZFMefA_5quote9to_tokens8ToTokens15to_token_streamB6_, symObjAddr: 0x5F44, symBinAddr: 0x48868, symSize: 0x8C }
  - { offset: 0xAE4B7, size: 0x8, addend: 0x0, symName: __RNvYNtNtCsATtFUPiRFW_3syn4expr9ExprRangeNtNtCs62MdaZFMefA_5quote9to_tokens8ToTokens17into_token_streamB6_, symObjAddr: 0x5FD0, symBinAddr: 0x488F4, symSize: 0x64 }
  - { offset: 0xAE4ED, size: 0x8, addend: 0x0, symName: __RNvYNtNtCsATtFUPiRFW_3syn4expr9ExprTupleNtNtCs62MdaZFMefA_5quote9to_tokens8ToTokens15to_token_streamB6_, symObjAddr: 0x60F8, symBinAddr: 0x48A1C, symSize: 0x8C }
  - { offset: 0xAE537, size: 0x8, addend: 0x0, symName: __RNvYNtNtCsATtFUPiRFW_3syn4expr9ExprTupleNtNtCs62MdaZFMefA_5quote9to_tokens8ToTokens17into_token_streamB6_, symObjAddr: 0x6184, symBinAddr: 0x48AA8, symSize: 0x64 }
  - { offset: 0xAE56D, size: 0x8, addend: 0x0, symName: __RNvYNtNtCsATtFUPiRFW_3syn4expr9ExprUnaryNtNtCs62MdaZFMefA_5quote9to_tokens8ToTokens15to_token_streamB6_, symObjAddr: 0x62AC, symBinAddr: 0x48BD0, symSize: 0x8C }
  - { offset: 0xAE5B7, size: 0x8, addend: 0x0, symName: __RNvYNtNtCsATtFUPiRFW_3syn4expr9ExprUnaryNtNtCs62MdaZFMefA_5quote9to_tokens8ToTokens17into_token_streamB6_, symObjAddr: 0x6338, symBinAddr: 0x48C5C, symSize: 0x64 }
  - { offset: 0xAE5ED, size: 0x8, addend: 0x0, symName: __RNvYNtNtCsATtFUPiRFW_3syn4expr9ExprWhileNtNtCs62MdaZFMefA_5quote9to_tokens8ToTokens15to_token_streamB6_, symObjAddr: 0x6460, symBinAddr: 0x48D84, symSize: 0x8C }
  - { offset: 0xAE637, size: 0x8, addend: 0x0, symName: __RNvYNtNtCsATtFUPiRFW_3syn4expr9ExprWhileNtNtCs62MdaZFMefA_5quote9to_tokens8ToTokens17into_token_streamB6_, symObjAddr: 0x64EC, symBinAddr: 0x48E10, symSize: 0x64 }
  - { offset: 0xAE66D, size: 0x8, addend: 0x0, symName: __RNvYNtNtCsATtFUPiRFW_3syn4expr9ExprYieldNtNtCs62MdaZFMefA_5quote9to_tokens8ToTokens15to_token_streamB6_, symObjAddr: 0x6614, symBinAddr: 0x48F38, symSize: 0x8C }
  - { offset: 0xAE6B7, size: 0x8, addend: 0x0, symName: __RNvYNtNtCsATtFUPiRFW_3syn4expr9ExprYieldNtNtCs62MdaZFMefA_5quote9to_tokens8ToTokens17into_token_streamB6_, symObjAddr: 0x66A0, symBinAddr: 0x48FC4, symSize: 0x64 }
  - { offset: 0xAE806, size: 0x8, addend: 0x0, symName: __RNvMNtCsATtFUPiRFW_3syn4exprNtB2_4Expr25parse_without_eager_brace, symObjAddr: 0x67C8, symBinAddr: 0x490EC, symSize: 0x3C }
  - { offset: 0xAE829, size: 0x8, addend: 0x0, symName: __RNvMNtCsATtFUPiRFW_3syn4exprNtB2_4Expr32parse_with_earlier_boundary_rule, symObjAddr: 0x6804, symBinAddr: 0x49128, symSize: 0x34 }
  - { offset: 0xAE84C, size: 0x8, addend: 0x0, symName: __RNvMNtCsATtFUPiRFW_3syn4exprNtB2_4Expr4peek, symObjAddr: 0x6838, symBinAddr: 0x4915C, symSize: 0x414 }
  - { offset: 0xAE87C, size: 0x8, addend: 0x0, symName: __RNvMNtCsATtFUPiRFW_3syn4exprNtB2_4Expr13replace_attrs, symObjAddr: 0x6C4C, symBinAddr: 0x49570, symSize: 0x678 }
  - { offset: 0xAE8D2, size: 0x8, addend: 0x0, symName: __RNvMs6_NtCsATtFUPiRFW_3syn4exprNtB5_6Member8is_named, symObjAddr: 0x7618, symBinAddr: 0x49F3C, symSize: 0x6C }
  - { offset: 0xAE958, size: 0x8, addend: 0x0, symName: __RNvMsv_NtNtCsATtFUPiRFW_3syn4expr7parsingNtB7_11RangeLimits14parse_obsolete, symObjAddr: 0xE16C, symBinAddr: 0x50A90, symSize: 0x354 }
  - { offset: 0xAEA07, size: 0x8, addend: 0x0, symName: __RNvMsy_NtNtCsATtFUPiRFW_3syn4expr7parsingNtB7_3Arm14parse_multiple, symObjAddr: 0xE818, symBinAddr: 0x5113C, symSize: 0x1D0 }
  - { offset: 0xAEAC1, size: 0x8, addend: 0x0, symName: __RNvMso_NtNtCsATtFUPiRFW_3syn3gen5debugNtNtB9_4expr9ExprArray5debug, symObjAddr: 0x19CD4, symBinAddr: 0x5C5F8, symSize: 0xDC }
  - { offset: 0xAEB2D, size: 0x8, addend: 0x0, symName: __RNvMsq_NtNtCsATtFUPiRFW_3syn3gen5debugNtNtB9_4expr10ExprAssign5debug, symObjAddr: 0x19DFC, symBinAddr: 0x5C720, symSize: 0x104 }
  - { offset: 0xAEB99, size: 0x8, addend: 0x0, symName: __RNvMss_NtNtCsATtFUPiRFW_3syn3gen5debugNtNtB9_4expr9ExprAsync5debug, symObjAddr: 0x19F4C, symBinAddr: 0x5C870, symSize: 0x104 }
  - { offset: 0xAEC05, size: 0x8, addend: 0x0, symName: __RNvMsu_NtNtCsATtFUPiRFW_3syn3gen5debugNtNtB9_4expr9ExprAwait5debug, symObjAddr: 0x1A09C, symBinAddr: 0x5C9C0, symSize: 0x104 }
  - { offset: 0xAEC71, size: 0x8, addend: 0x0, symName: __RNvMsw_NtNtCsATtFUPiRFW_3syn3gen5debugNtNtB9_4expr10ExprBinary5debug, symObjAddr: 0x1A1EC, symBinAddr: 0x5CB10, symSize: 0x104 }
  - { offset: 0xAECDD, size: 0x8, addend: 0x0, symName: __RNvMsy_NtNtCsATtFUPiRFW_3syn3gen5debugNtNtB9_4expr9ExprBlock5debug, symObjAddr: 0x1A33C, symBinAddr: 0x5CC60, symSize: 0xD8 }
  - { offset: 0xAED49, size: 0x8, addend: 0x0, symName: __RNvMsA_NtNtCsATtFUPiRFW_3syn3gen5debugNtNtB9_4expr9ExprBreak5debug, symObjAddr: 0x1A460, symBinAddr: 0x5CD84, symSize: 0x104 }
  - { offset: 0xAEDB5, size: 0x8, addend: 0x0, symName: __RNvMsC_NtNtCsATtFUPiRFW_3syn3gen5debugNtNtB9_4expr8ExprCall5debug, symObjAddr: 0x1A5B0, symBinAddr: 0x5CED4, symSize: 0x104 }
  - { offset: 0xAEE21, size: 0x8, addend: 0x0, symName: __RNvMsE_NtNtCsATtFUPiRFW_3syn3gen5debugNtNtB9_4expr8ExprCast5debug, symObjAddr: 0x1A700, symBinAddr: 0x5D024, symSize: 0x104 }
  - { offset: 0xAEE8D, size: 0x8, addend: 0x0, symName: __RNvMsG_NtNtCsATtFUPiRFW_3syn3gen5debugNtNtB9_4expr11ExprClosure5debug, symObjAddr: 0x1A850, symBinAddr: 0x5D174, symSize: 0x210 }
  - { offset: 0xAEEF9, size: 0x8, addend: 0x0, symName: __RNvMsI_NtNtCsATtFUPiRFW_3syn3gen5debugNtNtB9_4expr9ExprConst5debug, symObjAddr: 0x1AAAC, symBinAddr: 0x5D3D0, symSize: 0xDC }
  - { offset: 0xAEF65, size: 0x8, addend: 0x0, symName: __RNvMsK_NtNtCsATtFUPiRFW_3syn3gen5debugNtNtB9_4expr12ExprContinue5debug, symObjAddr: 0x1ABD4, symBinAddr: 0x5D4F8, symSize: 0xDC }
  - { offset: 0xAEFD1, size: 0x8, addend: 0x0, symName: __RNvMsM_NtNtCsATtFUPiRFW_3syn3gen5debugNtNtB9_4expr9ExprField5debug, symObjAddr: 0x1ACFC, symBinAddr: 0x5D620, symSize: 0x104 }
  - { offset: 0xAF03D, size: 0x8, addend: 0x0, symName: __RNvMsO_NtNtCsATtFUPiRFW_3syn3gen5debugNtNtB9_4expr11ExprForLoop5debug, symObjAddr: 0x1AE4C, symBinAddr: 0x5D770, symSize: 0x17C }
  - { offset: 0xAF0A9, size: 0x8, addend: 0x0, symName: __RNvMsQ_NtNtCsATtFUPiRFW_3syn3gen5debugNtNtB9_4expr9ExprGroup5debug, symObjAddr: 0x1B014, symBinAddr: 0x5D938, symSize: 0xDC }
  - { offset: 0xAF115, size: 0x8, addend: 0x0, symName: __RNvMsS_NtNtCsATtFUPiRFW_3syn3gen5debugNtNtB9_4expr6ExprIf5debug, symObjAddr: 0x1B13C, symBinAddr: 0x5DA60, symSize: 0x12C }
  - { offset: 0xAF181, size: 0x8, addend: 0x0, symName: __RNvMsU_NtNtCsATtFUPiRFW_3syn3gen5debugNtNtB9_4expr9ExprIndex5debug, symObjAddr: 0x1B2B4, symBinAddr: 0x5DBD8, symSize: 0x104 }
  - { offset: 0xAF1ED, size: 0x8, addend: 0x0, symName: __RNvMsW_NtNtCsATtFUPiRFW_3syn3gen5debugNtNtB9_4expr9ExprInfer5debug, symObjAddr: 0x1B404, symBinAddr: 0x5DD28, symSize: 0xB4 }
  - { offset: 0xAF259, size: 0x8, addend: 0x0, symName: __RNvMsY_NtNtCsATtFUPiRFW_3syn3gen5debugNtNtB9_4expr7ExprLet5debug, symObjAddr: 0x1B504, symBinAddr: 0x5DE28, symSize: 0x12C }
  - { offset: 0xAF2C5, size: 0x8, addend: 0x0, symName: __RNvMs10_NtNtCsATtFUPiRFW_3syn3gen5debugNtNtBa_4expr7ExprLit5debug, symObjAddr: 0x1B67C, symBinAddr: 0x5DFA0, symSize: 0xB4 }
  - { offset: 0xAF331, size: 0x8, addend: 0x0, symName: __RNvMs12_NtNtCsATtFUPiRFW_3syn3gen5debugNtNtBa_4expr8ExprLoop5debug, symObjAddr: 0x1B77C, symBinAddr: 0x5E0A0, symSize: 0x104 }
  - { offset: 0xAF39D, size: 0x8, addend: 0x0, symName: __RNvMs14_NtNtCsATtFUPiRFW_3syn3gen5debugNtNtBa_4expr9ExprMacro5debug, symObjAddr: 0x1B8CC, symBinAddr: 0x5E1F0, symSize: 0xB4 }
  - { offset: 0xAF409, size: 0x8, addend: 0x0, symName: __RNvMs16_NtNtCsATtFUPiRFW_3syn3gen5debugNtNtBa_4expr9ExprMatch5debug, symObjAddr: 0x1B9CC, symBinAddr: 0x5E2F0, symSize: 0x12C }
  - { offset: 0xAF475, size: 0x8, addend: 0x0, symName: __RNvMs18_NtNtCsATtFUPiRFW_3syn3gen5debugNtNtBa_4expr14ExprMethodCall5debug, symObjAddr: 0x1BB44, symBinAddr: 0x5E468, symSize: 0x17C }
  - { offset: 0xAF4E1, size: 0x8, addend: 0x0, symName: __RNvMs1a_NtNtCsATtFUPiRFW_3syn3gen5debugNtNtBa_4expr9ExprParen5debug, symObjAddr: 0x1BD0C, symBinAddr: 0x5E630, symSize: 0xDC }
  - { offset: 0xAF54D, size: 0x8, addend: 0x0, symName: __RNvMs1c_NtNtCsATtFUPiRFW_3syn3gen5debugNtNtBa_4expr8ExprPath5debug, symObjAddr: 0x1BE34, symBinAddr: 0x5E758, symSize: 0xDC }
  - { offset: 0xAF5B9, size: 0x8, addend: 0x0, symName: __RNvMs1e_NtNtCsATtFUPiRFW_3syn3gen5debugNtNtBa_4expr9ExprRange5debug, symObjAddr: 0x1BF5C, symBinAddr: 0x5E880, symSize: 0x104 }
  - { offset: 0xAF625, size: 0x8, addend: 0x0, symName: __RNvMs1g_NtNtCsATtFUPiRFW_3syn3gen5debugNtNtBa_4expr11ExprRawAddr5debug, symObjAddr: 0x1C0AC, symBinAddr: 0x5E9D0, symSize: 0x12C }
  - { offset: 0xAF691, size: 0x8, addend: 0x0, symName: __RNvMs1i_NtNtCsATtFUPiRFW_3syn3gen5debugNtNtBa_4expr13ExprReference5debug, symObjAddr: 0x1C224, symBinAddr: 0x5EB48, symSize: 0x104 }
  - { offset: 0xAF6FD, size: 0x8, addend: 0x0, symName: __RNvMs1k_NtNtCsATtFUPiRFW_3syn3gen5debugNtNtBa_4expr10ExprRepeat5debug, symObjAddr: 0x1C374, symBinAddr: 0x5EC98, symSize: 0x12C }
  - { offset: 0xAF769, size: 0x8, addend: 0x0, symName: __RNvMs1m_NtNtCsATtFUPiRFW_3syn3gen5debugNtNtBa_4expr10ExprReturn5debug, symObjAddr: 0x1C4EC, symBinAddr: 0x5EE10, symSize: 0xDC }
  - { offset: 0xAF7D5, size: 0x8, addend: 0x0, symName: __RNvMs1o_NtNtCsATtFUPiRFW_3syn3gen5debugNtNtBa_4expr10ExprStruct5debug, symObjAddr: 0x1C614, symBinAddr: 0x5EF38, symSize: 0x17C }
  - { offset: 0xAF841, size: 0x8, addend: 0x0, symName: __RNvMs1q_NtNtCsATtFUPiRFW_3syn3gen5debugNtNtBa_4expr7ExprTry5debug, symObjAddr: 0x1C7DC, symBinAddr: 0x5F100, symSize: 0xDC }
  - { offset: 0xAF8AD, size: 0x8, addend: 0x0, symName: __RNvMs1s_NtNtCsATtFUPiRFW_3syn3gen5debugNtNtBa_4expr12ExprTryBlock5debug, symObjAddr: 0x1C904, symBinAddr: 0x5F228, symSize: 0xDC }
  - { offset: 0xAF919, size: 0x8, addend: 0x0, symName: __RNvMs1u_NtNtCsATtFUPiRFW_3syn3gen5debugNtNtBa_4expr9ExprTuple5debug, symObjAddr: 0x1CA2C, symBinAddr: 0x5F350, symSize: 0xDC }
  - { offset: 0xAF985, size: 0x8, addend: 0x0, symName: __RNvMs1w_NtNtCsATtFUPiRFW_3syn3gen5debugNtNtBa_4expr9ExprUnary5debug, symObjAddr: 0x1CB54, symBinAddr: 0x5F478, symSize: 0xDC }
  - { offset: 0xAF9F1, size: 0x8, addend: 0x0, symName: __RNvMs1y_NtNtCsATtFUPiRFW_3syn3gen5debugNtNtBa_4expr10ExprUnsafe5debug, symObjAddr: 0x1CC7C, symBinAddr: 0x5F5A0, symSize: 0xDC }
  - { offset: 0xAFA5D, size: 0x8, addend: 0x0, symName: __RNvMs1A_NtNtCsATtFUPiRFW_3syn3gen5debugNtNtBa_4expr9ExprWhile5debug, symObjAddr: 0x1CDA4, symBinAddr: 0x5F6C8, symSize: 0x12C }
  - { offset: 0xAFAC9, size: 0x8, addend: 0x0, symName: __RNvMs1C_NtNtCsATtFUPiRFW_3syn3gen5debugNtNtBa_4expr9ExprYield5debug, symObjAddr: 0x1CF1C, symBinAddr: 0x5F840, symSize: 0xDC }
  - { offset: 0xB012A, size: 0x8, addend: 0x0, symName: __RNvXNtCs62MdaZFMefA_5quote9to_tokensRNtNtCsATtFUPiRFW_3syn5token2OrNtB2_8ToTokens9to_tokensBD_, symObjAddr: 0x0, symBinAddr: 0x63764, symSize: 0x40 }
  - { offset: 0xB1067, size: 0x8, addend: 0x0, symName: __RNvXs1_NtCsATtFUPiRFW_3syn5tokenNtB5_10UnderscoreNtNtCs62MdaZFMefA_5quote9to_tokens8ToTokens9to_tokens, symObjAddr: 0xA0BC, symBinAddr: 0x6D820, symSize: 0x70 }
  - { offset: 0xB10A6, size: 0x8, addend: 0x0, symName: __RNvXs2_NtCsATtFUPiRFW_3syn5tokenNtB5_10UnderscoreNtNtB7_5parse5Parse5parse, symObjAddr: 0xA12C, symBinAddr: 0x6D890, symSize: 0x34 }
  - { offset: 0xB10D9, size: 0x8, addend: 0x0, symName: __RNCNvXs2_NtCsATtFUPiRFW_3syn5tokenNtB7_10UnderscoreNtNtB9_5parse5Parse5parse0B9_, symObjAddr: 0xA160, symBinAddr: 0x6D8C4, symSize: 0x32C }
  - { offset: 0xB1171, size: 0x8, addend: 0x0, symName: __RNvXs3_NtCsATtFUPiRFW_3syn5tokenNtB5_10UnderscoreNtB5_5Token4peek, symObjAddr: 0xA48C, symBinAddr: 0x6DBF0, symSize: 0x1A0 }
  - { offset: 0xB11EC, size: 0x8, addend: 0x0, symName: __RNvXs3_NtCsATtFUPiRFW_3syn5tokenNtB5_10UnderscoreNtB5_5Token7display, symObjAddr: 0xA62C, symBinAddr: 0x6DD90, symSize: 0x24 }
  - { offset: 0xB120B, size: 0x8, addend: 0x0, symName: __RINvNtCsATtFUPiRFW_3syn5token5GroupNtCs475r2uZUTuc_11proc_macro24SpanEB4_, symObjAddr: 0xA650, symBinAddr: 0x6DDB4, symSize: 0x30 }
  - { offset: 0xB1247, size: 0x8, addend: 0x0, symName: __RNvXs5_NtCsATtFUPiRFW_3syn5tokenNtB5_5GroupNtNtCs9f3LFPSIp77_4core7default7Default7default, symObjAddr: 0xA680, symBinAddr: 0x6DDE4, symSize: 0x24 }
  - { offset: 0xB126B, size: 0x8, addend: 0x0, symName: __RNvXs7_NtCsATtFUPiRFW_3syn5tokenNtB5_5GroupNtNtCs9f3LFPSIp77_4core5clone5Clone5clone, symObjAddr: 0xA6A4, symBinAddr: 0x6DE08, symSize: 0x28 }
  - { offset: 0xB129F, size: 0x8, addend: 0x0, symName: __RNvXs8_NtCsATtFUPiRFW_3syn5tokenNtB5_5GroupNtNtCs9f3LFPSIp77_4core3fmt5Debug3fmt, symObjAddr: 0xA6CC, symBinAddr: 0x6DE30, symSize: 0x50 }
  - { offset: 0xB12E2, size: 0x8, addend: 0x0, symName: __RNvXsa_NtCsATtFUPiRFW_3syn5tokenNtB5_5GroupNtNtCs9f3LFPSIp77_4core3cmp9PartialEq2eq, symObjAddr: 0xA71C, symBinAddr: 0x6DE80, symSize: 0x2C }
  - { offset: 0xB1325, size: 0x8, addend: 0x0, symName: __RNvXse_NtCsATtFUPiRFW_3syn5tokenNtB5_5ParenNtB5_5Token4peek, symObjAddr: 0xA958, symBinAddr: 0x6E0BC, symSize: 0x54 }
  - { offset: 0xB1353, size: 0x8, addend: 0x0, symName: __RNvXse_NtCsATtFUPiRFW_3syn5tokenNtB5_5ParenNtB5_5Token7display, symObjAddr: 0xA9AC, symBinAddr: 0x6E110, symSize: 0x24 }
  - { offset: 0xB1377, size: 0x8, addend: 0x0, symName: __RNvXsf_NtCsATtFUPiRFW_3syn5tokenNtB5_5BraceNtB5_5Token4peek, symObjAddr: 0xA9D0, symBinAddr: 0x6E134, symSize: 0x58 }
  - { offset: 0xB13A5, size: 0x8, addend: 0x0, symName: __RNvXsf_NtCsATtFUPiRFW_3syn5tokenNtB5_5BraceNtB5_5Token7display, symObjAddr: 0xAA28, symBinAddr: 0x6E18C, symSize: 0x24 }
  - { offset: 0xB13C9, size: 0x8, addend: 0x0, symName: __RNvXsg_NtCsATtFUPiRFW_3syn5tokenNtB5_7BracketNtB5_5Token4peek, symObjAddr: 0xAA4C, symBinAddr: 0x6E1B0, symSize: 0x58 }
  - { offset: 0xB13F7, size: 0x8, addend: 0x0, symName: __RNvXsg_NtCsATtFUPiRFW_3syn5tokenNtB5_7BracketNtB5_5Token7display, symObjAddr: 0xAAA4, symBinAddr: 0x6E208, symSize: 0x24 }
  - { offset: 0xB141B, size: 0x8, addend: 0x0, symName: __RNvXsh_NtCsATtFUPiRFW_3syn5tokenNtB5_5GroupNtB5_5Token4peek, symObjAddr: 0xAAC8, symBinAddr: 0x6E22C, symSize: 0x58 }
  - { offset: 0xB1449, size: 0x8, addend: 0x0, symName: __RNvXsh_NtCsATtFUPiRFW_3syn5tokenNtB5_5GroupNtB5_5Token7display, symObjAddr: 0xAB20, symBinAddr: 0x6E284, symSize: 0x24 }
  - { offset: 0xB1468, size: 0x8, addend: 0x0, symName: __RINvNtCsATtFUPiRFW_3syn5token10UnderscoreNtCs475r2uZUTuc_11proc_macro24SpanEB4_, symObjAddr: 0xAB44, symBinAddr: 0x6E2A8, symSize: 0x48 }
  - { offset: 0xB14A4, size: 0x8, addend: 0x0, symName: __RNvXss_NtCsATtFUPiRFW_3syn5tokenNtB5_10UnderscoreNtNtCs9f3LFPSIp77_4core7default7Default7default, symObjAddr: 0xAB8C, symBinAddr: 0x6E2F0, symSize: 0x78 }
  - { offset: 0xB14C8, size: 0x8, addend: 0x0, symName: __RNvXsu_NtCsATtFUPiRFW_3syn5tokenNtB5_10UnderscoreNtNtCs9f3LFPSIp77_4core5clone5Clone5clone, symObjAddr: 0xAC04, symBinAddr: 0x6E368, symSize: 0x30 }
  - { offset: 0xB14FC, size: 0x8, addend: 0x0, symName: __RNvXsv_NtCsATtFUPiRFW_3syn5tokenNtB5_10UnderscoreNtNtCs9f3LFPSIp77_4core3fmt5Debug3fmt, symObjAddr: 0xAC34, symBinAddr: 0x6E398, symSize: 0x50 }
  - { offset: 0xB153F, size: 0x8, addend: 0x0, symName: __RNvXsx_NtCsATtFUPiRFW_3syn5tokenNtB5_10UnderscoreNtNtCs9f3LFPSIp77_4core3cmp9PartialEq2eq, symObjAddr: 0xAC84, symBinAddr: 0x6E3E8, symSize: 0x2C }
  - { offset: 0xB1582, size: 0x8, addend: 0x0, symName: __RNvXsz_NtCsATtFUPiRFW_3syn5tokenNtB5_10UnderscoreNtNtNtCs9f3LFPSIp77_4core3ops5deref5Deref5deref, symObjAddr: 0xACB0, symBinAddr: 0x6E414, symSize: 0x2C }
  - { offset: 0xB15B6, size: 0x8, addend: 0x0, symName: __RNvXsA_NtCsATtFUPiRFW_3syn5tokenNtB5_10UnderscoreNtNtNtCs9f3LFPSIp77_4core3ops5deref8DerefMut9deref_mut, symObjAddr: 0xACDC, symBinAddr: 0x6E440, symSize: 0x2C }
  - { offset: 0xB15EA, size: 0x8, addend: 0x0, symName: __RNvXsB_NtCsATtFUPiRFW_3syn5tokenNtB5_8AbstractNtNtCs9f3LFPSIp77_4core7default7Default7default, symObjAddr: 0xAD08, symBinAddr: 0x6E46C, symSize: 0x24 }
  - { offset: 0xB160D, size: 0x8, addend: 0x0, symName: __RNvXsD_NtCsATtFUPiRFW_3syn5tokenNtB5_8AbstractNtNtCs9f3LFPSIp77_4core5clone5Clone5clone, symObjAddr: 0xAD2C, symBinAddr: 0x6E490, symSize: 0x28 }
  - { offset: 0xB163F, size: 0x8, addend: 0x0, symName: __RNvXsE_NtCsATtFUPiRFW_3syn5tokenNtB5_8AbstractNtNtCs9f3LFPSIp77_4core3fmt5Debug3fmt, symObjAddr: 0xAD54, symBinAddr: 0x6E4B8, symSize: 0x50 }
  - { offset: 0xB167F, size: 0x8, addend: 0x0, symName: __RNvXsG_NtCsATtFUPiRFW_3syn5tokenNtB5_8AbstractNtNtCs9f3LFPSIp77_4core3cmp9PartialEq2eq, symObjAddr: 0xADA4, symBinAddr: 0x6E508, symSize: 0x2C }
  - { offset: 0xB16C2, size: 0x8, addend: 0x0, symName: __RNvXsI_NtCsATtFUPiRFW_3syn5tokenNtB5_8AbstractNtNtCs62MdaZFMefA_5quote9to_tokens8ToTokens9to_tokens, symObjAddr: 0xADD0, symBinAddr: 0x6E534, symSize: 0x54 }
  - { offset: 0xB1701, size: 0x8, addend: 0x0, symName: __RNvXsJ_NtCsATtFUPiRFW_3syn5tokenNtB5_8AbstractNtNtB7_5parse5Parse5parse, symObjAddr: 0xAE24, symBinAddr: 0x6E588, symSize: 0xCC }
  - { offset: 0xB1753, size: 0x8, addend: 0x0, symName: __RNvXsK_NtCsATtFUPiRFW_3syn5tokenNtB5_8AbstractNtB5_5Token4peek, symObjAddr: 0xAEF0, symBinAddr: 0x6E654, symSize: 0x4C }
  - { offset: 0xB1781, size: 0x8, addend: 0x0, symName: __RNvXsK_NtCsATtFUPiRFW_3syn5tokenNtB5_8AbstractNtB5_5Token7display, symObjAddr: 0xAF3C, symBinAddr: 0x6E6A0, symSize: 0x24 }
  - { offset: 0xB17A5, size: 0x8, addend: 0x0, symName: __RNvXsM_NtCsATtFUPiRFW_3syn5tokenNtB5_2AsNtNtCs9f3LFPSIp77_4core7default7Default7default, symObjAddr: 0xAF60, symBinAddr: 0x6E6C4, symSize: 0x24 }
  - { offset: 0xB17C8, size: 0x8, addend: 0x0, symName: __RNvXsO_NtCsATtFUPiRFW_3syn5tokenNtB5_2AsNtNtCs9f3LFPSIp77_4core5clone5Clone5clone, symObjAddr: 0xAF84, symBinAddr: 0x6E6E8, symSize: 0x28 }
  - { offset: 0xB17FA, size: 0x8, addend: 0x0, symName: __RNvXsP_NtCsATtFUPiRFW_3syn5tokenNtB5_2AsNtNtCs9f3LFPSIp77_4core3fmt5Debug3fmt, symObjAddr: 0xAFAC, symBinAddr: 0x6E710, symSize: 0x50 }
  - { offset: 0xB183A, size: 0x8, addend: 0x0, symName: __RNvXsR_NtCsATtFUPiRFW_3syn5tokenNtB5_2AsNtNtCs9f3LFPSIp77_4core3cmp9PartialEq2eq, symObjAddr: 0xAFFC, symBinAddr: 0x6E760, symSize: 0x2C }
  - { offset: 0xB187D, size: 0x8, addend: 0x0, symName: __RNvXsT_NtCsATtFUPiRFW_3syn5tokenNtB5_2AsNtNtCs62MdaZFMefA_5quote9to_tokens8ToTokens9to_tokens, symObjAddr: 0xB028, symBinAddr: 0x6E78C, symSize: 0x54 }
  - { offset: 0xB18BC, size: 0x8, addend: 0x0, symName: __RNvXsU_NtCsATtFUPiRFW_3syn5tokenNtB5_2AsNtNtB7_5parse5Parse5parse, symObjAddr: 0xB07C, symBinAddr: 0x6E7E0, symSize: 0xCC }
  - { offset: 0xB190E, size: 0x8, addend: 0x0, symName: __RNvXsV_NtCsATtFUPiRFW_3syn5tokenNtB5_2AsNtB5_5Token4peek, symObjAddr: 0xB148, symBinAddr: 0x6E8AC, symSize: 0x4C }
  - { offset: 0xB193C, size: 0x8, addend: 0x0, symName: __RNvXsV_NtCsATtFUPiRFW_3syn5tokenNtB5_2AsNtB5_5Token7display, symObjAddr: 0xB194, symBinAddr: 0x6E8F8, symSize: 0x24 }
  - { offset: 0xB1960, size: 0x8, addend: 0x0, symName: __RNvXsX_NtCsATtFUPiRFW_3syn5tokenNtB5_5AsyncNtNtCs9f3LFPSIp77_4core7default7Default7default, symObjAddr: 0xB1B8, symBinAddr: 0x6E91C, symSize: 0x24 }
  - { offset: 0xB1983, size: 0x8, addend: 0x0, symName: __RNvXsZ_NtCsATtFUPiRFW_3syn5tokenNtB5_5AsyncNtNtCs9f3LFPSIp77_4core5clone5Clone5clone, symObjAddr: 0xB1DC, symBinAddr: 0x6E940, symSize: 0x28 }
  - { offset: 0xB19B5, size: 0x8, addend: 0x0, symName: __RNvXs10_NtCsATtFUPiRFW_3syn5tokenNtB6_5AsyncNtNtCs9f3LFPSIp77_4core3fmt5Debug3fmt, symObjAddr: 0xB204, symBinAddr: 0x6E968, symSize: 0x50 }
  - { offset: 0xB19F5, size: 0x8, addend: 0x0, symName: __RNvXs12_NtCsATtFUPiRFW_3syn5tokenNtB6_5AsyncNtNtCs9f3LFPSIp77_4core3cmp9PartialEq2eq, symObjAddr: 0xB254, symBinAddr: 0x6E9B8, symSize: 0x2C }
  - { offset: 0xB1A38, size: 0x8, addend: 0x0, symName: __RNvXs14_NtCsATtFUPiRFW_3syn5tokenNtB6_5AsyncNtNtCs62MdaZFMefA_5quote9to_tokens8ToTokens9to_tokens, symObjAddr: 0xB280, symBinAddr: 0x6E9E4, symSize: 0x54 }
  - { offset: 0xB1A77, size: 0x8, addend: 0x0, symName: __RNvXs15_NtCsATtFUPiRFW_3syn5tokenNtB6_5AsyncNtNtB8_5parse5Parse5parse, symObjAddr: 0xB2D4, symBinAddr: 0x6EA38, symSize: 0xCC }
  - { offset: 0xB1AC9, size: 0x8, addend: 0x0, symName: __RNvXs16_NtCsATtFUPiRFW_3syn5tokenNtB6_5AsyncNtB6_5Token4peek, symObjAddr: 0xB3A0, symBinAddr: 0x6EB04, symSize: 0x4C }
  - { offset: 0xB1AF7, size: 0x8, addend: 0x0, symName: __RNvXs16_NtCsATtFUPiRFW_3syn5tokenNtB6_5AsyncNtB6_5Token7display, symObjAddr: 0xB3EC, symBinAddr: 0x6EB50, symSize: 0x24 }
  - { offset: 0xB1B1B, size: 0x8, addend: 0x0, symName: __RNvXs18_NtCsATtFUPiRFW_3syn5tokenNtB6_4AutoNtNtCs9f3LFPSIp77_4core7default7Default7default, symObjAddr: 0xB410, symBinAddr: 0x6EB74, symSize: 0x24 }
  - { offset: 0xB1B3E, size: 0x8, addend: 0x0, symName: __RNvXs1a_NtCsATtFUPiRFW_3syn5tokenNtB6_4AutoNtNtCs9f3LFPSIp77_4core5clone5Clone5clone, symObjAddr: 0xB434, symBinAddr: 0x6EB98, symSize: 0x28 }
  - { offset: 0xB1B70, size: 0x8, addend: 0x0, symName: __RNvXs1b_NtCsATtFUPiRFW_3syn5tokenNtB6_4AutoNtNtCs9f3LFPSIp77_4core3fmt5Debug3fmt, symObjAddr: 0xB45C, symBinAddr: 0x6EBC0, symSize: 0x50 }
  - { offset: 0xB1BB0, size: 0x8, addend: 0x0, symName: __RNvXs1d_NtCsATtFUPiRFW_3syn5tokenNtB6_4AutoNtNtCs9f3LFPSIp77_4core3cmp9PartialEq2eq, symObjAddr: 0xB4AC, symBinAddr: 0x6EC10, symSize: 0x2C }
  - { offset: 0xB1BF3, size: 0x8, addend: 0x0, symName: __RNvXs1f_NtCsATtFUPiRFW_3syn5tokenNtB6_4AutoNtNtCs62MdaZFMefA_5quote9to_tokens8ToTokens9to_tokens, symObjAddr: 0xB4D8, symBinAddr: 0x6EC3C, symSize: 0x54 }
  - { offset: 0xB1C32, size: 0x8, addend: 0x0, symName: __RNvXs1g_NtCsATtFUPiRFW_3syn5tokenNtB6_4AutoNtNtB8_5parse5Parse5parse, symObjAddr: 0xB52C, symBinAddr: 0x6EC90, symSize: 0xCC }
  - { offset: 0xB1C84, size: 0x8, addend: 0x0, symName: __RNvXs1h_NtCsATtFUPiRFW_3syn5tokenNtB6_4AutoNtB6_5Token4peek, symObjAddr: 0xB5F8, symBinAddr: 0x6ED5C, symSize: 0x4C }
  - { offset: 0xB1CB2, size: 0x8, addend: 0x0, symName: __RNvXs1h_NtCsATtFUPiRFW_3syn5tokenNtB6_4AutoNtB6_5Token7display, symObjAddr: 0xB644, symBinAddr: 0x6EDA8, symSize: 0x24 }
  - { offset: 0xB1CD6, size: 0x8, addend: 0x0, symName: __RNvXs1j_NtCsATtFUPiRFW_3syn5tokenNtB6_5AwaitNtNtCs9f3LFPSIp77_4core7default7Default7default, symObjAddr: 0xB668, symBinAddr: 0x6EDCC, symSize: 0x24 }
  - { offset: 0xB1CF9, size: 0x8, addend: 0x0, symName: __RNvXs1l_NtCsATtFUPiRFW_3syn5tokenNtB6_5AwaitNtNtCs9f3LFPSIp77_4core5clone5Clone5clone, symObjAddr: 0xB68C, symBinAddr: 0x6EDF0, symSize: 0x28 }
  - { offset: 0xB1D2B, size: 0x8, addend: 0x0, symName: __RNvXs1m_NtCsATtFUPiRFW_3syn5tokenNtB6_5AwaitNtNtCs9f3LFPSIp77_4core3fmt5Debug3fmt, symObjAddr: 0xB6B4, symBinAddr: 0x6EE18, symSize: 0x50 }
  - { offset: 0xB1D6B, size: 0x8, addend: 0x0, symName: __RNvXs1o_NtCsATtFUPiRFW_3syn5tokenNtB6_5AwaitNtNtCs9f3LFPSIp77_4core3cmp9PartialEq2eq, symObjAddr: 0xB704, symBinAddr: 0x6EE68, symSize: 0x2C }
  - { offset: 0xB1DAE, size: 0x8, addend: 0x0, symName: __RNvXs1q_NtCsATtFUPiRFW_3syn5tokenNtB6_5AwaitNtNtCs62MdaZFMefA_5quote9to_tokens8ToTokens9to_tokens, symObjAddr: 0xB730, symBinAddr: 0x6EE94, symSize: 0x54 }
  - { offset: 0xB1DED, size: 0x8, addend: 0x0, symName: __RNvXs1r_NtCsATtFUPiRFW_3syn5tokenNtB6_5AwaitNtNtB8_5parse5Parse5parse, symObjAddr: 0xB784, symBinAddr: 0x6EEE8, symSize: 0xCC }
  - { offset: 0xB1E3F, size: 0x8, addend: 0x0, symName: __RNvXs1s_NtCsATtFUPiRFW_3syn5tokenNtB6_5AwaitNtB6_5Token4peek, symObjAddr: 0xB850, symBinAddr: 0x6EFB4, symSize: 0x4C }
  - { offset: 0xB1E6D, size: 0x8, addend: 0x0, symName: __RNvXs1s_NtCsATtFUPiRFW_3syn5tokenNtB6_5AwaitNtB6_5Token7display, symObjAddr: 0xB89C, symBinAddr: 0x6F000, symSize: 0x24 }
  - { offset: 0xB1E91, size: 0x8, addend: 0x0, symName: __RNvXs1u_NtCsATtFUPiRFW_3syn5tokenNtB6_6BecomeNtNtCs9f3LFPSIp77_4core7default7Default7default, symObjAddr: 0xB8C0, symBinAddr: 0x6F024, symSize: 0x24 }
  - { offset: 0xB1EB4, size: 0x8, addend: 0x0, symName: __RNvXs1w_NtCsATtFUPiRFW_3syn5tokenNtB6_6BecomeNtNtCs9f3LFPSIp77_4core5clone5Clone5clone, symObjAddr: 0xB8E4, symBinAddr: 0x6F048, symSize: 0x28 }
  - { offset: 0xB1EE6, size: 0x8, addend: 0x0, symName: __RNvXs1x_NtCsATtFUPiRFW_3syn5tokenNtB6_6BecomeNtNtCs9f3LFPSIp77_4core3fmt5Debug3fmt, symObjAddr: 0xB90C, symBinAddr: 0x6F070, symSize: 0x50 }
  - { offset: 0xB1F26, size: 0x8, addend: 0x0, symName: __RNvXs1z_NtCsATtFUPiRFW_3syn5tokenNtB6_6BecomeNtNtCs9f3LFPSIp77_4core3cmp9PartialEq2eq, symObjAddr: 0xB95C, symBinAddr: 0x6F0C0, symSize: 0x2C }
  - { offset: 0xB1F69, size: 0x8, addend: 0x0, symName: __RNvXs1B_NtCsATtFUPiRFW_3syn5tokenNtB6_6BecomeNtNtCs62MdaZFMefA_5quote9to_tokens8ToTokens9to_tokens, symObjAddr: 0xB988, symBinAddr: 0x6F0EC, symSize: 0x54 }
  - { offset: 0xB1FA8, size: 0x8, addend: 0x0, symName: __RNvXs1C_NtCsATtFUPiRFW_3syn5tokenNtB6_6BecomeNtNtB8_5parse5Parse5parse, symObjAddr: 0xB9DC, symBinAddr: 0x6F140, symSize: 0xCC }
  - { offset: 0xB1FFA, size: 0x8, addend: 0x0, symName: __RNvXs1D_NtCsATtFUPiRFW_3syn5tokenNtB6_6BecomeNtB6_5Token4peek, symObjAddr: 0xBAA8, symBinAddr: 0x6F20C, symSize: 0x4C }
  - { offset: 0xB2028, size: 0x8, addend: 0x0, symName: __RNvXs1D_NtCsATtFUPiRFW_3syn5tokenNtB6_6BecomeNtB6_5Token7display, symObjAddr: 0xBAF4, symBinAddr: 0x6F258, symSize: 0x24 }
  - { offset: 0xB204C, size: 0x8, addend: 0x0, symName: __RNvXs1F_NtCsATtFUPiRFW_3syn5tokenNtB6_3BoxNtNtCs9f3LFPSIp77_4core7default7Default7default, symObjAddr: 0xBB18, symBinAddr: 0x6F27C, symSize: 0x24 }
  - { offset: 0xB206F, size: 0x8, addend: 0x0, symName: __RNvXs1H_NtCsATtFUPiRFW_3syn5tokenNtB6_3BoxNtNtCs9f3LFPSIp77_4core5clone5Clone5clone, symObjAddr: 0xBB3C, symBinAddr: 0x6F2A0, symSize: 0x28 }
  - { offset: 0xB20A1, size: 0x8, addend: 0x0, symName: __RNvXs1I_NtCsATtFUPiRFW_3syn5tokenNtB6_3BoxNtNtCs9f3LFPSIp77_4core3fmt5Debug3fmt, symObjAddr: 0xBB64, symBinAddr: 0x6F2C8, symSize: 0x50 }
  - { offset: 0xB20E1, size: 0x8, addend: 0x0, symName: __RNvXs1K_NtCsATtFUPiRFW_3syn5tokenNtB6_3BoxNtNtCs9f3LFPSIp77_4core3cmp9PartialEq2eq, symObjAddr: 0xBBB4, symBinAddr: 0x6F318, symSize: 0x2C }
  - { offset: 0xB2124, size: 0x8, addend: 0x0, symName: __RNvXs1M_NtCsATtFUPiRFW_3syn5tokenNtB6_3BoxNtNtCs62MdaZFMefA_5quote9to_tokens8ToTokens9to_tokens, symObjAddr: 0xBBE0, symBinAddr: 0x6F344, symSize: 0x54 }
  - { offset: 0xB2163, size: 0x8, addend: 0x0, symName: __RNvXs1N_NtCsATtFUPiRFW_3syn5tokenNtB6_3BoxNtNtB8_5parse5Parse5parse, symObjAddr: 0xBC34, symBinAddr: 0x6F398, symSize: 0xCC }
  - { offset: 0xB21B5, size: 0x8, addend: 0x0, symName: __RNvXs1O_NtCsATtFUPiRFW_3syn5tokenNtB6_3BoxNtB6_5Token4peek, symObjAddr: 0xBD00, symBinAddr: 0x6F464, symSize: 0x4C }
  - { offset: 0xB21E3, size: 0x8, addend: 0x0, symName: __RNvXs1O_NtCsATtFUPiRFW_3syn5tokenNtB6_3BoxNtB6_5Token7display, symObjAddr: 0xBD4C, symBinAddr: 0x6F4B0, symSize: 0x24 }
  - { offset: 0xB2207, size: 0x8, addend: 0x0, symName: __RNvXs1Q_NtCsATtFUPiRFW_3syn5tokenNtB6_5BreakNtNtCs9f3LFPSIp77_4core7default7Default7default, symObjAddr: 0xBD70, symBinAddr: 0x6F4D4, symSize: 0x24 }
  - { offset: 0xB222A, size: 0x8, addend: 0x0, symName: __RNvXs1S_NtCsATtFUPiRFW_3syn5tokenNtB6_5BreakNtNtCs9f3LFPSIp77_4core5clone5Clone5clone, symObjAddr: 0xBD94, symBinAddr: 0x6F4F8, symSize: 0x28 }
  - { offset: 0xB225C, size: 0x8, addend: 0x0, symName: __RNvXs1T_NtCsATtFUPiRFW_3syn5tokenNtB6_5BreakNtNtCs9f3LFPSIp77_4core3fmt5Debug3fmt, symObjAddr: 0xBDBC, symBinAddr: 0x6F520, symSize: 0x50 }
  - { offset: 0xB229C, size: 0x8, addend: 0x0, symName: __RNvXs1V_NtCsATtFUPiRFW_3syn5tokenNtB6_5BreakNtNtCs9f3LFPSIp77_4core3cmp9PartialEq2eq, symObjAddr: 0xBE0C, symBinAddr: 0x6F570, symSize: 0x2C }
  - { offset: 0xB22DF, size: 0x8, addend: 0x0, symName: __RNvXs1X_NtCsATtFUPiRFW_3syn5tokenNtB6_5BreakNtNtCs62MdaZFMefA_5quote9to_tokens8ToTokens9to_tokens, symObjAddr: 0xBE38, symBinAddr: 0x6F59C, symSize: 0x54 }
  - { offset: 0xB231E, size: 0x8, addend: 0x0, symName: __RNvXs1Y_NtCsATtFUPiRFW_3syn5tokenNtB6_5BreakNtNtB8_5parse5Parse5parse, symObjAddr: 0xBE8C, symBinAddr: 0x6F5F0, symSize: 0xCC }
  - { offset: 0xB2370, size: 0x8, addend: 0x0, symName: __RNvXs1Z_NtCsATtFUPiRFW_3syn5tokenNtB6_5BreakNtB6_5Token4peek, symObjAddr: 0xBF58, symBinAddr: 0x6F6BC, symSize: 0x4C }
  - { offset: 0xB239E, size: 0x8, addend: 0x0, symName: __RNvXs1Z_NtCsATtFUPiRFW_3syn5tokenNtB6_5BreakNtB6_5Token7display, symObjAddr: 0xBFA4, symBinAddr: 0x6F708, symSize: 0x24 }
  - { offset: 0xB23C2, size: 0x8, addend: 0x0, symName: __RNvXs21_NtCsATtFUPiRFW_3syn5tokenNtB6_5ConstNtNtCs9f3LFPSIp77_4core7default7Default7default, symObjAddr: 0xBFC8, symBinAddr: 0x6F72C, symSize: 0x24 }
  - { offset: 0xB23E5, size: 0x8, addend: 0x0, symName: __RNvXs23_NtCsATtFUPiRFW_3syn5tokenNtB6_5ConstNtNtCs9f3LFPSIp77_4core5clone5Clone5clone, symObjAddr: 0xBFEC, symBinAddr: 0x6F750, symSize: 0x28 }
  - { offset: 0xB2417, size: 0x8, addend: 0x0, symName: __RNvXs24_NtCsATtFUPiRFW_3syn5tokenNtB6_5ConstNtNtCs9f3LFPSIp77_4core3fmt5Debug3fmt, symObjAddr: 0xC014, symBinAddr: 0x6F778, symSize: 0x50 }
  - { offset: 0xB2457, size: 0x8, addend: 0x0, symName: __RNvXs26_NtCsATtFUPiRFW_3syn5tokenNtB6_5ConstNtNtCs9f3LFPSIp77_4core3cmp9PartialEq2eq, symObjAddr: 0xC064, symBinAddr: 0x6F7C8, symSize: 0x2C }
  - { offset: 0xB249A, size: 0x8, addend: 0x0, symName: __RNvXs28_NtCsATtFUPiRFW_3syn5tokenNtB6_5ConstNtNtCs62MdaZFMefA_5quote9to_tokens8ToTokens9to_tokens, symObjAddr: 0xC090, symBinAddr: 0x6F7F4, symSize: 0x54 }
  - { offset: 0xB24D9, size: 0x8, addend: 0x0, symName: __RNvXs29_NtCsATtFUPiRFW_3syn5tokenNtB6_5ConstNtNtB8_5parse5Parse5parse, symObjAddr: 0xC0E4, symBinAddr: 0x6F848, symSize: 0xCC }
  - { offset: 0xB252B, size: 0x8, addend: 0x0, symName: __RNvXs2a_NtCsATtFUPiRFW_3syn5tokenNtB6_5ConstNtB6_5Token4peek, symObjAddr: 0xC1B0, symBinAddr: 0x6F914, symSize: 0x4C }
  - { offset: 0xB2559, size: 0x8, addend: 0x0, symName: __RNvXs2a_NtCsATtFUPiRFW_3syn5tokenNtB6_5ConstNtB6_5Token7display, symObjAddr: 0xC1FC, symBinAddr: 0x6F960, symSize: 0x24 }
  - { offset: 0xB257D, size: 0x8, addend: 0x0, symName: __RNvXs2c_NtCsATtFUPiRFW_3syn5tokenNtB6_8ContinueNtNtCs9f3LFPSIp77_4core7default7Default7default, symObjAddr: 0xC220, symBinAddr: 0x6F984, symSize: 0x24 }
  - { offset: 0xB25A0, size: 0x8, addend: 0x0, symName: __RNvXs2e_NtCsATtFUPiRFW_3syn5tokenNtB6_8ContinueNtNtCs9f3LFPSIp77_4core5clone5Clone5clone, symObjAddr: 0xC244, symBinAddr: 0x6F9A8, symSize: 0x28 }
  - { offset: 0xB25D2, size: 0x8, addend: 0x0, symName: __RNvXs2f_NtCsATtFUPiRFW_3syn5tokenNtB6_8ContinueNtNtCs9f3LFPSIp77_4core3fmt5Debug3fmt, symObjAddr: 0xC26C, symBinAddr: 0x6F9D0, symSize: 0x50 }
  - { offset: 0xB2612, size: 0x8, addend: 0x0, symName: __RNvXs2h_NtCsATtFUPiRFW_3syn5tokenNtB6_8ContinueNtNtCs9f3LFPSIp77_4core3cmp9PartialEq2eq, symObjAddr: 0xC2BC, symBinAddr: 0x6FA20, symSize: 0x2C }
  - { offset: 0xB2655, size: 0x8, addend: 0x0, symName: __RNvXs2j_NtCsATtFUPiRFW_3syn5tokenNtB6_8ContinueNtNtCs62MdaZFMefA_5quote9to_tokens8ToTokens9to_tokens, symObjAddr: 0xC2E8, symBinAddr: 0x6FA4C, symSize: 0x54 }
  - { offset: 0xB2694, size: 0x8, addend: 0x0, symName: __RNvXs2k_NtCsATtFUPiRFW_3syn5tokenNtB6_8ContinueNtNtB8_5parse5Parse5parse, symObjAddr: 0xC33C, symBinAddr: 0x6FAA0, symSize: 0xCC }
  - { offset: 0xB26E6, size: 0x8, addend: 0x0, symName: __RNvXs2l_NtCsATtFUPiRFW_3syn5tokenNtB6_8ContinueNtB6_5Token4peek, symObjAddr: 0xC408, symBinAddr: 0x6FB6C, symSize: 0x4C }
  - { offset: 0xB2714, size: 0x8, addend: 0x0, symName: __RNvXs2l_NtCsATtFUPiRFW_3syn5tokenNtB6_8ContinueNtB6_5Token7display, symObjAddr: 0xC454, symBinAddr: 0x6FBB8, symSize: 0x24 }
  - { offset: 0xB2738, size: 0x8, addend: 0x0, symName: __RNvXs2n_NtCsATtFUPiRFW_3syn5tokenNtB6_5CrateNtNtCs9f3LFPSIp77_4core7default7Default7default, symObjAddr: 0xC478, symBinAddr: 0x6FBDC, symSize: 0x24 }
  - { offset: 0xB275B, size: 0x8, addend: 0x0, symName: __RNvXs2p_NtCsATtFUPiRFW_3syn5tokenNtB6_5CrateNtNtCs9f3LFPSIp77_4core5clone5Clone5clone, symObjAddr: 0xC49C, symBinAddr: 0x6FC00, symSize: 0x28 }
  - { offset: 0xB278D, size: 0x8, addend: 0x0, symName: __RNvXs2q_NtCsATtFUPiRFW_3syn5tokenNtB6_5CrateNtNtCs9f3LFPSIp77_4core3fmt5Debug3fmt, symObjAddr: 0xC4C4, symBinAddr: 0x6FC28, symSize: 0x50 }
  - { offset: 0xB27CD, size: 0x8, addend: 0x0, symName: __RNvXs2s_NtCsATtFUPiRFW_3syn5tokenNtB6_5CrateNtNtCs9f3LFPSIp77_4core3cmp9PartialEq2eq, symObjAddr: 0xC514, symBinAddr: 0x6FC78, symSize: 0x2C }
  - { offset: 0xB2810, size: 0x8, addend: 0x0, symName: __RNvXs2u_NtCsATtFUPiRFW_3syn5tokenNtB6_5CrateNtNtCs62MdaZFMefA_5quote9to_tokens8ToTokens9to_tokens, symObjAddr: 0xC540, symBinAddr: 0x6FCA4, symSize: 0x54 }
  - { offset: 0xB284F, size: 0x8, addend: 0x0, symName: __RNvXs2v_NtCsATtFUPiRFW_3syn5tokenNtB6_5CrateNtNtB8_5parse5Parse5parse, symObjAddr: 0xC594, symBinAddr: 0x6FCF8, symSize: 0xCC }
  - { offset: 0xB28A1, size: 0x8, addend: 0x0, symName: __RNvXs2w_NtCsATtFUPiRFW_3syn5tokenNtB6_5CrateNtB6_5Token4peek, symObjAddr: 0xC660, symBinAddr: 0x6FDC4, symSize: 0x4C }
  - { offset: 0xB28CF, size: 0x8, addend: 0x0, symName: __RNvXs2w_NtCsATtFUPiRFW_3syn5tokenNtB6_5CrateNtB6_5Token7display, symObjAddr: 0xC6AC, symBinAddr: 0x6FE10, symSize: 0x24 }
  - { offset: 0xB28F3, size: 0x8, addend: 0x0, symName: __RNvXs2y_NtCsATtFUPiRFW_3syn5tokenNtB6_7DefaultNtNtCs9f3LFPSIp77_4core7default7Default7default, symObjAddr: 0xC6D0, symBinAddr: 0x6FE34, symSize: 0x24 }
  - { offset: 0xB2916, size: 0x8, addend: 0x0, symName: __RNvXs2A_NtCsATtFUPiRFW_3syn5tokenNtB6_7DefaultNtNtCs9f3LFPSIp77_4core5clone5Clone5clone, symObjAddr: 0xC6F4, symBinAddr: 0x6FE58, symSize: 0x28 }
  - { offset: 0xB2948, size: 0x8, addend: 0x0, symName: __RNvXs2B_NtCsATtFUPiRFW_3syn5tokenNtB6_7DefaultNtNtCs9f3LFPSIp77_4core3fmt5Debug3fmt, symObjAddr: 0xC71C, symBinAddr: 0x6FE80, symSize: 0x50 }
  - { offset: 0xB2988, size: 0x8, addend: 0x0, symName: __RNvXs2D_NtCsATtFUPiRFW_3syn5tokenNtB6_7DefaultNtNtCs9f3LFPSIp77_4core3cmp9PartialEq2eq, symObjAddr: 0xC76C, symBinAddr: 0x6FED0, symSize: 0x2C }
  - { offset: 0xB29CB, size: 0x8, addend: 0x0, symName: __RNvXs2F_NtCsATtFUPiRFW_3syn5tokenNtB6_7DefaultNtNtCs62MdaZFMefA_5quote9to_tokens8ToTokens9to_tokens, symObjAddr: 0xC798, symBinAddr: 0x6FEFC, symSize: 0x54 }
  - { offset: 0xB2A0A, size: 0x8, addend: 0x0, symName: __RNvXs2G_NtCsATtFUPiRFW_3syn5tokenNtB6_7DefaultNtNtB8_5parse5Parse5parse, symObjAddr: 0xC7EC, symBinAddr: 0x6FF50, symSize: 0xCC }
  - { offset: 0xB2A5C, size: 0x8, addend: 0x0, symName: __RNvXs2H_NtCsATtFUPiRFW_3syn5tokenNtB6_7DefaultNtB6_5Token4peek, symObjAddr: 0xC8B8, symBinAddr: 0x7001C, symSize: 0x4C }
  - { offset: 0xB2A8A, size: 0x8, addend: 0x0, symName: __RNvXs2H_NtCsATtFUPiRFW_3syn5tokenNtB6_7DefaultNtB6_5Token7display, symObjAddr: 0xC904, symBinAddr: 0x70068, symSize: 0x24 }
  - { offset: 0xB2AAE, size: 0x8, addend: 0x0, symName: __RNvXs2J_NtCsATtFUPiRFW_3syn5tokenNtB6_2DoNtNtCs9f3LFPSIp77_4core7default7Default7default, symObjAddr: 0xC928, symBinAddr: 0x7008C, symSize: 0x24 }
  - { offset: 0xB2AD1, size: 0x8, addend: 0x0, symName: __RNvXs2L_NtCsATtFUPiRFW_3syn5tokenNtB6_2DoNtNtCs9f3LFPSIp77_4core5clone5Clone5clone, symObjAddr: 0xC94C, symBinAddr: 0x700B0, symSize: 0x28 }
  - { offset: 0xB2B03, size: 0x8, addend: 0x0, symName: __RNvXs2M_NtCsATtFUPiRFW_3syn5tokenNtB6_2DoNtNtCs9f3LFPSIp77_4core3fmt5Debug3fmt, symObjAddr: 0xC974, symBinAddr: 0x700D8, symSize: 0x50 }
  - { offset: 0xB2B43, size: 0x8, addend: 0x0, symName: __RNvXs2O_NtCsATtFUPiRFW_3syn5tokenNtB6_2DoNtNtCs9f3LFPSIp77_4core3cmp9PartialEq2eq, symObjAddr: 0xC9C4, symBinAddr: 0x70128, symSize: 0x2C }
  - { offset: 0xB2B86, size: 0x8, addend: 0x0, symName: __RNvXs2Q_NtCsATtFUPiRFW_3syn5tokenNtB6_2DoNtNtCs62MdaZFMefA_5quote9to_tokens8ToTokens9to_tokens, symObjAddr: 0xC9F0, symBinAddr: 0x70154, symSize: 0x54 }
  - { offset: 0xB2BC5, size: 0x8, addend: 0x0, symName: __RNvXs2R_NtCsATtFUPiRFW_3syn5tokenNtB6_2DoNtNtB8_5parse5Parse5parse, symObjAddr: 0xCA44, symBinAddr: 0x701A8, symSize: 0xCC }
  - { offset: 0xB2C17, size: 0x8, addend: 0x0, symName: __RNvXs2S_NtCsATtFUPiRFW_3syn5tokenNtB6_2DoNtB6_5Token4peek, symObjAddr: 0xCB10, symBinAddr: 0x70274, symSize: 0x4C }
  - { offset: 0xB2C45, size: 0x8, addend: 0x0, symName: __RNvXs2S_NtCsATtFUPiRFW_3syn5tokenNtB6_2DoNtB6_5Token7display, symObjAddr: 0xCB5C, symBinAddr: 0x702C0, symSize: 0x24 }
  - { offset: 0xB2C69, size: 0x8, addend: 0x0, symName: __RNvXs2U_NtCsATtFUPiRFW_3syn5tokenNtB6_3DynNtNtCs9f3LFPSIp77_4core7default7Default7default, symObjAddr: 0xCB80, symBinAddr: 0x702E4, symSize: 0x24 }
  - { offset: 0xB2C8C, size: 0x8, addend: 0x0, symName: __RNvXs2W_NtCsATtFUPiRFW_3syn5tokenNtB6_3DynNtNtCs9f3LFPSIp77_4core5clone5Clone5clone, symObjAddr: 0xCBA4, symBinAddr: 0x70308, symSize: 0x28 }
  - { offset: 0xB2CBE, size: 0x8, addend: 0x0, symName: __RNvXs2X_NtCsATtFUPiRFW_3syn5tokenNtB6_3DynNtNtCs9f3LFPSIp77_4core3fmt5Debug3fmt, symObjAddr: 0xCBCC, symBinAddr: 0x70330, symSize: 0x50 }
  - { offset: 0xB2CFE, size: 0x8, addend: 0x0, symName: __RNvXs2Z_NtCsATtFUPiRFW_3syn5tokenNtB6_3DynNtNtCs9f3LFPSIp77_4core3cmp9PartialEq2eq, symObjAddr: 0xCC1C, symBinAddr: 0x70380, symSize: 0x2C }
  - { offset: 0xB2D41, size: 0x8, addend: 0x0, symName: __RNvXs31_NtCsATtFUPiRFW_3syn5tokenNtB6_3DynNtNtCs62MdaZFMefA_5quote9to_tokens8ToTokens9to_tokens, symObjAddr: 0xCC48, symBinAddr: 0x703AC, symSize: 0x54 }
  - { offset: 0xB2D80, size: 0x8, addend: 0x0, symName: __RNvXs32_NtCsATtFUPiRFW_3syn5tokenNtB6_3DynNtNtB8_5parse5Parse5parse, symObjAddr: 0xCC9C, symBinAddr: 0x70400, symSize: 0xCC }
  - { offset: 0xB2DD2, size: 0x8, addend: 0x0, symName: __RNvXs33_NtCsATtFUPiRFW_3syn5tokenNtB6_3DynNtB6_5Token4peek, symObjAddr: 0xCD68, symBinAddr: 0x704CC, symSize: 0x4C }
  - { offset: 0xB2E00, size: 0x8, addend: 0x0, symName: __RNvXs33_NtCsATtFUPiRFW_3syn5tokenNtB6_3DynNtB6_5Token7display, symObjAddr: 0xCDB4, symBinAddr: 0x70518, symSize: 0x24 }
  - { offset: 0xB2E24, size: 0x8, addend: 0x0, symName: __RNvXs35_NtCsATtFUPiRFW_3syn5tokenNtB6_4ElseNtNtCs9f3LFPSIp77_4core7default7Default7default, symObjAddr: 0xCDD8, symBinAddr: 0x7053C, symSize: 0x24 }
  - { offset: 0xB2E47, size: 0x8, addend: 0x0, symName: __RNvXs37_NtCsATtFUPiRFW_3syn5tokenNtB6_4ElseNtNtCs9f3LFPSIp77_4core5clone5Clone5clone, symObjAddr: 0xCDFC, symBinAddr: 0x70560, symSize: 0x28 }
  - { offset: 0xB2E79, size: 0x8, addend: 0x0, symName: __RNvXs38_NtCsATtFUPiRFW_3syn5tokenNtB6_4ElseNtNtCs9f3LFPSIp77_4core3fmt5Debug3fmt, symObjAddr: 0xCE24, symBinAddr: 0x70588, symSize: 0x50 }
  - { offset: 0xB2EB9, size: 0x8, addend: 0x0, symName: __RNvXs3a_NtCsATtFUPiRFW_3syn5tokenNtB6_4ElseNtNtCs9f3LFPSIp77_4core3cmp9PartialEq2eq, symObjAddr: 0xCE74, symBinAddr: 0x705D8, symSize: 0x2C }
  - { offset: 0xB2EFC, size: 0x8, addend: 0x0, symName: __RNvXs3c_NtCsATtFUPiRFW_3syn5tokenNtB6_4ElseNtNtCs62MdaZFMefA_5quote9to_tokens8ToTokens9to_tokens, symObjAddr: 0xCEA0, symBinAddr: 0x70604, symSize: 0x54 }
  - { offset: 0xB2F3B, size: 0x8, addend: 0x0, symName: __RNvXs3d_NtCsATtFUPiRFW_3syn5tokenNtB6_4ElseNtNtB8_5parse5Parse5parse, symObjAddr: 0xCEF4, symBinAddr: 0x70658, symSize: 0xCC }
  - { offset: 0xB2F8D, size: 0x8, addend: 0x0, symName: __RNvXs3e_NtCsATtFUPiRFW_3syn5tokenNtB6_4ElseNtB6_5Token4peek, symObjAddr: 0xCFC0, symBinAddr: 0x70724, symSize: 0x4C }
  - { offset: 0xB2FBB, size: 0x8, addend: 0x0, symName: __RNvXs3e_NtCsATtFUPiRFW_3syn5tokenNtB6_4ElseNtB6_5Token7display, symObjAddr: 0xD00C, symBinAddr: 0x70770, symSize: 0x24 }
  - { offset: 0xB2FDF, size: 0x8, addend: 0x0, symName: __RNvXs3g_NtCsATtFUPiRFW_3syn5tokenNtB6_4EnumNtNtCs9f3LFPSIp77_4core7default7Default7default, symObjAddr: 0xD030, symBinAddr: 0x70794, symSize: 0x24 }
  - { offset: 0xB3002, size: 0x8, addend: 0x0, symName: __RNvXs3i_NtCsATtFUPiRFW_3syn5tokenNtB6_4EnumNtNtCs9f3LFPSIp77_4core5clone5Clone5clone, symObjAddr: 0xD054, symBinAddr: 0x707B8, symSize: 0x28 }
  - { offset: 0xB3034, size: 0x8, addend: 0x0, symName: __RNvXs3j_NtCsATtFUPiRFW_3syn5tokenNtB6_4EnumNtNtCs9f3LFPSIp77_4core3fmt5Debug3fmt, symObjAddr: 0xD07C, symBinAddr: 0x707E0, symSize: 0x50 }
  - { offset: 0xB3074, size: 0x8, addend: 0x0, symName: __RNvXs3l_NtCsATtFUPiRFW_3syn5tokenNtB6_4EnumNtNtCs9f3LFPSIp77_4core3cmp9PartialEq2eq, symObjAddr: 0xD0CC, symBinAddr: 0x70830, symSize: 0x2C }
  - { offset: 0xB30B7, size: 0x8, addend: 0x0, symName: __RNvXs3n_NtCsATtFUPiRFW_3syn5tokenNtB6_4EnumNtNtCs62MdaZFMefA_5quote9to_tokens8ToTokens9to_tokens, symObjAddr: 0xD0F8, symBinAddr: 0x7085C, symSize: 0x54 }
  - { offset: 0xB30F6, size: 0x8, addend: 0x0, symName: __RNvXs3o_NtCsATtFUPiRFW_3syn5tokenNtB6_4EnumNtNtB8_5parse5Parse5parse, symObjAddr: 0xD14C, symBinAddr: 0x708B0, symSize: 0xCC }
  - { offset: 0xB3148, size: 0x8, addend: 0x0, symName: __RNvXs3p_NtCsATtFUPiRFW_3syn5tokenNtB6_4EnumNtB6_5Token4peek, symObjAddr: 0xD218, symBinAddr: 0x7097C, symSize: 0x4C }
  - { offset: 0xB3176, size: 0x8, addend: 0x0, symName: __RNvXs3p_NtCsATtFUPiRFW_3syn5tokenNtB6_4EnumNtB6_5Token7display, symObjAddr: 0xD264, symBinAddr: 0x709C8, symSize: 0x24 }
  - { offset: 0xB319A, size: 0x8, addend: 0x0, symName: __RNvXs3r_NtCsATtFUPiRFW_3syn5tokenNtB6_6ExternNtNtCs9f3LFPSIp77_4core7default7Default7default, symObjAddr: 0xD288, symBinAddr: 0x709EC, symSize: 0x24 }
  - { offset: 0xB31BD, size: 0x8, addend: 0x0, symName: __RNvXs3t_NtCsATtFUPiRFW_3syn5tokenNtB6_6ExternNtNtCs9f3LFPSIp77_4core5clone5Clone5clone, symObjAddr: 0xD2AC, symBinAddr: 0x70A10, symSize: 0x28 }
  - { offset: 0xB31EF, size: 0x8, addend: 0x0, symName: __RNvXs3u_NtCsATtFUPiRFW_3syn5tokenNtB6_6ExternNtNtCs9f3LFPSIp77_4core3fmt5Debug3fmt, symObjAddr: 0xD2D4, symBinAddr: 0x70A38, symSize: 0x50 }
  - { offset: 0xB322F, size: 0x8, addend: 0x0, symName: __RNvXs3w_NtCsATtFUPiRFW_3syn5tokenNtB6_6ExternNtNtCs9f3LFPSIp77_4core3cmp9PartialEq2eq, symObjAddr: 0xD324, symBinAddr: 0x70A88, symSize: 0x2C }
  - { offset: 0xB3272, size: 0x8, addend: 0x0, symName: __RNvXs3y_NtCsATtFUPiRFW_3syn5tokenNtB6_6ExternNtNtCs62MdaZFMefA_5quote9to_tokens8ToTokens9to_tokens, symObjAddr: 0xD350, symBinAddr: 0x70AB4, symSize: 0x54 }
  - { offset: 0xB32B1, size: 0x8, addend: 0x0, symName: __RNvXs3z_NtCsATtFUPiRFW_3syn5tokenNtB6_6ExternNtNtB8_5parse5Parse5parse, symObjAddr: 0xD3A4, symBinAddr: 0x70B08, symSize: 0xCC }
  - { offset: 0xB3303, size: 0x8, addend: 0x0, symName: __RNvXs3A_NtCsATtFUPiRFW_3syn5tokenNtB6_6ExternNtB6_5Token4peek, symObjAddr: 0xD470, symBinAddr: 0x70BD4, symSize: 0x4C }
  - { offset: 0xB3331, size: 0x8, addend: 0x0, symName: __RNvXs3A_NtCsATtFUPiRFW_3syn5tokenNtB6_6ExternNtB6_5Token7display, symObjAddr: 0xD4BC, symBinAddr: 0x70C20, symSize: 0x24 }
  - { offset: 0xB3355, size: 0x8, addend: 0x0, symName: __RNvXs3C_NtCsATtFUPiRFW_3syn5tokenNtB6_5FinalNtNtCs9f3LFPSIp77_4core7default7Default7default, symObjAddr: 0xD4E0, symBinAddr: 0x70C44, symSize: 0x24 }
  - { offset: 0xB3378, size: 0x8, addend: 0x0, symName: __RNvXs3E_NtCsATtFUPiRFW_3syn5tokenNtB6_5FinalNtNtCs9f3LFPSIp77_4core5clone5Clone5clone, symObjAddr: 0xD504, symBinAddr: 0x70C68, symSize: 0x28 }
  - { offset: 0xB33AA, size: 0x8, addend: 0x0, symName: __RNvXs3F_NtCsATtFUPiRFW_3syn5tokenNtB6_5FinalNtNtCs9f3LFPSIp77_4core3fmt5Debug3fmt, symObjAddr: 0xD52C, symBinAddr: 0x70C90, symSize: 0x50 }
  - { offset: 0xB33EA, size: 0x8, addend: 0x0, symName: __RNvXs3H_NtCsATtFUPiRFW_3syn5tokenNtB6_5FinalNtNtCs9f3LFPSIp77_4core3cmp9PartialEq2eq, symObjAddr: 0xD57C, symBinAddr: 0x70CE0, symSize: 0x2C }
  - { offset: 0xB342D, size: 0x8, addend: 0x0, symName: __RNvXs3J_NtCsATtFUPiRFW_3syn5tokenNtB6_5FinalNtNtCs62MdaZFMefA_5quote9to_tokens8ToTokens9to_tokens, symObjAddr: 0xD5A8, symBinAddr: 0x70D0C, symSize: 0x54 }
  - { offset: 0xB346C, size: 0x8, addend: 0x0, symName: __RNvXs3K_NtCsATtFUPiRFW_3syn5tokenNtB6_5FinalNtNtB8_5parse5Parse5parse, symObjAddr: 0xD5FC, symBinAddr: 0x70D60, symSize: 0xCC }
  - { offset: 0xB34BE, size: 0x8, addend: 0x0, symName: __RNvXs3L_NtCsATtFUPiRFW_3syn5tokenNtB6_5FinalNtB6_5Token4peek, symObjAddr: 0xD6C8, symBinAddr: 0x70E2C, symSize: 0x4C }
  - { offset: 0xB34EC, size: 0x8, addend: 0x0, symName: __RNvXs3L_NtCsATtFUPiRFW_3syn5tokenNtB6_5FinalNtB6_5Token7display, symObjAddr: 0xD714, symBinAddr: 0x70E78, symSize: 0x24 }
  - { offset: 0xB3510, size: 0x8, addend: 0x0, symName: __RNvXs3N_NtCsATtFUPiRFW_3syn5tokenNtB6_2FnNtNtCs9f3LFPSIp77_4core7default7Default7default, symObjAddr: 0xD738, symBinAddr: 0x70E9C, symSize: 0x24 }
  - { offset: 0xB3533, size: 0x8, addend: 0x0, symName: __RNvXs3P_NtCsATtFUPiRFW_3syn5tokenNtB6_2FnNtNtCs9f3LFPSIp77_4core5clone5Clone5clone, symObjAddr: 0xD75C, symBinAddr: 0x70EC0, symSize: 0x28 }
  - { offset: 0xB3565, size: 0x8, addend: 0x0, symName: __RNvXs3Q_NtCsATtFUPiRFW_3syn5tokenNtB6_2FnNtNtCs9f3LFPSIp77_4core3fmt5Debug3fmt, symObjAddr: 0xD784, symBinAddr: 0x70EE8, symSize: 0x50 }
  - { offset: 0xB35A5, size: 0x8, addend: 0x0, symName: __RNvXs3S_NtCsATtFUPiRFW_3syn5tokenNtB6_2FnNtNtCs9f3LFPSIp77_4core3cmp9PartialEq2eq, symObjAddr: 0xD7D4, symBinAddr: 0x70F38, symSize: 0x2C }
  - { offset: 0xB35E8, size: 0x8, addend: 0x0, symName: __RNvXs3U_NtCsATtFUPiRFW_3syn5tokenNtB6_2FnNtNtCs62MdaZFMefA_5quote9to_tokens8ToTokens9to_tokens, symObjAddr: 0xD800, symBinAddr: 0x70F64, symSize: 0x54 }
  - { offset: 0xB3627, size: 0x8, addend: 0x0, symName: __RNvXs3V_NtCsATtFUPiRFW_3syn5tokenNtB6_2FnNtNtB8_5parse5Parse5parse, symObjAddr: 0xD854, symBinAddr: 0x70FB8, symSize: 0xCC }
  - { offset: 0xB3679, size: 0x8, addend: 0x0, symName: __RNvXs3W_NtCsATtFUPiRFW_3syn5tokenNtB6_2FnNtB6_5Token4peek, symObjAddr: 0xD920, symBinAddr: 0x71084, symSize: 0x4C }
  - { offset: 0xB36A7, size: 0x8, addend: 0x0, symName: __RNvXs3W_NtCsATtFUPiRFW_3syn5tokenNtB6_2FnNtB6_5Token7display, symObjAddr: 0xD96C, symBinAddr: 0x710D0, symSize: 0x24 }
  - { offset: 0xB36CB, size: 0x8, addend: 0x0, symName: __RNvXs3Y_NtCsATtFUPiRFW_3syn5tokenNtB6_3ForNtNtCs9f3LFPSIp77_4core7default7Default7default, symObjAddr: 0xD990, symBinAddr: 0x710F4, symSize: 0x24 }
  - { offset: 0xB36EE, size: 0x8, addend: 0x0, symName: __RNvXs40_NtCsATtFUPiRFW_3syn5tokenNtB6_3ForNtNtCs9f3LFPSIp77_4core5clone5Clone5clone, symObjAddr: 0xD9B4, symBinAddr: 0x71118, symSize: 0x28 }
  - { offset: 0xB3720, size: 0x8, addend: 0x0, symName: __RNvXs41_NtCsATtFUPiRFW_3syn5tokenNtB6_3ForNtNtCs9f3LFPSIp77_4core3fmt5Debug3fmt, symObjAddr: 0xD9DC, symBinAddr: 0x71140, symSize: 0x50 }
  - { offset: 0xB3760, size: 0x8, addend: 0x0, symName: __RNvXs43_NtCsATtFUPiRFW_3syn5tokenNtB6_3ForNtNtCs9f3LFPSIp77_4core3cmp9PartialEq2eq, symObjAddr: 0xDA2C, symBinAddr: 0x71190, symSize: 0x2C }
  - { offset: 0xB37A3, size: 0x8, addend: 0x0, symName: __RNvXs45_NtCsATtFUPiRFW_3syn5tokenNtB6_3ForNtNtCs62MdaZFMefA_5quote9to_tokens8ToTokens9to_tokens, symObjAddr: 0xDA58, symBinAddr: 0x711BC, symSize: 0x54 }
  - { offset: 0xB37E2, size: 0x8, addend: 0x0, symName: __RNvXs46_NtCsATtFUPiRFW_3syn5tokenNtB6_3ForNtNtB8_5parse5Parse5parse, symObjAddr: 0xDAAC, symBinAddr: 0x71210, symSize: 0xCC }
  - { offset: 0xB3834, size: 0x8, addend: 0x0, symName: __RNvXs47_NtCsATtFUPiRFW_3syn5tokenNtB6_3ForNtB6_5Token4peek, symObjAddr: 0xDB78, symBinAddr: 0x712DC, symSize: 0x4C }
  - { offset: 0xB3862, size: 0x8, addend: 0x0, symName: __RNvXs47_NtCsATtFUPiRFW_3syn5tokenNtB6_3ForNtB6_5Token7display, symObjAddr: 0xDBC4, symBinAddr: 0x71328, symSize: 0x24 }
  - { offset: 0xB3886, size: 0x8, addend: 0x0, symName: __RNvXs49_NtCsATtFUPiRFW_3syn5tokenNtB6_2IfNtNtCs9f3LFPSIp77_4core7default7Default7default, symObjAddr: 0xDBE8, symBinAddr: 0x7134C, symSize: 0x24 }
  - { offset: 0xB38A9, size: 0x8, addend: 0x0, symName: __RNvXs4b_NtCsATtFUPiRFW_3syn5tokenNtB6_2IfNtNtCs9f3LFPSIp77_4core5clone5Clone5clone, symObjAddr: 0xDC0C, symBinAddr: 0x71370, symSize: 0x28 }
  - { offset: 0xB38DB, size: 0x8, addend: 0x0, symName: __RNvXs4c_NtCsATtFUPiRFW_3syn5tokenNtB6_2IfNtNtCs9f3LFPSIp77_4core3fmt5Debug3fmt, symObjAddr: 0xDC34, symBinAddr: 0x71398, symSize: 0x50 }
  - { offset: 0xB391B, size: 0x8, addend: 0x0, symName: __RNvXs4e_NtCsATtFUPiRFW_3syn5tokenNtB6_2IfNtNtCs9f3LFPSIp77_4core3cmp9PartialEq2eq, symObjAddr: 0xDC84, symBinAddr: 0x713E8, symSize: 0x2C }
  - { offset: 0xB395E, size: 0x8, addend: 0x0, symName: __RNvXs4g_NtCsATtFUPiRFW_3syn5tokenNtB6_2IfNtNtCs62MdaZFMefA_5quote9to_tokens8ToTokens9to_tokens, symObjAddr: 0xDCB0, symBinAddr: 0x71414, symSize: 0x54 }
  - { offset: 0xB399D, size: 0x8, addend: 0x0, symName: __RNvXs4h_NtCsATtFUPiRFW_3syn5tokenNtB6_2IfNtNtB8_5parse5Parse5parse, symObjAddr: 0xDD04, symBinAddr: 0x71468, symSize: 0xCC }
  - { offset: 0xB39EF, size: 0x8, addend: 0x0, symName: __RNvXs4i_NtCsATtFUPiRFW_3syn5tokenNtB6_2IfNtB6_5Token4peek, symObjAddr: 0xDDD0, symBinAddr: 0x71534, symSize: 0x4C }
  - { offset: 0xB3A1D, size: 0x8, addend: 0x0, symName: __RNvXs4i_NtCsATtFUPiRFW_3syn5tokenNtB6_2IfNtB6_5Token7display, symObjAddr: 0xDE1C, symBinAddr: 0x71580, symSize: 0x24 }
  - { offset: 0xB3A41, size: 0x8, addend: 0x0, symName: __RNvXs4k_NtCsATtFUPiRFW_3syn5tokenNtB6_4ImplNtNtCs9f3LFPSIp77_4core7default7Default7default, symObjAddr: 0xDE40, symBinAddr: 0x715A4, symSize: 0x24 }
  - { offset: 0xB3A64, size: 0x8, addend: 0x0, symName: __RNvXs4m_NtCsATtFUPiRFW_3syn5tokenNtB6_4ImplNtNtCs9f3LFPSIp77_4core5clone5Clone5clone, symObjAddr: 0xDE64, symBinAddr: 0x715C8, symSize: 0x28 }
  - { offset: 0xB3A96, size: 0x8, addend: 0x0, symName: __RNvXs4n_NtCsATtFUPiRFW_3syn5tokenNtB6_4ImplNtNtCs9f3LFPSIp77_4core3fmt5Debug3fmt, symObjAddr: 0xDE8C, symBinAddr: 0x715F0, symSize: 0x50 }
  - { offset: 0xB3AD6, size: 0x8, addend: 0x0, symName: __RNvXs4p_NtCsATtFUPiRFW_3syn5tokenNtB6_4ImplNtNtCs9f3LFPSIp77_4core3cmp9PartialEq2eq, symObjAddr: 0xDEDC, symBinAddr: 0x71640, symSize: 0x2C }
  - { offset: 0xB3B19, size: 0x8, addend: 0x0, symName: __RNvXs4r_NtCsATtFUPiRFW_3syn5tokenNtB6_4ImplNtNtCs62MdaZFMefA_5quote9to_tokens8ToTokens9to_tokens, symObjAddr: 0xDF08, symBinAddr: 0x7166C, symSize: 0x54 }
  - { offset: 0xB3B58, size: 0x8, addend: 0x0, symName: __RNvXs4s_NtCsATtFUPiRFW_3syn5tokenNtB6_4ImplNtNtB8_5parse5Parse5parse, symObjAddr: 0xDF5C, symBinAddr: 0x716C0, symSize: 0xCC }
  - { offset: 0xB3BAA, size: 0x8, addend: 0x0, symName: __RNvXs4t_NtCsATtFUPiRFW_3syn5tokenNtB6_4ImplNtB6_5Token4peek, symObjAddr: 0xE028, symBinAddr: 0x7178C, symSize: 0x4C }
  - { offset: 0xB3BD8, size: 0x8, addend: 0x0, symName: __RNvXs4t_NtCsATtFUPiRFW_3syn5tokenNtB6_4ImplNtB6_5Token7display, symObjAddr: 0xE074, symBinAddr: 0x717D8, symSize: 0x24 }
  - { offset: 0xB3BFC, size: 0x8, addend: 0x0, symName: __RNvXs4v_NtCsATtFUPiRFW_3syn5tokenNtB6_2InNtNtCs9f3LFPSIp77_4core7default7Default7default, symObjAddr: 0xE098, symBinAddr: 0x717FC, symSize: 0x24 }
  - { offset: 0xB3C1F, size: 0x8, addend: 0x0, symName: __RNvXs4x_NtCsATtFUPiRFW_3syn5tokenNtB6_2InNtNtCs9f3LFPSIp77_4core5clone5Clone5clone, symObjAddr: 0xE0BC, symBinAddr: 0x71820, symSize: 0x28 }
  - { offset: 0xB3C51, size: 0x8, addend: 0x0, symName: __RNvXs4y_NtCsATtFUPiRFW_3syn5tokenNtB6_2InNtNtCs9f3LFPSIp77_4core3fmt5Debug3fmt, symObjAddr: 0xE0E4, symBinAddr: 0x71848, symSize: 0x50 }
  - { offset: 0xB3C91, size: 0x8, addend: 0x0, symName: __RNvXs4A_NtCsATtFUPiRFW_3syn5tokenNtB6_2InNtNtCs9f3LFPSIp77_4core3cmp9PartialEq2eq, symObjAddr: 0xE134, symBinAddr: 0x71898, symSize: 0x2C }
  - { offset: 0xB3CD4, size: 0x8, addend: 0x0, symName: __RNvXs4C_NtCsATtFUPiRFW_3syn5tokenNtB6_2InNtNtCs62MdaZFMefA_5quote9to_tokens8ToTokens9to_tokens, symObjAddr: 0xE160, symBinAddr: 0x718C4, symSize: 0x54 }
  - { offset: 0xB3D13, size: 0x8, addend: 0x0, symName: __RNvXs4D_NtCsATtFUPiRFW_3syn5tokenNtB6_2InNtNtB8_5parse5Parse5parse, symObjAddr: 0xE1B4, symBinAddr: 0x71918, symSize: 0xCC }
  - { offset: 0xB3D65, size: 0x8, addend: 0x0, symName: __RNvXs4E_NtCsATtFUPiRFW_3syn5tokenNtB6_2InNtB6_5Token4peek, symObjAddr: 0xE280, symBinAddr: 0x719E4, symSize: 0x4C }
  - { offset: 0xB3D93, size: 0x8, addend: 0x0, symName: __RNvXs4E_NtCsATtFUPiRFW_3syn5tokenNtB6_2InNtB6_5Token7display, symObjAddr: 0xE2CC, symBinAddr: 0x71A30, symSize: 0x24 }
  - { offset: 0xB3DB7, size: 0x8, addend: 0x0, symName: __RNvXs4G_NtCsATtFUPiRFW_3syn5tokenNtB6_3LetNtNtCs9f3LFPSIp77_4core7default7Default7default, symObjAddr: 0xE2F0, symBinAddr: 0x71A54, symSize: 0x24 }
  - { offset: 0xB3DDA, size: 0x8, addend: 0x0, symName: __RNvXs4I_NtCsATtFUPiRFW_3syn5tokenNtB6_3LetNtNtCs9f3LFPSIp77_4core5clone5Clone5clone, symObjAddr: 0xE314, symBinAddr: 0x71A78, symSize: 0x28 }
  - { offset: 0xB3E0C, size: 0x8, addend: 0x0, symName: __RNvXs4J_NtCsATtFUPiRFW_3syn5tokenNtB6_3LetNtNtCs9f3LFPSIp77_4core3fmt5Debug3fmt, symObjAddr: 0xE33C, symBinAddr: 0x71AA0, symSize: 0x50 }
  - { offset: 0xB3E4C, size: 0x8, addend: 0x0, symName: __RNvXs4L_NtCsATtFUPiRFW_3syn5tokenNtB6_3LetNtNtCs9f3LFPSIp77_4core3cmp9PartialEq2eq, symObjAddr: 0xE38C, symBinAddr: 0x71AF0, symSize: 0x2C }
  - { offset: 0xB3E8F, size: 0x8, addend: 0x0, symName: __RNvXs4N_NtCsATtFUPiRFW_3syn5tokenNtB6_3LetNtNtCs62MdaZFMefA_5quote9to_tokens8ToTokens9to_tokens, symObjAddr: 0xE3B8, symBinAddr: 0x71B1C, symSize: 0x54 }
  - { offset: 0xB3ECE, size: 0x8, addend: 0x0, symName: __RNvXs4O_NtCsATtFUPiRFW_3syn5tokenNtB6_3LetNtNtB8_5parse5Parse5parse, symObjAddr: 0xE40C, symBinAddr: 0x71B70, symSize: 0xCC }
  - { offset: 0xB3F20, size: 0x8, addend: 0x0, symName: __RNvXs4P_NtCsATtFUPiRFW_3syn5tokenNtB6_3LetNtB6_5Token4peek, symObjAddr: 0xE4D8, symBinAddr: 0x71C3C, symSize: 0x4C }
  - { offset: 0xB3F4E, size: 0x8, addend: 0x0, symName: __RNvXs4P_NtCsATtFUPiRFW_3syn5tokenNtB6_3LetNtB6_5Token7display, symObjAddr: 0xE524, symBinAddr: 0x71C88, symSize: 0x24 }
  - { offset: 0xB3F72, size: 0x8, addend: 0x0, symName: __RNvXs4R_NtCsATtFUPiRFW_3syn5tokenNtB6_4LoopNtNtCs9f3LFPSIp77_4core7default7Default7default, symObjAddr: 0xE548, symBinAddr: 0x71CAC, symSize: 0x24 }
  - { offset: 0xB3F95, size: 0x8, addend: 0x0, symName: __RNvXs4T_NtCsATtFUPiRFW_3syn5tokenNtB6_4LoopNtNtCs9f3LFPSIp77_4core5clone5Clone5clone, symObjAddr: 0xE56C, symBinAddr: 0x71CD0, symSize: 0x28 }
  - { offset: 0xB3FC7, size: 0x8, addend: 0x0, symName: __RNvXs4U_NtCsATtFUPiRFW_3syn5tokenNtB6_4LoopNtNtCs9f3LFPSIp77_4core3fmt5Debug3fmt, symObjAddr: 0xE594, symBinAddr: 0x71CF8, symSize: 0x50 }
  - { offset: 0xB4007, size: 0x8, addend: 0x0, symName: __RNvXs4W_NtCsATtFUPiRFW_3syn5tokenNtB6_4LoopNtNtCs9f3LFPSIp77_4core3cmp9PartialEq2eq, symObjAddr: 0xE5E4, symBinAddr: 0x71D48, symSize: 0x2C }
  - { offset: 0xB404A, size: 0x8, addend: 0x0, symName: __RNvXs4Y_NtCsATtFUPiRFW_3syn5tokenNtB6_4LoopNtNtCs62MdaZFMefA_5quote9to_tokens8ToTokens9to_tokens, symObjAddr: 0xE610, symBinAddr: 0x71D74, symSize: 0x54 }
  - { offset: 0xB4089, size: 0x8, addend: 0x0, symName: __RNvXs4Z_NtCsATtFUPiRFW_3syn5tokenNtB6_4LoopNtNtB8_5parse5Parse5parse, symObjAddr: 0xE664, symBinAddr: 0x71DC8, symSize: 0xCC }
  - { offset: 0xB40DB, size: 0x8, addend: 0x0, symName: __RNvXs50_NtCsATtFUPiRFW_3syn5tokenNtB6_4LoopNtB6_5Token4peek, symObjAddr: 0xE730, symBinAddr: 0x71E94, symSize: 0x4C }
  - { offset: 0xB4109, size: 0x8, addend: 0x0, symName: __RNvXs50_NtCsATtFUPiRFW_3syn5tokenNtB6_4LoopNtB6_5Token7display, symObjAddr: 0xE77C, symBinAddr: 0x71EE0, symSize: 0x24 }
  - { offset: 0xB412D, size: 0x8, addend: 0x0, symName: __RNvXs52_NtCsATtFUPiRFW_3syn5tokenNtB6_5MacroNtNtCs9f3LFPSIp77_4core7default7Default7default, symObjAddr: 0xE7A0, symBinAddr: 0x71F04, symSize: 0x24 }
  - { offset: 0xB4150, size: 0x8, addend: 0x0, symName: __RNvXs54_NtCsATtFUPiRFW_3syn5tokenNtB6_5MacroNtNtCs9f3LFPSIp77_4core5clone5Clone5clone, symObjAddr: 0xE7C4, symBinAddr: 0x71F28, symSize: 0x28 }
  - { offset: 0xB4182, size: 0x8, addend: 0x0, symName: __RNvXs55_NtCsATtFUPiRFW_3syn5tokenNtB6_5MacroNtNtCs9f3LFPSIp77_4core3fmt5Debug3fmt, symObjAddr: 0xE7EC, symBinAddr: 0x71F50, symSize: 0x50 }
  - { offset: 0xB41C2, size: 0x8, addend: 0x0, symName: __RNvXs57_NtCsATtFUPiRFW_3syn5tokenNtB6_5MacroNtNtCs9f3LFPSIp77_4core3cmp9PartialEq2eq, symObjAddr: 0xE83C, symBinAddr: 0x71FA0, symSize: 0x2C }
  - { offset: 0xB4205, size: 0x8, addend: 0x0, symName: __RNvXs59_NtCsATtFUPiRFW_3syn5tokenNtB6_5MacroNtNtCs62MdaZFMefA_5quote9to_tokens8ToTokens9to_tokens, symObjAddr: 0xE868, symBinAddr: 0x71FCC, symSize: 0x54 }
  - { offset: 0xB4244, size: 0x8, addend: 0x0, symName: __RNvXs5a_NtCsATtFUPiRFW_3syn5tokenNtB6_5MacroNtNtB8_5parse5Parse5parse, symObjAddr: 0xE8BC, symBinAddr: 0x72020, symSize: 0xCC }
  - { offset: 0xB4296, size: 0x8, addend: 0x0, symName: __RNvXs5b_NtCsATtFUPiRFW_3syn5tokenNtB6_5MacroNtB6_5Token4peek, symObjAddr: 0xE988, symBinAddr: 0x720EC, symSize: 0x4C }
  - { offset: 0xB42C4, size: 0x8, addend: 0x0, symName: __RNvXs5b_NtCsATtFUPiRFW_3syn5tokenNtB6_5MacroNtB6_5Token7display, symObjAddr: 0xE9D4, symBinAddr: 0x72138, symSize: 0x24 }
  - { offset: 0xB42E8, size: 0x8, addend: 0x0, symName: __RNvXs5d_NtCsATtFUPiRFW_3syn5tokenNtB6_5MatchNtNtCs9f3LFPSIp77_4core7default7Default7default, symObjAddr: 0xE9F8, symBinAddr: 0x7215C, symSize: 0x24 }
  - { offset: 0xB430B, size: 0x8, addend: 0x0, symName: __RNvXs5f_NtCsATtFUPiRFW_3syn5tokenNtB6_5MatchNtNtCs9f3LFPSIp77_4core5clone5Clone5clone, symObjAddr: 0xEA1C, symBinAddr: 0x72180, symSize: 0x28 }
  - { offset: 0xB433D, size: 0x8, addend: 0x0, symName: __RNvXs5g_NtCsATtFUPiRFW_3syn5tokenNtB6_5MatchNtNtCs9f3LFPSIp77_4core3fmt5Debug3fmt, symObjAddr: 0xEA44, symBinAddr: 0x721A8, symSize: 0x50 }
  - { offset: 0xB437D, size: 0x8, addend: 0x0, symName: __RNvXs5i_NtCsATtFUPiRFW_3syn5tokenNtB6_5MatchNtNtCs9f3LFPSIp77_4core3cmp9PartialEq2eq, symObjAddr: 0xEA94, symBinAddr: 0x721F8, symSize: 0x2C }
  - { offset: 0xB43C0, size: 0x8, addend: 0x0, symName: __RNvXs5k_NtCsATtFUPiRFW_3syn5tokenNtB6_5MatchNtNtCs62MdaZFMefA_5quote9to_tokens8ToTokens9to_tokens, symObjAddr: 0xEAC0, symBinAddr: 0x72224, symSize: 0x54 }
  - { offset: 0xB43FF, size: 0x8, addend: 0x0, symName: __RNvXs5l_NtCsATtFUPiRFW_3syn5tokenNtB6_5MatchNtNtB8_5parse5Parse5parse, symObjAddr: 0xEB14, symBinAddr: 0x72278, symSize: 0xCC }
  - { offset: 0xB4451, size: 0x8, addend: 0x0, symName: __RNvXs5m_NtCsATtFUPiRFW_3syn5tokenNtB6_5MatchNtB6_5Token4peek, symObjAddr: 0xEBE0, symBinAddr: 0x72344, symSize: 0x4C }
  - { offset: 0xB447F, size: 0x8, addend: 0x0, symName: __RNvXs5m_NtCsATtFUPiRFW_3syn5tokenNtB6_5MatchNtB6_5Token7display, symObjAddr: 0xEC2C, symBinAddr: 0x72390, symSize: 0x24 }
  - { offset: 0xB44A3, size: 0x8, addend: 0x0, symName: __RNvXs5o_NtCsATtFUPiRFW_3syn5tokenNtB6_3ModNtNtCs9f3LFPSIp77_4core7default7Default7default, symObjAddr: 0xEC50, symBinAddr: 0x723B4, symSize: 0x24 }
  - { offset: 0xB44C6, size: 0x8, addend: 0x0, symName: __RNvXs5q_NtCsATtFUPiRFW_3syn5tokenNtB6_3ModNtNtCs9f3LFPSIp77_4core5clone5Clone5clone, symObjAddr: 0xEC74, symBinAddr: 0x723D8, symSize: 0x28 }
  - { offset: 0xB44F8, size: 0x8, addend: 0x0, symName: __RNvXs5r_NtCsATtFUPiRFW_3syn5tokenNtB6_3ModNtNtCs9f3LFPSIp77_4core3fmt5Debug3fmt, symObjAddr: 0xEC9C, symBinAddr: 0x72400, symSize: 0x50 }
  - { offset: 0xB4538, size: 0x8, addend: 0x0, symName: __RNvXs5t_NtCsATtFUPiRFW_3syn5tokenNtB6_3ModNtNtCs9f3LFPSIp77_4core3cmp9PartialEq2eq, symObjAddr: 0xECEC, symBinAddr: 0x72450, symSize: 0x2C }
  - { offset: 0xB457B, size: 0x8, addend: 0x0, symName: __RNvXs5v_NtCsATtFUPiRFW_3syn5tokenNtB6_3ModNtNtCs62MdaZFMefA_5quote9to_tokens8ToTokens9to_tokens, symObjAddr: 0xED18, symBinAddr: 0x7247C, symSize: 0x54 }
  - { offset: 0xB45BA, size: 0x8, addend: 0x0, symName: __RNvXs5w_NtCsATtFUPiRFW_3syn5tokenNtB6_3ModNtNtB8_5parse5Parse5parse, symObjAddr: 0xED6C, symBinAddr: 0x724D0, symSize: 0xCC }
  - { offset: 0xB460C, size: 0x8, addend: 0x0, symName: __RNvXs5x_NtCsATtFUPiRFW_3syn5tokenNtB6_3ModNtB6_5Token4peek, symObjAddr: 0xEE38, symBinAddr: 0x7259C, symSize: 0x4C }
  - { offset: 0xB463A, size: 0x8, addend: 0x0, symName: __RNvXs5x_NtCsATtFUPiRFW_3syn5tokenNtB6_3ModNtB6_5Token7display, symObjAddr: 0xEE84, symBinAddr: 0x725E8, symSize: 0x24 }
  - { offset: 0xB465E, size: 0x8, addend: 0x0, symName: __RNvXs5z_NtCsATtFUPiRFW_3syn5tokenNtB6_4MoveNtNtCs9f3LFPSIp77_4core7default7Default7default, symObjAddr: 0xEEA8, symBinAddr: 0x7260C, symSize: 0x24 }
  - { offset: 0xB4681, size: 0x8, addend: 0x0, symName: __RNvXs5B_NtCsATtFUPiRFW_3syn5tokenNtB6_4MoveNtNtCs9f3LFPSIp77_4core5clone5Clone5clone, symObjAddr: 0xEECC, symBinAddr: 0x72630, symSize: 0x28 }
  - { offset: 0xB46B3, size: 0x8, addend: 0x0, symName: __RNvXs5C_NtCsATtFUPiRFW_3syn5tokenNtB6_4MoveNtNtCs9f3LFPSIp77_4core3fmt5Debug3fmt, symObjAddr: 0xEEF4, symBinAddr: 0x72658, symSize: 0x50 }
  - { offset: 0xB46F3, size: 0x8, addend: 0x0, symName: __RNvXs5E_NtCsATtFUPiRFW_3syn5tokenNtB6_4MoveNtNtCs9f3LFPSIp77_4core3cmp9PartialEq2eq, symObjAddr: 0xEF44, symBinAddr: 0x726A8, symSize: 0x2C }
  - { offset: 0xB4736, size: 0x8, addend: 0x0, symName: __RNvXs5G_NtCsATtFUPiRFW_3syn5tokenNtB6_4MoveNtNtCs62MdaZFMefA_5quote9to_tokens8ToTokens9to_tokens, symObjAddr: 0xEF70, symBinAddr: 0x726D4, symSize: 0x54 }
  - { offset: 0xB4775, size: 0x8, addend: 0x0, symName: __RNvXs5H_NtCsATtFUPiRFW_3syn5tokenNtB6_4MoveNtNtB8_5parse5Parse5parse, symObjAddr: 0xEFC4, symBinAddr: 0x72728, symSize: 0xCC }
  - { offset: 0xB47C7, size: 0x8, addend: 0x0, symName: __RNvXs5I_NtCsATtFUPiRFW_3syn5tokenNtB6_4MoveNtB6_5Token4peek, symObjAddr: 0xF090, symBinAddr: 0x727F4, symSize: 0x4C }
  - { offset: 0xB47F5, size: 0x8, addend: 0x0, symName: __RNvXs5I_NtCsATtFUPiRFW_3syn5tokenNtB6_4MoveNtB6_5Token7display, symObjAddr: 0xF0DC, symBinAddr: 0x72840, symSize: 0x24 }
  - { offset: 0xB4814, size: 0x8, addend: 0x0, symName: __RINvNtCsATtFUPiRFW_3syn5token3MutNtCs475r2uZUTuc_11proc_macro24SpanEB4_, symObjAddr: 0xF100, symBinAddr: 0x72864, symSize: 0x30 }
  - { offset: 0xB484E, size: 0x8, addend: 0x0, symName: __RNvXs5K_NtCsATtFUPiRFW_3syn5tokenNtB6_3MutNtNtCs9f3LFPSIp77_4core7default7Default7default, symObjAddr: 0xF130, symBinAddr: 0x72894, symSize: 0x24 }
  - { offset: 0xB4871, size: 0x8, addend: 0x0, symName: __RNvXs5M_NtCsATtFUPiRFW_3syn5tokenNtB6_3MutNtNtCs9f3LFPSIp77_4core5clone5Clone5clone, symObjAddr: 0xF154, symBinAddr: 0x728B8, symSize: 0x28 }
  - { offset: 0xB48A3, size: 0x8, addend: 0x0, symName: __RNvXs5N_NtCsATtFUPiRFW_3syn5tokenNtB6_3MutNtNtCs9f3LFPSIp77_4core3fmt5Debug3fmt, symObjAddr: 0xF17C, symBinAddr: 0x728E0, symSize: 0x50 }
  - { offset: 0xB48E3, size: 0x8, addend: 0x0, symName: __RNvXs5P_NtCsATtFUPiRFW_3syn5tokenNtB6_3MutNtNtCs9f3LFPSIp77_4core3cmp9PartialEq2eq, symObjAddr: 0xF1CC, symBinAddr: 0x72930, symSize: 0x2C }
  - { offset: 0xB4926, size: 0x8, addend: 0x0, symName: __RNvXs5R_NtCsATtFUPiRFW_3syn5tokenNtB6_3MutNtNtCs62MdaZFMefA_5quote9to_tokens8ToTokens9to_tokens, symObjAddr: 0xF1F8, symBinAddr: 0x7295C, symSize: 0x54 }
  - { offset: 0xB4965, size: 0x8, addend: 0x0, symName: __RNvXs5S_NtCsATtFUPiRFW_3syn5tokenNtB6_3MutNtNtB8_5parse5Parse5parse, symObjAddr: 0xF24C, symBinAddr: 0x729B0, symSize: 0xCC }
  - { offset: 0xB49B7, size: 0x8, addend: 0x0, symName: __RNvXs5T_NtCsATtFUPiRFW_3syn5tokenNtB6_3MutNtB6_5Token4peek, symObjAddr: 0xF318, symBinAddr: 0x72A7C, symSize: 0x4C }
  - { offset: 0xB49E5, size: 0x8, addend: 0x0, symName: __RNvXs5T_NtCsATtFUPiRFW_3syn5tokenNtB6_3MutNtB6_5Token7display, symObjAddr: 0xF364, symBinAddr: 0x72AC8, symSize: 0x24 }
  - { offset: 0xB4A09, size: 0x8, addend: 0x0, symName: __RNvXs5V_NtCsATtFUPiRFW_3syn5tokenNtB6_8OverrideNtNtCs9f3LFPSIp77_4core7default7Default7default, symObjAddr: 0xF388, symBinAddr: 0x72AEC, symSize: 0x24 }
  - { offset: 0xB4A2C, size: 0x8, addend: 0x0, symName: __RNvXs5X_NtCsATtFUPiRFW_3syn5tokenNtB6_8OverrideNtNtCs9f3LFPSIp77_4core5clone5Clone5clone, symObjAddr: 0xF3AC, symBinAddr: 0x72B10, symSize: 0x28 }
  - { offset: 0xB4A5E, size: 0x8, addend: 0x0, symName: __RNvXs5Y_NtCsATtFUPiRFW_3syn5tokenNtB6_8OverrideNtNtCs9f3LFPSIp77_4core3fmt5Debug3fmt, symObjAddr: 0xF3D4, symBinAddr: 0x72B38, symSize: 0x50 }
  - { offset: 0xB4A9E, size: 0x8, addend: 0x0, symName: __RNvXs60_NtCsATtFUPiRFW_3syn5tokenNtB6_8OverrideNtNtCs9f3LFPSIp77_4core3cmp9PartialEq2eq, symObjAddr: 0xF424, symBinAddr: 0x72B88, symSize: 0x2C }
  - { offset: 0xB4AE1, size: 0x8, addend: 0x0, symName: __RNvXs62_NtCsATtFUPiRFW_3syn5tokenNtB6_8OverrideNtNtCs62MdaZFMefA_5quote9to_tokens8ToTokens9to_tokens, symObjAddr: 0xF450, symBinAddr: 0x72BB4, symSize: 0x54 }
  - { offset: 0xB4B20, size: 0x8, addend: 0x0, symName: __RNvXs63_NtCsATtFUPiRFW_3syn5tokenNtB6_8OverrideNtNtB8_5parse5Parse5parse, symObjAddr: 0xF4A4, symBinAddr: 0x72C08, symSize: 0xCC }
  - { offset: 0xB4B72, size: 0x8, addend: 0x0, symName: __RNvXs64_NtCsATtFUPiRFW_3syn5tokenNtB6_8OverrideNtB6_5Token4peek, symObjAddr: 0xF570, symBinAddr: 0x72CD4, symSize: 0x4C }
  - { offset: 0xB4BA0, size: 0x8, addend: 0x0, symName: __RNvXs64_NtCsATtFUPiRFW_3syn5tokenNtB6_8OverrideNtB6_5Token7display, symObjAddr: 0xF5BC, symBinAddr: 0x72D20, symSize: 0x24 }
  - { offset: 0xB4BC4, size: 0x8, addend: 0x0, symName: __RNvXs66_NtCsATtFUPiRFW_3syn5tokenNtB6_4PrivNtNtCs9f3LFPSIp77_4core7default7Default7default, symObjAddr: 0xF5E0, symBinAddr: 0x72D44, symSize: 0x24 }
  - { offset: 0xB4BE7, size: 0x8, addend: 0x0, symName: __RNvXs68_NtCsATtFUPiRFW_3syn5tokenNtB6_4PrivNtNtCs9f3LFPSIp77_4core5clone5Clone5clone, symObjAddr: 0xF604, symBinAddr: 0x72D68, symSize: 0x28 }
  - { offset: 0xB4C19, size: 0x8, addend: 0x0, symName: __RNvXs69_NtCsATtFUPiRFW_3syn5tokenNtB6_4PrivNtNtCs9f3LFPSIp77_4core3fmt5Debug3fmt, symObjAddr: 0xF62C, symBinAddr: 0x72D90, symSize: 0x50 }
  - { offset: 0xB4C59, size: 0x8, addend: 0x0, symName: __RNvXs6b_NtCsATtFUPiRFW_3syn5tokenNtB6_4PrivNtNtCs9f3LFPSIp77_4core3cmp9PartialEq2eq, symObjAddr: 0xF67C, symBinAddr: 0x72DE0, symSize: 0x2C }
  - { offset: 0xB4C9C, size: 0x8, addend: 0x0, symName: __RNvXs6d_NtCsATtFUPiRFW_3syn5tokenNtB6_4PrivNtNtCs62MdaZFMefA_5quote9to_tokens8ToTokens9to_tokens, symObjAddr: 0xF6A8, symBinAddr: 0x72E0C, symSize: 0x54 }
  - { offset: 0xB4CDB, size: 0x8, addend: 0x0, symName: __RNvXs6e_NtCsATtFUPiRFW_3syn5tokenNtB6_4PrivNtNtB8_5parse5Parse5parse, symObjAddr: 0xF6FC, symBinAddr: 0x72E60, symSize: 0xCC }
  - { offset: 0xB4D2D, size: 0x8, addend: 0x0, symName: __RNvXs6f_NtCsATtFUPiRFW_3syn5tokenNtB6_4PrivNtB6_5Token4peek, symObjAddr: 0xF7C8, symBinAddr: 0x72F2C, symSize: 0x4C }
  - { offset: 0xB4D5B, size: 0x8, addend: 0x0, symName: __RNvXs6f_NtCsATtFUPiRFW_3syn5tokenNtB6_4PrivNtB6_5Token7display, symObjAddr: 0xF814, symBinAddr: 0x72F78, symSize: 0x24 }
  - { offset: 0xB4D7F, size: 0x8, addend: 0x0, symName: __RNvXs6h_NtCsATtFUPiRFW_3syn5tokenNtB6_3PubNtNtCs9f3LFPSIp77_4core7default7Default7default, symObjAddr: 0xF838, symBinAddr: 0x72F9C, symSize: 0x24 }
  - { offset: 0xB4DA2, size: 0x8, addend: 0x0, symName: __RNvXs6j_NtCsATtFUPiRFW_3syn5tokenNtB6_3PubNtNtCs9f3LFPSIp77_4core5clone5Clone5clone, symObjAddr: 0xF85C, symBinAddr: 0x72FC0, symSize: 0x28 }
  - { offset: 0xB4DD4, size: 0x8, addend: 0x0, symName: __RNvXs6k_NtCsATtFUPiRFW_3syn5tokenNtB6_3PubNtNtCs9f3LFPSIp77_4core3fmt5Debug3fmt, symObjAddr: 0xF884, symBinAddr: 0x72FE8, symSize: 0x50 }
  - { offset: 0xB4E14, size: 0x8, addend: 0x0, symName: __RNvXs6m_NtCsATtFUPiRFW_3syn5tokenNtB6_3PubNtNtCs9f3LFPSIp77_4core3cmp9PartialEq2eq, symObjAddr: 0xF8D4, symBinAddr: 0x73038, symSize: 0x2C }
  - { offset: 0xB4E57, size: 0x8, addend: 0x0, symName: __RNvXs6o_NtCsATtFUPiRFW_3syn5tokenNtB6_3PubNtNtCs62MdaZFMefA_5quote9to_tokens8ToTokens9to_tokens, symObjAddr: 0xF900, symBinAddr: 0x73064, symSize: 0x54 }
  - { offset: 0xB4E96, size: 0x8, addend: 0x0, symName: __RNvXs6p_NtCsATtFUPiRFW_3syn5tokenNtB6_3PubNtNtB8_5parse5Parse5parse, symObjAddr: 0xF954, symBinAddr: 0x730B8, symSize: 0xCC }
  - { offset: 0xB4EE8, size: 0x8, addend: 0x0, symName: __RNvXs6q_NtCsATtFUPiRFW_3syn5tokenNtB6_3PubNtB6_5Token4peek, symObjAddr: 0xFA20, symBinAddr: 0x73184, symSize: 0x4C }
  - { offset: 0xB4F16, size: 0x8, addend: 0x0, symName: __RNvXs6q_NtCsATtFUPiRFW_3syn5tokenNtB6_3PubNtB6_5Token7display, symObjAddr: 0xFA6C, symBinAddr: 0x731D0, symSize: 0x24 }
  - { offset: 0xB4F3A, size: 0x8, addend: 0x0, symName: __RNvXs6s_NtCsATtFUPiRFW_3syn5tokenNtB6_3RawNtNtCs9f3LFPSIp77_4core7default7Default7default, symObjAddr: 0xFA90, symBinAddr: 0x731F4, symSize: 0x24 }
  - { offset: 0xB4F5D, size: 0x8, addend: 0x0, symName: __RNvXs6u_NtCsATtFUPiRFW_3syn5tokenNtB6_3RawNtNtCs9f3LFPSIp77_4core5clone5Clone5clone, symObjAddr: 0xFAB4, symBinAddr: 0x73218, symSize: 0x28 }
  - { offset: 0xB4F8F, size: 0x8, addend: 0x0, symName: __RNvXs6v_NtCsATtFUPiRFW_3syn5tokenNtB6_3RawNtNtCs9f3LFPSIp77_4core3fmt5Debug3fmt, symObjAddr: 0xFADC, symBinAddr: 0x73240, symSize: 0x50 }
  - { offset: 0xB4FCF, size: 0x8, addend: 0x0, symName: __RNvXs6x_NtCsATtFUPiRFW_3syn5tokenNtB6_3RawNtNtCs9f3LFPSIp77_4core3cmp9PartialEq2eq, symObjAddr: 0xFB2C, symBinAddr: 0x73290, symSize: 0x2C }
  - { offset: 0xB5012, size: 0x8, addend: 0x0, symName: __RNvXs6z_NtCsATtFUPiRFW_3syn5tokenNtB6_3RawNtNtCs62MdaZFMefA_5quote9to_tokens8ToTokens9to_tokens, symObjAddr: 0xFB58, symBinAddr: 0x732BC, symSize: 0x54 }
  - { offset: 0xB5051, size: 0x8, addend: 0x0, symName: __RNvXs6A_NtCsATtFUPiRFW_3syn5tokenNtB6_3RawNtNtB8_5parse5Parse5parse, symObjAddr: 0xFBAC, symBinAddr: 0x73310, symSize: 0xCC }
  - { offset: 0xB50A3, size: 0x8, addend: 0x0, symName: __RNvXs6B_NtCsATtFUPiRFW_3syn5tokenNtB6_3RawNtB6_5Token4peek, symObjAddr: 0xFC78, symBinAddr: 0x733DC, symSize: 0x4C }
  - { offset: 0xB50D1, size: 0x8, addend: 0x0, symName: __RNvXs6B_NtCsATtFUPiRFW_3syn5tokenNtB6_3RawNtB6_5Token7display, symObjAddr: 0xFCC4, symBinAddr: 0x73428, symSize: 0x24 }
  - { offset: 0xB50F5, size: 0x8, addend: 0x0, symName: __RNvXs6D_NtCsATtFUPiRFW_3syn5tokenNtB6_3RefNtNtCs9f3LFPSIp77_4core7default7Default7default, symObjAddr: 0xFCE8, symBinAddr: 0x7344C, symSize: 0x24 }
  - { offset: 0xB5118, size: 0x8, addend: 0x0, symName: __RNvXs6F_NtCsATtFUPiRFW_3syn5tokenNtB6_3RefNtNtCs9f3LFPSIp77_4core5clone5Clone5clone, symObjAddr: 0xFD0C, symBinAddr: 0x73470, symSize: 0x28 }
  - { offset: 0xB514A, size: 0x8, addend: 0x0, symName: __RNvXs6G_NtCsATtFUPiRFW_3syn5tokenNtB6_3RefNtNtCs9f3LFPSIp77_4core3fmt5Debug3fmt, symObjAddr: 0xFD34, symBinAddr: 0x73498, symSize: 0x50 }
  - { offset: 0xB518A, size: 0x8, addend: 0x0, symName: __RNvXs6I_NtCsATtFUPiRFW_3syn5tokenNtB6_3RefNtNtCs9f3LFPSIp77_4core3cmp9PartialEq2eq, symObjAddr: 0xFD84, symBinAddr: 0x734E8, symSize: 0x2C }
  - { offset: 0xB51CD, size: 0x8, addend: 0x0, symName: __RNvXs6K_NtCsATtFUPiRFW_3syn5tokenNtB6_3RefNtNtCs62MdaZFMefA_5quote9to_tokens8ToTokens9to_tokens, symObjAddr: 0xFDB0, symBinAddr: 0x73514, symSize: 0x54 }
  - { offset: 0xB520C, size: 0x8, addend: 0x0, symName: __RNvXs6L_NtCsATtFUPiRFW_3syn5tokenNtB6_3RefNtNtB8_5parse5Parse5parse, symObjAddr: 0xFE04, symBinAddr: 0x73568, symSize: 0xCC }
  - { offset: 0xB525E, size: 0x8, addend: 0x0, symName: __RNvXs6M_NtCsATtFUPiRFW_3syn5tokenNtB6_3RefNtB6_5Token4peek, symObjAddr: 0xFED0, symBinAddr: 0x73634, symSize: 0x4C }
  - { offset: 0xB528C, size: 0x8, addend: 0x0, symName: __RNvXs6M_NtCsATtFUPiRFW_3syn5tokenNtB6_3RefNtB6_5Token7display, symObjAddr: 0xFF1C, symBinAddr: 0x73680, symSize: 0x24 }
  - { offset: 0xB52B0, size: 0x8, addend: 0x0, symName: __RNvXs6O_NtCsATtFUPiRFW_3syn5tokenNtB6_6ReturnNtNtCs9f3LFPSIp77_4core7default7Default7default, symObjAddr: 0xFF40, symBinAddr: 0x736A4, symSize: 0x24 }
  - { offset: 0xB52D3, size: 0x8, addend: 0x0, symName: __RNvXs6Q_NtCsATtFUPiRFW_3syn5tokenNtB6_6ReturnNtNtCs9f3LFPSIp77_4core5clone5Clone5clone, symObjAddr: 0xFF64, symBinAddr: 0x736C8, symSize: 0x28 }
  - { offset: 0xB5305, size: 0x8, addend: 0x0, symName: __RNvXs6R_NtCsATtFUPiRFW_3syn5tokenNtB6_6ReturnNtNtCs9f3LFPSIp77_4core3fmt5Debug3fmt, symObjAddr: 0xFF8C, symBinAddr: 0x736F0, symSize: 0x50 }
  - { offset: 0xB5345, size: 0x8, addend: 0x0, symName: __RNvXs6T_NtCsATtFUPiRFW_3syn5tokenNtB6_6ReturnNtNtCs9f3LFPSIp77_4core3cmp9PartialEq2eq, symObjAddr: 0xFFDC, symBinAddr: 0x73740, symSize: 0x2C }
  - { offset: 0xB5388, size: 0x8, addend: 0x0, symName: __RNvXs6V_NtCsATtFUPiRFW_3syn5tokenNtB6_6ReturnNtNtCs62MdaZFMefA_5quote9to_tokens8ToTokens9to_tokens, symObjAddr: 0x10008, symBinAddr: 0x7376C, symSize: 0x54 }
  - { offset: 0xB53C7, size: 0x8, addend: 0x0, symName: __RNvXs6W_NtCsATtFUPiRFW_3syn5tokenNtB6_6ReturnNtNtB8_5parse5Parse5parse, symObjAddr: 0x1005C, symBinAddr: 0x737C0, symSize: 0xCC }
  - { offset: 0xB5419, size: 0x8, addend: 0x0, symName: __RNvXs6X_NtCsATtFUPiRFW_3syn5tokenNtB6_6ReturnNtB6_5Token4peek, symObjAddr: 0x10128, symBinAddr: 0x7388C, symSize: 0x4C }
  - { offset: 0xB5447, size: 0x8, addend: 0x0, symName: __RNvXs6X_NtCsATtFUPiRFW_3syn5tokenNtB6_6ReturnNtB6_5Token7display, symObjAddr: 0x10174, symBinAddr: 0x738D8, symSize: 0x24 }
  - { offset: 0xB546B, size: 0x8, addend: 0x0, symName: __RNvXs6Z_NtCsATtFUPiRFW_3syn5tokenNtB6_8SelfTypeNtNtCs9f3LFPSIp77_4core7default7Default7default, symObjAddr: 0x10198, symBinAddr: 0x738FC, symSize: 0x24 }
  - { offset: 0xB548E, size: 0x8, addend: 0x0, symName: __RNvXs71_NtCsATtFUPiRFW_3syn5tokenNtB6_8SelfTypeNtNtCs9f3LFPSIp77_4core5clone5Clone5clone, symObjAddr: 0x101BC, symBinAddr: 0x73920, symSize: 0x28 }
  - { offset: 0xB54C0, size: 0x8, addend: 0x0, symName: __RNvXs72_NtCsATtFUPiRFW_3syn5tokenNtB6_8SelfTypeNtNtCs9f3LFPSIp77_4core3fmt5Debug3fmt, symObjAddr: 0x101E4, symBinAddr: 0x73948, symSize: 0x50 }
  - { offset: 0xB5500, size: 0x8, addend: 0x0, symName: __RNvXs74_NtCsATtFUPiRFW_3syn5tokenNtB6_8SelfTypeNtNtCs9f3LFPSIp77_4core3cmp9PartialEq2eq, symObjAddr: 0x10234, symBinAddr: 0x73998, symSize: 0x2C }
  - { offset: 0xB5543, size: 0x8, addend: 0x0, symName: __RNvXs76_NtCsATtFUPiRFW_3syn5tokenNtB6_8SelfTypeNtNtCs62MdaZFMefA_5quote9to_tokens8ToTokens9to_tokens, symObjAddr: 0x10260, symBinAddr: 0x739C4, symSize: 0x54 }
  - { offset: 0xB5582, size: 0x8, addend: 0x0, symName: __RNvXs77_NtCsATtFUPiRFW_3syn5tokenNtB6_8SelfTypeNtNtB8_5parse5Parse5parse, symObjAddr: 0x102B4, symBinAddr: 0x73A18, symSize: 0xCC }
  - { offset: 0xB55D4, size: 0x8, addend: 0x0, symName: __RNvXs78_NtCsATtFUPiRFW_3syn5tokenNtB6_8SelfTypeNtB6_5Token4peek, symObjAddr: 0x10380, symBinAddr: 0x73AE4, symSize: 0x4C }
  - { offset: 0xB5602, size: 0x8, addend: 0x0, symName: __RNvXs78_NtCsATtFUPiRFW_3syn5tokenNtB6_8SelfTypeNtB6_5Token7display, symObjAddr: 0x103CC, symBinAddr: 0x73B30, symSize: 0x24 }
  - { offset: 0xB5626, size: 0x8, addend: 0x0, symName: __RNvXs7a_NtCsATtFUPiRFW_3syn5tokenNtB6_9SelfValueNtNtCs9f3LFPSIp77_4core7default7Default7default, symObjAddr: 0x103F0, symBinAddr: 0x73B54, symSize: 0x24 }
  - { offset: 0xB5649, size: 0x8, addend: 0x0, symName: __RNvXs7c_NtCsATtFUPiRFW_3syn5tokenNtB6_9SelfValueNtNtCs9f3LFPSIp77_4core5clone5Clone5clone, symObjAddr: 0x10414, symBinAddr: 0x73B78, symSize: 0x28 }
  - { offset: 0xB567B, size: 0x8, addend: 0x0, symName: __RNvXs7d_NtCsATtFUPiRFW_3syn5tokenNtB6_9SelfValueNtNtCs9f3LFPSIp77_4core3fmt5Debug3fmt, symObjAddr: 0x1043C, symBinAddr: 0x73BA0, symSize: 0x50 }
  - { offset: 0xB56BB, size: 0x8, addend: 0x0, symName: __RNvXs7f_NtCsATtFUPiRFW_3syn5tokenNtB6_9SelfValueNtNtCs9f3LFPSIp77_4core3cmp9PartialEq2eq, symObjAddr: 0x1048C, symBinAddr: 0x73BF0, symSize: 0x2C }
  - { offset: 0xB56FE, size: 0x8, addend: 0x0, symName: __RNvXs7h_NtCsATtFUPiRFW_3syn5tokenNtB6_9SelfValueNtNtCs62MdaZFMefA_5quote9to_tokens8ToTokens9to_tokens, symObjAddr: 0x104B8, symBinAddr: 0x73C1C, symSize: 0x54 }
  - { offset: 0xB573D, size: 0x8, addend: 0x0, symName: __RNvXs7i_NtCsATtFUPiRFW_3syn5tokenNtB6_9SelfValueNtNtB8_5parse5Parse5parse, symObjAddr: 0x1050C, symBinAddr: 0x73C70, symSize: 0xCC }
  - { offset: 0xB578F, size: 0x8, addend: 0x0, symName: __RNvXs7j_NtCsATtFUPiRFW_3syn5tokenNtB6_9SelfValueNtB6_5Token4peek, symObjAddr: 0x105D8, symBinAddr: 0x73D3C, symSize: 0x4C }
  - { offset: 0xB57BD, size: 0x8, addend: 0x0, symName: __RNvXs7j_NtCsATtFUPiRFW_3syn5tokenNtB6_9SelfValueNtB6_5Token7display, symObjAddr: 0x10624, symBinAddr: 0x73D88, symSize: 0x24 }
  - { offset: 0xB57E1, size: 0x8, addend: 0x0, symName: __RNvXs7l_NtCsATtFUPiRFW_3syn5tokenNtB6_6StaticNtNtCs9f3LFPSIp77_4core7default7Default7default, symObjAddr: 0x10648, symBinAddr: 0x73DAC, symSize: 0x24 }
  - { offset: 0xB5804, size: 0x8, addend: 0x0, symName: __RNvXs7n_NtCsATtFUPiRFW_3syn5tokenNtB6_6StaticNtNtCs9f3LFPSIp77_4core5clone5Clone5clone, symObjAddr: 0x1066C, symBinAddr: 0x73DD0, symSize: 0x28 }
  - { offset: 0xB5836, size: 0x8, addend: 0x0, symName: __RNvXs7o_NtCsATtFUPiRFW_3syn5tokenNtB6_6StaticNtNtCs9f3LFPSIp77_4core3fmt5Debug3fmt, symObjAddr: 0x10694, symBinAddr: 0x73DF8, symSize: 0x50 }
  - { offset: 0xB5876, size: 0x8, addend: 0x0, symName: __RNvXs7q_NtCsATtFUPiRFW_3syn5tokenNtB6_6StaticNtNtCs9f3LFPSIp77_4core3cmp9PartialEq2eq, symObjAddr: 0x106E4, symBinAddr: 0x73E48, symSize: 0x2C }
  - { offset: 0xB58B9, size: 0x8, addend: 0x0, symName: __RNvXs7s_NtCsATtFUPiRFW_3syn5tokenNtB6_6StaticNtNtCs62MdaZFMefA_5quote9to_tokens8ToTokens9to_tokens, symObjAddr: 0x10710, symBinAddr: 0x73E74, symSize: 0x54 }
  - { offset: 0xB58F8, size: 0x8, addend: 0x0, symName: __RNvXs7t_NtCsATtFUPiRFW_3syn5tokenNtB6_6StaticNtNtB8_5parse5Parse5parse, symObjAddr: 0x10764, symBinAddr: 0x73EC8, symSize: 0xCC }
  - { offset: 0xB594A, size: 0x8, addend: 0x0, symName: __RNvXs7u_NtCsATtFUPiRFW_3syn5tokenNtB6_6StaticNtB6_5Token4peek, symObjAddr: 0x10830, symBinAddr: 0x73F94, symSize: 0x4C }
  - { offset: 0xB5978, size: 0x8, addend: 0x0, symName: __RNvXs7u_NtCsATtFUPiRFW_3syn5tokenNtB6_6StaticNtB6_5Token7display, symObjAddr: 0x1087C, symBinAddr: 0x73FE0, symSize: 0x24 }
  - { offset: 0xB599C, size: 0x8, addend: 0x0, symName: __RNvXs7w_NtCsATtFUPiRFW_3syn5tokenNtB6_6StructNtNtCs9f3LFPSIp77_4core7default7Default7default, symObjAddr: 0x108A0, symBinAddr: 0x74004, symSize: 0x24 }
  - { offset: 0xB59BF, size: 0x8, addend: 0x0, symName: __RNvXs7y_NtCsATtFUPiRFW_3syn5tokenNtB6_6StructNtNtCs9f3LFPSIp77_4core5clone5Clone5clone, symObjAddr: 0x108C4, symBinAddr: 0x74028, symSize: 0x28 }
  - { offset: 0xB59F1, size: 0x8, addend: 0x0, symName: __RNvXs7z_NtCsATtFUPiRFW_3syn5tokenNtB6_6StructNtNtCs9f3LFPSIp77_4core3fmt5Debug3fmt, symObjAddr: 0x108EC, symBinAddr: 0x74050, symSize: 0x50 }
  - { offset: 0xB5A31, size: 0x8, addend: 0x0, symName: __RNvXs7B_NtCsATtFUPiRFW_3syn5tokenNtB6_6StructNtNtCs9f3LFPSIp77_4core3cmp9PartialEq2eq, symObjAddr: 0x1093C, symBinAddr: 0x740A0, symSize: 0x2C }
  - { offset: 0xB5A74, size: 0x8, addend: 0x0, symName: __RNvXs7D_NtCsATtFUPiRFW_3syn5tokenNtB6_6StructNtNtCs62MdaZFMefA_5quote9to_tokens8ToTokens9to_tokens, symObjAddr: 0x10968, symBinAddr: 0x740CC, symSize: 0x54 }
  - { offset: 0xB5AB3, size: 0x8, addend: 0x0, symName: __RNvXs7E_NtCsATtFUPiRFW_3syn5tokenNtB6_6StructNtNtB8_5parse5Parse5parse, symObjAddr: 0x109BC, symBinAddr: 0x74120, symSize: 0xCC }
  - { offset: 0xB5B05, size: 0x8, addend: 0x0, symName: __RNvXs7F_NtCsATtFUPiRFW_3syn5tokenNtB6_6StructNtB6_5Token4peek, symObjAddr: 0x10A88, symBinAddr: 0x741EC, symSize: 0x4C }
  - { offset: 0xB5B33, size: 0x8, addend: 0x0, symName: __RNvXs7F_NtCsATtFUPiRFW_3syn5tokenNtB6_6StructNtB6_5Token7display, symObjAddr: 0x10AD4, symBinAddr: 0x74238, symSize: 0x24 }
  - { offset: 0xB5B57, size: 0x8, addend: 0x0, symName: __RNvXs7H_NtCsATtFUPiRFW_3syn5tokenNtB6_5SuperNtNtCs9f3LFPSIp77_4core7default7Default7default, symObjAddr: 0x10AF8, symBinAddr: 0x7425C, symSize: 0x24 }
  - { offset: 0xB5B7A, size: 0x8, addend: 0x0, symName: __RNvXs7J_NtCsATtFUPiRFW_3syn5tokenNtB6_5SuperNtNtCs9f3LFPSIp77_4core5clone5Clone5clone, symObjAddr: 0x10B1C, symBinAddr: 0x74280, symSize: 0x28 }
  - { offset: 0xB5BAC, size: 0x8, addend: 0x0, symName: __RNvXs7K_NtCsATtFUPiRFW_3syn5tokenNtB6_5SuperNtNtCs9f3LFPSIp77_4core3fmt5Debug3fmt, symObjAddr: 0x10B44, symBinAddr: 0x742A8, symSize: 0x50 }
  - { offset: 0xB5BEC, size: 0x8, addend: 0x0, symName: __RNvXs7M_NtCsATtFUPiRFW_3syn5tokenNtB6_5SuperNtNtCs9f3LFPSIp77_4core3cmp9PartialEq2eq, symObjAddr: 0x10B94, symBinAddr: 0x742F8, symSize: 0x2C }
  - { offset: 0xB5C2F, size: 0x8, addend: 0x0, symName: __RNvXs7O_NtCsATtFUPiRFW_3syn5tokenNtB6_5SuperNtNtCs62MdaZFMefA_5quote9to_tokens8ToTokens9to_tokens, symObjAddr: 0x10BC0, symBinAddr: 0x74324, symSize: 0x54 }
  - { offset: 0xB5C6E, size: 0x8, addend: 0x0, symName: __RNvXs7P_NtCsATtFUPiRFW_3syn5tokenNtB6_5SuperNtNtB8_5parse5Parse5parse, symObjAddr: 0x10C14, symBinAddr: 0x74378, symSize: 0xCC }
  - { offset: 0xB5CC0, size: 0x8, addend: 0x0, symName: __RNvXs7Q_NtCsATtFUPiRFW_3syn5tokenNtB6_5SuperNtB6_5Token4peek, symObjAddr: 0x10CE0, symBinAddr: 0x74444, symSize: 0x4C }
  - { offset: 0xB5CEE, size: 0x8, addend: 0x0, symName: __RNvXs7Q_NtCsATtFUPiRFW_3syn5tokenNtB6_5SuperNtB6_5Token7display, symObjAddr: 0x10D2C, symBinAddr: 0x74490, symSize: 0x24 }
  - { offset: 0xB5D12, size: 0x8, addend: 0x0, symName: __RNvXs7S_NtCsATtFUPiRFW_3syn5tokenNtB6_5TraitNtNtCs9f3LFPSIp77_4core7default7Default7default, symObjAddr: 0x10D50, symBinAddr: 0x744B4, symSize: 0x24 }
  - { offset: 0xB5D35, size: 0x8, addend: 0x0, symName: __RNvXs7U_NtCsATtFUPiRFW_3syn5tokenNtB6_5TraitNtNtCs9f3LFPSIp77_4core5clone5Clone5clone, symObjAddr: 0x10D74, symBinAddr: 0x744D8, symSize: 0x28 }
  - { offset: 0xB5D67, size: 0x8, addend: 0x0, symName: __RNvXs7V_NtCsATtFUPiRFW_3syn5tokenNtB6_5TraitNtNtCs9f3LFPSIp77_4core3fmt5Debug3fmt, symObjAddr: 0x10D9C, symBinAddr: 0x74500, symSize: 0x50 }
  - { offset: 0xB5DA7, size: 0x8, addend: 0x0, symName: __RNvXs7X_NtCsATtFUPiRFW_3syn5tokenNtB6_5TraitNtNtCs9f3LFPSIp77_4core3cmp9PartialEq2eq, symObjAddr: 0x10DEC, symBinAddr: 0x74550, symSize: 0x2C }
  - { offset: 0xB5DEA, size: 0x8, addend: 0x0, symName: __RNvXs7Z_NtCsATtFUPiRFW_3syn5tokenNtB6_5TraitNtNtCs62MdaZFMefA_5quote9to_tokens8ToTokens9to_tokens, symObjAddr: 0x10E18, symBinAddr: 0x7457C, symSize: 0x54 }
  - { offset: 0xB5E29, size: 0x8, addend: 0x0, symName: __RNvXs80_NtCsATtFUPiRFW_3syn5tokenNtB6_5TraitNtNtB8_5parse5Parse5parse, symObjAddr: 0x10E6C, symBinAddr: 0x745D0, symSize: 0xCC }
  - { offset: 0xB5E7B, size: 0x8, addend: 0x0, symName: __RNvXs81_NtCsATtFUPiRFW_3syn5tokenNtB6_5TraitNtB6_5Token4peek, symObjAddr: 0x10F38, symBinAddr: 0x7469C, symSize: 0x4C }
  - { offset: 0xB5EA9, size: 0x8, addend: 0x0, symName: __RNvXs81_NtCsATtFUPiRFW_3syn5tokenNtB6_5TraitNtB6_5Token7display, symObjAddr: 0x10F84, symBinAddr: 0x746E8, symSize: 0x24 }
  - { offset: 0xB5ECD, size: 0x8, addend: 0x0, symName: __RNvXs83_NtCsATtFUPiRFW_3syn5tokenNtB6_3TryNtNtCs9f3LFPSIp77_4core7default7Default7default, symObjAddr: 0x10FA8, symBinAddr: 0x7470C, symSize: 0x24 }
  - { offset: 0xB5EF0, size: 0x8, addend: 0x0, symName: __RNvXs85_NtCsATtFUPiRFW_3syn5tokenNtB6_3TryNtNtCs9f3LFPSIp77_4core5clone5Clone5clone, symObjAddr: 0x10FCC, symBinAddr: 0x74730, symSize: 0x28 }
  - { offset: 0xB5F22, size: 0x8, addend: 0x0, symName: __RNvXs86_NtCsATtFUPiRFW_3syn5tokenNtB6_3TryNtNtCs9f3LFPSIp77_4core3fmt5Debug3fmt, symObjAddr: 0x10FF4, symBinAddr: 0x74758, symSize: 0x50 }
  - { offset: 0xB5F62, size: 0x8, addend: 0x0, symName: __RNvXs88_NtCsATtFUPiRFW_3syn5tokenNtB6_3TryNtNtCs9f3LFPSIp77_4core3cmp9PartialEq2eq, symObjAddr: 0x11044, symBinAddr: 0x747A8, symSize: 0x2C }
  - { offset: 0xB5FA5, size: 0x8, addend: 0x0, symName: __RNvXs8a_NtCsATtFUPiRFW_3syn5tokenNtB6_3TryNtNtCs62MdaZFMefA_5quote9to_tokens8ToTokens9to_tokens, symObjAddr: 0x11070, symBinAddr: 0x747D4, symSize: 0x54 }
  - { offset: 0xB5FE4, size: 0x8, addend: 0x0, symName: __RNvXs8b_NtCsATtFUPiRFW_3syn5tokenNtB6_3TryNtNtB8_5parse5Parse5parse, symObjAddr: 0x110C4, symBinAddr: 0x74828, symSize: 0xCC }
  - { offset: 0xB6036, size: 0x8, addend: 0x0, symName: __RNvXs8c_NtCsATtFUPiRFW_3syn5tokenNtB6_3TryNtB6_5Token4peek, symObjAddr: 0x11190, symBinAddr: 0x748F4, symSize: 0x4C }
  - { offset: 0xB6064, size: 0x8, addend: 0x0, symName: __RNvXs8c_NtCsATtFUPiRFW_3syn5tokenNtB6_3TryNtB6_5Token7display, symObjAddr: 0x111DC, symBinAddr: 0x74940, symSize: 0x24 }
  - { offset: 0xB6088, size: 0x8, addend: 0x0, symName: __RNvXs8e_NtCsATtFUPiRFW_3syn5tokenNtB6_4TypeNtNtCs9f3LFPSIp77_4core7default7Default7default, symObjAddr: 0x11200, symBinAddr: 0x74964, symSize: 0x24 }
  - { offset: 0xB60AB, size: 0x8, addend: 0x0, symName: __RNvXs8g_NtCsATtFUPiRFW_3syn5tokenNtB6_4TypeNtNtCs9f3LFPSIp77_4core5clone5Clone5clone, symObjAddr: 0x11224, symBinAddr: 0x74988, symSize: 0x28 }
  - { offset: 0xB60DD, size: 0x8, addend: 0x0, symName: __RNvXs8h_NtCsATtFUPiRFW_3syn5tokenNtB6_4TypeNtNtCs9f3LFPSIp77_4core3fmt5Debug3fmt, symObjAddr: 0x1124C, symBinAddr: 0x749B0, symSize: 0x50 }
  - { offset: 0xB611D, size: 0x8, addend: 0x0, symName: __RNvXs8j_NtCsATtFUPiRFW_3syn5tokenNtB6_4TypeNtNtCs9f3LFPSIp77_4core3cmp9PartialEq2eq, symObjAddr: 0x1129C, symBinAddr: 0x74A00, symSize: 0x2C }
  - { offset: 0xB6160, size: 0x8, addend: 0x0, symName: __RNvXs8l_NtCsATtFUPiRFW_3syn5tokenNtB6_4TypeNtNtCs62MdaZFMefA_5quote9to_tokens8ToTokens9to_tokens, symObjAddr: 0x112C8, symBinAddr: 0x74A2C, symSize: 0x54 }
  - { offset: 0xB619F, size: 0x8, addend: 0x0, symName: __RNvXs8m_NtCsATtFUPiRFW_3syn5tokenNtB6_4TypeNtNtB8_5parse5Parse5parse, symObjAddr: 0x1131C, symBinAddr: 0x74A80, symSize: 0xCC }
  - { offset: 0xB61F1, size: 0x8, addend: 0x0, symName: __RNvXs8n_NtCsATtFUPiRFW_3syn5tokenNtB6_4TypeNtB6_5Token4peek, symObjAddr: 0x113E8, symBinAddr: 0x74B4C, symSize: 0x4C }
  - { offset: 0xB621F, size: 0x8, addend: 0x0, symName: __RNvXs8n_NtCsATtFUPiRFW_3syn5tokenNtB6_4TypeNtB6_5Token7display, symObjAddr: 0x11434, symBinAddr: 0x74B98, symSize: 0x24 }
  - { offset: 0xB6243, size: 0x8, addend: 0x0, symName: __RNvXs8p_NtCsATtFUPiRFW_3syn5tokenNtB6_6TypeofNtNtCs9f3LFPSIp77_4core7default7Default7default, symObjAddr: 0x11458, symBinAddr: 0x74BBC, symSize: 0x24 }
  - { offset: 0xB6266, size: 0x8, addend: 0x0, symName: __RNvXs8r_NtCsATtFUPiRFW_3syn5tokenNtB6_6TypeofNtNtCs9f3LFPSIp77_4core5clone5Clone5clone, symObjAddr: 0x1147C, symBinAddr: 0x74BE0, symSize: 0x28 }
  - { offset: 0xB6298, size: 0x8, addend: 0x0, symName: __RNvXs8s_NtCsATtFUPiRFW_3syn5tokenNtB6_6TypeofNtNtCs9f3LFPSIp77_4core3fmt5Debug3fmt, symObjAddr: 0x114A4, symBinAddr: 0x74C08, symSize: 0x50 }
  - { offset: 0xB62D8, size: 0x8, addend: 0x0, symName: __RNvXs8u_NtCsATtFUPiRFW_3syn5tokenNtB6_6TypeofNtNtCs9f3LFPSIp77_4core3cmp9PartialEq2eq, symObjAddr: 0x114F4, symBinAddr: 0x74C58, symSize: 0x2C }
  - { offset: 0xB631B, size: 0x8, addend: 0x0, symName: __RNvXs8w_NtCsATtFUPiRFW_3syn5tokenNtB6_6TypeofNtNtCs62MdaZFMefA_5quote9to_tokens8ToTokens9to_tokens, symObjAddr: 0x11520, symBinAddr: 0x74C84, symSize: 0x54 }
  - { offset: 0xB635A, size: 0x8, addend: 0x0, symName: __RNvXs8x_NtCsATtFUPiRFW_3syn5tokenNtB6_6TypeofNtNtB8_5parse5Parse5parse, symObjAddr: 0x11574, symBinAddr: 0x74CD8, symSize: 0xCC }
  - { offset: 0xB63AC, size: 0x8, addend: 0x0, symName: __RNvXs8y_NtCsATtFUPiRFW_3syn5tokenNtB6_6TypeofNtB6_5Token4peek, symObjAddr: 0x11640, symBinAddr: 0x74DA4, symSize: 0x4C }
  - { offset: 0xB63DA, size: 0x8, addend: 0x0, symName: __RNvXs8y_NtCsATtFUPiRFW_3syn5tokenNtB6_6TypeofNtB6_5Token7display, symObjAddr: 0x1168C, symBinAddr: 0x74DF0, symSize: 0x24 }
  - { offset: 0xB63FE, size: 0x8, addend: 0x0, symName: __RNvXs8A_NtCsATtFUPiRFW_3syn5tokenNtB6_5UnionNtNtCs9f3LFPSIp77_4core7default7Default7default, symObjAddr: 0x116B0, symBinAddr: 0x74E14, symSize: 0x24 }
  - { offset: 0xB6421, size: 0x8, addend: 0x0, symName: __RNvXs8C_NtCsATtFUPiRFW_3syn5tokenNtB6_5UnionNtNtCs9f3LFPSIp77_4core5clone5Clone5clone, symObjAddr: 0x116D4, symBinAddr: 0x74E38, symSize: 0x28 }
  - { offset: 0xB6453, size: 0x8, addend: 0x0, symName: __RNvXs8D_NtCsATtFUPiRFW_3syn5tokenNtB6_5UnionNtNtCs9f3LFPSIp77_4core3fmt5Debug3fmt, symObjAddr: 0x116FC, symBinAddr: 0x74E60, symSize: 0x50 }
  - { offset: 0xB6493, size: 0x8, addend: 0x0, symName: __RNvXs8F_NtCsATtFUPiRFW_3syn5tokenNtB6_5UnionNtNtCs9f3LFPSIp77_4core3cmp9PartialEq2eq, symObjAddr: 0x1174C, symBinAddr: 0x74EB0, symSize: 0x2C }
  - { offset: 0xB64D6, size: 0x8, addend: 0x0, symName: __RNvXs8H_NtCsATtFUPiRFW_3syn5tokenNtB6_5UnionNtNtCs62MdaZFMefA_5quote9to_tokens8ToTokens9to_tokens, symObjAddr: 0x11778, symBinAddr: 0x74EDC, symSize: 0x54 }
  - { offset: 0xB6515, size: 0x8, addend: 0x0, symName: __RNvXs8I_NtCsATtFUPiRFW_3syn5tokenNtB6_5UnionNtNtB8_5parse5Parse5parse, symObjAddr: 0x117CC, symBinAddr: 0x74F30, symSize: 0xCC }
  - { offset: 0xB6567, size: 0x8, addend: 0x0, symName: __RNvXs8J_NtCsATtFUPiRFW_3syn5tokenNtB6_5UnionNtB6_5Token4peek, symObjAddr: 0x11898, symBinAddr: 0x74FFC, symSize: 0x4C }
  - { offset: 0xB6595, size: 0x8, addend: 0x0, symName: __RNvXs8J_NtCsATtFUPiRFW_3syn5tokenNtB6_5UnionNtB6_5Token7display, symObjAddr: 0x118E4, symBinAddr: 0x75048, symSize: 0x24 }
  - { offset: 0xB65B9, size: 0x8, addend: 0x0, symName: __RNvXs8L_NtCsATtFUPiRFW_3syn5tokenNtB6_6UnsafeNtNtCs9f3LFPSIp77_4core7default7Default7default, symObjAddr: 0x11908, symBinAddr: 0x7506C, symSize: 0x24 }
  - { offset: 0xB65DC, size: 0x8, addend: 0x0, symName: __RNvXs8N_NtCsATtFUPiRFW_3syn5tokenNtB6_6UnsafeNtNtCs9f3LFPSIp77_4core5clone5Clone5clone, symObjAddr: 0x1192C, symBinAddr: 0x75090, symSize: 0x28 }
  - { offset: 0xB660E, size: 0x8, addend: 0x0, symName: __RNvXs8O_NtCsATtFUPiRFW_3syn5tokenNtB6_6UnsafeNtNtCs9f3LFPSIp77_4core3fmt5Debug3fmt, symObjAddr: 0x11954, symBinAddr: 0x750B8, symSize: 0x50 }
  - { offset: 0xB664E, size: 0x8, addend: 0x0, symName: __RNvXs8Q_NtCsATtFUPiRFW_3syn5tokenNtB6_6UnsafeNtNtCs9f3LFPSIp77_4core3cmp9PartialEq2eq, symObjAddr: 0x119A4, symBinAddr: 0x75108, symSize: 0x2C }
  - { offset: 0xB6691, size: 0x8, addend: 0x0, symName: __RNvXs8S_NtCsATtFUPiRFW_3syn5tokenNtB6_6UnsafeNtNtCs62MdaZFMefA_5quote9to_tokens8ToTokens9to_tokens, symObjAddr: 0x119D0, symBinAddr: 0x75134, symSize: 0x54 }
  - { offset: 0xB66D0, size: 0x8, addend: 0x0, symName: __RNvXs8T_NtCsATtFUPiRFW_3syn5tokenNtB6_6UnsafeNtNtB8_5parse5Parse5parse, symObjAddr: 0x11A24, symBinAddr: 0x75188, symSize: 0xCC }
  - { offset: 0xB6722, size: 0x8, addend: 0x0, symName: __RNvXs8U_NtCsATtFUPiRFW_3syn5tokenNtB6_6UnsafeNtB6_5Token4peek, symObjAddr: 0x11AF0, symBinAddr: 0x75254, symSize: 0x4C }
  - { offset: 0xB6750, size: 0x8, addend: 0x0, symName: __RNvXs8U_NtCsATtFUPiRFW_3syn5tokenNtB6_6UnsafeNtB6_5Token7display, symObjAddr: 0x11B3C, symBinAddr: 0x752A0, symSize: 0x24 }
  - { offset: 0xB6774, size: 0x8, addend: 0x0, symName: __RNvXs8W_NtCsATtFUPiRFW_3syn5tokenNtB6_7UnsizedNtNtCs9f3LFPSIp77_4core7default7Default7default, symObjAddr: 0x11B60, symBinAddr: 0x752C4, symSize: 0x24 }
  - { offset: 0xB6797, size: 0x8, addend: 0x0, symName: __RNvXs8Y_NtCsATtFUPiRFW_3syn5tokenNtB6_7UnsizedNtNtCs9f3LFPSIp77_4core5clone5Clone5clone, symObjAddr: 0x11B84, symBinAddr: 0x752E8, symSize: 0x28 }
  - { offset: 0xB67C9, size: 0x8, addend: 0x0, symName: __RNvXs8Z_NtCsATtFUPiRFW_3syn5tokenNtB6_7UnsizedNtNtCs9f3LFPSIp77_4core3fmt5Debug3fmt, symObjAddr: 0x11BAC, symBinAddr: 0x75310, symSize: 0x50 }
  - { offset: 0xB6809, size: 0x8, addend: 0x0, symName: __RNvXs91_NtCsATtFUPiRFW_3syn5tokenNtB6_7UnsizedNtNtCs9f3LFPSIp77_4core3cmp9PartialEq2eq, symObjAddr: 0x11BFC, symBinAddr: 0x75360, symSize: 0x2C }
  - { offset: 0xB684C, size: 0x8, addend: 0x0, symName: __RNvXs93_NtCsATtFUPiRFW_3syn5tokenNtB6_7UnsizedNtNtCs62MdaZFMefA_5quote9to_tokens8ToTokens9to_tokens, symObjAddr: 0x11C28, symBinAddr: 0x7538C, symSize: 0x54 }
  - { offset: 0xB688B, size: 0x8, addend: 0x0, symName: __RNvXs94_NtCsATtFUPiRFW_3syn5tokenNtB6_7UnsizedNtNtB8_5parse5Parse5parse, symObjAddr: 0x11C7C, symBinAddr: 0x753E0, symSize: 0xCC }
  - { offset: 0xB68DD, size: 0x8, addend: 0x0, symName: __RNvXs95_NtCsATtFUPiRFW_3syn5tokenNtB6_7UnsizedNtB6_5Token4peek, symObjAddr: 0x11D48, symBinAddr: 0x754AC, symSize: 0x4C }
  - { offset: 0xB690B, size: 0x8, addend: 0x0, symName: __RNvXs95_NtCsATtFUPiRFW_3syn5tokenNtB6_7UnsizedNtB6_5Token7display, symObjAddr: 0x11D94, symBinAddr: 0x754F8, symSize: 0x24 }
  - { offset: 0xB692F, size: 0x8, addend: 0x0, symName: __RNvXs97_NtCsATtFUPiRFW_3syn5tokenNtB6_3UseNtNtCs9f3LFPSIp77_4core7default7Default7default, symObjAddr: 0x11DB8, symBinAddr: 0x7551C, symSize: 0x24 }
  - { offset: 0xB6952, size: 0x8, addend: 0x0, symName: __RNvXs99_NtCsATtFUPiRFW_3syn5tokenNtB6_3UseNtNtCs9f3LFPSIp77_4core5clone5Clone5clone, symObjAddr: 0x11DDC, symBinAddr: 0x75540, symSize: 0x28 }
  - { offset: 0xB6984, size: 0x8, addend: 0x0, symName: __RNvXs9a_NtCsATtFUPiRFW_3syn5tokenNtB6_3UseNtNtCs9f3LFPSIp77_4core3fmt5Debug3fmt, symObjAddr: 0x11E04, symBinAddr: 0x75568, symSize: 0x50 }
  - { offset: 0xB69C4, size: 0x8, addend: 0x0, symName: __RNvXs9c_NtCsATtFUPiRFW_3syn5tokenNtB6_3UseNtNtCs9f3LFPSIp77_4core3cmp9PartialEq2eq, symObjAddr: 0x11E54, symBinAddr: 0x755B8, symSize: 0x2C }
  - { offset: 0xB6A07, size: 0x8, addend: 0x0, symName: __RNvXs9e_NtCsATtFUPiRFW_3syn5tokenNtB6_3UseNtNtCs62MdaZFMefA_5quote9to_tokens8ToTokens9to_tokens, symObjAddr: 0x11E80, symBinAddr: 0x755E4, symSize: 0x54 }
  - { offset: 0xB6A46, size: 0x8, addend: 0x0, symName: __RNvXs9f_NtCsATtFUPiRFW_3syn5tokenNtB6_3UseNtNtB8_5parse5Parse5parse, symObjAddr: 0x11ED4, symBinAddr: 0x75638, symSize: 0xCC }
  - { offset: 0xB6A98, size: 0x8, addend: 0x0, symName: __RNvXs9g_NtCsATtFUPiRFW_3syn5tokenNtB6_3UseNtB6_5Token4peek, symObjAddr: 0x11FA0, symBinAddr: 0x75704, symSize: 0x4C }
  - { offset: 0xB6AC6, size: 0x8, addend: 0x0, symName: __RNvXs9g_NtCsATtFUPiRFW_3syn5tokenNtB6_3UseNtB6_5Token7display, symObjAddr: 0x11FEC, symBinAddr: 0x75750, symSize: 0x24 }
  - { offset: 0xB6AEA, size: 0x8, addend: 0x0, symName: __RNvXs9i_NtCsATtFUPiRFW_3syn5tokenNtB6_7VirtualNtNtCs9f3LFPSIp77_4core7default7Default7default, symObjAddr: 0x12010, symBinAddr: 0x75774, symSize: 0x24 }
  - { offset: 0xB6B0D, size: 0x8, addend: 0x0, symName: __RNvXs9k_NtCsATtFUPiRFW_3syn5tokenNtB6_7VirtualNtNtCs9f3LFPSIp77_4core5clone5Clone5clone, symObjAddr: 0x12034, symBinAddr: 0x75798, symSize: 0x28 }
  - { offset: 0xB6B3F, size: 0x8, addend: 0x0, symName: __RNvXs9l_NtCsATtFUPiRFW_3syn5tokenNtB6_7VirtualNtNtCs9f3LFPSIp77_4core3fmt5Debug3fmt, symObjAddr: 0x1205C, symBinAddr: 0x757C0, symSize: 0x50 }
  - { offset: 0xB6B7F, size: 0x8, addend: 0x0, symName: __RNvXs9n_NtCsATtFUPiRFW_3syn5tokenNtB6_7VirtualNtNtCs9f3LFPSIp77_4core3cmp9PartialEq2eq, symObjAddr: 0x120AC, symBinAddr: 0x75810, symSize: 0x2C }
  - { offset: 0xB6BC2, size: 0x8, addend: 0x0, symName: __RNvXs9p_NtCsATtFUPiRFW_3syn5tokenNtB6_7VirtualNtNtCs62MdaZFMefA_5quote9to_tokens8ToTokens9to_tokens, symObjAddr: 0x120D8, symBinAddr: 0x7583C, symSize: 0x54 }
  - { offset: 0xB6C01, size: 0x8, addend: 0x0, symName: __RNvXs9q_NtCsATtFUPiRFW_3syn5tokenNtB6_7VirtualNtNtB8_5parse5Parse5parse, symObjAddr: 0x1212C, symBinAddr: 0x75890, symSize: 0xCC }
  - { offset: 0xB6C53, size: 0x8, addend: 0x0, symName: __RNvXs9r_NtCsATtFUPiRFW_3syn5tokenNtB6_7VirtualNtB6_5Token4peek, symObjAddr: 0x121F8, symBinAddr: 0x7595C, symSize: 0x4C }
  - { offset: 0xB6C81, size: 0x8, addend: 0x0, symName: __RNvXs9r_NtCsATtFUPiRFW_3syn5tokenNtB6_7VirtualNtB6_5Token7display, symObjAddr: 0x12244, symBinAddr: 0x759A8, symSize: 0x24 }
  - { offset: 0xB6CA5, size: 0x8, addend: 0x0, symName: __RNvXs9t_NtCsATtFUPiRFW_3syn5tokenNtB6_5WhereNtNtCs9f3LFPSIp77_4core7default7Default7default, symObjAddr: 0x12268, symBinAddr: 0x759CC, symSize: 0x24 }
  - { offset: 0xB6CC8, size: 0x8, addend: 0x0, symName: __RNvXs9v_NtCsATtFUPiRFW_3syn5tokenNtB6_5WhereNtNtCs9f3LFPSIp77_4core5clone5Clone5clone, symObjAddr: 0x1228C, symBinAddr: 0x759F0, symSize: 0x28 }
  - { offset: 0xB6CFA, size: 0x8, addend: 0x0, symName: __RNvXs9w_NtCsATtFUPiRFW_3syn5tokenNtB6_5WhereNtNtCs9f3LFPSIp77_4core3fmt5Debug3fmt, symObjAddr: 0x122B4, symBinAddr: 0x75A18, symSize: 0x50 }
  - { offset: 0xB6D3A, size: 0x8, addend: 0x0, symName: __RNvXs9y_NtCsATtFUPiRFW_3syn5tokenNtB6_5WhereNtNtCs9f3LFPSIp77_4core3cmp9PartialEq2eq, symObjAddr: 0x12304, symBinAddr: 0x75A68, symSize: 0x2C }
  - { offset: 0xB6D7D, size: 0x8, addend: 0x0, symName: __RNvXs9A_NtCsATtFUPiRFW_3syn5tokenNtB6_5WhereNtNtCs62MdaZFMefA_5quote9to_tokens8ToTokens9to_tokens, symObjAddr: 0x12330, symBinAddr: 0x75A94, symSize: 0x54 }
  - { offset: 0xB6DBC, size: 0x8, addend: 0x0, symName: __RNvXs9B_NtCsATtFUPiRFW_3syn5tokenNtB6_5WhereNtNtB8_5parse5Parse5parse, symObjAddr: 0x12384, symBinAddr: 0x75AE8, symSize: 0xCC }
  - { offset: 0xB6E0E, size: 0x8, addend: 0x0, symName: __RNvXs9C_NtCsATtFUPiRFW_3syn5tokenNtB6_5WhereNtB6_5Token4peek, symObjAddr: 0x12450, symBinAddr: 0x75BB4, symSize: 0x4C }
  - { offset: 0xB6E3C, size: 0x8, addend: 0x0, symName: __RNvXs9C_NtCsATtFUPiRFW_3syn5tokenNtB6_5WhereNtB6_5Token7display, symObjAddr: 0x1249C, symBinAddr: 0x75C00, symSize: 0x24 }
  - { offset: 0xB6E60, size: 0x8, addend: 0x0, symName: __RNvXs9E_NtCsATtFUPiRFW_3syn5tokenNtB6_5WhileNtNtCs9f3LFPSIp77_4core7default7Default7default, symObjAddr: 0x124C0, symBinAddr: 0x75C24, symSize: 0x24 }
  - { offset: 0xB6E83, size: 0x8, addend: 0x0, symName: __RNvXs9G_NtCsATtFUPiRFW_3syn5tokenNtB6_5WhileNtNtCs9f3LFPSIp77_4core5clone5Clone5clone, symObjAddr: 0x124E4, symBinAddr: 0x75C48, symSize: 0x28 }
  - { offset: 0xB6EB5, size: 0x8, addend: 0x0, symName: __RNvXs9H_NtCsATtFUPiRFW_3syn5tokenNtB6_5WhileNtNtCs9f3LFPSIp77_4core3fmt5Debug3fmt, symObjAddr: 0x1250C, symBinAddr: 0x75C70, symSize: 0x50 }
  - { offset: 0xB6EF5, size: 0x8, addend: 0x0, symName: __RNvXs9J_NtCsATtFUPiRFW_3syn5tokenNtB6_5WhileNtNtCs9f3LFPSIp77_4core3cmp9PartialEq2eq, symObjAddr: 0x1255C, symBinAddr: 0x75CC0, symSize: 0x2C }
  - { offset: 0xB6F38, size: 0x8, addend: 0x0, symName: __RNvXs9L_NtCsATtFUPiRFW_3syn5tokenNtB6_5WhileNtNtCs62MdaZFMefA_5quote9to_tokens8ToTokens9to_tokens, symObjAddr: 0x12588, symBinAddr: 0x75CEC, symSize: 0x54 }
