---
triple:          'arm64-apple-darwin'
binary-path:     '/Users/teddy/code/zero_to_production/newsletter_server/target/debug/build/cookie-52221955bc91ee67/build_script_build-52221955bc91ee67'
relocations:
  - { offset: 0x1E, size: 0x8, addend: 0x0, symName: __RINvMs0_NtCs9f3LFPSIp77_4core3fmtNtB6_9Arguments9new_constKj1_ECsaeKFZAPEead_18build_script_build, symObjAddr: 0x0, symBinAddr: 0x1000045BC, symSize: 0x48 }
  - { offset: 0x68, size: 0x8, addend: 0x0, symName: __RNCINvNtCs27l1GJC5rMQ_3std2rt10lang_startuE0CsaeKFZAPEead_18build_script_build, symObjAddr: 0xE8, symBinAddr: 0x1000046A4, symSize: 0x3C }
  - { offset: 0xDB, size: 0x8, addend: 0x0, symName: __RINvNtCs27l1GJC5rMQ_3std2rt10lang_startuECsaeKFZAPEead_18build_script_build, symObjAddr: 0x48, symBinAddr: 0x100004604, symSize: 0x6C }
  - { offset: 0x145, size: 0x8, addend: 0x0, symName: __RINvNtNtCs27l1GJC5rMQ_3std3sys9backtrace28___rust_begin_short_backtraceFEuuECsaeKFZAPEead_18build_script_build, symObjAddr: 0xC4, symBinAddr: 0x100004680, symSize: 0x24 }
  - { offset: 0x232, size: 0x8, addend: 0x0, symName: __RNvXsT_NtCs27l1GJC5rMQ_3std7processuNtB5_11Termination6reportCsaeKFZAPEead_18build_script_build, symObjAddr: 0x14C, symBinAddr: 0x100004708, symSize: 0x10 }
  - { offset: 0x58A, size: 0x8, addend: 0x0, symName: __RINvNtCs9f3LFPSIp77_4core3ptr13drop_in_placeNCINvNtCs27l1GJC5rMQ_3std2rt10lang_startuE0ECsaeKFZAPEead_18build_script_build, symObjAddr: 0xB4, symBinAddr: 0x100004670, symSize: 0x10 }
  - { offset: 0x690, size: 0x8, addend: 0x0, symName: __RNSNvYNCINvNtCs27l1GJC5rMQ_3std2rt10lang_startuE0INtNtNtCs9f3LFPSIp77_4core3ops8function6FnOnceuE9call_once6vtableCsaeKFZAPEead_18build_script_build, symObjAddr: 0x124, symBinAddr: 0x1000046E0, symSize: 0x28 }
  - { offset: 0x6D4, size: 0x8, addend: 0x0, symName: __RNvYFEuINtNtNtCs9f3LFPSIp77_4core3ops8function6FnOnceuE9call_onceCsaeKFZAPEead_18build_script_build, symObjAddr: 0x15C, symBinAddr: 0x100004718, symSize: 0x20 }
  - { offset: 0x714, size: 0x8, addend: 0x0, symName: __RNvYNCINvNtCs27l1GJC5rMQ_3std2rt10lang_startuE0INtNtNtCs9f3LFPSIp77_4core3ops8function6FnOnceuE9call_onceCsaeKFZAPEead_18build_script_build, symObjAddr: 0x17C, symBinAddr: 0x100004738, symSize: 0x4C }
  - { offset: 0x8B4, size: 0x8, addend: 0x0, symName: __RINvMs0_NtCs9f3LFPSIp77_4core3fmtNtB6_9Arguments9new_constKj1_ECsaeKFZAPEead_18build_script_build, symObjAddr: 0x0, symBinAddr: 0x1000045BC, symSize: 0x48 }
  - { offset: 0x916, size: 0x8, addend: 0x0, symName: __RNvCsaeKFZAPEead_18build_script_build4main, symObjAddr: 0x1C8, symBinAddr: 0x100004784, symSize: 0xCC }
  - { offset: 0x97C, size: 0x8, addend: 0x0, symName: __RINvMsx_NtNtCs9f3LFPSIp77_4core3str7patternNtB6_14TwoWaySearcher4nextNtB6_14RejectAndMatchECsfOaLretUh6D_13version_check, symObjAddr: 0x0, symBinAddr: 0x10000489C, symSize: 0x4FC }
  - { offset: 0x1E1A, size: 0x8, addend: 0x0, symName: __RNvXs0_NtNtCs9f3LFPSIp77_4core3str7patternNtB5_12CharSearcherNtB5_15ReverseSearcher15next_match_backCsfOaLretUh6D_13version_check, symObjAddr: 0xF00, symBinAddr: 0x10000579C, symSize: 0x3DC }
  - { offset: 0x242F, size: 0x8, addend: 0x0, symName: __RNvXst_NtNtCs9f3LFPSIp77_4core3str7patternReNtB5_7Pattern12is_prefix_ofCsfOaLretUh6D_13version_check, symObjAddr: 0x23B8, symBinAddr: 0x100006C54, symSize: 0x4C }
  - { offset: 0x246C, size: 0x8, addend: 0x0, symName: __RNvXst_NtNtCs9f3LFPSIp77_4core3str7patternReNtB5_7Pattern12is_suffix_ofCsfOaLretUh6D_13version_check, symObjAddr: 0x2404, symBinAddr: 0x100006CA0, symSize: 0x4C }
  - { offset: 0x24A9, size: 0x8, addend: 0x0, symName: __RNvXst_NtNtCs9f3LFPSIp77_4core3str7patternReNtB5_7Pattern13into_searcherCsfOaLretUh6D_13version_check, symObjAddr: 0x2450, symBinAddr: 0x100006CEC, symSize: 0x4C }
  - { offset: 0x2510, size: 0x8, addend: 0x0, symName: __RNvXst_NtNtCs9f3LFPSIp77_4core3str7patternReNtB5_7Pattern15is_contained_inCsfOaLretUh6D_13version_check, symObjAddr: 0x249C, symBinAddr: 0x100006D38, symSize: 0x1F8 }
  - { offset: 0x279D, size: 0x8, addend: 0x0, symName: __RNvXst_NtNtCs9f3LFPSIp77_4core3str7patternReNtB5_7Pattern15strip_suffix_ofCsfOaLretUh6D_13version_check, symObjAddr: 0x2694, symBinAddr: 0x100006F30, symSize: 0xE0 }
  - { offset: 0x28DC, size: 0x8, addend: 0x0, symName: __RNvXs2_NtNtCs9f3LFPSIp77_4core3str7patterncNtB5_7Pattern12is_suffix_ofCsfOaLretUh6D_13version_check, symObjAddr: 0x12DC, symBinAddr: 0x100005B78, symSize: 0x78 }
  - { offset: 0x2983, size: 0x8, addend: 0x0, symName: __RNvXs2_NtNtCs9f3LFPSIp77_4core3str7patterncNtB5_7Pattern13into_searcherCsfOaLretUh6D_13version_check, symObjAddr: 0x1354, symBinAddr: 0x100005BF0, symSize: 0x114 }
  - { offset: 0x2A9F, size: 0x8, addend: 0x0, symName: __RNvXs7_NtNtCs9f3LFPSIp77_4core3str7patternINtB5_18MultiCharEqPatternNCNvMB7_e10trim_start0ENtB5_7Pattern13into_searcherCsfOaLretUh6D_13version_check, symObjAddr: 0x1468, symBinAddr: 0x100005D04, symSize: 0x90 }
  - { offset: 0x2AFB, size: 0x8, addend: 0x0, symName: __RNvXs7_NtNtCs9f3LFPSIp77_4core3str7patternINtB5_18MultiCharEqPatternNCNvMB7_e4trim0ENtB5_7Pattern13into_searcherCsfOaLretUh6D_13version_check, symObjAddr: 0x14F8, symBinAddr: 0x100005D94, symSize: 0x90 }
  - { offset: 0x2B57, size: 0x8, addend: 0x0, symName: __RNvXs7_NtNtCs9f3LFPSIp77_4core3str7patternINtB5_18MultiCharEqPatternNCNvMB7_e8trim_end0ENtB5_7Pattern13into_searcherCsfOaLretUh6D_13version_check, symObjAddr: 0x1588, symBinAddr: 0x100005E24, symSize: 0x90 }
  - { offset: 0x2BB9, size: 0x8, addend: 0x0, symName: __RNvXs8_NtNtCs9f3LFPSIp77_4core3str7patternINtB5_19MultiCharEqSearcherNCNvMB7_e10trim_start0ENtB5_8Searcher4nextCsfOaLretUh6D_13version_check, symObjAddr: 0x1618, symBinAddr: 0x100005EB4, symSize: 0x1B0 }
  - { offset: 0x2DD0, size: 0x8, addend: 0x0, symName: __RNvXs8_NtNtCs9f3LFPSIp77_4core3str7patternINtB5_19MultiCharEqSearcherNCNvMB7_e4trim0ENtB5_8Searcher4nextCsfOaLretUh6D_13version_check, symObjAddr: 0x17C8, symBinAddr: 0x100006064, symSize: 0x1B0 }
  - { offset: 0x2FED, size: 0x8, addend: 0x0, symName: __RNvXs9_NtNtCs9f3LFPSIp77_4core3str7patternINtB5_19MultiCharEqSearcherNCNvMB7_e4trim0ENtB5_15ReverseSearcher9next_backCsfOaLretUh6D_13version_check, symObjAddr: 0x1978, symBinAddr: 0x100006214, symSize: 0x1B0 }
  - { offset: 0x3204, size: 0x8, addend: 0x0, symName: __RNvXs9_NtNtCs9f3LFPSIp77_4core3str7patternINtB5_19MultiCharEqSearcherNCNvMB7_e8trim_end0ENtB5_15ReverseSearcher9next_backCsfOaLretUh6D_13version_check, symObjAddr: 0x1B28, symBinAddr: 0x1000063C4, symSize: 0x1B0 }
  - { offset: 0x3421, size: 0x8, addend: 0x0, symName: __RNvXs_NtNtCs9f3LFPSIp77_4core3str7patternNtB4_12CharSearcherNtB4_8Searcher10next_matchCsfOaLretUh6D_13version_check, symObjAddr: 0x1CD8, symBinAddr: 0x100006574, symSize: 0x3CC }
  - { offset: 0x3999, size: 0x8, addend: 0x0, symName: __RNvXs_NtNtCs9f3LFPSIp77_4core3str7patternNtB4_12CharSearcherNtB4_8Searcher4nextCsfOaLretUh6D_13version_check, symObjAddr: 0x20A4, symBinAddr: 0x100006940, symSize: 0x264 }
  - { offset: 0x3E1A, size: 0x8, addend: 0x0, symName: __RNvXs_NtNtCs9f3LFPSIp77_4core3str7patternNtB4_12CharSearcherNtB4_8Searcher8haystackCsfOaLretUh6D_13version_check, symObjAddr: 0x2308, symBinAddr: 0x100006BA4, symSize: 0x20 }
  - { offset: 0x3E4E, size: 0x8, addend: 0x0, symName: __RNvXso_NtNtCs9f3LFPSIp77_4core3str7patternINtB5_21CharPredicateSearcherNCNvMB7_e10trim_start0ENtB5_8Searcher11next_rejectCsfOaLretUh6D_13version_check, symObjAddr: 0x2328, symBinAddr: 0x100006BC4, symSize: 0x24 }
  - { offset: 0x3E85, size: 0x8, addend: 0x0, symName: __RNvXso_NtNtCs9f3LFPSIp77_4core3str7patternINtB5_21CharPredicateSearcherNCNvMB7_e4trim0ENtB5_8Searcher11next_rejectCsfOaLretUh6D_13version_check, symObjAddr: 0x234C, symBinAddr: 0x100006BE8, symSize: 0x24 }
  - { offset: 0x3EC2, size: 0x8, addend: 0x0, symName: __RNvXsp_NtNtCs9f3LFPSIp77_4core3str7patternINtB5_21CharPredicateSearcherNCNvMB7_e4trim0ENtB5_15ReverseSearcher16next_reject_backCsfOaLretUh6D_13version_check, symObjAddr: 0x2370, symBinAddr: 0x100006C0C, symSize: 0x24 }
  - { offset: 0x3EF9, size: 0x8, addend: 0x0, symName: __RNvXsp_NtNtCs9f3LFPSIp77_4core3str7patternINtB5_21CharPredicateSearcherNCNvMB7_e8trim_end0ENtB5_15ReverseSearcher16next_reject_backCsfOaLretUh6D_13version_check, symObjAddr: 0x2394, symBinAddr: 0x100006C30, symSize: 0x24 }
  - { offset: 0x4004, size: 0x8, addend: 0x0, symName: __RNvXsv_NtNtCs9f3LFPSIp77_4core3str7patternNtB5_11StrSearcherNtB5_8Searcher10next_matchCsfOaLretUh6D_13version_check, symObjAddr: 0x2774, symBinAddr: 0x100007010, symSize: 0x148 }
  - { offset: 0x408F, size: 0x8, addend: 0x0, symName: __RNvXsv_NtNtCs9f3LFPSIp77_4core3str7patternNtB5_11StrSearcherNtB5_8Searcher4nextCsfOaLretUh6D_13version_check, symObjAddr: 0x28BC, symBinAddr: 0x100007158, symSize: 0x44C }
  - { offset: 0x4531, size: 0x8, addend: 0x0, symName: __RNvXsv_NtNtCs9f3LFPSIp77_4core3str7patternNtB5_11StrSearcherNtB5_8Searcher8haystackCsfOaLretUh6D_13version_check, symObjAddr: 0x2D08, symBinAddr: 0x1000075A4, symSize: 0x20 }
  - { offset: 0x4565, size: 0x8, addend: 0x0, symName: __RNvXsw_NtNtCs9f3LFPSIp77_4core3str7patternNtB5_11StrSearcherNtB5_15ReverseSearcher9next_backCsfOaLretUh6D_13version_check, symObjAddr: 0x2D28, symBinAddr: 0x1000075C4, symSize: 0x434 }
  - { offset: 0x49ED, size: 0x8, addend: 0x0, symName: __RNvXsy_NtNtCs9f3LFPSIp77_4core3str7patternNtB5_9MatchOnlyNtB5_14TwoWayStrategy16use_early_rejectCsfOaLretUh6D_13version_check, symObjAddr: 0x315C, symBinAddr: 0x1000079F8, symSize: 0xC }
  - { offset: 0x4A0B, size: 0x8, addend: 0x0, symName: __RNvXsy_NtNtCs9f3LFPSIp77_4core3str7patternNtB5_9MatchOnlyNtB5_14TwoWayStrategy8matchingCsfOaLretUh6D_13version_check, symObjAddr: 0x3168, symBinAddr: 0x100007A04, symSize: 0x28 }
  - { offset: 0x4A48, size: 0x8, addend: 0x0, symName: __RNvXsy_NtNtCs9f3LFPSIp77_4core3str7patternNtB5_9MatchOnlyNtB5_14TwoWayStrategy9rejectingCsfOaLretUh6D_13version_check, symObjAddr: 0x3190, symBinAddr: 0x100007A2C, symSize: 0x18 }
  - { offset: 0x4A8B, size: 0x8, addend: 0x0, symName: __RNvXsz_NtNtCs9f3LFPSIp77_4core3str7patternNtB5_14RejectAndMatchNtB5_14TwoWayStrategy16use_early_rejectCsfOaLretUh6D_13version_check, symObjAddr: 0x31A8, symBinAddr: 0x100007A44, symSize: 0xC }
  - { offset: 0x4AA9, size: 0x8, addend: 0x0, symName: __RNvXsz_NtNtCs9f3LFPSIp77_4core3str7patternNtB5_14RejectAndMatchNtB5_14TwoWayStrategy8matchingCsfOaLretUh6D_13version_check, symObjAddr: 0x31B4, symBinAddr: 0x100007A50, symSize: 0x20 }
  - { offset: 0x4AE6, size: 0x8, addend: 0x0, symName: __RNvXsz_NtNtCs9f3LFPSIp77_4core3str7patternNtB5_14RejectAndMatchNtB5_14TwoWayStrategy9rejectingCsfOaLretUh6D_13version_check, symObjAddr: 0x31D4, symBinAddr: 0x100007A70, symSize: 0x28 }
  - { offset: 0x4B29, size: 0x8, addend: 0x0, symName: __RNvYINtNtNtCs9f3LFPSIp77_4core3str7pattern19MultiCharEqSearcherNCNvMB7_e10trim_start0ENtB5_8Searcher11next_rejectCsfOaLretUh6D_13version_check, symObjAddr: 0x31FC, symBinAddr: 0x100007A98, symSize: 0x90 }
  - { offset: 0x4B8A, size: 0x8, addend: 0x0, symName: __RNvYINtNtNtCs9f3LFPSIp77_4core3str7pattern19MultiCharEqSearcherNCNvMB7_e4trim0ENtB5_8Searcher11next_rejectCsfOaLretUh6D_13version_check, symObjAddr: 0x331C, symBinAddr: 0x100007BB8, symSize: 0x90 }
  - { offset: 0x4BEB, size: 0x8, addend: 0x0, symName: __RNvYNtNtNtCs9f3LFPSIp77_4core3str7pattern11StrSearcherNtB4_8Searcher11next_rejectCsfOaLretUh6D_13version_check, symObjAddr: 0x34CC, symBinAddr: 0x100007D68, symSize: 0x90 }
  - { offset: 0x4C4C, size: 0x8, addend: 0x0, symName: __RNvYNtNtNtCs9f3LFPSIp77_4core3str7pattern12CharSearcherNtB4_8Searcher11next_rejectCsfOaLretUh6D_13version_check, symObjAddr: 0x355C, symBinAddr: 0x100007DF8, symSize: 0x90 }
  - { offset: 0x4CB3, size: 0x8, addend: 0x0, symName: __RNvYINtNtNtCs9f3LFPSIp77_4core3str7pattern19MultiCharEqSearcherNCNvMB7_e4trim0ENtB5_15ReverseSearcher16next_reject_backCsfOaLretUh6D_13version_check, symObjAddr: 0x328C, symBinAddr: 0x100007B28, symSize: 0x90 }
  - { offset: 0x4D18, size: 0x8, addend: 0x0, symName: __RNvYINtNtNtCs9f3LFPSIp77_4core3str7pattern19MultiCharEqSearcherNCNvMB7_e8trim_end0ENtB5_15ReverseSearcher16next_reject_backCsfOaLretUh6D_13version_check, symObjAddr: 0x33AC, symBinAddr: 0x100007C48, symSize: 0x90 }
  - { offset: 0x4D7D, size: 0x8, addend: 0x0, symName: __RNvYNtNtNtCs9f3LFPSIp77_4core3str7pattern11StrSearcherNtB4_15ReverseSearcher16next_reject_backCsfOaLretUh6D_13version_check, symObjAddr: 0x343C, symBinAddr: 0x100007CD8, symSize: 0x90 }
  - { offset: 0x61A1, size: 0x8, addend: 0x0, symName: __RINvMsx_NtNtCs9f3LFPSIp77_4core3str7patternNtB6_14TwoWaySearcher4nextNtB6_14RejectAndMatchECsfOaLretUh6D_13version_check, symObjAddr: 0x0, symBinAddr: 0x10000489C, symSize: 0x4FC }
  - { offset: 0x6542, size: 0x8, addend: 0x0, symName: __RINvMsx_NtNtCs9f3LFPSIp77_4core3str7patternNtB6_14TwoWaySearcher4nextNtB6_9MatchOnlyECsfOaLretUh6D_13version_check, symObjAddr: 0x4FC, symBinAddr: 0x100004D98, symSize: 0x4FC }
  - { offset: 0x68C5, size: 0x8, addend: 0x0, symName: __RINvMsx_NtNtCs9f3LFPSIp77_4core3str7patternNtB6_14TwoWaySearcher9next_backNtB6_14RejectAndMatchECsfOaLretUh6D_13version_check, symObjAddr: 0x9F8, symBinAddr: 0x100005294, symSize: 0x508 }
  - { offset: 0x710E, size: 0x8, addend: 0x0, symName: __RINvMNtCs9f3LFPSIp77_4core3stre11starts_withReECsfOaLretUh6D_13version_check, symObjAddr: 0x0, symBinAddr: 0x100007E88, symSize: 0x4C }
  - { offset: 0x7B9F, size: 0x8, addend: 0x0, symName: __RINvMNtCs9f3LFPSIp77_4core3stre11starts_withReECsfOaLretUh6D_13version_check, symObjAddr: 0x0, symBinAddr: 0x100007E88, symSize: 0x4C }
  - { offset: 0x7C19, size: 0x8, addend: 0x0, symName: __RINvMNtCs9f3LFPSIp77_4core3stre12trim_matchesNCNvB2_4trim0ECsfOaLretUh6D_13version_check, symObjAddr: 0x4C, symBinAddr: 0x100007ED4, symSize: 0x128 }
  - { offset: 0x7DEA, size: 0x8, addend: 0x0, symName: __RINvMNtCs9f3LFPSIp77_4core3stre16trim_end_matchesNCNvB2_8trim_end0ECsfOaLretUh6D_13version_check, symObjAddr: 0x174, symBinAddr: 0x100007FFC, symSize: 0xD4 }
  - { offset: 0x7F52, size: 0x8, addend: 0x0, symName: __RINvMNtCs9f3LFPSIp77_4core3stre16trim_end_matchesReECsfOaLretUh6D_13version_check, symObjAddr: 0x248, symBinAddr: 0x1000080D0, symSize: 0xF8 }
  - { offset: 0x8087, size: 0x8, addend: 0x0, symName: __RINvMNtCs9f3LFPSIp77_4core3stre17trim_left_matchesReECsfOaLretUh6D_13version_check, symObjAddr: 0x340, symBinAddr: 0x1000081C8, symSize: 0x34 }
  - { offset: 0x80CD, size: 0x8, addend: 0x0, symName: __RINvMNtCs9f3LFPSIp77_4core3stre17trim_left_matchescECsfOaLretUh6D_13version_check, symObjAddr: 0x374, symBinAddr: 0x1000081FC, symSize: 0x2C }
  - { offset: 0x8113, size: 0x8, addend: 0x0, symName: __RINvMNtCs9f3LFPSIp77_4core3stre18trim_right_matchesReECsfOaLretUh6D_13version_check, symObjAddr: 0x3A0, symBinAddr: 0x100008228, symSize: 0x34 }
  - { offset: 0x81A9, size: 0x8, addend: 0x0, symName: __RINvMNtCs9f3LFPSIp77_4core3stre18trim_start_matchesNCNvB2_10trim_start0ECsfOaLretUh6D_13version_check, symObjAddr: 0x3D4, symBinAddr: 0x10000825C, symSize: 0xD8 }
  - { offset: 0x8389, size: 0x8, addend: 0x0, symName: __RINvMNtCs9f3LFPSIp77_4core3stre18trim_start_matchesReECsfOaLretUh6D_13version_check, symObjAddr: 0x4AC, symBinAddr: 0x100008334, symSize: 0xFC }
  - { offset: 0x856D, size: 0x8, addend: 0x0, symName: __RINvMNtCs9f3LFPSIp77_4core3stre18trim_start_matchescECsfOaLretUh6D_13version_check, symObjAddr: 0x5A8, symBinAddr: 0x100008430, symSize: 0xEC }
  - { offset: 0x86FD, size: 0x8, addend: 0x0, symName: __RINvMNtCs9f3LFPSIp77_4core3stre5parsetECsfOaLretUh6D_13version_check, symObjAddr: 0x694, symBinAddr: 0x10000851C, symSize: 0x38 }
  - { offset: 0x8734, size: 0x8, addend: 0x0, symName: __RINvMNtCs9f3LFPSIp77_4core3stre5splitReECsfOaLretUh6D_13version_check, symObjAddr: 0x6CC, symBinAddr: 0x100008554, symSize: 0xA4 }
  - { offset: 0x877A, size: 0x8, addend: 0x0, symName: __RINvMNtCs9f3LFPSIp77_4core3stre5splitcECsfOaLretUh6D_13version_check, symObjAddr: 0x770, symBinAddr: 0x1000085F8, symSize: 0x98 }
  - { offset: 0x87F3, size: 0x8, addend: 0x0, symName: __RINvMNtCs9f3LFPSIp77_4core3stre6splitnReECsfOaLretUh6D_13version_check, symObjAddr: 0x808, symBinAddr: 0x100008690, symSize: 0xD0 }
  - { offset: 0x886E, size: 0x8, addend: 0x0, symName: __RINvMNtCs9f3LFPSIp77_4core3stre8containsReECsfOaLretUh6D_13version_check, symObjAddr: 0x8D8, symBinAddr: 0x100008760, symSize: 0x4C }
  - { offset: 0x88B4, size: 0x8, addend: 0x0, symName: __RINvMNtCs9f3LFPSIp77_4core3stre9ends_withReECsfOaLretUh6D_13version_check, symObjAddr: 0x924, symBinAddr: 0x1000087AC, symSize: 0x4C }
  - { offset: 0x88FA, size: 0x8, addend: 0x0, symName: __RINvMNtCs9f3LFPSIp77_4core3stre9ends_withcECsfOaLretUh6D_13version_check, symObjAddr: 0x970, symBinAddr: 0x1000087F8, symSize: 0x44 }
  - { offset: 0x8945, size: 0x8, addend: 0x0, symName: __RNCNvMNtCs9f3LFPSIp77_4core3stre10trim_start0CsfOaLretUh6D_13version_check, symObjAddr: 0x143C, symBinAddr: 0x1000092C4, symSize: 0x94 }
  - { offset: 0x89B7, size: 0x8, addend: 0x0, symName: __RNCNvMNtCs9f3LFPSIp77_4core3stre4trim0CsfOaLretUh6D_13version_check, symObjAddr: 0x14D0, symBinAddr: 0x100009358, symSize: 0x94 }
  - { offset: 0x8A29, size: 0x8, addend: 0x0, symName: __RNCNvMNtCs9f3LFPSIp77_4core3stre8trim_end0CsfOaLretUh6D_13version_check, symObjAddr: 0x1564, symBinAddr: 0x1000093EC, symSize: 0x94 }
  - { offset: 0x8AB4, size: 0x8, addend: 0x0, symName: __RNvMNtCs9f3LFPSIp77_4core3stre10trim_rightCsfOaLretUh6D_13version_check, symObjAddr: 0x15F8, symBinAddr: 0x100009480, symSize: 0x28 }
  - { offset: 0x8B00, size: 0x8, addend: 0x0, symName: __RNvMNtCs9f3LFPSIp77_4core3stre3lenCsfOaLretUh6D_13version_check, symObjAddr: 0x1620, symBinAddr: 0x1000094A8, symSize: 0x1C }
  - { offset: 0x8B2C, size: 0x8, addend: 0x0, symName: __RNvMNtCs9f3LFPSIp77_4core3stre4trimCsfOaLretUh6D_13version_check, symObjAddr: 0x163C, symBinAddr: 0x1000094C4, symSize: 0x28 }
  - { offset: 0x8B78, size: 0x8, addend: 0x0, symName: __RNvMNtCs9f3LFPSIp77_4core3stre5charsCsfOaLretUh6D_13version_check, symObjAddr: 0x1664, symBinAddr: 0x1000094EC, symSize: 0x38 }
  - { offset: 0x8CDC, size: 0x8, addend: 0x0, symName: __RNvMNtCs9f3LFPSIp77_4core3stre5linesCsfOaLretUh6D_13version_check, symObjAddr: 0x169C, symBinAddr: 0x100009524, symSize: 0xC4 }
  - { offset: 0x8D9C, size: 0x8, addend: 0x0, symName: __RNvMNtCs9f3LFPSIp77_4core3stre9trim_leftCsfOaLretUh6D_13version_check, symObjAddr: 0x1760, symBinAddr: 0x1000095E8, symSize: 0x28 }
  - { offset: 0x94AF, size: 0x8, addend: 0x0, symName: __RNvXs1i_NtNtCs9f3LFPSIp77_4core3str4iterINtB6_6SplitNReENtNtNtNtBa_4iter6traits8iterator8Iterator4nextCsfOaLretUh6D_13version_check, symObjAddr: 0x25B4, symBinAddr: 0x10000A43C, symSize: 0x24 }
  - { offset: 0x954C, size: 0x8, addend: 0x0, symName: __RNvXs3_NtNtCs9f3LFPSIp77_4core3str4iterNtB5_11CharIndicesNtNtNtNtB9_4iter6traits8iterator8Iterator4nextCsfOaLretUh6D_13version_check, symObjAddr: 0x2788, symBinAddr: 0x10000A610, symSize: 0x194 }
  - { offset: 0x9880, size: 0x8, addend: 0x0, symName: __RNvXs4_NtNtCs9f3LFPSIp77_4core3str4iterNtB5_11CharIndicesNtNtNtNtB9_4iter6traits12double_ended19DoubleEndedIterator9next_backCsfOaLretUh6D_13version_check, symObjAddr: 0x29D0, symBinAddr: 0x10000A858, symSize: 0x170 }
  - { offset: 0x9A52, size: 0x8, addend: 0x0, symName: __RNvXsH_NtNtCs9f3LFPSIp77_4core3str4iterINtB5_14SplitInclusivecENtNtNtNtB9_4iter6traits8iterator8Iterator4nextCsfOaLretUh6D_13version_check, symObjAddr: 0x2B40, symBinAddr: 0x10000A9C8, symSize: 0x24 }
  - { offset: 0x9A8F, size: 0x8, addend: 0x0, symName: __RNvXsK_NtNtCs9f3LFPSIp77_4core3str4iterINtB5_14SplitInclusivecENtNtNtNtB9_4iter6traits12double_ended19DoubleEndedIterator9next_backCsfOaLretUh6D_13version_check, symObjAddr: 0x2B64, symBinAddr: 0x10000A9EC, symSize: 0x24 }
  - { offset: 0x9ACC, size: 0x8, addend: 0x0, symName: __RNvXsX_NtNtCs9f3LFPSIp77_4core3str4iterINtB5_5SplitReENtNtNtNtB9_4iter6traits8iterator8Iterator4nextCsfOaLretUh6D_13version_check, symObjAddr: 0x2B88, symBinAddr: 0x10000AA10, symSize: 0x24 }
  - { offset: 0x9B03, size: 0x8, addend: 0x0, symName: __RNvXsX_NtNtCs9f3LFPSIp77_4core3str4iterINtB5_5SplitcENtNtNtNtB9_4iter6traits8iterator8Iterator4nextCsfOaLretUh6D_13version_check, symObjAddr: 0x2BAC, symBinAddr: 0x10000AA34, symSize: 0x24 }
  - { offset: 0x9B79, size: 0x8, addend: 0x0, symName: __RNvXss_NtNtCs9f3LFPSIp77_4core3str4iterNtB5_5LinesNtNtNtNtB9_4iter6traits8iterator8Iterator4lastCsfOaLretUh6D_13version_check, symObjAddr: 0x2CD8, symBinAddr: 0x10000AB60, symSize: 0x20 }
  - { offset: 0x9BC6, size: 0x8, addend: 0x0, symName: __RNvXss_NtNtCs9f3LFPSIp77_4core3str4iterNtB5_5LinesNtNtNtNtB9_4iter6traits8iterator8Iterator4nextCsfOaLretUh6D_13version_check, symObjAddr: 0x2CF8, symBinAddr: 0x10000AB80, symSize: 0x24 }
  - { offset: 0x9DF7, size: 0x8, addend: 0x0, symName: __RNvXs3_NtNtCs9f3LFPSIp77_4core3str7patternNCNvMB7_e10trim_start0NtB5_11MultiCharEq7matchesCsfOaLretUh6D_13version_check, symObjAddr: 0x291C, symBinAddr: 0x10000A7A4, symSize: 0x28 }
  - { offset: 0x9E3D, size: 0x8, addend: 0x0, symName: __RNvXs3_NtNtCs9f3LFPSIp77_4core3str7patternNCNvMB7_e4trim0NtB5_11MultiCharEq7matchesCsfOaLretUh6D_13version_check, symObjAddr: 0x2944, symBinAddr: 0x10000A7CC, symSize: 0x28 }
  - { offset: 0x9E83, size: 0x8, addend: 0x0, symName: __RNvXs3_NtNtCs9f3LFPSIp77_4core3str7patternNCNvMB7_e8trim_end0NtB5_11MultiCharEq7matchesCsfOaLretUh6D_13version_check, symObjAddr: 0x296C, symBinAddr: 0x10000A7F4, symSize: 0x28 }
  - { offset: 0x9ECF, size: 0x8, addend: 0x0, symName: __RNvXsr_NtNtCs9f3LFPSIp77_4core3str7patternNCNvMB7_e10trim_start0NtB5_7Pattern13into_searcherCsfOaLretUh6D_13version_check, symObjAddr: 0x2C00, symBinAddr: 0x10000AA88, symSize: 0x48 }
  - { offset: 0x9F15, size: 0x8, addend: 0x0, symName: __RNvXsr_NtNtCs9f3LFPSIp77_4core3str7patternNCNvMB7_e4trim0NtB5_7Pattern13into_searcherCsfOaLretUh6D_13version_check, symObjAddr: 0x2C48, symBinAddr: 0x10000AAD0, symSize: 0x48 }
  - { offset: 0x9F5B, size: 0x8, addend: 0x0, symName: __RNvXsr_NtNtCs9f3LFPSIp77_4core3str7patternNCNvMB7_e8trim_end0NtB5_7Pattern13into_searcherCsfOaLretUh6D_13version_check, symObjAddr: 0x2C90, symBinAddr: 0x10000AB18, symSize: 0x48 }
  - { offset: 0xA0AC, size: 0x8, addend: 0x0, symName: __RNvXs3_NtCs9f3LFPSIp77_4core3strNtB5_8LinesMapINtNtNtB7_3ops8function2FnTReEE4callCsfOaLretUh6D_13version_check, symObjAddr: 0x260C, symBinAddr: 0x10000A494, symSize: 0x17C }
  - { offset: 0xA1D5, size: 0x8, addend: 0x0, symName: __RNvXs4_NtCs9f3LFPSIp77_4core3strNtB5_8LinesMapINtNtNtB7_3ops8function5FnMutTReEE8call_mutCsfOaLretUh6D_13version_check, symObjAddr: 0x2994, symBinAddr: 0x10000A81C, symSize: 0x3C }
  - { offset: 0xA500, size: 0x8, addend: 0x0, symName: __RNvXs2_NtNtNtCs9f3LFPSIp77_4core3ops8function5implsQNtNtBb_3str8LinesMapINtB7_6FnOnceTReEE9call_onceCsfOaLretUh6D_13version_check, symObjAddr: 0x25D8, symBinAddr: 0x10000A460, symSize: 0x34 }
  - { offset: 0xB2AF, size: 0x8, addend: 0x0, symName: __RINvYINtNtNtCs9f3LFPSIp77_4core3str4iter5SplitReENtNtNtNtBa_4iter6traits8iterator8Iterator4findQNCNvCsfOaLretUh6D_13version_check35version_and_date_from_rustc_version0EB1A_, symObjAddr: 0xE94, symBinAddr: 0x100008D1C, symSize: 0x90 }
  - { offset: 0xB32A, size: 0x8, addend: 0x0, symName: __RINvYINtNtNtCs9f3LFPSIp77_4core3str4iter5SplitReENtNtNtNtBa_4iter6traits8iterator8Iterator6filterNCNvCsfOaLretUh6D_13version_check35version_and_date_from_rustc_version0EB1B_, symObjAddr: 0xF24, symBinAddr: 0x100008DAC, symSize: 0x30 }
  - { offset: 0xB3A0, size: 0x8, addend: 0x0, symName: __RINvYINtNtNtCs9f3LFPSIp77_4core3str4iter5SplitReENtNtNtNtBa_4iter6traits8iterator8Iterator8try_folduNCINvNvBL_4find5checkBI_QNCNvCsfOaLretUh6D_13version_check35version_and_date_from_rustc_version0E0INtNtNtBa_3ops12control_flow11ControlFlowBI_EEB23_, symObjAddr: 0xF54, symBinAddr: 0x100008DDC, symSize: 0x198 }
  - { offset: 0xB45D, size: 0x8, addend: 0x0, symName: __RINvYINtNtNtCs9f3LFPSIp77_4core3str4iter5SplitcENtNtNtNtBa_4iter6traits8iterator8Iterator3anyNCNvCsfOaLretUh6D_13version_check16supports_features3_0EB1x_, symObjAddr: 0x10EC, symBinAddr: 0x100008F74, symSize: 0x44 }
  - { offset: 0xB4AC, size: 0x8, addend: 0x0, symName: __RINvYINtNtNtCs9f3LFPSIp77_4core3str4iter5SplitcENtNtNtNtBa_4iter6traits8iterator8Iterator3mapINtNtBa_6result6ResulttNtNtNtBa_3num5error13ParseIntErrorENCNvMNtCsfOaLretUh6D_13version_check4dateNtB2u_4Date5parse0EB2w_, symObjAddr: 0x1130, symBinAddr: 0x100008FB8, symSize: 0x30 }
  - { offset: 0xB52B, size: 0x8, addend: 0x0, symName: __RINvYINtNtNtCs9f3LFPSIp77_4core3str4iter5SplitcENtNtNtNtBa_4iter6traits8iterator8Iterator3mapINtNtBa_6result6ResulttNtNtNtBa_3num5error13ParseIntErrorENCNvMNtCsfOaLretUh6D_13version_check7versionNtB2u_7Version5parse0EB2w_, symObjAddr: 0x1160, symBinAddr: 0x100008FE8, symSize: 0x30 }
  - { offset: 0xB5AA, size: 0x8, addend: 0x0, symName: __RINvYINtNtNtCs9f3LFPSIp77_4core3str4iter5SplitcENtNtNtNtBa_4iter6traits8iterator8Iterator3mapReNCNvCsfOaLretUh6D_13version_check16supports_features0_0EB1z_, symObjAddr: 0x1190, symBinAddr: 0x100009018, symSize: 0x30 }
  - { offset: 0xB629, size: 0x8, addend: 0x0, symName: __RINvYINtNtNtCs9f3LFPSIp77_4core3str4iter5SplitcENtNtNtNtBa_4iter6traits8iterator8Iterator4foldINtNtBa_6option6OptionReENCINvNtNtBQ_8adapters3map8map_foldB1Q_B1Q_B1u_NCNvCsfOaLretUh6D_13version_check16supports_features0_0NCINvNtB20_6filter11filter_foldB1Q_B1u_NCB2F_s1_0NCIB1W_B1Q_B1Q_B1u_NCB2F_s2_0INvNvBK_4last4someB1Q_EE0E0E0EB2H_, symObjAddr: 0x11C0, symBinAddr: 0x100009048, symSize: 0x130 }
  - { offset: 0xB6BF, size: 0x8, addend: 0x0, symName: __RINvYINtNtNtCs9f3LFPSIp77_4core3str4iter5SplitcENtNtNtNtBa_4iter6traits8iterator8Iterator8try_folduNCINvNvBK_3any5checkReNCNvCsfOaLretUh6D_13version_check16supports_features3_0E0INtNtNtBa_3ops12control_flow11ControlFlowuEEB1Z_, symObjAddr: 0x12F0, symBinAddr: 0x100009178, symSize: 0x14C }
  - { offset: 0xB7BC, size: 0x8, addend: 0x0, symName: __RNvYINtNtNtCs9f3LFPSIp77_4core3str4iter5SplitReENtNtNtNtB9_4iter6traits8iterator8Iterator10advance_byCsfOaLretUh6D_13version_check, symObjAddr: 0x2D1C, symBinAddr: 0x10000ABA4, symSize: 0x138 }
  - { offset: 0xB910, size: 0x8, addend: 0x0, symName: __RNvYINtNtNtCs9f3LFPSIp77_4core3str4iter5SplitReENtNtNtNtB9_4iter6traits8iterator8Iterator3nthCsfOaLretUh6D_13version_check, symObjAddr: 0x2E54, symBinAddr: 0x10000ACDC, symSize: 0x88 }
  - { offset: 0xB9E3, size: 0x8, addend: 0x0, symName: __RNvYINtNtNtCs9f3LFPSIp77_4core3str4iter5SplitcENtNtNtNtB9_4iter6traits8iterator8Iterator10advance_byCsfOaLretUh6D_13version_check, symObjAddr: 0x2EDC, symBinAddr: 0x10000AD64, symSize: 0x138 }
  - { offset: 0xBB37, size: 0x8, addend: 0x0, symName: __RNvYINtNtNtCs9f3LFPSIp77_4core3str4iter5SplitcENtNtNtNtB9_4iter6traits8iterator8Iterator3nthCsfOaLretUh6D_13version_check, symObjAddr: 0x3014, symBinAddr: 0x10000AE9C, symSize: 0x88 }
  - { offset: 0xBC0A, size: 0x8, addend: 0x0, symName: __RNvYINtNtNtCs9f3LFPSIp77_4core3str4iter6SplitNReENtNtNtNtB9_4iter6traits8iterator8Iterator10advance_byCsfOaLretUh6D_13version_check, symObjAddr: 0x309C, symBinAddr: 0x10000AF24, symSize: 0x138 }
  - { offset: 0xBD5E, size: 0x8, addend: 0x0, symName: __RNvYINtNtNtCs9f3LFPSIp77_4core3str4iter6SplitNReENtNtNtNtB9_4iter6traits8iterator8Iterator3nthCsfOaLretUh6D_13version_check, symObjAddr: 0x31D4, symBinAddr: 0x10000B05C, symSize: 0x88 }
  - { offset: 0xBE7B, size: 0x8, addend: 0x0, symName: __RNvXs_NtNtNtCs9f3LFPSIp77_4core4iter6traits7collectNtNtNtBa_3str4iter5LinesNtB4_12IntoIterator9into_iterCsfOaLretUh6D_13version_check, symObjAddr: 0x2BD0, symBinAddr: 0x10000AA58, symSize: 0x30 }
  - { offset: 0xD4BC, size: 0x8, addend: 0x0, symName: __RINvMsh_NtNtNtCsdze8u8oDPro_5alloc11collections5btree4nodeINtB6_7NodeRefNtNtB6_6marker5DyingNtNtNtCs27l1GJC5rMQ_3std3ffi6os_str8OsStringINtNtCs9f3LFPSIp77_4core6option6OptionB1s_ENtB1a_14LeafOrInternalE21deallocate_and_ascendNtNtBc_5alloc6GlobalECsfOaLretUh6D_13version_check, symObjAddr: 0x9B4, symBinAddr: 0x10000883C, symSize: 0x178 }
  - { offset: 0xD7A3, size: 0x8, addend: 0x0, symName: __RINvMsj_NtNtNtCsdze8u8oDPro_5alloc11collections5btree8navigateINtNtB8_4node6HandleINtB11_7NodeRefNtNtB11_6marker5DyingNtNtNtCs27l1GJC5rMQ_3std3ffi6os_str8OsStringINtNtCs9f3LFPSIp77_4core6option6OptionB1S_ENtB1z_4LeafENtB1z_4EdgeE16deallocating_endNtNtBc_5alloc6GlobalECsfOaLretUh6D_13version_check, symObjAddr: 0xB2C, symBinAddr: 0x1000089B4, symSize: 0xF4 }
  - { offset: 0xDB20, size: 0x8, addend: 0x0, symName: __RINvMsj_NtNtNtCsdze8u8oDPro_5alloc11collections5btree8navigateINtNtB8_4node6HandleINtB11_7NodeRefNtNtB11_6marker5DyingNtNtNtCs27l1GJC5rMQ_3std3ffi6os_str8OsStringINtNtCs9f3LFPSIp77_4core6option6OptionB1S_ENtB1z_4LeafENtB1z_4EdgeE17deallocating_nextNtNtBc_5alloc6GlobalECsfOaLretUh6D_13version_check, symObjAddr: 0xC20, symBinAddr: 0x100008AA8, symSize: 0x274 }
  - { offset: 0xE0B1, size: 0x8, addend: 0x0, symName: __RNvMsO_NtNtNtCsdze8u8oDPro_5alloc11collections5btree4nodeINtB5_6HandleINtB5_7NodeRefNtNtB5_6marker5DyingNtNtNtCs27l1GJC5rMQ_3std3ffi6os_str8OsStringINtNtCs9f3LFPSIp77_4core6option6OptionB1E_ENtB1m_8InternalENtB1m_4EdgeE7descendCsfOaLretUh6D_13version_check, symObjAddr: 0x1788, symBinAddr: 0x100009610, symSize: 0xA0 }
  - { offset: 0xE3DA, size: 0x8, addend: 0x0, symName: __RNvMsT_NtNtNtCsdze8u8oDPro_5alloc11collections5btree4nodeINtB5_6HandleINtB5_7NodeRefNtNtB5_6marker5DyingNtNtNtCs27l1GJC5rMQ_3std3ffi6os_str8OsStringINtNtCs9f3LFPSIp77_4core6option6OptionB1E_ENtB1m_14LeafOrInternalENtB1m_2KVE12drop_key_valCsfOaLretUh6D_13version_check, symObjAddr: 0x1828, symBinAddr: 0x1000096B0, symSize: 0x120 }
  - { offset: 0xE750, size: 0x8, addend: 0x0, symName: __RNvMse_NtNtNtCsdze8u8oDPro_5alloc11collections5btree4nodeINtB5_7NodeRefNtNtB5_6marker5DyingNtNtNtCs27l1GJC5rMQ_3std3ffi6os_str8OsStringINtNtCs9f3LFPSIp77_4core6option6OptionB1r_ENtB19_14LeafOrInternalE6ascendCsfOaLretUh6D_13version_check, symObjAddr: 0x1948, symBinAddr: 0x1000097D0, symSize: 0x18C }
  - { offset: 0xE8D5, size: 0x8, addend: 0x0, symName: __RNvMsf_NtNtCs9f3LFPSIp77_4core3str4iterINtB5_13SplitInternalReE4nextCsfOaLretUh6D_13version_check, symObjAddr: 0x1AD4, symBinAddr: 0x10000995C, symSize: 0x134 }
  - { offset: 0xEA11, size: 0x8, addend: 0x0, symName: __RNvMsf_NtNtCs9f3LFPSIp77_4core3str4iterINtB5_13SplitInternalReE7get_endCsfOaLretUh6D_13version_check, symObjAddr: 0x1C08, symBinAddr: 0x100009A90, symSize: 0x11C }
  - { offset: 0xEB1C, size: 0x8, addend: 0x0, symName: __RNvMsf_NtNtCs9f3LFPSIp77_4core3str4iterINtB5_13SplitInternalcE14next_inclusiveCsfOaLretUh6D_13version_check, symObjAddr: 0x1D24, symBinAddr: 0x100009BAC, symSize: 0x128 }
  - { offset: 0xEC47, size: 0x8, addend: 0x0, symName: __RNvMsf_NtNtCs9f3LFPSIp77_4core3str4iterINtB5_13SplitInternalcE19next_back_inclusiveCsfOaLretUh6D_13version_check, symObjAddr: 0x1E4C, symBinAddr: 0x100009CD4, symSize: 0x24C }
  - { offset: 0xEE60, size: 0x8, addend: 0x0, symName: __RNvMsf_NtNtCs9f3LFPSIp77_4core3str4iterINtB5_13SplitInternalcE4nextCsfOaLretUh6D_13version_check, symObjAddr: 0x2098, symBinAddr: 0x100009F20, symSize: 0x138 }
  - { offset: 0xEF9C, size: 0x8, addend: 0x0, symName: __RNvMsf_NtNtCs9f3LFPSIp77_4core3str4iterINtB5_13SplitInternalcE7get_endCsfOaLretUh6D_13version_check, symObjAddr: 0x21D0, symBinAddr: 0x10000A058, symSize: 0x120 }
  - { offset: 0xF0A7, size: 0x8, addend: 0x0, symName: __RNvMsl_NtNtCs9f3LFPSIp77_4core3str4iterINtB5_14SplitNInternalReE4nextCsfOaLretUh6D_13version_check, symObjAddr: 0x22F0, symBinAddr: 0x10000A178, symSize: 0xA4 }
  - { offset: 0xF331, size: 0x8, addend: 0x0, symName: __RNvMsp_NtNtNtCsdze8u8oDPro_5alloc11collections5btree8navigateINtNtB7_4node6HandleINtB10_7NodeRefNtNtB10_6marker5DyingNtNtNtCs27l1GJC5rMQ_3std3ffi6os_str8OsStringINtNtCs9f3LFPSIp77_4core6option6OptionB1R_ENtB1y_14LeafOrInternalENtB1y_2KVE14next_leaf_edgeCsfOaLretUh6D_13version_check, symObjAddr: 0x2394, symBinAddr: 0x10000A21C, symSize: 0x220 }
  - { offset: 0xFA68, size: 0x8, addend: 0x0, symName: __RINvMsb_NtNtNtCsdze8u8oDPro_5alloc11collections5btree8navigateINtB6_13LazyLeafRangeNtNtNtB8_4node6marker5DyingNtNtNtCs27l1GJC5rMQ_3std3ffi6os_str8OsStringINtNtCs9f3LFPSIp77_4core6option6OptionB1K_EE16deallocating_endNtNtBc_5alloc6GlobalECsfOaLretUh6D_13version_check, symObjAddr: 0x0, symBinAddr: 0x10000B0E4, symSize: 0xA8 }
  - { offset: 0xFACF, size: 0x8, addend: 0x0, symName: __RNvYNtNtNtNtNtCs27l1GJC5rMQ_3std3sys3pal4unix5stdio6StderrNtNtBc_2io5Write9write_allCsfOaLretUh6D_13version_check, symObjAddr: 0x3340, symBinAddr: 0x10000E424, symSize: 0x288 }
  - { offset: 0xFCC1, size: 0x8, addend: 0x0, symName: __RNvYNtNtNtNtNtCs27l1GJC5rMQ_3std3sys3pal4unix5stdio6StderrNtNtBc_2io5Write9write_fmtCsfOaLretUh6D_13version_check, symObjAddr: 0x35C8, symBinAddr: 0x10000E6AC, symSize: 0x128 }
  - { offset: 0x111D8, size: 0x8, addend: 0x0, symName: __RINvNtCs9f3LFPSIp77_4core3ptr13drop_in_placeDINtNtNtB4_3ops8function5FnMutuEp6OutputINtNtB4_6result6ResultuNtNtNtCs27l1GJC5rMQ_3std2io5error5ErrorENtNtB4_6marker4SendNtB2n_4SyncEL_ECsfOaLretUh6D_13version_check, symObjAddr: 0x600, symBinAddr: 0x10000B6E4, symSize: 0x48 }
  - { offset: 0x11207, size: 0x8, addend: 0x0, symName: __RINvNtCs9f3LFPSIp77_4core3ptr13drop_in_placeDNtNtB4_5error5ErrorNtNtB4_6marker4SendNtB12_4SyncEL_ECsfOaLretUh6D_13version_check, symObjAddr: 0x648, symBinAddr: 0x10000B72C, symSize: 0x48 }
  - { offset: 0x11236, size: 0x8, addend: 0x0, symName: __RINvNtCs9f3LFPSIp77_4core3ptr13drop_in_placeINtNtB4_6option6OptionINtNtCsdze8u8oDPro_5alloc5boxed3BoxSmEEECsfOaLretUh6D_13version_check, symObjAddr: 0x690, symBinAddr: 0x10000B774, symSize: 0x44 }
  - { offset: 0x11265, size: 0x8, addend: 0x0, symName: __RINvNtCs9f3LFPSIp77_4core3ptr13drop_in_placeINtNtB4_6option6OptionNtNtCsdze8u8oDPro_5alloc6string6StringEECsfOaLretUh6D_13version_check, symObjAddr: 0x6D4, symBinAddr: 0x10000B7B8, symSize: 0x48 }
  - { offset: 0x11294, size: 0x8, addend: 0x0, symName: __RINvNtCs9f3LFPSIp77_4core3ptr13drop_in_placeINtNtB4_6option6OptionNtNtNtCs27l1GJC5rMQ_3std3ffi6os_str8OsStringEECsfOaLretUh6D_13version_check, symObjAddr: 0x71C, symBinAddr: 0x10000B800, symSize: 0x48 }
  - { offset: 0x112C3, size: 0x8, addend: 0x0, symName: __RINvNtCs9f3LFPSIp77_4core3ptr13drop_in_placeINtNtB4_6option6OptionNtNtNtCsdze8u8oDPro_5alloc3ffi5c_str7CStringEECsfOaLretUh6D_13version_check, symObjAddr: 0x764, symBinAddr: 0x10000B848, symSize: 0x44 }
  - { offset: 0x112F2, size: 0x8, addend: 0x0, symName: __RINvNtCs9f3LFPSIp77_4core3ptr13drop_in_placeINtNtB4_6option6OptionNtNtNtNtNtNtCs27l1GJC5rMQ_3std3sys3pal4unix7process14process_common5StdioEECsfOaLretUh6D_13version_check, symObjAddr: 0x7A8, symBinAddr: 0x10000B88C, symSize: 0x44 }
  - { offset: 0x11321, size: 0x8, addend: 0x0, symName: __RINvNtCs9f3LFPSIp77_4core3ptr13drop_in_placeINtNtB4_6option6OptionTIBH_NtNtCsdze8u8oDPro_5alloc6string6StringEB13_EEECsfOaLretUh6D_13version_check, symObjAddr: 0x7EC, symBinAddr: 0x10000B8D0, symSize: 0x48 }
  - { offset: 0x11350, size: 0x8, addend: 0x0, symName: __RINvNtCs9f3LFPSIp77_4core3ptr13drop_in_placeINtNtB4_6option6OptionTNtNtNtCs27l1GJC5rMQ_3std3ffi6os_str8OsStringcEEECsfOaLretUh6D_13version_check, symObjAddr: 0x834, symBinAddr: 0x10000B918, symSize: 0x48 }
  - { offset: 0x1137F, size: 0x8, addend: 0x0, symName: __RINvNtCs9f3LFPSIp77_4core3ptr13drop_in_placeINtNtB4_6result6ResultNtNtCs27l1GJC5rMQ_3std7process6OutputNtNtNtB16_2io5error5ErrorEECsfOaLretUh6D_13version_check, symObjAddr: 0x87C, symBinAddr: 0x10000B960, symSize: 0x5C }
  - { offset: 0x113AE, size: 0x8, addend: 0x0, symName: __RINvNtCs9f3LFPSIp77_4core3ptr13drop_in_placeINtNtB4_6result6ResultNtNtCsdze8u8oDPro_5alloc6string6StringNtB14_13FromUtf8ErrorEECsfOaLretUh6D_13version_check, symObjAddr: 0x8D8, symBinAddr: 0x10000B9BC, symSize: 0x58 }
  - { offset: 0x113DD, size: 0x8, addend: 0x0, symName: __RINvNtCs9f3LFPSIp77_4core3ptr13drop_in_placeINtNtB4_6result6ResultuNtNtNtCs27l1GJC5rMQ_3std2io5error5ErrorEECsfOaLretUh6D_13version_check, symObjAddr: 0x930, symBinAddr: 0x10000BA14, symSize: 0x44 }
  - { offset: 0x1140C, size: 0x8, addend: 0x0, symName: __RINvNtCs9f3LFPSIp77_4core3ptr13drop_in_placeINtNtCsdze8u8oDPro_5alloc3vec3VecINtNtBL_5boxed3BoxDINtNtNtB4_3ops8function5FnMutuEp6OutputINtNtB4_6result6ResultuNtNtNtCs27l1GJC5rMQ_3std2io5error5ErrorENtNtB4_6marker4SendNtB3c_4SyncEL_EEECsfOaLretUh6D_13version_check, symObjAddr: 0x974, symBinAddr: 0x10000BA58, symSize: 0x5C }
  - { offset: 0x1143B, size: 0x8, addend: 0x0, symName: __RINvNtCs9f3LFPSIp77_4core3ptr13drop_in_placeINtNtCsdze8u8oDPro_5alloc3vec3VecNtNtNtBL_3ffi5c_str7CStringEECsfOaLretUh6D_13version_check, symObjAddr: 0x9D0, symBinAddr: 0x10000BAB4, symSize: 0x5C }
  - { offset: 0x1146A, size: 0x8, addend: 0x0, symName: __RINvNtCs9f3LFPSIp77_4core3ptr13drop_in_placeINtNtCsdze8u8oDPro_5alloc3vec3VecPaEECsfOaLretUh6D_13version_check, symObjAddr: 0xA2C, symBinAddr: 0x10000BB10, symSize: 0x5C }
  - { offset: 0x11499, size: 0x8, addend: 0x0, symName: __RINvNtCs9f3LFPSIp77_4core3ptr13drop_in_placeINtNtCsdze8u8oDPro_5alloc3vec3VechEECsfOaLretUh6D_13version_check, symObjAddr: 0xA88, symBinAddr: 0x10000BB6C, symSize: 0x5C }
  - { offset: 0x114C8, size: 0x8, addend: 0x0, symName: __RINvNtCs9f3LFPSIp77_4core3ptr13drop_in_placeINtNtCsdze8u8oDPro_5alloc5boxed3BoxDINtNtNtB4_3ops8function5FnMutuEp6OutputINtNtB4_6result6ResultuNtNtNtCs27l1GJC5rMQ_3std2io5error5ErrorENtNtB4_6marker4SendNtB2W_4SyncEL_EECsfOaLretUh6D_13version_check, symObjAddr: 0xAE4, symBinAddr: 0x10000BBC8, symSize: 0x80 }
  - { offset: 0x114F7, size: 0x8, addend: 0x0, symName: __RINvNtCs9f3LFPSIp77_4core3ptr13drop_in_placeINtNtCsdze8u8oDPro_5alloc5boxed3BoxDNtNtB4_5error5ErrorNtNtB4_6marker4SendNtB1B_4SyncEL_EECsfOaLretUh6D_13version_check, symObjAddr: 0xB64, symBinAddr: 0x10000BC48, symSize: 0x80 }
  - { offset: 0x11526, size: 0x8, addend: 0x0, symName: __RINvNtCs9f3LFPSIp77_4core3ptr13drop_in_placeINtNtCsdze8u8oDPro_5alloc5boxed3BoxNtNtNtCs27l1GJC5rMQ_3std2io5error6CustomEECsfOaLretUh6D_13version_check, symObjAddr: 0xBE4, symBinAddr: 0x10000BCC8, symSize: 0x60 }
  - { offset: 0x11555, size: 0x8, addend: 0x0, symName: __RINvNtCs9f3LFPSIp77_4core3ptr13drop_in_placeINtNtCsdze8u8oDPro_5alloc5boxed3BoxShEECsfOaLretUh6D_13version_check, symObjAddr: 0xC44, symBinAddr: 0x10000BD28, symSize: 0x2C }
  - { offset: 0x11584, size: 0x8, addend: 0x0, symName: __RINvNtCs9f3LFPSIp77_4core3ptr13drop_in_placeINtNtCsdze8u8oDPro_5alloc5boxed3BoxSmEECsfOaLretUh6D_13version_check, symObjAddr: 0xC70, symBinAddr: 0x10000BD54, symSize: 0x2C }
  - { offset: 0x115B3, size: 0x8, addend: 0x0, symName: __RINvNtCs9f3LFPSIp77_4core3ptr13drop_in_placeINtNtCsdze8u8oDPro_5alloc6borrow3CoweEECsfOaLretUh6D_13version_check, symObjAddr: 0xC9C, symBinAddr: 0x10000BD80, symSize: 0x48 }
  - { offset: 0x115E2, size: 0x8, addend: 0x0, symName: __RINvNtCs9f3LFPSIp77_4core3ptr13drop_in_placeINtNtCsdze8u8oDPro_5alloc7raw_vec6RawVecINtNtBL_5boxed3BoxDINtNtNtB4_3ops8function5FnMutuEp6OutputINtNtB4_6result6ResultuNtNtNtCs27l1GJC5rMQ_3std2io5error5ErrorENtNtB4_6marker4SendNtB3j_4SyncEL_EEECsfOaLretUh6D_13version_check, symObjAddr: 0xCE4, symBinAddr: 0x10000BDC8, symSize: 0x24 }
  - { offset: 0x11611, size: 0x8, addend: 0x0, symName: __RINvNtCs9f3LFPSIp77_4core3ptr13drop_in_placeINtNtCsdze8u8oDPro_5alloc7raw_vec6RawVecNtNtNtBL_3ffi5c_str7CStringEECsfOaLretUh6D_13version_check, symObjAddr: 0xD08, symBinAddr: 0x10000BDEC, symSize: 0x24 }
  - { offset: 0x11640, size: 0x8, addend: 0x0, symName: __RINvNtCs9f3LFPSIp77_4core3ptr13drop_in_placeINtNtCsdze8u8oDPro_5alloc7raw_vec6RawVecPaEECsfOaLretUh6D_13version_check, symObjAddr: 0xD2C, symBinAddr: 0x10000BE10, symSize: 0x24 }
  - { offset: 0x1166F, size: 0x8, addend: 0x0, symName: __RINvNtCs9f3LFPSIp77_4core3ptr13drop_in_placeINtNtCsdze8u8oDPro_5alloc7raw_vec6RawVechEECsfOaLretUh6D_13version_check, symObjAddr: 0xD50, symBinAddr: 0x10000BE34, symSize: 0x24 }
  - { offset: 0x1169E, size: 0x8, addend: 0x0, symName: __RINvNtCs9f3LFPSIp77_4core3ptr13drop_in_placeINtNtNtCs27l1GJC5rMQ_3std2io5error9ErrorDataINtNtCsdze8u8oDPro_5alloc5boxed3BoxNtBJ_6CustomEEECsfOaLretUh6D_13version_check, symObjAddr: 0xD74, symBinAddr: 0x10000BE58, symSize: 0x48 }
  - { offset: 0x116CD, size: 0x8, addend: 0x0, symName: __RINvNtCs9f3LFPSIp77_4core3ptr13drop_in_placeINtNtNtNtCsdze8u8oDPro_5alloc11collections5btree3map8BTreeMapNtNtNtCs27l1GJC5rMQ_3std3ffi6os_str8OsStringINtNtB4_6option6OptionB1F_EEECsfOaLretUh6D_13version_check, symObjAddr: 0xDBC, symBinAddr: 0x10000BEA0, symSize: 0x24 }
  - { offset: 0x116FC, size: 0x8, addend: 0x0, symName: __RINvNtCs9f3LFPSIp77_4core3ptr13drop_in_placeINtNtNtNtCsdze8u8oDPro_5alloc11collections5btree3map8IntoIterNtNtNtCs27l1GJC5rMQ_3std3ffi6os_str8OsStringINtNtB4_6option6OptionB1F_EEECsfOaLretUh6D_13version_check, symObjAddr: 0xDE0, symBinAddr: 0x10000BEC4, symSize: 0x24 }
  - { offset: 0x1172B, size: 0x8, addend: 0x0, symName: __RINvNtCs9f3LFPSIp77_4core3ptr13drop_in_placeINtNvNtNtCs27l1GJC5rMQ_3std2io5Write9write_fmt7AdapterNtNtNtNtNtBP_3sys3pal4unix5stdio6StderrEECsfOaLretUh6D_13version_check, symObjAddr: 0xE04, symBinAddr: 0x10000BEE8, symSize: 0x24 }
  - { offset: 0x1175A, size: 0x8, addend: 0x0, symName: __RINvNtCs9f3LFPSIp77_4core3ptr13drop_in_placeINtNvXsw_NtNtNtCsdze8u8oDPro_5alloc11collections5btree3mapINtBP_8IntoIterpppENtNtNtB4_3ops4drop4Drop4drop9DropGuardNtNtNtCs27l1GJC5rMQ_3std3ffi6os_str8OsStringINtNtB4_6option6OptionB2x_ENtNtBV_5alloc6GlobalEECsfOaLretUh6D_13version_check, symObjAddr: 0xE28, symBinAddr: 0x10000BF0C, symSize: 0x24 }
  - { offset: 0x11789, size: 0x8, addend: 0x0, symName: __RINvNtCs9f3LFPSIp77_4core3ptr13drop_in_placeNtNtCs27l1GJC5rMQ_3std3env8VarErrorECsfOaLretUh6D_13version_check, symObjAddr: 0xE4C, symBinAddr: 0x10000BF30, symSize: 0x48 }
  - { offset: 0x117B8, size: 0x8, addend: 0x0, symName: __RINvNtCs9f3LFPSIp77_4core3ptr13drop_in_placeNtNtCs27l1GJC5rMQ_3std7process6OutputECsfOaLretUh6D_13version_check, symObjAddr: 0xE94, symBinAddr: 0x10000BF78, symSize: 0x60 }
  - { offset: 0x117E7, size: 0x8, addend: 0x0, symName: __RINvNtCs9f3LFPSIp77_4core3ptr13drop_in_placeNtNtCs27l1GJC5rMQ_3std7process7CommandECsfOaLretUh6D_13version_check, symObjAddr: 0xEF4, symBinAddr: 0x10000BFD8, symSize: 0x24 }
  - { offset: 0x11816, size: 0x8, addend: 0x0, symName: __RINvNtCs9f3LFPSIp77_4core3ptr13drop_in_placeNtNtCsdze8u8oDPro_5alloc6string13FromUtf8ErrorECsfOaLretUh6D_13version_check, symObjAddr: 0xF18, symBinAddr: 0x10000BFFC, symSize: 0x24 }
  - { offset: 0x11845, size: 0x8, addend: 0x0, symName: __RINvNtCs9f3LFPSIp77_4core3ptr13drop_in_placeNtNtCsdze8u8oDPro_5alloc6string6StringECsfOaLretUh6D_13version_check, symObjAddr: 0xF3C, symBinAddr: 0x10000C020, symSize: 0x24 }
  - { offset: 0x11874, size: 0x8, addend: 0x0, symName: __RINvNtCs9f3LFPSIp77_4core3ptr13drop_in_placeNtNtNtB4_3num5error15TryFromIntErrorECsfOaLretUh6D_13version_check, symObjAddr: 0xF60, symBinAddr: 0x10000C044, symSize: 0x10 }
  - { offset: 0x118A3, size: 0x8, addend: 0x0, symName: __RINvNtCs9f3LFPSIp77_4core3ptr13drop_in_placeNtNtNtCs27l1GJC5rMQ_3std10sys_common7process10CommandEnvECsfOaLretUh6D_13version_check, symObjAddr: 0xF70, symBinAddr: 0x10000C054, symSize: 0x24 }
  - { offset: 0x118D2, size: 0x8, addend: 0x0, symName: __RINvNtCs9f3LFPSIp77_4core3ptr13drop_in_placeNtNtNtCs27l1GJC5rMQ_3std2io5error5ErrorECsfOaLretUh6D_13version_check, symObjAddr: 0xF94, symBinAddr: 0x10000C078, symSize: 0x24 }
  - { offset: 0x11901, size: 0x8, addend: 0x0, symName: __RINvNtCs9f3LFPSIp77_4core3ptr13drop_in_placeNtNtNtCs27l1GJC5rMQ_3std2io5error6CustomECsfOaLretUh6D_13version_check, symObjAddr: 0xFB8, symBinAddr: 0x10000C09C, symSize: 0x24 }
  - { offset: 0x11930, size: 0x8, addend: 0x0, symName: __RINvNtCs9f3LFPSIp77_4core3ptr13drop_in_placeNtNtNtCs27l1GJC5rMQ_3std3ffi6os_str8OsStringECsfOaLretUh6D_13version_check, symObjAddr: 0xFDC, symBinAddr: 0x10000C0C0, symSize: 0x24 }
  - { offset: 0x1195F, size: 0x8, addend: 0x0, symName: __RINvNtCs9f3LFPSIp77_4core3ptr13drop_in_placeNtNtNtCsdze8u8oDPro_5alloc3ffi5c_str7CStringECsfOaLretUh6D_13version_check, symObjAddr: 0x1000, symBinAddr: 0x10000C0E4, symSize: 0x5C }
  - { offset: 0x1198E, size: 0x8, addend: 0x0, symName: __RINvNtCs9f3LFPSIp77_4core3ptr13drop_in_placeNtNtNtNtCs27l1GJC5rMQ_3std2io5error14repr_bitpacked4ReprECsfOaLretUh6D_13version_check, symObjAddr: 0x105C, symBinAddr: 0x10000C140, symSize: 0x24 }
  - { offset: 0x119BD, size: 0x8, addend: 0x0, symName: __RINvNtCs9f3LFPSIp77_4core3ptr13drop_in_placeNtNtNtNtCs27l1GJC5rMQ_3std2os2fd5owned7OwnedFdECsfOaLretUh6D_13version_check, symObjAddr: 0x1080, symBinAddr: 0x10000C164, symSize: 0x24 }
  - { offset: 0x119EC, size: 0x8, addend: 0x0, symName: __RINvNtCs9f3LFPSIp77_4core3ptr13drop_in_placeNtNtNtNtCs27l1GJC5rMQ_3std3sys6os_str5bytes3BufECsfOaLretUh6D_13version_check, symObjAddr: 0x10A4, symBinAddr: 0x10000C188, symSize: 0x24 }
  - { offset: 0x11A1B, size: 0x8, addend: 0x0, symName: __RINvNtCs9f3LFPSIp77_4core3ptr13drop_in_placeNtNtNtNtNtCs27l1GJC5rMQ_3std3sys3pal4unix2fd8FileDescECsfOaLretUh6D_13version_check, symObjAddr: 0x10C8, symBinAddr: 0x10000C1AC, symSize: 0x24 }
  - { offset: 0x11A4A, size: 0x8, addend: 0x0, symName: __RINvNtCs9f3LFPSIp77_4core3ptr13drop_in_placeNtNtNtNtNtNtCs27l1GJC5rMQ_3std3sys3pal4unix7process14process_common4ArgvECsfOaLretUh6D_13version_check, symObjAddr: 0x10EC, symBinAddr: 0x10000C1D0, symSize: 0x24 }
  - { offset: 0x11A79, size: 0x8, addend: 0x0, symName: __RINvNtCs9f3LFPSIp77_4core3ptr13drop_in_placeNtNtNtNtNtNtCs27l1GJC5rMQ_3std3sys3pal4unix7process14process_common5StdioECsfOaLretUh6D_13version_check, symObjAddr: 0x1110, symBinAddr: 0x10000C1F4, symSize: 0x44 }
  - { offset: 0x11AA8, size: 0x8, addend: 0x0, symName: __RINvNtCs9f3LFPSIp77_4core3ptr13drop_in_placeNtNtNtNtNtNtCs27l1GJC5rMQ_3std3sys3pal4unix7process14process_common7CommandECsfOaLretUh6D_13version_check, symObjAddr: 0x1154, symBinAddr: 0x10000C238, symSize: 0x1DC }
  - { offset: 0x11AD7, size: 0x8, addend: 0x0, symName: __RINvNtCs9f3LFPSIp77_4core3ptr13drop_in_placeNtNvNtNtNtCsdze8u8oDPro_5alloc11collections5btree3mem7replace10PanicGuardECsfOaLretUh6D_13version_check, symObjAddr: 0x1330, symBinAddr: 0x10000C414, symSize: 0x24 }
  - { offset: 0x11B06, size: 0x8, addend: 0x0, symName: __RINvNtCs9f3LFPSIp77_4core3ptr13drop_in_placeRNtNtCsfOaLretUh6D_13version_check7channel4KindEBL_, symObjAddr: 0x1354, symBinAddr: 0x10000C438, symSize: 0x10 }
  - { offset: 0x11B35, size: 0x8, addend: 0x0, symName: __RINvNtCs9f3LFPSIp77_4core3ptr13drop_in_placeRmECsfOaLretUh6D_13version_check, symObjAddr: 0x1364, symBinAddr: 0x10000C448, symSize: 0x10 }
  - { offset: 0x11B64, size: 0x8, addend: 0x0, symName: __RINvNtCs9f3LFPSIp77_4core3ptr13drop_in_placeRtECsfOaLretUh6D_13version_check, symObjAddr: 0x1374, symBinAddr: 0x10000C458, symSize: 0x10 }
  - { offset: 0x11B93, size: 0x8, addend: 0x0, symName: __RINvNtCs9f3LFPSIp77_4core3ptr13drop_in_placeRuECsfOaLretUh6D_13version_check, symObjAddr: 0x1384, symBinAddr: 0x10000C468, symSize: 0x10 }
  - { offset: 0x11BC2, size: 0x8, addend: 0x0, symName: __RINvNtCs9f3LFPSIp77_4core3ptr13drop_in_placeSINtNtCsdze8u8oDPro_5alloc5boxed3BoxDINtNtNtB4_3ops8function5FnMutuEp6OutputINtNtB4_6result6ResultuNtNtNtCs27l1GJC5rMQ_3std2io5error5ErrorENtNtB4_6marker4SendNtB2X_4SyncEL_EECsfOaLretUh6D_13version_check, symObjAddr: 0x1394, symBinAddr: 0x10000C478, symSize: 0xB4 }
  - { offset: 0x11BF1, size: 0x8, addend: 0x0, symName: __RINvNtCs9f3LFPSIp77_4core3ptr13drop_in_placeSNtNtNtCsdze8u8oDPro_5alloc3ffi5c_str7CStringECsfOaLretUh6D_13version_check, symObjAddr: 0x1448, symBinAddr: 0x10000C52C, symSize: 0xB4 }
  - { offset: 0x11C20, size: 0x8, addend: 0x0, symName: __RINvNtCs9f3LFPSIp77_4core3ptr13drop_in_placeTINtNtB4_6option6OptionNtNtCsdze8u8oDPro_5alloc6string6StringEBH_EECsfOaLretUh6D_13version_check, symObjAddr: 0x14FC, symBinAddr: 0x10000C5E0, symSize: 0x60 }
  - { offset: 0x11C4F, size: 0x8, addend: 0x0, symName: __RINvNtCs9f3LFPSIp77_4core3ptr13drop_in_placeTNtNtNtCs27l1GJC5rMQ_3std3ffi6os_str8OsStringcEECsfOaLretUh6D_13version_check, symObjAddr: 0x155C, symBinAddr: 0x10000C640, symSize: 0x24 }
  - { offset: 0x11D60, size: 0x8, addend: 0x0, symName: __RNvNvMNtNtCs9f3LFPSIp77_4core3ptr9const_ptrPp7sub_ptr18precondition_checkCsfOaLretUh6D_13version_check, symObjAddr: 0x201C, symBinAddr: 0x10000D100, symSize: 0x40 }
  - { offset: 0x122B6, size: 0x8, addend: 0x0, symName: __RNvXsP_NtCs9f3LFPSIp77_4core3fmtRNtNtCsfOaLretUh6D_13version_check7channel4KindNtB5_5Debug3fmtBz_, symObjAddr: 0x2DCC, symBinAddr: 0x10000DEB0, symSize: 0x30 }
  - { offset: 0x12321, size: 0x8, addend: 0x0, symName: __RINvNtCs9f3LFPSIp77_4core3cmp6max_byNtNtCsfOaLretUh6D_13version_check4date4DateNvYBy_NtB2_3Ord3cmpEBC_, symObjAddr: 0x168, symBinAddr: 0x10000B24C, symSize: 0xC0 }
  - { offset: 0x1237F, size: 0x8, addend: 0x0, symName: __RINvNtCs9f3LFPSIp77_4core3cmp6max_byNtNtCsfOaLretUh6D_13version_check7version7VersionNvYBy_NtB2_3Ord3cmpEBC_, symObjAddr: 0x228, symBinAddr: 0x10000B30C, symSize: 0xC0 }
  - { offset: 0x123DD, size: 0x8, addend: 0x0, symName: __RINvNtCs9f3LFPSIp77_4core3cmp6max_byjNvYjNtB2_3Ord3cmpECsfOaLretUh6D_13version_check, symObjAddr: 0x2E8, symBinAddr: 0x10000B3CC, symSize: 0xC0 }
  - { offset: 0x1243B, size: 0x8, addend: 0x0, symName: __RINvNtCs9f3LFPSIp77_4core3cmp6min_byNtNtCsfOaLretUh6D_13version_check4date4DateNvYBy_NtB2_3Ord3cmpEBC_, symObjAddr: 0x3A8, symBinAddr: 0x10000B48C, symSize: 0xC8 }
  - { offset: 0x12499, size: 0x8, addend: 0x0, symName: __RINvNtCs9f3LFPSIp77_4core3cmp6min_byNtNtCsfOaLretUh6D_13version_check7version7VersionNvYBy_NtB2_3Ord3cmpEBC_, symObjAddr: 0x470, symBinAddr: 0x10000B554, symSize: 0xC8 }
  - { offset: 0x124F7, size: 0x8, addend: 0x0, symName: __RINvNtCs9f3LFPSIp77_4core3cmp6min_byjNvYjNtB2_3Ord3cmpECsfOaLretUh6D_13version_check, symObjAddr: 0x538, symBinAddr: 0x10000B61C, symSize: 0xC8 }
  - { offset: 0x1255F, size: 0x8, addend: 0x0, symName: __RNvXNtNtCs9f3LFPSIp77_4core3cmp5implsuNtB4_9PartialEq2eqCsfOaLretUh6D_13version_check, symObjAddr: 0x25E0, symBinAddr: 0x10000D6C4, symSize: 0x1C }
  - { offset: 0x125A2, size: 0x8, addend: 0x0, symName: __RNvXs10_NtNtCs9f3LFPSIp77_4core3cmp5implsmNtB8_10PartialOrd11partial_cmpCsfOaLretUh6D_13version_check, symObjAddr: 0x277C, symBinAddr: 0x10000D860, symSize: 0x40 }
  - { offset: 0x125E5, size: 0x8, addend: 0x0, symName: __RNvXs11_NtNtCs9f3LFPSIp77_4core3cmp5implsmNtB8_3Ord3cmpCsfOaLretUh6D_13version_check, symObjAddr: 0x27BC, symBinAddr: 0x10000D8A0, symSize: 0x38 }
  - { offset: 0x12628, size: 0x8, addend: 0x0, symName: __RNvXs12_NtNtCs9f3LFPSIp77_4core3cmp5implsyNtB8_10PartialOrd11partial_cmpCsfOaLretUh6D_13version_check, symObjAddr: 0x27F4, symBinAddr: 0x10000D8D8, symSize: 0x40 }
  - { offset: 0x1266B, size: 0x8, addend: 0x0, symName: __RNvXs13_NtNtCs9f3LFPSIp77_4core3cmp5implsyNtB8_3Ord3cmpCsfOaLretUh6D_13version_check, symObjAddr: 0x2834, symBinAddr: 0x10000D918, symSize: 0x38 }
  - { offset: 0x126AE, size: 0x8, addend: 0x0, symName: __RNvXs7_NtNtCs9f3LFPSIp77_4core3cmp5implsReNtB7_9PartialEq2eqCsfOaLretUh6D_13version_check, symObjAddr: 0x2C9C, symBinAddr: 0x10000DD80, symSize: 0x44 }
  - { offset: 0x1273F, size: 0x8, addend: 0x0, symName: __RNvXsV_NtNtCs9f3LFPSIp77_4core3cmp5implsjNtB7_3Ord3cmpCsfOaLretUh6D_13version_check, symObjAddr: 0x2DFC, symBinAddr: 0x10000DEE0, symSize: 0x38 }
  - { offset: 0x12783, size: 0x8, addend: 0x0, symName: __RNvYNtNtCsfOaLretUh6D_13version_check7channel4KindNtNtCs9f3LFPSIp77_4core3cmp9PartialEq2neB6_, symObjAddr: 0x3250, symBinAddr: 0x10000E334, symSize: 0x30 }
  - { offset: 0x127D2, size: 0x8, addend: 0x0, symName: __RNvYNtNtCsfOaLretUh6D_13version_check7channel7ChannelNtNtCs9f3LFPSIp77_4core3cmp9PartialEq2neB6_, symObjAddr: 0x32C8, symBinAddr: 0x10000E3AC, symSize: 0x30 }
  - { offset: 0x13729, size: 0x8, addend: 0x0, symName: __RINvNtCs9f3LFPSIp77_4core10intrinsics23is_val_statically_knownbECsfOaLretUh6D_13version_check, symObjAddr: 0x150, symBinAddr: 0x10000B234, symSize: 0x18 }
  - { offset: 0x13760, size: 0x8, addend: 0x0, symName: __RNvNtCs9f3LFPSIp77_4core10intrinsics8unlikelyCsfOaLretUh6D_13version_check, symObjAddr: 0x1EF8, symBinAddr: 0x10000CFDC, symSize: 0x10 }
  - { offset: 0x13793, size: 0x8, addend: 0x0, symName: __RNvNvNtCs9f3LFPSIp77_4core10intrinsics19copy_nonoverlapping18precondition_checkCsfOaLretUh6D_13version_check, symObjAddr: 0x2198, symBinAddr: 0x10000D27C, symSize: 0x1EC }
  - { offset: 0x13A38, size: 0x8, addend: 0x0, symName: __RINvNtNtCs9f3LFPSIp77_4core3str11validations15next_code_pointINtNtNtB6_5slice4iter4IterhEECsfOaLretUh6D_13version_check, symObjAddr: 0x1580, symBinAddr: 0x10000C664, symSize: 0x20C }
  - { offset: 0x13CF0, size: 0x8, addend: 0x0, symName: __RINvNtNtCs9f3LFPSIp77_4core3str11validations23next_code_point_reverseINtNtNtB6_5slice4iter4IterhEECsfOaLretUh6D_13version_check, symObjAddr: 0x178C, symBinAddr: 0x10000C870, symSize: 0x220 }
  - { offset: 0x140D8, size: 0x8, addend: 0x0, symName: __RNvXNtNtCs9f3LFPSIp77_4core3ops12control_flowINtB2_11ControlFlowReENtNtB4_9try_trait3Try11from_outputCsfOaLretUh6D_13version_check, symObjAddr: 0x25FC, symBinAddr: 0x10000D6E0, symSize: 0x18 }
  - { offset: 0x14116, size: 0x8, addend: 0x0, symName: __RNvXNtNtCs9f3LFPSIp77_4core3ops12control_flowINtB2_11ControlFlowReENtNtB4_9try_trait3Try6branchCsfOaLretUh6D_13version_check, symObjAddr: 0x2614, symBinAddr: 0x10000D6F8, symSize: 0x64 }
  - { offset: 0x1418E, size: 0x8, addend: 0x0, symName: __RNvXNtNtCs9f3LFPSIp77_4core3ops12control_flowINtB2_11ControlFlowuENtNtB4_9try_trait3Try11from_outputCsfOaLretUh6D_13version_check, symObjAddr: 0x2678, symBinAddr: 0x10000D75C, symSize: 0x18 }
  - { offset: 0x141CC, size: 0x8, addend: 0x0, symName: __RNvXNtNtCs9f3LFPSIp77_4core3ops12control_flowINtB2_11ControlFlowuENtNtB4_9try_trait3Try6branchCsfOaLretUh6D_13version_check, symObjAddr: 0x2690, symBinAddr: 0x10000D774, symSize: 0x38 }
  - { offset: 0x14248, size: 0x8, addend: 0x0, symName: __RNvXs7_NtNtCs9f3LFPSIp77_4core3ops12control_flowINtB5_11ControlFlowuENtNtB9_3cmp9PartialEq2eqCsfOaLretUh6D_13version_check, symObjAddr: 0x2CE0, symBinAddr: 0x10000DDC4, symSize: 0xEC }
  - { offset: 0x14367, size: 0x8, addend: 0x0, symName: __RNvXs_NtNtCs9f3LFPSIp77_4core3ops12control_flowINtB4_11ControlFlowReEINtNtB6_9try_trait12FromResidualIBK_B12_NtNtB8_7convert10InfallibleEE13from_residualCsfOaLretUh6D_13version_check, symObjAddr: 0x2E34, symBinAddr: 0x10000DF18, symSize: 0x34 }
  - { offset: 0x143C2, size: 0x8, addend: 0x0, symName: __RNvXs_NtNtCs9f3LFPSIp77_4core3ops12control_flowINtB4_11ControlFlowuEINtNtB6_9try_trait12FromResidualIBK_uNtNtB8_7convert10InfallibleEE13from_residualCsfOaLretUh6D_13version_check, symObjAddr: 0x2E68, symBinAddr: 0x10000DF4C, symSize: 0x1C }
  - { offset: 0x1470C, size: 0x8, addend: 0x0, symName: __RNvYINvNvNtNtNtNtCs9f3LFPSIp77_4core4iter6traits8iterator8Iterator4last4someReEINtNtNtBf_3ops8function5FnMutTINtNtBf_6option6OptionB1c_EB1c_EE8call_mutCsfOaLretUh6D_13version_check, symObjAddr: 0x3210, symBinAddr: 0x10000E2F4, symSize: 0x40 }
  - { offset: 0x14756, size: 0x8, addend: 0x0, symName: __RNvYNvYNtNtCsfOaLretUh6D_13version_check4date4DateNtNtCs9f3LFPSIp77_4core3cmp3Ord3cmpINtNtNtBQ_3ops8function6FnOnceTRB5_B1Q_EE9call_onceB9_, symObjAddr: 0x36F0, symBinAddr: 0x10000E7D4, symSize: 0x2C }
  - { offset: 0x1479A, size: 0x8, addend: 0x0, symName: __RNvYNvYNtNtCsfOaLretUh6D_13version_check7version7VersionNtNtCs9f3LFPSIp77_4core3cmp3Ord3cmpINtNtNtBW_3ops8function6FnOnceTRB5_B1W_EE9call_onceB9_, symObjAddr: 0x371C, symBinAddr: 0x10000E800, symSize: 0x2C }
  - { offset: 0x147DE, size: 0x8, addend: 0x0, symName: __RNvYNvYjNtNtCs9f3LFPSIp77_4core3cmp3Ord3cmpINtNtNtBa_3ops8function6FnOnceTRjB1a_EE9call_onceCsfOaLretUh6D_13version_check, symObjAddr: 0x3748, symBinAddr: 0x10000E82C, symSize: 0x2C }
  - { offset: 0x148C2, size: 0x8, addend: 0x0, symName: __RNvNtNtCs9f3LFPSIp77_4core5slice6memchr6memchrCsfOaLretUh6D_13version_check, symObjAddr: 0x1F08, symBinAddr: 0x10000CFEC, symSize: 0x114 }
  - { offset: 0x14937, size: 0x8, addend: 0x0, symName: __RNvNvXs0_NtNtCs9f3LFPSIp77_4core5slice5indexjINtB7_10SliceIndexSpE13get_unchecked18precondition_checkCsfOaLretUh6D_13version_check, symObjAddr: 0x2500, symBinAddr: 0x10000D5E4, symSize: 0x40 }
  - { offset: 0x14973, size: 0x8, addend: 0x0, symName: __RNvNvXs0_NtNtCs9f3LFPSIp77_4core5slice5indexjINtB7_10SliceIndexSpE17get_unchecked_mut18precondition_checkCsfOaLretUh6D_13version_check, symObjAddr: 0x2540, symBinAddr: 0x10000D624, symSize: 0x40 }
  - { offset: 0x149B5, size: 0x8, addend: 0x0, symName: __RNvNvXs2_NtNtCs9f3LFPSIp77_4core5slice5indexINtNtNtBb_3ops5range5RangejEINtB7_10SliceIndexSpE13get_unchecked18precondition_checkCsfOaLretUh6D_13version_check, symObjAddr: 0x2580, symBinAddr: 0x10000D664, symSize: 0x60 }
  - { offset: 0x14A8C, size: 0x8, addend: 0x0, symName: __RNvNvMNtNtCs9f3LFPSIp77_4core5alloc6layoutNtB4_6Layout25from_size_align_unchecked18precondition_checkCsfOaLretUh6D_13version_check, symObjAddr: 0x205C, symBinAddr: 0x10000D140, symSize: 0x50 }
  - { offset: 0x14BC4, size: 0x8, addend: 0x0, symName: __RNvNvMs3_NtCs9f3LFPSIp77_4core3numi13unchecked_neg18precondition_checkCsfOaLretUh6D_13version_check, symObjAddr: 0x20AC, symBinAddr: 0x10000D190, symSize: 0x4C }
  - { offset: 0x14C5B, size: 0x8, addend: 0x0, symName: __RNvNvMs9_NtCs9f3LFPSIp77_4core3numj13unchecked_add18precondition_checkCsfOaLretUh6D_13version_check, symObjAddr: 0x20F8, symBinAddr: 0x10000D1DC, symSize: 0x4C }
  - { offset: 0x14D02, size: 0x8, addend: 0x0, symName: __RNvNvMs9_NtCs9f3LFPSIp77_4core3numj13unchecked_sub18precondition_checkCsfOaLretUh6D_13version_check, symObjAddr: 0x2144, symBinAddr: 0x10000D228, symSize: 0x54 }
  - { offset: 0x14F08, size: 0x8, addend: 0x0, symName: __RNvNvNtCs9f3LFPSIp77_4core9ub_checks17is_nonoverlapping7runtimeCsfOaLretUh6D_13version_check, symObjAddr: 0x2384, symBinAddr: 0x10000D468, symSize: 0xE4 }
  - { offset: 0x150EF, size: 0x8, addend: 0x0, symName: __RNvNvNtNtCs9f3LFPSIp77_4core4char7convert18from_u32_unchecked18precondition_checkCsfOaLretUh6D_13version_check, symObjAddr: 0x2468, symBinAddr: 0x10000D54C, symSize: 0x98 }
  - { offset: 0x1517B, size: 0x8, addend: 0x0, symName: __RNvYNtNtCsfOaLretUh6D_13version_check7channel4KindNtNtCs9f3LFPSIp77_4core5clone5Clone10clone_fromB6_, symObjAddr: 0x3280, symBinAddr: 0x10000E364, symSize: 0x48 }
  - { offset: 0x151BA, size: 0x8, addend: 0x0, symName: __RNvYNtNtCsfOaLretUh6D_13version_check7channel7ChannelNtNtCs9f3LFPSIp77_4core5clone5Clone10clone_fromB6_, symObjAddr: 0x32F8, symBinAddr: 0x10000E3DC, symSize: 0x48 }
  - { offset: 0x1539D, size: 0x8, addend: 0x0, symName: __RNCNvMNtCsfOaLretUh6D_13version_check7channelNtB4_7Channel4read0B6_, symObjAddr: 0x37C0, symBinAddr: 0x10000E8A4, symSize: 0x44 }
  - { offset: 0x153D0, size: 0x8, addend: 0x0, symName: __RNCNvMNtCsfOaLretUh6D_13version_check7channelNtB4_7Channel4reads_0B6_, symObjAddr: 0x3804, symBinAddr: 0x10000E8E8, symSize: 0x84 }
  - { offset: 0x1541C, size: 0x8, addend: 0x0, symName: __RNvXs_NtCsfOaLretUh6D_13version_check7channelNtB4_7ChannelNtNtCs9f3LFPSIp77_4core3fmt7Display3fmt, symObjAddr: 0x3DA8, symBinAddr: 0x10000EE8C, symSize: 0xA4 }
  - { offset: 0x154BB, size: 0x8, addend: 0x0, symName: __RNvXs0_NtCsfOaLretUh6D_13version_check7channelNtB5_4KindNtNtCs9f3LFPSIp77_4core3fmt5Debug3fmtB7_, symObjAddr: 0x3E4C, symBinAddr: 0x10000EF30, symSize: 0xCC }
  - { offset: 0x154FB, size: 0x8, addend: 0x0, symName: __RNvXs2_NtCsfOaLretUh6D_13version_check7channelNtB5_4KindNtNtCs9f3LFPSIp77_4core3cmp9PartialEq2eqB7_, symObjAddr: 0x3F18, symBinAddr: 0x10000EFFC, symSize: 0x34 }
  - { offset: 0x15575, size: 0x8, addend: 0x0, symName: __RNvXs3_NtCsfOaLretUh6D_13version_check7channelNtB5_4KindNtNtCs9f3LFPSIp77_4core3cmp2Eq27assert_receiver_is_total_eqB7_, symObjAddr: 0x3F4C, symBinAddr: 0x10000F030, symSize: 0x10 }
  - { offset: 0x155A3, size: 0x8, addend: 0x0, symName: __RNvXs5_NtCsfOaLretUh6D_13version_check7channelNtB5_4KindNtNtCs9f3LFPSIp77_4core5clone5Clone5cloneB7_, symObjAddr: 0x3F5C, symBinAddr: 0x10000F040, symSize: 0x18 }
  - { offset: 0x155D5, size: 0x8, addend: 0x0, symName: __RNvXs6_NtCsfOaLretUh6D_13version_check7channelNtB5_7ChannelNtNtCs9f3LFPSIp77_4core3fmt5Debug3fmtB7_, symObjAddr: 0x3F74, symBinAddr: 0x10000F058, symSize: 0x54 }
  - { offset: 0x15615, size: 0x8, addend: 0x0, symName: __RNvXs8_NtCsfOaLretUh6D_13version_check7channelNtB5_7ChannelNtNtCs9f3LFPSIp77_4core3cmp9PartialEq2eqB7_, symObjAddr: 0x3FC8, symBinAddr: 0x10000F0AC, symSize: 0x2C }
  - { offset: 0x15655, size: 0x8, addend: 0x0, symName: __RNvXs9_NtCsfOaLretUh6D_13version_check7channelNtB5_7ChannelNtNtCs9f3LFPSIp77_4core3cmp2Eq27assert_receiver_is_total_eqB7_, symObjAddr: 0x3FF4, symBinAddr: 0x10000F0D8, symSize: 0x10 }
  - { offset: 0x15683, size: 0x8, addend: 0x0, symName: __RNvXsb_NtCsfOaLretUh6D_13version_check7channelNtB5_7ChannelNtNtCs9f3LFPSIp77_4core5clone5Clone5cloneB7_, symObjAddr: 0x4004, symBinAddr: 0x10000F0E8, symSize: 0x18 }
  - { offset: 0x158C2, size: 0x8, addend: 0x0, symName: __RNCINvMsm_NtNtNtCsdze8u8oDPro_5alloc11collections5btree8navigateINtNtBa_4node6HandleINtB13_7NodeRefNtNtB13_6marker5DyingNtNtNtCs27l1GJC5rMQ_3std3ffi6os_str8OsStringINtNtCs9f3LFPSIp77_4core6option6OptionB1U_ENtB1B_4LeafENtB1B_4EdgeE27deallocating_next_uncheckedNtNtBe_5alloc6GlobalE0CsfOaLretUh6D_13version_check, symObjAddr: 0x1A78, symBinAddr: 0x10000CB5C, symSize: 0x58 }
  - { offset: 0x15EDF, size: 0x8, addend: 0x0, symName: __RINvNtNtNtCsdze8u8oDPro_5alloc11collections5btree3mem7replaceINtNtB4_4node6HandleINtB10_7NodeRefNtNtB10_6marker5DyingNtNtNtCs27l1GJC5rMQ_3std3ffi6os_str8OsStringINtNtCs9f3LFPSIp77_4core6option6OptionB1R_ENtB1y_4LeafENtB1y_4EdgeEIBY_IB1i_B1w_B1R_B2z_NtB1y_14LeafOrInternalENtB1y_2KVENCINvMsm_NtB4_8navigateBX_27deallocating_next_uncheckedNtNtB8_5alloc6GlobalE0ECsfOaLretUh6D_13version_check, symObjAddr: 0x19AC, symBinAddr: 0x10000CA90, symSize: 0xCC }
  - { offset: 0x160B4, size: 0x8, addend: 0x0, symName: __RNvXNtNtNtCsdze8u8oDPro_5alloc11collections5btree3mapINtB2_8BTreeMapNtNtNtCs27l1GJC5rMQ_3std3ffi6os_str8OsStringINtNtCs9f3LFPSIp77_4core6option6OptionB14_EENtNtNtB1R_3ops4drop4Drop4dropCsfOaLretUh6D_13version_check, symObjAddr: 0x26C8, symBinAddr: 0x10000D7AC, symSize: 0x4C }
  - { offset: 0x16141, size: 0x8, addend: 0x0, symName: __RNvXNvXsw_NtNtNtCsdze8u8oDPro_5alloc11collections5btree3mapINtB8_8IntoIterpppENtNtNtCs9f3LFPSIp77_4core3ops4drop4Drop4dropINtB2_9DropGuardNtNtNtCs27l1GJC5rMQ_3std3ffi6os_str8OsStringINtNtB1k_6option6OptionB2c_ENtNtBe_5alloc6GlobalEB1e_4dropCsfOaLretUh6D_13version_check, symObjAddr: 0x2714, symBinAddr: 0x10000D7F8, symSize: 0x68 }
  - { offset: 0x161D6, size: 0x8, addend: 0x0, symName: __RNvXsw_NtNtNtCsdze8u8oDPro_5alloc11collections5btree3mapINtB5_8IntoIterNtNtNtCs27l1GJC5rMQ_3std3ffi6os_str8OsStringINtNtCs9f3LFPSIp77_4core6option6OptionB17_EENtNtNtB1U_3ops4drop4Drop4dropCsfOaLretUh6D_13version_check, symObjAddr: 0x3170, symBinAddr: 0x10000E254, symSize: 0xA0 }
  - { offset: 0x1624D, size: 0x8, addend: 0x0, symName: __RNvXsv_NtNtNtCsdze8u8oDPro_5alloc11collections5btree3mapINtB5_8BTreeMapNtNtNtCs27l1GJC5rMQ_3std3ffi6os_str8OsStringINtNtCs9f3LFPSIp77_4core6option6OptionB17_EENtNtNtNtB1U_4iter6traits7collect12IntoIterator9into_iterCsfOaLretUh6D_13version_check, symObjAddr: 0x2F60, symBinAddr: 0x10000E044, symSize: 0x210 }
  - { offset: 0x1651D, size: 0x8, addend: 0x0, symName: __RNvXsn_NtCsdze8u8oDPro_5alloc3vecINtB5_3VecINtNtB7_5boxed3BoxDINtNtNtCs9f3LFPSIp77_4core3ops8function5FnMutuEp6OutputINtNtB15_6result6ResultuNtNtNtCs27l1GJC5rMQ_3std2io5error5ErrorENtNtB15_6marker4SendNtB2V_4SyncEL_EENtNtB13_4drop4Drop4dropCsfOaLretUh6D_13version_check, symObjAddr: 0x2E84, symBinAddr: 0x10000DF68, symSize: 0x50 }
  - { offset: 0x1662A, size: 0x8, addend: 0x0, symName: __RNvXsn_NtCsdze8u8oDPro_5alloc3vecINtB5_3VecNtNtNtB7_3ffi5c_str7CStringENtNtNtCs9f3LFPSIp77_4core3ops4drop4Drop4dropCsfOaLretUh6D_13version_check, symObjAddr: 0x2ED4, symBinAddr: 0x10000DFB8, symSize: 0x50 }
  - { offset: 0x16737, size: 0x8, addend: 0x0, symName: __RNvXsn_NtCsdze8u8oDPro_5alloc3vecINtB5_3VecPaENtNtNtCs9f3LFPSIp77_4core3ops4drop4Drop4dropCsfOaLretUh6D_13version_check, symObjAddr: 0x2F24, symBinAddr: 0x10000E008, symSize: 0x3C }
  - { offset: 0x16B99, size: 0x8, addend: 0x0, symName: __RNvXs2_NtCsdze8u8oDPro_5alloc6borrowINtB5_3CoweENtNtNtCs9f3LFPSIp77_4core3ops5deref5Deref5derefCsfOaLretUh6D_13version_check, symObjAddr: 0x286C, symBinAddr: 0x10000D950, symSize: 0x80 }
  - { offset: 0x16C8C, size: 0x8, addend: 0x0, symName: __RNvXs6_NtCsdze8u8oDPro_5alloc5boxedINtB5_3BoxDINtNtNtCs9f3LFPSIp77_4core3ops8function5FnMutuEp6OutputINtNtBP_6result6ResultuNtNtNtCs27l1GJC5rMQ_3std2io5error5ErrorENtNtBP_6marker4SendNtB2E_4SyncEL_ENtNtBN_4drop4Drop4dropCsfOaLretUh6D_13version_check, symObjAddr: 0x28EC, symBinAddr: 0x10000D9D0, symSize: 0xC4 }
  - { offset: 0x16E0A, size: 0x8, addend: 0x0, symName: __RNvXs6_NtCsdze8u8oDPro_5alloc5boxedINtB5_3BoxDNtNtCs9f3LFPSIp77_4core5error5ErrorNtNtBM_6marker4SendNtB1j_4SyncEL_ENtNtNtBM_3ops4drop4Drop4dropCsfOaLretUh6D_13version_check, symObjAddr: 0x29B0, symBinAddr: 0x10000DA94, symSize: 0xC4 }
  - { offset: 0x16F88, size: 0x8, addend: 0x0, symName: __RNvXs6_NtCsdze8u8oDPro_5alloc5boxedINtB5_3BoxNtNtNtCs27l1GJC5rMQ_3std2io5error6CustomENtNtNtCs9f3LFPSIp77_4core3ops4drop4Drop4dropCsfOaLretUh6D_13version_check, symObjAddr: 0x2A74, symBinAddr: 0x10000DB58, symSize: 0xB0 }
  - { offset: 0x17106, size: 0x8, addend: 0x0, symName: __RNvXs6_NtCsdze8u8oDPro_5alloc5boxedINtB5_3BoxShENtNtNtCs9f3LFPSIp77_4core3ops4drop4Drop4dropCsfOaLretUh6D_13version_check, symObjAddr: 0x2B24, symBinAddr: 0x10000DC08, symSize: 0xBC }
  - { offset: 0x17284, size: 0x8, addend: 0x0, symName: __RNvXs6_NtCsdze8u8oDPro_5alloc5boxedINtB5_3BoxSmENtNtNtCs9f3LFPSIp77_4core3ops4drop4Drop4dropCsfOaLretUh6D_13version_check, symObjAddr: 0x2BE0, symBinAddr: 0x10000DCC4, symSize: 0xBC }
  - { offset: 0x17500, size: 0x8, addend: 0x0, symName: __RINvMsb_NtNtNtCsdze8u8oDPro_5alloc11collections5btree8navigateINtB6_13LazyLeafRangeNtNtNtB8_4node6marker5DyingNtNtNtCs27l1GJC5rMQ_3std3ffi6os_str8OsStringINtNtCs9f3LFPSIp77_4core6option6OptionB1K_EE16deallocating_endNtNtBc_5alloc6GlobalECsfOaLretUh6D_13version_check, symObjAddr: 0x0, symBinAddr: 0x10000B0E4, symSize: 0xA8 }
  - { offset: 0x175E6, size: 0x8, addend: 0x0, symName: __RINvMsb_NtNtNtCsdze8u8oDPro_5alloc11collections5btree8navigateINtB6_13LazyLeafRangeNtNtNtB8_4node6marker5DyingNtNtNtCs27l1GJC5rMQ_3std3ffi6os_str8OsStringINtNtCs9f3LFPSIp77_4core6option6OptionB1K_EE27deallocating_next_uncheckedNtNtBc_5alloc6GlobalECsfOaLretUh6D_13version_check, symObjAddr: 0xA8, symBinAddr: 0x10000B18C, symSize: 0xA8 }
  - { offset: 0x17947, size: 0x8, addend: 0x0, symName: __RNvMsb_NtNtNtCsdze8u8oDPro_5alloc11collections5btree8navigateINtB5_13LazyLeafRangeNtNtNtB7_4node6marker5DyingNtNtNtCs27l1GJC5rMQ_3std3ffi6os_str8OsStringINtNtCs9f3LFPSIp77_4core6option6OptionB1J_EE10take_frontCsfOaLretUh6D_13version_check, symObjAddr: 0x1AD0, symBinAddr: 0x10000CBB4, symSize: 0x1CC }
  - { offset: 0x17D26, size: 0x8, addend: 0x0, symName: __RNvMsc_NtNtNtCsdze8u8oDPro_5alloc11collections5btree8navigateINtB5_13LazyLeafRangeNtNtNtB7_4node6marker5DyingNtNtNtCs27l1GJC5rMQ_3std3ffi6os_str8OsStringINtNtCs9f3LFPSIp77_4core6option6OptionB1J_EE10init_frontCsfOaLretUh6D_13version_check, symObjAddr: 0x1C9C, symBinAddr: 0x10000CD80, symSize: 0x1CC }
  - { offset: 0x17EAC, size: 0x8, addend: 0x0, symName: __RNvMsx_NtNtNtCsdze8u8oDPro_5alloc11collections5btree3mapINtB5_8IntoIterNtNtNtCs27l1GJC5rMQ_3std3ffi6os_str8OsStringINtNtCs9f3LFPSIp77_4core6option6OptionB17_EE10dying_nextCsfOaLretUh6D_13version_check, symObjAddr: 0x1E68, symBinAddr: 0x10000CF4C, symSize: 0x90 }
  - { offset: 0x18C39, size: 0x8, addend: 0x0, symName: __RNvMNtCsfOaLretUh6D_13version_check7channelNtB2_7Channel4read, symObjAddr: 0x3774, symBinAddr: 0x10000E858, symSize: 0x4C }
  - { offset: 0x18C4C, size: 0x8, addend: 0x0, symName: __RNvMNtCsfOaLretUh6D_13version_check7channelNtB2_7Channel5parse, symObjAddr: 0x3888, symBinAddr: 0x10000E96C, symSize: 0x22C }
  - { offset: 0x18C90, size: 0x8, addend: 0x0, symName: __RNvMNtCsfOaLretUh6D_13version_check7channelNtB2_7Channel6as_str, symObjAddr: 0x3AB4, symBinAddr: 0x10000EB98, symSize: 0xFC }
  - { offset: 0x18CB2, size: 0x8, addend: 0x0, symName: __RNvMNtCsfOaLretUh6D_13version_check7channelNtB2_7Channel17supports_features, symObjAddr: 0x3BB0, symBinAddr: 0x10000EC94, symSize: 0x6C }
  - { offset: 0x18CD4, size: 0x8, addend: 0x0, symName: __RNvMNtCsfOaLretUh6D_13version_check7channelNtB2_7Channel6is_dev, symObjAddr: 0x3C1C, symBinAddr: 0x10000ED00, symSize: 0x60 }
  - { offset: 0x18CF6, size: 0x8, addend: 0x0, symName: __RNvMNtCsfOaLretUh6D_13version_check7channelNtB2_7Channel10is_nightly, symObjAddr: 0x3C7C, symBinAddr: 0x10000ED60, symSize: 0x64 }
  - { offset: 0x18D18, size: 0x8, addend: 0x0, symName: __RNvMNtCsfOaLretUh6D_13version_check7channelNtB2_7Channel7is_beta, symObjAddr: 0x3CE0, symBinAddr: 0x10000EDC4, symSize: 0x64 }
  - { offset: 0x18D3A, size: 0x8, addend: 0x0, symName: __RNvMNtCsfOaLretUh6D_13version_check7channelNtB2_7Channel9is_stable, symObjAddr: 0x3D44, symBinAddr: 0x10000EE28, symSize: 0x64 }
  - { offset: 0x19348, size: 0x8, addend: 0x0, symName: __RINvMNtCs9f3LFPSIp77_4core6optionINtB3_6OptionNtNtCs27l1GJC5rMQ_3std7process6OutputE8and_thenNtNtCsdze8u8oDPro_5alloc6string6StringNCNvCsfOaLretUh6D_13version_check20get_version_and_dates_0EB29_, symObjAddr: 0x0, symBinAddr: 0x10000F100, symSize: 0x88 }
  - { offset: 0x193C3, size: 0x8, addend: 0x0, symName: __RNvXs5_NtNtCs9f3LFPSIp77_4core3num5errorNtB5_15TryFromIntErrorNtNtB9_3fmt5Debug3fmtCsfOaLretUh6D_13version_check, symObjAddr: 0x2250, symBinAddr: 0x100011350, symSize: 0x54 }
  - { offset: 0x1A5E9, size: 0x8, addend: 0x0, symName: __RNvXs1e_NtCs9f3LFPSIp77_4core3fmtTtttENtB6_5Debug3fmtCsfOaLretUh6D_13version_check, symObjAddr: 0x1ECC, symBinAddr: 0x100010FCC, symSize: 0xB4 }
  - { offset: 0x1A6A8, size: 0x8, addend: 0x0, symName: __RNvXs1m_NtNtCs9f3LFPSIp77_4core3fmt3nummNtB8_5Debug3fmtCsfOaLretUh6D_13version_check, symObjAddr: 0x1F80, symBinAddr: 0x100011080, symSize: 0x90 }
  - { offset: 0x1A722, size: 0x8, addend: 0x0, symName: __RNvXs1n_NtNtCs9f3LFPSIp77_4core3fmt3numyNtB8_5Debug3fmtCsfOaLretUh6D_13version_check, symObjAddr: 0x2010, symBinAddr: 0x100011110, symSize: 0x90 }
  - { offset: 0x1A79D, size: 0x8, addend: 0x0, symName: __RNvXsP_NtCs9f3LFPSIp77_4core3fmtRmNtB5_5Debug3fmtCsfOaLretUh6D_13version_check, symObjAddr: 0x2738, symBinAddr: 0x100011838, symSize: 0x30 }
  - { offset: 0x1A7E3, size: 0x8, addend: 0x0, symName: __RNvXsP_NtCs9f3LFPSIp77_4core3fmtRuNtB5_5Debug3fmtCsfOaLretUh6D_13version_check, symObjAddr: 0x2768, symBinAddr: 0x100011868, symSize: 0x30 }
  - { offset: 0x1A82F, size: 0x8, addend: 0x0, symName: __RNvXsR_NtCs9f3LFPSIp77_4core3fmtReNtB5_7Display3fmtCsfOaLretUh6D_13version_check, symObjAddr: 0x2798, symBinAddr: 0x100011898, symSize: 0x3C }
  - { offset: 0x1A885, size: 0x8, addend: 0x0, symName: __RNvXs_NvNtNtCs9f3LFPSIp77_4core3fmt5Write9write_fmtQINtNvNtNtCs27l1GJC5rMQ_3std2io5Write9write_fmt7AdapterNtNtNtNtNtBX_3sys3pal4unix5stdio6StderrENtB4_12SpecWriteFmt14spec_write_fmtCsfOaLretUh6D_13version_check, symObjAddr: 0x28A4, symBinAddr: 0x1000119A4, symSize: 0x190 }
  - { offset: 0x1A94B, size: 0x8, addend: 0x0, symName: __RNvYINtNvNtNtCs27l1GJC5rMQ_3std2io5Write9write_fmt7AdapterNtNtNtNtNtBb_3sys3pal4unix5stdio6StderrENtNtCs9f3LFPSIp77_4core3fmt5Write10write_charCsfOaLretUh6D_13version_check, symObjAddr: 0x2B2C, symBinAddr: 0x100011C2C, symSize: 0x70 }
  - { offset: 0x1A9B3, size: 0x8, addend: 0x0, symName: __RNvYINtNvNtNtCs27l1GJC5rMQ_3std2io5Write9write_fmt7AdapterNtNtNtNtNtBb_3sys3pal4unix5stdio6StderrENtNtCs9f3LFPSIp77_4core3fmt5Write9write_fmtCsfOaLretUh6D_13version_check, symObjAddr: 0x2B9C, symBinAddr: 0x100011C9C, symSize: 0x24 }
  - { offset: 0x1A9FD, size: 0x8, addend: 0x0, symName: __RNvXsp_NtCs9f3LFPSIp77_4core3fmtuNtB5_5Debug3fmtCsfOaLretUh6D_13version_check, symObjAddr: 0x2AC8, symBinAddr: 0x100011BC8, symSize: 0x40 }
  - { offset: 0x1AAA8, size: 0x8, addend: 0x0, symName: __RNvXs7_NtNtCs9f3LFPSIp77_4core3cmp5implsRNtNtCsfOaLretUh6D_13version_check4date4DateNtB7_9PartialEq2eqBH_, symObjAddr: 0x2334, symBinAddr: 0x100011434, symSize: 0x34 }
  - { offset: 0x1AAFD, size: 0x8, addend: 0x0, symName: __RNvXs8_NtNtCs9f3LFPSIp77_4core3cmp5implsRNtNtCsfOaLretUh6D_13version_check4date4DateNtB7_10PartialOrd2geBH_, symObjAddr: 0x2368, symBinAddr: 0x100011468, symSize: 0x34 }
  - { offset: 0x1AB4C, size: 0x8, addend: 0x0, symName: __RNvXs8_NtNtCs9f3LFPSIp77_4core3cmp5implsRNtNtCsfOaLretUh6D_13version_check4date4DateNtB7_10PartialOrd2leBH_, symObjAddr: 0x239C, symBinAddr: 0x10001149C, symSize: 0x34 }
  - { offset: 0x1ABA2, size: 0x8, addend: 0x0, symName: __RNvYNtNtCsfOaLretUh6D_13version_check4date4DateNtNtCs9f3LFPSIp77_4core3cmp10PartialOrd2geB6_, symObjAddr: 0x2BC0, symBinAddr: 0x100011CC0, symSize: 0x78 }
  - { offset: 0x1ABF1, size: 0x8, addend: 0x0, symName: __RNvYNtNtCsfOaLretUh6D_13version_check4date4DateNtNtCs9f3LFPSIp77_4core3cmp10PartialOrd2gtB6_, symObjAddr: 0x2C38, symBinAddr: 0x100011D38, symSize: 0x6C }
  - { offset: 0x1AC40, size: 0x8, addend: 0x0, symName: __RNvYNtNtCsfOaLretUh6D_13version_check4date4DateNtNtCs9f3LFPSIp77_4core3cmp10PartialOrd2leB6_, symObjAddr: 0x2CA4, symBinAddr: 0x100011DA4, symSize: 0x7C }
  - { offset: 0x1AC8F, size: 0x8, addend: 0x0, symName: __RNvYNtNtCsfOaLretUh6D_13version_check4date4DateNtNtCs9f3LFPSIp77_4core3cmp10PartialOrd2ltB6_, symObjAddr: 0x2D20, symBinAddr: 0x100011E20, symSize: 0x6C }
  - { offset: 0x1ACE4, size: 0x8, addend: 0x0, symName: __RNvYNtNtCsfOaLretUh6D_13version_check4date4DateNtNtCs9f3LFPSIp77_4core3cmp3Ord3maxB6_, symObjAddr: 0x2D8C, symBinAddr: 0x100011E8C, symSize: 0x24 }
  - { offset: 0x1AD2A, size: 0x8, addend: 0x0, symName: __RNvYNtNtCsfOaLretUh6D_13version_check4date4DateNtNtCs9f3LFPSIp77_4core3cmp3Ord3minB6_, symObjAddr: 0x2DB0, symBinAddr: 0x100011EB0, symSize: 0x24 }
  - { offset: 0x1AD70, size: 0x8, addend: 0x0, symName: __RNvYNtNtCsfOaLretUh6D_13version_check4date4DateNtNtCs9f3LFPSIp77_4core3cmp3Ord5clampB6_, symObjAddr: 0x2DD4, symBinAddr: 0x100011ED4, symSize: 0x144 }
  - { offset: 0x1ADCB, size: 0x8, addend: 0x0, symName: __RNvYNtNtCsfOaLretUh6D_13version_check4date4DateNtNtCs9f3LFPSIp77_4core3cmp9PartialEq2neB6_, symObjAddr: 0x2F18, symBinAddr: 0x100012018, symSize: 0x30 }
  - { offset: 0x1BD5D, size: 0x8, addend: 0x0, symName: __RINvNvNtNtNtNtCs9f3LFPSIp77_4core4iter6traits8iterator8Iterator4last4someReECsfOaLretUh6D_13version_check, symObjAddr: 0xCD4, symBinAddr: 0x10000FDD4, symSize: 0x30 }
  - { offset: 0x1BDAA, size: 0x8, addend: 0x0, symName: __RNCINvNvNtNtNtNtCs9f3LFPSIp77_4core4iter6traits8iterator8Iterator3any5checkReNCNvCsfOaLretUh6D_13version_check16supports_features3_0E0B1h_, symObjAddr: 0xD04, symBinAddr: 0x10000FE04, symSize: 0x54 }
  - { offset: 0x1BE12, size: 0x8, addend: 0x0, symName: __RNCINvNvNtNtNtNtCs9f3LFPSIp77_4core4iter6traits8iterator8Iterator4find5checkReQNCNvCsfOaLretUh6D_13version_check35version_and_date_from_rustc_version0E0B1j_, symObjAddr: 0xD58, symBinAddr: 0x10000FE58, symSize: 0x84 }
  - { offset: 0x1BE7D, size: 0x8, addend: 0x0, symName: __RNvXsF_NtNtCs9f3LFPSIp77_4core4iter5rangejNtB5_4Step17forward_uncheckedCsfOaLretUh6D_13version_check, symObjAddr: 0x26A8, symBinAddr: 0x1000117A8, symSize: 0x48 }
  - { offset: 0x1BEDC, size: 0x8, addend: 0x0, symName: __RNvXsF_NtNtCs9f3LFPSIp77_4core4iter5rangejNtB5_4Step18backward_uncheckedCsfOaLretUh6D_13version_check, symObjAddr: 0x26F0, symBinAddr: 0x1000117F0, symSize: 0x48 }
  - { offset: 0x1C103, size: 0x8, addend: 0x0, symName: __RNvXs4_NtNtCs9f3LFPSIp77_4core3str6traitsNtNtNtB9_3ops5range9RangeFullINtNtNtB9_5slice5index10SliceIndexeE5indexCsfOaLretUh6D_13version_check, symObjAddr: 0x220C, symBinAddr: 0x10001130C, symSize: 0x18 }
  - { offset: 0x1C206, size: 0x8, addend: 0x0, symName: __RNvXs8_NtNtCs9f3LFPSIp77_4core3str6traitsINtNtNtB9_3ops5range7RangeTojEINtNtNtB9_5slice5index10SliceIndexeE3getCsfOaLretUh6D_13version_check, symObjAddr: 0x23D0, symBinAddr: 0x1000114D0, symSize: 0x120 }
  - { offset: 0x1C40E, size: 0x8, addend: 0x0, symName: __RNvXs9_NtNtCs9f3LFPSIp77_4core3str6traitsINtNtNtB9_3ops5range9RangeFromjEINtNtNtB9_5slice5index10SliceIndexeE3getCsfOaLretUh6D_13version_check, symObjAddr: 0x24F0, symBinAddr: 0x1000115F0, symSize: 0x130 }
  - { offset: 0x1C62B, size: 0x8, addend: 0x0, symName: __RNvXs9_NtNtCs9f3LFPSIp77_4core3str6traitsINtNtNtB9_3ops5range9RangeFromjEINtNtNtB9_5slice5index10SliceIndexeE5indexCsfOaLretUh6D_13version_check, symObjAddr: 0x2620, symBinAddr: 0x100011720, symSize: 0x88 }
  - { offset: 0x1C841, size: 0x8, addend: 0x0, symName: __RNvNvNtNtCs9f3LFPSIp77_4core5slice3raw14from_raw_parts18precondition_checkCsfOaLretUh6D_13version_check, symObjAddr: 0x1A20, symBinAddr: 0x100010B20, symSize: 0x164 }
  - { offset: 0x1C99B, size: 0x8, addend: 0x0, symName: __RNvNvNtNtCs9f3LFPSIp77_4core5slice3raw18from_raw_parts_mut18precondition_checkCsfOaLretUh6D_13version_check, symObjAddr: 0x1B84, symBinAddr: 0x100010C84, symSize: 0x164 }
  - { offset: 0x1CDC3, size: 0x8, addend: 0x0, symName: __RNvXs5_NtNtCs9f3LFPSIp77_4core5slice5indexINtNtNtB9_3ops5range9RangeFromjEINtB5_10SliceIndexShE5indexCsfOaLretUh6D_13version_check, symObjAddr: 0x22A4, symBinAddr: 0x1000113A4, symSize: 0x90 }
  - { offset: 0x1D034, size: 0x8, addend: 0x0, symName: __RNvNvNtCs9f3LFPSIp77_4core4hint16assert_unchecked18precondition_checkCsfOaLretUh6D_13version_check, symObjAddr: 0x19CC, symBinAddr: 0x100010ACC, symSize: 0x38 }
  - { offset: 0x1D062, size: 0x8, addend: 0x0, symName: __RNvNvNtCs9f3LFPSIp77_4core4hint21unreachable_unchecked18precondition_checkCsfOaLretUh6D_13version_check, symObjAddr: 0x1A04, symBinAddr: 0x100010B04, symSize: 0x1C }
  - { offset: 0x1D0A5, size: 0x8, addend: 0x0, symName: __RNvNtNtCs9f3LFPSIp77_4core4char7methods15encode_utf8_rawCsfOaLretUh6D_13version_check, symObjAddr: 0x1664, symBinAddr: 0x100010764, symSize: 0x21C }
  - { offset: 0x1D267, size: 0x8, addend: 0x0, symName: __RNvNtNtNtCs9f3LFPSIp77_4core7unicode12unicode_data11white_space6lookupCsfOaLretUh6D_13version_check, symObjAddr: 0x1880, symBinAddr: 0x100010980, symSize: 0x14C }
  - { offset: 0x1D360, size: 0x8, addend: 0x0, symName: __RNvXNtCs9f3LFPSIp77_4core7convertReINtB2_5AsRefNtNtNtCs27l1GJC5rMQ_3std3ffi6os_str5OsStrE6as_refCsfOaLretUh6D_13version_check, symObjAddr: 0x1CE8, symBinAddr: 0x100010DE8, symSize: 0x30 }
  - { offset: 0x1D3B6, size: 0x8, addend: 0x0, symName: __RNvXs2_NtNtNtCs9f3LFPSIp77_4core3ops8function5implsQNCNvMNtCsfOaLretUh6D_13version_check4dateNtBT_4Date5parse0INtB7_6FnOnceTReEE9call_onceBV_, symObjAddr: 0x2138, symBinAddr: 0x100011238, symSize: 0x44 }
  - { offset: 0x1D58C, size: 0x8, addend: 0x0, symName: __RNvYNtNtCsfOaLretUh6D_13version_check4date4DateNtNtCs9f3LFPSIp77_4core5clone5Clone10clone_fromB6_, symObjAddr: 0x2F48, symBinAddr: 0x100012048, symSize: 0x48 }
  - { offset: 0x1D632, size: 0x8, addend: 0x0, symName: __RNvXNvNtNtCs27l1GJC5rMQ_3std2io5Write9write_fmtINtB2_7AdapterNtNtNtNtNtB8_3sys3pal4unix5stdio6StderrENtNtCs9f3LFPSIp77_4core3fmt5Write9write_strCsfOaLretUh6D_13version_check, symObjAddr: 0x1D18, symBinAddr: 0x100010E18, symSize: 0xB8 }
  - { offset: 0x1DC46, size: 0x8, addend: 0x0, symName: __RNvXs3_NtNtCs27l1GJC5rMQ_3std3ffi6os_strNtB5_8OsStringINtNtNtCs9f3LFPSIp77_4core3ops5index5IndexNtNtBV_5range9RangeFullE5indexCsfOaLretUh6D_13version_check, symObjAddr: 0x217C, symBinAddr: 0x10001127C, symSize: 0x90 }
  - { offset: 0x1DDE4, size: 0x8, addend: 0x0, symName: __RNvXs5_NtNtCs27l1GJC5rMQ_3std3ffi6os_strNtB5_8OsStringNtNtNtCs9f3LFPSIp77_4core3ops5deref5Deref5derefCsfOaLretUh6D_13version_check, symObjAddr: 0x2224, symBinAddr: 0x100011324, symSize: 0x2C }
  - { offset: 0x1DE18, size: 0x8, addend: 0x0, symName: __RNvXsT_NtNtCs27l1GJC5rMQ_3std3ffi6os_streINtNtCs9f3LFPSIp77_4core7convert5AsRefNtB5_5OsStrE6as_refCsfOaLretUh6D_13version_check, symObjAddr: 0x27D4, symBinAddr: 0x1000118D4, symSize: 0x30 }
  - { offset: 0x1DEC4, size: 0x8, addend: 0x0, symName: __RNvXsU_NtNtCs27l1GJC5rMQ_3std3ffi6os_strNtNtCsdze8u8oDPro_5alloc6string6StringINtNtCs9f3LFPSIp77_4core7convert5AsRefNtB5_5OsStrE6as_refCsfOaLretUh6D_13version_check, symObjAddr: 0x2804, symBinAddr: 0x100011904, symSize: 0xA0 }
  - { offset: 0x1E41E, size: 0x8, addend: 0x0, symName: __RNCNvMNtCsfOaLretUh6D_13version_check4dateNtB4_4Date4read0B6_, symObjAddr: 0x2FDC, symBinAddr: 0x1000120DC, symSize: 0x40 }
  - { offset: 0x1E451, size: 0x8, addend: 0x0, symName: __RNCNvMNtCsfOaLretUh6D_13version_check4dateNtB4_4Date4reads_0B6_, symObjAddr: 0x301C, symBinAddr: 0x10001211C, symSize: 0x8C }
  - { offset: 0x1E4A1, size: 0x8, addend: 0x0, symName: __RNCNvMNtCsfOaLretUh6D_13version_check4dateNtB4_4Date7at_most0B6_, symObjAddr: 0x35C0, symBinAddr: 0x1000126C0, symSize: 0x44 }
  - { offset: 0x1E4F6, size: 0x8, addend: 0x0, symName: __RNCNvMNtCsfOaLretUh6D_13version_check4dateNtB4_4Date7exactly0B6_, symObjAddr: 0x3668, symBinAddr: 0x100012768, symSize: 0x44 }
  - { offset: 0x1E54B, size: 0x8, addend: 0x0, symName: __RNCNvMNtCsfOaLretUh6D_13version_check4dateNtB4_4Date8at_least0B6_, symObjAddr: 0x3518, symBinAddr: 0x100012618, symSize: 0x44 }
  - { offset: 0x1E58D, size: 0x8, addend: 0x0, symName: __RNCNvMNtCsfOaLretUh6D_13version_check4dateNtB4_4Date5parse0B6_, symObjAddr: 0x33A8, symBinAddr: 0x1000124A8, symSize: 0x58 }
  - { offset: 0x1E5D1, size: 0x8, addend: 0x0, symName: __RNvXs_NtCsfOaLretUh6D_13version_check4dateNtB4_4DateNtNtCs9f3LFPSIp77_4core3fmt7Display3fmt, symObjAddr: 0x36AC, symBinAddr: 0x1000127AC, symSize: 0x300 }
  - { offset: 0x1E853, size: 0x8, addend: 0x0, symName: __RNvXs0_NtCsfOaLretUh6D_13version_check4dateNtB5_4DateNtNtCs9f3LFPSIp77_4core3fmt5Debug3fmtB7_, symObjAddr: 0x39AC, symBinAddr: 0x100012AAC, symSize: 0x54 }
  - { offset: 0x1E893, size: 0x8, addend: 0x0, symName: __RNvXs2_NtCsfOaLretUh6D_13version_check4dateNtB5_4DateNtNtCs9f3LFPSIp77_4core3cmp9PartialEq2eqB7_, symObjAddr: 0x3A00, symBinAddr: 0x100012B00, symSize: 0x2C }
  - { offset: 0x1E8D3, size: 0x8, addend: 0x0, symName: __RNvXs3_NtCsfOaLretUh6D_13version_check4dateNtB5_4DateNtNtCs9f3LFPSIp77_4core3cmp2Eq27assert_receiver_is_total_eqB7_, symObjAddr: 0x3A2C, symBinAddr: 0x100012B2C, symSize: 0x10 }
  - { offset: 0x1E901, size: 0x8, addend: 0x0, symName: __RNvXs5_NtCsfOaLretUh6D_13version_check4dateNtB5_4DateNtNtCs9f3LFPSIp77_4core5clone5Clone5cloneB7_, symObjAddr: 0x3A3C, symBinAddr: 0x100012B3C, symSize: 0x18 }
  - { offset: 0x1E933, size: 0x8, addend: 0x0, symName: __RNvXs6_NtCsfOaLretUh6D_13version_check4dateNtB5_4DateNtNtCs9f3LFPSIp77_4core3cmp10PartialOrd11partial_cmpB7_, symObjAddr: 0x3A54, symBinAddr: 0x100012B54, symSize: 0x2C }
  - { offset: 0x1E973, size: 0x8, addend: 0x0, symName: __RNvXs7_NtCsfOaLretUh6D_13version_check4dateNtB5_4DateNtNtCs9f3LFPSIp77_4core3cmp3Ord3cmpB7_, symObjAddr: 0x3A80, symBinAddr: 0x100012B80, symSize: 0x2C }
  - { offset: 0x1EE5C, size: 0x8, addend: 0x0, symName: __RNvXs2_NtCsdze8u8oDPro_5alloc7raw_vecINtB5_6RawVecINtNtB7_5boxed3BoxDINtNtNtCs9f3LFPSIp77_4core3ops8function5FnMutuEp6OutputINtNtB1c_6result6ResultuNtNtNtCs27l1GJC5rMQ_3std2io5error5ErrorENtNtB1c_6marker4SendNtB32_4SyncEL_EENtNtB1a_4drop4Drop4dropCsfOaLretUh6D_13version_check, symObjAddr: 0x20A0, symBinAddr: 0x1000111A0, symSize: 0x34 }
  - { offset: 0x1EE98, size: 0x8, addend: 0x0, symName: __RNvXs2_NtCsdze8u8oDPro_5alloc7raw_vecINtB5_6RawVecNtNtNtB7_3ffi5c_str7CStringENtNtNtCs9f3LFPSIp77_4core3ops4drop4Drop4dropCsfOaLretUh6D_13version_check, symObjAddr: 0x20D4, symBinAddr: 0x1000111D4, symSize: 0x34 }
  - { offset: 0x1EED4, size: 0x8, addend: 0x0, symName: __RNvXs2_NtCsdze8u8oDPro_5alloc7raw_vecINtB5_6RawVecPaENtNtNtCs9f3LFPSIp77_4core3ops4drop4Drop4dropCsfOaLretUh6D_13version_check, symObjAddr: 0x2108, symBinAddr: 0x100011208, symSize: 0x30 }
  - { offset: 0x1EFB8, size: 0x8, addend: 0x0, symName: __RNvXs1C_NtCsdze8u8oDPro_5alloc6stringeNtB6_8ToString9to_stringCsfOaLretUh6D_13version_check, symObjAddr: 0x1E7C, symBinAddr: 0x100010F7C, symSize: 0x50 }
  - { offset: 0x1F107, size: 0x8, addend: 0x0, symName: __RNvXsq_NtCsdze8u8oDPro_5alloc6stringNtB5_6StringNtNtNtCs9f3LFPSIp77_4core3ops5deref5Deref5derefCsfOaLretUh6D_13version_check, symObjAddr: 0x2B08, symBinAddr: 0x100011C08, symSize: 0x24 }
  - { offset: 0x1F13B, size: 0x8, addend: 0x0, symName: __RNvXso_NtCsdze8u8oDPro_5alloc6stringNtB5_6StringINtNtNtCs9f3LFPSIp77_4core3ops5index5IndexNtNtBP_5range9RangeFullE5indexCsfOaLretUh6D_13version_check, symObjAddr: 0x2A34, symBinAddr: 0x100011B34, symSize: 0x94 }
  - { offset: 0x1F325, size: 0x8, addend: 0x0, symName: __RNvXs0_NtNtCsdze8u8oDPro_5alloc3ffi5c_strNtB5_7CStringNtNtNtCs9f3LFPSIp77_4core3ops4drop4Drop4dropCsfOaLretUh6D_13version_check, symObjAddr: 0x1DFC, symBinAddr: 0x100010EFC, symSize: 0x80 }
  - { offset: 0x1F624, size: 0x8, addend: 0x0, symName: __RNvXs0_NtCsdze8u8oDPro_5alloc3strNtNtB7_6string6StringINtNtCs9f3LFPSIp77_4core6borrow6BorroweE6borrowCsfOaLretUh6D_13version_check, symObjAddr: 0x1DD0, symBinAddr: 0x100010ED0, symSize: 0x2C }
  - { offset: 0x1F75D, size: 0x8, addend: 0x0, symName: __RINvMNtCs9f3LFPSIp77_4core6optionINtB3_6OptionNtNtCs27l1GJC5rMQ_3std7process6OutputE8and_thenNtNtCsdze8u8oDPro_5alloc6string6StringNCNvCsfOaLretUh6D_13version_check20get_version_and_dates_0EB29_, symObjAddr: 0x0, symBinAddr: 0x10000F100, symSize: 0x88 }
  - { offset: 0x1F7E7, size: 0x8, addend: 0x0, symName: __RINvMNtCs9f3LFPSIp77_4core6optionINtB3_6OptionNtNtCsdze8u8oDPro_5alloc6string6StringE3mapTBv_Bv_ENCNvCsfOaLretUh6D_13version_check20get_version_and_dates0_0EB1B_, symObjAddr: 0x88, symBinAddr: 0x10000F188, symSize: 0x94 }
  - { offset: 0x1F853, size: 0x8, addend: 0x0, symName: __RINvMNtCs9f3LFPSIp77_4core6optionINtB3_6OptionNtNtCsdze8u8oDPro_5alloc6string6StringE8and_thenNtNtCsfOaLretUh6D_13version_check4date4DateNCNvMB1w_B1u_4reads_0EB1y_, symObjAddr: 0x11C, symBinAddr: 0x10000F21C, symSize: 0x7C }
  - { offset: 0x1F8BF, size: 0x8, addend: 0x0, symName: __RINvMNtCs9f3LFPSIp77_4core6optionINtB3_6OptionNtNtCsdze8u8oDPro_5alloc6string6StringE8and_thenNtNtCsfOaLretUh6D_13version_check7channel7ChannelNCNvMB1w_B1u_4reads_0EB1y_, symObjAddr: 0x198, symBinAddr: 0x10000F298, symSize: 0x78 }
  - { offset: 0x1F92B, size: 0x8, addend: 0x0, symName: __RINvMNtCs9f3LFPSIp77_4core6optionINtB3_6OptionNtNtCsdze8u8oDPro_5alloc6string6StringE8and_thenNtNtCsfOaLretUh6D_13version_check7version7VersionNCNvMB1w_B1u_4reads_0EB1y_, symObjAddr: 0x210, symBinAddr: 0x10000F310, symSize: 0x7C }
  - { offset: 0x1F9B8, size: 0x8, addend: 0x0, symName: __RINvMNtCs9f3LFPSIp77_4core6optionINtB3_6OptionNtNtCsfOaLretUh6D_13version_check4date4DateE3mapbNCNvMBK_BI_7at_most0EBM_, symObjAddr: 0x28C, symBinAddr: 0x10000F38C, symSize: 0x5C }
  - { offset: 0x1FA22, size: 0x8, addend: 0x0, symName: __RINvMNtCs9f3LFPSIp77_4core6optionINtB3_6OptionNtNtCsfOaLretUh6D_13version_check4date4DateE3mapbNCNvMBK_BI_7exactly0EBM_, symObjAddr: 0x2E8, symBinAddr: 0x10000F3E8, symSize: 0x5C }
  - { offset: 0x1FA8C, size: 0x8, addend: 0x0, symName: __RINvMNtCs9f3LFPSIp77_4core6optionINtB3_6OptionNtNtCsfOaLretUh6D_13version_check4date4DateE3mapbNCNvMBK_BI_8at_least0EBM_, symObjAddr: 0x344, symBinAddr: 0x10000F444, symSize: 0x5C }
  - { offset: 0x1FAF6, size: 0x8, addend: 0x0, symName: __RINvMNtCs9f3LFPSIp77_4core6optionINtB3_6OptionNtNtCsfOaLretUh6D_13version_check7channel7ChannelE3mapbNCNvBM_20is_feature_flaggable0EBM_, symObjAddr: 0x3A0, symBinAddr: 0x10000F4A0, symSize: 0x54 }
  - { offset: 0x1FB7A, size: 0x8, addend: 0x0, symName: __RINvMNtCs9f3LFPSIp77_4core6optionINtB3_6OptionNtNtCsfOaLretUh6D_13version_check7version7VersionE3mapbNCNvMBK_BI_7at_most0EBM_, symObjAddr: 0x3F4, symBinAddr: 0x10000F4F4, symSize: 0x5C }
  - { offset: 0x1FBE5, size: 0x8, addend: 0x0, symName: __RINvMNtCs9f3LFPSIp77_4core6optionINtB3_6OptionNtNtCsfOaLretUh6D_13version_check7version7VersionE3mapbNCNvMBK_BI_7exactly0EBM_, symObjAddr: 0x450, symBinAddr: 0x10000F550, symSize: 0x5C }
  - { offset: 0x1FC50, size: 0x8, addend: 0x0, symName: __RINvMNtCs9f3LFPSIp77_4core6optionINtB3_6OptionNtNtCsfOaLretUh6D_13version_check7version7VersionE3mapbNCNvMBK_BI_8at_least0EBM_, symObjAddr: 0x4AC, symBinAddr: 0x10000F5AC, symSize: 0x5C }
  - { offset: 0x1FCE0, size: 0x8, addend: 0x0, symName: __RINvMNtCs9f3LFPSIp77_4core6optionINtB3_6OptionNtNtNtCs27l1GJC5rMQ_3std3ffi6os_str8OsStringE3mapTBI_cENCNCNvCsfOaLretUh6D_13version_check16supports_features_00EB1H_, symObjAddr: 0x508, symBinAddr: 0x10000F608, symSize: 0x90 }
  - { offset: 0x1FD4C, size: 0x8, addend: 0x0, symName: __RINvMNtCs9f3LFPSIp77_4core6optionINtB3_6OptionNtNtNtCs27l1GJC5rMQ_3std3ffi6os_str8OsStringE3mapTBI_cENCNvCsfOaLretUh6D_13version_check16supports_feature0EB1F_, symObjAddr: 0x598, symBinAddr: 0x10000F698, symSize: 0x90 }
  - { offset: 0x1FDB8, size: 0x8, addend: 0x0, symName: __RINvMNtCs9f3LFPSIp77_4core6optionINtB3_6OptionReE3mapBI_NCNvCsfOaLretUh6D_13version_check35version_and_date_from_rustc_versions_0EBW_, symObjAddr: 0x628, symBinAddr: 0x10000F728, symSize: 0x64 }
  - { offset: 0x1FE23, size: 0x8, addend: 0x0, symName: __RINvMNtCs9f3LFPSIp77_4core6optionINtB3_6OptionReE3mapNtNtCsdze8u8oDPro_5alloc6string6StringNCNCNvCsfOaLretUh6D_13version_check43version_and_date_from_rustc_verbose_version00EB1x_, symObjAddr: 0x68C, symBinAddr: 0x10000F78C, symSize: 0x78 }
  - { offset: 0x1FE8E, size: 0x8, addend: 0x0, symName: __RINvMNtCs9f3LFPSIp77_4core6optionINtB3_6OptionReE3mapNtNtCsdze8u8oDPro_5alloc6string6StringNCNvCsfOaLretUh6D_13version_check35version_and_date_from_rustc_versions0_0EB1v_, symObjAddr: 0x704, symBinAddr: 0x10000F804, symSize: 0x78 }
  - { offset: 0x1FEF9, size: 0x8, addend: 0x0, symName: __RINvMNtCs9f3LFPSIp77_4core6optionINtB3_6OptionReE3mapNtNtCsdze8u8oDPro_5alloc6string6StringNCNvCsfOaLretUh6D_13version_check35version_and_date_from_rustc_versions1_0EB1v_, symObjAddr: 0x77C, symBinAddr: 0x10000F87C, symSize: 0x78 }
  - { offset: 0x1FF64, size: 0x8, addend: 0x0, symName: __RINvMNtCs9f3LFPSIp77_4core6optionINtB3_6OptionTIBw_NtNtCsdze8u8oDPro_5alloc6string6StringEBJ_EE8and_thenBN_NCNvMNtCsfOaLretUh6D_13version_check4dateNtB1M_4Date4read0EB1O_, symObjAddr: 0x7F4, symBinAddr: 0x10000F8F4, symSize: 0x88 }
  - { offset: 0x1FFD0, size: 0x8, addend: 0x0, symName: __RINvMNtCs9f3LFPSIp77_4core6optionINtB3_6OptionTIBw_NtNtCsdze8u8oDPro_5alloc6string6StringEBJ_EE8and_thenBN_NCNvMNtCsfOaLretUh6D_13version_check7channelNtB1M_7Channel4read0EB1O_, symObjAddr: 0x87C, symBinAddr: 0x10000F97C, symSize: 0x88 }
  - { offset: 0x2003C, size: 0x8, addend: 0x0, symName: __RINvMNtCs9f3LFPSIp77_4core6optionINtB3_6OptionTIBw_NtNtCsdze8u8oDPro_5alloc6string6StringEBJ_EE8and_thenBN_NCNvMNtCsfOaLretUh6D_13version_check7versionNtB1M_7Version4read0EB1O_, symObjAddr: 0x904, symBinAddr: 0x10000FA04, symSize: 0x88 }
  - { offset: 0x200A8, size: 0x8, addend: 0x0, symName: __RINvMNtCs9f3LFPSIp77_4core6optionINtB3_6OptionTNtNtNtCs27l1GJC5rMQ_3std3ffi6os_str8OsStringcEE7or_elseNCNvCsfOaLretUh6D_13version_check16supports_features_0EB1G_, symObjAddr: 0x98C, symBinAddr: 0x10000FA8C, symSize: 0xC8 }
  - { offset: 0x20118, size: 0x8, addend: 0x0, symName: __RINvMNtCs9f3LFPSIp77_4core6resultINtB3_6ResultNtNtCsdze8u8oDPro_5alloc6string6StringNtNtCs27l1GJC5rMQ_3std3env8VarErrorE14unwrap_or_elseNCNvCsfOaLretUh6D_13version_check20get_version_and_date0EB2e_, symObjAddr: 0xA54, symBinAddr: 0x10000FB54, symSize: 0x8C }
  - { offset: 0x202BD, size: 0x8, addend: 0x0, symName: __RINvMs0_NtCs9f3LFPSIp77_4core3fmtNtB6_9Arguments6new_v1Kj1_KBS_ECsfOaLretUh6D_13version_check, symObjAddr: 0xAE0, symBinAddr: 0x10000FBE0, symSize: 0x50 }
  - { offset: 0x20323, size: 0x8, addend: 0x0, symName: __RINvMs0_NtCs9f3LFPSIp77_4core3fmtNtB6_9Arguments6new_v1Kj3_KBS_ECsfOaLretUh6D_13version_check, symObjAddr: 0xB30, symBinAddr: 0x10000FC30, symSize: 0x50 }
  - { offset: 0x2036F, size: 0x8, addend: 0x0, symName: __RINvMs0_NtCs9f3LFPSIp77_4core3fmtNtB6_9Arguments6new_v1Kj3_Kj2_ECsfOaLretUh6D_13version_check, symObjAddr: 0xB80, symBinAddr: 0x10000FC80, symSize: 0x54 }
  - { offset: 0x204DF, size: 0x8, addend: 0x0, symName: __RINvMsk_NtCs27l1GJC5rMQ_3std7processNtB6_7Command3argReECsfOaLretUh6D_13version_check, symObjAddr: 0xBD4, symBinAddr: 0x10000FCD4, symSize: 0x70 }
  - { offset: 0x2051A, size: 0x8, addend: 0x0, symName: __RINvMsk_NtCs27l1GJC5rMQ_3std7processNtB6_7Command3newNtNtCsdze8u8oDPro_5alloc6string6StringECsfOaLretUh6D_13version_check, symObjAddr: 0xC44, symBinAddr: 0x10000FD44, symSize: 0x90 }
  - { offset: 0x20547, size: 0x8, addend: 0x0, symName: __RNvMNtCs9f3LFPSIp77_4core6optionINtB2_6OptionNtNtCsdze8u8oDPro_5alloc6string6StringE2orCsfOaLretUh6D_13version_check, symObjAddr: 0xDDC, symBinAddr: 0x10000FEDC, symSize: 0xE0 }
  - { offset: 0x205A2, size: 0x8, addend: 0x0, symName: __RNvMNtCs9f3LFPSIp77_4core6optionINtB2_6OptionReE9unwrap_orCsfOaLretUh6D_13version_check, symObjAddr: 0xEBC, symBinAddr: 0x10000FFBC, symSize: 0x70 }
  - { offset: 0x205FC, size: 0x8, addend: 0x0, symName: __RNvMNtCs9f3LFPSIp77_4core6optionINtB2_6OptionbE9unwrap_orCsfOaLretUh6D_13version_check, symObjAddr: 0xF2C, symBinAddr: 0x10001002C, symSize: 0x5C }
  - { offset: 0x20654, size: 0x8, addend: 0x0, symName: __RNvMNtCs9f3LFPSIp77_4core6resultINtB2_6ResultNtNtCs27l1GJC5rMQ_3std7process6OutputNtNtNtBL_2io5error5ErrorE2okCsfOaLretUh6D_13version_check, symObjAddr: 0xF88, symBinAddr: 0x100010088, symSize: 0xA8 }
  - { offset: 0x206A8, size: 0x8, addend: 0x0, symName: __RNvMNtCs9f3LFPSIp77_4core6resultINtB2_6ResultNtNtCsdze8u8oDPro_5alloc6string6StringNtBJ_13FromUtf8ErrorE2okCsfOaLretUh6D_13version_check, symObjAddr: 0x1030, symBinAddr: 0x100010130, symSize: 0x9C }
  - { offset: 0x206FC, size: 0x8, addend: 0x0, symName: __RNvMNtCs9f3LFPSIp77_4core6resultINtB2_6ResulthNtNtNtB4_3num5error15TryFromIntErrorE6expectCsfOaLretUh6D_13version_check, symObjAddr: 0x10CC, symBinAddr: 0x1000101CC, symSize: 0x84 }
  - { offset: 0x208F9, size: 0x8, addend: 0x0, symName: __RNvMNtCsdze8u8oDPro_5alloc6stringNtB2_6String6as_strCsfOaLretUh6D_13version_check, symObjAddr: 0x1150, symBinAddr: 0x100010250, symSize: 0x88 }
  - { offset: 0x20B9B, size: 0x8, addend: 0x0, symName: __RNvMNtCsdze8u8oDPro_5alloc6stringNtB2_6String9from_utf8CsfOaLretUh6D_13version_check, symObjAddr: 0x11D8, symBinAddr: 0x1000102D8, symSize: 0x168 }
  - { offset: 0x20D17, size: 0x8, addend: 0x0, symName: __RNvMs0_NtCs9f3LFPSIp77_4core3fmtNtB5_9Arguments16new_v1_formattedCsfOaLretUh6D_13version_check, symObjAddr: 0x1340, symBinAddr: 0x100010440, symSize: 0x58 }
  - { offset: 0x20DFC, size: 0x8, addend: 0x0, symName: __RNvMs3_NtCsdze8u8oDPro_5alloc7raw_vecNtB5_11RawVecInner16with_capacity_inCsfOaLretUh6D_13version_check, symObjAddr: 0x1398, symBinAddr: 0x100010498, symSize: 0xF8 }
  - { offset: 0x20FAD, size: 0x8, addend: 0x0, symName: __RNvMs7_NtCs9f3LFPSIp77_4core3fmtNtB5_9Formatter9write_fmtCsfOaLretUh6D_13version_check, symObjAddr: 0x1490, symBinAddr: 0x100010590, symSize: 0x1AC }
  - { offset: 0x21089, size: 0x8, addend: 0x0, symName: __RNvMsl_NtNtCs27l1GJC5rMQ_3std3ffi6os_strNtB5_5OsStr15to_string_lossyCsfOaLretUh6D_13version_check, symObjAddr: 0x163C, symBinAddr: 0x10001073C, symSize: 0x28 }
  - { offset: 0x21645, size: 0x8, addend: 0x0, symName: __RNvMNtCsfOaLretUh6D_13version_check4dateNtB2_4Date4read, symObjAddr: 0x2F90, symBinAddr: 0x100012090, symSize: 0x4C }
  - { offset: 0x21658, size: 0x8, addend: 0x0, symName: __RNvMNtCsfOaLretUh6D_13version_check4dateNtB2_4Date5parse, symObjAddr: 0x30A8, symBinAddr: 0x1000121A8, symSize: 0x300 }
  - { offset: 0x216F9, size: 0x8, addend: 0x0, symName: __RNvMNtCsfOaLretUh6D_13version_check4dateNtB2_4Date8from_ymd, symObjAddr: 0x3400, symBinAddr: 0x100012500, symSize: 0x58 }
  - { offset: 0x217B4, size: 0x8, addend: 0x0, symName: __RNvMNtCsfOaLretUh6D_13version_check4dateNtB2_4Date6to_ymd, symObjAddr: 0x3458, symBinAddr: 0x100012558, symSize: 0x5C }
  - { offset: 0x2182A, size: 0x8, addend: 0x0, symName: __RNvMNtCsfOaLretUh6D_13version_check4dateNtB2_4Date8at_least, symObjAddr: 0x34B4, symBinAddr: 0x1000125B4, symSize: 0x64 }
  - { offset: 0x2185A, size: 0x8, addend: 0x0, symName: __RNvMNtCsfOaLretUh6D_13version_check4dateNtB2_4Date7at_most, symObjAddr: 0x355C, symBinAddr: 0x10001265C, symSize: 0x64 }
  - { offset: 0x2188A, size: 0x8, addend: 0x0, symName: __RNvMNtCsfOaLretUh6D_13version_check4dateNtB2_4Date7exactly, symObjAddr: 0x3604, symBinAddr: 0x100012704, symSize: 0x64 }
  - { offset: 0x21B03, size: 0x8, addend: 0x0, symName: __RINvNtCs27l1GJC5rMQ_3std3env3varReECsfOaLretUh6D_13version_check, symObjAddr: 0x0, symBinAddr: 0x100012BAC, symSize: 0x68 }
  - { offset: 0x21F36, size: 0x8, addend: 0x0, symName: __RNvNvMsc_NtNtCs9f3LFPSIp77_4core3num7nonzeroINtB7_7NonZeropE13new_unchecked18precondition_checkCsfOaLretUh6D_13version_check, symObjAddr: 0x11C0, symBinAddr: 0x100013D6C, symSize: 0x1C }
  - { offset: 0x22735, size: 0x8, addend: 0x0, symName: __RNvNvMs1_NtNtCs9f3LFPSIp77_4core3ptr8non_nullINtB7_7NonNullpE13new_unchecked18precondition_checkCsfOaLretUh6D_13version_check, symObjAddr: 0x1180, symBinAddr: 0x100013D2C, symSize: 0x40 }
  - { offset: 0x22A31, size: 0x8, addend: 0x0, symName: __RNvXs7_NtNtCs9f3LFPSIp77_4core3cmp5implsRNtNtCsfOaLretUh6D_13version_check7version7VersionNtB7_9PartialEq2eqBH_, symObjAddr: 0x17B8, symBinAddr: 0x100014364, symSize: 0x34 }
  - { offset: 0x22AC2, size: 0x8, addend: 0x0, symName: __RNvXs8_NtNtCs9f3LFPSIp77_4core3cmp5implsRNtNtCsfOaLretUh6D_13version_check7version7VersionNtB7_10PartialOrd2geBH_, symObjAddr: 0x17EC, symBinAddr: 0x100014398, symSize: 0x34 }
  - { offset: 0x22B11, size: 0x8, addend: 0x0, symName: __RNvXs8_NtNtCs9f3LFPSIp77_4core3cmp5implsRNtNtCsfOaLretUh6D_13version_check7version7VersionNtB7_10PartialOrd2leBH_, symObjAddr: 0x1820, symBinAddr: 0x1000143CC, symSize: 0x34 }
  - { offset: 0x22B67, size: 0x8, addend: 0x0, symName: __RNvYNtNtCsfOaLretUh6D_13version_check7version7VersionNtNtCs9f3LFPSIp77_4core3cmp10PartialOrd2geB6_, symObjAddr: 0x1C4C, symBinAddr: 0x1000147F8, symSize: 0x78 }
  - { offset: 0x22BB6, size: 0x8, addend: 0x0, symName: __RNvYNtNtCsfOaLretUh6D_13version_check7version7VersionNtNtCs9f3LFPSIp77_4core3cmp10PartialOrd2gtB6_, symObjAddr: 0x1CC4, symBinAddr: 0x100014870, symSize: 0x6C }
  - { offset: 0x22C05, size: 0x8, addend: 0x0, symName: __RNvYNtNtCsfOaLretUh6D_13version_check7version7VersionNtNtCs9f3LFPSIp77_4core3cmp10PartialOrd2leB6_, symObjAddr: 0x1D30, symBinAddr: 0x1000148DC, symSize: 0x7C }
  - { offset: 0x22C54, size: 0x8, addend: 0x0, symName: __RNvYNtNtCsfOaLretUh6D_13version_check7version7VersionNtNtCs9f3LFPSIp77_4core3cmp10PartialOrd2ltB6_, symObjAddr: 0x1DAC, symBinAddr: 0x100014958, symSize: 0x6C }
  - { offset: 0x22CA9, size: 0x8, addend: 0x0, symName: __RNvYNtNtCsfOaLretUh6D_13version_check7version7VersionNtNtCs9f3LFPSIp77_4core3cmp3Ord3maxB6_, symObjAddr: 0x1E18, symBinAddr: 0x1000149C4, symSize: 0x24 }
  - { offset: 0x22CEF, size: 0x8, addend: 0x0, symName: __RNvYNtNtCsfOaLretUh6D_13version_check7version7VersionNtNtCs9f3LFPSIp77_4core3cmp3Ord3minB6_, symObjAddr: 0x1E3C, symBinAddr: 0x1000149E8, symSize: 0x24 }
  - { offset: 0x22D35, size: 0x8, addend: 0x0, symName: __RNvYNtNtCsfOaLretUh6D_13version_check7version7VersionNtNtCs9f3LFPSIp77_4core3cmp3Ord5clampB6_, symObjAddr: 0x1E60, symBinAddr: 0x100014A0C, symSize: 0x144 }
  - { offset: 0x22D90, size: 0x8, addend: 0x0, symName: __RNvYNtNtCsfOaLretUh6D_13version_check7version7VersionNtNtCs9f3LFPSIp77_4core3cmp9PartialEq2neB6_, symObjAddr: 0x1FA4, symBinAddr: 0x100014B50, symSize: 0x30 }
  - { offset: 0x2363E, size: 0x8, addend: 0x0, symName: __RINvXs0_NtNtNtCs9f3LFPSIp77_4core4iter8adapters3mapINtB6_3MapINtNtB8_6filter6FilterIBO_INtNtNtBc_3str4iter5SplitcENCNvCsfOaLretUh6D_13version_check16supports_features0_0ENCB1Q_s1_0ENCB1Q_s2_0ENtNtNtBa_6traits8iterator8Iterator4foldINtNtBc_6option6OptionReEINvNvB34_4last4someB43_EEB1S_, symObjAddr: 0x538, symBinAddr: 0x1000130E4, symSize: 0x58 }
  - { offset: 0x236B4, size: 0x8, addend: 0x0, symName: __RINvXs0_NtNtNtCs9f3LFPSIp77_4core4iter8adapters3mapINtB6_3MapINtNtNtBc_3str4iter5SplitcENCNvCsfOaLretUh6D_13version_check16supports_features0_0ENtNtNtBa_6traits8iterator8Iterator4foldINtNtBc_6option6OptionReENCINvNtB8_6filter11filter_foldB3h_B2V_NCB1q_s1_0NCINvB6_8map_foldB3h_B3h_B2V_NCB1q_s2_0INvNvB2i_4last4someB3h_EE0E0EB1s_, symObjAddr: 0x590, symBinAddr: 0x10001313C, symSize: 0x58 }
  - { offset: 0x2372A, size: 0x8, addend: 0x0, symName: __RNvXs0_NtNtNtCs9f3LFPSIp77_4core4iter8adapters3mapINtB5_3MapINtNtNtBb_3str4iter14SplitInclusivecENtB11_8LinesMapENtNtNtB9_6traits8iterator8Iterator4nextCsfOaLretUh6D_13version_check, symObjAddr: 0x123C, symBinAddr: 0x100013DE8, symSize: 0x88 }
  - { offset: 0x237A4, size: 0x8, addend: 0x0, symName: __RNvXs0_NtNtNtCs9f3LFPSIp77_4core4iter8adapters3mapINtB5_3MapINtNtNtBb_3str4iter5SplitcENCNvMNtCsfOaLretUh6D_13version_check4dateNtB1s_4Date5parse0ENtNtNtB9_6traits8iterator8Iterator4nextB1u_, symObjAddr: 0x12C4, symBinAddr: 0x100013E70, symSize: 0x94 }
  - { offset: 0x2381E, size: 0x8, addend: 0x0, symName: __RNvXs0_NtNtNtCs9f3LFPSIp77_4core4iter8adapters3mapINtB5_3MapINtNtNtBb_3str4iter5SplitcENCNvMNtCsfOaLretUh6D_13version_check7versionNtB1s_7Version5parse0ENtNtNtB9_6traits8iterator8Iterator4nextB1u_, symObjAddr: 0x1358, symBinAddr: 0x100013F04, symSize: 0x94 }
  - { offset: 0x23930, size: 0x8, addend: 0x0, symName: __RNCINvNtNtNtCs9f3LFPSIp77_4core4iter8adapters3map8map_foldReBU_INtNtBa_6option6OptionBU_ENCNvCsfOaLretUh6D_13version_check16supports_features0_0NCINvNtB6_6filter11filter_foldBU_BZ_NCB1r_s1_0NCIB2_BU_BU_BZ_NCB1r_s2_0INvNvNtNtNtB8_6traits8iterator8Iterator4last4someBU_EE0E0E0B1t_, symObjAddr: 0x788, symBinAddr: 0x100013334, symSize: 0xE0 }
  - { offset: 0x239B5, size: 0x8, addend: 0x0, symName: __RNCINvNtNtNtCs9f3LFPSIp77_4core4iter8adapters3map8map_foldReBU_INtNtBa_6option6OptionBU_ENCNvCsfOaLretUh6D_13version_check16supports_features2_0INvNvNtNtNtB8_6traits8iterator8Iterator4last4someBU_EE0B1t_, symObjAddr: 0x868, symBinAddr: 0x100013414, symSize: 0xE0 }
  - { offset: 0x23A5E, size: 0x8, addend: 0x0, symName: __RNvXs1_NtNtNtCs9f3LFPSIp77_4core4iter8adapters3mapINtB5_3MapINtNtNtBb_3str4iter14SplitInclusivecENtB11_8LinesMapENtNtNtB9_6traits12double_ended19DoubleEndedIterator9next_backCsfOaLretUh6D_13version_check, symObjAddr: 0x1464, symBinAddr: 0x100014010, symSize: 0x88 }
  - { offset: 0x23B7D, size: 0x8, addend: 0x0, symName: __RINvXs1_NtNtNtCs9f3LFPSIp77_4core4iter8adapters6filterINtB6_6FilterINtNtB8_3map3MapINtNtNtBc_3str4iter5SplitcENCNvCsfOaLretUh6D_13version_check16supports_features0_0ENCB1M_s1_0ENtNtNtBa_6traits8iterator8Iterator4foldINtNtBc_6option6OptionReENCINvB16_8map_foldB3O_B3O_B3s_NCB1M_s2_0INvNvB2P_4last4someB3O_EE0EB1O_, symObjAddr: 0x5E8, symBinAddr: 0x100013194, symSize: 0x58 }
  - { offset: 0x23BEA, size: 0x8, addend: 0x0, symName: __RNvXs1_NtNtNtCs9f3LFPSIp77_4core4iter8adapters6filterINtB5_6FilterINtNtNtBb_3str4iter5SplitReENCNvCsfOaLretUh6D_13version_check35version_and_date_from_rustc_version0ENtNtNtB9_6traits8iterator8Iterator4nextB1y_, symObjAddr: 0x14EC, symBinAddr: 0x100014098, symSize: 0x2C }
  - { offset: 0x23C8D, size: 0x8, addend: 0x0, symName: __RNCINvNtNtNtCs9f3LFPSIp77_4core4iter8adapters6filter11filter_foldReINtNtBa_6option6OptionB11_ENCNvCsfOaLretUh6D_13version_check16supports_features1_0NCINvNtB6_3map8map_foldB11_B11_B13_NCB1w_s2_0INvNvNtNtNtB8_6traits8iterator8Iterator4last4someB11_EE0E0B1y_, symObjAddr: 0x948, symBinAddr: 0x1000134F4, symSize: 0x120 }
  - { offset: 0x23D66, size: 0x8, addend: 0x0, symName: __RNvXs_NtNtNtCs9f3LFPSIp77_4core4iter8adapters9enumerateINtB4_9EnumerateINtNtB6_3map3MapINtNtNtBa_3str4iter5SplitcENCNvMNtCsfOaLretUh6D_13version_check4dateNtB1T_4Date5parse0EENtNtNtB8_6traits8iterator8Iterator4nextB1V_, symObjAddr: 0x19A4, symBinAddr: 0x100014550, symSize: 0x108 }
  - { offset: 0x23E44, size: 0x8, addend: 0x0, symName: __RNvXs_NtNtNtCs9f3LFPSIp77_4core4iter8adapters9enumerateINtB4_9EnumerateINtNtB6_3map3MapINtNtNtBa_3str4iter5SplitcENCNvMNtCsfOaLretUh6D_13version_check7versionNtB1T_7Version5parse0EENtNtNtB8_6traits8iterator8Iterator4nextB1V_, symObjAddr: 0x1AAC, symBinAddr: 0x100014658, symSize: 0x108 }
  - { offset: 0x23FC4, size: 0x8, addend: 0x0, symName: __RINvYINtNtNtNtCs9f3LFPSIp77_4core4iter8adapters3map3MapINtNtNtBc_3str4iter5SplitcENCNvCsfOaLretUh6D_13version_check16supports_features0_0ENtNtNtBa_6traits8iterator8Iterator6filterNCB1k_s1_0EB1m_, symObjAddr: 0x728, symBinAddr: 0x1000132D4, symSize: 0x30 }
  - { offset: 0x2403A, size: 0x8, addend: 0x0, symName: __RINvYINtNtNtNtCs9f3LFPSIp77_4core4iter8adapters6filter6FilterINtNtB8_3map3MapINtNtNtBc_3str4iter5SplitcENCNvCsfOaLretUh6D_13version_check16supports_features0_0ENCB1G_s1_0ENtNtNtBa_6traits8iterator8Iterator3mapReNCB1G_s2_0EB1I_, symObjAddr: 0x758, symBinAddr: 0x100013304, symSize: 0x30 }
  - { offset: 0x240B9, size: 0x8, addend: 0x0, symName: __RNvYINtNtNtNtCs9f3LFPSIp77_4core4iter8adapters3map3MapINtNtB7_6filter6FilterIB3_INtNtNtBb_3str4iter5SplitcENCNvCsfOaLretUh6D_13version_check16supports_features0_0ENCB1J_s1_0ENCB1J_s2_0ENtNtNtB9_6traits8iterator8Iterator4lastB1L_, symObjAddr: 0x1BB4, symBinAddr: 0x100014760, symSize: 0x28 }
  - { offset: 0x240EF, size: 0x8, addend: 0x0, symName: __RNvYINtNtNtNtCs9f3LFPSIp77_4core4iter8adapters3map3MapINtNtNtBb_3str4iter5SplitcENCNvMNtCsfOaLretUh6D_13version_check4dateNtB1m_4Date5parse0ENtNtNtB9_6traits8iterator8Iterator9enumerateB1o_, symObjAddr: 0x1BDC, symBinAddr: 0x100014788, symSize: 0x38 }
  - { offset: 0x24146, size: 0x8, addend: 0x0, symName: __RNvYINtNtNtNtCs9f3LFPSIp77_4core4iter8adapters3map3MapINtNtNtBb_3str4iter5SplitcENCNvMNtCsfOaLretUh6D_13version_check7versionNtB1m_7Version5parse0ENtNtNtB9_6traits8iterator8Iterator9enumerateB1o_, symObjAddr: 0x1C14, symBinAddr: 0x1000147C0, symSize: 0x38 }
  - { offset: 0x241A9, size: 0x8, addend: 0x0, symName: __RNvXs_NtNtNtCs9f3LFPSIp77_4core4iter6traits7collectINtNtNtB8_8adapters9enumerate9EnumerateINtNtBS_3map3MapINtNtNtBa_3str4iter5SplitcENCNvMNtCsfOaLretUh6D_13version_check4dateNtB2c_4Date5parse0EENtB4_12IntoIterator9into_iterB2e_, symObjAddr: 0x1944, symBinAddr: 0x1000144F0, symSize: 0x30 }
  - { offset: 0x241E1, size: 0x8, addend: 0x0, symName: __RNvXs_NtNtNtCs9f3LFPSIp77_4core4iter6traits7collectINtNtNtB8_8adapters9enumerate9EnumerateINtNtBS_3map3MapINtNtNtBa_3str4iter5SplitcENCNvMNtCsfOaLretUh6D_13version_check7versionNtB2c_7Version5parse0EENtB4_12IntoIterator9into_iterB2e_, symObjAddr: 0x1974, symBinAddr: 0x100014520, symSize: 0x30 }
  - { offset: 0x24380, size: 0x8, addend: 0x0, symName: __RNvXs2U_NtNtCs9f3LFPSIp77_4core5slice4iterINtB6_4IterhENtNtNtNtBa_4iter6traits8iterator8Iterator4nextCsfOaLretUh6D_13version_check, symObjAddr: 0x1518, symBinAddr: 0x1000140C4, symSize: 0xCC }
  - { offset: 0x244E7, size: 0x8, addend: 0x0, symName: __RNvXs2V_NtNtCs9f3LFPSIp77_4core5slice4iterINtB6_4IterhENtNtNtNtBa_4iter6traits12double_ended19DoubleEndedIterator9next_backCsfOaLretUh6D_13version_check, symObjAddr: 0x15E4, symBinAddr: 0x100014190, symSize: 0x114 }
  - { offset: 0x249A9, size: 0x8, addend: 0x0, symName: __RNvNvXs5_NtNtCs9f3LFPSIp77_4core3str6traitsINtNtNtBb_3ops5range5RangejEINtNtNtBb_5slice5index10SliceIndexeE13get_unchecked18precondition_checkCsfOaLretUh6D_13version_check, symObjAddr: 0x11DC, symBinAddr: 0x100013D88, symSize: 0x60 }
  - { offset: 0x249F4, size: 0x8, addend: 0x0, symName: __RNvXs2_NtNtCs9f3LFPSIp77_4core3str6traitseINtNtNtB9_3ops5index5IndexINtNtBJ_5range9RangeFromjEE5indexCsfOaLretUh6D_13version_check, symObjAddr: 0x16F8, symBinAddr: 0x1000142A4, symSize: 0x44 }
  - { offset: 0x24A3D, size: 0x8, addend: 0x0, symName: __RNvXs_NtNtCs9f3LFPSIp77_4core3str6traitseNtNtB8_3cmp9PartialEq2eqCsfOaLretUh6D_13version_check, symObjAddr: 0x18E0, symBinAddr: 0x10001448C, symSize: 0x64 }
  - { offset: 0x24CC5, size: 0x8, addend: 0x0, symName: __RNvXs1_NtNtNtCs9f3LFPSIp77_4core3ops8function5implsQNCNvCsfOaLretUh6D_13version_check35version_and_date_from_rustc_version0INtB7_5FnMutTRReEE8call_mutBS_, symObjAddr: 0x1434, symBinAddr: 0x100013FE0, symSize: 0x30 }
  - { offset: 0x24D1A, size: 0x8, addend: 0x0, symName: __RNvXs2_NtNtNtCs9f3LFPSIp77_4core3ops8function5implsQNCNvMNtCsfOaLretUh6D_13version_check7versionNtBT_7Version5parse0INtB7_6FnOnceTReEE9call_onceBV_, symObjAddr: 0x173C, symBinAddr: 0x1000142E8, symSize: 0x44 }
  - { offset: 0x24E87, size: 0x8, addend: 0x0, symName: __RNvYNtNtCsfOaLretUh6D_13version_check7version7VersionNtNtCs9f3LFPSIp77_4core5clone5Clone10clone_fromB6_, symObjAddr: 0x1FD4, symBinAddr: 0x100014B80, symSize: 0x48 }
  - { offset: 0x2508B, size: 0x8, addend: 0x0, symName: __RNCNvXs1_NtNtNtCs27l1GJC5rMQ_3std2io5error14repr_bitpackedNtB7_4ReprNtNtNtCs9f3LFPSIp77_4core3ops4drop4Drop4drop0CsfOaLretUh6D_13version_check, symObjAddr: 0xA7C, symBinAddr: 0x100013628, symSize: 0x34 }
  - { offset: 0x25140, size: 0x8, addend: 0x0, symName: __RNvXs1_NtNtNtCs27l1GJC5rMQ_3std2io5error14repr_bitpackedNtB5_4ReprNtNtNtCs9f3LFPSIp77_4core3ops4drop4Drop4dropCsfOaLretUh6D_13version_check, symObjAddr: 0x13FC, symBinAddr: 0x100013FA8, symSize: 0x38 }
  - { offset: 0x25169, size: 0x8, addend: 0x0, symName: __RINvNtNtNtCs27l1GJC5rMQ_3std2io5error14repr_bitpacked11decode_reprINtNtCsdze8u8oDPro_5alloc5boxed3BoxNtB4_6CustomENCNvXs1_B2_NtB2_4ReprNtNtNtCs9f3LFPSIp77_4core3ops4drop4Drop4drop0ECsfOaLretUh6D_13version_check, symObjAddr: 0xD0, symBinAddr: 0x100012C7C, symSize: 0x234 }
  - { offset: 0x25443, size: 0x8, addend: 0x0, symName: __RNCNvMs0_NtNtNtCs27l1GJC5rMQ_3std2io5error14repr_bitpackedNtB7_4Repr4data0CsfOaLretUh6D_13version_check, symObjAddr: 0xA68, symBinAddr: 0x100013614, symSize: 0x14 }
  - { offset: 0x2547B, size: 0x8, addend: 0x0, symName: __RINvNtNtNtCs27l1GJC5rMQ_3std2io5error14repr_bitpacked11decode_reprRNtB4_6CustomNCNvMs0_B2_NtB2_4Repr4data0ECsfOaLretUh6D_13version_check, symObjAddr: 0x304, symBinAddr: 0x100012EB0, symSize: 0x234 }
  - { offset: 0x25744, size: 0x8, addend: 0x0, symName: __RNvNtNtNtCs27l1GJC5rMQ_3std2io5error14repr_bitpacked14kind_from_primCsfOaLretUh6D_13version_check, symObjAddr: 0xAB0, symBinAddr: 0x10001365C, symSize: 0x608 }
  - { offset: 0x260EF, size: 0x8, addend: 0x0, symName: __RINvNtCs27l1GJC5rMQ_3std3env3varReECsfOaLretUh6D_13version_check, symObjAddr: 0x0, symBinAddr: 0x100012BAC, symSize: 0x68 }
  - { offset: 0x26124, size: 0x8, addend: 0x0, symName: __RINvNtCs27l1GJC5rMQ_3std3env6var_osReECsfOaLretUh6D_13version_check, symObjAddr: 0x68, symBinAddr: 0x100012C14, symSize: 0x68 }
  - { offset: 0x261C5, size: 0x8, addend: 0x0, symName: __RNvNtNtNtNtCs27l1GJC5rMQ_3std3sys3pal4unix2fs23debug_assert_fd_is_openCsfOaLretUh6D_13version_check, symObjAddr: 0x10B8, symBinAddr: 0x100013C64, symSize: 0xC8 }
  - { offset: 0x26295, size: 0x8, addend: 0x0, symName: __RNvXs5_NtNtNtCs27l1GJC5rMQ_3std2os2fd5ownedNtB5_7OwnedFdNtNtNtCs9f3LFPSIp77_4core3ops4drop4Drop4dropCsfOaLretUh6D_13version_check, symObjAddr: 0x1780, symBinAddr: 0x10001432C, symSize: 0x38 }
  - { offset: 0x263A5, size: 0x8, addend: 0x0, symName: __RNCNvCsfOaLretUh6D_13version_check16supports_feature0B3_, symObjAddr: 0x4274, symBinAddr: 0x100016E20, symSize: 0x38 }
  - { offset: 0x263DE, size: 0x8, addend: 0x0, symName: __RNCNvCsfOaLretUh6D_13version_check16supports_features_0B3_, symObjAddr: 0x42AC, symBinAddr: 0x100016E58, symSize: 0x54 }
  - { offset: 0x2640D, size: 0x8, addend: 0x0, symName: __RNCNCNvCsfOaLretUh6D_13version_check16supports_features_00B5_, symObjAddr: 0x4300, symBinAddr: 0x100016EAC, symSize: 0x38 }
  - { offset: 0x2644E, size: 0x8, addend: 0x0, symName: __RNCNvCsfOaLretUh6D_13version_check16supports_features0_0B3_, symObjAddr: 0x4338, symBinAddr: 0x100016EE4, symSize: 0x5C }
  - { offset: 0x26487, size: 0x8, addend: 0x0, symName: __RNCNvCsfOaLretUh6D_13version_check16supports_features1_0B3_, symObjAddr: 0x4394, symBinAddr: 0x100016F40, symSize: 0x50 }
  - { offset: 0x264C0, size: 0x8, addend: 0x0, symName: __RNCNvCsfOaLretUh6D_13version_check16supports_features2_0B3_, symObjAddr: 0x43E4, symBinAddr: 0x100016F90, symSize: 0x68 }
  - { offset: 0x264F9, size: 0x8, addend: 0x0, symName: __RNCNvCsfOaLretUh6D_13version_check16supports_features3_0B3_, symObjAddr: 0x444C, symBinAddr: 0x100016FF8, symSize: 0x68 }
  - { offset: 0x2658C, size: 0x8, addend: 0x0, symName: __RNCNvMNtCsfOaLretUh6D_13version_check7versionNtB4_7Version5parse0B6_, symObjAddr: 0x2374, symBinAddr: 0x100014F20, symSize: 0x58 }
  - { offset: 0x265C8, size: 0x8, addend: 0x0, symName: __RNCNvMNtCsfOaLretUh6D_13version_check7versionNtB4_7Version4read0B6_, symObjAddr: 0x2068, symBinAddr: 0x100014C14, symSize: 0x44 }
  - { offset: 0x265FB, size: 0x8, addend: 0x0, symName: __RNCNvMNtCsfOaLretUh6D_13version_check7versionNtB4_7Version4reads_0B6_, symObjAddr: 0x20AC, symBinAddr: 0x100014C58, symSize: 0x8C }
  - { offset: 0x26646, size: 0x8, addend: 0x0, symName: __RNCNvMNtCsfOaLretUh6D_13version_check7versionNtB4_7Version8at_least0B6_, symObjAddr: 0x24DC, symBinAddr: 0x100015088, symSize: 0x44 }
  - { offset: 0x26688, size: 0x8, addend: 0x0, symName: __RNCNvMNtCsfOaLretUh6D_13version_check7versionNtB4_7Version7at_most0B6_, symObjAddr: 0x2584, symBinAddr: 0x100015130, symSize: 0x44 }
  - { offset: 0x266CA, size: 0x8, addend: 0x0, symName: __RNCNvMNtCsfOaLretUh6D_13version_check7versionNtB4_7Version7exactly0B6_, symObjAddr: 0x262C, symBinAddr: 0x1000151D8, symSize: 0x44 }
  - { offset: 0x267C8, size: 0x8, addend: 0x0, symName: __RNvXs_NtCsfOaLretUh6D_13version_check7versionNtB4_7VersionNtNtCs9f3LFPSIp77_4core3fmt7Display3fmt, symObjAddr: 0x2670, symBinAddr: 0x10001521C, symSize: 0x158 }
  - { offset: 0x26967, size: 0x8, addend: 0x0, symName: __RNvXs0_NtCsfOaLretUh6D_13version_check7versionNtB5_7VersionNtNtCs9f3LFPSIp77_4core3fmt5Debug3fmt, symObjAddr: 0x27C8, symBinAddr: 0x100015374, symSize: 0x100 }
  - { offset: 0x26A6B, size: 0x8, addend: 0x0, symName: __RNvXs2_NtCsfOaLretUh6D_13version_check7versionNtB5_7VersionNtNtCs9f3LFPSIp77_4core3cmp9PartialEq2eqB7_, symObjAddr: 0x44B4, symBinAddr: 0x100017060, symSize: 0x2C }
  - { offset: 0x26AAB, size: 0x8, addend: 0x0, symName: __RNvXs3_NtCsfOaLretUh6D_13version_check7versionNtB5_7VersionNtNtCs9f3LFPSIp77_4core3cmp2Eq27assert_receiver_is_total_eqB7_, symObjAddr: 0x44E0, symBinAddr: 0x10001708C, symSize: 0x10 }
  - { offset: 0x26AD9, size: 0x8, addend: 0x0, symName: __RNvXs5_NtCsfOaLretUh6D_13version_check7versionNtB5_7VersionNtNtCs9f3LFPSIp77_4core5clone5Clone5cloneB7_, symObjAddr: 0x44F0, symBinAddr: 0x10001709C, symSize: 0x18 }
  - { offset: 0x26B0B, size: 0x8, addend: 0x0, symName: __RNvXs6_NtCsfOaLretUh6D_13version_check7versionNtB5_7VersionNtNtCs9f3LFPSIp77_4core3cmp10PartialOrd11partial_cmpB7_, symObjAddr: 0x4508, symBinAddr: 0x1000170B4, symSize: 0x2C }
  - { offset: 0x26B4B, size: 0x8, addend: 0x0, symName: __RNvXs7_NtCsfOaLretUh6D_13version_check7versionNtB5_7VersionNtNtCs9f3LFPSIp77_4core3cmp3Ord3cmpB7_, symObjAddr: 0x4534, symBinAddr: 0x1000170E0, symSize: 0x2C }
  - { offset: 0x26B87, size: 0x8, addend: 0x0, symName: __RNvCsfOaLretUh6D_13version_check35version_and_date_from_rustc_version, symObjAddr: 0x28C8, symBinAddr: 0x100015474, symSize: 0x170 }
  - { offset: 0x26C2F, size: 0x8, addend: 0x0, symName: __RNCNvCsfOaLretUh6D_13version_check35version_and_date_from_rustc_version0B3_, symObjAddr: 0x2A38, symBinAddr: 0x1000155E4, symSize: 0x44 }
  - { offset: 0x26C65, size: 0x8, addend: 0x0, symName: __RNCNvCsfOaLretUh6D_13version_check35version_and_date_from_rustc_versions_0B3_, symObjAddr: 0x2A7C, symBinAddr: 0x100015628, symSize: 0x58 }
  - { offset: 0x26C9B, size: 0x8, addend: 0x0, symName: __RNCNvCsfOaLretUh6D_13version_check35version_and_date_from_rustc_versions0_0B3_, symObjAddr: 0x2AD4, symBinAddr: 0x100015680, symSize: 0x38 }
  - { offset: 0x26CD1, size: 0x8, addend: 0x0, symName: __RNCNvCsfOaLretUh6D_13version_check35version_and_date_from_rustc_versions1_0B3_, symObjAddr: 0x2B0C, symBinAddr: 0x1000156B8, symSize: 0x38 }
  - { offset: 0x26D24, size: 0x8, addend: 0x0, symName: __RNvCsfOaLretUh6D_13version_check43version_and_date_from_rustc_verbose_version, symObjAddr: 0x2B44, symBinAddr: 0x1000156F0, symSize: 0x66C }
  - { offset: 0x26DE1, size: 0x8, addend: 0x0, symName: __RNCNvCsfOaLretUh6D_13version_check43version_and_date_from_rustc_verbose_version0B3_, symObjAddr: 0x31B0, symBinAddr: 0x100015D5C, symSize: 0x80 }
  - { offset: 0x26E1C, size: 0x8, addend: 0x0, symName: __RNCNCNvCsfOaLretUh6D_13version_check43version_and_date_from_rustc_verbose_version00B5_, symObjAddr: 0x3230, symBinAddr: 0x100015DDC, symSize: 0x44 }
  - { offset: 0x26E62, size: 0x8, addend: 0x0, symName: __RNvCsfOaLretUh6D_13version_check20get_version_and_date, symObjAddr: 0x3274, symBinAddr: 0x100015E20, symSize: 0x128 }
  - { offset: 0x26E9A, size: 0x8, addend: 0x0, symName: __RNCNvCsfOaLretUh6D_13version_check20get_version_and_date0B3_, symObjAddr: 0x339C, symBinAddr: 0x100015F48, symSize: 0x74 }
  - { offset: 0x26ECD, size: 0x8, addend: 0x0, symName: __RNCNvCsfOaLretUh6D_13version_check20get_version_and_dates_0B3_, symObjAddr: 0x3410, symBinAddr: 0x100015FBC, symSize: 0x9C }
  - { offset: 0x26F04, size: 0x8, addend: 0x0, symName: __RNCNvCsfOaLretUh6D_13version_check20get_version_and_dates0_0B3_, symObjAddr: 0x34AC, symBinAddr: 0x100016058, symSize: 0x84 }
  - { offset: 0x26F51, size: 0x8, addend: 0x0, symName: __RNvCsfOaLretUh6D_13version_check6triple, symObjAddr: 0x3530, symBinAddr: 0x1000160DC, symSize: 0x388 }
  - { offset: 0x27008, size: 0x8, addend: 0x0, symName: __RNvCsfOaLretUh6D_13version_check11is_min_date, symObjAddr: 0x38B8, symBinAddr: 0x100016464, symSize: 0x108 }
  - { offset: 0x2705E, size: 0x8, addend: 0x0, symName: __RNvCsfOaLretUh6D_13version_check11is_max_date, symObjAddr: 0x39C0, symBinAddr: 0x10001656C, symSize: 0x108 }
  - { offset: 0x270B4, size: 0x8, addend: 0x0, symName: __RNvCsfOaLretUh6D_13version_check13is_exact_date, symObjAddr: 0x3AC8, symBinAddr: 0x100016674, symSize: 0x108 }
  - { offset: 0x2710A, size: 0x8, addend: 0x0, symName: __RNvCsfOaLretUh6D_13version_check14is_min_version, symObjAddr: 0x3BD0, symBinAddr: 0x10001677C, symSize: 0x108 }
  - { offset: 0x27162, size: 0x8, addend: 0x0, symName: __RNvCsfOaLretUh6D_13version_check14is_max_version, symObjAddr: 0x3CD8, symBinAddr: 0x100016884, symSize: 0x108 }
  - { offset: 0x271BE, size: 0x8, addend: 0x0, symName: __RNvCsfOaLretUh6D_13version_check16is_exact_version, symObjAddr: 0x3DE0, symBinAddr: 0x10001698C, symSize: 0x108 }
  - { offset: 0x2721A, size: 0x8, addend: 0x0, symName: __RNvCsfOaLretUh6D_13version_check20is_feature_flaggable, symObjAddr: 0x3EE8, symBinAddr: 0x100016A94, symSize: 0x28 }
  - { offset: 0x2723D, size: 0x8, addend: 0x0, symName: __RNCNvCsfOaLretUh6D_13version_check20is_feature_flaggable0B3_, symObjAddr: 0x3F10, symBinAddr: 0x100016ABC, symSize: 0x38 }
  - { offset: 0x2727E, size: 0x8, addend: 0x0, symName: __RNvCsfOaLretUh6D_13version_check16supports_feature, symObjAddr: 0x3F48, symBinAddr: 0x100016AF4, symSize: 0x32C }
  - { offset: 0x2771D, size: 0x8, addend: 0x0, symName: __RNvXs1_NtCsdze8u8oDPro_5alloc5allocNtB5_6GlobalNtNtCs9f3LFPSIp77_4core5clone5Clone5cloneCsfOaLretUh6D_13version_check, symObjAddr: 0x13EC, symBinAddr: 0x100013F98, symSize: 0x10 }
  - { offset: 0x2776E, size: 0x8, addend: 0x0, symName: __RNvXs_NtCsdze8u8oDPro_5alloc5allocNtB4_6GlobalNtNtCs9f3LFPSIp77_4core5alloc9Allocator10deallocateCsfOaLretUh6D_13version_check, symObjAddr: 0x1854, symBinAddr: 0x100014400, symSize: 0x8C }
  - { offset: 0x2791A, size: 0x8, addend: 0x0, symName: __RINvXs_NtNtCsdze8u8oDPro_5alloc5slice4hackhNtB5_10ConvertVec6to_vecNtNtB9_5alloc6GlobalECsfOaLretUh6D_13version_check, symObjAddr: 0x640, symBinAddr: 0x1000131EC, symSize: 0xE8 }
  - { offset: 0x28427, size: 0x8, addend: 0x0, symName: __RNvMNtCsfOaLretUh6D_13version_check7versionNtB2_7Version4read, symObjAddr: 0x201C, symBinAddr: 0x100014BC8, symSize: 0x4C }
  - { offset: 0x2843A, size: 0x8, addend: 0x0, symName: __RNvMNtCsfOaLretUh6D_13version_check7versionNtB2_7Version5parse, symObjAddr: 0x2138, symBinAddr: 0x100014CE4, symSize: 0x23C }
  - { offset: 0x284F9, size: 0x8, addend: 0x0, symName: __RNvMNtCsfOaLretUh6D_13version_check7versionNtB2_7Version8from_mmp, symObjAddr: 0x23CC, symBinAddr: 0x100014F78, symSize: 0x4C }
  - { offset: 0x2856D, size: 0x8, addend: 0x0, symName: __RNvMNtCsfOaLretUh6D_13version_check7versionNtB2_7Version6to_mmp, symObjAddr: 0x2418, symBinAddr: 0x100014FC4, symSize: 0x60 }
  - { offset: 0x285E6, size: 0x8, addend: 0x0, symName: __RNvMNtCsfOaLretUh6D_13version_check7versionNtB2_7Version8at_least, symObjAddr: 0x2478, symBinAddr: 0x100015024, symSize: 0x64 }
  - { offset: 0x28616, size: 0x8, addend: 0x0, symName: __RNvMNtCsfOaLretUh6D_13version_check7versionNtB2_7Version7at_most, symObjAddr: 0x2520, symBinAddr: 0x1000150CC, symSize: 0x64 }
  - { offset: 0x28646, size: 0x8, addend: 0x0, symName: __RNvMNtCsfOaLretUh6D_13version_check7versionNtB2_7Version7exactly, symObjAddr: 0x25C8, symBinAddr: 0x100015174, symSize: 0x64 }
  - { offset: 0x289C5, size: 0x8, addend: 0x0, symName: ___llvm_profile_set_timestamp, symObjAddr: 0x0, symBinAddr: 0x10001710C, symSize: 0x28 }
  - { offset: 0x289CD, size: 0x8, addend: 0x0, symName: ___llvm_profile_global_timestamp, symObjAddr: 0x130, symBinAddr: 0x1000F8618, symSize: 0x0 }
  - { offset: 0x289E2, size: 0x8, addend: 0x0, symName: ___llvm_profile_global_timestamp, symObjAddr: 0x130, symBinAddr: 0x1000F8618, symSize: 0x0 }
  - { offset: 0x28A67, size: 0x8, addend: 0x0, symName: ___llvm_profile_set_timestamp, symObjAddr: 0x0, symBinAddr: 0x10001710C, symSize: 0x28 }
  - { offset: 0x28A6F, size: 0x8, addend: 0x0, symName: ___llvm_profile_get_magic, symObjAddr: 0x28, symBinAddr: 0x100017134, symSize: 0x14 }
  - { offset: 0x28A92, size: 0x8, addend: 0x0, symName: ___llvm_profile_get_magic, symObjAddr: 0x28, symBinAddr: 0x100017134, symSize: 0x14 }
  - { offset: 0x28A9A, size: 0x8, addend: 0x0, symName: ___llvm_profile_set_dumped, symObjAddr: 0x3C, symBinAddr: 0x100017148, symSize: 0x8 }
  - { offset: 0x28AB3, size: 0x8, addend: 0x0, symName: ___llvm_profile_set_dumped, symObjAddr: 0x3C, symBinAddr: 0x100017148, symSize: 0x8 }
  - { offset: 0x28ABB, size: 0x8, addend: 0x0, symName: ___llvm_profile_get_num_padding_bytes, symObjAddr: 0x44, symBinAddr: 0x100017150, symSize: 0xC }
  - { offset: 0x28ACF, size: 0x8, addend: 0x0, symName: ___llvm_profile_get_num_padding_bytes, symObjAddr: 0x44, symBinAddr: 0x100017150, symSize: 0xC }
  - { offset: 0x28AD7, size: 0x8, addend: 0x0, symName: ___llvm_profile_get_version, symObjAddr: 0x50, symBinAddr: 0x10001715C, symSize: 0xC }
  - { offset: 0x28B00, size: 0x8, addend: 0x0, symName: ___llvm_profile_get_version, symObjAddr: 0x50, symBinAddr: 0x10001715C, symSize: 0xC }
  - { offset: 0x28B08, size: 0x8, addend: 0x0, symName: ___llvm_profile_reset_counters, symObjAddr: 0x5C, symBinAddr: 0x100017168, symSize: 0xD4 }
  - { offset: 0x28B27, size: 0x8, addend: 0x0, symName: ___llvm_profile_reset_counters, symObjAddr: 0x5C, symBinAddr: 0x100017168, symSize: 0xD4 }
  - { offset: 0x28B2F, size: 0x8, addend: 0x0, symName: ___llvm_profile_global_timestamp, symObjAddr: 0x130, symBinAddr: 0x1000F8618, symSize: 0x0 }
  - { offset: 0x28D62, size: 0x8, addend: 0x0, symName: ___llvm_profile_is_continuous_mode_enabled, symObjAddr: 0x0, symBinAddr: 0x10001723C, symSize: 0x20 }
  - { offset: 0x28D7F, size: 0x8, addend: 0x0, symName: __MergedGlobals, symObjAddr: 0x3E20, symBinAddr: 0x100100290, symSize: 0x0 }
  - { offset: 0x28DA1, size: 0x8, addend: 0x0, symName: __MergedGlobals, symObjAddr: 0x3E20, symBinAddr: 0x100100290, symSize: 0x0 }
  - { offset: 0x28DD1, size: 0x8, addend: 0x0, symName: ___llvm_profile_is_continuous_mode_enabled, symObjAddr: 0x0, symBinAddr: 0x10001723C, symSize: 0x20 }
  - { offset: 0x28DD9, size: 0x8, addend: 0x0, symName: ___llvm_profile_enable_continuous_mode, symObjAddr: 0x20, symBinAddr: 0x10001725C, symSize: 0x10 }
  - { offset: 0x28DE9, size: 0x8, addend: 0x0, symName: ___llvm_profile_enable_continuous_mode, symObjAddr: 0x20, symBinAddr: 0x10001725C, symSize: 0x10 }
  - { offset: 0x28DF1, size: 0x8, addend: 0x0, symName: ___llvm_profile_disable_continuous_mode, symObjAddr: 0x30, symBinAddr: 0x10001726C, symSize: 0xC }
  - { offset: 0x28E06, size: 0x8, addend: 0x0, symName: ___llvm_profile_disable_continuous_mode, symObjAddr: 0x30, symBinAddr: 0x10001726C, symSize: 0xC }
  - { offset: 0x28E0E, size: 0x8, addend: 0x0, symName: ___llvm_profile_set_page_size, symObjAddr: 0x3C, symBinAddr: 0x100017278, symSize: 0xC }
  - { offset: 0x28E23, size: 0x8, addend: 0x0, symName: ___llvm_profile_set_page_size, symObjAddr: 0x3C, symBinAddr: 0x100017278, symSize: 0xC }
  - { offset: 0x28E2B, size: 0x8, addend: 0x0, symName: ___llvm_profile_get_size_for_buffer, symObjAddr: 0x48, symBinAddr: 0x100017284, symSize: 0xC4 }
  - { offset: 0x28E4E, size: 0x8, addend: 0x0, symName: ___llvm_profile_get_size_for_buffer, symObjAddr: 0x48, symBinAddr: 0x100017284, symSize: 0xC4 }
  - { offset: 0x28E56, size: 0x8, addend: 0x0, symName: ___llvm_profile_get_size_for_buffer_internal, symObjAddr: 0x10C, symBinAddr: 0x100017348, symSize: 0x1C0 }
  - { offset: 0x292B9, size: 0x8, addend: 0x0, symName: ___llvm_profile_get_size_for_buffer_internal, symObjAddr: 0x10C, symBinAddr: 0x100017348, symSize: 0x1C0 }
  - { offset: 0x292C1, size: 0x8, addend: 0x0, symName: ___llvm_profile_get_num_data, symObjAddr: 0x2CC, symBinAddr: 0x100017508, symSize: 0x10 }
  - { offset: 0x296B0, size: 0x8, addend: 0x0, symName: ___llvm_profile_get_num_data, symObjAddr: 0x2CC, symBinAddr: 0x100017508, symSize: 0x10 }
  - { offset: 0x296B8, size: 0x8, addend: 0x0, symName: ___llvm_profile_get_data_size, symObjAddr: 0x2DC, symBinAddr: 0x100017518, symSize: 0x10 }
  - { offset: 0x296E9, size: 0x8, addend: 0x0, symName: ___llvm_profile_get_data_size, symObjAddr: 0x2DC, symBinAddr: 0x100017518, symSize: 0x10 }
  - { offset: 0x296F1, size: 0x8, addend: 0x0, symName: ___llvm_profile_get_num_vtable, symObjAddr: 0x2EC, symBinAddr: 0x100017528, symSize: 0x18 }
  - { offset: 0x29715, size: 0x8, addend: 0x0, symName: ___llvm_profile_get_data_size, symObjAddr: 0x2DC, symBinAddr: 0x100017518, symSize: 0x10 }
  - { offset: 0x29747, size: 0x8, addend: 0x0, symName: ___llvm_profile_get_num_vtable, symObjAddr: 0x2EC, symBinAddr: 0x100017528, symSize: 0x18 }
  - { offset: 0x2974F, size: 0x8, addend: 0x0, symName: ___llvm_profile_get_vtable_section_size, symObjAddr: 0x304, symBinAddr: 0x100017540, symSize: 0x8 }
  - { offset: 0x297A1, size: 0x8, addend: 0x0, symName: ___llvm_profile_get_vtable_section_size, symObjAddr: 0x304, symBinAddr: 0x100017540, symSize: 0x8 }
  - { offset: 0x297A9, size: 0x8, addend: 0x0, symName: ___llvm_profile_counter_entry_size, symObjAddr: 0x30C, symBinAddr: 0x100017548, symSize: 0x1C }
  - { offset: 0x297CA, size: 0x8, addend: 0x0, symName: ___llvm_profile_counter_entry_size, symObjAddr: 0x30C, symBinAddr: 0x100017548, symSize: 0x1C }
  - { offset: 0x297D2, size: 0x8, addend: 0x0, symName: ___llvm_profile_get_num_counters, symObjAddr: 0x328, symBinAddr: 0x100017564, symSize: 0x48 }
  - { offset: 0x297E2, size: 0x8, addend: 0x0, symName: ___llvm_profile_get_num_counters, symObjAddr: 0x328, symBinAddr: 0x100017564, symSize: 0x48 }
  - { offset: 0x297EA, size: 0x8, addend: 0x0, symName: ___llvm_profile_get_counters_size, symObjAddr: 0x370, symBinAddr: 0x1000175AC, symSize: 0x5C }
  - { offset: 0x2984F, size: 0x8, addend: 0x0, symName: ___llvm_profile_get_counters_size, symObjAddr: 0x370, symBinAddr: 0x1000175AC, symSize: 0x5C }
  - { offset: 0x29857, size: 0x8, addend: 0x0, symName: ___llvm_profile_get_num_bitmap_bytes, symObjAddr: 0x3CC, symBinAddr: 0x100017608, symSize: 0x8 }
  - { offset: 0x298FB, size: 0x8, addend: 0x0, symName: ___llvm_profile_get_num_bitmap_bytes, symObjAddr: 0x3CC, symBinAddr: 0x100017608, symSize: 0x8 }
  - { offset: 0x29903, size: 0x8, addend: 0x0, symName: ___llvm_profile_get_name_size, symObjAddr: 0x3D4, symBinAddr: 0x100017610, symSize: 0x8 }
  - { offset: 0x29924, size: 0x8, addend: 0x0, symName: ___llvm_profile_get_name_size, symObjAddr: 0x3D4, symBinAddr: 0x100017610, symSize: 0x8 }
  - { offset: 0x2992C, size: 0x8, addend: 0x0, symName: ___llvm_profile_get_padding_sizes_for_counters, symObjAddr: 0x3DC, symBinAddr: 0x100017618, symSize: 0x15C }
  - { offset: 0x2994D, size: 0x8, addend: 0x0, symName: ___llvm_profile_get_padding_sizes_for_counters, symObjAddr: 0x3DC, symBinAddr: 0x100017618, symSize: 0x15C }
  - { offset: 0x29955, size: 0x8, addend: 0x0, symName: _initBufferWriter, symObjAddr: 0x538, symBinAddr: 0x100017774, symSize: 0x10 }
  - { offset: 0x29AA9, size: 0x8, addend: 0x0, symName: _initBufferWriter, symObjAddr: 0x538, symBinAddr: 0x100017774, symSize: 0x10 }
  - { offset: 0x29AB1, size: 0x8, addend: 0x0, symName: ___llvm_profile_write_buffer, symObjAddr: 0x548, symBinAddr: 0x100017784, symSize: 0x30 }
  - { offset: 0x29BAE, size: 0x8, addend: 0x0, symName: ___llvm_profile_write_buffer, symObjAddr: 0x548, symBinAddr: 0x100017784, symSize: 0x30 }
  - { offset: 0x29BB6, size: 0x8, addend: 0x0, symName: ___llvm_profile_write_buffer_internal, symObjAddr: 0x578, symBinAddr: 0x1000177B4, symSize: 0x40 }
  - { offset: 0x29C14, size: 0x8, addend: 0x0, symName: ___llvm_profile_write_buffer_internal, symObjAddr: 0x578, symBinAddr: 0x1000177B4, symSize: 0x40 }
  - { offset: 0x29D18, size: 0x8, addend: 0x0, symName: _lprofCreateBufferIOInternal, symObjAddr: 0x0, symBinAddr: 0x1000177F4, symSize: 0x74 }
  - { offset: 0x29D43, size: 0x8, addend: 0x0, symName: ___llvm_profile_register_write_file_atexit, symObjAddr: 0xBF8, symBinAddr: 0x1000183EC, symSize: 0x44 }
  - { offset: 0x29D4B, size: 0x8, addend: 0x0, symName: ___llvm_profile_set_filename, symObjAddr: 0xC3C, symBinAddr: 0x100018430, symSize: 0x38 }
  - { offset: 0x29D69, size: 0x8, addend: 0x0, symName: ___llvm_profile_register_write_file_atexit.HasBeenRegistered, symObjAddr: 0xA4E8, symBinAddr: 0x100100298, symSize: 0x0 }
  - { offset: 0x29D8C, size: 0x8, addend: 0x0, symName: __MergedGlobals, symObjAddr: 0xA4F0, symBinAddr: 0x1001002A0, symSize: 0x0 }
  - { offset: 0x29EAA, size: 0x8, addend: 0x0, symName: __MergedGlobals, symObjAddr: 0xA4F0, symBinAddr: 0x1001002A0, symSize: 0x0 }
  - { offset: 0x2A0DB, size: 0x8, addend: 0x0, symName: __MergedGlobals, symObjAddr: 0xA4F0, symBinAddr: 0x1001002A0, symSize: 0x0 }
  - { offset: 0x2A212, size: 0x8, addend: 0x0, symName: _lprofCreateBufferIOInternal, symObjAddr: 0x0, symBinAddr: 0x1000177F4, symSize: 0x74 }
  - { offset: 0x2A21A, size: 0x8, addend: 0x0, symName: ___llvm_profile_get_path_prefix, symObjAddr: 0x74, symBinAddr: 0x100017868, symSize: 0x154 }
  - { offset: 0x2A2A3, size: 0x8, addend: 0x0, symName: ___llvm_profile_get_path_prefix, symObjAddr: 0x74, symBinAddr: 0x100017868, symSize: 0x154 }
  - { offset: 0x2A2AB, size: 0x8, addend: 0x0, symName: _getCurFilenameLength, symObjAddr: 0x1C8, symBinAddr: 0x1000179BC, symSize: 0x108 }
  - { offset: 0x2A31B, size: 0x8, addend: 0x0, symName: _getCurFilenameLength, symObjAddr: 0x1C8, symBinAddr: 0x1000179BC, symSize: 0x108 }
  - { offset: 0x2A323, size: 0x8, addend: 0x0, symName: _getCurFilename, symObjAddr: 0x2D0, symBinAddr: 0x100017AC4, symSize: 0x2B8 }
  - { offset: 0x2A3A3, size: 0x8, addend: 0x0, symName: _getCurFilename, symObjAddr: 0x2D0, symBinAddr: 0x100017AC4, symSize: 0x2B8 }
  - { offset: 0x2A3AB, size: 0x8, addend: 0x0, symName: ___llvm_profile_get_filename, symObjAddr: 0x588, symBinAddr: 0x100017D7C, symSize: 0x88 }
  - { offset: 0x2A4D2, size: 0x8, addend: 0x0, symName: ___llvm_profile_get_filename, symObjAddr: 0x588, symBinAddr: 0x100017D7C, symSize: 0x88 }
  - { offset: 0x2A4DA, size: 0x8, addend: 0x0, symName: ___llvm_profile_initialize_file, symObjAddr: 0x610, symBinAddr: 0x100017E04, symSize: 0x78 }
  - { offset: 0x2A544, size: 0x8, addend: 0x0, symName: ___llvm_profile_initialize_file, symObjAddr: 0x610, symBinAddr: 0x100017E04, symSize: 0x78 }
  - { offset: 0x2A54C, size: 0x8, addend: 0x0, symName: _parseAndSetFilename, symObjAddr: 0x688, symBinAddr: 0x100017E7C, symSize: 0x4B8 }
  - { offset: 0x2A67D, size: 0x8, addend: 0x0, symName: _parseAndSetFilename, symObjAddr: 0x688, symBinAddr: 0x100017E7C, symSize: 0x4B8 }
  - { offset: 0x2A685, size: 0x8, addend: 0x0, symName: ___llvm_profile_initialize, symObjAddr: 0xB40, symBinAddr: 0x100018334, symSize: 0xB8 }
  - { offset: 0x2A869, size: 0x8, addend: 0x0, symName: ___llvm_profile_initialize, symObjAddr: 0xB40, symBinAddr: 0x100018334, symSize: 0xB8 }
  - { offset: 0x2A871, size: 0x8, addend: 0x0, symName: ___llvm_profile_register_write_file_atexit, symObjAddr: 0xBF8, symBinAddr: 0x1000183EC, symSize: 0x44 }
  - { offset: 0x2A8E5, size: 0x8, addend: 0x0, symName: ___llvm_profile_set_filename, symObjAddr: 0xC3C, symBinAddr: 0x100018430, symSize: 0x38 }
  - { offset: 0x2A8ED, size: 0x8, addend: 0x0, symName: ___llvm_profile_write_file, symObjAddr: 0xC74, symBinAddr: 0x100018468, symSize: 0x1B4 }
  - { offset: 0x2A916, size: 0x8, addend: 0x0, symName: ___llvm_profile_write_file, symObjAddr: 0xC74, symBinAddr: 0x100018468, symSize: 0x1B4 }
  - { offset: 0x2A91E, size: 0x8, addend: 0x0, symName: _writeFile, symObjAddr: 0xE28, symBinAddr: 0x10001861C, symSize: 0x294 }
  - { offset: 0x2AA73, size: 0x8, addend: 0x0, symName: _writeFile, symObjAddr: 0xE28, symBinAddr: 0x10001861C, symSize: 0x294 }
  - { offset: 0x2AA7B, size: 0x8, addend: 0x0, symName: ___llvm_profile_dump, symObjAddr: 0x10BC, symBinAddr: 0x1000188B0, symSize: 0x6C }
  - { offset: 0x2ABE1, size: 0x8, addend: 0x0, symName: ___llvm_profile_dump, symObjAddr: 0x10BC, symBinAddr: 0x1000188B0, symSize: 0x6C }
  - { offset: 0x2ABE9, size: 0x8, addend: 0x0, symName: ___llvm_orderfile_write_file, symObjAddr: 0x1128, symBinAddr: 0x10001891C, symSize: 0x260 }
  - { offset: 0x2ACA4, size: 0x8, addend: 0x0, symName: ___llvm_orderfile_write_file, symObjAddr: 0x1128, symBinAddr: 0x10001891C, symSize: 0x260 }
  - { offset: 0x2ACAC, size: 0x8, addend: 0x0, symName: ___llvm_orderfile_dump, symObjAddr: 0x1388, symBinAddr: 0x100018B7C, symSize: 0x4 }
  - { offset: 0x2ADA9, size: 0x8, addend: 0x0, symName: ___llvm_orderfile_dump, symObjAddr: 0x1388, symBinAddr: 0x100018B7C, symSize: 0x4 }
  - { offset: 0x2ADB1, size: 0x8, addend: 0x0, symName: _writeFileWithoutReturn, symObjAddr: 0x138C, symBinAddr: 0x100018B80, symSize: 0x4 }
  - { offset: 0x2ADD9, size: 0x8, addend: 0x0, symName: _writeFileWithoutReturn, symObjAddr: 0x138C, symBinAddr: 0x100018B80, symSize: 0x4 }
  - { offset: 0x2ADE1, size: 0x8, addend: 0x0, symName: ___llvm_profile_set_file_object, symObjAddr: 0x1390, symBinAddr: 0x100018B84, symSize: 0x1E4 }
  - { offset: 0x2AE29, size: 0x8, addend: 0x0, symName: ___llvm_profile_set_file_object, symObjAddr: 0x1390, symBinAddr: 0x100018B84, symSize: 0x1E4 }
  - { offset: 0x2AE31, size: 0x8, addend: 0x0, symName: _getProfileFileSizeForMerging, symObjAddr: 0x1574, symBinAddr: 0x100018D68, symSize: 0x110 }
  - { offset: 0x2AF50, size: 0x8, addend: 0x0, symName: _getProfileFileSizeForMerging, symObjAddr: 0x1574, symBinAddr: 0x100018D68, symSize: 0x110 }
  - { offset: 0x2AF58, size: 0x8, addend: 0x0, symName: _mmapProfileForMerging, symObjAddr: 0x1684, symBinAddr: 0x100018E78, symSize: 0xBC }
  - { offset: 0x2AF95, size: 0x8, addend: 0x0, symName: _mmapProfileForMerging, symObjAddr: 0x1684, symBinAddr: 0x100018E78, symSize: 0xBC }
  - { offset: 0x2AF9D, size: 0x8, addend: 0x0, symName: _mmapForContinuousMode, symObjAddr: 0x1740, symBinAddr: 0x100018F34, symSize: 0x264 }
  - { offset: 0x2AFEB, size: 0x8, addend: 0x0, symName: _mmapForContinuousMode, symObjAddr: 0x1740, symBinAddr: 0x100018F34, symSize: 0x264 }
  - { offset: 0x2AFF3, size: 0x8, addend: 0x0, symName: _fileWriter, symObjAddr: 0x19A4, symBinAddr: 0x100019198, symSize: 0x140 }
  - { offset: 0x2B1B2, size: 0x8, addend: 0x0, symName: _fileWriter, symObjAddr: 0x19A4, symBinAddr: 0x100019198, symSize: 0x140 }
  - { offset: 0x2B1BA, size: 0x8, addend: 0x0, symName: _truncateCurrentFile, symObjAddr: 0x1AE4, symBinAddr: 0x1000192D8, symSize: 0xD8 }
  - { offset: 0x2B280, size: 0x8, addend: 0x0, symName: _truncateCurrentFile, symObjAddr: 0x1AE4, symBinAddr: 0x1000192D8, symSize: 0xD8 }
  - { offset: 0x2B288, size: 0x8, addend: 0x0, symName: _initializeProfileForContinuousMode, symObjAddr: 0x1BBC, symBinAddr: 0x1000193B0, symSize: 0x25C }
  - { offset: 0x2B324, size: 0x8, addend: 0x0, symName: _initializeProfileForContinuousMode, symObjAddr: 0x1BBC, symBinAddr: 0x1000193B0, symSize: 0x25C }
  - { offset: 0x2B32C, size: 0x8, addend: 0x0, symName: _createProfileDir, symObjAddr: 0x1E18, symBinAddr: 0x10001960C, symSize: 0xA4 }
  - { offset: 0x2B4F8, size: 0x8, addend: 0x0, symName: _createProfileDir, symObjAddr: 0x1E18, symBinAddr: 0x10001960C, symSize: 0xA4 }
  - { offset: 0x2B500, size: 0x8, addend: 0x0, symName: _parseAndSetFilename.cold.1, symObjAddr: 0x1EBC, symBinAddr: 0x1000A4368, symSize: 0x24 }
  - { offset: 0x2B55C, size: 0x8, addend: 0x0, symName: _parseAndSetFilename.cold.1, symObjAddr: 0x1EBC, symBinAddr: 0x1000A4368, symSize: 0x24 }
  - { offset: 0x2B564, size: 0x8, addend: 0x0, symName: _parseAndSetFilename.cold.2, symObjAddr: 0x1EE0, symBinAddr: 0x1000A438C, symSize: 0x24 }
  - { offset: 0x2B586, size: 0x8, addend: 0x0, symName: _parseAndSetFilename.cold.2, symObjAddr: 0x1EE0, symBinAddr: 0x1000A438C, symSize: 0x24 }
  - { offset: 0x2B5A0, size: 0x8, addend: 0x0, symName: _parseAndSetFilename.cold.2, symObjAddr: 0x1EE0, symBinAddr: 0x1000A438C, symSize: 0x24 }
  - { offset: 0x2B5B0, size: 0x8, addend: 0x0, symName: _parseAndSetFilename.cold.2, symObjAddr: 0x1EE0, symBinAddr: 0x1000A438C, symSize: 0x24 }
  - { offset: 0x2B774, size: 0x8, addend: 0x0, symName: _lprofProfileDumped, symObjAddr: 0x0, symBinAddr: 0x1000196B0, symSize: 0xC }
  - { offset: 0x2B791, size: 0x8, addend: 0x0, symName: _ProfileDumped, symObjAddr: 0x4E0, symBinAddr: 0x100100370, symSize: 0x0 }
  - { offset: 0x2B7A1, size: 0x8, addend: 0x0, symName: _lprofProfileDumped, symObjAddr: 0x0, symBinAddr: 0x1000196B0, symSize: 0xC }
  - { offset: 0x2B7A9, size: 0x8, addend: 0x0, symName: _lprofSetProfileDumped, symObjAddr: 0xC, symBinAddr: 0x1000196BC, symSize: 0xC }
  - { offset: 0x2B7C2, size: 0x8, addend: 0x0, symName: _lprofSetProfileDumped, symObjAddr: 0xC, symBinAddr: 0x1000196BC, symSize: 0xC }
  - { offset: 0x2B814, size: 0x8, addend: 0x0, symName: _lprofGetLoadModuleSignature, symObjAddr: 0x0, symBinAddr: 0x1000196C8, symSize: 0xD0 }
  - { offset: 0x2B841, size: 0x8, addend: 0x0, symName: _VPMergeHook, symBinAddr: 0x100100218, symSize: 0x0 }
  - { offset: 0x2BAA5, size: 0x8, addend: 0x0, symName: _lprofGetLoadModuleSignature, symObjAddr: 0x0, symBinAddr: 0x1000196C8, symSize: 0xD0 }
  - { offset: 0x2BAAD, size: 0x8, addend: 0x0, symName: ___llvm_profile_check_compatibility, symObjAddr: 0xD0, symBinAddr: 0x100019798, symSize: 0x1CC }
  - { offset: 0x2BB1C, size: 0x8, addend: 0x0, symName: ___llvm_profile_check_compatibility, symObjAddr: 0xD0, symBinAddr: 0x100019798, symSize: 0x1CC }
  - { offset: 0x2BB24, size: 0x8, addend: 0x0, symName: ___llvm_profile_merge_from_buffer, symObjAddr: 0x29C, symBinAddr: 0x100019964, symSize: 0x48C }
  - { offset: 0x2BBFC, size: 0x8, addend: 0x0, symName: ___llvm_profile_merge_from_buffer, symObjAddr: 0x29C, symBinAddr: 0x100019964, symSize: 0x48C }
  - { offset: 0x2BE60, size: 0x8, addend: 0x0, symName: _lprofMergeValueProfData, symObjAddr: 0x0, symBinAddr: 0x100019DF0, symSize: 0xF0 }
  - { offset: 0x2BE71, size: 0x8, addend: 0x0, symName: _lprofMergeValueProfData, symObjAddr: 0x0, symBinAddr: 0x100019DF0, symSize: 0xF0 }
  - { offset: 0x2C13C, size: 0x8, addend: 0x0, symName: ___llvm_profile_begin_data, symObjAddr: 0x0, symBinAddr: 0x100019EE0, symSize: 0xC }
  - { offset: 0x2C15B, size: 0x8, addend: 0x0, symName: _CurrentVNode, symObjAddr: 0xC0, symBinAddr: 0x1000F8620, symSize: 0x0 }
  - { offset: 0x2C1D7, size: 0x8, addend: 0x0, symName: _EndVNode, symObjAddr: 0xC8, symBinAddr: 0x1000F8628, symSize: 0x0 }
  - { offset: 0x2C1E0, size: 0x8, addend: 0x0, symName: ___llvm_profile_begin_data, symObjAddr: 0x0, symBinAddr: 0x100019EE0, symSize: 0xC }
  - { offset: 0x2C1E8, size: 0x8, addend: 0x0, symName: ___llvm_profile_end_data, symObjAddr: 0xC, symBinAddr: 0x100019EEC, symSize: 0xC }
  - { offset: 0x2C201, size: 0x8, addend: 0x0, symName: ___llvm_profile_end_data, symObjAddr: 0xC, symBinAddr: 0x100019EEC, symSize: 0xC }
  - { offset: 0x2C209, size: 0x8, addend: 0x0, symName: ___llvm_profile_begin_names, symObjAddr: 0x18, symBinAddr: 0x100019EF8, symSize: 0xC }
  - { offset: 0x2C222, size: 0x8, addend: 0x0, symName: ___llvm_profile_begin_names, symObjAddr: 0x18, symBinAddr: 0x100019EF8, symSize: 0xC }
  - { offset: 0x2C22A, size: 0x8, addend: 0x0, symName: ___llvm_profile_end_names, symObjAddr: 0x24, symBinAddr: 0x100019F04, symSize: 0xC }
  - { offset: 0x2C243, size: 0x8, addend: 0x0, symName: ___llvm_profile_end_names, symObjAddr: 0x24, symBinAddr: 0x100019F04, symSize: 0xC }
  - { offset: 0x2C24B, size: 0x8, addend: 0x0, symName: ___llvm_profile_begin_counters, symObjAddr: 0x30, symBinAddr: 0x100019F10, symSize: 0xC }
  - { offset: 0x2C264, size: 0x8, addend: 0x0, symName: ___llvm_profile_begin_counters, symObjAddr: 0x30, symBinAddr: 0x100019F10, symSize: 0xC }
  - { offset: 0x2C26C, size: 0x8, addend: 0x0, symName: ___llvm_profile_end_counters, symObjAddr: 0x3C, symBinAddr: 0x100019F1C, symSize: 0xC }
  - { offset: 0x2C285, size: 0x8, addend: 0x0, symName: ___llvm_profile_end_counters, symObjAddr: 0x3C, symBinAddr: 0x100019F1C, symSize: 0xC }
  - { offset: 0x2C28D, size: 0x8, addend: 0x0, symName: ___llvm_profile_begin_bitmap, symObjAddr: 0x48, symBinAddr: 0x100019F28, symSize: 0xC }
  - { offset: 0x2C2A6, size: 0x8, addend: 0x0, symName: ___llvm_profile_begin_bitmap, symObjAddr: 0x48, symBinAddr: 0x100019F28, symSize: 0xC }
  - { offset: 0x2C2AE, size: 0x8, addend: 0x0, symName: ___llvm_profile_end_bitmap, symObjAddr: 0x54, symBinAddr: 0x100019F34, symSize: 0xC }
  - { offset: 0x2C2C7, size: 0x8, addend: 0x0, symName: ___llvm_profile_end_bitmap, symObjAddr: 0x54, symBinAddr: 0x100019F34, symSize: 0xC }
  - { offset: 0x2C2CF, size: 0x8, addend: 0x0, symName: ___llvm_profile_begin_vtables, symObjAddr: 0x60, symBinAddr: 0x100019F40, symSize: 0xC }
  - { offset: 0x2C2E9, size: 0x8, addend: 0x0, symName: ___llvm_profile_begin_vtables, symObjAddr: 0x60, symBinAddr: 0x100019F40, symSize: 0xC }
  - { offset: 0x2C2F1, size: 0x8, addend: 0x0, symName: ___llvm_profile_end_vtables, symObjAddr: 0x6C, symBinAddr: 0x100019F4C, symSize: 0xC }
  - { offset: 0x2C30A, size: 0x8, addend: 0x0, symName: ___llvm_profile_end_vtables, symObjAddr: 0x6C, symBinAddr: 0x100019F4C, symSize: 0xC }
  - { offset: 0x2C312, size: 0x8, addend: 0x0, symName: ___llvm_profile_begin_vtabnames, symObjAddr: 0x78, symBinAddr: 0x100019F58, symSize: 0xC }
  - { offset: 0x2C32A, size: 0x8, addend: 0x0, symName: ___llvm_profile_begin_vtabnames, symObjAddr: 0x78, symBinAddr: 0x100019F58, symSize: 0xC }
  - { offset: 0x2C332, size: 0x8, addend: 0x0, symName: ___llvm_profile_end_vtabnames, symObjAddr: 0x84, symBinAddr: 0x100019F64, symSize: 0xC }
  - { offset: 0x2C34B, size: 0x8, addend: 0x0, symName: ___llvm_profile_end_vtabnames, symObjAddr: 0x84, symBinAddr: 0x100019F64, symSize: 0xC }
  - { offset: 0x2C353, size: 0x8, addend: 0x0, symName: ___llvm_profile_begin_orderfile, symObjAddr: 0x90, symBinAddr: 0x100019F70, symSize: 0xC }
  - { offset: 0x2C36D, size: 0x8, addend: 0x0, symName: ___llvm_profile_begin_orderfile, symObjAddr: 0x90, symBinAddr: 0x100019F70, symSize: 0xC }
  - { offset: 0x2C375, size: 0x8, addend: 0x0, symName: ___llvm_profile_begin_vnodes, symObjAddr: 0x9C, symBinAddr: 0x100019F7C, symSize: 0xC }
  - { offset: 0x2C38E, size: 0x8, addend: 0x0, symName: ___llvm_profile_begin_vnodes, symObjAddr: 0x9C, symBinAddr: 0x100019F7C, symSize: 0xC }
  - { offset: 0x2C396, size: 0x8, addend: 0x0, symName: ___llvm_profile_end_vnodes, symObjAddr: 0xA8, symBinAddr: 0x100019F88, symSize: 0xC }
  - { offset: 0x2C3AF, size: 0x8, addend: 0x0, symName: ___llvm_profile_end_vnodes, symObjAddr: 0xA8, symBinAddr: 0x100019F88, symSize: 0xC }
  - { offset: 0x2C3B7, size: 0x8, addend: 0x0, symName: ___llvm_write_binary_ids, symObjAddr: 0xB4, symBinAddr: 0x100019F94, symSize: 0x8 }
  - { offset: 0x2C3CF, size: 0x8, addend: 0x0, symName: ___llvm_write_binary_ids, symObjAddr: 0xB4, symBinAddr: 0x100019F94, symSize: 0x8 }
  - { offset: 0x2C66E, size: 0x8, addend: 0x0, symName: ___llvm_profile_runtime, symObjAddr: 0x590, symBinAddr: 0x100100220, symSize: 0x0 }
  - { offset: 0x2C6A5, size: 0x8, addend: 0x0, symName: ___llvm_profile_recursive_mkdir, symObjAddr: 0x0, symBinAddr: 0x100019FB4, symSize: 0x58 }
  - { offset: 0x2C6AD, size: 0x8, addend: 0x0, symName: _lprofDirMode, symObjAddr: 0x5A8, symBinAddr: 0x1000F8630, symSize: 0x0 }
  - { offset: 0x2C6C4, size: 0x8, addend: 0x0, symName: _lprofDirMode, symObjAddr: 0x5A8, symBinAddr: 0x1000F8630, symSize: 0x0 }
  - { offset: 0x2C704, size: 0x8, addend: 0x0, symName: ___llvm_profile_recursive_mkdir, symObjAddr: 0x0, symBinAddr: 0x100019FB4, symSize: 0x58 }
  - { offset: 0x2C70C, size: 0x8, addend: 0x0, symName: ___llvm_profile_get_dir_mode, symObjAddr: 0x58, symBinAddr: 0x10001A00C, symSize: 0xC }
  - { offset: 0x2C782, size: 0x8, addend: 0x0, symName: ___llvm_profile_get_dir_mode, symObjAddr: 0x58, symBinAddr: 0x10001A00C, symSize: 0xC }
  - { offset: 0x2C78A, size: 0x8, addend: 0x0, symName: ___llvm_profile_set_dir_mode, symObjAddr: 0x64, symBinAddr: 0x10001A018, symSize: 0xC }
  - { offset: 0x2C79A, size: 0x8, addend: 0x0, symName: ___llvm_profile_set_dir_mode, symObjAddr: 0x64, symBinAddr: 0x10001A018, symSize: 0xC }
  - { offset: 0x2C7A2, size: 0x8, addend: 0x0, symName: _lprofGetHostName, symObjAddr: 0x70, symBinAddr: 0x10001A024, symSize: 0x80 }
  - { offset: 0x2C7C5, size: 0x8, addend: 0x0, symName: _lprofGetHostName, symObjAddr: 0x70, symBinAddr: 0x10001A024, symSize: 0x80 }
  - { offset: 0x2C7CD, size: 0x8, addend: 0x0, symName: _lprofLockFd, symObjAddr: 0xF0, symBinAddr: 0x10001A0A4, symSize: 0x8C }
  - { offset: 0x2C822, size: 0x8, addend: 0x0, symName: _lprofLockFd, symObjAddr: 0xF0, symBinAddr: 0x10001A0A4, symSize: 0x8C }
  - { offset: 0x2C82A, size: 0x8, addend: 0x0, symName: _lprofUnlockFd, symObjAddr: 0x17C, symBinAddr: 0x10001A130, symSize: 0x8C }
  - { offset: 0x2C84C, size: 0x8, addend: 0x0, symName: _lprofUnlockFd, symObjAddr: 0x17C, symBinAddr: 0x10001A130, symSize: 0x8C }
  - { offset: 0x2C854, size: 0x8, addend: 0x0, symName: _lprofLockFileHandle, symObjAddr: 0x208, symBinAddr: 0x10001A1BC, symSize: 0x90 }
  - { offset: 0x2C94E, size: 0x8, addend: 0x0, symName: _lprofLockFileHandle, symObjAddr: 0x208, symBinAddr: 0x10001A1BC, symSize: 0x90 }
  - { offset: 0x2C956, size: 0x8, addend: 0x0, symName: _lprofUnlockFileHandle, symObjAddr: 0x298, symBinAddr: 0x10001A24C, symSize: 0x90 }
  - { offset: 0x2C9DC, size: 0x8, addend: 0x0, symName: _lprofUnlockFileHandle, symObjAddr: 0x298, symBinAddr: 0x10001A24C, symSize: 0x90 }
  - { offset: 0x2C9E4, size: 0x8, addend: 0x0, symName: _lprofOpenFileEx, symObjAddr: 0x328, symBinAddr: 0x10001A2DC, symSize: 0xD0 }
  - { offset: 0x2CA44, size: 0x8, addend: 0x0, symName: _lprofOpenFileEx, symObjAddr: 0x328, symBinAddr: 0x10001A2DC, symSize: 0xD0 }
  - { offset: 0x2CA4C, size: 0x8, addend: 0x0, symName: _lprofGetPathPrefix, symObjAddr: 0x3F8, symBinAddr: 0x10001A3AC, symSize: 0x98 }
  - { offset: 0x2CABB, size: 0x8, addend: 0x0, symName: _lprofGetPathPrefix, symObjAddr: 0x3F8, symBinAddr: 0x10001A3AC, symSize: 0x98 }
  - { offset: 0x2CAC3, size: 0x8, addend: 0x0, symName: _lprofApplyPathPrefix, symObjAddr: 0x490, symBinAddr: 0x10001A444, symSize: 0xA8 }
  - { offset: 0x2CB20, size: 0x8, addend: 0x0, symName: _lprofApplyPathPrefix, symObjAddr: 0x490, symBinAddr: 0x10001A444, symSize: 0xA8 }
  - { offset: 0x2CB28, size: 0x8, addend: 0x0, symName: _lprofFindFirstDirSeparator, symObjAddr: 0x538, symBinAddr: 0x10001A4EC, symSize: 0x8 }
  - { offset: 0x2CBC3, size: 0x8, addend: 0x0, symName: _lprofFindFirstDirSeparator, symObjAddr: 0x538, symBinAddr: 0x10001A4EC, symSize: 0x8 }
  - { offset: 0x2CBCB, size: 0x8, addend: 0x0, symName: _lprofFindLastDirSeparator, symObjAddr: 0x540, symBinAddr: 0x10001A4F4, symSize: 0x8 }
  - { offset: 0x2CC02, size: 0x8, addend: 0x0, symName: _lprofFindLastDirSeparator, symObjAddr: 0x540, symBinAddr: 0x10001A4F4, symSize: 0x8 }
  - { offset: 0x2CC0A, size: 0x8, addend: 0x0, symName: _lprofSuspendSigKill, symObjAddr: 0x548, symBinAddr: 0x10001A4FC, symSize: 0x8 }
  - { offset: 0x2CC41, size: 0x8, addend: 0x0, symName: _lprofSuspendSigKill, symObjAddr: 0x548, symBinAddr: 0x10001A4FC, symSize: 0x8 }
  - { offset: 0x2CC49, size: 0x8, addend: 0x0, symName: _lprofRestoreSigKill, symObjAddr: 0x550, symBinAddr: 0x10001A504, symSize: 0x4 }
  - { offset: 0x2CC63, size: 0x8, addend: 0x0, symName: _lprofRestoreSigKill, symObjAddr: 0x550, symBinAddr: 0x10001A504, symSize: 0x4 }
  - { offset: 0x2CC6B, size: 0x8, addend: 0x0, symName: _lprofReleaseMemoryPagesToOS, symObjAddr: 0x554, symBinAddr: 0x10001A508, symSize: 0x54 }
  - { offset: 0x2CCE1, size: 0x8, addend: 0x0, symName: _lprofReleaseMemoryPagesToOS, symObjAddr: 0x554, symBinAddr: 0x10001A508, symSize: 0x54 }
  - { offset: 0x2CCE9, size: 0x8, addend: 0x0, symName: _lprofDirMode, symObjAddr: 0x5A8, symBinAddr: 0x1000F8630, symSize: 0x0 }
  - { offset: 0x2D03E, size: 0x8, addend: 0x0, symName: _getValueProfRecordHeaderSize, symObjAddr: 0x0, symBinAddr: 0x10001A55C, symSize: 0xC }
  - { offset: 0x2D05D, size: 0x8, addend: 0x0, symName: _VPMaxNumValsPerSite, symObjAddr: 0x1740, symBinAddr: 0x1000F8638, symSize: 0x0 }
  - { offset: 0x2D094, size: 0x8, addend: 0x0, symName: _lprofValueProfNodes, symObjAddr: 0x18C0, symBinAddr: 0x1000FA058, symSize: 0x0 }
  - { offset: 0x2D117, size: 0x8, addend: 0x0, symName: __MergedGlobals, symObjAddr: 0xEF68, symBinAddr: 0x1001003A0, symSize: 0x0 }
  - { offset: 0x2D13E, size: 0x8, addend: 0x0, symName: __MergedGlobals, symObjAddr: 0xEF68, symBinAddr: 0x1001003A0, symSize: 0x0 }
  - { offset: 0x2D155, size: 0x8, addend: 0x0, symName: __MergedGlobals, symObjAddr: 0xEF68, symBinAddr: 0x1001003A0, symSize: 0x0 }
  - { offset: 0x2D175, size: 0x8, addend: 0x0, symName: _TheVPDataReader, symObjAddr: 0x1748, symBinAddr: 0x1000F8640, symSize: 0x0 }
  - { offset: 0x2D416, size: 0x8, addend: 0x0, symName: _RTRecord, symObjAddr: 0xEF40, symBinAddr: 0x100100378, symSize: 0x0 }
  - { offset: 0x2D60A, size: 0x8, addend: 0x0, symName: _getValueProfRecordHeaderSize, symObjAddr: 0x0, symBinAddr: 0x10001A55C, symSize: 0xC }
  - { offset: 0x2D612, size: 0x8, addend: 0x0, symName: _getValueProfRecordSize, symObjAddr: 0xC, symBinAddr: 0x10001A568, symSize: 0x10 }
  - { offset: 0x2D65F, size: 0x8, addend: 0x0, symName: _getValueProfRecordSize, symObjAddr: 0xC, symBinAddr: 0x10001A568, symSize: 0x10 }
  - { offset: 0x2D667, size: 0x8, addend: 0x0, symName: _getValueProfRecordValueData, symObjAddr: 0x1C, symBinAddr: 0x10001A578, symSize: 0x14 }
  - { offset: 0x2D68C, size: 0x8, addend: 0x0, symName: _getValueProfRecordSize, symObjAddr: 0xC, symBinAddr: 0x10001A568, symSize: 0x10 }
  - { offset: 0x2D6B3, size: 0x8, addend: 0x0, symName: _getValueProfRecordValueData, symObjAddr: 0x1C, symBinAddr: 0x10001A578, symSize: 0x14 }
  - { offset: 0x2D6BB, size: 0x8, addend: 0x0, symName: _getValueProfRecordNumValueData, symObjAddr: 0x30, symBinAddr: 0x10001A58C, symSize: 0x184 }
  - { offset: 0x2D6FF, size: 0x8, addend: 0x0, symName: _getValueProfRecordNumValueData, symObjAddr: 0x30, symBinAddr: 0x10001A58C, symSize: 0x184 }
  - { offset: 0x2D707, size: 0x8, addend: 0x0, symName: _getValueProfRecordNext, symObjAddr: 0x1B4, symBinAddr: 0x10001A710, symSize: 0x1A4 }
  - { offset: 0x2D793, size: 0x8, addend: 0x0, symName: _getValueProfRecordNext, symObjAddr: 0x1B4, symBinAddr: 0x10001A710, symSize: 0x1A4 }
  - { offset: 0x2D79B, size: 0x8, addend: 0x0, symName: _getFirstValueProfRecord, symObjAddr: 0x358, symBinAddr: 0x10001A8B4, symSize: 0x8 }
  - { offset: 0x2D802, size: 0x8, addend: 0x0, symName: _getFirstValueProfRecord, symObjAddr: 0x358, symBinAddr: 0x10001A8B4, symSize: 0x8 }
  - { offset: 0x2D80A, size: 0x8, addend: 0x0, symName: _getValueProfDataSize, symObjAddr: 0x360, symBinAddr: 0x10001A8BC, symSize: 0xEC }
  - { offset: 0x2D824, size: 0x8, addend: 0x0, symName: _getValueProfDataSize, symObjAddr: 0x360, symBinAddr: 0x10001A8BC, symSize: 0xEC }
  - { offset: 0x2D82C, size: 0x8, addend: 0x0, symName: _serializeValueProfRecordFrom, symObjAddr: 0x44C, symBinAddr: 0x10001A9A8, symSize: 0x9C }
  - { offset: 0x2D8D1, size: 0x8, addend: 0x0, symName: _serializeValueProfRecordFrom, symObjAddr: 0x44C, symBinAddr: 0x10001A9A8, symSize: 0x9C }
  - { offset: 0x2D8D9, size: 0x8, addend: 0x0, symName: _serializeValueProfDataFrom, symObjAddr: 0x4E8, symBinAddr: 0x10001AA44, symSize: 0x5CC }
  - { offset: 0x2DA9C, size: 0x8, addend: 0x0, symName: _serializeValueProfDataFrom, symObjAddr: 0x4E8, symBinAddr: 0x10001AA44, symSize: 0x5CC }
  - { offset: 0x2DAA4, size: 0x8, addend: 0x0, symName: _InstProfClzll, symObjAddr: 0xAB4, symBinAddr: 0x10001B010, symSize: 0x8 }
  - { offset: 0x2DCCE, size: 0x8, addend: 0x0, symName: _InstProfClzll, symObjAddr: 0xAB4, symBinAddr: 0x10001B010, symSize: 0x8 }
  - { offset: 0x2DCD6, size: 0x8, addend: 0x0, symName: _InstProfPopcountll, symObjAddr: 0xABC, symBinAddr: 0x10001B018, symSize: 0x14 }
  - { offset: 0x2DCF0, size: 0x8, addend: 0x0, symName: _InstProfPopcountll, symObjAddr: 0xABC, symBinAddr: 0x10001B018, symSize: 0x14 }
  - { offset: 0x2DCF8, size: 0x8, addend: 0x0, symName: _InstrProfGetRangeRepValue, symObjAddr: 0xAD0, symBinAddr: 0x10001B02C, symSize: 0x48 }
  - { offset: 0x2DD4E, size: 0x8, addend: 0x0, symName: _InstrProfGetRangeRepValue, symObjAddr: 0xAD0, symBinAddr: 0x10001B02C, symSize: 0x48 }
  - { offset: 0x2DD56, size: 0x8, addend: 0x0, symName: _InstrProfIsSingleValRange, symObjAddr: 0xB18, symBinAddr: 0x10001B074, symSize: 0x20 }
  - { offset: 0x2DDB5, size: 0x8, addend: 0x0, symName: _InstrProfIsSingleValRange, symObjAddr: 0xB18, symBinAddr: 0x10001B074, symSize: 0x20 }
  - { offset: 0x2DDBD, size: 0x8, addend: 0x0, symName: _lprofSetupValueProfiler, symObjAddr: 0xB38, symBinAddr: 0x10001B094, symSize: 0x64 }
  - { offset: 0x2DDEA, size: 0x8, addend: 0x0, symName: _lprofSetupValueProfiler, symObjAddr: 0xB38, symBinAddr: 0x10001B094, symSize: 0x64 }
  - { offset: 0x2DDF2, size: 0x8, addend: 0x0, symName: _lprofSetMaxValsPerSite, symObjAddr: 0xB9C, symBinAddr: 0x10001B0F8, symSize: 0x18 }
  - { offset: 0x2DE16, size: 0x8, addend: 0x0, symName: _lprofSetMaxValsPerSite, symObjAddr: 0xB9C, symBinAddr: 0x10001B0F8, symSize: 0x18 }
  - { offset: 0x2DE1E, size: 0x8, addend: 0x0, symName: ___llvm_profile_set_num_value_sites, symObjAddr: 0xBB4, symBinAddr: 0x10001B110, symSize: 0xC }
  - { offset: 0x2DE41, size: 0x8, addend: 0x0, symName: ___llvm_profile_set_num_value_sites, symObjAddr: 0xBB4, symBinAddr: 0x10001B110, symSize: 0xC }
  - { offset: 0x2DE49, size: 0x8, addend: 0x0, symName: ___llvm_profile_iterate_data, symObjAddr: 0xBC0, symBinAddr: 0x10001B11C, symSize: 0x8 }
  - { offset: 0x2DE86, size: 0x8, addend: 0x0, symName: ___llvm_profile_iterate_data, symObjAddr: 0xBC0, symBinAddr: 0x10001B11C, symSize: 0x8 }
  - { offset: 0x2DE8E, size: 0x8, addend: 0x0, symName: ___llvm_get_function_addr, symObjAddr: 0xBC8, symBinAddr: 0x10001B124, symSize: 0x8 }
  - { offset: 0x2DEB7, size: 0x8, addend: 0x0, symName: ___llvm_get_function_addr, symObjAddr: 0xBC8, symBinAddr: 0x10001B124, symSize: 0x8 }
  - { offset: 0x2DEBF, size: 0x8, addend: 0x0, symName: ___llvm_profile_instrument_target, symObjAddr: 0xBD0, symBinAddr: 0x10001B12C, symSize: 0x260 }
  - { offset: 0x2DFCD, size: 0x8, addend: 0x0, symName: ___llvm_profile_instrument_target, symObjAddr: 0xBD0, symBinAddr: 0x10001B12C, symSize: 0x260 }
  - { offset: 0x2DFD5, size: 0x8, addend: 0x0, symName: ___llvm_profile_instrument_target_value, symObjAddr: 0xE30, symBinAddr: 0x10001B38C, symSize: 0x290 }
  - { offset: 0x2E0DB, size: 0x8, addend: 0x0, symName: ___llvm_profile_instrument_target_value, symObjAddr: 0xE30, symBinAddr: 0x10001B38C, symSize: 0x290 }
  - { offset: 0x2E0E3, size: 0x8, addend: 0x0, symName: ___llvm_profile_instrument_memop, symObjAddr: 0x10C0, symBinAddr: 0x10001B61C, symSize: 0x48 }
  - { offset: 0x2E217, size: 0x8, addend: 0x0, symName: ___llvm_profile_instrument_memop, symObjAddr: 0x10C0, symBinAddr: 0x10001B61C, symSize: 0x48 }
  - { offset: 0x2E21F, size: 0x8, addend: 0x0, symName: _lprofGetVPDataReader, symObjAddr: 0x1108, symBinAddr: 0x10001B664, symSize: 0xC }
  - { offset: 0x2E2D3, size: 0x8, addend: 0x0, symName: _lprofGetVPDataReader, symObjAddr: 0x1108, symBinAddr: 0x10001B664, symSize: 0xC }
  - { offset: 0x2E2DB, size: 0x8, addend: 0x0, symName: _initializeValueProfRuntimeRecord, symObjAddr: 0x1114, symBinAddr: 0x10001B670, symSize: 0x210 }
  - { offset: 0x2E2F5, size: 0x8, addend: 0x0, symName: _initializeValueProfRuntimeRecord, symObjAddr: 0x1114, symBinAddr: 0x10001B670, symSize: 0x210 }
  - { offset: 0x2E2FD, size: 0x8, addend: 0x0, symName: _getNumValueDataForSiteWrapper, symObjAddr: 0x1324, symBinAddr: 0x10001B880, symSize: 0x14 }
  - { offset: 0x2E415, size: 0x8, addend: 0x0, symName: _getNumValueDataForSiteWrapper, symObjAddr: 0x1324, symBinAddr: 0x10001B880, symSize: 0x14 }
  - { offset: 0x2E41D, size: 0x8, addend: 0x0, symName: _getValueProfDataSizeWrapper, symObjAddr: 0x1338, symBinAddr: 0x10001B894, symSize: 0xDC }
  - { offset: 0x2E45B, size: 0x8, addend: 0x0, symName: _getNumValueDataForSiteWrapper, symObjAddr: 0x1324, symBinAddr: 0x10001B880, symSize: 0x14 }
  - { offset: 0x2E481, size: 0x8, addend: 0x0, symName: _getValueProfDataSizeWrapper, symObjAddr: 0x1338, symBinAddr: 0x10001B894, symSize: 0xDC }
  - { offset: 0x2E489, size: 0x8, addend: 0x0, symName: _getNextNValueData, symObjAddr: 0x1414, symBinAddr: 0x10001B970, symSize: 0x44 }
  - { offset: 0x2E520, size: 0x8, addend: 0x0, symName: _getNextNValueData, symObjAddr: 0x1414, symBinAddr: 0x10001B970, symSize: 0x44 }
  - { offset: 0x2E528, size: 0x8, addend: 0x0, symName: _getNumValueSitesRT, symObjAddr: 0x1458, symBinAddr: 0x10001B9B4, symSize: 0x10 }
  - { offset: 0x2E5B6, size: 0x8, addend: 0x0, symName: _getNumValueSitesRT, symObjAddr: 0x1458, symBinAddr: 0x10001B9B4, symSize: 0x10 }
  - { offset: 0x2E5BE, size: 0x8, addend: 0x0, symName: _getNumValueDataRT, symObjAddr: 0x1468, symBinAddr: 0x10001B9C4, symSize: 0x190 }
  - { offset: 0x2E5F9, size: 0x8, addend: 0x0, symName: _getNumValueDataRT, symObjAddr: 0x1468, symBinAddr: 0x10001B9C4, symSize: 0x190 }
  - { offset: 0x2E601, size: 0x8, addend: 0x0, symName: ___llvm_profile_instrument_target.cold.1, symObjAddr: 0x15F8, symBinAddr: 0x1000A43B0, symSize: 0x24 }
  - { offset: 0x2E66F, size: 0x8, addend: 0x0, symName: ___llvm_profile_instrument_target.cold.1, symObjAddr: 0x15F8, symBinAddr: 0x1000A43B0, symSize: 0x24 }
  - { offset: 0x2E677, size: 0x8, addend: 0x0, symName: ___llvm_profile_instrument_target_value.cold.1, symObjAddr: 0x161C, symBinAddr: 0x1000A43D4, symSize: 0x24 }
  - { offset: 0x2E698, size: 0x8, addend: 0x0, symName: ___llvm_profile_instrument_target_value.cold.1, symObjAddr: 0x161C, symBinAddr: 0x1000A43D4, symSize: 0x24 }
  - { offset: 0x2E6B0, size: 0x8, addend: 0x0, symName: ___llvm_profile_instrument_target_value.cold.1, symObjAddr: 0x161C, symBinAddr: 0x1000A43D4, symSize: 0x24 }
  - { offset: 0x2E6BF, size: 0x8, addend: 0x0, symName: ___llvm_profile_instrument_target_value.cold.1, symObjAddr: 0x161C, symBinAddr: 0x1000A43D4, symSize: 0x24 }
  - { offset: 0x2E74F, size: 0x8, addend: 0x0, symName: ___llvm_profile_raw_version, symObjAddr: 0x0, symBinAddr: 0x1000F8670, symSize: 0x0 }
  - { offset: 0x2E791, size: 0x8, addend: 0x0, symName: _lprofBufferWriter, symObjAddr: 0x0, symBinAddr: 0x10001BB54, symSize: 0x6C }
  - { offset: 0x2E7B0, size: 0x8, addend: 0x0, symName: _FreeHook, symObjAddr: 0x4F30, symBinAddr: 0x100100228, symSize: 0x0 }
  - { offset: 0x2E7D6, size: 0x8, addend: 0x0, symName: _DynamicBufferIOBuffer, symObjAddr: 0x4F38, symBinAddr: 0x100100230, symSize: 0x0 }
  - { offset: 0x2E804, size: 0x8, addend: 0x0, symName: _VPBufferSize, symObjAddr: 0x4F40, symBinAddr: 0x100100238, symSize: 0x0 }
  - { offset: 0x2E82B, size: 0x8, addend: 0x0, symName: __MergedGlobals, symObjAddr: 0x6F48, symBinAddr: 0x1001023B0, symSize: 0x0 }
  - { offset: 0x2E975, size: 0x8, addend: 0x0, symName: _BufferIOBuffer, symObjAddr: 0x4F48, symBinAddr: 0x1001003B0, symSize: 0x0 }
  - { offset: 0x2E99F, size: 0x8, addend: 0x0, symName: __MergedGlobals, symObjAddr: 0x6F48, symBinAddr: 0x1001023B0, symSize: 0x0 }
  - { offset: 0x2EA1B, size: 0x8, addend: 0x0, symName: _lprofBufferWriter, symObjAddr: 0x0, symBinAddr: 0x10001BB54, symSize: 0x6C }
  - { offset: 0x2EA23, size: 0x8, addend: 0x0, symName: _lprofCreateBufferIO, symObjAddr: 0x6C, symBinAddr: 0x10001BBC0, symSize: 0x48 }
  - { offset: 0x2EAAB, size: 0x8, addend: 0x0, symName: _lprofCreateBufferIO, symObjAddr: 0x6C, symBinAddr: 0x10001BBC0, symSize: 0x48 }
  - { offset: 0x2EAB3, size: 0x8, addend: 0x0, symName: _lprofDeleteBufferIO, symObjAddr: 0xB4, symBinAddr: 0x10001BC08, symSize: 0x4C }
  - { offset: 0x2EB06, size: 0x8, addend: 0x0, symName: _lprofDeleteBufferIO, symObjAddr: 0xB4, symBinAddr: 0x10001BC08, symSize: 0x4C }
  - { offset: 0x2EB0E, size: 0x8, addend: 0x0, symName: _lprofBufferIOWrite, symObjAddr: 0x100, symBinAddr: 0x10001BC54, symSize: 0x134 }
  - { offset: 0x2EBB0, size: 0x8, addend: 0x0, symName: _lprofBufferIOWrite, symObjAddr: 0x100, symBinAddr: 0x10001BC54, symSize: 0x134 }
  - { offset: 0x2EBB8, size: 0x8, addend: 0x0, symName: _lprofBufferIOFlush, symObjAddr: 0x234, symBinAddr: 0x10001BD88, symSize: 0xC0 }
  - { offset: 0x2ECAD, size: 0x8, addend: 0x0, symName: _lprofBufferIOFlush, symObjAddr: 0x234, symBinAddr: 0x10001BD88, symSize: 0xC0 }
  - { offset: 0x2ECB5, size: 0x8, addend: 0x0, symName: _lprofWriteData, symObjAddr: 0x2F4, symBinAddr: 0x10001BE48, symSize: 0xD4 }
  - { offset: 0x2ECDE, size: 0x8, addend: 0x0, symName: _lprofWriteData, symObjAddr: 0x2F4, symBinAddr: 0x10001BE48, symSize: 0xD4 }
  - { offset: 0x2ECE6, size: 0x8, addend: 0x0, symName: _lprofWriteDataImpl, symObjAddr: 0x3C8, symBinAddr: 0x10001BF1C, symSize: 0x46C }
  - { offset: 0x2F10C, size: 0x8, addend: 0x0, symName: _lprofWriteDataImpl, symObjAddr: 0x3C8, symBinAddr: 0x10001BF1C, symSize: 0x46C }
  - { offset: 0x2F114, size: 0x8, addend: 0x0, symName: _lprofWriteOneBinaryId, symObjAddr: 0x834, symBinAddr: 0x10001C388, symSize: 0x8C }
  - { offset: 0x2F435, size: 0x8, addend: 0x0, symName: _lprofWriteOneBinaryId, symObjAddr: 0x834, symBinAddr: 0x10001C388, symSize: 0x8C }
  - { offset: 0x2F43D, size: 0x8, addend: 0x0, symName: _writeOneValueProfData, symObjAddr: 0x8C0, symBinAddr: 0x10001C414, symSize: 0x4A8 }
  - { offset: 0x2F4AD, size: 0x8, addend: 0x0, symName: _writeOneValueProfData, symObjAddr: 0x8C0, symBinAddr: 0x10001C414, symSize: 0x4A8 }
  - { offset: 0x2F77D, size: 0x8, addend: 0x0, symName: '__ZN108_$LT$alloc..collections..btree..map..Iter$LT$K$C$V$GT$$u20$as$u20$core..iter..traits..iterator..Iterator$GT$4next17h72af6d586fb705daE', symObjAddr: 0x0, symBinAddr: 0x10001C8BC, symSize: 0x13C }
  - { offset: 0x2FC46, size: 0x8, addend: 0x0, symName: '__ZN5alloc11collections5btree4node208Handle$LT$alloc..collections..btree..node..NodeRef$LT$alloc..collections..btree..node..marker..Mut$C$K$C$V$C$alloc..collections..btree..node..marker..Leaf$GT$$C$alloc..collections..btree..node..marker..KV$GT$5split17h83cb0d4b5dcc386eE', symObjAddr: 0xE474, symBinAddr: 0x10002AB68, symSize: 0x1D8 }
  - { offset: 0x30123, size: 0x8, addend: 0x0, symName: '__ZN5alloc11collections5btree4node208Handle$LT$alloc..collections..btree..node..NodeRef$LT$alloc..collections..btree..node..marker..Mut$C$K$C$V$C$alloc..collections..btree..node..marker..Leaf$GT$$C$alloc..collections..btree..node..marker..KV$GT$5split17hc6f87347b433a116E', symObjAddr: 0xE64C, symBinAddr: 0x10002AD40, symSize: 0x1CC }
  - { offset: 0x305D7, size: 0x8, addend: 0x0, symName: '__ZN5alloc11collections5btree4node212Handle$LT$alloc..collections..btree..node..NodeRef$LT$alloc..collections..btree..node..marker..Mut$C$K$C$V$C$alloc..collections..btree..node..marker..Internal$GT$$C$alloc..collections..btree..node..marker..KV$GT$5split17h2e83c4e5af9f09d0E', symObjAddr: 0xE818, symBinAddr: 0x10002AF0C, symSize: 0x2A8 }
  - { offset: 0x30CD7, size: 0x8, addend: 0x0, symName: '__ZN5alloc11collections5btree4node212Handle$LT$alloc..collections..btree..node..NodeRef$LT$alloc..collections..btree..node..marker..Mut$C$K$C$V$C$alloc..collections..btree..node..marker..Internal$GT$$C$alloc..collections..btree..node..marker..KV$GT$5split17h99bf6663766894d1E', symObjAddr: 0xEAC0, symBinAddr: 0x10002B1B4, symSize: 0x29C }
  - { offset: 0x313E6, size: 0x8, addend: 0x0, symName: '__ZN5alloc11collections5btree6remove259_$LT$impl$u20$alloc..collections..btree..node..Handle$LT$alloc..collections..btree..node..NodeRef$LT$alloc..collections..btree..node..marker..Mut$C$K$C$V$C$alloc..collections..btree..node..marker..Leaf$GT$$C$alloc..collections..btree..node..marker..KV$GT$$GT$14remove_leaf_kv17h5572f2f2101eea06E', symObjAddr: 0xF4E4, symBinAddr: 0x10002BBD8, symSize: 0x5B8 }
  - { offset: 0x3209E, size: 0x8, addend: 0x0, symName: '__ZN5alloc11collections5btree6remove259_$LT$impl$u20$alloc..collections..btree..node..Handle$LT$alloc..collections..btree..node..NodeRef$LT$alloc..collections..btree..node..marker..Mut$C$K$C$V$C$alloc..collections..btree..node..marker..Leaf$GT$$C$alloc..collections..btree..node..marker..KV$GT$$GT$14remove_leaf_kv17h621c038cfd960be5E', symObjAddr: 0xFA9C, symBinAddr: 0x10002C190, symSize: 0x5B8 }
  - { offset: 0x33BB8, size: 0x8, addend: 0x0, symName: '__ZN5alloc11collections5btree4node29BalancingContext$LT$K$C$V$GT$15bulk_steal_left17h5ad73c5a1cd4fc61E', symObjAddr: 0xED5C, symBinAddr: 0x10002B450, symSize: 0x288 }
  - { offset: 0x341F1, size: 0x8, addend: 0x0, symName: '__ZN5alloc11collections5btree4node29BalancingContext$LT$K$C$V$GT$16bulk_steal_right17hd17767b56be9ca08E', symObjAddr: 0xEFE4, symBinAddr: 0x10002B6D8, symSize: 0x2A8 }
  - { offset: 0x3490F, size: 0x8, addend: 0x0, symName: '__ZN5alloc11collections5btree4node29BalancingContext$LT$K$C$V$GT$8do_merge17h9664da17306ee4f1E', symObjAddr: 0xF28C, symBinAddr: 0x10002B980, symSize: 0x258 }
  - { offset: 0x350EB, size: 0x8, addend: 0x0, symName: '__ZN108_$LT$alloc..collections..btree..map..Iter$LT$K$C$V$GT$$u20$as$u20$core..iter..traits..iterator..Iterator$GT$4next17h72af6d586fb705daE', symObjAddr: 0x0, symBinAddr: 0x10001C8BC, symSize: 0x13C }
  - { offset: 0x354A5, size: 0x8, addend: 0x0, symName: '__ZN5alloc11collections5btree3map25BTreeMap$LT$K$C$V$C$A$GT$6insert17h5a0071cde28f6078E', symObjAddr: 0xCA54, symBinAddr: 0x100029148, symSize: 0x9BC }
  - { offset: 0x36C93, size: 0x8, addend: 0x0, symName: '__ZN5alloc11collections5btree3map25BTreeMap$LT$K$C$V$C$A$GT$6insert17h82fa5985676a7aa2E', symObjAddr: 0xD410, symBinAddr: 0x100029B04, symSize: 0x9F8 }
  - { offset: 0x38606, size: 0x8, addend: 0x0, symName: '__ZN5alloc11collections5btree3map25IntoIter$LT$K$C$V$C$A$GT$10dying_next17h12e3dcf500453660E', symObjAddr: 0xDE08, symBinAddr: 0x10002A4FC, symSize: 0x224 }
  - { offset: 0x389F5, size: 0x8, addend: 0x0, symName: '__ZN5alloc11collections5btree3map25IntoIter$LT$K$C$V$C$A$GT$10dying_next17h792957020d65e57cE', symObjAddr: 0xE02C, symBinAddr: 0x10002A720, symSize: 0x224 }
  - { offset: 0x38DE4, size: 0x8, addend: 0x0, symName: '__ZN5alloc11collections5btree3map25IntoIter$LT$K$C$V$C$A$GT$10dying_next17hb31974b0eaedc10cE', symObjAddr: 0xE250, symBinAddr: 0x10002A944, symSize: 0x224 }
  - { offset: 0x391D9, size: 0x8, addend: 0x0, symName: '__ZN94_$LT$alloc..collections..btree..map..BTreeMap$LT$K$C$V$C$A$GT$$u20$as$u20$core..fmt..Debug$GT$3fmt17hc35a8022216a2258E', symObjAddr: 0x18980, symBinAddr: 0x100034F90, symSize: 0xB8 }
  - { offset: 0x3A509, size: 0x8, addend: 0x0, symName: '__ZN5alloc7raw_vec19RawVec$LT$T$C$A$GT$8grow_one17h075c6c7443abaefeE', symObjAddr: 0x10450, symBinAddr: 0x10002CB44, symSize: 0xB4 }
  - { offset: 0x3A68B, size: 0x8, addend: 0x0, symName: '__ZN5alloc7raw_vec19RawVec$LT$T$C$A$GT$8grow_one17h166a1991bc1b1d4bE', symObjAddr: 0x10504, symBinAddr: 0x10002CBF8, symSize: 0xB4 }
  - { offset: 0x3A80D, size: 0x8, addend: 0x0, symName: '__ZN5alloc7raw_vec19RawVec$LT$T$C$A$GT$8grow_one17h16773fc118d04764E', symObjAddr: 0x105B8, symBinAddr: 0x10002CCAC, symSize: 0xCC }
  - { offset: 0x3A98F, size: 0x8, addend: 0x0, symName: '__ZN5alloc7raw_vec19RawVec$LT$T$C$A$GT$8grow_one17h26d3c3e0c0035d3aE', symObjAddr: 0x10684, symBinAddr: 0x10002CD78, symSize: 0xB4 }
  - { offset: 0x3AB11, size: 0x8, addend: 0x0, symName: '__ZN5alloc7raw_vec19RawVec$LT$T$C$A$GT$8grow_one17h2dcc28b3ce16ceb9E', symObjAddr: 0x10738, symBinAddr: 0x10002CE2C, symSize: 0xC8 }
  - { offset: 0x3AC93, size: 0x8, addend: 0x0, symName: '__ZN5alloc7raw_vec19RawVec$LT$T$C$A$GT$8grow_one17h34433ccfa33c1548E', symObjAddr: 0x10800, symBinAddr: 0x10002CEF4, symSize: 0xCC }
  - { offset: 0x3AE15, size: 0x8, addend: 0x0, symName: '__ZN5alloc7raw_vec19RawVec$LT$T$C$A$GT$8grow_one17h39d85b90b601d05aE', symObjAddr: 0x108CC, symBinAddr: 0x10002CFC0, symSize: 0xC8 }
  - { offset: 0x3AF97, size: 0x8, addend: 0x0, symName: '__ZN5alloc7raw_vec19RawVec$LT$T$C$A$GT$8grow_one17h3c721d352546eaf3E', symObjAddr: 0x10994, symBinAddr: 0x10002D088, symSize: 0xCC }
  - { offset: 0x3B119, size: 0x8, addend: 0x0, symName: '__ZN5alloc7raw_vec19RawVec$LT$T$C$A$GT$8grow_one17h586e05289c1bd44cE', symObjAddr: 0x10A60, symBinAddr: 0x10002D154, symSize: 0xA0 }
  - { offset: 0x3B244, size: 0x8, addend: 0x0, symName: '__ZN5alloc7raw_vec19RawVec$LT$T$C$A$GT$8grow_one17h5f91a7a76a6c09aeE', symObjAddr: 0x10B00, symBinAddr: 0x10002D1F4, symSize: 0xCC }
  - { offset: 0x3B3C6, size: 0x8, addend: 0x0, symName: '__ZN5alloc7raw_vec19RawVec$LT$T$C$A$GT$8grow_one17h80e9c1852df717ecE', symObjAddr: 0x10BCC, symBinAddr: 0x10002D2C0, symSize: 0xD4 }
  - { offset: 0x3B548, size: 0x8, addend: 0x0, symName: '__ZN5alloc7raw_vec19RawVec$LT$T$C$A$GT$8grow_one17hc17bf94f7bc0544cE', symObjAddr: 0x10CA0, symBinAddr: 0x10002D394, symSize: 0xB4 }
  - { offset: 0x3B6CA, size: 0x8, addend: 0x0, symName: '__ZN5alloc7raw_vec19RawVec$LT$T$C$A$GT$8grow_one17hc3a6727d65a81183E', symObjAddr: 0x10D54, symBinAddr: 0x10002D448, symSize: 0xCC }
  - { offset: 0x3B84C, size: 0x8, addend: 0x0, symName: '__ZN5alloc7raw_vec19RawVec$LT$T$C$A$GT$8grow_one17hf967a23dcc49c53fE', symObjAddr: 0x10E20, symBinAddr: 0x10002D514, symSize: 0xB4 }
  - { offset: 0x3C4F8, size: 0x8, addend: 0x0, symName: __ZN5alloc7raw_vec11finish_grow17h862ca5a250277ca2E, symObjAddr: 0x103C8, symBinAddr: 0x10002CABC, symSize: 0x88 }
  - { offset: 0x3C592, size: 0x8, addend: 0x0, symName: '__ZN5alloc7raw_vec20RawVecInner$LT$A$GT$7reserve21do_reserve_and_handle17h5bd7c8b81169b16eE', symObjAddr: 0x10ED4, symBinAddr: 0x1000A45C0, symSize: 0xE4 }
  - { offset: 0x3DD1C, size: 0x8, addend: 0x0, symName: '__ZN65_$LT$alloc..vec..Vec$LT$T$C$A$GT$$u20$as$u20$core..fmt..Debug$GT$3fmt17h7c2ad0cf10328a44E', symObjAddr: 0x17C40, symBinAddr: 0x100034250, symSize: 0x74 }
  - { offset: 0x3DE48, size: 0x8, addend: 0x0, symName: '__ZN65_$LT$alloc..vec..Vec$LT$T$C$A$GT$$u20$as$u20$core..fmt..Debug$GT$3fmt17hc81b2c0dfcc69ebaE', symObjAddr: 0x17CB4, symBinAddr: 0x1000342C4, symSize: 0x70 }
  - { offset: 0x3E616, size: 0x8, addend: 0x0, symName: '__ZN5alloc4sync16Arc$LT$T$C$A$GT$9drop_slow17h0aa5665700f36d09E', symObjAddr: 0x10054, symBinAddr: 0x10002C748, symSize: 0x44 }
  - { offset: 0x3E717, size: 0x8, addend: 0x0, symName: '__ZN5alloc4sync16Arc$LT$T$C$A$GT$9drop_slow17h387c17a8068f8b46E', symObjAddr: 0x10098, symBinAddr: 0x10002C78C, symSize: 0x7C }
  - { offset: 0x3E91C, size: 0x8, addend: 0x0, symName: '__ZN5alloc4sync16Arc$LT$T$C$A$GT$9drop_slow17h8140ef5e91500a1cE', symObjAddr: 0x10114, symBinAddr: 0x10002C808, symSize: 0xC4 }
  - { offset: 0x3EBC4, size: 0x8, addend: 0x0, symName: '__ZN5alloc4sync16Arc$LT$T$C$A$GT$9drop_slow17h838bbef7addedadcE', symObjAddr: 0x101D8, symBinAddr: 0x10002C8CC, symSize: 0xC0 }
  - { offset: 0x3ED4A, size: 0x8, addend: 0x0, symName: '__ZN5alloc4sync16Arc$LT$T$C$A$GT$9drop_slow17hd93bb8d0d3f31befE', symObjAddr: 0x10298, symBinAddr: 0x10002C98C, symSize: 0xA0 }
  - { offset: 0x3F069, size: 0x8, addend: 0x0, symName: '__ZN5alloc4sync16Arc$LT$T$C$A$GT$9drop_slow17hf04d07aeddb693f2E', symObjAddr: 0x10338, symBinAddr: 0x10002CA2C, symSize: 0x90 }
  - { offset: 0x3F83F, size: 0x8, addend: 0x0, symName: '__ZN64_$LT$alloc..ffi..c_str..NulError$u20$as$u20$core..fmt..Debug$GT$3fmt17h73df61ef3778c398E', symObjAddr: 0x17BF4, symBinAddr: 0x100034204, symSize: 0x4C }
  - { offset: 0x3FFEC, size: 0x8, addend: 0x0, symName: '__ZN58_$LT$alloc..string..String$u20$as$u20$core..fmt..Debug$GT$3fmt17hdfa762a84976360aE', symObjAddr: 0xC86C, symBinAddr: 0x100028F60, symSize: 0x1C }
  - { offset: 0x400A7, size: 0x8, addend: 0x0, symName: '__ZN58_$LT$alloc..string..String$u20$as$u20$core..fmt..Write$GT$10write_char17hd93e9ff1698e117fE', symObjAddr: 0xC888, symBinAddr: 0x100028F7C, symSize: 0x14C }
  - { offset: 0x4030C, size: 0x8, addend: 0x0, symName: '__ZN58_$LT$alloc..string..String$u20$as$u20$core..fmt..Write$GT$9write_str17h0e58f50c5cceb6ccE', symObjAddr: 0xC9D4, symBinAddr: 0x1000290C8, symSize: 0x80 }
  - { offset: 0x40465, size: 0x8, addend: 0x0, symName: '__ZN60_$LT$alloc..string..String$u20$as$u20$core..fmt..Display$GT$3fmt17hb1770a38898258b9E', symObjAddr: 0x17BD8, symBinAddr: 0x1000341E8, symSize: 0x1C }
  - { offset: 0x40576, size: 0x8, addend: 0x0, symName: '__ZN66_$LT$alloc..borrow..Cow$LT$B$GT$$u20$as$u20$core..fmt..Display$GT$3fmt17h934f636a5b650a82E', symObjAddr: 0x17D24, symBinAddr: 0x100034334, symSize: 0x1C }
  - { offset: 0x4146F, size: 0x8, addend: 0x0, symName: '__ZN66_$LT$core..option..Option$LT$T$GT$$u20$as$u20$core..fmt..Debug$GT$3fmt17h0d22586c1d7cf264E', symObjAddr: 0x17D40, symBinAddr: 0x100034350, symSize: 0x60 }
  - { offset: 0x4148A, size: 0x8, addend: 0x0, symName: '__ZN66_$LT$core..option..Option$LT$T$GT$$u20$as$u20$core..fmt..Debug$GT$3fmt17h1d04b85820ad1c64E', symObjAddr: 0x17DA0, symBinAddr: 0x1000343B0, symSize: 0x5C }
  - { offset: 0x414A5, size: 0x8, addend: 0x0, symName: '__ZN66_$LT$core..option..Option$LT$T$GT$$u20$as$u20$core..fmt..Debug$GT$3fmt17h3070b5aff61757efE', symObjAddr: 0x17DFC, symBinAddr: 0x10003440C, symSize: 0x5C }
  - { offset: 0x414C0, size: 0x8, addend: 0x0, symName: '__ZN66_$LT$core..option..Option$LT$T$GT$$u20$as$u20$core..fmt..Debug$GT$3fmt17h508bebe52f9eac05E', symObjAddr: 0x17E58, symBinAddr: 0x100034468, symSize: 0x60 }
  - { offset: 0x414DB, size: 0x8, addend: 0x0, symName: '__ZN66_$LT$core..option..Option$LT$T$GT$$u20$as$u20$core..fmt..Debug$GT$3fmt17h5c0325d17553f2d8E', symObjAddr: 0x17EB8, symBinAddr: 0x1000344C8, symSize: 0x60 }
  - { offset: 0x414F6, size: 0x8, addend: 0x0, symName: '__ZN66_$LT$core..option..Option$LT$T$GT$$u20$as$u20$core..fmt..Debug$GT$3fmt17h6cba7647c1409c4eE', symObjAddr: 0x17F18, symBinAddr: 0x100034528, symSize: 0x60 }
  - { offset: 0x41511, size: 0x8, addend: 0x0, symName: '__ZN66_$LT$core..option..Option$LT$T$GT$$u20$as$u20$core..fmt..Debug$GT$3fmt17h6d1b1bba33696c84E', symObjAddr: 0x17F78, symBinAddr: 0x100034588, symSize: 0x5C }
  - { offset: 0x4152C, size: 0x8, addend: 0x0, symName: '__ZN66_$LT$core..option..Option$LT$T$GT$$u20$as$u20$core..fmt..Debug$GT$3fmt17h98c512daf50572b8E', symObjAddr: 0x17FD4, symBinAddr: 0x1000345E4, symSize: 0x60 }
  - { offset: 0x41547, size: 0x8, addend: 0x0, symName: '__ZN66_$LT$core..option..Option$LT$T$GT$$u20$as$u20$core..fmt..Debug$GT$3fmt17hc0b8a09cde12bbabE', symObjAddr: 0x18034, symBinAddr: 0x100034644, symSize: 0x60 }
  - { offset: 0x42966, size: 0x8, addend: 0x0, symName: '__ZN4core3ptr100drop_in_place$LT$core..option..Option$LT$std..sys..pal..unix..process..process_common..Stdio$GT$$GT$17h390c4c4b36e9449aE', symObjAddr: 0x1888, symBinAddr: 0x10001E144, symSize: 0x28 }
  - { offset: 0x429D2, size: 0x8, addend: 0x0, symName: '__ZN4core3ptr101drop_in_place$LT$alloc..sync..Arc$LT$std..sync..mutex..Mutex$LT$alloc..vec..Vec$LT$u8$GT$$GT$$GT$$GT$17he47baf29b04fcdf3E', symObjAddr: 0x18B0, symBinAddr: 0x10001E16C, symSize: 0x30 }
  - { offset: 0x42A91, size: 0x8, addend: 0x0, symName: '__ZN4core3ptr104drop_in_place$LT$alloc..vec..Vec$LT$$LP$usize$C$std..backtrace_rs..symbolize..gimli..Mapping$RP$$GT$$GT$17h3724f6026d57679bE', symObjAddr: 0x18E0, symBinAddr: 0x10001E19C, symSize: 0xC4 }
  - { offset: 0x42C4D, size: 0x8, addend: 0x0, symName: '__ZN4core3ptr107drop_in_place$LT$alloc..vec..Vec$LT$$LP$std..ffi..os_str..OsString$C$std..ffi..os_str..OsString$RP$$GT$$GT$17hfc68f09190e14b8aE', symObjAddr: 0x19A4, symBinAddr: 0x10001E260, symSize: 0x94 }
  - { offset: 0x42ED4, size: 0x8, addend: 0x0, symName: '__ZN4core3ptr107drop_in_place$LT$core..option..Option$LT$std..sys..pal..unix..process..process_common..CStringArray$GT$$GT$17hc04f4be0667d32faE', symObjAddr: 0x1A38, symBinAddr: 0x10001E2F4, symSize: 0xAC }
  - { offset: 0x4311D, size: 0x8, addend: 0x0, symName: '__ZN4core3ptr108drop_in_place$LT$alloc..collections..btree..map..BTreeMap$LT$u64$C$gimli..read..abbrev..Abbreviation$GT$$GT$17hdd51dbb9038dd43cE', symObjAddr: 0x1AE4, symBinAddr: 0x10001E3A0, symSize: 0xB0 }
  - { offset: 0x432D0, size: 0x8, addend: 0x0, symName: '__ZN4core3ptr112drop_in_place$LT$$LP$std..ffi..os_str..OsString$C$core..option..Option$LT$std..ffi..os_str..OsString$GT$$RP$$GT$17h2ec7e858acbba68fE', symObjAddr: 0x1B94, symBinAddr: 0x10001E450, symSize: 0x58 }
  - { offset: 0x43445, size: 0x8, addend: 0x0, symName: '__ZN4core3ptr118drop_in_place$LT$$LT$std..backtrace..Backtrace$u20$as$u20$core..fmt..Display$GT$..fmt..$u7b$$u7b$closure$u7d$$u7d$$GT$17h29129ac2cd345645E', symObjAddr: 0x1BEC, symBinAddr: 0x10001E4A8, symSize: 0x40 }
  - { offset: 0x4355A, size: 0x8, addend: 0x0, symName: '__ZN4core3ptr123drop_in_place$LT$addr2line..Context$LT$gimli..read..endian_slice..EndianSlice$LT$gimli..endianity..LittleEndian$GT$$GT$$GT$17hda46d454f19ff930E', symObjAddr: 0x1C2C, symBinAddr: 0x10001E4E8, symSize: 0x120 }
  - { offset: 0x4387A, size: 0x8, addend: 0x0, symName: '__ZN4core3ptr123drop_in_place$LT$addr2line..ResUnit$LT$gimli..read..endian_slice..EndianSlice$LT$gimli..endianity..LittleEndian$GT$$GT$$GT$17h140d0dcd1acd9019E', symObjAddr: 0x1D4C, symBinAddr: 0x10001E608, symSize: 0xE4 }
  - { offset: 0x43A54, size: 0x8, addend: 0x0, symName: '__ZN4core3ptr123drop_in_place$LT$addr2line..SupUnit$LT$gimli..read..endian_slice..EndianSlice$LT$gimli..endianity..LittleEndian$GT$$GT$$GT$17h8a819a68b5060ec8E', symObjAddr: 0x1E30, symBinAddr: 0x10001E6EC, symSize: 0x54 }
  - { offset: 0x43B21, size: 0x8, addend: 0x0, symName: '__ZN4core3ptr124drop_in_place$LT$alloc..collections..btree..map..BTreeMap$LT$std..ffi..os_str..OsString$C$std..ffi..os_str..OsString$GT$$GT$17ha893cf0c42a9c308E', symObjAddr: 0x1E84, symBinAddr: 0x10001E740, symSize: 0xC4 }
  - { offset: 0x43D28, size: 0x8, addend: 0x0, symName: '__ZN4core3ptr124drop_in_place$LT$alloc..collections..btree..map..IntoIter$LT$std..ffi..os_str..OsString$C$std..ffi..os_str..OsString$GT$$GT$17hbedd65009acb7ebfE', symObjAddr: 0x1F48, symBinAddr: 0x10001E804, symSize: 0x94 }
  - { offset: 0x43EDB, size: 0x8, addend: 0x0, symName: '__ZN4core3ptr127drop_in_place$LT$std..sync..poison..PoisonError$LT$std..sync..mutex..MutexGuard$LT$std..sync..barrier..BarrierState$GT$$GT$$GT$17hcab5faa07d09967aE', symObjAddr: 0x1FDC, symBinAddr: 0x10001E898, symSize: 0x4C }
  - { offset: 0x44027, size: 0x8, addend: 0x0, symName: '__ZN4core3ptr130drop_in_place$LT$gimli..read..dwarf..Dwarf$LT$gimli..read..endian_slice..EndianSlice$LT$gimli..endianity..LittleEndian$GT$$GT$$GT$17h7eb35384c5128c5bE', symObjAddr: 0x2028, symBinAddr: 0x10001E8E4, symSize: 0x58 }
  - { offset: 0x440BD, size: 0x8, addend: 0x0, symName: '__ZN4core3ptr131drop_in_place$LT$alloc..boxed..Box$LT$dyn$u20$core..ops..function..FnOnce$LT$$LP$$RP$$GT$$u2b$Output$u20$$u3d$$u20$$LP$$RP$$GT$$GT$17h5d8ec31e29fde23dE', symObjAddr: 0x2080, symBinAddr: 0x10001E93C, symSize: 0x78 }
  - { offset: 0x441A8, size: 0x8, addend: 0x0, symName: '__ZN4core3ptr137drop_in_place$LT$gimli..read..dwarf..Unit$LT$gimli..read..endian_slice..EndianSlice$LT$gimli..endianity..LittleEndian$GT$$C$usize$GT$$GT$17h3d24796a2679cbf6E', symObjAddr: 0x20F8, symBinAddr: 0x10001E9B4, symSize: 0x54 }
  - { offset: 0x4427B, size: 0x8, addend: 0x0, symName: '__ZN4core3ptr144drop_in_place$LT$alloc..vec..Vec$LT$core..option..Option$LT$core..option..Option$LT$std..backtrace_rs..symbolize..gimli..Mapping$GT$$GT$$GT$$GT$17h0e8af9afa59793f6E', symObjAddr: 0x214C, symBinAddr: 0x10001EA08, symSize: 0x10C }
  - { offset: 0x4443F, size: 0x8, addend: 0x0, symName: '__ZN4core3ptr146drop_in_place$LT$alloc..vec..Vec$LT$addr2line..ResUnit$LT$gimli..read..endian_slice..EndianSlice$LT$gimli..endianity..LittleEndian$GT$$GT$$GT$$GT$17hf181f44a2a3444f1E', symObjAddr: 0x2258, symBinAddr: 0x10001EB14, symSize: 0xC4 }
  - { offset: 0x445CA, size: 0x8, addend: 0x0, symName: '__ZN4core3ptr146drop_in_place$LT$alloc..vec..Vec$LT$addr2line..SupUnit$LT$gimli..read..endian_slice..EndianSlice$LT$gimli..endianity..LittleEndian$GT$$GT$$GT$$GT$17hc91732f1d0903df2E', symObjAddr: 0x231C, symBinAddr: 0x10001EBD8, symSize: 0xF4 }
  - { offset: 0x447F0, size: 0x8, addend: 0x0, symName: '__ZN4core3ptr152drop_in_place$LT$alloc..collections..btree..map..BTreeMap$LT$std..ffi..os_str..OsString$C$core..option..Option$LT$std..ffi..os_str..OsString$GT$$GT$$GT$17hb355194dd4ca3852E', symObjAddr: 0x2410, symBinAddr: 0x10001ECCC, symSize: 0xD0 }
  - { offset: 0x44A18, size: 0x8, addend: 0x0, symName: '__ZN4core3ptr158drop_in_place$LT$alloc..boxed..Box$LT$$u5b$addr2line..ResUnit$LT$gimli..read..endian_slice..EndianSlice$LT$gimli..endianity..LittleEndian$GT$$GT$$u5d$$GT$$GT$17h4bf939d7a7f1ac07E', symObjAddr: 0x24E0, symBinAddr: 0x10001ED9C, symSize: 0xB4 }
  - { offset: 0x44B11, size: 0x8, addend: 0x0, symName: '__ZN4core3ptr158drop_in_place$LT$alloc..boxed..Box$LT$$u5b$addr2line..SupUnit$LT$gimli..read..endian_slice..EndianSlice$LT$gimli..endianity..LittleEndian$GT$$GT$$u5d$$GT$$GT$17hcbd148f67d377a72E', symObjAddr: 0x2594, symBinAddr: 0x10001EE50, symSize: 0xE4 }
  - { offset: 0x44CC1, size: 0x8, addend: 0x0, symName: '__ZN4core3ptr159drop_in_place$LT$alloc..sync..ArcInner$LT$gimli..read..dwarf..Dwarf$LT$gimli..read..endian_slice..EndianSlice$LT$gimli..endianity..LittleEndian$GT$$GT$$GT$$GT$17h350dc7a25fa01851E', symObjAddr: 0x2678, symBinAddr: 0x10001EF34, symSize: 0x58 }
  - { offset: 0x44DD6, size: 0x8, addend: 0x0, symName: '__ZN4core3ptr174drop_in_place$LT$core..result..Result$LT$addr2line..FrameIter$LT$gimli..read..endian_slice..EndianSlice$LT$gimli..endianity..LittleEndian$GT$$GT$$C$gimli..read..Error$GT$$GT$17h20520c9c39e2d0f6E', symObjAddr: 0x26D0, symBinAddr: 0x10001EF8C, symSize: 0x44 }
  - { offset: 0x44F5A, size: 0x8, addend: 0x0, symName: '__ZN4core3ptr181drop_in_place$LT$core..option..Option$LT$gimli..read..line..IncompleteLineProgram$LT$gimli..read..endian_slice..EndianSlice$LT$gimli..endianity..LittleEndian$GT$$C$usize$GT$$GT$$GT$17heefdf74aaf21e555E', symObjAddr: 0x2714, symBinAddr: 0x10001EFD0, symSize: 0x94 }
  - { offset: 0x4525B, size: 0x8, addend: 0x0, symName: '__ZN4core3ptr184drop_in_place$LT$core..result..Result$LT$addr2line..function..Functions$LT$gimli..read..endian_slice..EndianSlice$LT$gimli..endianity..LittleEndian$GT$$GT$$C$gimli..read..Error$GT$$GT$17h8a8e7727ae990110E', symObjAddr: 0x27A8, symBinAddr: 0x10001F064, symSize: 0xD8 }
  - { offset: 0x454F9, size: 0x8, addend: 0x0, symName: '__ZN4core3ptr205drop_in_place$LT$$LT$alloc..boxed..Box$LT$dyn$u20$core..error..Error$u2b$core..marker..Send$u2b$core..marker..Sync$GT$$u20$as$u20$core..convert..From$LT$alloc..string..String$GT$$GT$..from..StringError$GT$17h83ef85c47549147cE', symObjAddr: 0x2880, symBinAddr: 0x10001F13C, symSize: 0x28 }
  - { offset: 0x455DC, size: 0x8, addend: 0x0, symName: '__ZN4core3ptr215drop_in_place$LT$std..sys..thread_local..native..lazy..State$LT$core..cell..Cell$LT$core..option..Option$LT$alloc..sync..Arc$LT$std..sync..mutex..Mutex$LT$alloc..vec..Vec$LT$u8$GT$$GT$$GT$$GT$$GT$$C$$LP$$RP$$GT$$GT$17h359053fe13b33dfcE', symObjAddr: 0x28A8, symBinAddr: 0x10001F164, symSize: 0x40 }
  - { offset: 0x4569E, size: 0x8, addend: 0x0, symName: '__ZN4core3ptr250drop_in_place$LT$$LP$gimli..read..UnitOffset$C$addr2line..lazy..LazyCell$LT$core..result..Result$LT$addr2line..function..Function$LT$gimli..read..endian_slice..EndianSlice$LT$gimli..endianity..LittleEndian$GT$$GT$$C$gimli..read..Error$GT$$GT$$RP$$GT$17h9a2b3fa9b348f67fE', symObjAddr: 0x28E8, symBinAddr: 0x10001F1A4, symSize: 0x64 }
  - { offset: 0x456B5, size: 0x8, addend: 0x0, symName: '__ZN4core3ptr250drop_in_place$LT$$LP$gimli..read..UnitOffset$C$addr2line..lazy..LazyCell$LT$core..result..Result$LT$addr2line..function..Function$LT$gimli..read..endian_slice..EndianSlice$LT$gimli..endianity..LittleEndian$GT$$GT$$C$gimli..read..Error$GT$$GT$$RP$$GT$17h9a2b3fa9b348f67fE', symObjAddr: 0x28E8, symBinAddr: 0x10001F1A4, symSize: 0x64 }
  - { offset: 0x456CA, size: 0x8, addend: 0x0, symName: '__ZN4core3ptr250drop_in_place$LT$$LP$gimli..read..UnitOffset$C$addr2line..lazy..LazyCell$LT$core..result..Result$LT$addr2line..function..Function$LT$gimli..read..endian_slice..EndianSlice$LT$gimli..endianity..LittleEndian$GT$$GT$$C$gimli..read..Error$GT$$GT$$RP$$GT$17h9a2b3fa9b348f67fE', symObjAddr: 0x28E8, symBinAddr: 0x10001F1A4, symSize: 0x64 }
  - { offset: 0x456DF, size: 0x8, addend: 0x0, symName: '__ZN4core3ptr250drop_in_place$LT$$LP$gimli..read..UnitOffset$C$addr2line..lazy..LazyCell$LT$core..result..Result$LT$addr2line..function..Function$LT$gimli..read..endian_slice..EndianSlice$LT$gimli..endianity..LittleEndian$GT$$GT$$C$gimli..read..Error$GT$$GT$$RP$$GT$17h9a2b3fa9b348f67fE', symObjAddr: 0x28E8, symBinAddr: 0x10001F1A4, symSize: 0x64 }
  - { offset: 0x45821, size: 0x8, addend: 0x0, symName: '__ZN4core3ptr273drop_in_place$LT$alloc..vec..Vec$LT$$LP$gimli..read..UnitOffset$C$addr2line..lazy..LazyCell$LT$core..result..Result$LT$addr2line..function..Function$LT$gimli..read..endian_slice..EndianSlice$LT$gimli..endianity..LittleEndian$GT$$GT$$C$gimli..read..Error$GT$$GT$$RP$$GT$$GT$17ha71c34fa9df1ee80E', symObjAddr: 0x294C, symBinAddr: 0x10001F208, symSize: 0xAC }
  - { offset: 0x45A50, size: 0x8, addend: 0x0, symName: '__ZN4core3ptr275drop_in_place$LT$gimli..read..line..LineRows$LT$gimli..read..endian_slice..EndianSlice$LT$gimli..endianity..LittleEndian$GT$$C$gimli..read..line..IncompleteLineProgram$LT$gimli..read..endian_slice..EndianSlice$LT$gimli..endianity..LittleEndian$GT$$C$usize$GT$$C$usize$GT$$GT$17hbb9d7d3d040ba386E', symObjAddr: 0x29F8, symBinAddr: 0x10001F2B4, symSize: 0x88 }
  - { offset: 0x45CB7, size: 0x8, addend: 0x0, symName: '__ZN4core3ptr280drop_in_place$LT$$LT$alloc..collections..btree..map..IntoIter$LT$K$C$V$C$A$GT$$u20$as$u20$core..ops..drop..Drop$GT$..drop..DropGuard$LT$u64$C$core..result..Result$LT$alloc..sync..Arc$LT$gimli..read..abbrev..Abbreviations$GT$$C$gimli..read..Error$GT$$C$alloc..alloc..Global$GT$$GT$17h74b13c23f0977491E', symObjAddr: 0x2A80, symBinAddr: 0x10001F33C, symSize: 0x84 }
  - { offset: 0x45E02, size: 0x8, addend: 0x0, symName: '__ZN4core3ptr285drop_in_place$LT$alloc..boxed..Box$LT$$u5b$$LP$gimli..read..UnitOffset$C$addr2line..lazy..LazyCell$LT$core..result..Result$LT$addr2line..function..Function$LT$gimli..read..endian_slice..EndianSlice$LT$gimli..endianity..LittleEndian$GT$$GT$$C$gimli..read..Error$GT$$GT$$RP$$u5d$$GT$$GT$17h4c0e5fff1642bc53E', symObjAddr: 0x2B04, symBinAddr: 0x10001F3C0, symSize: 0x9C }
  - { offset: 0x45E19, size: 0x8, addend: 0x0, symName: '__ZN4core3ptr285drop_in_place$LT$alloc..boxed..Box$LT$$u5b$$LP$gimli..read..UnitOffset$C$addr2line..lazy..LazyCell$LT$core..result..Result$LT$addr2line..function..Function$LT$gimli..read..endian_slice..EndianSlice$LT$gimli..endianity..LittleEndian$GT$$GT$$C$gimli..read..Error$GT$$GT$$RP$$u5d$$GT$$GT$17h4c0e5fff1642bc53E', symObjAddr: 0x2B04, symBinAddr: 0x10001F3C0, symSize: 0x9C }
  - { offset: 0x468AB, size: 0x8, addend: 0x0, symName: '__ZN4core3ptr37drop_in_place$LT$std..env..VarsOs$GT$17ha2a13263ce231697E', symObjAddr: 0x2BA0, symBinAddr: 0x10001F45C, symSize: 0xAC }
  - { offset: 0x46B94, size: 0x8, addend: 0x0, symName: '__ZN4core3ptr383drop_in_place$LT$core..result..Result$LT$core..option..Option$LT$alloc..boxed..Box$LT$$LP$alloc..sync..Arc$LT$gimli..read..dwarf..Dwarf$LT$gimli..read..endian_slice..EndianSlice$LT$gimli..endianity..LittleEndian$GT$$GT$$GT$$C$gimli..read..dwarf..Unit$LT$gimli..read..endian_slice..EndianSlice$LT$gimli..endianity..LittleEndian$GT$$C$usize$GT$$RP$$GT$$GT$$C$gimli..read..Error$GT$$GT$17h724d051af7e3a1c4E', symObjAddr: 0x2C4C, symBinAddr: 0x10001F508, symSize: 0xD4 }
  - { offset: 0x46D7F, size: 0x8, addend: 0x0, symName: '__ZN4core3ptr39drop_in_place$LT$std..path..PathBuf$GT$17h29ea4d3650142468E', symObjAddr: 0x2D20, symBinAddr: 0x10001F5DC, symSize: 0x28 }
  - { offset: 0x46E92, size: 0x8, addend: 0x0, symName: '__ZN4core3ptr40drop_in_place$LT$std..process..Child$GT$17ha28c2d8694893892E', symObjAddr: 0x2D48, symBinAddr: 0x10001F604, symSize: 0x54 }
  - { offset: 0x4704C, size: 0x8, addend: 0x0, symName: '__ZN4core3ptr40drop_in_place$LT$std..thread..Thread$GT$17hf9ac34a9babe1e81E', symObjAddr: 0x2D9C, symBinAddr: 0x10001F658, symSize: 0x30 }
  - { offset: 0x4711B, size: 0x8, addend: 0x0, symName: '__ZN4core3ptr41drop_in_place$LT$std..panicking..Hook$GT$17h8ea2bbaad34def32E', symObjAddr: 0x2DCC, symBinAddr: 0x10001F688, symSize: 0x7C }
  - { offset: 0x47214, size: 0x8, addend: 0x0, symName: '__ZN4core3ptr42drop_in_place$LT$alloc..string..String$GT$17h61495ec7b922a046E', symObjAddr: 0x2E48, symBinAddr: 0x10001F704, symSize: 0x28 }
  - { offset: 0x472EF, size: 0x8, addend: 0x0, symName: '__ZN4core3ptr42drop_in_place$LT$std..io..error..Error$GT$17h924dbebc5083d819E', symObjAddr: 0x2E70, symBinAddr: 0x10001F72C, symSize: 0xAC }
  - { offset: 0x47509, size: 0x8, addend: 0x0, symName: '__ZN4core3ptr44drop_in_place$LT$object..read..ObjectMap$GT$17h9f6d8c9bbe8676a4E', symObjAddr: 0x2F1C, symBinAddr: 0x10001F7D8, symSize: 0x58 }
  - { offset: 0x47662, size: 0x8, addend: 0x0, symName: '__ZN4core3ptr44drop_in_place$LT$std..backtrace..Capture$GT$17h4396dcd7c24d0d65E', symObjAddr: 0x2F74, symBinAddr: 0x10001F830, symSize: 0x6C }
  - { offset: 0x47757, size: 0x8, addend: 0x0, symName: '__ZN4core3ptr44drop_in_place$LT$std..thread..PanicGuard$GT$17h65c4bc54c991acbeE', symObjAddr: 0x2FE0, symBinAddr: 0x10001F89C, symSize: 0x44 }
  - { offset: 0x477AB, size: 0x8, addend: 0x0, symName: '__ZN4core3ptr44drop_in_place$LT$std..thread..ThreadName$GT$17he9179243778e7ac8E', symObjAddr: 0x3024, symBinAddr: 0x10001F8E0, symSize: 0x3C }
  - { offset: 0x47858, size: 0x8, addend: 0x0, symName: '__ZN4core3ptr46drop_in_place$LT$alloc..vec..Vec$LT$u8$GT$$GT$17h13af7ebb5aaf6ccbE', symObjAddr: 0x3060, symBinAddr: 0x10001F91C, symSize: 0x28 }
  - { offset: 0x478E5, size: 0x8, addend: 0x0, symName: '__ZN4core3ptr46drop_in_place$LT$std..io..stdio..StdinLock$GT$17h25432cf1b9b631dbE', symObjAddr: 0x3088, symBinAddr: 0x10001F944, symSize: 0x54 }
  - { offset: 0x478FC, size: 0x8, addend: 0x0, symName: '__ZN4core3ptr46drop_in_place$LT$std..io..stdio..StdinLock$GT$17h25432cf1b9b631dbE', symObjAddr: 0x3088, symBinAddr: 0x10001F944, symSize: 0x54 }
  - { offset: 0x47911, size: 0x8, addend: 0x0, symName: '__ZN4core3ptr46drop_in_place$LT$std..io..stdio..StdinLock$GT$17h25432cf1b9b631dbE', symObjAddr: 0x3088, symBinAddr: 0x10001F944, symSize: 0x54 }
  - { offset: 0x479F5, size: 0x8, addend: 0x0, symName: '__ZN4core3ptr47drop_in_place$LT$alloc..ffi..c_str..CString$GT$17h6d50cff863a8567eE', symObjAddr: 0x30DC, symBinAddr: 0x10001F998, symSize: 0x30 }
  - { offset: 0x47A76, size: 0x8, addend: 0x0, symName: '__ZN4core3ptr47drop_in_place$LT$std..ffi..os_str..OsString$GT$17h3d977e70f01e62acE', symObjAddr: 0x310C, symBinAddr: 0x10001F9C8, symSize: 0x28 }
  - { offset: 0x47B11, size: 0x8, addend: 0x0, symName: '__ZN4core3ptr48drop_in_place$LT$alloc..ffi..c_str..NulError$GT$17h170c9316592988dfE', symObjAddr: 0x3134, symBinAddr: 0x10001F9F0, symSize: 0x28 }
  - { offset: 0x47BA6, size: 0x8, addend: 0x0, symName: '__ZN4core3ptr49drop_in_place$LT$std..sys..pal..unix..os..Env$GT$17h6181626924e3fdd9E', symObjAddr: 0x315C, symBinAddr: 0x10001FA18, symSize: 0xAC }
  - { offset: 0x47ECD, size: 0x8, addend: 0x0, symName: '__ZN4core3ptr51drop_in_place$LT$std..backtrace..BacktraceFrame$GT$17hbc2143e5e5b18343E', symObjAddr: 0x3208, symBinAddr: 0x10001FAC4, symSize: 0xE4 }
  - { offset: 0x48184, size: 0x8, addend: 0x0, symName: '__ZN4core3ptr52drop_in_place$LT$std..backtrace..BacktraceSymbol$GT$17h7d0f6a62cf2fd49aE', symObjAddr: 0x32EC, symBinAddr: 0x10001FBA8, symSize: 0x90 }
  - { offset: 0x4838C, size: 0x8, addend: 0x0, symName: '__ZN4core3ptr52drop_in_place$LT$std..sys..pal..unix..args..Args$GT$17h3073c13bc92f9695E', symObjAddr: 0x337C, symBinAddr: 0x10001FC38, symSize: 0x98 }
  - { offset: 0x48592, size: 0x8, addend: 0x0, symName: '__ZN4core3ptr54drop_in_place$LT$std..sys..pal..unix..fd..FileDesc$GT$17hcab0674bd3465431E', symObjAddr: 0x3414, symBinAddr: 0x10001FCD0, symSize: 0x14 }
  - { offset: 0x485FC, size: 0x8, addend: 0x0, symName: '__ZN4core3ptr55drop_in_place$LT$gimli..read..abbrev..Abbreviations$GT$17he9582e6a4b4189b0E', symObjAddr: 0x3428, symBinAddr: 0x10001FCE4, symSize: 0x84 }
  - { offset: 0x4878D, size: 0x8, addend: 0x0, symName: '__ZN4core3ptr57drop_in_place$LT$std..sys_common..process..CommandEnv$GT$17ha6790f433a4385d0E', symObjAddr: 0x34AC, symBinAddr: 0x10001FD68, symSize: 0x10 }
  - { offset: 0x487D2, size: 0x8, addend: 0x0, symName: '__ZN4core3ptr60drop_in_place$LT$gimli..read..abbrev..AbbreviationsCache$GT$17h9d0eba5c9dda23c4E', symObjAddr: 0x34BC, symBinAddr: 0x10001FD78, symSize: 0xCC }
  - { offset: 0x48966, size: 0x8, addend: 0x0, symName: '__ZN4core3ptr62drop_in_place$LT$std..sys..sync..rwlock..queue..PanicGuard$GT$17hce38602be2122707E', symObjAddr: 0x3588, symBinAddr: 0x10001FE44, symSize: 0x44 }
  - { offset: 0x489C8, size: 0x8, addend: 0x0, symName: '__ZN4core3ptr65drop_in_place$LT$alloc..vec..Vec$LT$alloc..string..String$GT$$GT$17h2f36e88bfd8770e1E', symObjAddr: 0x35CC, symBinAddr: 0x10001FE88, symSize: 0x80 }
  - { offset: 0x48B3C, size: 0x8, addend: 0x0, symName: '__ZN4core3ptr65drop_in_place$LT$std..backtrace_rs..symbolize..gimli..Mapping$GT$17h31344005bd4b7e99E', symObjAddr: 0x364C, symBinAddr: 0x10001FF08, symSize: 0x70 }
  - { offset: 0x48BF4, size: 0x8, addend: 0x0, symName: '__ZN4core3ptr67drop_in_place$LT$alloc..vec..Vec$LT$addr2line..LineSequence$GT$$GT$17heb663068d829c259E', symObjAddr: 0x36BC, symBinAddr: 0x10001FF78, symSize: 0x84 }
  - { offset: 0x48D5A, size: 0x8, addend: 0x0, symName: '__ZN4core3ptr68drop_in_place$LT$core..option..Option$LT$std..thread..Thread$GT$$GT$17h2b48afe567b2e886E', symObjAddr: 0x3740, symBinAddr: 0x10001FFFC, symSize: 0x34 }
  - { offset: 0x48E06, size: 0x8, addend: 0x0, symName: '__ZN4core3ptr70drop_in_place$LT$alloc..vec..Vec$LT$alloc..ffi..c_str..CString$GT$$GT$17h3b9160088b32d04dE', symObjAddr: 0x3774, symBinAddr: 0x100020030, symSize: 0x7C }
  - { offset: 0x48F49, size: 0x8, addend: 0x0, symName: '__ZN4core3ptr70drop_in_place$LT$alloc..vec..Vec$LT$std..ffi..os_str..OsString$GT$$GT$17h524967ec3c4e93cbE', symObjAddr: 0x37F0, symBinAddr: 0x1000200AC, symSize: 0x80 }
  - { offset: 0x49126, size: 0x8, addend: 0x0, symName: '__ZN4core3ptr70drop_in_place$LT$std..backtrace_rs..symbolize..gimli..stash..Stash$GT$17h849b9347acaa4f9dE', symObjAddr: 0x3870, symBinAddr: 0x10002012C, symSize: 0xB8 }
  - { offset: 0x49404, size: 0x8, addend: 0x0, symName: '__ZN4core3ptr71drop_in_place$LT$std..backtrace_rs..symbolize..gimli..macho..Object$GT$17he464dace0837fc07E', symObjAddr: 0x3928, symBinAddr: 0x1000201E4, symSize: 0x15C }
  - { offset: 0x4973A, size: 0x8, addend: 0x0, symName: '__ZN4core3ptr71drop_in_place$LT$std..panicking..rust_panic_without_hook..RewrapBox$GT$17h308d01dbab3d6c7dE', symObjAddr: 0x3A84, symBinAddr: 0x100020340, symSize: 0x6C }
  - { offset: 0x49833, size: 0x8, addend: 0x0, symName: '__ZN4core3ptr71drop_in_place$LT$std..sync..rwlock..RwLockReadGuard$LT$$LP$$RP$$GT$$GT$17h33a87c778f6ff8acE', symObjAddr: 0x3AF0, symBinAddr: 0x1000203AC, symSize: 0x44 }
  - { offset: 0x498E5, size: 0x8, addend: 0x0, symName: '__ZN4core3ptr72drop_in_place$LT$core..option..Option$LT$object..read..ObjectMap$GT$$GT$17h15a58a385d75b662E', symObjAddr: 0x3B34, symBinAddr: 0x1000203F0, symSize: 0x64 }
  - { offset: 0x49A2A, size: 0x8, addend: 0x0, symName: '__ZN4core3ptr73drop_in_place$LT$core..option..Option$LT$std..process..ChildStdin$GT$$GT$17h1c52abee359a693fE', symObjAddr: 0x3B98, symBinAddr: 0x100020454, symSize: 0x24 }
  - { offset: 0x49AAC, size: 0x8, addend: 0x0, symName: '__ZN4core3ptr75drop_in_place$LT$core..option..Option$LT$alloc..ffi..c_str..CString$GT$$GT$17h52c93e5af4b1ec14E', symObjAddr: 0x3BBC, symBinAddr: 0x100020478, symSize: 0x34 }
  - { offset: 0x49B43, size: 0x8, addend: 0x0, symName: '__ZN4core3ptr77drop_in_place$LT$alloc..boxed..Box$LT$$u5b$alloc..string..String$u5d$$GT$$GT$17hb20cef3002c71789E', symObjAddr: 0x3BF0, symBinAddr: 0x1000204AC, symSize: 0x70 }
  - { offset: 0x49B5A, size: 0x8, addend: 0x0, symName: '__ZN4core3ptr77drop_in_place$LT$alloc..boxed..Box$LT$$u5b$alloc..string..String$u5d$$GT$$GT$17hb20cef3002c71789E', symObjAddr: 0x3BF0, symBinAddr: 0x1000204AC, symSize: 0x70 }
  - { offset: 0x49C66, size: 0x8, addend: 0x0, symName: '__ZN4core3ptr77drop_in_place$LT$std..panicking..begin_panic_handler..FormatStringPayload$GT$17h6ebba54a748b8d0eE', symObjAddr: 0x3C60, symBinAddr: 0x10002051C, symSize: 0x34 }
  - { offset: 0x49D30, size: 0x8, addend: 0x0, symName: '__ZN4core3ptr77drop_in_place$LT$std..sys..pal..unix..process..process_common..ChildPipes$GT$17hf391d66dbdcd733dE', symObjAddr: 0x3C94, symBinAddr: 0x100020550, symSize: 0x78 }
  - { offset: 0x49E40, size: 0x8, addend: 0x0, symName: '__ZN4core3ptr77drop_in_place$LT$std..sys..pal..unix..process..process_common..StdioPipes$GT$17h184b157db316495bE', symObjAddr: 0x3D0C, symBinAddr: 0x1000205C8, symSize: 0x54 }
  - { offset: 0x49F9C, size: 0x8, addend: 0x0, symName: '__ZN4core3ptr78drop_in_place$LT$core..result..Result$LT$usize$C$std..io..error..Error$GT$$GT$17hbb84f5e706f52986E', symObjAddr: 0x3D60, symBinAddr: 0x10002061C, symSize: 0x24 }
  - { offset: 0x49FB0, size: 0x8, addend: 0x0, symName: '__ZN4core3ptr79drop_in_place$LT$std..sys..pal..unix..process..process_common..CStringArray$GT$17h95c7f0f7786fc7e5E', symObjAddr: 0x3D84, symBinAddr: 0x100020640, symSize: 0x94 }
  - { offset: 0x4A18F, size: 0x8, addend: 0x0, symName: '__ZN4core3ptr81drop_in_place$LT$core..result..Result$LT$$LP$$RP$$C$std..io..error..Error$GT$$GT$17hbb03115a4eeb66a9E', symObjAddr: 0x3E18, symBinAddr: 0x1000206D4, symSize: 0x20 }
  - { offset: 0x4A1A3, size: 0x8, addend: 0x0, symName: '__ZN4core3ptr84drop_in_place$LT$$LP$std..ffi..os_str..OsString$C$std..ffi..os_str..OsString$RP$$GT$17h8d473b7a70bf8406E', symObjAddr: 0x3E38, symBinAddr: 0x1000206F4, symSize: 0x4C }
  - { offset: 0x4A2FE, size: 0x8, addend: 0x0, symName: '__ZN4core3ptr84drop_in_place$LT$alloc..sync..ArcInner$LT$gimli..read..abbrev..Abbreviations$GT$$GT$17h09919f3cea72f38fE', symObjAddr: 0x3E84, symBinAddr: 0x100020740, symSize: 0x84 }
  - { offset: 0x4A4D6, size: 0x8, addend: 0x0, symName: '__ZN4core3ptr86drop_in_place$LT$core..result..Result$LT$addr2line..Lines$C$gimli..read..Error$GT$$GT$17h696468a68b624ac5E', symObjAddr: 0x3F08, symBinAddr: 0x1000207C4, symSize: 0xE4 }
  - { offset: 0x4A738, size: 0x8, addend: 0x0, symName: '__ZN4core3ptr87drop_in_place$LT$alloc..sync..ArcInner$LT$std..sys..pal..unix..fs..InnerReadDir$GT$$GT$17hfabe36cee593aef6E', symObjAddr: 0x3FEC, symBinAddr: 0x1000208A8, symSize: 0x60 }
  - { offset: 0x4A8E9, size: 0x8, addend: 0x0, symName: '__ZN4core3ptr87drop_in_place$LT$core..option..Option$LT$alloc..boxed..Box$LT$$u5b$u32$u5d$$GT$$GT$$GT$17hf51293850919e573E', symObjAddr: 0x404C, symBinAddr: 0x100020908, symSize: 0x34 }
  - { offset: 0x4A9C5, size: 0x8, addend: 0x0, symName: '__ZN4core3ptr88drop_in_place$LT$alloc..vec..Vec$LT$std..backtrace_rs..symbolize..gimli..Library$GT$$GT$17hd7628073410dd88cE', symObjAddr: 0x4080, symBinAddr: 0x10002093C, symSize: 0x98 }
  - { offset: 0x4ABBF, size: 0x8, addend: 0x0, symName: '__ZN4core3ptr88drop_in_place$LT$std..io..Write..write_fmt..Adapter$LT$alloc..vec..Vec$LT$u8$GT$$GT$$GT$17h0ba66fdde445a72aE', symObjAddr: 0x4118, symBinAddr: 0x1000209D4, symSize: 0x20 }
  - { offset: 0x4AC05, size: 0x8, addend: 0x0, symName: '__ZN4core3ptr90drop_in_place$LT$std..io..buffered..bufwriter..BufWriter$LT$W$GT$..flush_buf..BufGuard$GT$17h754dc72f05aa7ca1E', symObjAddr: 0x4138, symBinAddr: 0x1000209F4, symSize: 0x60 }
  - { offset: 0x4ADAA, size: 0x8, addend: 0x0, symName: '__ZN4core3ptr91drop_in_place$LT$core..result..Result$LT$alloc..string..String$C$std..env..VarError$GT$$GT$17hbf7a65496cd0550fE', symObjAddr: 0x4198, symBinAddr: 0x100020A54, symSize: 0x3C }
  - { offset: 0x4AE57, size: 0x8, addend: 0x0, symName: '__ZN4core3ptr91drop_in_place$LT$core..result..Result$LT$std..path..PathBuf$C$std..io..error..Error$GT$$GT$17h737c67071e1fc1aeE', symObjAddr: 0x41D4, symBinAddr: 0x100020A90, symSize: 0x40 }
  - { offset: 0x4AF2C, size: 0x8, addend: 0x0, symName: '__ZN4core3ptr92drop_in_place$LT$alloc..boxed..Box$LT$std..sys..sync..mutex..pthread..AllocatedMutex$GT$$GT$17h9dd5aab7a942150fE', symObjAddr: 0x4214, symBinAddr: 0x100020AD0, symSize: 0x2C }
  - { offset: 0x4AFC9, size: 0x8, addend: 0x0, symName: '__ZN4core3ptr95drop_in_place$LT$core..option..IntoIter$LT$std..backtrace_rs..symbolize..gimli..Library$GT$$GT$17h3a42cf7a46444decE', symObjAddr: 0x4240, symBinAddr: 0x100020AFC, symSize: 0x5C }
  - { offset: 0x4AFE7, size: 0x8, addend: 0x0, symName: '__ZN4core3ptr95drop_in_place$LT$core..option..IntoIter$LT$std..backtrace_rs..symbolize..gimli..Library$GT$$GT$17h3a42cf7a46444decE', symObjAddr: 0x4240, symBinAddr: 0x100020AFC, symSize: 0x5C }
  - { offset: 0x4AFFC, size: 0x8, addend: 0x0, symName: '__ZN4core3ptr95drop_in_place$LT$core..option..IntoIter$LT$std..backtrace_rs..symbolize..gimli..Library$GT$$GT$17h3a42cf7a46444decE', symObjAddr: 0x4240, symBinAddr: 0x100020AFC, symSize: 0x5C }
  - { offset: 0x4B165, size: 0x8, addend: 0x0, symName: '__ZN4core3ptr95drop_in_place$LT$std..io..buffered..linewriter..LineWriter$LT$std..io..stdio..StdoutRaw$GT$$GT$17hd24c1063f9cfa17bE', symObjAddr: 0x429C, symBinAddr: 0x100020B58, symSize: 0xF0 }
  - { offset: 0x4EEC2, size: 0x8, addend: 0x0, symName: __ZN4core5slice4sort6shared5pivot11median3_rec17h001c9adca1ce03d7E, symObjAddr: 0x4658, symBinAddr: 0x100020E00, symSize: 0xD0 }
  - { offset: 0x4EFBD, size: 0x8, addend: 0x0, symName: __ZN4core5slice4sort6shared5pivot11median3_rec17h37b7dffe14755907E, symObjAddr: 0x4728, symBinAddr: 0x100020ED0, symSize: 0xCC }
  - { offset: 0x4F0B8, size: 0x8, addend: 0x0, symName: __ZN4core5slice4sort6shared5pivot11median3_rec17h3e2c744abf11ed91E, symObjAddr: 0x47F4, symBinAddr: 0x100020F9C, symSize: 0xD0 }
  - { offset: 0x4F1B3, size: 0x8, addend: 0x0, symName: __ZN4core5slice4sort6shared5pivot11median3_rec17h46f11f9d50e51431E, symObjAddr: 0x48C4, symBinAddr: 0x10002106C, symSize: 0x134 }
  - { offset: 0x4F3DA, size: 0x8, addend: 0x0, symName: __ZN4core5slice4sort6shared5pivot11median3_rec17h5170fde408f06997E, symObjAddr: 0x49F8, symBinAddr: 0x1000211A0, symSize: 0x11C }
  - { offset: 0x4F4D9, size: 0x8, addend: 0x0, symName: __ZN4core5slice4sort6shared5pivot11median3_rec17h992825939e560474E, symObjAddr: 0x4B14, symBinAddr: 0x1000212BC, symSize: 0xCC }
  - { offset: 0x4F62A, size: 0x8, addend: 0x0, symName: __ZN4core5slice4sort6shared5pivot11median3_rec17hd01de3caf36e971aE, symObjAddr: 0x4BE0, symBinAddr: 0x100021388, symSize: 0xD0 }
  - { offset: 0x4F725, size: 0x8, addend: 0x0, symName: __ZN4core5slice4sort6shared5pivot11median3_rec17hebd71e6e10af7f96E, symObjAddr: 0x4CB0, symBinAddr: 0x100021458, symSize: 0xCC }
  - { offset: 0x4F8F7, size: 0x8, addend: 0x0, symName: __ZN4core5slice4sort6shared9smallsort12sort4_stable17h500d0959a0c776afE, symObjAddr: 0x4D7C, symBinAddr: 0x100021524, symSize: 0x1B4 }
  - { offset: 0x4FAA2, size: 0x8, addend: 0x0, symName: __ZN4core5slice4sort6shared9smallsort12sort4_stable17h575b1b9a90e5d5d6E, symObjAddr: 0x4F30, symBinAddr: 0x1000216D8, symSize: 0x180 }
  - { offset: 0x4FEC4, size: 0x8, addend: 0x0, symName: __ZN4core5slice4sort6shared9smallsort12sort8_stable17hf52532f2ad9efec4E, symObjAddr: 0x50B0, symBinAddr: 0x100021858, symSize: 0x2B8 }
  - { offset: 0x5044D, size: 0x8, addend: 0x0, symName: __ZN4core5slice4sort6shared9smallsort18small_sort_general17h1b187870bc21ec9cE, symObjAddr: 0x5368, symBinAddr: 0x100021B10, symSize: 0x3E0 }
  - { offset: 0x509A8, size: 0x8, addend: 0x0, symName: __ZN4core5slice4sort6shared9smallsort18small_sort_general17hf99124f86d438951E, symObjAddr: 0x5748, symBinAddr: 0x100021EF0, symSize: 0x490 }
  - { offset: 0x51393, size: 0x8, addend: 0x0, symName: __ZN4core5slice4sort6stable14driftsort_main17h336c0b6e9b4b9d03E, symObjAddr: 0x5BD8, symBinAddr: 0x100022380, symSize: 0x14C }
  - { offset: 0x516CF, size: 0x8, addend: 0x0, symName: __ZN4core5slice4sort6stable14driftsort_main17h5acccd599c2d49beE, symObjAddr: 0x5D24, symBinAddr: 0x1000224CC, symSize: 0x14C }
  - { offset: 0x51A0B, size: 0x8, addend: 0x0, symName: __ZN4core5slice4sort6stable14driftsort_main17h7c78856ad3a60825E, symObjAddr: 0x5E70, symBinAddr: 0x100022618, symSize: 0x134 }
  - { offset: 0x51CF1, size: 0x8, addend: 0x0, symName: __ZN4core5slice4sort6stable14driftsort_main17h84941de99c019b23E, symObjAddr: 0x5FA4, symBinAddr: 0x10002274C, symSize: 0x134 }
  - { offset: 0x51F55, size: 0x8, addend: 0x0, symName: __ZN4core5slice4sort6stable14driftsort_main17ha2d4c6ddba5a32c0E, symObjAddr: 0x60D8, symBinAddr: 0x100022880, symSize: 0x134 }
  - { offset: 0x5223B, size: 0x8, addend: 0x0, symName: __ZN4core5slice4sort6stable14driftsort_main17hd36e3da279c0caf2E, symObjAddr: 0x620C, symBinAddr: 0x1000229B4, symSize: 0x134 }
  - { offset: 0x52712, size: 0x8, addend: 0x0, symName: __ZN4core5slice4sort6stable5drift4sort17h0910c22a7aed7d80E, symObjAddr: 0x6340, symBinAddr: 0x100022AE8, symSize: 0x53C }
  - { offset: 0x52E35, size: 0x8, addend: 0x0, symName: __ZN4core5slice4sort6stable5drift4sort17h332562468c2be195E, symObjAddr: 0x687C, symBinAddr: 0x100023024, symSize: 0x618 }
  - { offset: 0x53509, size: 0x8, addend: 0x0, symName: __ZN4core5slice4sort6stable5drift4sort17h71452eb72df08de3E, symObjAddr: 0x6E94, symBinAddr: 0x10002363C, symSize: 0x6DC }
  - { offset: 0x53C2A, size: 0x8, addend: 0x0, symName: __ZN4core5slice4sort6stable5drift4sort17h783f7383454d67d0E, symObjAddr: 0x7570, symBinAddr: 0x100023D18, symSize: 0x4DC }
  - { offset: 0x542C5, size: 0x8, addend: 0x0, symName: __ZN4core5slice4sort6stable5drift4sort17ha690b9c547494817E, symObjAddr: 0x7A4C, symBinAddr: 0x1000241F4, symSize: 0x5A8 }
  - { offset: 0x54985, size: 0x8, addend: 0x0, symName: __ZN4core5slice4sort6stable5drift4sort17heeed68b538603972E, symObjAddr: 0x7FF4, symBinAddr: 0x10002479C, symSize: 0x5B0 }
  - { offset: 0x55271, size: 0x8, addend: 0x0, symName: __ZN4core5slice4sort6stable9quicksort9quicksort17h07609bc7b46cc4c3E, symObjAddr: 0x85A4, symBinAddr: 0x100024D4C, symSize: 0x80C }
  - { offset: 0x55E38, size: 0x8, addend: 0x0, symName: __ZN4core5slice4sort6stable9quicksort9quicksort17h2208f4fd7ef38689E, symObjAddr: 0x8DB0, symBinAddr: 0x100025558, symSize: 0x730 }
  - { offset: 0x56554, size: 0x8, addend: 0x0, symName: __ZN4core5slice4sort6stable9quicksort9quicksort17h698d50eee9524539E, symObjAddr: 0x94E0, symBinAddr: 0x100025C88, symSize: 0x7F0 }
  - { offset: 0x5711B, size: 0x8, addend: 0x0, symName: __ZN4core5slice4sort6stable9quicksort9quicksort17h71557a9ccb20f345E, symObjAddr: 0x9CD0, symBinAddr: 0x100026478, symSize: 0x6BC }
  - { offset: 0x57BA2, size: 0x8, addend: 0x0, symName: __ZN4core5slice4sort6stable9quicksort9quicksort17h7d18675e56ccfb08E, symObjAddr: 0xA38C, symBinAddr: 0x100026B34, symSize: 0x81C }
  - { offset: 0x58C5D, size: 0x8, addend: 0x0, symName: __ZN4core5slice4sort6stable9quicksort9quicksort17ha6ab4781e3122c0bE, symObjAddr: 0xABA8, symBinAddr: 0x100027350, symSize: 0x6E4 }
  - { offset: 0x5971F, size: 0x8, addend: 0x0, symName: __ZN4core5slice4sort8unstable7ipnsort17h0c1df14bd3af3f85E, symObjAddr: 0xB28C, symBinAddr: 0x100027A34, symSize: 0x288 }
  - { offset: 0x599B1, size: 0x8, addend: 0x0, symName: __ZN4core5slice4sort8unstable7ipnsort17h1f03437c860126fdE, symObjAddr: 0xB514, symBinAddr: 0x100027CBC, symSize: 0x1E4 }
  - { offset: 0x59AD4, size: 0x8, addend: 0x0, symName: __ZN4core5slice4sort8unstable8heapsort8heapsort17h6c6484d3e7d22d28E, symObjAddr: 0xB6F8, symBinAddr: 0x100027EA0, symSize: 0x160 }
  - { offset: 0x59DE6, size: 0x8, addend: 0x0, symName: __ZN4core5slice4sort8unstable8heapsort8heapsort17hc2e0562e52d73606E, symObjAddr: 0xB858, symBinAddr: 0x100028000, symSize: 0x10C }
  - { offset: 0x5A077, size: 0x8, addend: 0x0, symName: __ZN4core5slice4sort8unstable9quicksort9quicksort17h340ba531f4e54d1bE, symObjAddr: 0xB964, symBinAddr: 0x10002810C, symSize: 0x5B4 }
  - { offset: 0x5ACA2, size: 0x8, addend: 0x0, symName: __ZN4core5slice4sort8unstable9quicksort9quicksort17h91c5d9a2f27051c0E, symObjAddr: 0xBF18, symBinAddr: 0x1000286C0, symSize: 0x440 }
  - { offset: 0x5B6D3, size: 0x8, addend: 0x0, symName: '__ZN36_$LT$T$u20$as$u20$core..any..Any$GT$7type_id17h05f8617bbf325208E', symObjAddr: 0x13C, symBinAddr: 0x10001C9F8, symSize: 0x30 }
  - { offset: 0x5B6ED, size: 0x8, addend: 0x0, symName: '__ZN36_$LT$T$u20$as$u20$core..any..Any$GT$7type_id17h691ab2dff0fbe812E', symObjAddr: 0x16C, symBinAddr: 0x10001CA28, symSize: 0x30 }
  - { offset: 0x5B707, size: 0x8, addend: 0x0, symName: '__ZN36_$LT$T$u20$as$u20$core..any..Any$GT$7type_id17h9ca45d236155799cE', symObjAddr: 0x19C, symBinAddr: 0x10001CA58, symSize: 0x30 }
  - { offset: 0x5B7A3, size: 0x8, addend: 0x0, symName: '__ZN41_$LT$bool$u20$as$u20$core..fmt..Debug$GT$3fmt17h9e9b2eff902fdd93E', symObjAddr: 0x1CC, symBinAddr: 0x10001CA88, symSize: 0x10 }
  - { offset: 0x5B7C4, size: 0x8, addend: 0x0, symName: '__ZN42_$LT$$RF$T$u20$as$u20$core..fmt..Debug$GT$3fmt17h0c83902e8ea752acE', symObjAddr: 0x1DC, symBinAddr: 0x10001CA98, symSize: 0x58 }
  - { offset: 0x5B7F5, size: 0x8, addend: 0x0, symName: '__ZN42_$LT$$RF$T$u20$as$u20$core..fmt..Debug$GT$3fmt17h177df7372056bd30E', symObjAddr: 0x234, symBinAddr: 0x10001CAF0, symSize: 0x30 }
  - { offset: 0x5B83B, size: 0x8, addend: 0x0, symName: '__ZN42_$LT$$RF$T$u20$as$u20$core..fmt..Debug$GT$3fmt17h178dbf31caae2ffeE', symObjAddr: 0x264, symBinAddr: 0x10001CB20, symSize: 0x78 }
  - { offset: 0x5B8FA, size: 0x8, addend: 0x0, symName: '__ZN42_$LT$$RF$T$u20$as$u20$core..fmt..Debug$GT$3fmt17h245b5f550df0d893E', symObjAddr: 0x2DC, symBinAddr: 0x10001CB98, symSize: 0xC8 }
  - { offset: 0x5B924, size: 0x8, addend: 0x0, symName: '__ZN42_$LT$$RF$T$u20$as$u20$core..fmt..Debug$GT$3fmt17h2b4369e16ec214b1E', symObjAddr: 0x3A4, symBinAddr: 0x10001CC60, symSize: 0x74 }
  - { offset: 0x5BA74, size: 0x8, addend: 0x0, symName: '__ZN42_$LT$$RF$T$u20$as$u20$core..fmt..Debug$GT$3fmt17h2f7cb0653a474c6fE', symObjAddr: 0x418, symBinAddr: 0x10001CCD4, symSize: 0x9C }
  - { offset: 0x5BB1E, size: 0x8, addend: 0x0, symName: '__ZN42_$LT$$RF$T$u20$as$u20$core..fmt..Debug$GT$3fmt17h3b4c7e82f91c2851E', symObjAddr: 0x4B4, symBinAddr: 0x10001CD70, symSize: 0x14 }
  - { offset: 0x5BB39, size: 0x8, addend: 0x0, symName: '__ZN42_$LT$$RF$T$u20$as$u20$core..fmt..Debug$GT$3fmt17h3e34b492a7e96395E', symObjAddr: 0x4C8, symBinAddr: 0x10001CD84, symSize: 0x64 }
  - { offset: 0x5BB6A, size: 0x8, addend: 0x0, symName: '__ZN42_$LT$$RF$T$u20$as$u20$core..fmt..Debug$GT$3fmt17h46a456e504746f37E', symObjAddr: 0x52C, symBinAddr: 0x10001CDE8, symSize: 0x14 }
  - { offset: 0x5BB85, size: 0x8, addend: 0x0, symName: '__ZN42_$LT$$RF$T$u20$as$u20$core..fmt..Debug$GT$3fmt17h6017eb553f555eeaE', symObjAddr: 0x540, symBinAddr: 0x10001CDFC, symSize: 0x30 }
  - { offset: 0x5BBD9, size: 0x8, addend: 0x0, symName: '__ZN42_$LT$$RF$T$u20$as$u20$core..fmt..Debug$GT$3fmt17h6fe4a21a5a9dc639E', symObjAddr: 0x570, symBinAddr: 0x10001CE2C, symSize: 0x1C }
  - { offset: 0x5BC0A, size: 0x8, addend: 0x0, symName: '__ZN42_$LT$$RF$T$u20$as$u20$core..fmt..Debug$GT$3fmt17h7483ad4d5a6f3c17E', symObjAddr: 0x58C, symBinAddr: 0x10001CE48, symSize: 0x44 }
  - { offset: 0x5BC3B, size: 0x8, addend: 0x0, symName: '__ZN42_$LT$$RF$T$u20$as$u20$core..fmt..Debug$GT$3fmt17h77a5695ac77f08b5E', symObjAddr: 0x5D0, symBinAddr: 0x10001CE8C, symSize: 0x4C }
  - { offset: 0x5BCAA, size: 0x8, addend: 0x0, symName: '__ZN42_$LT$$RF$T$u20$as$u20$core..fmt..Debug$GT$3fmt17h85d76e334d46ea19E', symObjAddr: 0x61C, symBinAddr: 0x10001CED8, symSize: 0x1C }
  - { offset: 0x5BCDB, size: 0x8, addend: 0x0, symName: '__ZN42_$LT$$RF$T$u20$as$u20$core..fmt..Debug$GT$3fmt17h9393fbad5eb3bf13E', symObjAddr: 0x638, symBinAddr: 0x10001CEF4, symSize: 0x1C }
  - { offset: 0x5BCFD, size: 0x8, addend: 0x0, symName: '__ZN42_$LT$$RF$T$u20$as$u20$core..fmt..Debug$GT$3fmt17h97369a355d5a0815E', symObjAddr: 0x654, symBinAddr: 0x10001CF10, symSize: 0x74 }
  - { offset: 0x5BDBC, size: 0x8, addend: 0x0, symName: '__ZN42_$LT$$RF$T$u20$as$u20$core..fmt..Debug$GT$3fmt17h9b3910cf5098e39aE', symObjAddr: 0x6C8, symBinAddr: 0x10001CF84, symSize: 0x30 }
  - { offset: 0x5BE02, size: 0x8, addend: 0x0, symName: '__ZN42_$LT$$RF$T$u20$as$u20$core..fmt..Debug$GT$3fmt17hab1bf34c3776e549E', symObjAddr: 0x6F8, symBinAddr: 0x10001CFB4, symSize: 0x38 }
  - { offset: 0x5BE33, size: 0x8, addend: 0x0, symName: '__ZN42_$LT$$RF$T$u20$as$u20$core..fmt..Debug$GT$3fmt17hb5e58b4cf471debeE', symObjAddr: 0x730, symBinAddr: 0x10001CFEC, symSize: 0x30 }
  - { offset: 0x5BE79, size: 0x8, addend: 0x0, symName: '__ZN42_$LT$$RF$T$u20$as$u20$core..fmt..Debug$GT$3fmt17hba34b26fb7987f8bE', symObjAddr: 0x760, symBinAddr: 0x10001D01C, symSize: 0x64 }
  - { offset: 0x5BEAA, size: 0x8, addend: 0x0, symName: '__ZN42_$LT$$RF$T$u20$as$u20$core..fmt..Debug$GT$3fmt17hbd10464c890b4696E', symObjAddr: 0x7C4, symBinAddr: 0x10001D080, symSize: 0x14 }
  - { offset: 0x5BEC5, size: 0x8, addend: 0x0, symName: '__ZN42_$LT$$RF$T$u20$as$u20$core..fmt..Debug$GT$3fmt17hbeb26db500e53543E', symObjAddr: 0x7D8, symBinAddr: 0x10001D094, symSize: 0x1C }
  - { offset: 0x5BEE0, size: 0x8, addend: 0x0, symName: '__ZN42_$LT$$RF$T$u20$as$u20$core..fmt..Debug$GT$3fmt17hc36902adef03794fE', symObjAddr: 0x7F4, symBinAddr: 0x10001D0B0, symSize: 0x70 }
  - { offset: 0x5BF11, size: 0x8, addend: 0x0, symName: '__ZN42_$LT$$RF$T$u20$as$u20$core..fmt..Debug$GT$3fmt17hc56882e380cb3f1cE', symObjAddr: 0x864, symBinAddr: 0x10001D120, symSize: 0x144 }
  - { offset: 0x5BF50, size: 0x8, addend: 0x0, symName: '__ZN42_$LT$$RF$T$u20$as$u20$core..fmt..Debug$GT$3fmt17hd3ffafe468f6f39dE', symObjAddr: 0x9A8, symBinAddr: 0x10001D264, symSize: 0x2C }
  - { offset: 0x5BFC2, size: 0x8, addend: 0x0, symName: '__ZN42_$LT$$RF$T$u20$as$u20$core..fmt..Debug$GT$3fmt17hd6fff32b815d6c00E', symObjAddr: 0x9D4, symBinAddr: 0x10001D290, symSize: 0x74 }
  - { offset: 0x5BFF3, size: 0x8, addend: 0x0, symName: '__ZN42_$LT$$RF$T$u20$as$u20$core..fmt..Debug$GT$3fmt17hd793938e439b1e01E', symObjAddr: 0xA48, symBinAddr: 0x10001D304, symSize: 0x38 }
  - { offset: 0x5C024, size: 0x8, addend: 0x0, symName: '__ZN42_$LT$$RF$T$u20$as$u20$core..fmt..Debug$GT$3fmt17hd81565514df3c78bE', symObjAddr: 0xA80, symBinAddr: 0x10001D33C, symSize: 0x6C }
  - { offset: 0x5C055, size: 0x8, addend: 0x0, symName: '__ZN42_$LT$$RF$T$u20$as$u20$core..fmt..Debug$GT$3fmt17hee44d9bace0a9d8dE', symObjAddr: 0xAEC, symBinAddr: 0x10001D3A8, symSize: 0x68 }
  - { offset: 0x5C086, size: 0x8, addend: 0x0, symName: '__ZN42_$LT$$RF$T$u20$as$u20$core..fmt..Debug$GT$3fmt17hf09abca958d0012bE', symObjAddr: 0xB54, symBinAddr: 0x10001D410, symSize: 0x2C }
  - { offset: 0x5C1BC, size: 0x8, addend: 0x0, symName: '__ZN42_$LT$$RF$T$u20$as$u20$core..fmt..Debug$GT$3fmt17hf8e4e8e01235cb62E', symObjAddr: 0xB80, symBinAddr: 0x10001D43C, symSize: 0x38 }
  - { offset: 0x5C1ED, size: 0x8, addend: 0x0, symName: '__ZN42_$LT$$RF$T$u20$as$u20$core..fmt..Debug$GT$3fmt17hf9f0136a72e97d04E', symObjAddr: 0xBB8, symBinAddr: 0x10001D474, symSize: 0x20 }
  - { offset: 0x5C2D6, size: 0x8, addend: 0x0, symName: '__ZN4core3fmt3num52_$LT$impl$u20$core..fmt..Debug$u20$for$u20$usize$GT$3fmt17hbcf940b80966635eE', symObjAddr: 0xD58, symBinAddr: 0x10001D614, symSize: 0x2C }
  - { offset: 0x5C312, size: 0x8, addend: 0x0, symName: '__ZN4core3fmt3num50_$LT$impl$u20$core..fmt..Debug$u20$for$u20$i32$GT$3fmt17hd380ad7a4fef2800E', symObjAddr: 0xCA8, symBinAddr: 0x10001D564, symSize: 0x2C }
  - { offset: 0x5C34E, size: 0x8, addend: 0x0, symName: '__ZN4core3fmt3num50_$LT$impl$u20$core..fmt..Debug$u20$for$u20$u64$GT$3fmt17hcf93b17fc1abb0a9E', symObjAddr: 0xD2C, symBinAddr: 0x10001D5E8, symSize: 0x2C }
  - { offset: 0x5C38A, size: 0x8, addend: 0x0, symName: '__ZN4core3fmt3num49_$LT$impl$u20$core..fmt..Debug$u20$for$u20$u8$GT$3fmt17hdc70f7e91b6e92feE', symObjAddr: 0xC7C, symBinAddr: 0x10001D538, symSize: 0x2C }
  - { offset: 0x5C3C6, size: 0x8, addend: 0x0, symName: '__ZN4core3fmt3num50_$LT$impl$u20$core..fmt..Debug$u20$for$u20$u32$GT$3fmt17h20423420560f3e4aE', symObjAddr: 0xD00, symBinAddr: 0x10001D5BC, symSize: 0x2C }
  - { offset: 0x5C3F5, size: 0x8, addend: 0x0, symName: '__ZN4core3fmt3num50_$LT$impl$u20$core..fmt..Debug$u20$for$u20$i64$GT$3fmt17hec167f918c8ef705E', symObjAddr: 0xCD4, symBinAddr: 0x10001D590, symSize: 0x2C }
  - { offset: 0x5C515, size: 0x8, addend: 0x0, symName: '__ZN50_$LT$$LP$U$C$T$RP$$u20$as$u20$core..fmt..Debug$GT$3fmt17h98d36de4e34baa2eE', symObjAddr: 0xC420, symBinAddr: 0x100028B14, symSize: 0x74 }
  - { offset: 0x5C544, size: 0x8, addend: 0x0, symName: '__ZN45_$LT$$LP$$RP$$u20$as$u20$core..fmt..Debug$GT$3fmt17h51ca4bbc42111efeE', symObjAddr: 0xC5C, symBinAddr: 0x10001D518, symSize: 0x20 }
  - { offset: 0x5C55E, size: 0x8, addend: 0x0, symName: '__ZN44_$LT$$RF$T$u20$as$u20$core..fmt..Display$GT$3fmt17h78eac1383a7063d7E', symObjAddr: 0xBD8, symBinAddr: 0x10001D494, symSize: 0x1C }
  - { offset: 0x5C579, size: 0x8, addend: 0x0, symName: '__ZN44_$LT$$RF$T$u20$as$u20$core..fmt..Display$GT$3fmt17hcf9db2113d250371E', symObjAddr: 0xBF4, symBinAddr: 0x10001D4B0, symSize: 0x68 }
  - { offset: 0x5CBB3, size: 0x8, addend: 0x0, symName: __ZN4core3fmt5Write10write_char17h4f2ce982b115088dE, symObjAddr: 0xD84, symBinAddr: 0x10001D640, symSize: 0x17C }
  - { offset: 0x5CD3D, size: 0x8, addend: 0x0, symName: __ZN4core3fmt5Write10write_char17h561dbab5b5c32ca3E, symObjAddr: 0xF00, symBinAddr: 0x10001D7BC, symSize: 0x140 }
  - { offset: 0x5CDA3, size: 0x8, addend: 0x0, symName: __ZN4core3fmt5Write10write_char17h5faeed758c2200efE, symObjAddr: 0x1040, symBinAddr: 0x10001D8FC, symSize: 0x128 }
  - { offset: 0x5CF3B, size: 0x8, addend: 0x0, symName: __ZN4core3fmt5Write10write_char17h902297fe9019c92dE, symObjAddr: 0x1168, symBinAddr: 0x10001DA24, symSize: 0x17C }
  - { offset: 0x5D0C5, size: 0x8, addend: 0x0, symName: __ZN4core3fmt5Write10write_char17hc47f3f15ef1db82aE, symObjAddr: 0x12E4, symBinAddr: 0x10001DBA0, symSize: 0x140 }
  - { offset: 0x5D185, size: 0x8, addend: 0x0, symName: __ZN4core3fmt5Write9write_fmt17h273b6f5d029be9e0E, symObjAddr: 0x1424, symBinAddr: 0x10001DCE0, symSize: 0x1C }
  - { offset: 0x5D1B4, size: 0x8, addend: 0x0, symName: __ZN4core3fmt5Write9write_fmt17h4a87f4fec52c05fcE, symObjAddr: 0x1440, symBinAddr: 0x10001DCFC, symSize: 0x1C }
  - { offset: 0x5D1E3, size: 0x8, addend: 0x0, symName: __ZN4core3fmt5Write9write_fmt17h710862463af65ce5E, symObjAddr: 0x145C, symBinAddr: 0x10001DD18, symSize: 0x1C }
  - { offset: 0x5D212, size: 0x8, addend: 0x0, symName: __ZN4core3fmt5Write9write_fmt17hb8ba3d0d23b58844E, symObjAddr: 0x1478, symBinAddr: 0x10001DD34, symSize: 0x1C }
  - { offset: 0x5D241, size: 0x8, addend: 0x0, symName: __ZN4core3fmt5Write9write_fmt17hc8a95e3c90fe4721E, symObjAddr: 0x1494, symBinAddr: 0x10001DD50, symSize: 0x1C }
  - { offset: 0x5D270, size: 0x8, addend: 0x0, symName: __ZN4core3fmt5Write9write_fmt17he65f057c4ddb1bf2E, symObjAddr: 0x14B0, symBinAddr: 0x10001DD6C, symSize: 0x1C }
  - { offset: 0x5D2CD, size: 0x8, addend: 0x0, symName: '__ZN50_$LT$$BP$mut$u20$T$u20$as$u20$core..fmt..Debug$GT$3fmt17he21299819320e252E', symObjAddr: 0xC40C, symBinAddr: 0x100028B00, symSize: 0x14 }
  - { offset: 0x5D31A, size: 0x8, addend: 0x0, symName: '__ZN52_$LT$$RF$mut$u20$T$u20$as$u20$core..fmt..Display$GT$3fmt17h7c765da0058d0c3fE', symObjAddr: 0xC494, symBinAddr: 0x100028B88, symSize: 0x1C }
  - { offset: 0x5D34F, size: 0x8, addend: 0x0, symName: '__ZN4core5array69_$LT$impl$u20$core..fmt..Debug$u20$for$u20$$u5b$T$u3b$$u20$N$u5d$$GT$3fmt17h82acd2cb7f141bddE', symObjAddr: 0x44A0, symBinAddr: 0x100020C48, symSize: 0xFC }
  - { offset: 0x5DA48, size: 0x8, addend: 0x0, symName: '__ZN73_$LT$core..num..nonzero..NonZero$LT$T$GT$$u20$as$u20$core..fmt..Debug$GT$3fmt17hddcefe0dccb396cdE', symObjAddr: 0x18488, symBinAddr: 0x100034A98, symSize: 0x48 }
  - { offset: 0x5E092, size: 0x8, addend: 0x0, symName: '__ZN70_$LT$core..num..error..TryFromIntError$u20$as$u20$core..fmt..Debug$GT$3fmt17hd581645ad523dbd4E', symObjAddr: 0x1842C, symBinAddr: 0x100034A3C, symSize: 0x40 }
  - { offset: 0x5E0B2, size: 0x8, addend: 0x0, symName: '__ZN72_$LT$core..num..error..TryFromIntError$u20$as$u20$core..error..Error$GT$11description17h6516769c44e1ac39E', symObjAddr: 0x1846C, symBinAddr: 0x100034A7C, symSize: 0x1C }
  - { offset: 0x5E31E, size: 0x8, addend: 0x0, symName: '__ZN55_$LT$$RF$str$u20$as$u20$core..str..pattern..Pattern$GT$15is_contained_in17h61deb4b8b00e9356E', symObjAddr: 0xC4B0, symBinAddr: 0x100028BA4, symSize: 0x3BC }
  - { offset: 0x5E802, size: 0x8, addend: 0x0, symName: __ZN4core5panic12PanicPayload6as_str17h7a58625bedad2dd7E, symObjAddr: 0x4644, symBinAddr: 0x100020DEC, symSize: 0x14 }
  - { offset: 0x6009C, size: 0x8, addend: 0x0, symName: __ZN4core3ops8function2Fn4call17h5a9d1a4a112cc64dE, symObjAddr: 0x14CC, symBinAddr: 0x10001DD88, symSize: 0x14 }
  - { offset: 0x600BC, size: 0x8, addend: 0x0, symName: __ZN4core3ops8function5FnMut8call_mut17h9b398cd5398202c3E, symObjAddr: 0x14E0, symBinAddr: 0x10001DD9C, symSize: 0x14 }
  - { offset: 0x6011D, size: 0x8, addend: 0x0, symName: '__ZN4core3ops8function6FnOnce40call_once$u7b$$u7b$vtable.shim$u7d$$u7d$17h0eb852fd7c380454E', symObjAddr: 0x14F4, symBinAddr: 0x10001DDB0, symSize: 0x18 }
  - { offset: 0x6016E, size: 0x8, addend: 0x0, symName: '__ZN4core3ops8function6FnOnce40call_once$u7b$$u7b$vtable.shim$u7d$$u7d$17h1e3c31538c4557bcE', symObjAddr: 0x150C, symBinAddr: 0x10001DDC8, symSize: 0x74 }
  - { offset: 0x602E7, size: 0x8, addend: 0x0, symName: '__ZN4core3ops8function6FnOnce40call_once$u7b$$u7b$vtable.shim$u7d$$u7d$17h2d847a7cd888d5d5E', symObjAddr: 0x1580, symBinAddr: 0x10001DE3C, symSize: 0x18 }
  - { offset: 0x60338, size: 0x8, addend: 0x0, symName: '__ZN4core3ops8function6FnOnce40call_once$u7b$$u7b$vtable.shim$u7d$$u7d$17h3750d9ec770c10b1E', symObjAddr: 0x1598, symBinAddr: 0x10001DE54, symSize: 0xB0 }
  - { offset: 0x60489, size: 0x8, addend: 0x0, symName: '__ZN4core3ops8function6FnOnce40call_once$u7b$$u7b$vtable.shim$u7d$$u7d$17h4dab06bdd193d52eE', symObjAddr: 0x1648, symBinAddr: 0x10001DF04, symSize: 0x14 }
  - { offset: 0x604C5, size: 0x8, addend: 0x0, symName: '__ZN4core3ops8function6FnOnce40call_once$u7b$$u7b$vtable.shim$u7d$$u7d$17h5e1873a29e148d92E', symObjAddr: 0x165C, symBinAddr: 0x10001DF18, symSize: 0x18 }
  - { offset: 0x60501, size: 0x8, addend: 0x0, symName: '__ZN4core3ops8function6FnOnce40call_once$u7b$$u7b$vtable.shim$u7d$$u7d$17h921122b90dd376f4E', symObjAddr: 0x1674, symBinAddr: 0x10001DF30, symSize: 0x28 }
  - { offset: 0x6053D, size: 0x8, addend: 0x0, symName: '__ZN4core3ops8function6FnOnce40call_once$u7b$$u7b$vtable.shim$u7d$$u7d$17ha9e675c9b3024f0cE', symObjAddr: 0x169C, symBinAddr: 0x10001DF58, symSize: 0x10 }
  - { offset: 0x60579, size: 0x8, addend: 0x0, symName: '__ZN4core3ops8function6FnOnce40call_once$u7b$$u7b$vtable.shim$u7d$$u7d$17hb3bffd20ef83a1afE', symObjAddr: 0x16AC, symBinAddr: 0x10001DF68, symSize: 0x78 }
  - { offset: 0x6070E, size: 0x8, addend: 0x0, symName: '__ZN4core3ops8function6FnOnce40call_once$u7b$$u7b$vtable.shim$u7d$$u7d$17hce554f1a6421566bE', symObjAddr: 0x1724, symBinAddr: 0x10001DFE0, symSize: 0x28 }
  - { offset: 0x6074A, size: 0x8, addend: 0x0, symName: '__ZN4core3ops8function6FnOnce40call_once$u7b$$u7b$vtable.shim$u7d$$u7d$17hd3f4c9f3cd25c962E', symObjAddr: 0x174C, symBinAddr: 0x10001E008, symSize: 0xA4 }
  - { offset: 0x60890, size: 0x8, addend: 0x0, symName: '__ZN4core3ops8function6FnOnce40call_once$u7b$$u7b$vtable.shim$u7d$$u7d$17hd455b8914116fed3E', symObjAddr: 0x17F0, symBinAddr: 0x10001E0AC, symSize: 0x10 }
  - { offset: 0x608CC, size: 0x8, addend: 0x0, symName: '__ZN4core3ops8function6FnOnce40call_once$u7b$$u7b$vtable.shim$u7d$$u7d$17hedaaa27097ec661bE', symObjAddr: 0x1800, symBinAddr: 0x10001E0BC, symSize: 0x60 }
  - { offset: 0x609DB, size: 0x8, addend: 0x0, symName: '__ZN4core3ops8function6FnOnce40call_once$u7b$$u7b$vtable.shim$u7d$$u7d$17hf3f69d97b1da84c4E', symObjAddr: 0x1860, symBinAddr: 0x10001E11C, symSize: 0x28 }
  - { offset: 0x64B2E, size: 0x8, addend: 0x0, symName: '__ZN4core4cell4once17OnceCell$LT$T$GT$8try_init17hc4adabb9fa3e8a4dE', symObjAddr: 0x438C, symBinAddr: 0x1000A43F8, symSize: 0x114 }
  - { offset: 0x65108, size: 0x8, addend: 0x0, symName: __ZN4core5error5Error5cause17he5f5866634b34abeE, symObjAddr: 0x459C, symBinAddr: 0x100020D44, symSize: 0x14 }
  - { offset: 0x65122, size: 0x8, addend: 0x0, symName: __ZN4core5error5Error5cause17hed71aa76d36b00cbE, symObjAddr: 0x45B0, symBinAddr: 0x100020D58, symSize: 0x14 }
  - { offset: 0x6513C, size: 0x8, addend: 0x0, symName: __ZN4core5error5Error7provide17hbb88aaecb7888c77E, symObjAddr: 0x45C4, symBinAddr: 0x100020D6C, symSize: 0x10 }
  - { offset: 0x65156, size: 0x8, addend: 0x0, symName: __ZN4core5error5Error7provide17hd090dbf8d04f3e78E, symObjAddr: 0x45D4, symBinAddr: 0x100020D7C, symSize: 0x10 }
  - { offset: 0x65170, size: 0x8, addend: 0x0, symName: __ZN4core5error5Error7type_id17h9bbf77c273b002ecE, symObjAddr: 0x45E4, symBinAddr: 0x100020D8C, symSize: 0x30 }
  - { offset: 0x6518A, size: 0x8, addend: 0x0, symName: __ZN4core5error5Error7type_id17hcb9f32e88d3ef938E, symObjAddr: 0x4614, symBinAddr: 0x100020DBC, symSize: 0x30 }
  - { offset: 0x651AB, size: 0x8, addend: 0x0, symName: __ZN4core9panicking13assert_failed17h44dfa2b6b0a073dcE, symObjAddr: 0xC358, symBinAddr: 0x1000A450C, symSize: 0x44 }
  - { offset: 0x651C7, size: 0x8, addend: 0x0, symName: __ZN4core9panicking13assert_failed17h5af2e1f3f6cf3b70E, symObjAddr: 0xC39C, symBinAddr: 0x1000A4550, symSize: 0x40 }
  - { offset: 0x651E3, size: 0x8, addend: 0x0, symName: __ZN4core9panicking13assert_failed17h69463876ec72e065E, symObjAddr: 0xC3DC, symBinAddr: 0x1000A4590, symSize: 0x30 }
  - { offset: 0x65A01, size: 0x8, addend: 0x0, symName: '__ZN92_$LT$std..sys..pal..unix..process..process_inner..ExitStatus$u20$as$u20$core..fmt..Debug$GT$3fmt17h119e992c6eb699a5E', symObjAddr: 0x4212C, symBinAddr: 0x10005D7CC, symSize: 0x58 }
  - { offset: 0x65A61, size: 0x8, addend: 0x0, symName: __ZN3std3sys3pal4unix7process13process_inner7Process4wait17h325cd4976e583510E, symObjAddr: 0x4208C, symBinAddr: 0x10005D72C, symSize: 0xA0 }
  - { offset: 0x65BFE, size: 0x8, addend: 0x0, symName: '__ZN193_$LT$std..sys..pal..unix..process..process_inner..$LT$impl$u20$std..sys..pal..unix..process..process_common..Command$GT$..posix_spawn..PosixSpawnFileActions$u20$as$u20$core..ops..drop..Drop$GT$4drop17hab4e80a4f6e4a5deE', symObjAddr: 0x42064, symBinAddr: 0x10005D704, symSize: 0x14 }
  - { offset: 0x65C26, size: 0x8, addend: 0x0, symName: '__ZN186_$LT$std..sys..pal..unix..process..process_inner..$LT$impl$u20$std..sys..pal..unix..process..process_common..Command$GT$..posix_spawn..PosixSpawnattr$u20$as$u20$core..ops..drop..Drop$GT$4drop17heead820de25b879eE', symObjAddr: 0x42078, symBinAddr: 0x10005D718, symSize: 0x14 }
  - { offset: 0x65C8C, size: 0x8, addend: 0x0, symName: '__ZN173_$LT$std..sys..pal..unix..process..process_inner..$LT$impl$u20$std..sys..pal..unix..process..process_common..Command$GT$..do_exec..Reset$u20$as$u20$core..ops..drop..Drop$GT$4drop17h5a7ac91c7eca8b6eE', symObjAddr: 0x42040, symBinAddr: 0x10005D6E0, symSize: 0x24 }
  - { offset: 0x65CE6, size: 0x8, addend: 0x0, symName: '__ZN94_$LT$std..sys..pal..unix..process..process_inner..ExitStatus$u20$as$u20$core..fmt..Display$GT$3fmt17h71f65b4645dd1f42E', symObjAddr: 0x42184, symBinAddr: 0x10005D824, symSize: 0x1B4 }
  - { offset: 0x65E86, size: 0x8, addend: 0x0, symName: '__ZN97_$LT$std..sys..pal..unix..process..process_inner..ExitStatusError$u20$as$u20$core..fmt..Debug$GT$3fmt17hdb01f360f0679bbaE', symObjAddr: 0x42338, symBinAddr: 0x10005D9D8, symSize: 0x58 }
  - { offset: 0x65F20, size: 0x8, addend: 0x0, symName: __ZN3std3sys3pal4unix7process14process_common7Command3new17h13672917ae485a29E, symObjAddr: 0x3E838, symBinAddr: 0x100059ED8, symSize: 0x234 }
  - { offset: 0x6630B, size: 0x8, addend: 0x0, symName: __ZN3std3sys3pal4unix7process14process_common7Command9set_arg_017hee26392c083e5594E, symObjAddr: 0x3EA6C, symBinAddr: 0x10005A10C, symSize: 0xCC }
  - { offset: 0x66478, size: 0x8, addend: 0x0, symName: __ZN3std3sys3pal4unix7process14process_common7Command3arg17h622a73bda66b03c8E, symObjAddr: 0x3EB38, symBinAddr: 0x10005A1D8, symSize: 0xEC }
  - { offset: 0x66601, size: 0x8, addend: 0x0, symName: __ZN3std3sys3pal4unix7process14process_common7Command3cwd17h26cafd8b8f9a653eE, symObjAddr: 0x3EC24, symBinAddr: 0x10005A2C4, symSize: 0x60 }
  - { offset: 0x666B3, size: 0x8, addend: 0x0, symName: __ZN3std3sys3pal4unix7process14process_common7Command8pre_exec17h8fbda1b127efca37E, symObjAddr: 0x3EC84, symBinAddr: 0x10005A324, symSize: 0x70 }
  - { offset: 0x66789, size: 0x8, addend: 0x0, symName: __ZN3std3sys3pal4unix7process14process_common7Command5stdin17h2d29b891b3e6b449E, symObjAddr: 0x3ECF4, symBinAddr: 0x10005A394, symSize: 0x44 }
  - { offset: 0x66812, size: 0x8, addend: 0x0, symName: __ZN3std3sys3pal4unix7process14process_common7Command6stdout17hd3f7b58da7056ed1E, symObjAddr: 0x3ED38, symBinAddr: 0x10005A3D8, symSize: 0x44 }
  - { offset: 0x6689B, size: 0x8, addend: 0x0, symName: __ZN3std3sys3pal4unix7process14process_common7Command6stderr17h60f395c88f8fe6c9E, symObjAddr: 0x3ED7C, symBinAddr: 0x10005A41C, symSize: 0x44 }
  - { offset: 0x66924, size: 0x8, addend: 0x0, symName: __ZN3std3sys3pal4unix7process14process_common7Command11capture_env17h787ff731e01e6cefE, symObjAddr: 0x3EDC0, symBinAddr: 0x10005A460, symSize: 0xA60 }
  - { offset: 0x6856F, size: 0x8, addend: 0x0, symName: __ZN3std3sys3pal4unix7process14process_common7Command8setup_io17h823e3e9ebaf4453eE, symObjAddr: 0x3F820, symBinAddr: 0x10005AEC0, symSize: 0x2F0 }
  - { offset: 0x68A4F, size: 0x8, addend: 0x0, symName: '__ZN3std3sys3pal4unix7process13process_inner71_$LT$impl$u20$std..sys..pal..unix..process..process_common..Command$GT$5spawn17h5d451167e50d386fE', symObjAddr: 0x4132C, symBinAddr: 0x10005C9CC, symSize: 0x9B4 }
  - { offset: 0x69CDA, size: 0x8, addend: 0x0, symName: '__ZN3std3sys3pal4unix7process13process_inner71_$LT$impl$u20$std..sys..pal..unix..process..process_common..Command$GT$7do_exec17haa393386a4cc0c22E', symObjAddr: 0x41CE0, symBinAddr: 0x10005D380, symSize: 0x360 }
  - { offset: 0x6A59E, size: 0x8, addend: 0x0, symName: '__ZN116_$LT$std..sys..pal..unix..process..process_common..CommandArgs$u20$as$u20$core..iter..traits..iterator..Iterator$GT$4next17h963e2f9af6b20000E', symObjAddr: 0x40488, symBinAddr: 0x10005BB28, symSize: 0x34 }
  - { offset: 0x6A5B5, size: 0x8, addend: 0x0, symName: '__ZN116_$LT$std..sys..pal..unix..process..process_common..CommandArgs$u20$as$u20$core..iter..traits..iterator..Iterator$GT$4next17h963e2f9af6b20000E', symObjAddr: 0x40488, symBinAddr: 0x10005BB28, symSize: 0x34 }
  - { offset: 0x6A649, size: 0x8, addend: 0x0, symName: '__ZN116_$LT$std..sys..pal..unix..process..process_common..CommandArgs$u20$as$u20$core..iter..traits..iterator..Iterator$GT$9size_hint17h4a07d16a7e5b1de7E', symObjAddr: 0x404BC, symBinAddr: 0x10005BB5C, symSize: 0x28 }
  - { offset: 0x6A6B2, size: 0x8, addend: 0x0, symName: '__ZN127_$LT$std..sys..pal..unix..process..process_common..CommandArgs$u20$as$u20$core..iter..traits..exact_size..ExactSizeIterator$GT$3len17hdc3073d741c6fa55E', symObjAddr: 0x404E4, symBinAddr: 0x10005BB84, symSize: 0x1C }
  - { offset: 0x6A7A9, size: 0x8, addend: 0x0, symName: __ZN3std3sys3pal4unix7process14process_common4os2c17hab5722c37a201f70E, symObjAddr: 0x3FB10, symBinAddr: 0x10005B1B0, symSize: 0x10C }
  - { offset: 0x6AA10, size: 0x8, addend: 0x0, symName: __ZN3std3sys3pal4unix7process14process_common5Stdio14to_child_stdio17hfb2b89b82b9db403E, symObjAddr: 0x3FC1C, symBinAddr: 0x10005B2BC, symSize: 0x154 }
  - { offset: 0x6AB31, size: 0x8, addend: 0x0, symName: '__ZN90_$LT$std..sys..pal..unix..process..process_common..Command$u20$as$u20$core..fmt..Debug$GT$3fmt17hb44da7dbd632b33bE', symObjAddr: 0x3FD70, symBinAddr: 0x10005B410, symSize: 0x6C0 }
  - { offset: 0x6B131, size: 0x8, addend: 0x0, symName: '__ZN91_$LT$std..sys..pal..unix..process..process_common..ExitCode$u20$as$u20$core..fmt..Debug$GT$3fmt17h9f632dc3c7ee331bE', symObjAddr: 0x40430, symBinAddr: 0x10005BAD0, symSize: 0x58 }
  - { offset: 0x6B152, size: 0x8, addend: 0x0, symName: '__ZN94_$LT$std..sys..pal..unix..process..process_common..CommandArgs$u20$as$u20$core..fmt..Debug$GT$3fmt17h6ff63ba1900d0c7eE', symObjAddr: 0x40500, symBinAddr: 0x10005BBA0, symSize: 0x78 }
  - { offset: 0x6B222, size: 0x8, addend: 0x0, symName: '__ZN70_$LT$std..sys..pal..unix..fd..FileDesc$u20$as$u20$core..fmt..Debug$GT$3fmt17h45787680a0859c59E', symObjAddr: 0x412EC, symBinAddr: 0x10005C98C, symSize: 0x40 }
  - { offset: 0x6B2FB, size: 0x8, addend: 0x0, symName: __ZN3std3sys3pal4unix2fd8FileDesc4read17h90c48124debd7791E, symObjAddr: 0x39DD0, symBinAddr: 0x100055470, symSize: 0x4C }
  - { offset: 0x6B3E5, size: 0x8, addend: 0x0, symName: __ZN3std3sys3pal4unix2fd8FileDesc13read_vectored17h54ed93f4c17c4f18E, symObjAddr: 0x39E1C, symBinAddr: 0x1000554BC, symSize: 0x4C }
  - { offset: 0x6B4CF, size: 0x8, addend: 0x0, symName: __ZN3std3sys3pal4unix2fd8FileDesc11read_to_end17h9ea6c331881a94ebE, symObjAddr: 0x39E68, symBinAddr: 0x100055508, symSize: 0x23C }
  - { offset: 0x6B923, size: 0x8, addend: 0x0, symName: __ZN3std3sys3pal4unix2fd8FileDesc7read_at17hbf768989317d5a5eE, symObjAddr: 0x3A0A4, symBinAddr: 0x100055744, symSize: 0x4C }
  - { offset: 0x6BA0D, size: 0x8, addend: 0x0, symName: __ZN3std3sys3pal4unix2fd8FileDesc8read_buf17h32381f6ce0c6485dE, symObjAddr: 0x3A0F0, symBinAddr: 0x100055790, symSize: 0x78 }
  - { offset: 0x6BBD1, size: 0x8, addend: 0x0, symName: __ZN3std3sys3pal4unix2fd8FileDesc16read_vectored_at17hef0c6763fa7c4a56E, symObjAddr: 0x3A168, symBinAddr: 0x100055808, symSize: 0x10C }
  - { offset: 0x6BD72, size: 0x8, addend: 0x0, symName: __ZN3std3sys3pal4unix2fd8FileDesc5write17h63a709af80a65a02E, symObjAddr: 0x3A274, symBinAddr: 0x100055914, symSize: 0x4C }
  - { offset: 0x6BE5F, size: 0x8, addend: 0x0, symName: __ZN3std3sys3pal4unix2fd8FileDesc14write_vectored17h656b27771d6be626E, symObjAddr: 0x3A2C0, symBinAddr: 0x100055960, symSize: 0x4C }
  - { offset: 0x6BF4C, size: 0x8, addend: 0x0, symName: __ZN3std3sys3pal4unix2fd8FileDesc8write_at17h16b68f91c6459658E, symObjAddr: 0x3A30C, symBinAddr: 0x1000559AC, symSize: 0x4C }
  - { offset: 0x6C039, size: 0x8, addend: 0x0, symName: __ZN3std3sys3pal4unix2fd8FileDesc17write_vectored_at17hc35e7a548cda2a22E, symObjAddr: 0x3A358, symBinAddr: 0x1000559F8, symSize: 0x10C }
  - { offset: 0x6C1DB, size: 0x8, addend: 0x0, symName: __ZN3std3sys3pal4unix2fd8FileDesc11set_cloexec17he0dbf185f3ec21d5E, symObjAddr: 0x3A464, symBinAddr: 0x100055B04, symSize: 0x40 }
  - { offset: 0x6C287, size: 0x8, addend: 0x0, symName: __ZN3std3sys3pal4unix2fd8FileDesc15set_nonblocking17h500574ddab38a851E, symObjAddr: 0x3A4A4, symBinAddr: 0x100055B44, symSize: 0x88 }
  - { offset: 0x6C4EC, size: 0x8, addend: 0x0, symName: '__ZN78_$LT$std..sys..pal..unix..fd..FileDesc$u20$as$u20$std..os..fd..owned..AsFd$GT$5as_fd17hd283742411f76864E', symObjAddr: 0x3A52C, symBinAddr: 0x100055BCC, symSize: 0x30 }
  - { offset: 0x6C510, size: 0x8, addend: 0x0, symName: '__ZN78_$LT$std..sys..pal..unix..fd..FileDesc$u20$as$u20$std..os..fd..owned..AsFd$GT$5as_fd17hd283742411f76864E', symObjAddr: 0x3A52C, symBinAddr: 0x100055BCC, symSize: 0x30 }
  - { offset: 0x6C56E, size: 0x8, addend: 0x0, symName: '__ZN77_$LT$std..sys..pal..unix..fs..FilePermissions$u20$as$u20$core..fmt..Debug$GT$3fmt17h902032d0149dd0f1E', symObjAddr: 0x3A5C8, symBinAddr: 0x100055C68, symSize: 0x6C }
  - { offset: 0x6C717, size: 0x8, addend: 0x0, symName: __ZN3std3sys3pal4unix2fs4File6open_c17h8034e496f140d197E, symObjAddr: 0x3AAF0, symBinAddr: 0x100056190, symSize: 0x1A8 }
  - { offset: 0x6C7F9, size: 0x8, addend: 0x0, symName: __ZN3std3sys3pal4unix2fs4File4read17h8aa089257f1a9f2aE, symObjAddr: 0x3AC98, symBinAddr: 0x100056338, symSize: 0x4C }
  - { offset: 0x6C8F9, size: 0x8, addend: 0x0, symName: __ZN3std3sys3pal4unix2fs4File13read_vectored17h6e76d8d21667602dE, symObjAddr: 0x3ACE4, symBinAddr: 0x100056384, symSize: 0x4C }
  - { offset: 0x6C9F9, size: 0x8, addend: 0x0, symName: __ZN3std3sys3pal4unix2fs4File8read_buf17hf58c120f1b5c20b0E, symObjAddr: 0x3AD30, symBinAddr: 0x1000563D0, symSize: 0x78 }
  - { offset: 0x6CD91, size: 0x8, addend: 0x0, symName: __ZN3std3sys3pal4unix2fs8DirEntry8metadata17hae6f0264f833a24dE, symObjAddr: 0x3A864, symBinAddr: 0x100055F04, symSize: 0x16C }
  - { offset: 0x6D36F, size: 0x8, addend: 0x0, symName: '__ZN3std3sys3pal4unix2fs10DirBuilder5mkdir28_$u7b$$u7b$closure$u7d$$u7d$17h6560d605ee2f73cbE', symObjAddr: 0x3ADA8, symBinAddr: 0x100056448, symSize: 0x44 }
  - { offset: 0x6D413, size: 0x8, addend: 0x0, symName: '__ZN3std3sys3pal4unix2fs4stat28_$u7b$$u7b$closure$u7d$$u7d$17h70f9192ee568bef6E', symObjAddr: 0x3C260, symBinAddr: 0x100057900, symSize: 0xAC }
  - { offset: 0x6D51A, size: 0x8, addend: 0x0, symName: '__ZN3std3sys3pal4unix2fs5lstat28_$u7b$$u7b$closure$u7d$$u7d$17hd0283e1cdef8ce8bE', symObjAddr: 0x3C430, symBinAddr: 0x100057AD0, symSize: 0xAC }
  - { offset: 0x6D62D, size: 0x8, addend: 0x0, symName: '__ZN70_$LT$std..sys..pal..unix..fs..FileType$u20$as$u20$core..fmt..Debug$GT$3fmt17h92dd30575d7df99aE', symObjAddr: 0x3A55C, symBinAddr: 0x100055BFC, symSize: 0x6C }
  - { offset: 0x6D64E, size: 0x8, addend: 0x0, symName: '__ZN69_$LT$std..sys..pal..unix..fs..ReadDir$u20$as$u20$core..fmt..Debug$GT$3fmt17hc96cca0d8a532facE', symObjAddr: 0x3A634, symBinAddr: 0x100055CD4, symSize: 0x2C }
  - { offset: 0x6D80D, size: 0x8, addend: 0x0, symName: '__ZN91_$LT$std..sys..pal..unix..fs..ReadDir$u20$as$u20$core..iter..traits..iterator..Iterator$GT$4next17hfd848aedf765e6c4E', symObjAddr: 0x3A660, symBinAddr: 0x100055D00, symSize: 0x138 }
  - { offset: 0x6DA84, size: 0x8, addend: 0x0, symName: '__ZN70_$LT$std..sys..pal..unix..fs..Dir$u20$as$u20$core..ops..drop..Drop$GT$4drop17he97ce98f5d03c2b0E', symObjAddr: 0x3A798, symBinAddr: 0x100055E38, symSize: 0xCC }
  - { offset: 0x6DB56, size: 0x8, addend: 0x0, symName: '__ZN73_$LT$std..sys..pal..unix..fs..OpenOptions$u20$as$u20$core..fmt..Debug$GT$3fmt17ha06b6c2eff7953ecE', symObjAddr: 0x3A9D0, symBinAddr: 0x100056070, symSize: 0x120 }
  - { offset: 0x6DB77, size: 0x8, addend: 0x0, symName: '__ZN72_$LT$std..sys..pal..unix..fs..DirBuilder$u20$as$u20$core..fmt..Debug$GT$3fmt17h85a4248a83adaeacE', symObjAddr: 0x3ADEC, symBinAddr: 0x10005648C, symSize: 0x6C }
  - { offset: 0x6DBEA, size: 0x8, addend: 0x0, symName: '__ZN66_$LT$std..sys..pal..unix..fs..File$u20$as$u20$core..fmt..Debug$GT$3fmt17h6f5f6f71f40e63f3E', symObjAddr: 0x3AE58, symBinAddr: 0x1000564F8, symSize: 0x22C }
  - { offset: 0x6E050, size: 0x8, addend: 0x0, symName: '__ZN66_$LT$std..sys..pal..unix..fs..Mode$u20$as$u20$core..fmt..Debug$GT$3fmt17hd154ad7162f80a67E', symObjAddr: 0x3B084, symBinAddr: 0x100056724, symSize: 0x328 }
  - { offset: 0x6E0B9, size: 0x8, addend: 0x0, symName: __ZN3std3sys3pal4unix2fs7readdir17h59e2c8552d831ce3E, symObjAddr: 0x3B3AC, symBinAddr: 0x100056A4C, symSize: 0x19C }
  - { offset: 0x6E370, size: 0x8, addend: 0x0, symName: '__ZN3std3sys3pal4unix2fs6unlink28_$u7b$$u7b$closure$u7d$$u7d$17h904cc607837fa578E', symObjAddr: 0x3B608, symBinAddr: 0x100056CA8, symSize: 0x38 }
  - { offset: 0x6E3F2, size: 0x8, addend: 0x0, symName: __ZN3std3sys3pal4unix2fs6unlink17h51654ca4416998bfE, symObjAddr: 0x3B548, symBinAddr: 0x100056BE8, symSize: 0xC0 }
  - { offset: 0x6E51C, size: 0x8, addend: 0x0, symName: '__ZN3std3sys3pal4unix2fs6rename28_$u7b$$u7b$closure$u7d$$u7d$28_$u7b$$u7b$closure$u7d$$u7d$17h5eac3de4cd12b91dE', symObjAddr: 0x3B820, symBinAddr: 0x100056EC0, symSize: 0x38 }
  - { offset: 0x6E59E, size: 0x8, addend: 0x0, symName: '__ZN3std3sys3pal4unix2fs6rename28_$u7b$$u7b$closure$u7d$$u7d$17h5cb34c4ac39bf188E', symObjAddr: 0x3B764, symBinAddr: 0x100056E04, symSize: 0xBC }
  - { offset: 0x6E6B3, size: 0x8, addend: 0x0, symName: __ZN3std3sys3pal4unix2fs6rename17h423f31950d2b69dbE, symObjAddr: 0x3B640, symBinAddr: 0x100056CE0, symSize: 0x124 }
  - { offset: 0x6E850, size: 0x8, addend: 0x0, symName: '__ZN3std3sys3pal4unix2fs8set_perm28_$u7b$$u7b$closure$u7d$$u7d$17h332511d630c810aeE', symObjAddr: 0x3B930, symBinAddr: 0x100056FD0, symSize: 0x64 }
  - { offset: 0x6E8FD, size: 0x8, addend: 0x0, symName: __ZN3std3sys3pal4unix2fs8set_perm17h0cc9045b929a09c2E, symObjAddr: 0x3B858, symBinAddr: 0x100056EF8, symSize: 0xD8 }
  - { offset: 0x6EA46, size: 0x8, addend: 0x0, symName: '__ZN3std3sys3pal4unix2fs5rmdir28_$u7b$$u7b$closure$u7d$$u7d$17hdfa7291090e85a51E', symObjAddr: 0x3BA54, symBinAddr: 0x1000570F4, symSize: 0x38 }
  - { offset: 0x6EAC8, size: 0x8, addend: 0x0, symName: __ZN3std3sys3pal4unix2fs5rmdir17hf9189da7425d3a20E, symObjAddr: 0x3B994, symBinAddr: 0x100057034, symSize: 0xC0 }
  - { offset: 0x6EBD3, size: 0x8, addend: 0x0, symName: __ZN3std3sys3pal4unix2fs8readlink17ha63c92b4e28c0771E, symObjAddr: 0x3BA8C, symBinAddr: 0x10005712C, symSize: 0xA4 }
  - { offset: 0x6EC62, size: 0x8, addend: 0x0, symName: '__ZN3std3sys3pal4unix2fs8readlink28_$u7b$$u7b$closure$u7d$$u7d$17hfd52ab05a230d6bdE', symObjAddr: 0x3BB30, symBinAddr: 0x1000571D0, symSize: 0x1B4 }
  - { offset: 0x6F00C, size: 0x8, addend: 0x0, symName: '__ZN3std3sys3pal4unix2fs7symlink28_$u7b$$u7b$closure$u7d$$u7d$28_$u7b$$u7b$closure$u7d$$u7d$17hb5d7d6a83c638dcaE', symObjAddr: 0x3BEC4, symBinAddr: 0x100057564, symSize: 0x38 }
  - { offset: 0x6F08E, size: 0x8, addend: 0x0, symName: '__ZN3std3sys3pal4unix2fs7symlink28_$u7b$$u7b$closure$u7d$$u7d$17h9587199af3cce2bcE', symObjAddr: 0x3BE08, symBinAddr: 0x1000574A8, symSize: 0xBC }
  - { offset: 0x6F1A3, size: 0x8, addend: 0x0, symName: __ZN3std3sys3pal4unix2fs7symlink17hcc38b4e9ae9ad1f4E, symObjAddr: 0x3BCE4, symBinAddr: 0x100057384, symSize: 0x124 }
  - { offset: 0x6F33F, size: 0x8, addend: 0x0, symName: '__ZN3std3sys3pal4unix2fs4link28_$u7b$$u7b$closure$u7d$$u7d$28_$u7b$$u7b$closure$u7d$$u7d$17hf5431f77450cfe6dE', symObjAddr: 0x3C0F4, symBinAddr: 0x100057794, symSize: 0x48 }
  - { offset: 0x6F3C1, size: 0x8, addend: 0x0, symName: '__ZN3std3sys3pal4unix2fs4link28_$u7b$$u7b$closure$u7d$$u7d$17h943a14a56d26b6c6E', symObjAddr: 0x3C02C, symBinAddr: 0x1000576CC, symSize: 0xC8 }
  - { offset: 0x6F4D6, size: 0x8, addend: 0x0, symName: __ZN3std3sys3pal4unix2fs4link17hb2219213d38fb1d8E, symObjAddr: 0x3BEFC, symBinAddr: 0x10005759C, symSize: 0x130 }
  - { offset: 0x6F64C, size: 0x8, addend: 0x0, symName: __ZN3std3sys3pal4unix2fs4stat17h377df69614e2934aE, symObjAddr: 0x3C13C, symBinAddr: 0x1000577DC, symSize: 0x124 }
  - { offset: 0x6F79F, size: 0x8, addend: 0x0, symName: __ZN3std3sys3pal4unix2fs5lstat17h900a4bf8c1264612E, symObjAddr: 0x3C30C, symBinAddr: 0x1000579AC, symSize: 0x124 }
  - { offset: 0x6F8F2, size: 0x8, addend: 0x0, symName: __ZN3std3sys3pal4unix2fs12canonicalize17h2e5842a84e15ba49E, symObjAddr: 0x3C4DC, symBinAddr: 0x100057B7C, symSize: 0x14C }
  - { offset: 0x6FB7F, size: 0x8, addend: 0x0, symName: '__ZN83_$LT$std..sys..pal..unix..fs..copy..FreeOnDrop$u20$as$u20$core..ops..drop..Drop$GT$4drop17hfb70b9f3505e5ae5E', symObjAddr: 0x3C9B8, symBinAddr: 0x100058058, symSize: 0x14 }
  - { offset: 0x6FB94, size: 0x8, addend: 0x0, symName: '__ZN3std3sys3pal4unix2fs4copy28_$u7b$$u7b$closure$u7d$$u7d$17h98093cb2c36557cdE', symObjAddr: 0x3C9CC, symBinAddr: 0x10005806C, symSize: 0x64 }
  - { offset: 0x6FC7A, size: 0x8, addend: 0x0, symName: __ZN3std3sys3pal4unix2fs4copy17hd16c887ec02b5327E, symObjAddr: 0x3C628, symBinAddr: 0x100057CC8, symSize: 0x390 }
  - { offset: 0x7055C, size: 0x8, addend: 0x0, symName: '__ZN3std3sys3pal4unix2fs5chown28_$u7b$$u7b$closure$u7d$$u7d$17h8878573eafe1b90bE', symObjAddr: 0x3CAF8, symBinAddr: 0x100058198, symSize: 0x48 }
  - { offset: 0x705DE, size: 0x8, addend: 0x0, symName: __ZN3std3sys3pal4unix2fs5chown17h35d7c6c607c2d877E, symObjAddr: 0x3CA30, symBinAddr: 0x1000580D0, symSize: 0xC8 }
  - { offset: 0x706F9, size: 0x8, addend: 0x0, symName: __ZN3std3sys3pal4unix2fs6fchown17hf19b0675192098a4E, symObjAddr: 0x3CB40, symBinAddr: 0x1000581E0, symSize: 0x34 }
  - { offset: 0x70794, size: 0x8, addend: 0x0, symName: '__ZN3std3sys3pal4unix2fs6lchown28_$u7b$$u7b$closure$u7d$$u7d$17hd37140a6b5c7c39bE', symObjAddr: 0x3CC3C, symBinAddr: 0x1000582DC, symSize: 0x48 }
  - { offset: 0x70816, size: 0x8, addend: 0x0, symName: __ZN3std3sys3pal4unix2fs6lchown17h625b4f15b6e42471E, symObjAddr: 0x3CB74, symBinAddr: 0x100058214, symSize: 0xC8 }
  - { offset: 0x70944, size: 0x8, addend: 0x0, symName: '__ZN3std3sys3pal4unix2fs6chroot28_$u7b$$u7b$closure$u7d$$u7d$17hfd92ada6cd8105fbE', symObjAddr: 0x3CD44, symBinAddr: 0x1000583E4, symSize: 0x38 }
  - { offset: 0x709C6, size: 0x8, addend: 0x0, symName: __ZN3std3sys3pal4unix2fs6chroot17h5bf6487a7174953bE, symObjAddr: 0x3CC84, symBinAddr: 0x100058324, symSize: 0xC0 }
  - { offset: 0x70B22, size: 0x8, addend: 0x0, symName: __ZN3std3sys3pal4unix2fs15remove_dir_impl24remove_dir_all_recursive17h30ffcd62a59917b6E, symObjAddr: 0x3CD7C, symBinAddr: 0x10005841C, symSize: 0x34C }
  - { offset: 0x71306, size: 0x8, addend: 0x0, symName: '__ZN3std3sys3pal4unix2fs15remove_dir_impl21remove_dir_all_modern28_$u7b$$u7b$closure$u7d$$u7d$17hbde53dd9c99deaa1E', symObjAddr: 0x3D0C8, symBinAddr: 0x100058768, symSize: 0x18 }
  - { offset: 0x71337, size: 0x8, addend: 0x0, symName: __ZN3std3sys3pal4unix2fs15remove_dir_impl14remove_dir_all17hdfda94a86efc363dE, symObjAddr: 0x3D0E0, symBinAddr: 0x100058780, symSize: 0x228 }
  - { offset: 0x716D8, size: 0x8, addend: 0x0, symName: '__ZN87_$LT$std..sys..pal..unix..os..Env$u20$as$u20$core..iter..traits..iterator..Iterator$GT$4next17h961674535a00c810E', symObjAddr: 0x3DB10, symBinAddr: 0x1000591B0, symSize: 0x48 }
  - { offset: 0x7174D, size: 0x8, addend: 0x0, symName: '__ZN87_$LT$std..sys..pal..unix..os..Env$u20$as$u20$core..iter..traits..iterator..Iterator$GT$9size_hint17h7fd0ba134e6e8605E', symObjAddr: 0x3DB58, symBinAddr: 0x1000591F8, symSize: 0x38 }
  - { offset: 0x717D7, size: 0x8, addend: 0x0, symName: '__ZN94_$LT$std..sys..pal..unix..os..SplitPaths$u20$as$u20$core..iter..traits..iterator..Iterator$GT$4next17h8adfb56bf64e97a4E', symObjAddr: 0x3D8BC, symBinAddr: 0x100058F5C, symSize: 0xA8 }
  - { offset: 0x71921, size: 0x8, addend: 0x0, symName: '__ZN78_$LT$std..sys..pal..unix..os..JoinPathsError$u20$as$u20$core..fmt..Display$GT$3fmt17h99e812a4fc7fc885E', symObjAddr: 0x3D964, symBinAddr: 0x100059004, symSize: 0x5C }
  - { offset: 0x719FD, size: 0x8, addend: 0x0, symName: __ZN3std3sys3pal4unix2os5errno17hf15802e79216ebd1E, symObjAddr: 0x3D714, symBinAddr: 0x100058DB4, symSize: 0x18 }
  - { offset: 0x71A23, size: 0x8, addend: 0x0, symName: '__ZN3std3sys3pal4unix2os5chdir28_$u7b$$u7b$closure$u7d$$u7d$17h9d4313e141ecf218E', symObjAddr: 0x3D804, symBinAddr: 0x100058EA4, symSize: 0x28 }
  - { offset: 0x71A38, size: 0x8, addend: 0x0, symName: __ZN3std3sys3pal4unix2os5chdir17h7f0db4d9c5a26554E, symObjAddr: 0x3D72C, symBinAddr: 0x100058DCC, symSize: 0xD8 }
  - { offset: 0x71B33, size: 0x8, addend: 0x0, symName: __ZN3std3sys3pal4unix2os11split_paths13bytes_to_path17hbca2e3f88d7eafe0E, symObjAddr: 0x3D82C, symBinAddr: 0x100058ECC, symSize: 0x90 }
  - { offset: 0x71CAF, size: 0x8, addend: 0x0, symName: '__ZN73_$LT$std..sys..pal..unix..os..EnvStrDebug$u20$as$u20$core..fmt..Debug$GT$3fmt17ha2df699f1968b6dcE', symObjAddr: 0x3D9C0, symBinAddr: 0x100059060, symSize: 0xD4 }
  - { offset: 0x71F69, size: 0x8, addend: 0x0, symName: '__ZN65_$LT$std..sys..pal..unix..os..Env$u20$as$u20$core..fmt..Debug$GT$3fmt17hf729ffe8cccea148E', symObjAddr: 0x3DA94, symBinAddr: 0x100059134, symSize: 0x7C }
  - { offset: 0x71FE9, size: 0x8, addend: 0x0, symName: __ZN3std3sys3pal4unix2os13env_read_lock17heec4de91a1003e89E, symObjAddr: 0x3DB90, symBinAddr: 0x100059230, symSize: 0x2D4 }
  - { offset: 0x726B4, size: 0x8, addend: 0x0, symName: '__ZN3std3sys3pal4unix2os6getenv28_$u7b$$u7b$closure$u7d$$u7d$17h2173bbb195afe723E', symObjAddr: 0x3DE64, symBinAddr: 0x100059504, symSize: 0x124 }
  - { offset: 0x728D9, size: 0x8, addend: 0x0, symName: '__ZN3std3sys3pal4unix2os6setenv28_$u7b$$u7b$closure$u7d$$u7d$17h4535e32ddfcd29d4E', symObjAddr: 0x3E08C, symBinAddr: 0x10005972C, symSize: 0x9C }
  - { offset: 0x72954, size: 0x8, addend: 0x0, symName: '__ZN3std3sys3pal4unix2os6setenv28_$u7b$$u7b$closure$u7d$$u7d$28_$u7b$$u7b$closure$u7d$$u7d$17h910eee0392f788b0E', symObjAddr: 0x3E128, symBinAddr: 0x1000597C8, symSize: 0x144 }
  - { offset: 0x72CF0, size: 0x8, addend: 0x0, symName: __ZN3std3sys3pal4unix2os6setenv17haf8f7ff42abf18dfE, symObjAddr: 0x3DF88, symBinAddr: 0x100059628, symSize: 0x104 }
  - { offset: 0x72DDB, size: 0x8, addend: 0x0, symName: __ZN3std3sys3pal4unix2os8unsetenv17h5dba0418dc58f071E, symObjAddr: 0x3E26C, symBinAddr: 0x10005990C, symSize: 0xA0 }
  - { offset: 0x72E5D, size: 0x8, addend: 0x0, symName: '__ZN3std3sys3pal4unix2os8unsetenv28_$u7b$$u7b$closure$u7d$$u7d$17h6bfa87e1d96cb775E', symObjAddr: 0x3E30C, symBinAddr: 0x1000599AC, symSize: 0x138 }
  - { offset: 0x731F8, size: 0x8, addend: 0x0, symName: __ZN3std3sys3pal4unix2os4exit17h3a3d7ff3160d21ccE, symObjAddr: 0x3E444, symBinAddr: 0x100059AE4, symSize: 0xC }
  - { offset: 0x73246, size: 0x8, addend: 0x0, symName: '__ZN69_$LT$std..sys..pal..unix..stdio..Stdout$u20$as$u20$std..io..Write$GT$5write17h2c8e99cf8df1b876E', symObjAddr: 0x40A50, symBinAddr: 0x10005C0F0, symSize: 0x4C }
  - { offset: 0x7331D, size: 0x8, addend: 0x0, symName: '__ZN69_$LT$std..sys..pal..unix..stdio..Stdout$u20$as$u20$std..io..Write$GT$14write_vectored17hc778735c99724205E', symObjAddr: 0x40A9C, symBinAddr: 0x10005C13C, symSize: 0x4C }
  - { offset: 0x73414, size: 0x8, addend: 0x0, symName: '__ZN69_$LT$std..sys..pal..unix..stdio..Stderr$u20$as$u20$std..io..Write$GT$5write17h581d052a4ab9b3deE', symObjAddr: 0x40AE8, symBinAddr: 0x10005C188, symSize: 0x4C }
  - { offset: 0x734EB, size: 0x8, addend: 0x0, symName: '__ZN69_$LT$std..sys..pal..unix..stdio..Stderr$u20$as$u20$std..io..Write$GT$14write_vectored17h967e552d16c4a95bE', symObjAddr: 0x40B34, symBinAddr: 0x10005C1D4, symSize: 0x4C }
  - { offset: 0x735EF, size: 0x8, addend: 0x0, symName: '__ZN67_$LT$std..sys..pal..unix..stdio..Stdin$u20$as$u20$std..io..Read$GT$4read17h1f7106f5fd232849E', symObjAddr: 0x40940, symBinAddr: 0x10005BFE0, symSize: 0x4C }
  - { offset: 0x736C4, size: 0x8, addend: 0x0, symName: '__ZN67_$LT$std..sys..pal..unix..stdio..Stdin$u20$as$u20$std..io..Read$GT$8read_buf17h839c987ef257d142E', symObjAddr: 0x4098C, symBinAddr: 0x10005C02C, symSize: 0x78 }
  - { offset: 0x73873, size: 0x8, addend: 0x0, symName: '__ZN67_$LT$std..sys..pal..unix..stdio..Stdin$u20$as$u20$std..io..Read$GT$13read_vectored17he5642246701c7358E', symObjAddr: 0x40A04, symBinAddr: 0x10005C0A4, symSize: 0x4C }
  - { offset: 0x739F4, size: 0x8, addend: 0x0, symName: __ZN3std3sys3pal4unix14stack_overflow3imp14signal_handler17hd8f4cd1bd95d9476E, symObjAddr: 0x405D0, symBinAddr: 0x10005BC70, symSize: 0x190 }
  - { offset: 0x73D51, size: 0x8, addend: 0x0, symName: __ZN3std3sys3pal4unix14stack_overflow3imp12make_handler17hc1d87bb8ee5d5c4cE, symObjAddr: 0x40760, symBinAddr: 0x10005BE00, symSize: 0x1E0 }
  - { offset: 0x74036, size: 0x8, addend: 0x0, symName: '__ZN86_$LT$std..sys..pal..unix..stack_overflow..Handler$u20$as$u20$core..ops..drop..Drop$GT$4drop17h0887be861cc23615E', symObjAddr: 0x40578, symBinAddr: 0x10005BC18, symSize: 0x58 }
  - { offset: 0x74100, size: 0x8, addend: 0x0, symName: __ZN3std3sys3pal4unix6thread6Thread3new17h7d3072f74311db85E, symObjAddr: 0x40B80, symBinAddr: 0x10005C220, symSize: 0x234 }
  - { offset: 0x7440A, size: 0x8, addend: 0x0, symName: __ZN3std3sys3pal4unix6thread6Thread8set_name17h67d7833f508721f7E, symObjAddr: 0x40E84, symBinAddr: 0x10005C524, symSize: 0x70 }
  - { offset: 0x74511, size: 0x8, addend: 0x0, symName: __ZN3std3sys3pal4unix6thread6Thread4join17h8d47e550b49f733bE, symObjAddr: 0x40EF4, symBinAddr: 0x10005C594, symSize: 0x90 }
  - { offset: 0x7457D, size: 0x8, addend: 0x0, symName: __ZN3std3sys3pal4unix6thread6Thread3new12thread_start17h44ebc83f14222f58E, symObjAddr: 0x40DB4, symBinAddr: 0x10005C454, symSize: 0xD0 }
  - { offset: 0x747A5, size: 0x8, addend: 0x0, symName: '__ZN77_$LT$std..sys..pal..unix..thread..Thread$u20$as$u20$core..ops..drop..Drop$GT$4drop17h404423c1980cfc1eE', symObjAddr: 0x40F84, symBinAddr: 0x10005C624, symSize: 0x14 }
  - { offset: 0x74831, size: 0x8, addend: 0x0, symName: __ZN3std3sys3pal4unix4time8Timespec3now17hb800598ec95e3dd7E, symObjAddr: 0x41018, symBinAddr: 0x10005C6B8, symSize: 0x114 }
  - { offset: 0x748D6, size: 0x8, addend: 0x0, symName: __ZN3std3sys3pal4unix4time8Timespec12sub_timespec17h410a57af25b6c873E, symObjAddr: 0x4112C, symBinAddr: 0x10005C7CC, symSize: 0x104 }
  - { offset: 0x74A0C, size: 0x8, addend: 0x0, symName: '__ZN71_$LT$std..sys..pal..unix..time..Instant$u20$as$u20$core..fmt..Debug$GT$3fmt17hc9a9167d67939574E', symObjAddr: 0x41230, symBinAddr: 0x10005C8D0, symSize: 0x80 }
  - { offset: 0x74A33, size: 0x8, addend: 0x0, symName: '__ZN74_$LT$std..sys..pal..unix..time..SystemTime$u20$as$u20$core..fmt..Debug$GT$3fmt17h40a3ed3a2e92c980E', symObjAddr: 0x40F98, symBinAddr: 0x10005C638, symSize: 0x80 }
  - { offset: 0x74AB3, size: 0x8, addend: 0x0, symName: '__ZN90_$LT$std..sys..pal..unix..args..Args$u20$as$u20$core..iter..traits..iterator..Iterator$GT$4next17h6dc1f36e5b56ecb4E', symObjAddr: 0x39CDC, symBinAddr: 0x10005537C, symSize: 0x48 }
  - { offset: 0x74B27, size: 0x8, addend: 0x0, symName: '__ZN90_$LT$std..sys..pal..unix..args..Args$u20$as$u20$core..iter..traits..iterator..Iterator$GT$9size_hint17hc2e721243b57ec39E', symObjAddr: 0x39D24, symBinAddr: 0x1000553C4, symSize: 0x38 }
  - { offset: 0x74B8E, size: 0x8, addend: 0x0, symName: '__ZN101_$LT$std..sys..pal..unix..args..Args$u20$as$u20$core..iter..traits..exact_size..ExactSizeIterator$GT$3len17hd1c29999101b7a4dE', symObjAddr: 0x39D5C, symBinAddr: 0x1000553FC, symSize: 0x2C }
  - { offset: 0x74C0A, size: 0x8, addend: 0x0, symName: '__ZN105_$LT$std..sys..pal..unix..args..Args$u20$as$u20$core..iter..traits..double_ended..DoubleEndedIterator$GT$9next_back17h5dfde64d852e0c84E', symObjAddr: 0x39D88, symBinAddr: 0x100055428, symSize: 0x48 }
  - { offset: 0x74C71, size: 0x8, addend: 0x0, symName: '__ZN68_$LT$std..sys..pal..unix..args..Args$u20$as$u20$core..fmt..Debug$GT$3fmt17h7b05237ccd4bb9f5E', symObjAddr: 0x39C64, symBinAddr: 0x100055304, symSize: 0x78 }
  - { offset: 0x74F30, size: 0x8, addend: 0x0, symName: __ZN3std3sys3pal4unix3net6Socket7new_raw17hc3cff1fed2cd94dbE, symObjAddr: 0x3D308, symBinAddr: 0x1000589A8, symSize: 0xF8 }
  - { offset: 0x75161, size: 0x8, addend: 0x0, symName: __ZN3std3sys3pal4unix3net6Socket8new_pair17hf336db163fd6fb36E, symObjAddr: 0x3D400, symBinAddr: 0x100058AA0, symSize: 0x150 }
  - { offset: 0x753D3, size: 0x8, addend: 0x0, symName: __ZN3std3sys3pal4unix3net6Socket20recv_from_with_flags17hb31a7c83116cc977E, symObjAddr: 0x3D550, symBinAddr: 0x100058BF0, symSize: 0x154 }
  - { offset: 0x75558, size: 0x8, addend: 0x0, symName: __ZN3std3sys3pal4unix3net6Socket10take_error17h826870d320615af0E, symObjAddr: 0x3D6A4, symBinAddr: 0x100058D44, symSize: 0x70 }
  - { offset: 0x7571A, size: 0x8, addend: 0x0, symName: '__ZN3std3sys3pal4unix4weak18DlsymWeak$LT$F$GT$10initialize17h76aaaf986b63e616E', symObjAddr: 0x39BB4, symBinAddr: 0x1000A5564, symSize: 0x58 }
  - { offset: 0x7576C, size: 0x8, addend: 0x0, symName: '__ZN3std3sys3pal4unix4weak18DlsymWeak$LT$F$GT$10initialize17hc3fe0ee1a7eae5a8E', symObjAddr: 0x39C0C, symBinAddr: 0x1000A55BC, symSize: 0x58 }
  - { offset: 0x7580B, size: 0x8, addend: 0x0, symName: __ZN3std3sys3pal4unix4pipe8AnonPipe5write17hfe3431f78398e153E, symObjAddr: 0x3E598, symBinAddr: 0x100059C38, symSize: 0x48 }
  - { offset: 0x758E9, size: 0x8, addend: 0x0, symName: __ZN3std3sys3pal4unix4pipe9anon_pipe17h40c7c126628bdb8aE, symObjAddr: 0x3E450, symBinAddr: 0x100059AF0, symSize: 0x148 }
  - { offset: 0x75B8D, size: 0x8, addend: 0x0, symName: __ZN3std3sys3pal4unix4pipe5read217ha57a074b8fd713b3E, symObjAddr: 0x3E5E0, symBinAddr: 0x100059C80, symSize: 0x258 }
  - { offset: 0x760CD, size: 0x8, addend: 0x0, symName: __ZN3std3sys3pal4unix17decode_error_kind17h658fcc0fb80bec02E, symObjAddr: 0x412B0, symBinAddr: 0x10005C950, symSize: 0x30 }
  - { offset: 0x760E7, size: 0x8, addend: 0x0, symName: __ZN3std3sys3pal4unix14abort_internal17h857d2ad66020786fE, symObjAddr: 0x412E0, symBinAddr: 0x10005C980, symSize: 0xC }
  - { offset: 0x76223, size: 0x8, addend: 0x0, symName: __ZN3std3sys3pal6common14small_c_string24run_with_cstr_allocating17h07c7b1463ef282ffE, symObjAddr: 0x35538, symBinAddr: 0x1000A4D34, symSize: 0xCC }
  - { offset: 0x763EC, size: 0x8, addend: 0x0, symName: __ZN3std3sys3pal6common14small_c_string24run_with_cstr_allocating17h25f07dd948e5663fE, symObjAddr: 0x35604, symBinAddr: 0x1000A4E00, symSize: 0xD0 }
  - { offset: 0x765B5, size: 0x8, addend: 0x0, symName: __ZN3std3sys3pal6common14small_c_string24run_with_cstr_allocating17h41459cfa947e9fbeE, symObjAddr: 0x356D4, symBinAddr: 0x1000A4ED0, symSize: 0x9C }
  - { offset: 0x76724, size: 0x8, addend: 0x0, symName: __ZN3std3sys3pal6common14small_c_string24run_with_cstr_allocating17h4254890aff01fe87E, symObjAddr: 0x35770, symBinAddr: 0x1000A4F6C, symSize: 0xE4 }
  - { offset: 0x768ED, size: 0x8, addend: 0x0, symName: __ZN3std3sys3pal6common14small_c_string24run_with_cstr_allocating17h8b1440fcb4733dd8E, symObjAddr: 0x35854, symBinAddr: 0x1000A5050, symSize: 0xBC }
  - { offset: 0x76AC9, size: 0x8, addend: 0x0, symName: __ZN3std3sys3pal6common14small_c_string24run_with_cstr_allocating17h94e9a16e1340d926E, symObjAddr: 0x35910, symBinAddr: 0x1000A510C, symSize: 0xA0 }
  - { offset: 0x76C38, size: 0x8, addend: 0x0, symName: __ZN3std3sys3pal6common14small_c_string24run_with_cstr_allocating17hae94c44ef5e1b55cE, symObjAddr: 0x359B0, symBinAddr: 0x1000A51AC, symSize: 0xAC }
  - { offset: 0x76D94, size: 0x8, addend: 0x0, symName: __ZN3std3sys3pal6common14small_c_string24run_with_cstr_allocating17he36e3b3fe29d10a0E, symObjAddr: 0x35A5C, symBinAddr: 0x1000A5258, symSize: 0xC0 }
  - { offset: 0x76F5D, size: 0x8, addend: 0x0, symName: __ZN3std3sys3pal6common14small_c_string24run_with_cstr_allocating17hee0f08c345321870E, symObjAddr: 0x35B1C, symBinAddr: 0x1000A5318, symSize: 0xC4 }
  - { offset: 0x774A5, size: 0x8, addend: 0x0, symName: __ZN3std3sys6os_str5bytes3Buf11into_string17hdc2468d309fa0c98E, symObjAddr: 0x4285C, symBinAddr: 0x10005DEFC, symSize: 0xA0 }
  - { offset: 0x77573, size: 0x8, addend: 0x0, symName: __ZN3std3sys6os_str5bytes3Buf10push_slice17h8a703bbca690c8b4E, symObjAddr: 0x428FC, symBinAddr: 0x10005DF9C, symSize: 0x7C }
  - { offset: 0x77724, size: 0x8, addend: 0x0, symName: __ZN3std3sys6os_str5bytes5Slice15to_string_lossy17h4b48930754b70c94E, symObjAddr: 0x42AB4, symBinAddr: 0x10005E154, symSize: 0x10 }
  - { offset: 0x77738, size: 0x8, addend: 0x0, symName: __ZN3std3sys6os_str5bytes5Slice8to_owned17h8393c3ede916cc17E, symObjAddr: 0x42AC4, symBinAddr: 0x10005E164, symSize: 0x90 }
  - { offset: 0x77856, size: 0x8, addend: 0x0, symName: __ZN3std3sys6os_str5bytes5Slice10clone_into17hd980377dd9f381faE, symObjAddr: 0x42B54, symBinAddr: 0x10005E1F4, symSize: 0x7C }
  - { offset: 0x779B7, size: 0x8, addend: 0x0, symName: __ZN3std3sys6os_str5bytes5Slice9empty_box17h575668486f2acf10E, symObjAddr: 0x42BD0, symBinAddr: 0x10005E270, symSize: 0x18 }
  - { offset: 0x779EB, size: 0x8, addend: 0x0, symName: '__ZN69_$LT$std..sys..os_str..bytes..Slice$u20$as$u20$core..fmt..Display$GT$3fmt17hfde323060867e81fE', symObjAddr: 0x427A0, symBinAddr: 0x10005DE40, symSize: 0xA0 }
  - { offset: 0x77A34, size: 0x8, addend: 0x0, symName: '__ZN67_$LT$std..sys..os_str..bytes..Buf$u20$as$u20$core..fmt..Display$GT$3fmt17h82497104819e3626E', symObjAddr: 0x42840, symBinAddr: 0x10005DEE0, symSize: 0x1C }
  - { offset: 0x77AF1, size: 0x8, addend: 0x0, symName: __ZN3std3sys6os_str5bytes5Slice21check_public_boundary9slow_path17hfe90d30f719d6df5E, symObjAddr: 0x42978, symBinAddr: 0x10005E018, symSize: 0x13C }
  - { offset: 0x77CAE, size: 0x8, addend: 0x0, symName: '__ZN3std3sys11personality3gcc14find_eh_action28_$u7b$$u7b$closure$u7d$$u7d$17h305f2ac54b218de4E', symObjAddr: 0x42390, symBinAddr: 0x10005DA30, symSize: 0x18 }
  - { offset: 0x77CC2, size: 0x8, addend: 0x0, symName: '__ZN3std3sys11personality3gcc14find_eh_action28_$u7b$$u7b$closure$u7d$$u7d$17h17bcf6bd34e05be0E', symObjAddr: 0x423A8, symBinAddr: 0x10005DA48, symSize: 0x18 }
  - { offset: 0x77CF2, size: 0x8, addend: 0x0, symName: _rust_eh_personality, symObjAddr: 0x423C0, symBinAddr: 0x10005DA60, symSize: 0x368 }
  - { offset: 0x7800F, size: 0x8, addend: 0x0, symName: __ZN3std3sys11personality5dwarf2eh19read_encoded_offset17hffdd6e829f9c05a8E, symObjAddr: 0x35C90, symBinAddr: 0x100051568, symSize: 0x150 }
  - { offset: 0x7816E, size: 0x8, addend: 0x0, symName: '__ZN3std3sys9backtrace10_print_fmt28_$u7b$$u7b$closure$u7d$$u7d$17h6a8bb32777d977e8E', symObjAddr: 0x360CC, symBinAddr: 0x1000519A4, symSize: 0x30 }
  - { offset: 0x78197, size: 0x8, addend: 0x0, symName: '__ZN3std3sys9backtrace10_print_fmt28_$u7b$$u7b$closure$u7d$$u7d$17h4acb2355784ec558E', symObjAddr: 0x360FC, symBinAddr: 0x1000519D4, symSize: 0x134 }
  - { offset: 0x782AB, size: 0x8, addend: 0x0, symName: '__ZN3std3sys9backtrace10_print_fmt28_$u7b$$u7b$closure$u7d$$u7d$28_$u7b$$u7b$closure$u7d$$u7d$17h4fbd43930ba51a17E', symObjAddr: 0x36230, symBinAddr: 0x100051B08, symSize: 0x26C }
  - { offset: 0x784D7, size: 0x8, addend: 0x0, symName: __ZN3std3sys9backtrace4lock17h9c02986e58c7150eE, symObjAddr: 0x35DE0, symBinAddr: 0x1000516B8, symSize: 0x70 }
  - { offset: 0x78613, size: 0x8, addend: 0x0, symName: __ZN3std3sys9backtrace13BacktraceLock5print17h8baf33e22611de71E, symObjAddr: 0x35E50, symBinAddr: 0x100051728, symSize: 0x54 }
  - { offset: 0x78660, size: 0x8, addend: 0x0, symName: '__ZN98_$LT$std..sys..backtrace..BacktraceLock..print..DisplayBacktrace$u20$as$u20$core..fmt..Display$GT$3fmt17h7adefaad4a31afc0E', symObjAddr: 0x35EA4, symBinAddr: 0x10005177C, symSize: 0x228 }
  - { offset: 0x78BE0, size: 0x8, addend: 0x0, symName: __ZN3std3sys9backtrace26__rust_end_short_backtrace17heed121414170e0c7E, symObjAddr: 0x3649C, symBinAddr: 0x100051D74, symSize: 0xC }
  - { offset: 0x78BFA, size: 0x8, addend: 0x0, symName: __ZN3std3sys9backtrace15output_filename17hc977e54bfca8d5d8E, symObjAddr: 0x364A8, symBinAddr: 0x100051D80, symSize: 0xFC }
  - { offset: 0x78DE9, size: 0x8, addend: 0x0, symName: '__ZN3std3sys4sync8once_box16OnceBox$LT$T$GT$10initialize17hc285a164175f3564E', symObjAddr: 0x36614, symBinAddr: 0x1000A53DC, symSize: 0xBC }
  - { offset: 0x78F55, size: 0x8, addend: 0x0, symName: '__ZN3std3sys4sync8once_box16OnceBox$LT$T$GT$10initialize17hd3c004cd62d9b478E', symObjAddr: 0x366D0, symBinAddr: 0x1000A5498, symSize: 0x4C }
  - { offset: 0x791EE, size: 0x8, addend: 0x0, symName: '__ZN79_$LT$std..sys..sync..mutex..pthread..Mutex$u20$as$u20$core..ops..drop..Drop$GT$4drop17h7a9ec4c70d3f823bE', symObjAddr: 0x433D0, symBinAddr: 0x10005E994, symSize: 0x58 }
  - { offset: 0x79301, size: 0x8, addend: 0x0, symName: '__ZN90_$LT$std..sys..sync..mutex..pthread..PthreadMutexAttr$u20$as$u20$core..ops..drop..Drop$GT$4drop17hb588028fd0399639E', symObjAddr: 0x43428, symBinAddr: 0x10005E9EC, symSize: 0x14 }
  - { offset: 0x7931B, size: 0x8, addend: 0x0, symName: __ZN3std3sys4sync5mutex7pthread14AllocatedMutex3new17h0685a95bbf6234c8E, symObjAddr: 0x4312C, symBinAddr: 0x10005E7CC, symSize: 0x1C8 }
  - { offset: 0x7947D, size: 0x8, addend: 0x0, symName: __ZN3std3sys4sync5mutex7pthread5Mutex4lock4fail17h65b585fc519334efE, symObjAddr: 0x432F4, symBinAddr: 0x1000A5614, symSize: 0xDC }
  - { offset: 0x796DB, size: 0x8, addend: 0x0, symName: '__ZN83_$LT$std..sys..sync..rwlock..queue..PanicGuard$u20$as$u20$core..ops..drop..Drop$GT$4drop17h87bf2687cd460d89E', symObjAddr: 0x43BE8, symBinAddr: 0x10005EC48, symSize: 0x44 }
  - { offset: 0x797C0, size: 0x8, addend: 0x0, symName: __ZN3std3sys4sync6rwlock5queue6RwLock14lock_contended17hf7593e321a55ad93E, symObjAddr: 0x43C2C, symBinAddr: 0x1000A5C54, symSize: 0x250 }
  - { offset: 0x79CD5, size: 0x8, addend: 0x0, symName: __ZN3std3sys4sync6rwlock5queue6RwLock21read_unlock_contended17h96494ba44518a708E, symObjAddr: 0x43E7C, symBinAddr: 0x1000A5EA4, symSize: 0x70 }
  - { offset: 0x79EDB, size: 0x8, addend: 0x0, symName: __ZN3std3sys4sync6rwlock5queue6RwLock16unlock_contended17hf58cac95d821706eE, symObjAddr: 0x43EEC, symBinAddr: 0x1000A5F14, symSize: 0x38 }
  - { offset: 0x79F70, size: 0x8, addend: 0x0, symName: __ZN3std3sys4sync6rwlock5queue6RwLock12unlock_queue17h91b974f598e765f2E, symObjAddr: 0x43F24, symBinAddr: 0x10005EC8C, symSize: 0x17C }
  - { offset: 0x7A703, size: 0x8, addend: 0x0, symName: __ZN3std3sys4sync6rwlock5queue10write_lock17h81126dfc2e3ae727E, symObjAddr: 0x43BA4, symBinAddr: 0x10005EC04, symSize: 0x18 }
  - { offset: 0x7A758, size: 0x8, addend: 0x0, symName: __ZN3std3sys4sync6rwlock5queue9read_lock17h82656e185711842bE, symObjAddr: 0x43BBC, symBinAddr: 0x10005EC1C, symSize: 0x2C }
  - { offset: 0x7A7B1, size: 0x8, addend: 0x0, symName: '__ZN88_$LT$std..sys..sync..thread_parking..darwin..Parker$u20$as$u20$core..ops..drop..Drop$GT$4drop17h4a2537d61f71da57E', symObjAddr: 0x440D0, symBinAddr: 0x10005EE38, symSize: 0x14 }
  - { offset: 0x7A7FF, size: 0x8, addend: 0x0, symName: __ZN3std3sys4sync14thread_parking6darwin6Parker6unpark17he31f88f7204e4d70E, symObjAddr: 0x440A0, symBinAddr: 0x10005EE08, symSize: 0x30 }
  - { offset: 0x7A8DA, size: 0x8, addend: 0x0, symName: __ZN3std3sys4sync4once5queue4Once4wait17hdfd6a0b8673eb5d9E, symObjAddr: 0x4343C, symBinAddr: 0x1000A56F0, symSize: 0x404 }
  - { offset: 0x7B3C9, size: 0x8, addend: 0x0, symName: __ZN3std3sys4sync4once5queue4Once4call17h37550d946806f870E, symObjAddr: 0x43840, symBinAddr: 0x1000A5AF4, symSize: 0x160 }
  - { offset: 0x7B512, size: 0x8, addend: 0x0, symName: __ZN3std3sys4sync4once5queue4wait17h959a6f4df97f75a9E, symObjAddr: 0x439A0, symBinAddr: 0x10005EA00, symSize: 0x12C }
  - { offset: 0x7B956, size: 0x8, addend: 0x0, symName: '__ZN82_$LT$std..sys..sync..once..queue..WaiterQueue$u20$as$u20$core..ops..drop..Drop$GT$4drop17ha1403e3a0b27a600E', symObjAddr: 0x43ACC, symBinAddr: 0x10005EB2C, symSize: 0xD8 }
  - { offset: 0x7BB9E, size: 0x8, addend: 0x0, symName: __ZN3std3sys4sync7condvar7pthread7Condvar3get17h234d19e3852d5a67E, symObjAddr: 0x42F60, symBinAddr: 0x10005E600, symSize: 0x24 }
  - { offset: 0x7BBFE, size: 0x8, addend: 0x0, symName: __ZN3std3sys4sync7condvar7pthread7Condvar12wait_timeout17hdcd7f84a5af7fdf2E, symObjAddr: 0x42F84, symBinAddr: 0x10005E624, symSize: 0x1A8 }
  - { offset: 0x7C09D, size: 0x8, addend: 0x0, symName: '__ZN3std3sys12thread_local6native4lazy20Storage$LT$T$C$D$GT$10initialize17h279b4dc40ec31e26E', symObjAddr: 0x440E4, symBinAddr: 0x1000A5F4C, symSize: 0xC0 }
  - { offset: 0x7C293, size: 0x8, addend: 0x0, symName: __ZN3std3sys12thread_local6native4lazy7destroy17hbca9a89daea3b1a7E, symObjAddr: 0x441A4, symBinAddr: 0x10005EE4C, symSize: 0x54 }
  - { offset: 0x7C401, size: 0x8, addend: 0x0, symName: __ZN3std3sys12thread_local5guard5apple6enable9run_dtors17h7df97e6abb62bbefE, symObjAddr: 0x44334, symBinAddr: 0x10005EFDC, symSize: 0x13C }
  - { offset: 0x7C957, size: 0x8, addend: 0x0, symName: __ZN3std3sys12thread_local11destructors4list8register17ha72f6427785942b6E, symObjAddr: 0x441F8, symBinAddr: 0x10005EEA0, symSize: 0x13C }
  - { offset: 0x7CCE2, size: 0x8, addend: 0x0, symName: __ZN3std3sys4path4unix8absolute17h0ffd76950466d673E, symObjAddr: 0x42BE8, symBinAddr: 0x10005E288, symSize: 0x378 }
  - { offset: 0x7D62A, size: 0x8, addend: 0x0, symName: __ZN3std3sys6random19hashmap_random_keys17h532c9bbf992f4940E, symObjAddr: 0x365A4, symBinAddr: 0x100051E7C, symSize: 0x70 }
  - { offset: 0x7D6F1, size: 0x8, addend: 0x0, symName: __ZN3std3sys5alloc16realloc_fallback17h7b538be94df5836dE, symObjAddr: 0x35BE0, symBinAddr: 0x1000514B8, symSize: 0xB0 }
  - { offset: 0x7D7EB, size: 0x8, addend: 0x0, symName: '__ZN3std3sys14anonymous_pipe4unix76_$LT$impl$u20$std..os..fd..owned..AsFd$u20$for$u20$std..pipe..PipeReader$GT$5as_fd17hb4f76b4b9f1d59eeE', symObjAddr: 0x42728, symBinAddr: 0x10005DDC8, symSize: 0x30 }
  - { offset: 0x7D821, size: 0x8, addend: 0x0, symName: '__ZN3std3sys14anonymous_pipe4unix76_$LT$impl$u20$std..os..fd..owned..AsFd$u20$for$u20$std..pipe..PipeReader$GT$5as_fd17hb4f76b4b9f1d59eeE', symObjAddr: 0x42728, symBinAddr: 0x10005DDC8, symSize: 0x30 }
  - { offset: 0x7D84A, size: 0x8, addend: 0x0, symName: '__ZN3std3sys14anonymous_pipe4unix79_$LT$impl$u20$std..os..fd..raw..FromRawFd$u20$for$u20$std..pipe..PipeReader$GT$11from_raw_fd17h467fe91045867c9bE', symObjAddr: 0x42758, symBinAddr: 0x10005DDF8, symSize: 0x48 }
  - { offset: 0x7D8A5, size: 0x8, addend: 0x0, symName: '__ZN67_$LT$std..os..fd..owned..BorrowedFd$u20$as$u20$core..fmt..Debug$GT$3fmt17h870b2acb579d6841E', symObjAddr: 0x2F448, symBinAddr: 0x10004B64C, symSize: 0x64 }
  - { offset: 0x7D8CC, size: 0x8, addend: 0x0, symName: '__ZN64_$LT$std..os..fd..owned..OwnedFd$u20$as$u20$core..fmt..Debug$GT$3fmt17h9d56aab72f2ddd25E', symObjAddr: 0x2F4AC, symBinAddr: 0x10004B6B0, symSize: 0x64 }
  - { offset: 0x7D913, size: 0x8, addend: 0x0, symName: __ZN3std2os2fd5owned10BorrowedFd18try_clone_to_owned17h75a86df941c5858fE, symObjAddr: 0x2F3E0, symBinAddr: 0x10004B5E4, symSize: 0x68 }
  - { offset: 0x7D9F5, size: 0x8, addend: 0x0, symName: __ZN3std2os2fd5owned7OwnedFd9try_clone17hda3924227bb6fc52E, symObjAddr: 0x2F358, symBinAddr: 0x10004B55C, symSize: 0x88 }
  - { offset: 0x7DC55, size: 0x8, addend: 0x0, symName: '__ZN60_$LT$std..fs..File$u20$as$u20$std..os..unix..fs..FileExt$GT$7read_at17he473ec3f69be9fe1E', symObjAddr: 0x2D118, symBinAddr: 0x10004931C, symSize: 0x4C }
  - { offset: 0x7DD48, size: 0x8, addend: 0x0, symName: '__ZN60_$LT$std..fs..File$u20$as$u20$std..os..unix..fs..FileExt$GT$16read_vectored_at17h57d6953fee5b44b0E', symObjAddr: 0x2D164, symBinAddr: 0x100049368, symSize: 0x10C }
  - { offset: 0x7DF1C, size: 0x8, addend: 0x0, symName: '__ZN60_$LT$std..fs..File$u20$as$u20$std..os..unix..fs..FileExt$GT$8write_at17h22bdadd76db924c2E', symObjAddr: 0x2D270, symBinAddr: 0x100049474, symSize: 0x4C }
  - { offset: 0x7E011, size: 0x8, addend: 0x0, symName: '__ZN60_$LT$std..fs..File$u20$as$u20$std..os..unix..fs..FileExt$GT$17write_vectored_at17h85b10c10e96d124bE', symObjAddr: 0x2D2BC, symBinAddr: 0x1000494C0, symSize: 0x10C }
  - { offset: 0x7E1EC, size: 0x8, addend: 0x0, symName: '__ZN69_$LT$std..fs..DirEntry$u20$as$u20$std..os..unix..fs..DirEntryExt2$GT$13file_name_ref17h71cc60895542f74eE', symObjAddr: 0x2D3C8, symBinAddr: 0x1000495CC, symSize: 0x18 }
  - { offset: 0x7E253, size: 0x8, addend: 0x0, symName: __ZN3std2os4unix3net4addr11sockaddr_un17h663776f7effa1c64E, symObjAddr: 0x2D3E0, symBinAddr: 0x1000495E4, symSize: 0x124 }
  - { offset: 0x7E352, size: 0x8, addend: 0x0, symName: __ZN3std2os4unix3net4addr10SocketAddr10is_unnamed17hae824e50ef52267aE, symObjAddr: 0x2D504, symBinAddr: 0x100049708, symSize: 0x44 }
  - { offset: 0x7E3A2, size: 0x8, addend: 0x0, symName: __ZN3std2os4unix3net4addr10SocketAddr11as_pathname17hae35fc319c094212E, symObjAddr: 0x2D548, symBinAddr: 0x10004974C, symSize: 0x48 }
  - { offset: 0x7E453, size: 0x8, addend: 0x0, symName: '__ZN73_$LT$std..os..unix..net..addr..SocketAddr$u20$as$u20$core..fmt..Debug$GT$3fmt17h9156d6e9c1f71ff6E', symObjAddr: 0x2D590, symBinAddr: 0x100049794, symSize: 0xAC }
  - { offset: 0x7E519, size: 0x8, addend: 0x0, symName: __ZN3std2os4unix3net8datagram12UnixDatagram9bind_addr17h646996cf8dda9b84E, symObjAddr: 0x2D9B8, symBinAddr: 0x100049BBC, symSize: 0xB0 }
  - { offset: 0x7E645, size: 0x8, addend: 0x0, symName: __ZN3std2os4unix3net8datagram12UnixDatagram7unbound17hffc8bdb5f22a07c0E, symObjAddr: 0x2DA68, symBinAddr: 0x100049C6C, symSize: 0x5C }
  - { offset: 0x7E67B, size: 0x8, addend: 0x0, symName: __ZN3std2os4unix3net8datagram12UnixDatagram4pair17he3f3f48f0d166291E, symObjAddr: 0x2DAC4, symBinAddr: 0x100049CC8, symSize: 0x58 }
  - { offset: 0x7E6B7, size: 0x8, addend: 0x0, symName: __ZN3std2os4unix3net8datagram12UnixDatagram12connect_addr17h1ad0202f53982847E, symObjAddr: 0x2DB1C, symBinAddr: 0x100049D20, symSize: 0x3C }
  - { offset: 0x7E78B, size: 0x8, addend: 0x0, symName: __ZN3std2os4unix3net8datagram12UnixDatagram9recv_from17h7f8ab1b146866192E, symObjAddr: 0x2DB58, symBinAddr: 0x100049D5C, symSize: 0x118 }
  - { offset: 0x7E911, size: 0x8, addend: 0x0, symName: __ZN3std2os4unix3net8datagram12UnixDatagram4recv17h3bcd5d2415768c77E, symObjAddr: 0x2DC70, symBinAddr: 0x100049E74, symSize: 0x44 }
  - { offset: 0x7E9C5, size: 0x8, addend: 0x0, symName: __ZN3std2os4unix3net8datagram12UnixDatagram12send_to_addr17h163b0b1d304f4c3cE, symObjAddr: 0x2DCB4, symBinAddr: 0x100049EB8, symSize: 0x4C }
  - { offset: 0x7EA8E, size: 0x8, addend: 0x0, symName: __ZN3std2os4unix3net8datagram12UnixDatagram4send17hda31e0b4737ed3a0E, symObjAddr: 0x2DD00, symBinAddr: 0x100049F04, symSize: 0x4C }
  - { offset: 0x7EB83, size: 0x8, addend: 0x0, symName: __ZN3std2os4unix3net8datagram12UnixDatagram9peek_from17h1d273869b0bd752cE, symObjAddr: 0x2DD4C, symBinAddr: 0x100049F50, symSize: 0x118 }
  - { offset: 0x7ED51, size: 0x8, addend: 0x0, symName: '__ZN79_$LT$std..os..unix..net..datagram..UnixDatagram$u20$as$u20$core..fmt..Debug$GT$3fmt17heb52f0dcc6a270e6E', symObjAddr: 0x2D63C, symBinAddr: 0x100049840, symSize: 0x37C }
  - { offset: 0x7F3C8, size: 0x8, addend: 0x0, symName: __ZN3std2os4unix3net8listener12UnixListener9bind_addr17ha825ce98acca609aE, symObjAddr: 0x2E068, symBinAddr: 0x10004A26C, symSize: 0xC4 }
  - { offset: 0x7F501, size: 0x8, addend: 0x0, symName: __ZN3std2os4unix3net8listener12UnixListener6accept17h5a02f3f3dd122328E, symObjAddr: 0x2E12C, symBinAddr: 0x10004A330, symSize: 0x148 }
  - { offset: 0x7F773, size: 0x8, addend: 0x0, symName: '__ZN79_$LT$std..os..unix..net..listener..UnixListener$u20$as$u20$core..fmt..Debug$GT$3fmt17h10580feab0a14512E', symObjAddr: 0x2DE64, symBinAddr: 0x10004A068, symSize: 0x204 }
  - { offset: 0x7FA5B, size: 0x8, addend: 0x0, symName: '__ZN97_$LT$std..os..unix..net..listener..Incoming$u20$as$u20$core..iter..traits..iterator..Iterator$GT$4next17hbd4410a8bbd60f21E', symObjAddr: 0x2E274, symBinAddr: 0x10004A478, symSize: 0x40 }
  - { offset: 0x7FAB2, size: 0x8, addend: 0x0, symName: __ZN3std2os4unix3net6stream10UnixStream12connect_addr17hda7849bd2fff92b1E, symObjAddr: 0x2E630, symBinAddr: 0x10004A834, symSize: 0xB0 }
  - { offset: 0x7FBBB, size: 0x8, addend: 0x0, symName: __ZN3std2os4unix3net6stream10UnixStream4pair17ha3a6080a74019f3cE, symObjAddr: 0x2E6E0, symBinAddr: 0x10004A8E4, symSize: 0x58 }
  - { offset: 0x7FBF7, size: 0x8, addend: 0x0, symName: __ZN3std2os4unix3net6stream10UnixStream10local_addr17hb7eda4cb9f9e1dd2E, symObjAddr: 0x2E738, symBinAddr: 0x10004A93C, symSize: 0xE0 }
  - { offset: 0x7FCFB, size: 0x8, addend: 0x0, symName: __ZN3std2os4unix3net6stream10UnixStream9peer_addr17h68d7f2557d71e96cE, symObjAddr: 0x2E818, symBinAddr: 0x10004AA1C, symSize: 0xE0 }
  - { offset: 0x7FDFF, size: 0x8, addend: 0x0, symName: __ZN3std2os4unix3net6stream10UnixStream9peer_cred17h52ee3f57276ec082E, symObjAddr: 0x2E8F8, symBinAddr: 0x10004AAFC, symSize: 0xD0 }
  - { offset: 0x7FED9, size: 0x8, addend: 0x0, symName: __ZN3std2os4unix3net6stream10UnixStream16set_read_timeout17hb5fb14c01db82e87E, symObjAddr: 0x2E9C8, symBinAddr: 0x10004ABCC, symSize: 0xB4 }
  - { offset: 0x7FF99, size: 0x8, addend: 0x0, symName: __ZN3std2os4unix3net6stream10UnixStream17set_write_timeout17h88881bf6d0f55bc5E, symObjAddr: 0x2EA7C, symBinAddr: 0x10004AC80, symSize: 0xB4 }
  - { offset: 0x80059, size: 0x8, addend: 0x0, symName: __ZN3std2os4unix3net6stream10UnixStream12read_timeout17h3065f0969ad3e8b0E, symObjAddr: 0x2EB30, symBinAddr: 0x10004AD34, symSize: 0xFC }
  - { offset: 0x8017F, size: 0x8, addend: 0x0, symName: __ZN3std2os4unix3net6stream10UnixStream13write_timeout17h51ff5b52a392a6b3E, symObjAddr: 0x2EC2C, symBinAddr: 0x10004AE30, symSize: 0xFC }
  - { offset: 0x802A5, size: 0x8, addend: 0x0, symName: __ZN3std2os4unix3net6stream10UnixStream15set_nonblocking17h0cf9b9830e001df5E, symObjAddr: 0x2ED28, symBinAddr: 0x10004AF2C, symSize: 0x54 }
  - { offset: 0x80343, size: 0x8, addend: 0x0, symName: __ZN3std2os4unix3net6stream10UnixStream10take_error17hb8659af938c5e7f0E, symObjAddr: 0x2ED7C, symBinAddr: 0x10004AF80, symSize: 0x74 }
  - { offset: 0x80451, size: 0x8, addend: 0x0, symName: __ZN3std2os4unix3net6stream10UnixStream8shutdown17h93309307659cacd1E, symObjAddr: 0x2EDF0, symBinAddr: 0x10004AFF4, symSize: 0x3C }
  - { offset: 0x804EF, size: 0x8, addend: 0x0, symName: __ZN3std2os4unix3net6stream10UnixStream4peek17h294005e8958a2189E, symObjAddr: 0x2EE2C, symBinAddr: 0x10004B030, symSize: 0x44 }
  - { offset: 0x805D5, size: 0x8, addend: 0x0, symName: '__ZN75_$LT$std..os..unix..net..stream..UnixStream$u20$as$u20$core..fmt..Debug$GT$3fmt17h56862e618568ec25E', symObjAddr: 0x2E2B4, symBinAddr: 0x10004A4B8, symSize: 0x37C }
  - { offset: 0x80C31, size: 0x8, addend: 0x0, symName: '__ZN76_$LT$$RF$std..os..unix..net..stream..UnixStream$u20$as$u20$std..io..Read$GT$8read_buf17h7c3528c617477d11E', symObjAddr: 0x2EF70, symBinAddr: 0x10004B174, symSize: 0x74 }
  - { offset: 0x80DC1, size: 0x8, addend: 0x0, symName: '__ZN72_$LT$std..os..unix..net..stream..UnixStream$u20$as$u20$std..io..Read$GT$4read17h0b930058fe4e7a6dE', symObjAddr: 0x2EE70, symBinAddr: 0x10004B074, symSize: 0x44 }
  - { offset: 0x80E8B, size: 0x8, addend: 0x0, symName: '__ZN72_$LT$std..os..unix..net..stream..UnixStream$u20$as$u20$std..io..Read$GT$8read_buf17h98e277f120ae50c9E', symObjAddr: 0x2EEB4, symBinAddr: 0x10004B0B8, symSize: 0x70 }
  - { offset: 0x81032, size: 0x8, addend: 0x0, symName: '__ZN72_$LT$std..os..unix..net..stream..UnixStream$u20$as$u20$std..io..Read$GT$13read_vectored17hbbe22e0a908249e4E', symObjAddr: 0x2EF24, symBinAddr: 0x10004B128, symSize: 0x4C }
  - { offset: 0x81161, size: 0x8, addend: 0x0, symName: '__ZN76_$LT$std..process..Command$u20$as$u20$std..os..unix..process..CommandExt$GT$6groups17h7d529a2dfa98468bE', symObjAddr: 0x2EFE4, symBinAddr: 0x10004B1E8, symSize: 0xD0 }
  - { offset: 0x8131E, size: 0x8, addend: 0x0, symName: '__ZN76_$LT$std..process..Command$u20$as$u20$std..os..unix..process..CommandExt$GT$4exec17h93a1ea9d3b4400c1E', symObjAddr: 0x2F0B4, symBinAddr: 0x10004B2B8, symSize: 0x25C }
  - { offset: 0x81964, size: 0x8, addend: 0x0, symName: '__ZN87_$LT$std..process..ExitStatusError$u20$as$u20$std..os..unix..process..ExitStatusExt$GT$8from_raw17hc736a082c3d462feE', symObjAddr: 0x2F310, symBinAddr: 0x10004B514, symSize: 0x38 }
  - { offset: 0x8198F, size: 0x8, addend: 0x0, symName: __ZN3std2os4unix7process9parent_id17ha7a517664647d5f6E, symObjAddr: 0x2F348, symBinAddr: 0x10004B54C, symSize: 0x10 }
  - { offset: 0x819DB, size: 0x8, addend: 0x0, symName: '__ZN62_$LT$std..process..ChildStderr$u20$as$u20$core..fmt..Debug$GT$3fmt17h677e54a7a098980cE', symObjAddr: 0x32DD4, symBinAddr: 0x10004EFD8, symSize: 0x38 }
  - { offset: 0x81A03, size: 0x8, addend: 0x0, symName: '__ZN62_$LT$std..process..ChildStdout$u20$as$u20$core..fmt..Debug$GT$3fmt17h10ce2c4247152729E', symObjAddr: 0x32CD8, symBinAddr: 0x10004EEDC, symSize: 0x38 }
  - { offset: 0x81A2B, size: 0x8, addend: 0x0, symName: '__ZN61_$LT$std..process..ChildStdin$u20$as$u20$core..fmt..Debug$GT$3fmt17h5f90dbc778df0040E', symObjAddr: 0x32CA0, symBinAddr: 0x10004EEA4, symSize: 0x38 }
  - { offset: 0x81A45, size: 0x8, addend: 0x0, symName: '__ZN193_$LT$std..process..Child$u20$as$u20$std..sys_common..FromInner$LT$$LP$std..sys..pal..unix..process..process_inner..Process$C$std..sys..pal..unix..process..process_common..StdioPipes$RP$$GT$$GT$10from_inner17h0fba2cdc4d03c302E', symObjAddr: 0x32B74, symBinAddr: 0x10004ED78, symSize: 0x30 }
  - { offset: 0x81A66, size: 0x8, addend: 0x0, symName: '__ZN126_$LT$std..process..Child$u20$as$u20$std..sys_common..IntoInner$LT$std..sys..pal..unix..process..process_inner..Process$GT$$GT$10into_inner17h862dd3674cfec9c5E', symObjAddr: 0x32BA4, symBinAddr: 0x10004EDA8, symSize: 0x60 }
  - { offset: 0x81C27, size: 0x8, addend: 0x0, symName: '__ZN56_$LT$std..process..Child$u20$as$u20$core..fmt..Debug$GT$3fmt17h47ab4fe98eda2ceeE', symObjAddr: 0x32C04, symBinAddr: 0x10004EE08, symSize: 0x9C }
  - { offset: 0x81C48, size: 0x8, addend: 0x0, symName: '__ZN59_$LT$std..process..ChildStderr$u20$as$u20$std..io..Read$GT$4read17hd8af2a4c3c6eeeabE', symObjAddr: 0x32D10, symBinAddr: 0x10004EF14, symSize: 0x4C }
  - { offset: 0x81D3A, size: 0x8, addend: 0x0, symName: '__ZN59_$LT$std..process..ChildStderr$u20$as$u20$std..io..Read$GT$8read_buf17h03ed8e5e001ecc40E', symObjAddr: 0x32D5C, symBinAddr: 0x10004EF60, symSize: 0x78 }
  - { offset: 0x81F1A, size: 0x8, addend: 0x0, symName: __ZN3std7process7Command9env_clear17h146d4e0649a2b8e8E, symObjAddr: 0x32E0C, symBinAddr: 0x10004F010, symSize: 0x50 }
  - { offset: 0x81FD2, size: 0x8, addend: 0x0, symName: __ZN3std7process7Command5spawn17h266f02ed69b6b94cE, symObjAddr: 0x32E5C, symBinAddr: 0x10004F060, symSize: 0x78 }
  - { offset: 0x82003, size: 0x8, addend: 0x0, symName: __ZN3std7process7Command6output17h59ad43b401eb7b7aE, symObjAddr: 0x32ED4, symBinAddr: 0x10004F0D8, symSize: 0x2FC }
  - { offset: 0x825D1, size: 0x8, addend: 0x0, symName: __ZN3std7process7Command6status17hb1476875a54afa3bE, symObjAddr: 0x331D0, symBinAddr: 0x10004F3D4, symSize: 0x100 }
  - { offset: 0x82885, size: 0x8, addend: 0x0, symName: __ZN3std7process7Command11get_program17hb3521bae146b0ee5E, symObjAddr: 0x332D0, symBinAddr: 0x10004F4D4, symSize: 0x1C }
  - { offset: 0x828CC, size: 0x8, addend: 0x0, symName: __ZN3std7process7Command8get_args17hd2a20429ba5b9c9cE, symObjAddr: 0x332EC, symBinAddr: 0x10004F4F0, symSize: 0x24 }
  - { offset: 0x82953, size: 0x8, addend: 0x0, symName: __ZN3std7process7Command15get_current_dir17h05434e5d408fd71bE, symObjAddr: 0x33310, symBinAddr: 0x10004F514, symSize: 0x1C }
  - { offset: 0x829AE, size: 0x8, addend: 0x0, symName: __ZN3std7process5Child4kill17hbcc4cd7d18db2e76E, symObjAddr: 0x33634, symBinAddr: 0x10004F838, symSize: 0x4C }
  - { offset: 0x82A59, size: 0x8, addend: 0x0, symName: __ZN3std7process5Child4wait17hfd16e40a21ace0b6E, symObjAddr: 0x33680, symBinAddr: 0x10004F884, symSize: 0xBC }
  - { offset: 0x82C10, size: 0x8, addend: 0x0, symName: __ZN3std7process5Child8try_wait17hab194fd7dcf6164aE, symObjAddr: 0x3373C, symBinAddr: 0x10004F940, symSize: 0xB4 }
  - { offset: 0x82CD0, size: 0x8, addend: 0x0, symName: __ZN3std7process5Child16wait_with_output17h7f885c4faec66dfaE, symObjAddr: 0x337F0, symBinAddr: 0x10004F9F4, symSize: 0x2DC }
  - { offset: 0x83339, size: 0x8, addend: 0x0, symName: '__ZN58_$LT$std..process..Command$u20$as$u20$core..fmt..Debug$GT$3fmt17h2eb960460f470b7dE', symObjAddr: 0x3332C, symBinAddr: 0x10004F530, symSize: 0x10 }
  - { offset: 0x8335A, size: 0x8, addend: 0x0, symName: '__ZN84_$LT$std..process..CommandArgs$u20$as$u20$core..iter..traits..iterator..Iterator$GT$4next17h2070c5632d0143b9E', symObjAddr: 0x3333C, symBinAddr: 0x10004F540, symSize: 0x34 }
  - { offset: 0x83378, size: 0x8, addend: 0x0, symName: '__ZN84_$LT$std..process..CommandArgs$u20$as$u20$core..iter..traits..iterator..Iterator$GT$4next17h2070c5632d0143b9E', symObjAddr: 0x3333C, symBinAddr: 0x10004F540, symSize: 0x34 }
  - { offset: 0x8338D, size: 0x8, addend: 0x0, symName: '__ZN84_$LT$std..process..CommandArgs$u20$as$u20$core..iter..traits..iterator..Iterator$GT$4next17h2070c5632d0143b9E', symObjAddr: 0x3333C, symBinAddr: 0x10004F540, symSize: 0x34 }
  - { offset: 0x83422, size: 0x8, addend: 0x0, symName: '__ZN84_$LT$std..process..CommandArgs$u20$as$u20$core..iter..traits..iterator..Iterator$GT$9size_hint17hc63d5b1de5148b9aE', symObjAddr: 0x33370, symBinAddr: 0x10004F574, symSize: 0x28 }
  - { offset: 0x8349A, size: 0x8, addend: 0x0, symName: '__ZN95_$LT$std..process..CommandArgs$u20$as$u20$core..iter..traits..exact_size..ExactSizeIterator$GT$3len17h85bde1d725b5d675E', symObjAddr: 0x33398, symBinAddr: 0x10004F59C, symSize: 0x1C }
  - { offset: 0x83512, size: 0x8, addend: 0x0, symName: '__ZN57_$LT$std..process..Output$u20$as$u20$core..fmt..Debug$GT$3fmt17h4c021b2144c6640cE', symObjAddr: 0x333B4, symBinAddr: 0x10004F5B8, symSize: 0x10C }
  - { offset: 0x8363A, size: 0x8, addend: 0x0, symName: '__ZN56_$LT$std..process..Stdio$u20$as$u20$core..fmt..Debug$GT$3fmt17h2a2f40a49915da3bE', symObjAddr: 0x334C0, symBinAddr: 0x10004F6C4, symSize: 0x38 }
  - { offset: 0x8365B, size: 0x8, addend: 0x0, symName: __ZN3std7process10ExitStatus7exit_ok17h9ce386e50f9e8edeE, symObjAddr: 0x334F8, symBinAddr: 0x10004F6FC, symSize: 0x14 }
  - { offset: 0x83692, size: 0x8, addend: 0x0, symName: '__ZN63_$LT$std..process..ExitStatus$u20$as$u20$core..fmt..Display$GT$3fmt17h19f84d8393cf5e65E', symObjAddr: 0x3350C, symBinAddr: 0x10004F710, symSize: 0x10 }
  - { offset: 0x836C1, size: 0x8, addend: 0x0, symName: __ZN3std7process15ExitStatusError4code17h9a777bce7c488818E, symObjAddr: 0x3351C, symBinAddr: 0x10004F720, symSize: 0x5C }
  - { offset: 0x837BA, size: 0x8, addend: 0x0, symName: __ZN3std7process15ExitStatusError12code_nonzero17ha3f1d2194e0660f9E, symObjAddr: 0x33578, symBinAddr: 0x10004F77C, symSize: 0x54 }
  - { offset: 0x838B2, size: 0x8, addend: 0x0, symName: '__ZN68_$LT$std..process..ExitStatusError$u20$as$u20$core..fmt..Display$GT$3fmt17hc0d2cd6647b1321fE', symObjAddr: 0x335CC, symBinAddr: 0x10004F7D0, symSize: 0x58 }
  - { offset: 0x83921, size: 0x8, addend: 0x0, symName: __ZN3std7process8ExitCode12exit_process17h576189345c2e7791E, symObjAddr: 0x33624, symBinAddr: 0x10004F828, symSize: 0x10 }
  - { offset: 0x8397D, size: 0x8, addend: 0x0, symName: __ZN3std7process4exit17he1a5b98063b2b340E, symObjAddr: 0x33ACC, symBinAddr: 0x10004FCD0, symSize: 0x1C }
  - { offset: 0x83998, size: 0x8, addend: 0x0, symName: __ZN3std7process5abort17hefc10ade1c26ea0eE, symObjAddr: 0x33AE8, symBinAddr: 0x1000A4AB0, symSize: 0xC }
  - { offset: 0x839B3, size: 0x8, addend: 0x0, symName: __ZN3std7process2id17ha36e775cd374fcadE, symObjAddr: 0x33AF4, symBinAddr: 0x10004FCEC, symSize: 0x10 }
  - { offset: 0x839E9, size: 0x8, addend: 0x0, symName: '__ZN61_$LT$std..process..ExitStatus$u20$as$u20$core..fmt..Debug$GT$3fmt17h7508feeb417ed04aE', symObjAddr: 0x39B74, symBinAddr: 0x1000552C4, symSize: 0x40 }
  - { offset: 0x83B69, size: 0x8, addend: 0x0, symName: __ZN3std4path4Path11is_absolute17hd4812f4da80066d7E, symObjAddr: 0x31484, symBinAddr: 0x10004D688, symSize: 0x2C }
  - { offset: 0x83BD4, size: 0x8, addend: 0x0, symName: __ZN3std4path4Path6parent17he35c2f34b9de05cbE, symObjAddr: 0x314B0, symBinAddr: 0x10004D6B4, symSize: 0x84 }
  - { offset: 0x83BEB, size: 0x8, addend: 0x0, symName: __ZN3std4path4Path6parent17he35c2f34b9de05cbE, symObjAddr: 0x314B0, symBinAddr: 0x10004D6B4, symSize: 0x84 }
  - { offset: 0x83C00, size: 0x8, addend: 0x0, symName: __ZN3std4path4Path6parent17he35c2f34b9de05cbE, symObjAddr: 0x314B0, symBinAddr: 0x10004D6B4, symSize: 0x84 }
  - { offset: 0x83C55, size: 0x8, addend: 0x0, symName: __ZN3std4path4Path9file_name17hdaf0803034112d11E, symObjAddr: 0x31534, symBinAddr: 0x10004D738, symSize: 0x64 }
  - { offset: 0x83C6C, size: 0x8, addend: 0x0, symName: __ZN3std4path4Path9file_name17hdaf0803034112d11E, symObjAddr: 0x31534, symBinAddr: 0x10004D738, symSize: 0x64 }
  - { offset: 0x83C81, size: 0x8, addend: 0x0, symName: __ZN3std4path4Path9file_name17hdaf0803034112d11E, symObjAddr: 0x31534, symBinAddr: 0x10004D738, symSize: 0x64 }
  - { offset: 0x83CC0, size: 0x8, addend: 0x0, symName: __ZN3std4path4Path13_strip_prefix17h2da2f8b103717ed8E, symObjAddr: 0x31598, symBinAddr: 0x10004D79C, symSize: 0x21C }
  - { offset: 0x83DF2, size: 0x8, addend: 0x0, symName: __ZN3std4path4Path12_starts_with17h7e4134ca947ec556E, symObjAddr: 0x317B4, symBinAddr: 0x10004D9B8, symSize: 0x198 }
  - { offset: 0x83F01, size: 0x8, addend: 0x0, symName: __ZN3std4path4Path10_ends_with17h82da21b174d4a9f5E, symObjAddr: 0x3194C, symBinAddr: 0x10004DB50, symSize: 0x198 }
  - { offset: 0x84072, size: 0x8, addend: 0x0, symName: __ZN3std4path4Path9file_stem17he830e8d0e280c6e7E, symObjAddr: 0x31AE4, symBinAddr: 0x10004DCE8, symSize: 0xF4 }
  - { offset: 0x84089, size: 0x8, addend: 0x0, symName: __ZN3std4path4Path9file_stem17he830e8d0e280c6e7E, symObjAddr: 0x31AE4, symBinAddr: 0x10004DCE8, symSize: 0xF4 }
  - { offset: 0x8409E, size: 0x8, addend: 0x0, symName: __ZN3std4path4Path9file_stem17he830e8d0e280c6e7E, symObjAddr: 0x31AE4, symBinAddr: 0x10004DCE8, symSize: 0xF4 }
  - { offset: 0x840B3, size: 0x8, addend: 0x0, symName: __ZN3std4path4Path9file_stem17he830e8d0e280c6e7E, symObjAddr: 0x31AE4, symBinAddr: 0x10004DCE8, symSize: 0xF4 }
  - { offset: 0x84336, size: 0x8, addend: 0x0, symName: __ZN3std4path4Path11file_prefix17h43cf6b8591ab16dfE, symObjAddr: 0x31BD8, symBinAddr: 0x10004DDDC, symSize: 0x130 }
  - { offset: 0x84518, size: 0x8, addend: 0x0, symName: __ZN3std4path4Path9extension17hb71fa3411a3cead4E, symObjAddr: 0x31D08, symBinAddr: 0x10004DF0C, symSize: 0xC0 }
  - { offset: 0x8452F, size: 0x8, addend: 0x0, symName: __ZN3std4path4Path9extension17hb71fa3411a3cead4E, symObjAddr: 0x31D08, symBinAddr: 0x10004DF0C, symSize: 0xC0 }
  - { offset: 0x84544, size: 0x8, addend: 0x0, symName: __ZN3std4path4Path9extension17hb71fa3411a3cead4E, symObjAddr: 0x31D08, symBinAddr: 0x10004DF0C, symSize: 0xC0 }
  - { offset: 0x84559, size: 0x8, addend: 0x0, symName: __ZN3std4path4Path9extension17hb71fa3411a3cead4E, symObjAddr: 0x31D08, symBinAddr: 0x10004DF0C, symSize: 0xC0 }
  - { offset: 0x847A9, size: 0x8, addend: 0x0, symName: __ZN3std4path4Path5_join17had3a2b8f4cd3c0dfE, symObjAddr: 0x31DC8, symBinAddr: 0x10004DFCC, symSize: 0x19C }
  - { offset: 0x84C04, size: 0x8, addend: 0x0, symName: __ZN3std4path4Path15_with_file_name17h7cae80f1d26956c7E, symObjAddr: 0x31F64, symBinAddr: 0x10004E168, symSize: 0xE8 }
  - { offset: 0x84E3D, size: 0x8, addend: 0x0, symName: __ZN3std4path4Path15_with_extension17hdff11c758f17b145E, symObjAddr: 0x3204C, symBinAddr: 0x10004E250, symSize: 0x210 }
  - { offset: 0x852FE, size: 0x8, addend: 0x0, symName: __ZN3std4path4Path10components17hab13bcf09bb47166E, symObjAddr: 0x3225C, symBinAddr: 0x10004E460, symSize: 0x40 }
  - { offset: 0x8533E, size: 0x8, addend: 0x0, symName: __ZN3std4path4Path7is_file17ha3427b3c5fa7d627E, symObjAddr: 0x3229C, symBinAddr: 0x10004E4A0, symSize: 0x1C4 }
  - { offset: 0x8571E, size: 0x8, addend: 0x0, symName: __ZN3std4path4Path6is_dir17hc03774e0a986794eE, symObjAddr: 0x32460, symBinAddr: 0x10004E664, symSize: 0x1C4 }
  - { offset: 0x85AFE, size: 0x8, addend: 0x0, symName: __ZN3std4path4Path10is_symlink17h394c60b15b4bfc42E, symObjAddr: 0x32624, symBinAddr: 0x10004E828, symSize: 0x1C4 }
  - { offset: 0x860B6, size: 0x8, addend: 0x0, symName: '__ZN58_$LT$std..path..Components$u20$as$u20$core..fmt..Debug$GT$3fmt17h45149c18893f9be8E', symObjAddr: 0x2F7C8, symBinAddr: 0x10004B9CC, symSize: 0x64 }
  - { offset: 0x860DB, size: 0x8, addend: 0x0, symName: '__ZN112_$LT$$LT$std..path..Components$u20$as$u20$core..fmt..Debug$GT$..fmt..DebugHelper$u20$as$u20$core..fmt..Debug$GT$3fmt17h4d4b5f6a2fd9d21eE', symObjAddr: 0x2F82C, symBinAddr: 0x10004BA30, symSize: 0xD4 }
  - { offset: 0x861AF, size: 0x8, addend: 0x0, symName: __ZN3std4path10Components15len_before_body17he1f50228b1838e6aE, symObjAddr: 0x2F900, symBinAddr: 0x10004BB04, symSize: 0x188 }
  - { offset: 0x861C6, size: 0x8, addend: 0x0, symName: __ZN3std4path10Components15len_before_body17he1f50228b1838e6aE, symObjAddr: 0x2F900, symBinAddr: 0x10004BB04, symSize: 0x188 }
  - { offset: 0x861DB, size: 0x8, addend: 0x0, symName: __ZN3std4path10Components15len_before_body17he1f50228b1838e6aE, symObjAddr: 0x2F900, symBinAddr: 0x10004BB04, symSize: 0x188 }
  - { offset: 0x863BD, size: 0x8, addend: 0x0, symName: __ZN3std4path10Components7as_path17hc4f4a7b78ce3c07eE, symObjAddr: 0x2FA88, symBinAddr: 0x10004BC8C, symSize: 0x530 }
  - { offset: 0x86887, size: 0x8, addend: 0x0, symName: __ZN3std4path10Components25parse_next_component_back17h20507a478b81ee4cE, symObjAddr: 0x2FFB8, symBinAddr: 0x10004C1BC, symSize: 0x120 }
  - { offset: 0x86A92, size: 0x8, addend: 0x0, symName: '__ZN52_$LT$std..path..Iter$u20$as$u20$core..fmt..Debug$GT$3fmt17ha71445c770876402E', symObjAddr: 0x300D8, symBinAddr: 0x10004C2DC, symSize: 0x64 }
  - { offset: 0x86ACD, size: 0x8, addend: 0x0, symName: '__ZN106_$LT$$LT$std..path..Iter$u20$as$u20$core..fmt..Debug$GT$..fmt..DebugHelper$u20$as$u20$core..fmt..Debug$GT$3fmt17haec8913f11ef51c4E', symObjAddr: 0x3013C, symBinAddr: 0x10004C340, symSize: 0x134 }
  - { offset: 0x86BB5, size: 0x8, addend: 0x0, symName: '__ZN80_$LT$std..path..Components$u20$as$u20$core..iter..traits..iterator..Iterator$GT$4next17h240fe092a2974e44E', symObjAddr: 0x30270, symBinAddr: 0x10004C474, symSize: 0x364 }
  - { offset: 0x86F02, size: 0x8, addend: 0x0, symName: '__ZN95_$LT$std..path..Components$u20$as$u20$core..iter..traits..double_ended..DoubleEndedIterator$GT$9next_back17h4ddd74a66a548e1dE', symObjAddr: 0x305D4, symBinAddr: 0x10004C7D8, symSize: 0x330 }
  - { offset: 0x8708A, size: 0x8, addend: 0x0, symName: __ZN3std4path18compare_components17h864d03ef5af4c3e7E, symObjAddr: 0x30904, symBinAddr: 0x10004CB08, symSize: 0x304 }
  - { offset: 0x87469, size: 0x8, addend: 0x0, symName: __ZN3std4path7PathBuf5_push17h5c087d9a4f5c6e83E, symObjAddr: 0x30C08, symBinAddr: 0x10004CE0C, symSize: 0x104 }
  - { offset: 0x87802, size: 0x8, addend: 0x0, symName: __ZN3std4path7PathBuf3pop17hfd558862512e7aceE, symObjAddr: 0x30D0C, symBinAddr: 0x10004CF10, symSize: 0xA8 }
  - { offset: 0x87A07, size: 0x8, addend: 0x0, symName: __ZN3std4path7PathBuf14_set_file_name17hd47cb42524c0c55bE, symObjAddr: 0x30DB4, symBinAddr: 0x10004CFB8, symSize: 0x1C8 }
  - { offset: 0x87ECB, size: 0x8, addend: 0x0, symName: __ZN3std4path7PathBuf14_set_extension17hb70db3a70ae657adE, symObjAddr: 0x30F7C, symBinAddr: 0x10004D180, symSize: 0x2AC }
  - { offset: 0x88687, size: 0x8, addend: 0x0, symName: __ZN3std4path7PathBuf14_add_extension17h81e5f73615b3c69cE, symObjAddr: 0x31228, symBinAddr: 0x10004D42C, symSize: 0x1B4 }
  - { offset: 0x88C61, size: 0x8, addend: 0x0, symName: '__ZN3std4path117_$LT$impl$u20$core..convert..From$LT$$RF$std..path..Path$GT$$u20$for$u20$alloc..boxed..Box$LT$std..path..Path$GT$$GT$4from17h53d0d4b0c1260136E', symObjAddr: 0x313DC, symBinAddr: 0x10004D5E0, symSize: 0x80 }
  - { offset: 0x88D94, size: 0x8, addend: 0x0, symName: '__ZN52_$LT$std..path..Path$u20$as$u20$core..fmt..Debug$GT$3fmt17hd02d5e990aa2db15E', symObjAddr: 0x327E8, symBinAddr: 0x10004E9EC, symSize: 0x28 }
  - { offset: 0x88DEF, size: 0x8, addend: 0x0, symName: '__ZN55_$LT$std..path..PathBuf$u20$as$u20$core..fmt..Debug$GT$3fmt17h2e6c8b2a7bd3fe27E', symObjAddr: 0x3145C, symBinAddr: 0x10004D660, symSize: 0x28 }
  - { offset: 0x88F97, size: 0x8, addend: 0x0, symName: '__ZN55_$LT$std..path..Display$u20$as$u20$core..fmt..Debug$GT$3fmt17hc7ac5ba239202d41E', symObjAddr: 0x32810, symBinAddr: 0x10004EA14, symSize: 0x28 }
  - { offset: 0x89025, size: 0x8, addend: 0x0, symName: '__ZN57_$LT$std..path..Display$u20$as$u20$core..fmt..Display$GT$3fmt17hd78f7f625035d814E', symObjAddr: 0x32838, symBinAddr: 0x10004EA3C, symSize: 0x1C }
  - { offset: 0x89063, size: 0x8, addend: 0x0, symName: '__ZN66_$LT$std..path..StripPrefixError$u20$as$u20$core..fmt..Display$GT$3fmt17hb7925bb09b4b0778E', symObjAddr: 0x32854, symBinAddr: 0x10004EA58, symSize: 0x20 }
  - { offset: 0x890AB, size: 0x8, addend: 0x0, symName: '__ZN61_$LT$std..path..Component$u20$as$u20$core..cmp..PartialEq$GT$2eq17h2e109766e714e46fE', symObjAddr: 0x3996C, symBinAddr: 0x1000550BC, symSize: 0x138 }
  - { offset: 0x89205, size: 0x8, addend: 0x0, symName: '__ZN57_$LT$std..path..Component$u20$as$u20$core..fmt..Debug$GT$3fmt17hc8863aa790253172E', symObjAddr: 0x39AA4, symBinAddr: 0x1000551F4, symSize: 0xD0 }
  - { offset: 0x89469, size: 0x8, addend: 0x0, symName: __ZN3std3ffi6os_str8OsString17into_boxed_os_str17h7a8d7aea12960c13E, symObjAddr: 0x21918, symBinAddr: 0x10003DD34, symSize: 0x98 }
  - { offset: 0x896A5, size: 0x8, addend: 0x0, symName: __ZN3std3ffi6os_str5OsStr14into_os_string17h231a6cccbee9f4c1E, symObjAddr: 0x21A30, symBinAddr: 0x10003DE4C, symSize: 0x18 }
  - { offset: 0x896C0, size: 0x8, addend: 0x0, symName: __ZN3std3ffi6os_str5OsStr18to_ascii_lowercase17h8ef059aa7f49c1d9E, symObjAddr: 0x21A48, symBinAddr: 0x10003DE64, symSize: 0x190 }
  - { offset: 0x89845, size: 0x8, addend: 0x0, symName: __ZN3std3ffi6os_str5OsStr18to_ascii_uppercase17h0cd770b92c928a7fE, symObjAddr: 0x21BD8, symBinAddr: 0x10003DFF4, symSize: 0x190 }
  - { offset: 0x89A5C, size: 0x8, addend: 0x0, symName: '__ZN63_$LT$std..ffi..os_str..OsString$u20$as$u20$core..fmt..Write$GT$9write_str17h88f0e05ad2c9ab2dE', symObjAddr: 0x219B0, symBinAddr: 0x10003DDCC, symSize: 0x80 }
  - { offset: 0x89BE4, size: 0x8, addend: 0x0, symName: '__ZN3std3ffi6os_str95_$LT$impl$u20$core..convert..TryFrom$LT$$RF$std..ffi..os_str..OsStr$GT$$u20$for$u20$$RF$str$GT$8try_from17hacf1a48227cba18dE', symObjAddr: 0x21D68, symBinAddr: 0x10003E184, symSize: 0x10 }
  - { offset: 0x89C1B, size: 0x8, addend: 0x0, symName: '__ZN62_$LT$std..ffi..os_str..Display$u20$as$u20$core..fmt..Debug$GT$3fmt17he506d065f9a30d97E', symObjAddr: 0x21D78, symBinAddr: 0x10003E194, symSize: 0x28 }
  - { offset: 0x89C9A, size: 0x8, addend: 0x0, symName: '__ZN64_$LT$std..ffi..os_str..Display$u20$as$u20$core..fmt..Display$GT$3fmt17h2c9e238ad5a6828eE', symObjAddr: 0x21DA0, symBinAddr: 0x10003E1BC, symSize: 0x1C }
  - { offset: 0x89F04, size: 0x8, addend: 0x0, symName: __ZN3std2io5error5Error3new17ha6bd369ff0e694abE, symObjAddr: 0x24D90, symBinAddr: 0x100040F94, symSize: 0x12C }
  - { offset: 0x8A245, size: 0x8, addend: 0x0, symName: __ZN3std2io5error5Error3new17hc24aef2a81b5e04bE, symObjAddr: 0x24EBC, symBinAddr: 0x1000410C0, symSize: 0x80 }
  - { offset: 0x8A30B, size: 0x8, addend: 0x0, symName: __ZN3std2io5error5Error4_new17hb9ca239c11358d50E, symObjAddr: 0x24F3C, symBinAddr: 0x100041140, symSize: 0x84 }
  - { offset: 0x8A696, size: 0x8, addend: 0x0, symName: __ZN3std2io5error14repr_bitpacked4Repr3new17h6c32bd6df2bb9932E, symObjAddr: 0x24C4C, symBinAddr: 0x100040E50, symSize: 0x58 }
  - { offset: 0x8A8D4, size: 0x8, addend: 0x0, symName: __ZN3std2io5error14repr_bitpacked11decode_repr17h61864a3e30e49abfE, symObjAddr: 0x24CA4, symBinAddr: 0x100040EA8, symSize: 0x64 }
  - { offset: 0x8A977, size: 0x8, addend: 0x0, symName: '__ZN58_$LT$std..io..error..Error$u20$as$u20$core..fmt..Debug$GT$3fmt17h8bf91d1757b352fdE', symObjAddr: 0x24D08, symBinAddr: 0x100040F0C, symSize: 0x10 }
  - { offset: 0x8A997, size: 0x8, addend: 0x0, symName: '__ZN96_$LT$std..io..error..Error$u20$as$u20$core..convert..From$LT$alloc..ffi..c_str..NulError$GT$$GT$4from17h3bdf74734a2b5af8E', symObjAddr: 0x24D18, symBinAddr: 0x100040F1C, symSize: 0x2C }
  - { offset: 0x8A9B4, size: 0x8, addend: 0x0, symName: '__ZN96_$LT$std..io..error..Error$u20$as$u20$core..convert..From$LT$alloc..ffi..c_str..NulError$GT$$GT$4from17h3bdf74734a2b5af8E', symObjAddr: 0x24D18, symBinAddr: 0x100040F1C, symSize: 0x2C }
  - { offset: 0x8A9C8, size: 0x8, addend: 0x0, symName: '__ZN96_$LT$std..io..error..Error$u20$as$u20$core..convert..From$LT$alloc..ffi..c_str..NulError$GT$$GT$4from17h3bdf74734a2b5af8E', symObjAddr: 0x24D18, symBinAddr: 0x100040F1C, symSize: 0x2C }
  - { offset: 0x8AA4D, size: 0x8, addend: 0x0, symName: '__ZN104_$LT$std..io..error..Error$u20$as$u20$core..convert..From$LT$alloc..collections..TryReserveError$GT$$GT$4from17h711c115f3f93aab3E', symObjAddr: 0x24D44, symBinAddr: 0x100040F48, symSize: 0x18 }
  - { offset: 0x8AA81, size: 0x8, addend: 0x0, symName: '__ZN64_$LT$std..io..error..ErrorKind$u20$as$u20$core..fmt..Display$GT$3fmt17hddd422a0ecfef250E', symObjAddr: 0x24D5C, symBinAddr: 0x100040F60, symSize: 0x34 }
  - { offset: 0x8AACB, size: 0x8, addend: 0x0, symName: '__ZN3std2io5error83_$LT$impl$u20$core..fmt..Debug$u20$for$u20$std..io..error..repr_bitpacked..Repr$GT$3fmt17h5a95a85f37e3c23bE', symObjAddr: 0x24FC0, symBinAddr: 0x1000411C4, symSize: 0x294 }
  - { offset: 0x8AD16, size: 0x8, addend: 0x0, symName: '__ZN60_$LT$std..io..error..Error$u20$as$u20$core..fmt..Display$GT$3fmt17hf6832004bfff0787E', symObjAddr: 0x25254, symBinAddr: 0x100041458, symSize: 0x204 }
  - { offset: 0x8AF73, size: 0x8, addend: 0x0, symName: '__ZN60_$LT$std..io..error..Error$u20$as$u20$core..error..Error$GT$11description17hb3150e6eefe42711E', symObjAddr: 0x25458, symBinAddr: 0x10004165C, symSize: 0x8C }
  - { offset: 0x8AFFD, size: 0x8, addend: 0x0, symName: '__ZN60_$LT$std..io..error..Error$u20$as$u20$core..error..Error$GT$5cause17hf96e89352a6620cdE', symObjAddr: 0x254E4, symBinAddr: 0x1000416E8, symSize: 0x38 }
  - { offset: 0x8B01B, size: 0x8, addend: 0x0, symName: '__ZN60_$LT$std..io..error..Error$u20$as$u20$core..error..Error$GT$5cause17hf96e89352a6620cdE', symObjAddr: 0x254E4, symBinAddr: 0x1000416E8, symSize: 0x38 }
  - { offset: 0x8B043, size: 0x8, addend: 0x0, symName: '__ZN60_$LT$std..io..error..Error$u20$as$u20$core..error..Error$GT$6source17h9312daf3ac3f4260E', symObjAddr: 0x2551C, symBinAddr: 0x100041720, symSize: 0x38 }
  - { offset: 0x8B061, size: 0x8, addend: 0x0, symName: '__ZN60_$LT$std..io..error..Error$u20$as$u20$core..error..Error$GT$6source17h9312daf3ac3f4260E', symObjAddr: 0x2551C, symBinAddr: 0x100041720, symSize: 0x38 }
  - { offset: 0x8B08F, size: 0x8, addend: 0x0, symName: '__ZN62_$LT$std..io..error..ErrorKind$u20$as$u20$core..fmt..Debug$GT$3fmt17hb4e443c8fdea1addE', symObjAddr: 0x39938, symBinAddr: 0x100055088, symSize: 0x34 }
  - { offset: 0x8B10E, size: 0x8, addend: 0x0, symName: '__ZN80_$LT$std..io..Write..write_fmt..Adapter$LT$T$GT$$u20$as$u20$core..fmt..Write$GT$9write_str17h4e3a703fbc391c88E', symObjAddr: 0x2ABFC, symBinAddr: 0x100046E00, symSize: 0x50 }
  - { offset: 0x8B138, size: 0x8, addend: 0x0, symName: '__ZN80_$LT$std..io..Write..write_fmt..Adapter$LT$T$GT$$u20$as$u20$core..fmt..Write$GT$9write_str17h99ff46d68fae9060E', symObjAddr: 0x2AC4C, symBinAddr: 0x100046E50, symSize: 0xD4 }
  - { offset: 0x8B276, size: 0x8, addend: 0x0, symName: '__ZN80_$LT$std..io..Write..write_fmt..Adapter$LT$T$GT$$u20$as$u20$core..fmt..Write$GT$9write_str17hb40acde172c4080dE', symObjAddr: 0x2AD20, symBinAddr: 0x100046F24, symSize: 0x80 }
  - { offset: 0x8B3C2, size: 0x8, addend: 0x0, symName: '__ZN80_$LT$std..io..Write..write_fmt..Adapter$LT$T$GT$$u20$as$u20$core..fmt..Write$GT$9write_str17hccd0b6fc5be13c44E', symObjAddr: 0x2ADA0, symBinAddr: 0x100046FA4, symSize: 0x50 }
  - { offset: 0x8B3EC, size: 0x8, addend: 0x0, symName: '__ZN80_$LT$std..io..Write..write_fmt..Adapter$LT$T$GT$$u20$as$u20$core..fmt..Write$GT$9write_str17hfa3cc98e01093c8dE', symObjAddr: 0x2ADF0, symBinAddr: 0x100046FF4, symSize: 0xD4 }
  - { offset: 0x8B58E, size: 0x8, addend: 0x0, symName: __ZN3std2io5Write18write_all_vectored17hdae03fff64c0bf59E, symObjAddr: 0x2A7F8, symBinAddr: 0x1000469FC, symSize: 0x1BC }
  - { offset: 0x8B876, size: 0x8, addend: 0x0, symName: __ZN3std2io5Write9write_fmt17h75af97148630d8d3E, symObjAddr: 0x2A9B4, symBinAddr: 0x100046BB8, symSize: 0x124 }
  - { offset: 0x8BAB4, size: 0x8, addend: 0x0, symName: __ZN3std2io5Write9write_fmt17h9610cdd27cd3672cE, symObjAddr: 0x2AAD8, symBinAddr: 0x100046CDC, symSize: 0x124 }
  - { offset: 0x8BD53, size: 0x8, addend: 0x0, symName: '__ZN3std2io5impls83_$LT$impl$u20$std..io..Write$u20$for$u20$core..io..borrowed_buf..BorrowedCursor$GT$5write17he304c4a96d16e78dE', symObjAddr: 0x25554, symBinAddr: 0x100041758, symSize: 0x58 }
  - { offset: 0x8BF00, size: 0x8, addend: 0x0, symName: __ZN3std2io8buffered9bufreader6buffer6Buffer9backshift17hd61e5f00ca8899a5E, symObjAddr: 0x23D0C, symBinAddr: 0x100040128, symSize: 0x58 }
  - { offset: 0x8C162, size: 0x8, addend: 0x0, symName: '__ZN82_$LT$std..io..buffered..bufreader..BufReader$LT$R$GT$$u20$as$u20$std..io..Read$GT$4read17hb98662383eab68f8E', symObjAddr: 0x23D64, symBinAddr: 0x100040180, symSize: 0x1B0 }
  - { offset: 0x8C545, size: 0x8, addend: 0x0, symName: '__ZN82_$LT$std..io..buffered..bufreader..BufReader$LT$R$GT$$u20$as$u20$std..io..Read$GT$8read_buf17hb49c2ea41f7ae7aeE', symObjAddr: 0x23F14, symBinAddr: 0x100040330, symSize: 0x1B0 }
  - { offset: 0x8CB80, size: 0x8, addend: 0x0, symName: '__ZN82_$LT$std..io..buffered..bufreader..BufReader$LT$R$GT$$u20$as$u20$std..io..Read$GT$11read_to_end17hd33ccd3b46de5a30E', symObjAddr: 0x240C4, symBinAddr: 0x1000404E0, symSize: 0x15C }
  - { offset: 0x8CF26, size: 0x8, addend: 0x0, symName: '__ZN3std2io8buffered9bufwriter18BufWriter$LT$W$GT$9flush_buf17h8caf5baab3909c0eE', symObjAddr: 0x24220, symBinAddr: 0x10004063C, symSize: 0x204 }
  - { offset: 0x8D484, size: 0x8, addend: 0x0, symName: '__ZN3std2io8buffered9bufwriter18BufWriter$LT$W$GT$10write_cold17hb2cd0c49dfbb647bE', symObjAddr: 0x244B8, symBinAddr: 0x1000A4898, symSize: 0xF8 }
  - { offset: 0x8D6DB, size: 0x8, addend: 0x0, symName: '__ZN3std2io8buffered9bufwriter18BufWriter$LT$W$GT$14write_all_cold17h5452cfd42e3caf48E', symObjAddr: 0x245B0, symBinAddr: 0x1000A4990, symSize: 0x120 }
  - { offset: 0x8D9C9, size: 0x8, addend: 0x0, symName: '__ZN111_$LT$std..io..buffered..bufwriter..BufWriter$LT$W$GT$..flush_buf..BufGuard$u20$as$u20$core..ops..drop..Drop$GT$4drop17h69591a2c9f0cb0b2E', symObjAddr: 0x24458, symBinAddr: 0x100040874, symSize: 0x60 }
  - { offset: 0x8DB7F, size: 0x8, addend: 0x0, symName: '__ZN3std2io8buffered9bufwriter18BufWriter$LT$W$GT$9flush_buf8BufGuard9remaining17hc0b18bfe3e00374bE', symObjAddr: 0x24424, symBinAddr: 0x100040840, symSize: 0x34 }
  - { offset: 0x8DC2E, size: 0x8, addend: 0x0, symName: '__ZN83_$LT$std..io..buffered..bufwriter..WriterPanicked$u20$as$u20$core..fmt..Display$GT$3fmt17h0ad0299d24e2616eE', symObjAddr: 0x246D0, symBinAddr: 0x1000408D4, symSize: 0x54 }
  - { offset: 0x8DC7A, size: 0x8, addend: 0x0, symName: '__ZN81_$LT$std..io..buffered..bufwriter..WriterPanicked$u20$as$u20$core..fmt..Debug$GT$3fmt17ha1177804a1855087E', symObjAddr: 0x24724, symBinAddr: 0x100040928, symSize: 0xA4 }
  - { offset: 0x8DDFF, size: 0x8, addend: 0x0, symName: '__ZN93_$LT$std..io..buffered..linewritershim..LineWriterShim$LT$W$GT$$u20$as$u20$std..io..Write$GT$14write_vectored17hed0aef1b26992b91E', symObjAddr: 0x247C8, symBinAddr: 0x1000409CC, symSize: 0x45C }
  - { offset: 0x8E6F0, size: 0x8, addend: 0x0, symName: '__ZN58_$LT$std..io..stdio..StdinRaw$u20$as$u20$std..io..Read$GT$4read17h387e37e377cba61dE', symObjAddr: 0x255AC, symBinAddr: 0x1000417B0, symSize: 0x74 }
  - { offset: 0x8E7EE, size: 0x8, addend: 0x0, symName: '__ZN58_$LT$std..io..stdio..StdinRaw$u20$as$u20$std..io..Read$GT$8read_buf17h552ce8e9bdc47091E', symObjAddr: 0x25620, symBinAddr: 0x100041824, symSize: 0x88 }
  - { offset: 0x8E9C6, size: 0x8, addend: 0x0, symName: '__ZN58_$LT$std..io..stdio..StdinRaw$u20$as$u20$std..io..Read$GT$13read_vectored17hc60583448e868c88E', symObjAddr: 0x256A8, symBinAddr: 0x1000418AC, symSize: 0x74 }
  - { offset: 0x8EAC4, size: 0x8, addend: 0x0, symName: '__ZN58_$LT$std..io..stdio..StdinRaw$u20$as$u20$std..io..Read$GT$11read_to_end17h9cc78a1ef7a3dbd8E', symObjAddr: 0x2571C, symBinAddr: 0x100041920, symSize: 0x44 }
  - { offset: 0x8EB01, size: 0x8, addend: 0x0, symName: '__ZN58_$LT$std..io..stdio..StdinRaw$u20$as$u20$std..io..Read$GT$14read_to_string17he2edb8a3a26005d3E', symObjAddr: 0x25760, symBinAddr: 0x100041964, symSize: 0xE0 }
  - { offset: 0x8ED92, size: 0x8, addend: 0x0, symName: '__ZN60_$LT$std..io..stdio..StdoutRaw$u20$as$u20$std..io..Write$GT$5write17h6d80a2315418ce1aE', symObjAddr: 0x25840, symBinAddr: 0x100041A44, symSize: 0x7C }
  - { offset: 0x8EE92, size: 0x8, addend: 0x0, symName: '__ZN60_$LT$std..io..stdio..StdoutRaw$u20$as$u20$std..io..Write$GT$14write_vectored17h820c5dfe52b6cdbbE', symObjAddr: 0x258BC, symBinAddr: 0x100041AC0, symSize: 0x100 }
  - { offset: 0x8EFE4, size: 0x8, addend: 0x0, symName: '__ZN60_$LT$std..io..stdio..StdoutRaw$u20$as$u20$std..io..Write$GT$9write_all17hf87f9c7cee071567E', symObjAddr: 0x259BC, symBinAddr: 0x100041BC0, symSize: 0xB8 }
  - { offset: 0x8F120, size: 0x8, addend: 0x0, symName: '__ZN60_$LT$std..io..stdio..StdoutRaw$u20$as$u20$std..io..Write$GT$18write_all_vectored17h5d9248b4edae636aE', symObjAddr: 0x25A74, symBinAddr: 0x100041C78, symSize: 0x1CC }
  - { offset: 0x8F428, size: 0x8, addend: 0x0, symName: '__ZN60_$LT$std..io..stdio..StdoutRaw$u20$as$u20$std..io..Write$GT$9write_fmt17hb957db6ba19087cbE', symObjAddr: 0x25C40, symBinAddr: 0x100041E44, symSize: 0x134 }
  - { offset: 0x8F699, size: 0x8, addend: 0x0, symName: '__ZN60_$LT$std..io..stdio..StderrRaw$u20$as$u20$std..io..Write$GT$5write17h85aaae0f35548c00E', symObjAddr: 0x25D74, symBinAddr: 0x100041F78, symSize: 0x7C }
  - { offset: 0x8F7AC, size: 0x8, addend: 0x0, symName: '__ZN60_$LT$std..io..stdio..StderrRaw$u20$as$u20$std..io..Write$GT$14write_vectored17hd78174db8fc147a4E', symObjAddr: 0x25DF0, symBinAddr: 0x100041FF4, symSize: 0x100 }
  - { offset: 0x8F8FE, size: 0x8, addend: 0x0, symName: '__ZN60_$LT$std..io..stdio..StderrRaw$u20$as$u20$std..io..Write$GT$5flush17h68ff36f973374809E', symObjAddr: 0x25EF0, symBinAddr: 0x1000420F4, symSize: 0x14 }
  - { offset: 0x8F918, size: 0x8, addend: 0x0, symName: '__ZN60_$LT$std..io..stdio..StderrRaw$u20$as$u20$std..io..Write$GT$9write_all17h9d5354f74368a8c1E', symObjAddr: 0x25F04, symBinAddr: 0x100042108, symSize: 0xB8 }
  - { offset: 0x8FA54, size: 0x8, addend: 0x0, symName: '__ZN60_$LT$std..io..stdio..StderrRaw$u20$as$u20$std..io..Write$GT$18write_all_vectored17hd4d446d85c5d3c9aE', symObjAddr: 0x25FBC, symBinAddr: 0x1000421C0, symSize: 0x28 }
  - { offset: 0x8FA7D, size: 0x8, addend: 0x0, symName: '__ZN60_$LT$std..io..stdio..StderrRaw$u20$as$u20$std..io..Write$GT$9write_fmt17h1f221e18c2a1037cE', symObjAddr: 0x25FE4, symBinAddr: 0x1000421E8, symSize: 0x28 }
  - { offset: 0x8FAEE, size: 0x8, addend: 0x0, symName: __ZN3std2io5stdio5stdin17h35bb502fde595575E, symObjAddr: 0x2600C, symBinAddr: 0x100042210, symSize: 0x3C }
  - { offset: 0x8FB26, size: 0x8, addend: 0x0, symName: __ZN3std2io5stdio5stdin17h35bb502fde595575E, symObjAddr: 0x2600C, symBinAddr: 0x100042210, symSize: 0x3C }
  - { offset: 0x8FB3B, size: 0x8, addend: 0x0, symName: __ZN3std2io5stdio5stdin17h35bb502fde595575E, symObjAddr: 0x2600C, symBinAddr: 0x100042210, symSize: 0x3C }
  - { offset: 0x8FB4F, size: 0x8, addend: 0x0, symName: __ZN3std2io5stdio5stdin17h35bb502fde595575E, symObjAddr: 0x2600C, symBinAddr: 0x100042210, symSize: 0x3C }
  - { offset: 0x8FB64, size: 0x8, addend: 0x0, symName: __ZN3std2io5stdio5stdin17h35bb502fde595575E, symObjAddr: 0x2600C, symBinAddr: 0x100042210, symSize: 0x3C }
  - { offset: 0x8FB79, size: 0x8, addend: 0x0, symName: __ZN3std2io5stdio5stdin17h35bb502fde595575E, symObjAddr: 0x2600C, symBinAddr: 0x100042210, symSize: 0x3C }
  - { offset: 0x8FB8D, size: 0x8, addend: 0x0, symName: __ZN3std2io5stdio5stdin17h35bb502fde595575E, symObjAddr: 0x2600C, symBinAddr: 0x100042210, symSize: 0x3C }
  - { offset: 0x8FBAC, size: 0x8, addend: 0x0, symName: __ZN3std2io5stdio5Stdin4lock17ha4e0539eb022067cE, symObjAddr: 0x26048, symBinAddr: 0x10004224C, symSize: 0x68 }
  - { offset: 0x8FCF2, size: 0x8, addend: 0x0, symName: __ZN3std2io5stdio5Stdin9read_line17h0c6bd250cfaf5e45E, symObjAddr: 0x260B0, symBinAddr: 0x1000422B4, symSize: 0x15C }
  - { offset: 0x90177, size: 0x8, addend: 0x0, symName: __ZN3std2io5stdio5Stdin5lines17h59cbd7fe24270455E, symObjAddr: 0x2620C, symBinAddr: 0x100042410, symSize: 0x68 }
  - { offset: 0x902D8, size: 0x8, addend: 0x0, symName: '__ZN62_$LT$std..io..stdio..StdinLock$u20$as$u20$std..io..BufRead$GT$8fill_buf17ha03984886177e0b8E', symObjAddr: 0x27698, symBinAddr: 0x10004389C, symSize: 0xD0 }
  - { offset: 0x904EC, size: 0x8, addend: 0x0, symName: '__ZN62_$LT$std..io..stdio..StdinLock$u20$as$u20$std..io..BufRead$GT$7consume17hac69548ccca8fcacE', symObjAddr: 0x27768, symBinAddr: 0x10004396C, symSize: 0x28 }
  - { offset: 0x90589, size: 0x8, addend: 0x0, symName: '__ZN62_$LT$std..io..stdio..StdinLock$u20$as$u20$std..io..BufRead$GT$10read_until17ha39fa5e38bb78c4cE', symObjAddr: 0x27790, symBinAddr: 0x100043994, symSize: 0x18 }
  - { offset: 0x905E5, size: 0x8, addend: 0x0, symName: '__ZN62_$LT$std..io..stdio..StdinLock$u20$as$u20$std..io..BufRead$GT$9read_line17h2dc1e74edb12761cE', symObjAddr: 0x277A8, symBinAddr: 0x1000439AC, symSize: 0xC0 }
  - { offset: 0x90811, size: 0x8, addend: 0x0, symName: '__ZN58_$LT$std..io..stdio..Stdin$u20$as$u20$core..fmt..Debug$GT$3fmt17h18506d32217dd156E', symObjAddr: 0x26274, symBinAddr: 0x100042478, symSize: 0x38 }
  - { offset: 0x9085C, size: 0x8, addend: 0x0, symName: '__ZN59_$LT$std..io..stdio..StdinLock$u20$as$u20$std..io..Read$GT$4read17h6b490506125ae8cbE', symObjAddr: 0x26EF8, symBinAddr: 0x1000430FC, symSize: 0x18 }
  - { offset: 0x9089C, size: 0x8, addend: 0x0, symName: '__ZN59_$LT$std..io..stdio..StdinLock$u20$as$u20$std..io..Read$GT$8read_buf17h8f9b5467f999e3daE', symObjAddr: 0x26F10, symBinAddr: 0x100043114, symSize: 0x18 }
  - { offset: 0x908DC, size: 0x8, addend: 0x0, symName: '__ZN59_$LT$std..io..stdio..StdinLock$u20$as$u20$std..io..Read$GT$13read_vectored17hbc7d58e4612f164aE', symObjAddr: 0x26F28, symBinAddr: 0x10004312C, symSize: 0x284 }
  - { offset: 0x90DF1, size: 0x8, addend: 0x0, symName: '__ZN59_$LT$std..io..stdio..StdinLock$u20$as$u20$std..io..Read$GT$11read_to_end17h3e8246cdb665890bE', symObjAddr: 0x271AC, symBinAddr: 0x1000433B0, symSize: 0x18 }
  - { offset: 0x90E31, size: 0x8, addend: 0x0, symName: '__ZN59_$LT$std..io..stdio..StdinLock$u20$as$u20$std..io..Read$GT$14read_to_string17h654ac4f98cdc5becE', symObjAddr: 0x271C4, symBinAddr: 0x1000433C8, symSize: 0x1B4 }
  - { offset: 0x913E2, size: 0x8, addend: 0x0, symName: '__ZN59_$LT$std..io..stdio..StdinLock$u20$as$u20$std..io..Read$GT$10read_exact17h7f1bef035b9584e8E', symObjAddr: 0x27378, symBinAddr: 0x10004357C, symSize: 0x194 }
  - { offset: 0x917C5, size: 0x8, addend: 0x0, symName: '__ZN59_$LT$std..io..stdio..StdinLock$u20$as$u20$std..io..Read$GT$14read_buf_exact17h158cfdefe25dc32dE', symObjAddr: 0x2750C, symBinAddr: 0x100043710, symSize: 0x18C }
  - { offset: 0x91C9A, size: 0x8, addend: 0x0, symName: '__ZN55_$LT$std..io..stdio..Stdin$u20$as$u20$std..io..Read$GT$4read17hee660d4ff490e299E', symObjAddr: 0x262AC, symBinAddr: 0x1000424B0, symSize: 0xF0 }
  - { offset: 0x91F0B, size: 0x8, addend: 0x0, symName: '__ZN55_$LT$std..io..stdio..Stdin$u20$as$u20$std..io..Read$GT$8read_buf17hae8d40d6ce62b485E', symObjAddr: 0x2639C, symBinAddr: 0x1000425A0, symSize: 0xD0 }
  - { offset: 0x9217C, size: 0x8, addend: 0x0, symName: '__ZN55_$LT$std..io..stdio..Stdin$u20$as$u20$std..io..Read$GT$13read_vectored17hea240284dfd9c325E', symObjAddr: 0x2646C, symBinAddr: 0x100042670, symSize: 0xD8 }
  - { offset: 0x923E9, size: 0x8, addend: 0x0, symName: '__ZN55_$LT$std..io..stdio..Stdin$u20$as$u20$std..io..Read$GT$11read_to_end17h3066023e07621165E', symObjAddr: 0x26544, symBinAddr: 0x100042748, symSize: 0xD8 }
  - { offset: 0x92697, size: 0x8, addend: 0x0, symName: '__ZN55_$LT$std..io..stdio..Stdin$u20$as$u20$std..io..Read$GT$14read_to_string17h84dedb3c483f10b6E', symObjAddr: 0x2661C, symBinAddr: 0x100042820, symSize: 0xE8 }
  - { offset: 0x92904, size: 0x8, addend: 0x0, symName: '__ZN55_$LT$std..io..stdio..Stdin$u20$as$u20$std..io..Read$GT$10read_exact17h9bedca47acee2b71E', symObjAddr: 0x26704, symBinAddr: 0x100042908, symSize: 0xE8 }
  - { offset: 0x92B71, size: 0x8, addend: 0x0, symName: '__ZN55_$LT$std..io..stdio..Stdin$u20$as$u20$std..io..Read$GT$14read_buf_exact17h87765d806fbabebaE', symObjAddr: 0x267EC, symBinAddr: 0x1000429F0, symSize: 0xD8 }
  - { offset: 0x92DE4, size: 0x8, addend: 0x0, symName: '__ZN59_$LT$$RF$std..io..stdio..Stdin$u20$as$u20$std..io..Read$GT$4read17hf096518c72d5cc56E', symObjAddr: 0x268C4, symBinAddr: 0x100042AC8, symSize: 0xF4 }
  - { offset: 0x93055, size: 0x8, addend: 0x0, symName: '__ZN59_$LT$$RF$std..io..stdio..Stdin$u20$as$u20$std..io..Read$GT$8read_buf17he112e687fad55dd9E', symObjAddr: 0x269B8, symBinAddr: 0x100042BBC, symSize: 0xD4 }
  - { offset: 0x932C6, size: 0x8, addend: 0x0, symName: '__ZN59_$LT$$RF$std..io..stdio..Stdin$u20$as$u20$std..io..Read$GT$13read_vectored17hf7fb5277fb2e0819E', symObjAddr: 0x26A8C, symBinAddr: 0x100042C90, symSize: 0xDC }
  - { offset: 0x93533, size: 0x8, addend: 0x0, symName: '__ZN59_$LT$$RF$std..io..stdio..Stdin$u20$as$u20$std..io..Read$GT$11read_to_end17h615809d91a599e28E', symObjAddr: 0x26B68, symBinAddr: 0x100042D6C, symSize: 0xDC }
  - { offset: 0x937E1, size: 0x8, addend: 0x0, symName: '__ZN59_$LT$$RF$std..io..stdio..Stdin$u20$as$u20$std..io..Read$GT$14read_to_string17hbb05555b83851c99E', symObjAddr: 0x26C44, symBinAddr: 0x100042E48, symSize: 0xEC }
  - { offset: 0x93A4E, size: 0x8, addend: 0x0, symName: '__ZN59_$LT$$RF$std..io..stdio..Stdin$u20$as$u20$std..io..Read$GT$10read_exact17hfc3057923c143f9cE', symObjAddr: 0x26D30, symBinAddr: 0x100042F34, symSize: 0xEC }
  - { offset: 0x93CBB, size: 0x8, addend: 0x0, symName: '__ZN59_$LT$$RF$std..io..stdio..Stdin$u20$as$u20$std..io..Read$GT$14read_buf_exact17h518c2f93d17d5b8cE', symObjAddr: 0x26E1C, symBinAddr: 0x100043020, symSize: 0xDC }
  - { offset: 0x93F2E, size: 0x8, addend: 0x0, symName: '__ZN62_$LT$std..io..stdio..StdinLock$u20$as$u20$core..fmt..Debug$GT$3fmt17he9ac930417d3455dE', symObjAddr: 0x27868, symBinAddr: 0x100043A6C, symSize: 0x38 }
  - { offset: 0x93F4A, size: 0x8, addend: 0x0, symName: __ZN3std2io5stdio6stdout17h0ff45a09ed3da47aE, symObjAddr: 0x278A0, symBinAddr: 0x100043AA4, symSize: 0x3C }
  - { offset: 0x93F7B, size: 0x8, addend: 0x0, symName: __ZN3std2io5stdio6stdout17h0ff45a09ed3da47aE, symObjAddr: 0x278A0, symBinAddr: 0x100043AA4, symSize: 0x3C }
  - { offset: 0x93F90, size: 0x8, addend: 0x0, symName: __ZN3std2io5stdio6stdout17h0ff45a09ed3da47aE, symObjAddr: 0x278A0, symBinAddr: 0x100043AA4, symSize: 0x3C }
  - { offset: 0x93FA4, size: 0x8, addend: 0x0, symName: __ZN3std2io5stdio6stdout17h0ff45a09ed3da47aE, symObjAddr: 0x278A0, symBinAddr: 0x100043AA4, symSize: 0x3C }
  - { offset: 0x93FB9, size: 0x8, addend: 0x0, symName: __ZN3std2io5stdio6stdout17h0ff45a09ed3da47aE, symObjAddr: 0x278A0, symBinAddr: 0x100043AA4, symSize: 0x3C }
  - { offset: 0x93FCE, size: 0x8, addend: 0x0, symName: __ZN3std2io5stdio6stdout17h0ff45a09ed3da47aE, symObjAddr: 0x278A0, symBinAddr: 0x100043AA4, symSize: 0x3C }
  - { offset: 0x93FE2, size: 0x8, addend: 0x0, symName: __ZN3std2io5stdio6stdout17h0ff45a09ed3da47aE, symObjAddr: 0x278A0, symBinAddr: 0x100043AA4, symSize: 0x3C }
  - { offset: 0x94001, size: 0x8, addend: 0x0, symName: '__ZN59_$LT$std..io..stdio..Stdout$u20$as$u20$core..fmt..Debug$GT$3fmt17h1e4064b9fefd85d1E', symObjAddr: 0x278DC, symBinAddr: 0x100043AE0, symSize: 0x38 }
  - { offset: 0x9404C, size: 0x8, addend: 0x0, symName: '__ZN61_$LT$$RF$std..io..stdio..Stdout$u20$as$u20$std..io..Write$GT$5write17h497d5ec05727f18eE', symObjAddr: 0x27B5C, symBinAddr: 0x100043D60, symSize: 0xA8 }
  - { offset: 0x94239, size: 0x8, addend: 0x0, symName: '__ZN61_$LT$$RF$std..io..stdio..Stdout$u20$as$u20$std..io..Write$GT$14write_vectored17hede7d3936fce79b2E', symObjAddr: 0x27C04, symBinAddr: 0x100043E08, symSize: 0xDC }
  - { offset: 0x94667, size: 0x8, addend: 0x0, symName: '__ZN61_$LT$$RF$std..io..stdio..Stdout$u20$as$u20$std..io..Write$GT$5flush17h0985c76f4a38abafE', symObjAddr: 0x27CE0, symBinAddr: 0x100043EE4, symSize: 0xBC }
  - { offset: 0x94AAA, size: 0x8, addend: 0x0, symName: '__ZN61_$LT$$RF$std..io..stdio..Stdout$u20$as$u20$std..io..Write$GT$9write_all17haa15cea697b461d7E', symObjAddr: 0x27D9C, symBinAddr: 0x100043FA0, symSize: 0xA0 }
  - { offset: 0x94C97, size: 0x8, addend: 0x0, symName: '__ZN61_$LT$$RF$std..io..stdio..Stdout$u20$as$u20$std..io..Write$GT$18write_all_vectored17h939b3811c333e049E', symObjAddr: 0x27E3C, symBinAddr: 0x100044040, symSize: 0xA0 }
  - { offset: 0x94E84, size: 0x8, addend: 0x0, symName: '__ZN61_$LT$$RF$std..io..stdio..Stdout$u20$as$u20$std..io..Write$GT$9write_fmt17h952563a5eefc7f25E', symObjAddr: 0x27EDC, symBinAddr: 0x1000440E0, symSize: 0x18C }
  - { offset: 0x95296, size: 0x8, addend: 0x0, symName: '__ZN57_$LT$std..io..stdio..Stdout$u20$as$u20$std..io..Write$GT$5write17h35f6effde5df7a9cE', symObjAddr: 0x27914, symBinAddr: 0x100043B18, symSize: 0xA4 }
  - { offset: 0x95498, size: 0x8, addend: 0x0, symName: '__ZN57_$LT$std..io..stdio..Stdout$u20$as$u20$std..io..Write$GT$14write_vectored17he302611c0b728527E', symObjAddr: 0x279B8, symBinAddr: 0x100043BBC, symSize: 0x24 }
  - { offset: 0x954B3, size: 0x8, addend: 0x0, symName: '__ZN57_$LT$std..io..stdio..Stdout$u20$as$u20$std..io..Write$GT$5flush17h7d3e849ee1db19bcE', symObjAddr: 0x279DC, symBinAddr: 0x100043BE0, symSize: 0x24 }
  - { offset: 0x954CE, size: 0x8, addend: 0x0, symName: '__ZN57_$LT$std..io..stdio..Stdout$u20$as$u20$std..io..Write$GT$9write_all17he35cb3e82310f3d6E', symObjAddr: 0x27A00, symBinAddr: 0x100043C04, symSize: 0x9C }
  - { offset: 0x956D0, size: 0x8, addend: 0x0, symName: '__ZN57_$LT$std..io..stdio..Stdout$u20$as$u20$std..io..Write$GT$18write_all_vectored17ha50c9e2cc6870a23E', symObjAddr: 0x27A9C, symBinAddr: 0x100043CA0, symSize: 0x9C }
  - { offset: 0x958D2, size: 0x8, addend: 0x0, symName: '__ZN57_$LT$std..io..stdio..Stdout$u20$as$u20$std..io..Write$GT$9write_fmt17h60fe04718020a3a8E', symObjAddr: 0x27B38, symBinAddr: 0x100043D3C, symSize: 0x24 }
  - { offset: 0x95916, size: 0x8, addend: 0x0, symName: '__ZN61_$LT$std..io..stdio..StdoutLock$u20$as$u20$std..io..Write$GT$5write17h8402da5d90828be8E', symObjAddr: 0x28068, symBinAddr: 0x10004426C, symSize: 0x25C }
  - { offset: 0x9613D, size: 0x8, addend: 0x0, symName: '__ZN61_$LT$std..io..stdio..StdoutLock$u20$as$u20$std..io..Write$GT$14write_vectored17h244e66b61a65bc86E', symObjAddr: 0x282C4, symBinAddr: 0x1000444C8, symSize: 0x5C }
  - { offset: 0x96393, size: 0x8, addend: 0x0, symName: '__ZN61_$LT$std..io..stdio..StdoutLock$u20$as$u20$std..io..Write$GT$5flush17hd24afb935d02ca55E', symObjAddr: 0x28320, symBinAddr: 0x100044524, symSize: 0x5C }
  - { offset: 0x965FE, size: 0x8, addend: 0x0, symName: '__ZN61_$LT$std..io..stdio..StdoutLock$u20$as$u20$std..io..Write$GT$9write_all17h0b23f87059158e4bE', symObjAddr: 0x2837C, symBinAddr: 0x100044580, symSize: 0x258 }
  - { offset: 0x96CB6, size: 0x8, addend: 0x0, symName: '__ZN61_$LT$std..io..stdio..StdoutLock$u20$as$u20$std..io..Write$GT$18write_all_vectored17h7c37768515a10ae7E', symObjAddr: 0x285D4, symBinAddr: 0x1000447D8, symSize: 0x2D8 }
  - { offset: 0x97375, size: 0x8, addend: 0x0, symName: '__ZN63_$LT$std..io..stdio..StdoutLock$u20$as$u20$core..fmt..Debug$GT$3fmt17h14ce944173123ce0E', symObjAddr: 0x288AC, symBinAddr: 0x100044AB0, symSize: 0x38 }
  - { offset: 0x97396, size: 0x8, addend: 0x0, symName: __ZN3std2io5stdio6Stderr4lock17ha3df19dd37ed7051E, symObjAddr: 0x288E4, symBinAddr: 0x100044AE8, symSize: 0xF0 }
  - { offset: 0x97617, size: 0x8, addend: 0x0, symName: '__ZN59_$LT$std..io..stdio..Stderr$u20$as$u20$core..fmt..Debug$GT$3fmt17hd2de10d061b1a8a6E', symObjAddr: 0x289D4, symBinAddr: 0x100044BD8, symSize: 0x38 }
  - { offset: 0x97638, size: 0x8, addend: 0x0, symName: '__ZN57_$LT$std..io..stdio..Stderr$u20$as$u20$std..io..Write$GT$5write17h2900f0f33eff241eE', symObjAddr: 0x28A0C, symBinAddr: 0x100044C10, symSize: 0x24 }
  - { offset: 0x97653, size: 0x8, addend: 0x0, symName: '__ZN57_$LT$std..io..stdio..Stderr$u20$as$u20$std..io..Write$GT$14write_vectored17hde43835ab455c89bE', symObjAddr: 0x28A30, symBinAddr: 0x100044C34, symSize: 0x24 }
  - { offset: 0x9766E, size: 0x8, addend: 0x0, symName: '__ZN57_$LT$std..io..stdio..Stderr$u20$as$u20$std..io..Write$GT$5flush17hea84fa6b8baec6e0E', symObjAddr: 0x28A54, symBinAddr: 0x100044C58, symSize: 0x80 }
  - { offset: 0x978CD, size: 0x8, addend: 0x0, symName: '__ZN57_$LT$std..io..stdio..Stderr$u20$as$u20$std..io..Write$GT$9write_all17h2469b814dd58888eE', symObjAddr: 0x28AD4, symBinAddr: 0x100044CD8, symSize: 0x9C }
  - { offset: 0x97ACF, size: 0x8, addend: 0x0, symName: '__ZN57_$LT$std..io..stdio..Stderr$u20$as$u20$std..io..Write$GT$18write_all_vectored17h832c413a2a233ae4E', symObjAddr: 0x28B70, symBinAddr: 0x100044D74, symSize: 0x24 }
  - { offset: 0x97AEA, size: 0x8, addend: 0x0, symName: '__ZN57_$LT$std..io..stdio..Stderr$u20$as$u20$std..io..Write$GT$9write_fmt17h606a3fc755d6817aE', symObjAddr: 0x28B94, symBinAddr: 0x100044D98, symSize: 0x24 }
  - { offset: 0x97B2E, size: 0x8, addend: 0x0, symName: '__ZN61_$LT$$RF$std..io..stdio..Stderr$u20$as$u20$std..io..Write$GT$5write17h357bbf13ec847584E', symObjAddr: 0x28BB8, symBinAddr: 0x100044DBC, symSize: 0x10C }
  - { offset: 0x97F7D, size: 0x8, addend: 0x0, symName: '__ZN61_$LT$$RF$std..io..stdio..Stderr$u20$as$u20$std..io..Write$GT$14write_vectored17h29a66d029dfa7cc5E', symObjAddr: 0x28CC4, symBinAddr: 0x100044EC8, symSize: 0x190 }
  - { offset: 0x9841E, size: 0x8, addend: 0x0, symName: '__ZN61_$LT$$RF$std..io..stdio..Stderr$u20$as$u20$std..io..Write$GT$5flush17hd8877775a97ed460E', symObjAddr: 0x28E54, symBinAddr: 0x100045058, symSize: 0x84 }
  - { offset: 0x98668, size: 0x8, addend: 0x0, symName: '__ZN61_$LT$$RF$std..io..stdio..Stderr$u20$as$u20$std..io..Write$GT$9write_all17h30a49fac27e26b55E', symObjAddr: 0x28ED8, symBinAddr: 0x1000450DC, symSize: 0xA0 }
  - { offset: 0x98855, size: 0x8, addend: 0x0, symName: '__ZN61_$LT$$RF$std..io..stdio..Stderr$u20$as$u20$std..io..Write$GT$18write_all_vectored17h0331bbc9ec4046acE', symObjAddr: 0x28F78, symBinAddr: 0x10004517C, symSize: 0xE4 }
  - { offset: 0x98C7B, size: 0x8, addend: 0x0, symName: '__ZN61_$LT$$RF$std..io..stdio..Stderr$u20$as$u20$std..io..Write$GT$9write_fmt17hb13653ece81c305cE', symObjAddr: 0x2905C, symBinAddr: 0x100045260, symSize: 0x18C }
  - { offset: 0x990C5, size: 0x8, addend: 0x0, symName: '__ZN61_$LT$std..io..stdio..StderrLock$u20$as$u20$std..io..Write$GT$5write17h8f94425c51e84efeE', symObjAddr: 0x291E8, symBinAddr: 0x1000453EC, symSize: 0xA8 }
  - { offset: 0x99344, size: 0x8, addend: 0x0, symName: '__ZN61_$LT$std..io..stdio..StderrLock$u20$as$u20$std..io..Write$GT$14write_vectored17h9746b7075a3a2496E', symObjAddr: 0x29290, symBinAddr: 0x100045494, symSize: 0x134 }
  - { offset: 0x9960D, size: 0x8, addend: 0x0, symName: '__ZN61_$LT$std..io..stdio..StderrLock$u20$as$u20$std..io..Write$GT$5flush17h6c834dc523fc3904E', symObjAddr: 0x293C4, symBinAddr: 0x1000455C8, symSize: 0x28 }
  - { offset: 0x99624, size: 0x8, addend: 0x0, symName: '__ZN61_$LT$std..io..stdio..StderrLock$u20$as$u20$std..io..Write$GT$5flush17h6c834dc523fc3904E', symObjAddr: 0x293C4, symBinAddr: 0x1000455C8, symSize: 0x28 }
  - { offset: 0x99686, size: 0x8, addend: 0x0, symName: '__ZN61_$LT$std..io..stdio..StderrLock$u20$as$u20$std..io..Write$GT$9write_all17hbcb946b5e19e88f4E', symObjAddr: 0x293EC, symBinAddr: 0x1000455F0, symSize: 0x100 }
  - { offset: 0x999EE, size: 0x8, addend: 0x0, symName: '__ZN61_$LT$std..io..stdio..StderrLock$u20$as$u20$std..io..Write$GT$18write_all_vectored17haa5d8ae884b9acf4E', symObjAddr: 0x294EC, symBinAddr: 0x1000456F0, symSize: 0x6C }
  - { offset: 0x99C4A, size: 0x8, addend: 0x0, symName: '__ZN63_$LT$std..io..stdio..StderrLock$u20$as$u20$core..fmt..Debug$GT$3fmt17hc9ca1b7f8693b83eE', symObjAddr: 0x29558, symBinAddr: 0x10004575C, symSize: 0x38 }
  - { offset: 0x99CA1, size: 0x8, addend: 0x0, symName: __ZN3std2io5stdio18set_output_capture17hc31b5c53c6a020cfE, symObjAddr: 0x29590, symBinAddr: 0x100045794, symSize: 0x100 }
  - { offset: 0x99F2A, size: 0x8, addend: 0x0, symName: __ZN3std2io5stdio22try_set_output_capture17h6b911b9bf0ee8251E, symObjAddr: 0x29690, symBinAddr: 0x100045894, symSize: 0xF4 }
  - { offset: 0x9A1A8, size: 0x8, addend: 0x0, symName: __ZN3std2io5stdio31print_to_buffer_if_capture_used17h4f9af32139a0ca49E, symObjAddr: 0x29784, symBinAddr: 0x100045988, symSize: 0x208 }
  - { offset: 0x9A898, size: 0x8, addend: 0x0, symName: __ZN3std2io5stdio23attempt_print_to_stderr17h594e6b3929eeb5c4E, symObjAddr: 0x2998C, symBinAddr: 0x100045B90, symSize: 0xD0 }
  - { offset: 0x9AAC1, size: 0x8, addend: 0x0, symName: __ZN3std2io5stdio6_print17h94312bde6bc5c430E, symObjAddr: 0x29A5C, symBinAddr: 0x100045C60, symSize: 0xE4 }
  - { offset: 0x9ABC6, size: 0x8, addend: 0x0, symName: __ZN3std2io5stdio7_eprint17h3b10a1f297042c6eE, symObjAddr: 0x29B40, symBinAddr: 0x100045D44, symSize: 0xC8 }
  - { offset: 0x9AD37, size: 0x8, addend: 0x0, symName: '__ZN79_$LT$alloc..vec..Vec$LT$u8$GT$$u20$as$u20$std..io..copy..BufferedWriterSpec$GT$11buffer_size17h458740429d1fb006E', symObjAddr: 0x24C24, symBinAddr: 0x100040E28, symSize: 0x28 }
  - { offset: 0x9AEB6, size: 0x8, addend: 0x0, symName: '__ZN55_$LT$std..io..util..Repeat$u20$as$u20$std..io..Read$GT$8read_buf17h5cf1d927af365ed9E', symObjAddr: 0x29C08, symBinAddr: 0x100045E0C, symSize: 0x4C }
  - { offset: 0x9AFC0, size: 0x8, addend: 0x0, symName: '__ZN55_$LT$std..io..util..Repeat$u20$as$u20$std..io..Read$GT$11read_to_end17h8b4c2a2d465b5e65E', symObjAddr: 0x29C54, symBinAddr: 0x100045E58, symSize: 0x1C }
  - { offset: 0x9AFE0, size: 0x8, addend: 0x0, symName: '__ZN58_$LT$std..io..util..Repeat$u20$as$u20$core..fmt..Debug$GT$3fmt17h7ae86ecc3247476cE', symObjAddr: 0x29C70, symBinAddr: 0x100045E74, symSize: 0x38 }
  - { offset: 0x9B02B, size: 0x8, addend: 0x0, symName: __ZN3std2io19default_read_to_end16small_probe_read17h386ab1740b8e088aE, symObjAddr: 0x2A3E8, symBinAddr: 0x1000465EC, symSize: 0xE4 }
  - { offset: 0x9B22C, size: 0x8, addend: 0x0, symName: __ZN3std2io19default_read_to_end16small_probe_read17h9ec7c2c1befd2d15E, symObjAddr: 0x2A4CC, symBinAddr: 0x1000466D0, symSize: 0xF8 }
  - { offset: 0x9B43B, size: 0x8, addend: 0x0, symName: __ZN3std2io19default_read_to_end16small_probe_read17hab939eab7b17d624E, symObjAddr: 0x2A5C4, symBinAddr: 0x1000467C8, symSize: 0xE4 }
  - { offset: 0x9B62E, size: 0x8, addend: 0x0, symName: __ZN3std2io19default_read_to_end16small_probe_read17hca71644b21a9be15E, symObjAddr: 0x2A6A8, symBinAddr: 0x1000468AC, symSize: 0xE0 }
  - { offset: 0x9B821, size: 0x8, addend: 0x0, symName: __ZN3std2io19default_read_to_end17h1c94036f1fd73146E, symObjAddr: 0x29CA8, symBinAddr: 0x100045EAC, symSize: 0x278 }
  - { offset: 0x9BCD4, size: 0x8, addend: 0x0, symName: __ZN3std2io19default_read_to_end17ha6aaeb748dd4b98aE, symObjAddr: 0x29F20, symBinAddr: 0x100046124, symSize: 0x274 }
  - { offset: 0x9C195, size: 0x8, addend: 0x0, symName: __ZN3std2io19default_read_to_end17hb1d63bc7815a760dE, symObjAddr: 0x2A194, symBinAddr: 0x100046398, symSize: 0x254 }
  - { offset: 0x9C63E, size: 0x8, addend: 0x0, symName: '__ZN53_$LT$std..io..IoSlice$u20$as$u20$core..fmt..Debug$GT$3fmt17haee523fe3a266c7cE', symObjAddr: 0x2A788, symBinAddr: 0x10004698C, symSize: 0x70 }
  - { offset: 0x9C6FD, size: 0x8, addend: 0x0, symName: __ZN3std2io10read_until17h982791ae7de37757E, symObjAddr: 0x2AEC4, symBinAddr: 0x1000470C8, symSize: 0x574 }
  - { offset: 0x9CE22, size: 0x8, addend: 0x0, symName: '__ZN3std4sync4once4Once15call_once_force28_$u7b$$u7b$closure$u7d$$u7d$17h1fae7beff65a3bbcE', symObjAddr: 0x344FC, symBinAddr: 0x1000505A4, symSize: 0x60 }
  - { offset: 0x9CF04, size: 0x8, addend: 0x0, symName: '__ZN3std4sync4once4Once15call_once_force28_$u7b$$u7b$closure$u7d$$u7d$17hd0e01547106cd689E', symObjAddr: 0x3455C, symBinAddr: 0x100050604, symSize: 0x74 }
  - { offset: 0x9D050, size: 0x8, addend: 0x0, symName: '__ZN3std4sync4once4Once15call_once_force28_$u7b$$u7b$closure$u7d$$u7d$17hd99e267cf82614efE', symObjAddr: 0x345D0, symBinAddr: 0x100050678, symSize: 0x78 }
  - { offset: 0x9D1BE, size: 0x8, addend: 0x0, symName: '__ZN3std4sync4once4Once9call_once28_$u7b$$u7b$closure$u7d$$u7d$17h01e395b24de1ff34E', symObjAddr: 0x3411C, symBinAddr: 0x1000501C4, symSize: 0x25C }
  - { offset: 0x9D9A7, size: 0x8, addend: 0x0, symName: '__ZN3std4sync4once4Once9call_once28_$u7b$$u7b$closure$u7d$$u7d$17h580b4a612321d029E', symObjAddr: 0x34378, symBinAddr: 0x100050420, symSize: 0x184 }
  - { offset: 0x9DD78, size: 0x8, addend: 0x0, symName: __ZN3std4sync4once4Once4wait17h853937f230b1a179E, symObjAddr: 0x34648, symBinAddr: 0x1000506F0, symSize: 0x30 }
  - { offset: 0x9DDD4, size: 0x8, addend: 0x0, symName: __ZN3std4sync4once4Once10wait_force17hd1bbbb9d1ad25da9E, symObjAddr: 0x34678, symBinAddr: 0x100050720, symSize: 0x30 }
  - { offset: 0x9DE5D, size: 0x8, addend: 0x0, symName: '__ZN58_$LT$std..sync..once..Once$u20$as$u20$core..fmt..Debug$GT$3fmt17h32e1042471657d90E', symObjAddr: 0x346A8, symBinAddr: 0x100050750, symSize: 0x38 }
  - { offset: 0x9DE92, size: 0x8, addend: 0x0, symName: '__ZN63_$LT$std..sync..once..OnceState$u20$as$u20$core..fmt..Debug$GT$3fmt17h48204d1cbbc32447E', symObjAddr: 0x346E0, symBinAddr: 0x100050788, symSize: 0x6C }
  - { offset: 0x9DFD5, size: 0x8, addend: 0x0, symName: '__ZN3std4sync9once_lock17OnceLock$LT$T$GT$10initialize17h464bd6847401a71eE', symObjAddr: 0x3474C, symBinAddr: 0x1000A4C0C, symSize: 0x68 }
  - { offset: 0x9E000, size: 0x8, addend: 0x0, symName: '__ZN3std4sync9once_lock17OnceLock$LT$T$GT$10initialize17h464bd6847401a71eE', symObjAddr: 0x3474C, symBinAddr: 0x1000A4C0C, symSize: 0x68 }
  - { offset: 0x9E014, size: 0x8, addend: 0x0, symName: '__ZN3std4sync9once_lock17OnceLock$LT$T$GT$10initialize17h464bd6847401a71eE', symObjAddr: 0x3474C, symBinAddr: 0x1000A4C0C, symSize: 0x68 }
  - { offset: 0x9E028, size: 0x8, addend: 0x0, symName: '__ZN3std4sync9once_lock17OnceLock$LT$T$GT$10initialize17h464bd6847401a71eE', symObjAddr: 0x3474C, symBinAddr: 0x1000A4C0C, symSize: 0x68 }
  - { offset: 0x9E03E, size: 0x8, addend: 0x0, symName: '__ZN3std4sync9once_lock17OnceLock$LT$T$GT$10initialize17h4d2568abbe28249dE', symObjAddr: 0x347B4, symBinAddr: 0x1000A4C74, symSize: 0x5C }
  - { offset: 0x9E069, size: 0x8, addend: 0x0, symName: '__ZN3std4sync9once_lock17OnceLock$LT$T$GT$10initialize17h4d2568abbe28249dE', symObjAddr: 0x347B4, symBinAddr: 0x1000A4C74, symSize: 0x5C }
  - { offset: 0x9E07D, size: 0x8, addend: 0x0, symName: '__ZN3std4sync9once_lock17OnceLock$LT$T$GT$10initialize17h4d2568abbe28249dE', symObjAddr: 0x347B4, symBinAddr: 0x1000A4C74, symSize: 0x5C }
  - { offset: 0x9E091, size: 0x8, addend: 0x0, symName: '__ZN3std4sync9once_lock17OnceLock$LT$T$GT$10initialize17h4d2568abbe28249dE', symObjAddr: 0x347B4, symBinAddr: 0x1000A4C74, symSize: 0x5C }
  - { offset: 0x9E0A7, size: 0x8, addend: 0x0, symName: '__ZN3std4sync9once_lock17OnceLock$LT$T$GT$10initialize17h6fce188f1418e336E', symObjAddr: 0x34810, symBinAddr: 0x1000A4CD0, symSize: 0x64 }
  - { offset: 0x9E0D2, size: 0x8, addend: 0x0, symName: '__ZN3std4sync9once_lock17OnceLock$LT$T$GT$10initialize17h6fce188f1418e336E', symObjAddr: 0x34810, symBinAddr: 0x1000A4CD0, symSize: 0x64 }
  - { offset: 0x9E0E6, size: 0x8, addend: 0x0, symName: '__ZN3std4sync9once_lock17OnceLock$LT$T$GT$10initialize17h6fce188f1418e336E', symObjAddr: 0x34810, symBinAddr: 0x1000A4CD0, symSize: 0x64 }
  - { offset: 0x9E0FA, size: 0x8, addend: 0x0, symName: '__ZN3std4sync9once_lock17OnceLock$LT$T$GT$10initialize17h6fce188f1418e336E', symObjAddr: 0x34810, symBinAddr: 0x1000A4CD0, symSize: 0x64 }
  - { offset: 0x9E2E3, size: 0x8, addend: 0x0, symName: '__ZN76_$LT$std..sync..poison..PoisonError$LT$T$GT$$u20$as$u20$core..fmt..Debug$GT$3fmt17hd2b6c279d37da147E', symObjAddr: 0x34874, symBinAddr: 0x1000507F4, symSize: 0x38 }
  - { offset: 0x9E4D7, size: 0x8, addend: 0x0, symName: '__ZN3std4sync6rwlock15RwLock$LT$T$GT$5write17h42d42809d61a12b0E', symObjAddr: 0x348AC, symBinAddr: 0x10005082C, symSize: 0x27C }
  - { offset: 0x9EBC0, size: 0x8, addend: 0x0, symName: '__ZN3std4sync6rwlock15RwLock$LT$T$GT$5write17h9e5b35da47515648E', symObjAddr: 0x34B28, symBinAddr: 0x100050AA8, symSize: 0x27C }
  - { offset: 0x9F36D, size: 0x8, addend: 0x0, symName: __ZN3std4sync9lazy_lock14panic_poisoned17h3fefc2b38bd2f68dE, symObjAddr: 0x340E4, symBinAddr: 0x1000A4BD4, symSize: 0x38 }
  - { offset: 0x9F3F8, size: 0x8, addend: 0x0, symName: __ZN3std4sync4mpmc7context7Context3new17hfd86d24701898f2bE, symObjAddr: 0x33B6C, symBinAddr: 0x1000A4ABC, symSize: 0x118 }
  - { offset: 0x9F713, size: 0x8, addend: 0x0, symName: '__ZN69_$LT$std..sync..mpmc..zero..ZeroToken$u20$as$u20$core..fmt..Debug$GT$3fmt17h40fecd985b6d58beE', symObjAddr: 0x33C84, symBinAddr: 0x10004FD64, symSize: 0x48 }
  - { offset: 0x9F764, size: 0x8, addend: 0x0, symName: '__ZN65_$LT$std..sync..mpsc..RecvError$u20$as$u20$core..fmt..Display$GT$3fmt17h0611be049a7ab45fE', symObjAddr: 0x33CCC, symBinAddr: 0x10004FDAC, symSize: 0x20 }
  - { offset: 0x9F785, size: 0x8, addend: 0x0, symName: '__ZN68_$LT$std..sync..mpsc..TryRecvError$u20$as$u20$core..fmt..Display$GT$3fmt17h01ac5d8d3ebfb131E', symObjAddr: 0x33CEC, symBinAddr: 0x10004FDCC, symSize: 0x34 }
  - { offset: 0x9F7A6, size: 0x8, addend: 0x0, symName: '__ZN72_$LT$std..sync..mpsc..RecvTimeoutError$u20$as$u20$core..fmt..Display$GT$3fmt17h57526246445363e6E', symObjAddr: 0x33D20, symBinAddr: 0x10004FE00, symSize: 0x3C }
  - { offset: 0x9F7CD, size: 0x8, addend: 0x0, symName: '__ZN64_$LT$std..sync..barrier..Barrier$u20$as$u20$core..fmt..Debug$GT$3fmt17h83f7039af54b043dE', symObjAddr: 0x33D5C, symBinAddr: 0x10004FE3C, symSize: 0x38 }
  - { offset: 0x9F7ED, size: 0x8, addend: 0x0, symName: __ZN3std4sync7barrier7Barrier4wait17h7bb201eede0366f0E, symObjAddr: 0x33D94, symBinAddr: 0x10004FE74, symSize: 0x25C }
  - { offset: 0x9FCD3, size: 0x8, addend: 0x0, symName: '__ZN74_$LT$std..sync..barrier..BarrierWaitResult$u20$as$u20$core..fmt..Debug$GT$3fmt17h5f66b4ac48c612a3E', symObjAddr: 0x33FF0, symBinAddr: 0x1000500D0, symSize: 0x6C }
  - { offset: 0x9FD36, size: 0x8, addend: 0x0, symName: __ZN3std4sync7condvar7Condvar10notify_one17ha0ac0fdae85b7983E, symObjAddr: 0x3405C, symBinAddr: 0x10005013C, symSize: 0x28 }
  - { offset: 0x9FDC0, size: 0x8, addend: 0x0, symName: __ZN3std4sync7condvar7Condvar10notify_all17hb55b71d932674f22E, symObjAddr: 0x34084, symBinAddr: 0x100050164, symSize: 0x28 }
  - { offset: 0x9FE49, size: 0x8, addend: 0x0, symName: '__ZN64_$LT$std..sync..condvar..Condvar$u20$as$u20$core..fmt..Debug$GT$3fmt17hdbf6bf0d11d5c3b1E', symObjAddr: 0x340AC, symBinAddr: 0x10005018C, symSize: 0x38 }
  - { offset: 0x9FEA1, size: 0x8, addend: 0x0, symName: '__ZN64_$LT$std..backtrace..Backtrace$u20$as$u20$core..fmt..Display$GT$3fmt17h34ba4a73f9b932c0E', symObjAddr: 0x1FDE4, symBinAddr: 0x10003C200, symSize: 0x444 }
  - { offset: 0xA06CD, size: 0x8, addend: 0x0, symName: '__ZN62_$LT$std..backtrace..Backtrace$u20$as$u20$core..fmt..Debug$GT$3fmt17hb7ca1fda4f31ed32E', symObjAddr: 0x1F2E4, symBinAddr: 0x10003B700, symSize: 0x1BC }
  - { offset: 0xA08B5, size: 0x8, addend: 0x0, symName: '__ZN67_$LT$std..backtrace..BacktraceFrame$u20$as$u20$core..fmt..Debug$GT$3fmt17h77df4084bdfe2585E', symObjAddr: 0x1F4A0, symBinAddr: 0x10003B8BC, symSize: 0x80 }
  - { offset: 0xA0957, size: 0x8, addend: 0x0, symName: '__ZN68_$LT$std..backtrace..BacktraceSymbol$u20$as$u20$core..fmt..Debug$GT$3fmt17h3cfe3162cca7580dE', symObjAddr: 0x1F520, symBinAddr: 0x10003B93C, symSize: 0x238 }
  - { offset: 0xA0B58, size: 0x8, addend: 0x0, symName: '__ZN64_$LT$std..backtrace..BytesOrWide$u20$as$u20$core..fmt..Debug$GT$3fmt17hb204a5ba8ec64a11E', symObjAddr: 0x1F758, symBinAddr: 0x10003BB74, symSize: 0x120 }
  - { offset: 0xA0E3A, size: 0x8, addend: 0x0, symName: __ZN3std9backtrace9Backtrace7capture17hea28902c4f4acc3cE, symObjAddr: 0x1F878, symBinAddr: 0x10003BC94, symSize: 0x228 }
  - { offset: 0xA1324, size: 0x8, addend: 0x0, symName: __ZN3std9backtrace9Backtrace13force_capture17ha7ad4b3424b65288E, symObjAddr: 0x1FAA0, symBinAddr: 0x10003BEBC, symSize: 0x1C }
  - { offset: 0xA133F, size: 0x8, addend: 0x0, symName: __ZN3std9backtrace9Backtrace6create17h246802f9febf9dabE, symObjAddr: 0x1FABC, symBinAddr: 0x10003BED8, symSize: 0x150 }
  - { offset: 0xA16B8, size: 0x8, addend: 0x0, symName: __ZN3std9backtrace9Backtrace6frames17h2a3f6fd2314cd488E, symObjAddr: 0x1FD54, symBinAddr: 0x10003C170, symSize: 0x90 }
  - { offset: 0xA179B, size: 0x8, addend: 0x0, symName: '__ZN3std9backtrace9Backtrace6create28_$u7b$$u7b$closure$u7d$$u7d$17ha082505f2d9d0708E', symObjAddr: 0x1FC0C, symBinAddr: 0x10003C028, symSize: 0x148 }
  - { offset: 0xA1979, size: 0x8, addend: 0x0, symName: '__ZN3std9backtrace6helper12lazy_resolve28_$u7b$$u7b$closure$u7d$$u7d$28_$u7b$$u7b$closure$u7d$$u7d$17h749c946dd8de5153E', symObjAddr: 0x20228, symBinAddr: 0x10003C644, symSize: 0x200 }
  - { offset: 0xA1E63, size: 0x8, addend: 0x0, symName: __ZN3std9panicking11panic_count8increase17hd263eb8da2264c90E, symObjAddr: 0x3838C, symBinAddr: 0x100053B5C, symSize: 0x80 }
  - { offset: 0xA1F46, size: 0x8, addend: 0x0, symName: __ZN3std9panicking11panic_count19finished_panic_hook17hd443de22c0d44e15E, symObjAddr: 0x3840C, symBinAddr: 0x100053BDC, symSize: 0x24 }
  - { offset: 0xA1FF4, size: 0x8, addend: 0x0, symName: __ZN3std9panicking11panic_count8decrease17hb5437bf9038348c9E, symObjAddr: 0x38430, symBinAddr: 0x100053C00, symSize: 0x50 }
  - { offset: 0xA20E2, size: 0x8, addend: 0x0, symName: __ZN3std9panicking11panic_count9get_count17h5ec086d3ad2d1f92E, symObjAddr: 0x38480, symBinAddr: 0x100053C50, symSize: 0x24 }
  - { offset: 0xA2136, size: 0x8, addend: 0x0, symName: __ZN3std9panicking11panic_count17is_zero_slow_path17h1754b5b62a0b9f50E, symObjAddr: 0x384A4, symBinAddr: 0x1000A54E4, symSize: 0x2C }
  - { offset: 0xA2241, size: 0x8, addend: 0x0, symName: __ZN3std9panicking3try7cleanup17haf3305050ca6c30fE, symObjAddr: 0x384D0, symBinAddr: 0x1000A5510, symSize: 0x54 }
  - { offset: 0xA239A, size: 0x8, addend: 0x0, symName: ___rust_drop_panic, symObjAddr: 0x37BAC, symBinAddr: 0x10005337C, symSize: 0xB8 }
  - { offset: 0xA258B, size: 0x8, addend: 0x0, symName: ___rust_foreign_exception, symObjAddr: 0x37C64, symBinAddr: 0x100053434, symSize: 0xB8 }
  - { offset: 0xA278A, size: 0x8, addend: 0x0, symName: __ZN3std9panicking8set_hook17h5e3698ab236d7613E, symObjAddr: 0x37D1C, symBinAddr: 0x1000534EC, symSize: 0x198 }
  - { offset: 0xA2B0C, size: 0x8, addend: 0x0, symName: __ZN3std9panicking9take_hook17he7e7f6d1a3970e3bE, symObjAddr: 0x37EB4, symBinAddr: 0x100053684, symSize: 0x114 }
  - { offset: 0xA2DAA, size: 0x8, addend: 0x0, symName: '__ZN3std9panicking12default_hook28_$u7b$$u7b$closure$u7d$$u7d$17h369c7295ef58c5b1E', symObjAddr: 0x38230, symBinAddr: 0x100053A00, symSize: 0x15C }
  - { offset: 0xA2E45, size: 0x8, addend: 0x0, symName: __ZN3std9panicking12default_hook17h50746358288a9d6aE, symObjAddr: 0x37FC8, symBinAddr: 0x100053798, symSize: 0x268 }
  - { offset: 0xA321E, size: 0x8, addend: 0x0, symName: _rust_begin_unwind, symObjAddr: 0x38524, symBinAddr: 0x100053C74, symSize: 0x20 }
  - { offset: 0xA3287, size: 0x8, addend: 0x0, symName: '__ZN102_$LT$std..panicking..begin_panic_handler..FormatStringPayload$u20$as$u20$core..panic..PanicPayload$GT$8take_box17h2acdf661b618a275E', symObjAddr: 0x38544, symBinAddr: 0x100053C94, symSize: 0x110 }
  - { offset: 0xA3519, size: 0x8, addend: 0x0, symName: '__ZN102_$LT$std..panicking..begin_panic_handler..FormatStringPayload$u20$as$u20$core..panic..PanicPayload$GT$3get17h2b54113a97f90f6bE', symObjAddr: 0x38654, symBinAddr: 0x100053DA4, symSize: 0xB0 }
  - { offset: 0xA3650, size: 0x8, addend: 0x0, symName: '__ZN95_$LT$std..panicking..begin_panic_handler..FormatStringPayload$u20$as$u20$core..fmt..Display$GT$3fmt17hac3be7a2cb724666E', symObjAddr: 0x38704, symBinAddr: 0x100053E54, symSize: 0x5C }
  - { offset: 0xA374B, size: 0x8, addend: 0x0, symName: '__ZN99_$LT$std..panicking..begin_panic_handler..StaticStrPayload$u20$as$u20$core..panic..PanicPayload$GT$8take_box17hcb24f453260bcf12E', symObjAddr: 0x38760, symBinAddr: 0x100053EB0, symSize: 0x50 }
  - { offset: 0xA37C2, size: 0x8, addend: 0x0, symName: '__ZN99_$LT$std..panicking..begin_panic_handler..StaticStrPayload$u20$as$u20$core..panic..PanicPayload$GT$3get17hda0e5aec36f6a39eE', symObjAddr: 0x387B0, symBinAddr: 0x100053F00, symSize: 0x18 }
  - { offset: 0xA37DD, size: 0x8, addend: 0x0, symName: '__ZN99_$LT$std..panicking..begin_panic_handler..StaticStrPayload$u20$as$u20$core..panic..PanicPayload$GT$6as_str17h074c1a2d7e0372ceE', symObjAddr: 0x387C8, symBinAddr: 0x100053F18, symSize: 0x18 }
  - { offset: 0xA37FE, size: 0x8, addend: 0x0, symName: '__ZN92_$LT$std..panicking..begin_panic_handler..StaticStrPayload$u20$as$u20$core..fmt..Display$GT$3fmt17h34b3827fbb54675fE', symObjAddr: 0x387E0, symBinAddr: 0x100053F30, symSize: 0x1C }
  - { offset: 0xA381A, size: 0x8, addend: 0x0, symName: '__ZN3std9panicking19begin_panic_handler28_$u7b$$u7b$closure$u7d$$u7d$17h36f15310ecbde379E', symObjAddr: 0x387FC, symBinAddr: 0x100053F4C, symSize: 0xC4 }
  - { offset: 0xA3972, size: 0x8, addend: 0x0, symName: __ZN3std9panicking14payload_as_str17hd572ab7b51c466f5E, symObjAddr: 0x388C0, symBinAddr: 0x100054010, symSize: 0xB0 }
  - { offset: 0xA3A5D, size: 0x8, addend: 0x0, symName: __ZN3std9panicking20rust_panic_with_hook17h7d795911432661cbE, symObjAddr: 0x38970, symBinAddr: 0x1000540C0, symSize: 0x3E0 }
  - { offset: 0xA4266, size: 0x8, addend: 0x0, symName: __ZN3std9panicking23rust_panic_without_hook17ha5b359e245c580f7E, symObjAddr: 0x38D50, symBinAddr: 0x1000544A0, symSize: 0xD4 }
  - { offset: 0xA4476, size: 0x8, addend: 0x0, symName: '__ZN96_$LT$std..panicking..rust_panic_without_hook..RewrapBox$u20$as$u20$core..panic..PanicPayload$GT$8take_box17he6bc60a3f1ab3c3aE', symObjAddr: 0x38E24, symBinAddr: 0x100054574, symSize: 0x28 }
  - { offset: 0xA44D2, size: 0x8, addend: 0x0, symName: '__ZN96_$LT$std..panicking..rust_panic_without_hook..RewrapBox$u20$as$u20$core..panic..PanicPayload$GT$3get17h3dde59947af94813E', symObjAddr: 0x38E4C, symBinAddr: 0x10005459C, symSize: 0x18 }
  - { offset: 0xA44F3, size: 0x8, addend: 0x0, symName: '__ZN89_$LT$std..panicking..rust_panic_without_hook..RewrapBox$u20$as$u20$core..fmt..Display$GT$3fmt17h61764bbd3fa97782E', symObjAddr: 0x38E64, symBinAddr: 0x1000545B4, symSize: 0x20 }
  - { offset: 0xA4510, size: 0x8, addend: 0x0, symName: _rust_panic, symObjAddr: 0x38E84, symBinAddr: 0x1000545D4, symSize: 0x60 }
  - { offset: 0xA4571, size: 0x8, addend: 0x0, symName: '__ZN65_$LT$std..thread..PanicGuard$u20$as$u20$core..ops..drop..Drop$GT$4drop17h01b1c82d48337678E', symObjAddr: 0x1EBF0, symBinAddr: 0x10003B044, symSize: 0x44 }
  - { offset: 0xA466F, size: 0x8, addend: 0x0, symName: __ZN3std6thread7current11set_current17h26730749f582d83eE, symObjAddr: 0x1E600, symBinAddr: 0x10003ABD0, symSize: 0xC0 }
  - { offset: 0xA486A, size: 0x8, addend: 0x0, symName: __ZN3std6thread7current7current17h896b10c04da969afE, symObjAddr: 0x1E6C0, symBinAddr: 0x10003AC90, symSize: 0x48 }
  - { offset: 0xA4968, size: 0x8, addend: 0x0, symName: __ZN3std6thread7current12init_current17hb65b9a11bbbdf9e3E, symObjAddr: 0x1E708, symBinAddr: 0x1000A46E4, symSize: 0x17C }
  - { offset: 0xA4D78, size: 0x8, addend: 0x0, symName: __ZN3std6thread6Thread3new17hc05f91f44174434dE, symObjAddr: 0x1EFE8, symBinAddr: 0x10003B404, symSize: 0x44 }
  - { offset: 0xA4DA9, size: 0x8, addend: 0x0, symName: __ZN3std6thread6Thread11new_unnamed17h46ffa4bb6dfdc1ddE, symObjAddr: 0x1F02C, symBinAddr: 0x10003B448, symSize: 0x28 }
  - { offset: 0xA4DBD, size: 0x8, addend: 0x0, symName: __ZN3std6thread6Thread9new_inner17hf72df5a662df1b9dE, symObjAddr: 0x1F054, symBinAddr: 0x10003B470, symSize: 0x128 }
  - { offset: 0xA4F63, size: 0x8, addend: 0x0, symName: __ZN3std6thread6Thread4name17hb5fa340d9c51efbdE, symObjAddr: 0x1F17C, symBinAddr: 0x10003B598, symSize: 0x44 }
  - { offset: 0xA5093, size: 0x8, addend: 0x0, symName: __ZN3std6thread6Thread8from_raw17h86dd6fea40f25dccE, symObjAddr: 0x1F1C0, symBinAddr: 0x10003B5DC, symSize: 0x14 }
  - { offset: 0xA5197, size: 0x8, addend: 0x0, symName: __ZN3std6thread8ThreadId3new17h66c9df3cc4e4f85eE, symObjAddr: 0x1EE70, symBinAddr: 0x10003B2C4, symSize: 0x44 }
  - { offset: 0xA535A, size: 0x8, addend: 0x0, symName: '__ZN68_$LT$std..thread..local..AccessError$u20$as$u20$core..fmt..Debug$GT$3fmt17h89270534121e4544E', symObjAddr: 0x1E884, symBinAddr: 0x10003ACD8, symSize: 0x38 }
  - { offset: 0xA537A, size: 0x8, addend: 0x0, symName: '__ZN70_$LT$std..thread..local..AccessError$u20$as$u20$core..fmt..Display$GT$3fmt17ha850e949e998920bE', symObjAddr: 0x1E8BC, symBinAddr: 0x10003AD10, symSize: 0x20 }
  - { offset: 0xA53A0, size: 0x8, addend: 0x0, symName: __ZN3std6thread6scoped9ScopeData29increment_num_running_threads17h9245c33c42a37f43E, symObjAddr: 0x1E494, symBinAddr: 0x10003AAA4, symSize: 0x20 }
  - { offset: 0xA53BD, size: 0x8, addend: 0x0, symName: __ZN3std6thread6scoped9ScopeData29increment_num_running_threads17h9245c33c42a37f43E, symObjAddr: 0x1E494, symBinAddr: 0x10003AAA4, symSize: 0x20 }
  - { offset: 0xA53D1, size: 0x8, addend: 0x0, symName: __ZN3std6thread6scoped9ScopeData29increment_num_running_threads17h9245c33c42a37f43E, symObjAddr: 0x1E494, symBinAddr: 0x10003AAA4, symSize: 0x20 }
  - { offset: 0xA53FA, size: 0x8, addend: 0x0, symName: __ZN3std6thread6scoped9ScopeData8overflow17h55db1e4a96da87caE, symObjAddr: 0x1E4B4, symBinAddr: 0x1000A46A4, symSize: 0x40 }
  - { offset: 0xA5429, size: 0x8, addend: 0x0, symName: __ZN3std6thread6scoped9ScopeData29decrement_num_running_threads17h2d7e1d415b2ceb7bE, symObjAddr: 0x1E4F4, symBinAddr: 0x10003AAC4, symSize: 0x54 }
  - { offset: 0xA5564, size: 0x8, addend: 0x0, symName: '__ZN63_$LT$std..thread..scoped..Scope$u20$as$u20$core..fmt..Debug$GT$3fmt17h4d5047d45b4be1faE', symObjAddr: 0x1E548, symBinAddr: 0x10003AB18, symSize: 0xB8 }
  - { offset: 0xA561E, size: 0x8, addend: 0x0, symName: __ZN3std6thread7Builder4name17h3362893559363d68E, symObjAddr: 0x1E8DC, symBinAddr: 0x10003AD30, symSize: 0x84 }
  - { offset: 0xA56E2, size: 0x8, addend: 0x0, symName: __ZN3std6thread9yield_now17h8f11521876bfad4fE, symObjAddr: 0x1E960, symBinAddr: 0x10003ADB4, symSize: 0x10 }
  - { offset: 0xA5721, size: 0x8, addend: 0x0, symName: __ZN3std6thread8sleep_ms17hf22ab6c4065ffcebE, symObjAddr: 0x1E970, symBinAddr: 0x10003ADC4, symSize: 0xDC }
  - { offset: 0xA57BD, size: 0x8, addend: 0x0, symName: __ZN3std6thread5sleep17h21989ec8c2760d2cE, symObjAddr: 0x1EA4C, symBinAddr: 0x10003AEA0, symSize: 0xB8 }
  - { offset: 0xA5836, size: 0x8, addend: 0x0, symName: __ZN3std6thread11sleep_until17h46c0a8e26059e6a1E, symObjAddr: 0x1EB04, symBinAddr: 0x10003AF58, symSize: 0xEC }
  - { offset: 0xA5930, size: 0x8, addend: 0x0, symName: __ZN3std6thread4park17hdc05006252eed214E, symObjAddr: 0x1EC34, symBinAddr: 0x10003B088, symSize: 0xE0 }
  - { offset: 0xA5B47, size: 0x8, addend: 0x0, symName: __ZN3std6thread15park_timeout_ms17ha20d2980165f7b42E, symObjAddr: 0x1ED14, symBinAddr: 0x10003B168, symSize: 0x38 }
  - { offset: 0xA5B78, size: 0x8, addend: 0x0, symName: __ZN3std6thread12park_timeout17ha4f33bc649fef25bE, symObjAddr: 0x1ED4C, symBinAddr: 0x10003B1A0, symSize: 0x124 }
  - { offset: 0xA5E0E, size: 0x8, addend: 0x0, symName: __ZN3std6thread8ThreadId3new9exhausted17hb461b008978f84c2E, symObjAddr: 0x1EEB4, symBinAddr: 0x1000A4860, symSize: 0x38 }
  - { offset: 0xA5E4A, size: 0x8, addend: 0x0, symName: '__ZN118_$LT$std..thread..thread_name_string..ThreadNameString$u20$as$u20$core..convert..From$LT$alloc..string..String$GT$$GT$4from17h6360377a8fb99901E', symObjAddr: 0x1EEEC, symBinAddr: 0x10003B308, symSize: 0xFC }
  - { offset: 0xA6080, size: 0x8, addend: 0x0, symName: '__ZN56_$LT$std..thread..Thread$u20$as$u20$core..fmt..Debug$GT$3fmt17h367828c2730f0af8E', symObjAddr: 0x1F1D4, symBinAddr: 0x10003B5F0, symSize: 0xC0 }
  - { offset: 0xA61E4, size: 0x8, addend: 0x0, symName: __ZN3std6thread21available_parallelism17hac4d10ea4917613fE, symObjAddr: 0x1F294, symBinAddr: 0x10003B6B0, symSize: 0x50 }
  - { offset: 0xA629B, size: 0x8, addend: 0x0, symName: '__ZN58_$LT$std..thread..ThreadId$u20$as$u20$core..fmt..Debug$GT$3fmt17h2b0fa00f2bfce2c0E', symObjAddr: 0x398B8, symBinAddr: 0x100055008, symSize: 0x40 }
  - { offset: 0xA62EC, size: 0x8, addend: 0x0, symName: '__ZN89_$LT$std..backtrace_rs..symbolize..gimli..mmap..Mmap$u20$as$u20$core..ops..drop..Drop$GT$4drop17h106ecda45d883f25E', symObjAddr: 0x4A38C, symBinAddr: 0x100065034, symSize: 0x18 }
  - { offset: 0xA6319, size: 0x8, addend: 0x0, symName: '__ZN91_$LT$std..backtrace_rs..symbolize..gimli..mmap..Mmap$u20$as$u20$core..ops..deref..Deref$GT$5deref17h84860b6e10e5e957E', symObjAddr: 0x4A374, symBinAddr: 0x10006501C, symSize: 0x18 }
  - { offset: 0xA63F6, size: 0x8, addend: 0x0, symName: __ZN3std12backtrace_rs9symbolize5gimli7Context3new17h1e91e4e8ca8f4f43E, symObjAddr: 0x45674, symBinAddr: 0x10006031C, symSize: 0x226C }
  - { offset: 0xAA8F3, size: 0x8, addend: 0x0, symName: __ZN3std12backtrace_rs9symbolize5gimli7Context11find_frames17hfd1016a68cde14edE, symObjAddr: 0x478E0, symBinAddr: 0x100062588, symSize: 0x3A8 }
  - { offset: 0xAAD49, size: 0x8, addend: 0x0, symName: __ZN3std12backtrace_rs9symbolize5gimli5macho6Object5parse17h785faf4743f90f48E, symObjAddr: 0x4A578, symBinAddr: 0x100065220, symSize: 0xC78 }
  - { offset: 0xACA07, size: 0x8, addend: 0x0, symName: __ZN3std12backtrace_rs9symbolize5gimli5macho6Object7section17hd87dc726714e9896E, symObjAddr: 0x4B1F0, symBinAddr: 0x100065E98, symSize: 0x18C }
  - { offset: 0xACD95, size: 0x8, addend: 0x0, symName: __ZN3std12backtrace_rs9symbolize5gimli5macho11find_header17h967e7857a577695cE, symObjAddr: 0x4A3A4, symBinAddr: 0x10006504C, symSize: 0x1D4 }
  - { offset: 0xAD489, size: 0x8, addend: 0x0, symName: __ZN3std12backtrace_rs9symbolize5gimli4mmap17h0bd3f9fc60ec7b5cE, symObjAddr: 0x47C88, symBinAddr: 0x100062930, symSize: 0x160 }
  - { offset: 0xADA67, size: 0x8, addend: 0x0, symName: __ZN3std12backtrace_rs9symbolize5gimli7resolve17h59605c61b94de6bdE, symObjAddr: 0x47DE8, symBinAddr: 0x100062A90, symSize: 0x258C }
  - { offset: 0xB36CD, size: 0x8, addend: 0x0, symName: __ZN3std12backtrace_rs9symbolize6Symbol4name17h757bb3a891f635ceE, symObjAddr: 0x38FC4, symBinAddr: 0x100054714, symSize: 0xE4 }
  - { offset: 0xB37E6, size: 0x8, addend: 0x0, symName: __ZN3std12backtrace_rs9symbolize6Symbol12filename_raw17h51ca9225f93a104cE, symObjAddr: 0x390A8, symBinAddr: 0x1000547F8, symSize: 0x44 }
  - { offset: 0xB385F, size: 0x8, addend: 0x0, symName: '__ZN73_$LT$std..backtrace_rs..symbolize..Symbol$u20$as$u20$core..fmt..Debug$GT$3fmt17h318db3d45b84f6d8E', symObjAddr: 0x390EC, symBinAddr: 0x10005483C, symSize: 0xFC }
  - { offset: 0xB38F9, size: 0x8, addend: 0x0, symName: '__ZN79_$LT$std..backtrace_rs..symbolize..SymbolName$u20$as$u20$core..fmt..Display$GT$3fmt17he94ecb4e608d7aaaE', symObjAddr: 0x391E8, symBinAddr: 0x100054938, symSize: 0x100 }
  - { offset: 0xB39D9, size: 0x8, addend: 0x0, symName: '__ZN77_$LT$std..backtrace_rs..symbolize..SymbolName$u20$as$u20$core..fmt..Debug$GT$3fmt17hfb6e341f12fc7826E', symObjAddr: 0x392E8, symBinAddr: 0x100054A38, symSize: 0x100 }
  - { offset: 0xB3B2B, size: 0x8, addend: 0x0, symName: '__ZN85_$LT$std..backtrace_rs..backtrace..libunwind..Frame$u20$as$u20$core..clone..Clone$GT$5clone17h78e35b8f4ad18a6aE', symObjAddr: 0x45588, symBinAddr: 0x100060230, symSize: 0x6C }
  - { offset: 0xB3B8E, size: 0x8, addend: 0x0, symName: '__ZN87_$LT$std..backtrace_rs..backtrace..libunwind..Bomb$u20$as$u20$core..ops..drop..Drop$GT$4drop17hc4a56e0f957f55bbE', symObjAddr: 0x455F4, symBinAddr: 0x10006029C, symSize: 0x44 }
  - { offset: 0xB3BC3, size: 0x8, addend: 0x0, symName: __ZN3std12backtrace_rs9backtrace9libunwind5trace8trace_fn17he8146b547133e35cE, symObjAddr: 0x45638, symBinAddr: 0x1000602E0, symSize: 0x3C }
  - { offset: 0xB3C46, size: 0x8, addend: 0x0, symName: '__ZN72_$LT$std..backtrace_rs..backtrace..Frame$u20$as$u20$core..fmt..Debug$GT$3fmt17h502890f8c81a0dc9E', symObjAddr: 0x38EE4, symBinAddr: 0x100054634, symSize: 0xE0 }
  - { offset: 0xB3D52, size: 0x8, addend: 0x0, symName: __ZN3std12backtrace_rs5print17BacktraceFrameFmt21print_raw_with_column17h52f7494d1c550af5E, symObjAddr: 0x393E8, symBinAddr: 0x100054B38, symSize: 0x4D0 }
  - { offset: 0xB3F7E, size: 0x8, addend: 0x0, symName: __ZN3std2rt7cleanup17hca9dabeefa21ea70E, symObjAddr: 0x1DC08, symBinAddr: 0x10003A218, symSize: 0x64 }
  - { offset: 0xB3FA1, size: 0x8, addend: 0x0, symName: __ZN3std2rt7cleanup17hca9dabeefa21ea70E, symObjAddr: 0x1DC08, symBinAddr: 0x10003A218, symSize: 0x64 }
  - { offset: 0xB3FB5, size: 0x8, addend: 0x0, symName: __ZN3std2rt7cleanup17hca9dabeefa21ea70E, symObjAddr: 0x1DC08, symBinAddr: 0x10003A218, symSize: 0x64 }
  - { offset: 0xB3FC9, size: 0x8, addend: 0x0, symName: __ZN3std2rt7cleanup17hca9dabeefa21ea70E, symObjAddr: 0x1DC08, symBinAddr: 0x10003A218, symSize: 0x64 }
  - { offset: 0xB4033, size: 0x8, addend: 0x0, symName: __ZN3std2rt19lang_start_internal17h77891a2543177e4bE, symObjAddr: 0x1DC6C, symBinAddr: 0x10003A27C, symSize: 0x828 }
  - { offset: 0xB503F, size: 0x8, addend: 0x0, symName: '__ZN64_$LT$std..panic..PanicHookInfo$u20$as$u20$core..fmt..Display$GT$3fmt17hf0d2e800c1362170E', symObjAddr: 0x2F510, symBinAddr: 0x10004B714, symSize: 0x164 }
  - { offset: 0xB5281, size: 0x8, addend: 0x0, symName: __ZN3std5panic13resume_unwind17hece3c171b14e6084E, symObjAddr: 0x2F674, symBinAddr: 0x10004B878, symSize: 0xC }
  - { offset: 0xB529C, size: 0x8, addend: 0x0, symName: __ZN3std5panic12always_abort17h174cc4501837516aE, symObjAddr: 0x2F680, symBinAddr: 0x10004B884, symSize: 0x20 }
  - { offset: 0xB5322, size: 0x8, addend: 0x0, symName: __ZN3std5panic19set_backtrace_style17h8b74176fce996ae1E, symObjAddr: 0x2F6A0, symBinAddr: 0x10004B8A4, symSize: 0x1C }
  - { offset: 0xB537E, size: 0x8, addend: 0x0, symName: __ZN3std5panic19get_backtrace_style17h1f774776d63cd7d6E, symObjAddr: 0x2F6BC, symBinAddr: 0x10004B8C0, symSize: 0x10C }
  - { offset: 0xB539C, size: 0x8, addend: 0x0, symName: __ZN3std5panic19get_backtrace_style17h1f774776d63cd7d6E, symObjAddr: 0x2F6BC, symBinAddr: 0x10004B8C0, symSize: 0x10C }
  - { offset: 0xB53B1, size: 0x8, addend: 0x0, symName: __ZN3std5panic19get_backtrace_style17h1f774776d63cd7d6E, symObjAddr: 0x2F6BC, symBinAddr: 0x10004B8C0, symSize: 0x10C }
  - { offset: 0xB57E8, size: 0x8, addend: 0x0, symName: __ZN3std4time7Instant3now17h46343cdc613b5f57E, symObjAddr: 0x34DA4, symBinAddr: 0x100050D24, symSize: 0x14 }
  - { offset: 0xB5812, size: 0x8, addend: 0x0, symName: __ZN3std4time7Instant14duration_since17h2f943aa28cf40c72E, symObjAddr: 0x34DB8, symBinAddr: 0x100050D38, symSize: 0x4C }
  - { offset: 0xB587D, size: 0x8, addend: 0x0, symName: __ZN3std4time7Instant22checked_duration_since17h5c73585122e0cca7E, symObjAddr: 0x34E04, symBinAddr: 0x100050D84, symSize: 0x50 }
  - { offset: 0xB58BD, size: 0x8, addend: 0x0, symName: __ZN3std4time7Instant7elapsed17h46cf5dc3e9524e87E, symObjAddr: 0x34E54, symBinAddr: 0x100050DD4, symSize: 0x6C }
  - { offset: 0xB59AF, size: 0x8, addend: 0x0, symName: '__ZN60_$LT$std..time..Instant$u20$as$u20$core..ops..arith..Sub$GT$3sub17ha8fe53a742e184a2E', symObjAddr: 0x35068, symBinAddr: 0x100050FE8, symSize: 0x50 }
  - { offset: 0xB5A36, size: 0x8, addend: 0x0, symName: '__ZN88_$LT$std..time..Instant$u20$as$u20$core..ops..arith..Add$LT$core..time..Duration$GT$$GT$3add17h8a8c7738f7c1be33E', symObjAddr: 0x34EC0, symBinAddr: 0x100050E40, symSize: 0x64 }
  - { offset: 0xB5A4D, size: 0x8, addend: 0x0, symName: '__ZN88_$LT$std..time..Instant$u20$as$u20$core..ops..arith..Add$LT$core..time..Duration$GT$$GT$3add17h8a8c7738f7c1be33E', symObjAddr: 0x34EC0, symBinAddr: 0x100050E40, symSize: 0x64 }
  - { offset: 0xB5A62, size: 0x8, addend: 0x0, symName: '__ZN88_$LT$std..time..Instant$u20$as$u20$core..ops..arith..Add$LT$core..time..Duration$GT$$GT$3add17h8a8c7738f7c1be33E', symObjAddr: 0x34EC0, symBinAddr: 0x100050E40, symSize: 0x64 }
  - { offset: 0xB5A77, size: 0x8, addend: 0x0, symName: '__ZN88_$LT$std..time..Instant$u20$as$u20$core..ops..arith..Add$LT$core..time..Duration$GT$$GT$3add17h8a8c7738f7c1be33E', symObjAddr: 0x34EC0, symBinAddr: 0x100050E40, symSize: 0x64 }
  - { offset: 0xB5A8C, size: 0x8, addend: 0x0, symName: '__ZN88_$LT$std..time..Instant$u20$as$u20$core..ops..arith..Add$LT$core..time..Duration$GT$$GT$3add17h8a8c7738f7c1be33E', symObjAddr: 0x34EC0, symBinAddr: 0x100050E40, symSize: 0x64 }
  - { offset: 0xB5AA0, size: 0x8, addend: 0x0, symName: '__ZN88_$LT$std..time..Instant$u20$as$u20$core..ops..arith..Add$LT$core..time..Duration$GT$$GT$3add17h8a8c7738f7c1be33E', symObjAddr: 0x34EC0, symBinAddr: 0x100050E40, symSize: 0x64 }
  - { offset: 0xB5AB5, size: 0x8, addend: 0x0, symName: '__ZN88_$LT$std..time..Instant$u20$as$u20$core..ops..arith..Add$LT$core..time..Duration$GT$$GT$3add17h8a8c7738f7c1be33E', symObjAddr: 0x34EC0, symBinAddr: 0x100050E40, symSize: 0x64 }
  - { offset: 0xB5B20, size: 0x8, addend: 0x0, symName: '__ZN94_$LT$std..time..Instant$u20$as$u20$core..ops..arith..AddAssign$LT$core..time..Duration$GT$$GT$10add_assign17h9c1ab214357ec28fE', symObjAddr: 0x34F24, symBinAddr: 0x100050EA4, symSize: 0x74 }
  - { offset: 0xB5BF9, size: 0x8, addend: 0x0, symName: '__ZN88_$LT$std..time..Instant$u20$as$u20$core..ops..arith..Sub$LT$core..time..Duration$GT$$GT$3sub17hec0b69f01e755fb2E', symObjAddr: 0x34F98, symBinAddr: 0x100050F18, symSize: 0x5C }
  - { offset: 0xB5C37, size: 0x8, addend: 0x0, symName: '__ZN88_$LT$std..time..Instant$u20$as$u20$core..ops..arith..Sub$LT$core..time..Duration$GT$$GT$3sub17hec0b69f01e755fb2E', symObjAddr: 0x34F98, symBinAddr: 0x100050F18, symSize: 0x5C }
  - { offset: 0xB5C4B, size: 0x8, addend: 0x0, symName: '__ZN88_$LT$std..time..Instant$u20$as$u20$core..ops..arith..Sub$LT$core..time..Duration$GT$$GT$3sub17hec0b69f01e755fb2E', symObjAddr: 0x34F98, symBinAddr: 0x100050F18, symSize: 0x5C }
  - { offset: 0xB5C60, size: 0x8, addend: 0x0, symName: '__ZN88_$LT$std..time..Instant$u20$as$u20$core..ops..arith..Sub$LT$core..time..Duration$GT$$GT$3sub17hec0b69f01e755fb2E', symObjAddr: 0x34F98, symBinAddr: 0x100050F18, symSize: 0x5C }
  - { offset: 0xB5CCB, size: 0x8, addend: 0x0, symName: '__ZN94_$LT$std..time..Instant$u20$as$u20$core..ops..arith..SubAssign$LT$core..time..Duration$GT$$GT$10sub_assign17hb8d9c46f83ec5f0dE', symObjAddr: 0x34FF4, symBinAddr: 0x100050F74, symSize: 0x74 }
  - { offset: 0xB5DA4, size: 0x8, addend: 0x0, symName: '__ZN55_$LT$std..time..Instant$u20$as$u20$core..fmt..Debug$GT$3fmt17h802300a72eb2bbeeE', symObjAddr: 0x350B8, symBinAddr: 0x100051038, symSize: 0x80 }
  - { offset: 0xB5DDB, size: 0x8, addend: 0x0, symName: __ZN3std4time10SystemTime3now17h8856266915829068E, symObjAddr: 0x35138, symBinAddr: 0x1000510B8, symSize: 0x14 }
  - { offset: 0xB5E05, size: 0x8, addend: 0x0, symName: __ZN3std4time10SystemTime14duration_since17h0ea77ff603a0921fE, symObjAddr: 0x3514C, symBinAddr: 0x1000510CC, symSize: 0x50 }
  - { offset: 0xB5E60, size: 0x8, addend: 0x0, symName: __ZN3std4time10SystemTime7elapsed17h171c00e44e3d153dE, symObjAddr: 0x3519C, symBinAddr: 0x10005111C, symSize: 0x68 }
  - { offset: 0xB5EE7, size: 0x8, addend: 0x0, symName: __ZN3std4time10SystemTime11checked_add17h5bf4b576516b9444E, symObjAddr: 0x35204, symBinAddr: 0x100051184, symSize: 0x7C }
  - { offset: 0xB5F79, size: 0x8, addend: 0x0, symName: __ZN3std4time10SystemTime11checked_sub17hb60a751232d07267E, symObjAddr: 0x35280, symBinAddr: 0x100051200, symSize: 0x6C }
  - { offset: 0xB602D, size: 0x8, addend: 0x0, symName: '__ZN91_$LT$std..time..SystemTime$u20$as$u20$core..ops..arith..Add$LT$core..time..Duration$GT$$GT$3add17h9dbb5a953bd5e23dE', symObjAddr: 0x352EC, symBinAddr: 0x10005126C, symSize: 0x64 }
  - { offset: 0xB6044, size: 0x8, addend: 0x0, symName: '__ZN91_$LT$std..time..SystemTime$u20$as$u20$core..ops..arith..Add$LT$core..time..Duration$GT$$GT$3add17h9dbb5a953bd5e23dE', symObjAddr: 0x352EC, symBinAddr: 0x10005126C, symSize: 0x64 }
  - { offset: 0xB6059, size: 0x8, addend: 0x0, symName: '__ZN91_$LT$std..time..SystemTime$u20$as$u20$core..ops..arith..Add$LT$core..time..Duration$GT$$GT$3add17h9dbb5a953bd5e23dE', symObjAddr: 0x352EC, symBinAddr: 0x10005126C, symSize: 0x64 }
  - { offset: 0xB606E, size: 0x8, addend: 0x0, symName: '__ZN91_$LT$std..time..SystemTime$u20$as$u20$core..ops..arith..Add$LT$core..time..Duration$GT$$GT$3add17h9dbb5a953bd5e23dE', symObjAddr: 0x352EC, symBinAddr: 0x10005126C, symSize: 0x64 }
  - { offset: 0xB6082, size: 0x8, addend: 0x0, symName: '__ZN91_$LT$std..time..SystemTime$u20$as$u20$core..ops..arith..Add$LT$core..time..Duration$GT$$GT$3add17h9dbb5a953bd5e23dE', symObjAddr: 0x352EC, symBinAddr: 0x10005126C, symSize: 0x64 }
  - { offset: 0xB6096, size: 0x8, addend: 0x0, symName: '__ZN91_$LT$std..time..SystemTime$u20$as$u20$core..ops..arith..Add$LT$core..time..Duration$GT$$GT$3add17h9dbb5a953bd5e23dE', symObjAddr: 0x352EC, symBinAddr: 0x10005126C, symSize: 0x64 }
  - { offset: 0xB60AB, size: 0x8, addend: 0x0, symName: '__ZN91_$LT$std..time..SystemTime$u20$as$u20$core..ops..arith..Add$LT$core..time..Duration$GT$$GT$3add17h9dbb5a953bd5e23dE', symObjAddr: 0x352EC, symBinAddr: 0x10005126C, symSize: 0x64 }
  - { offset: 0xB6116, size: 0x8, addend: 0x0, symName: '__ZN97_$LT$std..time..SystemTime$u20$as$u20$core..ops..arith..AddAssign$LT$core..time..Duration$GT$$GT$10add_assign17hddaba8bc6bdf9addE', symObjAddr: 0x35350, symBinAddr: 0x1000512D0, symSize: 0x74 }
  - { offset: 0xB61EE, size: 0x8, addend: 0x0, symName: '__ZN91_$LT$std..time..SystemTime$u20$as$u20$core..ops..arith..Sub$LT$core..time..Duration$GT$$GT$3sub17h1cdd89bd6836f5c1E', symObjAddr: 0x353C4, symBinAddr: 0x100051344, symSize: 0x5C }
  - { offset: 0xB622B, size: 0x8, addend: 0x0, symName: '__ZN91_$LT$std..time..SystemTime$u20$as$u20$core..ops..arith..Sub$LT$core..time..Duration$GT$$GT$3sub17h1cdd89bd6836f5c1E', symObjAddr: 0x353C4, symBinAddr: 0x100051344, symSize: 0x5C }
  - { offset: 0xB623F, size: 0x8, addend: 0x0, symName: '__ZN91_$LT$std..time..SystemTime$u20$as$u20$core..ops..arith..Sub$LT$core..time..Duration$GT$$GT$3sub17h1cdd89bd6836f5c1E', symObjAddr: 0x353C4, symBinAddr: 0x100051344, symSize: 0x5C }
  - { offset: 0xB6254, size: 0x8, addend: 0x0, symName: '__ZN91_$LT$std..time..SystemTime$u20$as$u20$core..ops..arith..Sub$LT$core..time..Duration$GT$$GT$3sub17h1cdd89bd6836f5c1E', symObjAddr: 0x353C4, symBinAddr: 0x100051344, symSize: 0x5C }
  - { offset: 0xB62BF, size: 0x8, addend: 0x0, symName: '__ZN97_$LT$std..time..SystemTime$u20$as$u20$core..ops..arith..SubAssign$LT$core..time..Duration$GT$$GT$10sub_assign17h3149ddac09cd246bE', symObjAddr: 0x35420, symBinAddr: 0x1000513A0, symSize: 0x74 }
  - { offset: 0xB6397, size: 0x8, addend: 0x0, symName: '__ZN58_$LT$std..time..SystemTime$u20$as$u20$core..fmt..Debug$GT$3fmt17h3ddbed0c10c0085cE', symObjAddr: 0x35494, symBinAddr: 0x100051414, symSize: 0x80 }
  - { offset: 0xB63CE, size: 0x8, addend: 0x0, symName: '__ZN65_$LT$std..time..SystemTimeError$u20$as$u20$core..fmt..Display$GT$3fmt17h8ada7ffbd3d0f2c9E', symObjAddr: 0x35514, symBinAddr: 0x100051494, symSize: 0x24 }
  - { offset: 0xB642E, size: 0x8, addend: 0x0, symName: __ZN3std3env11current_dir17h172f4dc23441f9daE, symObjAddr: 0x20428, symBinAddr: 0x10003C844, symSize: 0x1C0 }
  - { offset: 0xB67CC, size: 0x8, addend: 0x0, symName: __ZN3std3env4vars17h88a15c677eaabb89E, symObjAddr: 0x205E8, symBinAddr: 0x10003CA04, symSize: 0x10 }
  - { offset: 0xB67E6, size: 0x8, addend: 0x0, symName: __ZN3std3env7vars_os17hecf805c3900c0abcE, symObjAddr: 0x205F8, symBinAddr: 0x10003CA14, symSize: 0x2D8 }
  - { offset: 0xB6E88, size: 0x8, addend: 0x0, symName: '__ZN75_$LT$std..env..VarsOs$u20$as$u20$core..iter..traits..iterator..Iterator$GT$4next17h93913b322dc90427E', symObjAddr: 0x20B4C, symBinAddr: 0x10003CF68, symSize: 0x48 }
  - { offset: 0xB6F0A, size: 0x8, addend: 0x0, symName: '__ZN75_$LT$std..env..VarsOs$u20$as$u20$core..iter..traits..iterator..Iterator$GT$9size_hint17h6d6cd50624e06536E', symObjAddr: 0x20B94, symBinAddr: 0x10003CFB0, symSize: 0x38 }
  - { offset: 0xB6F8D, size: 0x8, addend: 0x0, symName: '__ZN73_$LT$std..env..Vars$u20$as$u20$core..iter..traits..iterator..Iterator$GT$4next17h94c6974832fd39f2E', symObjAddr: 0x208D0, symBinAddr: 0x10003CCEC, symSize: 0x1C0 }
  - { offset: 0xB7480, size: 0x8, addend: 0x0, symName: '__ZN73_$LT$std..env..Vars$u20$as$u20$core..iter..traits..iterator..Iterator$GT$9size_hint17h0b52722b9e50904fE', symObjAddr: 0x20A90, symBinAddr: 0x10003CEAC, symSize: 0x38 }
  - { offset: 0xB750B, size: 0x8, addend: 0x0, symName: '__ZN51_$LT$std..env..Vars$u20$as$u20$core..fmt..Debug$GT$3fmt17hd152c168b5085782E', symObjAddr: 0x20AC8, symBinAddr: 0x10003CEE4, symSize: 0x84 }
  - { offset: 0xB75AB, size: 0x8, addend: 0x0, symName: '__ZN53_$LT$std..env..VarsOs$u20$as$u20$core..fmt..Debug$GT$3fmt17h21e555d39106b009E', symObjAddr: 0x20BCC, symBinAddr: 0x10003CFE8, symSize: 0x64 }
  - { offset: 0xB75C6, size: 0x8, addend: 0x0, symName: __ZN3std3env4_var17h961b7457640dfa72E, symObjAddr: 0x20C30, symBinAddr: 0x10003D04C, symSize: 0xA8 }
  - { offset: 0xB76C2, size: 0x8, addend: 0x0, symName: __ZN3std3env7_var_os17h0a415fbacbc640bdE, symObjAddr: 0x20CD8, symBinAddr: 0x10003D0F4, symSize: 0x160 }
  - { offset: 0xB7948, size: 0x8, addend: 0x0, symName: '__ZN57_$LT$std..env..VarError$u20$as$u20$core..fmt..Display$GT$3fmt17hce672328f93a2e98E', symObjAddr: 0x20E38, symBinAddr: 0x10003D254, symSize: 0x78 }
  - { offset: 0xB79A2, size: 0x8, addend: 0x0, symName: '__ZN79_$LT$std..env..SplitPaths$u20$as$u20$core..iter..traits..iterator..Iterator$GT$4next17h57707b7d8289b21aE', symObjAddr: 0x20EB0, symBinAddr: 0x10003D2CC, symSize: 0xA8 }
  - { offset: 0xB7AF4, size: 0x8, addend: 0x0, symName: '__ZN57_$LT$std..env..SplitPaths$u20$as$u20$core..fmt..Debug$GT$3fmt17hfa73beb9cf93abf2E', symObjAddr: 0x20F58, symBinAddr: 0x10003D374, symSize: 0x38 }
  - { offset: 0xB7B15, size: 0x8, addend: 0x0, symName: '__ZN63_$LT$std..env..JoinPathsError$u20$as$u20$core..fmt..Display$GT$3fmt17h00ecbab8c6ccb60eE', symObjAddr: 0x20F90, symBinAddr: 0x10003D3AC, symSize: 0x5C }
  - { offset: 0xB7B93, size: 0x8, addend: 0x0, symName: __ZN3std3env8home_dir17hcd028fdcc81c5cbcE, symObjAddr: 0x20FEC, symBinAddr: 0x10003D408, symSize: 0x19C }
  - { offset: 0xB7F62, size: 0x8, addend: 0x0, symName: __ZN3std3env8temp_dir17h29958e54580b16c3E, symObjAddr: 0x21188, symBinAddr: 0x10003D5A4, symSize: 0x98 }
  - { offset: 0xB80E8, size: 0x8, addend: 0x0, symName: __ZN3std3env11current_exe17he79cce10a5159b7dE, symObjAddr: 0x21220, symBinAddr: 0x10003D63C, symSize: 0xD4 }
  - { offset: 0xB82CD, size: 0x8, addend: 0x0, symName: __ZN3std3env4args17h271a3d093b5db279E, symObjAddr: 0x212F4, symBinAddr: 0x10003D710, symSize: 0x10 }
  - { offset: 0xB82E8, size: 0x8, addend: 0x0, symName: __ZN3std3env7args_os17hc2de09d0c51d55aeE, symObjAddr: 0x21304, symBinAddr: 0x10003D720, symSize: 0x1E8 }
  - { offset: 0xB879E, size: 0x8, addend: 0x0, symName: '__ZN75_$LT$std..env..ArgsOs$u20$as$u20$core..iter..traits..iterator..Iterator$GT$4next17had9755dd281c065bE', symObjAddr: 0x217A0, symBinAddr: 0x10003DBBC, symSize: 0x48 }
  - { offset: 0xB8820, size: 0x8, addend: 0x0, symName: '__ZN75_$LT$std..env..ArgsOs$u20$as$u20$core..iter..traits..iterator..Iterator$GT$9size_hint17hd52323d7f345a897E', symObjAddr: 0x217E8, symBinAddr: 0x10003DC04, symSize: 0x38 }
  - { offset: 0xB88A4, size: 0x8, addend: 0x0, symName: '__ZN73_$LT$std..env..Args$u20$as$u20$core..iter..traits..iterator..Iterator$GT$4next17h2f9ba91fefb5cca9E', symObjAddr: 0x214EC, symBinAddr: 0x10003D908, symSize: 0xE8 }
  - { offset: 0xB8AE1, size: 0x8, addend: 0x0, symName: '__ZN73_$LT$std..env..Args$u20$as$u20$core..iter..traits..iterator..Iterator$GT$9size_hint17h2efa74948bde361cE', symObjAddr: 0x215D4, symBinAddr: 0x10003D9F0, symSize: 0x38 }
  - { offset: 0xB8B8A, size: 0x8, addend: 0x0, symName: '__ZN86_$LT$std..env..ArgsOs$u20$as$u20$core..iter..traits..exact_size..ExactSizeIterator$GT$3len17h9c0aef9eb51040dbE', symObjAddr: 0x21820, symBinAddr: 0x10003DC3C, symSize: 0x2C }
  - { offset: 0xB8C09, size: 0x8, addend: 0x0, symName: '__ZN86_$LT$std..env..ArgsOs$u20$as$u20$core..iter..traits..exact_size..ExactSizeIterator$GT$8is_empty17hca6a855fa61d42bdE', symObjAddr: 0x2184C, symBinAddr: 0x10003DC68, symSize: 0x20 }
  - { offset: 0xB8C4E, size: 0x8, addend: 0x0, symName: '__ZN84_$LT$std..env..Args$u20$as$u20$core..iter..traits..exact_size..ExactSizeIterator$GT$3len17h08461ef13c89031eE', symObjAddr: 0x2160C, symBinAddr: 0x10003DA28, symSize: 0x2C }
  - { offset: 0xB8CEA, size: 0x8, addend: 0x0, symName: '__ZN84_$LT$std..env..Args$u20$as$u20$core..iter..traits..exact_size..ExactSizeIterator$GT$8is_empty17h9d1be49f9fb3c880E', symObjAddr: 0x21638, symBinAddr: 0x10003DA54, symSize: 0x20 }
  - { offset: 0xB8D5A, size: 0x8, addend: 0x0, symName: '__ZN90_$LT$std..env..ArgsOs$u20$as$u20$core..iter..traits..double_ended..DoubleEndedIterator$GT$9next_back17hedbcd9204171f206E', symObjAddr: 0x2186C, symBinAddr: 0x10003DC88, symSize: 0x48 }
  - { offset: 0xB8DE3, size: 0x8, addend: 0x0, symName: '__ZN88_$LT$std..env..Args$u20$as$u20$core..iter..traits..double_ended..DoubleEndedIterator$GT$9next_back17h6e8e28899c103c24E', symObjAddr: 0x21658, symBinAddr: 0x10003DA74, symSize: 0xE4 }
  - { offset: 0xB8FFE, size: 0x8, addend: 0x0, symName: '__ZN51_$LT$std..env..Args$u20$as$u20$core..fmt..Debug$GT$3fmt17h058beb73c0e6392fE', symObjAddr: 0x2173C, symBinAddr: 0x10003DB58, symSize: 0x64 }
  - { offset: 0xB901F, size: 0x8, addend: 0x0, symName: '__ZN53_$LT$std..env..ArgsOs$u20$as$u20$core..fmt..Debug$GT$3fmt17ha79aebcee10d6df3E', symObjAddr: 0x218B4, symBinAddr: 0x10003DCD0, symSize: 0x64 }
  - { offset: 0xB90A8, size: 0x8, addend: 0x0, symName: __ZN3std2fs11OpenOptions5_open17hbf356a9c8f4ab619E, symObjAddr: 0x22E44, symBinAddr: 0x10003F260, symSize: 0x244 }
  - { offset: 0xB9282, size: 0x8, addend: 0x0, symName: __ZN3std2fs4File8sync_all17hb0626fd75d38c73eE, symObjAddr: 0x2228C, symBinAddr: 0x10003E6A8, symSize: 0x58 }
  - { offset: 0xB9361, size: 0x8, addend: 0x0, symName: __ZN3std2fs4File7set_len17hf7339bc31eb76667E, symObjAddr: 0x222E4, symBinAddr: 0x10003E700, symSize: 0x78 }
  - { offset: 0xB9480, size: 0x8, addend: 0x0, symName: __ZN3std2fs4File8metadata17hdf79d0f35e8f44efE, symObjAddr: 0x2235C, symBinAddr: 0x10003E778, symSize: 0xAC }
  - { offset: 0xB956C, size: 0x8, addend: 0x0, symName: __ZN3std2fs4File9try_clone17h8cd06fd55ebc7f55E, symObjAddr: 0x22408, symBinAddr: 0x10003E824, symSize: 0x88 }
  - { offset: 0xB9652, size: 0x8, addend: 0x0, symName: __ZN3std2fs4File15set_permissions17h3c1f41405b3de318E, symObjAddr: 0x22490, symBinAddr: 0x10003E8AC, symSize: 0x64 }
  - { offset: 0xB9714, size: 0x8, addend: 0x0, symName: __ZN3std2fs4File9set_times17h594318b9903ebaefE, symObjAddr: 0x224F4, symBinAddr: 0x10003E910, symSize: 0xF0 }
  - { offset: 0xB988C, size: 0x8, addend: 0x0, symName: __ZN3std2fs4read5inner17h4e43e71abe147b85E, symObjAddr: 0x21DBC, symBinAddr: 0x10003E1D8, symSize: 0x1A0 }
  - { offset: 0xB9CCD, size: 0x8, addend: 0x0, symName: __ZN3std2fs14read_to_string5inner17hf3e639778e0bc884E, symObjAddr: 0x21F5C, symBinAddr: 0x10003E378, symSize: 0x20C }
  - { offset: 0xBA2F1, size: 0x8, addend: 0x0, symName: '__ZN52_$LT$$RF$std..fs..File$u20$as$u20$std..io..Write$GT$5write17hc2f22005a6470967E', symObjAddr: 0x2289C, symBinAddr: 0x10003ECB8, symSize: 0x50 }
  - { offset: 0xBA3DF, size: 0x8, addend: 0x0, symName: '__ZN52_$LT$$RF$std..fs..File$u20$as$u20$std..io..Write$GT$14write_vectored17h8b27c3bb3c78b37cE', symObjAddr: 0x228EC, symBinAddr: 0x10003ED08, symSize: 0x50 }
  - { offset: 0xBA4EF, size: 0x8, addend: 0x0, symName: '__ZN48_$LT$std..fs..File$u20$as$u20$std..io..Write$GT$5write17hc373434d8b0570e4E', symObjAddr: 0x22AEC, symBinAddr: 0x10003EF08, symSize: 0x4C }
  - { offset: 0xBA5F3, size: 0x8, addend: 0x0, symName: '__ZN48_$LT$std..fs..File$u20$as$u20$std..io..Write$GT$14write_vectored17hfe5660478a96fd02E', symObjAddr: 0x22B38, symBinAddr: 0x10003EF54, symSize: 0x4C }
  - { offset: 0xBA704, size: 0x8, addend: 0x0, symName: __ZN3std2fs5write5inner17hd0dfbcf49c8de780E, symObjAddr: 0x22168, symBinAddr: 0x10003E584, symSize: 0x124 }
  - { offset: 0xBAA00, size: 0x8, addend: 0x0, symName: '__ZN50_$LT$std..fs..File$u20$as$u20$core..fmt..Debug$GT$3fmt17h2b405762200144e6E', symObjAddr: 0x225E4, symBinAddr: 0x10003EA00, symSize: 0x10 }
  - { offset: 0xBAA3D, size: 0x8, addend: 0x0, symName: '__ZN51_$LT$$RF$std..fs..File$u20$as$u20$std..io..Seek$GT$4seek17he6ba1c7c1fcaf53cE', symObjAddr: 0x2293C, symBinAddr: 0x10003ED58, symSize: 0x58 }
  - { offset: 0xBAADA, size: 0x8, addend: 0x0, symName: '__ZN51_$LT$$RF$std..fs..File$u20$as$u20$std..io..Read$GT$11read_to_end17h98ead3b6fa9d05d2E', symObjAddr: 0x225F4, symBinAddr: 0x10003EA10, symSize: 0x140 }
  - { offset: 0xBADDF, size: 0x8, addend: 0x0, symName: '__ZN51_$LT$$RF$std..fs..File$u20$as$u20$std..io..Read$GT$14read_to_string17hf70ed8f32c0de083E', symObjAddr: 0x22734, symBinAddr: 0x10003EB50, symSize: 0x168 }
  - { offset: 0xBB17F, size: 0x8, addend: 0x0, symName: '__ZN47_$LT$std..fs..File$u20$as$u20$std..io..Read$GT$4read17h5d0e9e56eb61d89cE', symObjAddr: 0x22994, symBinAddr: 0x10003EDB0, symSize: 0x4C }
  - { offset: 0xBB2AB, size: 0x8, addend: 0x0, symName: '__ZN47_$LT$std..fs..File$u20$as$u20$std..io..Read$GT$13read_vectored17h22a3cea630082046E', symObjAddr: 0x229E0, symBinAddr: 0x10003EDFC, symSize: 0x4C }
  - { offset: 0xBB3DE, size: 0x8, addend: 0x0, symName: '__ZN47_$LT$std..fs..File$u20$as$u20$std..io..Read$GT$8read_buf17hd0961d4a1843f456E', symObjAddr: 0x22A2C, symBinAddr: 0x10003EE48, symSize: 0x78 }
  - { offset: 0xBB5E4, size: 0x8, addend: 0x0, symName: '__ZN47_$LT$std..fs..File$u20$as$u20$std..io..Read$GT$11read_to_end17h318d03d6ad02929aE', symObjAddr: 0x22AA4, symBinAddr: 0x10003EEC0, symSize: 0x24 }
  - { offset: 0xBB5FF, size: 0x8, addend: 0x0, symName: '__ZN47_$LT$std..fs..File$u20$as$u20$std..io..Read$GT$14read_to_string17h1769572193c966f8E', symObjAddr: 0x22AC8, symBinAddr: 0x10003EEE4, symSize: 0x24 }
  - { offset: 0xBB63C, size: 0x8, addend: 0x0, symName: '__ZN47_$LT$std..fs..File$u20$as$u20$std..io..Seek$GT$4seek17h4368fe7db98b8950E', symObjAddr: 0x22B84, symBinAddr: 0x10003EFA0, symSize: 0x54 }
  - { offset: 0xBB6F6, size: 0x8, addend: 0x0, symName: '__ZN3std2fs81_$LT$impl$u20$std..io..Read$u20$for$u20$alloc..sync..Arc$LT$std..fs..File$GT$$GT$4read17hb07d447ec8668a9cE', symObjAddr: 0x22BD8, symBinAddr: 0x10003EFF4, symSize: 0x50 }
  - { offset: 0xBB86A, size: 0x8, addend: 0x0, symName: '__ZN3std2fs81_$LT$impl$u20$std..io..Read$u20$for$u20$alloc..sync..Arc$LT$std..fs..File$GT$$GT$13read_vectored17h95ee26fe725e8c46E', symObjAddr: 0x22C28, symBinAddr: 0x10003F044, symSize: 0x50 }
  - { offset: 0xBB9DE, size: 0x8, addend: 0x0, symName: '__ZN3std2fs81_$LT$impl$u20$std..io..Read$u20$for$u20$alloc..sync..Arc$LT$std..fs..File$GT$$GT$8read_buf17h76eef20790fd7ae9E', symObjAddr: 0x22C78, symBinAddr: 0x10003F094, symSize: 0x7C }
  - { offset: 0xBBC2C, size: 0x8, addend: 0x0, symName: '__ZN3std2fs81_$LT$impl$u20$std..io..Read$u20$for$u20$alloc..sync..Arc$LT$std..fs..File$GT$$GT$11read_to_end17h7f98d995276ce08aE', symObjAddr: 0x22CF4, symBinAddr: 0x10003F110, symSize: 0x2C }
  - { offset: 0xBBC89, size: 0x8, addend: 0x0, symName: '__ZN3std2fs81_$LT$impl$u20$std..io..Read$u20$for$u20$alloc..sync..Arc$LT$std..fs..File$GT$$GT$14read_to_string17hea621c3ce2bbe2d7E', symObjAddr: 0x22D20, symBinAddr: 0x10003F13C, symSize: 0x2C }
  - { offset: 0xBBCEC, size: 0x8, addend: 0x0, symName: '__ZN3std2fs82_$LT$impl$u20$std..io..Write$u20$for$u20$alloc..sync..Arc$LT$std..fs..File$GT$$GT$5write17hd1669efdbab8584dE', symObjAddr: 0x22D4C, symBinAddr: 0x10003F168, symSize: 0x50 }
  - { offset: 0xBBE38, size: 0x8, addend: 0x0, symName: '__ZN3std2fs82_$LT$impl$u20$std..io..Write$u20$for$u20$alloc..sync..Arc$LT$std..fs..File$GT$$GT$14write_vectored17h4198d18fd61f62abE', symObjAddr: 0x22D9C, symBinAddr: 0x10003F1B8, symSize: 0x50 }
  - { offset: 0xBBF8A, size: 0x8, addend: 0x0, symName: '__ZN3std2fs81_$LT$impl$u20$std..io..Seek$u20$for$u20$alloc..sync..Arc$LT$std..fs..File$GT$$GT$4seek17hd1562351604edea2E', symObjAddr: 0x22DEC, symBinAddr: 0x10003F208, symSize: 0x58 }
  - { offset: 0xBC085, size: 0x8, addend: 0x0, symName: __ZN3std2fs8Metadata8modified17h077d07a31319f6f7E, symObjAddr: 0x23088, symBinAddr: 0x10003F4A4, symSize: 0x70 }
  - { offset: 0xBC0E5, size: 0x8, addend: 0x0, symName: __ZN3std2fs8Metadata8accessed17h5d52d3be5756baf3E, symObjAddr: 0x230F8, symBinAddr: 0x10003F514, symSize: 0x70 }
  - { offset: 0xBC145, size: 0x8, addend: 0x0, symName: __ZN3std2fs8Metadata7created17h9006bf6c428f228dE, symObjAddr: 0x23168, symBinAddr: 0x10003F584, symSize: 0x70 }
  - { offset: 0xBC229, size: 0x8, addend: 0x0, symName: '__ZN54_$LT$std..fs..Metadata$u20$as$u20$core..fmt..Debug$GT$3fmt17h1f630d0f8784f472E', symObjAddr: 0x231D8, symBinAddr: 0x10003F5F4, symSize: 0x1F0 }
  - { offset: 0xBC3B5, size: 0x8, addend: 0x0, symName: '__ZN54_$LT$std..fs..FileType$u20$as$u20$core..fmt..Debug$GT$3fmt17h2d3db1f3b5f8dddeE', symObjAddr: 0x233C8, symBinAddr: 0x10003F7E4, symSize: 0xC4 }
  - { offset: 0xBC4C4, size: 0x8, addend: 0x0, symName: '__ZN75_$LT$std..fs..ReadDir$u20$as$u20$core..iter..traits..iterator..Iterator$GT$4next17hff4a652e9915cafaE', symObjAddr: 0x2348C, symBinAddr: 0x10003F8A8, symSize: 0x84 }
  - { offset: 0xBC51F, size: 0x8, addend: 0x0, symName: __ZN3std2fs8DirEntry4path17h1cd1c2d74de10123E, symObjAddr: 0x23510, symBinAddr: 0x10003F92C, symSize: 0x24 }
  - { offset: 0xBC6D1, size: 0x8, addend: 0x0, symName: __ZN3std2fs8DirEntry8metadata17hef3e9b4f70778ed7E, symObjAddr: 0x23534, symBinAddr: 0x10003F950, symSize: 0x9C }
  - { offset: 0xBC702, size: 0x8, addend: 0x0, symName: __ZN3std2fs8DirEntry9file_type17h33ab1a74729cf95eE, symObjAddr: 0x235D0, symBinAddr: 0x10003F9EC, symSize: 0x88 }
  - { offset: 0xBC748, size: 0x8, addend: 0x0, symName: __ZN3std2fs8DirEntry9file_name17h2cbf807d428bca80E, symObjAddr: 0x23658, symBinAddr: 0x10003FA74, symSize: 0x78 }
  - { offset: 0xBC8C3, size: 0x8, addend: 0x0, symName: '__ZN54_$LT$std..fs..DirEntry$u20$as$u20$core..fmt..Debug$GT$3fmt17h85442611c54700daE', symObjAddr: 0x236D0, symBinAddr: 0x10003FAEC, symSize: 0xB0 }
  - { offset: 0xBCBE6, size: 0x8, addend: 0x0, symName: __ZN3std2fs10DirBuilder7_create17h71b7c5f0e7b715efE, symObjAddr: 0x23780, symBinAddr: 0x10003FB9C, symSize: 0xC8 }
  - { offset: 0xBCD17, size: 0x8, addend: 0x0, symName: __ZN3std2fs10DirBuilder14create_dir_all17h937761d2068da9b1E, symObjAddr: 0x23848, symBinAddr: 0x10003FC64, symSize: 0x48C }
  - { offset: 0xBD4FF, size: 0x8, addend: 0x0, symName: '__ZN57_$LT$std..fs..Permissions$u20$as$u20$core..fmt..Debug$GT$3fmt17heed23be1e8c92bbcE', symObjAddr: 0x398F8, symBinAddr: 0x100055048, symSize: 0x40 }
  - { offset: 0xBD546, size: 0x8, addend: 0x0, symName: '__ZN67_$LT$std..hash..random..RandomState$u20$as$u20$core..fmt..Debug$GT$3fmt17h91a5a5309cde5be7E', symObjAddr: 0x23CD4, symBinAddr: 0x1000400F0, symSize: 0x38 }
  - { offset: 0xBD572, size: 0x8, addend: 0x0, symName: '__ZN3std3net11socket_addr136_$LT$impl$u20$std..sys_common..FromInner$LT$libc..unix..bsd..apple..sockaddr_in$GT$$u20$for$u20$core..net..socket_addr..SocketAddrV4$GT$10from_inner17h003e3f0ae6f8dbe4E', symObjAddr: 0x2B438, symBinAddr: 0x10004763C, symSize: 0x24 }
  - { offset: 0xBD5C4, size: 0x8, addend: 0x0, symName: '__ZN3std3net11socket_addr130_$LT$impl$u20$std..sys_common..FromInner$LT$libc..unix..bsd..sockaddr_in6$GT$$u20$for$u20$core..net..socket_addr..SocketAddrV6$GT$10from_inner17h91dc6b4a77973985E', symObjAddr: 0x2B45C, symBinAddr: 0x100047660, symSize: 0x34 }
  - { offset: 0xBD62A, size: 0x8, addend: 0x0, symName: '__ZN3std3net11socket_addr136_$LT$impl$u20$std..sys_common..IntoInner$LT$libc..unix..bsd..apple..sockaddr_in$GT$$u20$for$u20$core..net..socket_addr..SocketAddrV4$GT$10into_inner17h23d4e9200150dfb6E', symObjAddr: 0x2B490, symBinAddr: 0x100047694, symSize: 0x30 }
  - { offset: 0xBD66D, size: 0x8, addend: 0x0, symName: '__ZN3std3net11socket_addr130_$LT$impl$u20$std..sys_common..IntoInner$LT$libc..unix..bsd..sockaddr_in6$GT$$u20$for$u20$core..net..socket_addr..SocketAddrV6$GT$10into_inner17hc8a1181b4e07b926E', symObjAddr: 0x2B4C0, symBinAddr: 0x1000476C4, symSize: 0x3C }
  - { offset: 0xBD6F5, size: 0x8, addend: 0x0, symName: __ZN3std3net11socket_addr19resolve_socket_addr17h9a9555674d13c5f9E, symObjAddr: 0x2B4FC, symBinAddr: 0x100047700, symSize: 0x34C }
  - { offset: 0xBDCD8, size: 0x8, addend: 0x0, symName: '__ZN78_$LT$$LP$$RF$str$C$u16$RP$$u20$as$u20$std..net..socket_addr..ToSocketAddrs$GT$15to_socket_addrs17hfdbc94b3ea516bcfE', symObjAddr: 0x2B848, symBinAddr: 0x100047A4C, symSize: 0x1C8 }
  - { offset: 0xBDEC4, size: 0x8, addend: 0x0, symName: '__ZN92_$LT$$LP$alloc..string..String$C$u16$RP$$u20$as$u20$std..net..socket_addr..ToSocketAddrs$GT$15to_socket_addrs17h0d43fb0fed1a67d0E', symObjAddr: 0x2BA10, symBinAddr: 0x100047C14, symSize: 0x30 }
  - { offset: 0xBDF7F, size: 0x8, addend: 0x0, symName: '__ZN60_$LT$str$u20$as$u20$std..net..socket_addr..ToSocketAddrs$GT$15to_socket_addrs17hf0bd160f491931eaE', symObjAddr: 0x2BA40, symBinAddr: 0x100047C44, symSize: 0xCC }
  - { offset: 0xBE066, size: 0x8, addend: 0x0, symName: '__ZN78_$LT$alloc..string..String$u20$as$u20$std..net..socket_addr..ToSocketAddrs$GT$15to_socket_addrs17h58cc2efb5968559eE', symObjAddr: 0x2BB0C, symBinAddr: 0x100047D10, symSize: 0x18 }
  - { offset: 0xBE127, size: 0x8, addend: 0x0, symName: __ZN3std3net3tcp9TcpStream15connect_timeout17h56cebff8d195f5beE, symObjAddr: 0x2BB24, symBinAddr: 0x100047D28, symSize: 0x4A4 }
  - { offset: 0xBE845, size: 0x8, addend: 0x0, symName: __ZN3std3net3tcp9TcpStream9peer_addr17h3554b362af58efedE, symObjAddr: 0x2BFC8, symBinAddr: 0x1000481CC, symSize: 0x18 }
  - { offset: 0xBE85F, size: 0x8, addend: 0x0, symName: __ZN3std3net3tcp9TcpStream12read_timeout17h47eed81d4e1a605aE, symObjAddr: 0x2BFE0, symBinAddr: 0x1000481E4, symSize: 0xFC }
  - { offset: 0xBE993, size: 0x8, addend: 0x0, symName: __ZN3std3net3tcp9TcpStream13write_timeout17h464875f35c93936eE, symObjAddr: 0x2C0DC, symBinAddr: 0x1000482E0, symSize: 0xFC }
  - { offset: 0xBEAC7, size: 0x8, addend: 0x0, symName: __ZN3std3net3tcp9TcpStream10set_linger17h8d4bb2e07016545bE, symObjAddr: 0x2C1D8, symBinAddr: 0x1000483DC, symSize: 0x68 }
  - { offset: 0xBEBA5, size: 0x8, addend: 0x0, symName: __ZN3std3net3tcp9TcpStream6linger17hde64c27886eee0bfE, symObjAddr: 0x2C240, symBinAddr: 0x100048444, symSize: 0x88 }
  - { offset: 0xBECB3, size: 0x8, addend: 0x0, symName: __ZN3std3net3tcp9TcpStream11set_nodelay17ha953f4aa049ec1dbE, symObjAddr: 0x2C2C8, symBinAddr: 0x1000484CC, symSize: 0x54 }
  - { offset: 0xBED7C, size: 0x8, addend: 0x0, symName: __ZN3std3net3tcp9TcpStream7nodelay17he351364d1421ea02E, symObjAddr: 0x2C31C, symBinAddr: 0x100048520, symSize: 0x80 }
  - { offset: 0xBEE90, size: 0x8, addend: 0x0, symName: '__ZN58_$LT$std..net..tcp..TcpStream$u20$as$u20$std..io..Read$GT$8read_buf17h766ac60dcf1db9b0E', symObjAddr: 0x2C39C, symBinAddr: 0x1000485A0, symSize: 0x70 }
  - { offset: 0xBF037, size: 0x8, addend: 0x0, symName: '__ZN58_$LT$std..net..tcp..TcpStream$u20$as$u20$std..io..Read$GT$13read_vectored17h236597a050949e2fE', symObjAddr: 0x2C40C, symBinAddr: 0x100048610, symSize: 0x4C }
  - { offset: 0xBF146, size: 0x8, addend: 0x0, symName: '__ZN59_$LT$std..net..tcp..TcpStream$u20$as$u20$std..io..Write$GT$14write_vectored17h99e10923c34ffa0fE', symObjAddr: 0x2C458, symBinAddr: 0x10004865C, symSize: 0x4C }
  - { offset: 0xBF257, size: 0x8, addend: 0x0, symName: '__ZN62_$LT$$RF$std..net..tcp..TcpStream$u20$as$u20$std..io..Read$GT$4read17h40e5c288e39be26cE', symObjAddr: 0x2C4A4, symBinAddr: 0x1000486A8, symSize: 0x48 }
  - { offset: 0xBF321, size: 0x8, addend: 0x0, symName: '__ZN62_$LT$$RF$std..net..tcp..TcpStream$u20$as$u20$std..io..Read$GT$8read_buf17h17607437e663d4f8E', symObjAddr: 0x2C4EC, symBinAddr: 0x1000486F0, symSize: 0x74 }
  - { offset: 0xBF4C8, size: 0x8, addend: 0x0, symName: '__ZN62_$LT$$RF$std..net..tcp..TcpStream$u20$as$u20$std..io..Read$GT$13read_vectored17h3a94ce9bd9fdc4b2E', symObjAddr: 0x2C560, symBinAddr: 0x100048764, symSize: 0x50 }
  - { offset: 0xBF5D7, size: 0x8, addend: 0x0, symName: '__ZN63_$LT$$RF$std..net..tcp..TcpStream$u20$as$u20$std..io..Write$GT$5write17h36cb2328d4cbca5bE', symObjAddr: 0x2C5B0, symBinAddr: 0x1000487B4, symSize: 0x48 }
  - { offset: 0xBF67B, size: 0x8, addend: 0x0, symName: '__ZN61_$LT$std..net..tcp..TcpStream$u20$as$u20$core..fmt..Debug$GT$3fmt17h882800acb938acc0E', symObjAddr: 0x2C5F8, symBinAddr: 0x1000487FC, symSize: 0x10 }
  - { offset: 0xBF69C, size: 0x8, addend: 0x0, symName: __ZN3std3net3tcp11TcpListener10local_addr17h32788fbd32115766E, symObjAddr: 0x2C608, symBinAddr: 0x10004880C, symSize: 0x18 }
  - { offset: 0xBF6B7, size: 0x8, addend: 0x0, symName: __ZN3std3net3tcp11TcpListener9try_clone17hed07ed956993125eE, symObjAddr: 0x2C620, symBinAddr: 0x100048824, symSize: 0x88 }
  - { offset: 0xBF7A4, size: 0x8, addend: 0x0, symName: __ZN3std3net3tcp11TcpListener6accept17h904a7fbefd61a2dcE, symObjAddr: 0x2C6A8, symBinAddr: 0x1000488AC, symSize: 0x1A4 }
  - { offset: 0xBFA9E, size: 0x8, addend: 0x0, symName: __ZN3std3net3tcp11TcpListener7set_ttl17hcf505fb70a882ba9E, symObjAddr: 0x2C84C, symBinAddr: 0x100048A50, symSize: 0x54 }
  - { offset: 0xBFB51, size: 0x8, addend: 0x0, symName: __ZN3std3net3tcp11TcpListener3ttl17ha5ad9ef88b80d615E, symObjAddr: 0x2C8A0, symBinAddr: 0x100048AA4, symSize: 0x78 }
  - { offset: 0xBFC49, size: 0x8, addend: 0x0, symName: __ZN3std3net3tcp11TcpListener11set_only_v617hcb7077528c321634E, symObjAddr: 0x2C918, symBinAddr: 0x100048B1C, symSize: 0x54 }
  - { offset: 0xBFCFC, size: 0x8, addend: 0x0, symName: __ZN3std3net3tcp11TcpListener7only_v617h943e319b29fef5f0E, symObjAddr: 0x2C96C, symBinAddr: 0x100048B70, symSize: 0x80 }
  - { offset: 0xBFDFA, size: 0x8, addend: 0x0, symName: '__ZN82_$LT$std..net..tcp..Incoming$u20$as$u20$core..iter..traits..iterator..Iterator$GT$4next17h297267faa2bbedfdE', symObjAddr: 0x2C9EC, symBinAddr: 0x100048BF0, symSize: 0x40 }
  - { offset: 0xBFE31, size: 0x8, addend: 0x0, symName: '__ZN86_$LT$std..net..tcp..IntoIncoming$u20$as$u20$core..iter..traits..iterator..Iterator$GT$4next17he792dfa44655d055E', symObjAddr: 0x2CA2C, symBinAddr: 0x100048C30, symSize: 0x3C }
  - { offset: 0xBFE68, size: 0x8, addend: 0x0, symName: '__ZN63_$LT$std..net..tcp..TcpListener$u20$as$u20$core..fmt..Debug$GT$3fmt17hba948c462b1a5fb1E', symObjAddr: 0x2CA68, symBinAddr: 0x100048C6C, symSize: 0x10 }
  - { offset: 0xBFE8F, size: 0x8, addend: 0x0, symName: __ZN3std3net3udp9UdpSocket9recv_from17h0059481cfc91b9ccE, symObjAddr: 0x2CA78, symBinAddr: 0x100048C7C, symSize: 0x24 }
  - { offset: 0xBFED4, size: 0x8, addend: 0x0, symName: __ZN3std3net3udp9UdpSocket9peek_from17he5fb53a0f5cdee11E, symObjAddr: 0x2CA9C, symBinAddr: 0x100048CA0, symSize: 0x24 }
  - { offset: 0xBFF19, size: 0x8, addend: 0x0, symName: __ZN3std3net3udp9UdpSocket9peer_addr17hc89c2537828f1eaeE, symObjAddr: 0x2CAC0, symBinAddr: 0x100048CC4, symSize: 0x144 }
  - { offset: 0xC00BB, size: 0x8, addend: 0x0, symName: __ZN3std3net3udp9UdpSocket13set_broadcast17h489126a6bfe688bbE, symObjAddr: 0x2CC04, symBinAddr: 0x100048E08, symSize: 0x54 }
  - { offset: 0xC016E, size: 0x8, addend: 0x0, symName: __ZN3std3net3udp9UdpSocket9broadcast17h015edf61ef0da8ecE, symObjAddr: 0x2CC58, symBinAddr: 0x100048E5C, symSize: 0x80 }
  - { offset: 0xC0266, size: 0x8, addend: 0x0, symName: __ZN3std3net3udp9UdpSocket21set_multicast_loop_v417hc1339304ef2cd55cE, symObjAddr: 0x2CCD8, symBinAddr: 0x100048EDC, symSize: 0x54 }
  - { offset: 0xC0319, size: 0x8, addend: 0x0, symName: __ZN3std3net3udp9UdpSocket17multicast_loop_v417h74ee925e6fa1c2beE, symObjAddr: 0x2CD2C, symBinAddr: 0x100048F30, symSize: 0x80 }
  - { offset: 0xC0411, size: 0x8, addend: 0x0, symName: __ZN3std3net3udp9UdpSocket20set_multicast_ttl_v417he0b1503783031abeE, symObjAddr: 0x2CDAC, symBinAddr: 0x100048FB0, symSize: 0x54 }
  - { offset: 0xC04C4, size: 0x8, addend: 0x0, symName: __ZN3std3net3udp9UdpSocket16multicast_ttl_v417h8073843847bd4943E, symObjAddr: 0x2CE00, symBinAddr: 0x100049004, symSize: 0x78 }
  - { offset: 0xC05BC, size: 0x8, addend: 0x0, symName: __ZN3std3net3udp9UdpSocket21set_multicast_loop_v617h731a02aeafff8655E, symObjAddr: 0x2CE78, symBinAddr: 0x10004907C, symSize: 0x54 }
  - { offset: 0xC066F, size: 0x8, addend: 0x0, symName: __ZN3std3net3udp9UdpSocket17multicast_loop_v617h57a6c540d6afe3f6E, symObjAddr: 0x2CECC, symBinAddr: 0x1000490D0, symSize: 0x80 }
  - { offset: 0xC0767, size: 0x8, addend: 0x0, symName: __ZN3std3net3udp9UdpSocket17join_multicast_v417h84934bb976abd11bE, symObjAddr: 0x2CF4C, symBinAddr: 0x100049150, symSize: 0x60 }
  - { offset: 0xC081A, size: 0x8, addend: 0x0, symName: __ZN3std3net3udp9UdpSocket17join_multicast_v617he023a6e92232f9f2E, symObjAddr: 0x2CFAC, symBinAddr: 0x1000491B0, symSize: 0x5C }
  - { offset: 0xC08E2, size: 0x8, addend: 0x0, symName: __ZN3std3net3udp9UdpSocket18leave_multicast_v417h8749c6e8b8fd2e24E, symObjAddr: 0x2D008, symBinAddr: 0x10004920C, symSize: 0x60 }
  - { offset: 0xC0995, size: 0x8, addend: 0x0, symName: __ZN3std3net3udp9UdpSocket18leave_multicast_v617h529b2e09fbad0784E, symObjAddr: 0x2D068, symBinAddr: 0x10004926C, symSize: 0x5C }
  - { offset: 0xC0A5D, size: 0x8, addend: 0x0, symName: __ZN3std3net3udp9UdpSocket4send17hd98e667ffbd7cf05E, symObjAddr: 0x2D0C4, symBinAddr: 0x1000492C8, symSize: 0x44 }
  - { offset: 0xC0B01, size: 0x8, addend: 0x0, symName: '__ZN61_$LT$std..net..udp..UdpSocket$u20$as$u20$core..fmt..Debug$GT$3fmt17hcd93dc31a8e62239E', symObjAddr: 0x2D108, symBinAddr: 0x10004930C, symSize: 0x10 }
  - { offset: 0xC0B61, size: 0x8, addend: 0x0, symName: '__ZN91_$LT$std..sys_common..net..LookupHost$u20$as$u20$core..iter..traits..iterator..Iterator$GT$4next17hf9d375d99b4c6195E', symObjAddr: 0x44470, symBinAddr: 0x10005F118, symSize: 0xFC }
  - { offset: 0xC0C3A, size: 0x8, addend: 0x0, symName: '__ZN74_$LT$std..sys_common..net..LookupHost$u20$as$u20$core..ops..drop..Drop$GT$4drop17h6ba72149274629bfE', symObjAddr: 0x4456C, symBinAddr: 0x10005F214, symSize: 0x14 }
  - { offset: 0xC0C61, size: 0x8, addend: 0x0, symName: '__ZN104_$LT$std..sys_common..net..LookupHost$u20$as$u20$core..convert..TryFrom$LT$$LP$$RF$str$C$u16$RP$$GT$$GT$8try_from17h501889bd65b56b4cE', symObjAddr: 0x446B8, symBinAddr: 0x10005F360, symSize: 0xB8 }
  - { offset: 0xC0CE6, size: 0x8, addend: 0x0, symName: '__ZN104_$LT$std..sys_common..net..LookupHost$u20$as$u20$core..convert..TryFrom$LT$$LP$$RF$str$C$u16$RP$$GT$$GT$8try_from28_$u7b$$u7b$closure$u7d$$u7d$17h0f122c5a413449d4E', symObjAddr: 0x44770, symBinAddr: 0x10005F418, symSize: 0x1A8 }
  - { offset: 0xC11CB, size: 0x8, addend: 0x0, symName: __ZN3std10sys_common3net9TcpStream7connect17h6eb84a585df2e089E, symObjAddr: 0x44918, symBinAddr: 0x10005F5C0, symSize: 0x12C }
  - { offset: 0xC130C, size: 0x8, addend: 0x0, symName: __ZN3std10sys_common3net9TcpStream9peer_addr17h8df7a49454ae10f2E, symObjAddr: 0x44A44, symBinAddr: 0x10005F6EC, symSize: 0x148 }
  - { offset: 0xC14B6, size: 0x8, addend: 0x0, symName: '__ZN3std10sys_common3net154_$LT$impl$u20$std..sys_common..IntoInner$LT$$LP$std..sys_common..net..SocketAddrCRepr$C$u32$RP$$GT$$u20$for$u20$$RF$core..net..socket_addr..SocketAddr$GT$10into_inner17hd4fe49cd365cd086E', symObjAddr: 0x454D4, symBinAddr: 0x10006017C, symSize: 0x70 }
  - { offset: 0xC15E6, size: 0x8, addend: 0x0, symName: __ZN3std10sys_common3net11TcpListener4bind17h2453d42d646cd608E, symObjAddr: 0x44D68, symBinAddr: 0x10005FA10, symSize: 0x14C }
  - { offset: 0xC1738, size: 0x8, addend: 0x0, symName: __ZN3std10sys_common3net11TcpListener11socket_addr17h14638d8b1d7a7971E, symObjAddr: 0x44EB4, symBinAddr: 0x10005FB5C, symSize: 0x148 }
  - { offset: 0xC19B4, size: 0x8, addend: 0x0, symName: __ZN3std10sys_common3net9UdpSocket4bind17h6068654714603269E, symObjAddr: 0x45130, symBinAddr: 0x10005FDD8, symSize: 0x10C }
  - { offset: 0xC1B2B, size: 0x8, addend: 0x0, symName: __ZN3std10sys_common3net9UdpSocket7send_to17h1b7390032ead3c9bE, symObjAddr: 0x4523C, symBinAddr: 0x10005FEE4, symSize: 0xA0 }
  - { offset: 0xC1B49, size: 0x8, addend: 0x0, symName: __ZN3std10sys_common3net9UdpSocket7send_to17h1b7390032ead3c9bE, symObjAddr: 0x4523C, symBinAddr: 0x10005FEE4, symSize: 0xA0 }
  - { offset: 0xC1C17, size: 0x8, addend: 0x0, symName: __ZN3std10sys_common3net9UdpSocket7connect17h637cead969752c50E, symObjAddr: 0x452DC, symBinAddr: 0x10005FF84, symSize: 0xC4 }
  - { offset: 0xC1D5C, size: 0x8, addend: 0x0, symName: '__ZN90_$LT$std..sys_common..net..LookupHost$u20$as$u20$core..convert..TryFrom$LT$$RF$str$GT$$GT$8try_from17h1d942cf275b45e2aE', symObjAddr: 0x44580, symBinAddr: 0x10005F228, symSize: 0x138 }
  - { offset: 0xC1F9F, size: 0x8, addend: 0x0, symName: '__ZN68_$LT$std..sys_common..net..TcpStream$u20$as$u20$core..fmt..Debug$GT$3fmt17h88389b51e1cdbcd7E', symObjAddr: 0x44B8C, symBinAddr: 0x10005F834, symSize: 0x1DC }
  - { offset: 0xC2477, size: 0x8, addend: 0x0, symName: '__ZN70_$LT$std..sys_common..net..TcpListener$u20$as$u20$core..fmt..Debug$GT$3fmt17h7138f0ac777acd2bE', symObjAddr: 0x44FFC, symBinAddr: 0x10005FCA4, symSize: 0x134 }
  - { offset: 0xC26CB, size: 0x8, addend: 0x0, symName: '__ZN68_$LT$std..sys_common..net..UdpSocket$u20$as$u20$core..fmt..Debug$GT$3fmt17h20bcab4f019262a9E', symObjAddr: 0x453A0, symBinAddr: 0x100060048, symSize: 0x134 }
  - { offset: 0xC293F, size: 0x8, addend: 0x0, symName: __ZN3std10sys_common7process10CommandEnv3set17h5126219c81a5a726E, symObjAddr: 0x369C8, symBinAddr: 0x100052198, symSize: 0x198 }
  - { offset: 0xC2DFF, size: 0x8, addend: 0x0, symName: __ZN3std10sys_common7process10CommandEnv6remove17h87bd0cfcb067b06aE, symObjAddr: 0x36B60, symBinAddr: 0x100052330, symSize: 0x3AC }
  - { offset: 0xC39B5, size: 0x8, addend: 0x0, symName: '__ZN73_$LT$std..sys_common..process..CommandEnv$u20$as$u20$core..fmt..Debug$GT$3fmt17h08fd758fa16d024dE', symObjAddr: 0x36944, symBinAddr: 0x100052114, symSize: 0x84 }
  - { offset: 0xC39E8, size: 0x8, addend: 0x0, symName: '__ZN96_$LT$std..sys_common..process..CommandEnvs$u20$as$u20$core..iter..traits..iterator..Iterator$GT$4next17h71912663947a1fd4E', symObjAddr: 0x36F0C, symBinAddr: 0x1000526DC, symSize: 0x50 }
  - { offset: 0xC3A66, size: 0x8, addend: 0x0, symName: __ZN3std10sys_common2fs6exists17hf4237e3163747761E, symObjAddr: 0x3671C, symBinAddr: 0x100051EEC, symSize: 0x228 }
  - { offset: 0xC3DFF, size: 0x8, addend: 0x0, symName: '__ZN91_$LT$std..sys_common..wstr..WStrUnits$u20$as$u20$core..iter..traits..iterator..Iterator$GT$4next17hf19677f74ce2bd2fE', symObjAddr: 0x36F5C, symBinAddr: 0x10005272C, symSize: 0x28 }
  - { offset: 0xC3E6F, size: 0x8, addend: 0x0, symName: __ZN3std10sys_common4wtf87Wtf8Buf25push_code_point_unchecked17he5117008cc7b5216E, symObjAddr: 0x36F9C, symBinAddr: 0x10005276C, symSize: 0x124 }
  - { offset: 0xC3FDB, size: 0x8, addend: 0x0, symName: '__ZN74_$LT$std..sys_common..wtf8..Wtf8Buf$u20$as$u20$core..ops..deref..Deref$GT$5deref17h5545f02803c8f80cE', symObjAddr: 0x36F84, symBinAddr: 0x100052754, symSize: 0x18 }
  - { offset: 0xC40B5, size: 0x8, addend: 0x0, symName: '__ZN64_$LT$std..sys_common..wtf8..Wtf8$u20$as$u20$core..fmt..Debug$GT$3fmt17h01c62b181c72b5cdE', symObjAddr: 0x370C0, symBinAddr: 0x100052890, symSize: 0x21C }
  - { offset: 0xC4362, size: 0x8, addend: 0x0, symName: '__ZN64_$LT$std..sys_common..wtf8..Wtf8$u20$as$u20$core..fmt..Debug$GT$3fmt17write_str_escaped17habeda8e9b6ef8e1eE', symObjAddr: 0x372DC, symBinAddr: 0x100052AAC, symSize: 0x320 }
  - { offset: 0xC45E3, size: 0x8, addend: 0x0, symName: '__ZN66_$LT$std..sys_common..wtf8..Wtf8$u20$as$u20$core..fmt..Display$GT$3fmt17hb9830eabf2a4c043E', symObjAddr: 0x375FC, symBinAddr: 0x100052DCC, symSize: 0x1E4 }
  - { offset: 0xC47B6, size: 0x8, addend: 0x0, symName: __ZN3std10sys_common4wtf816slice_error_fail17h8f85e77ce60fb980E, symObjAddr: 0x377E0, symBinAddr: 0x100052FB0, symSize: 0x8C }
  - { offset: 0xC47FF, size: 0x8, addend: 0x0, symName: __ZN3std4pipe10PipeReader9try_clone17h185984fcffa8a737E, symObjAddr: 0x32874, symBinAddr: 0x10004EA78, symSize: 0x88 }
  - { offset: 0xC48F5, size: 0x8, addend: 0x0, symName: '__ZN59_$LT$$RF$std..pipe..PipeReader$u20$as$u20$std..io..Read$GT$4read17h2d2af7f008861fe6E', symObjAddr: 0x328FC, symBinAddr: 0x10004EB00, symSize: 0x50 }
  - { offset: 0xC49FA, size: 0x8, addend: 0x0, symName: '__ZN59_$LT$$RF$std..pipe..PipeReader$u20$as$u20$std..io..Read$GT$13read_vectored17h22aac44c262d398aE', symObjAddr: 0x3294C, symBinAddr: 0x10004EB50, symSize: 0x50 }
  - { offset: 0xC4AFF, size: 0x8, addend: 0x0, symName: '__ZN59_$LT$$RF$std..pipe..PipeReader$u20$as$u20$std..io..Read$GT$11read_to_end17h8e9c58201554956fE', symObjAddr: 0x3299C, symBinAddr: 0x10004EBA0, symSize: 0x14 }
  - { offset: 0xC4B19, size: 0x8, addend: 0x0, symName: '__ZN59_$LT$$RF$std..pipe..PipeReader$u20$as$u20$std..io..Read$GT$8read_buf17h3b69056b1f6f5825E', symObjAddr: 0x329B0, symBinAddr: 0x10004EBB4, symSize: 0x7C }
  - { offset: 0xC4CFE, size: 0x8, addend: 0x0, symName: '__ZN55_$LT$std..pipe..PipeReader$u20$as$u20$std..io..Read$GT$11read_to_end17h8e6989b405345275E', symObjAddr: 0x32A2C, symBinAddr: 0x10004EC30, symSize: 0x10 }
  - { offset: 0xC4D1E, size: 0x8, addend: 0x0, symName: '__ZN60_$LT$$RF$std..pipe..PipeWriter$u20$as$u20$std..io..Write$GT$5write17h99dd5cf3805ee463E', symObjAddr: 0x32A3C, symBinAddr: 0x10004EC40, symSize: 0x50 }
  - { offset: 0xC4E26, size: 0x8, addend: 0x0, symName: '__ZN60_$LT$$RF$std..pipe..PipeWriter$u20$as$u20$std..io..Write$GT$14write_vectored17h0136097c29228641E', symObjAddr: 0x32A8C, symBinAddr: 0x10004EC90, symSize: 0x50 }
  - { offset: 0xC4F34, size: 0x8, addend: 0x0, symName: '__ZN56_$LT$std..pipe..PipeWriter$u20$as$u20$std..io..Write$GT$5write17h06706f538c2c4d3eE', symObjAddr: 0x32ADC, symBinAddr: 0x10004ECE0, symSize: 0x4C }
  - { offset: 0xC503C, size: 0x8, addend: 0x0, symName: '__ZN56_$LT$std..pipe..PipeWriter$u20$as$u20$std..io..Write$GT$14write_vectored17h9dd41bbf66ff562fE', symObjAddr: 0x32B28, symBinAddr: 0x10004ED2C, symSize: 0x4C }
  - { offset: 0xC5150, size: 0x8, addend: 0x0, symName: '__ZN79_$LT$std..random..DefaultRandomSource$u20$as$u20$core..random..RandomSource$GT$10fill_bytes17h64acf431bece2142E', symObjAddr: 0x33B04, symBinAddr: 0x10004FCFC, symSize: 0x68 }
  - { offset: 0xC517F, size: 0x8, addend: 0x0, symName: __ZN3std5alloc20set_alloc_error_hook17hd221648460304535E, symObjAddr: 0x3786C, symBinAddr: 0x10005303C, symSize: 0x1C }
  - { offset: 0xC51C6, size: 0x8, addend: 0x0, symName: __ZN3std5alloc21take_alloc_error_hook17h7569abb2a2bb3769E, symObjAddr: 0x37888, symBinAddr: 0x100053058, symSize: 0x2C }
  - { offset: 0xC520D, size: 0x8, addend: 0x0, symName: __ZN3std5alloc24default_alloc_error_hook17h5cca8f42fb77b5beE, symObjAddr: 0x378B4, symBinAddr: 0x100053084, symSize: 0x13C }
  - { offset: 0xC5446, size: 0x8, addend: 0x0, symName: ___rdl_alloc, symObjAddr: 0x379F0, symBinAddr: 0x1000531C0, symSize: 0x6C }
  - { offset: 0xC54D5, size: 0x8, addend: 0x0, symName: ___rdl_dealloc, symObjAddr: 0x37A5C, symBinAddr: 0x10005322C, symSize: 0x10 }
  - { offset: 0xC5502, size: 0x8, addend: 0x0, symName: ___rdl_realloc, symObjAddr: 0x37A6C, symBinAddr: 0x10005323C, symSize: 0xB0 }
  - { offset: 0xC55FD, size: 0x8, addend: 0x0, symName: ___rdl_alloc_zeroed, symObjAddr: 0x37B1C, symBinAddr: 0x1000532EC, symSize: 0x90 }
  - { offset: 0xC56AE, size: 0x8, addend: 0x0, symName: __ZN3std5alloc8rust_oom17ha54d832161426ec7E, symObjAddr: 0x45544, symBinAddr: 0x1000601EC, symSize: 0x2C }
  - { offset: 0xC56FA, size: 0x8, addend: 0x0, symName: ___rg_oom, symObjAddr: 0x45570, symBinAddr: 0x100060218, symSize: 0x18 }
  - { offset: 0xC57B2, size: 0x8, addend: 0x0, symName: '__ZN9addr2line8function17Function$LT$R$GT$14parse_children17h5a96da23ad314619E', symObjAddr: 0x1C9D0, symBinAddr: 0x100038FE0, symSize: 0x1084 }
  - { offset: 0xC6C96, size: 0x8, addend: 0x0, symName: __ZN9addr2line8function10name_entry17h60ce7a95dfc3cfa2E, symObjAddr: 0x1C668, symBinAddr: 0x100038C78, symSize: 0x368 }
  - { offset: 0xC70AE, size: 0x8, addend: 0x0, symName: __ZN9addr2line8function9name_attr17h8910c26a4607af82E, symObjAddr: 0x1DA54, symBinAddr: 0x10003A064, symSize: 0x1B4 }
  - { offset: 0xC7236, size: 0x8, addend: 0x0, symName: __ZN9addr2line11render_file17h9f078ff6f661a719E, symObjAddr: 0x18A38, symBinAddr: 0x100035048, symSize: 0x4B8 }
  - { offset: 0xC7AC4, size: 0x8, addend: 0x0, symName: '__ZN9addr2line16Context$LT$R$GT$9find_unit17h02e652107e14180dE', symObjAddr: 0x18EF0, symBinAddr: 0x100035500, symSize: 0x168 }
  - { offset: 0xC7CD1, size: 0x8, addend: 0x0, symName: '__ZN9addr2line16ResUnit$LT$R$GT$25find_function_or_location17h88e9cf0d105a9d5cE', symObjAddr: 0x19058, symBinAddr: 0x100035668, symSize: 0x3B4 }
  - { offset: 0xC80FD, size: 0x8, addend: 0x0, symName: '__ZN9addr2line16ResUnit$LT$R$GT$25find_function_or_location28_$u7b$$u7b$closure$u7d$$u7d$17hf794ef008246ce60E', symObjAddr: 0x1940C, symBinAddr: 0x100035A1C, symSize: 0x16F8 }
  - { offset: 0xCACA4, size: 0x8, addend: 0x0, symName: '__ZN9addr2line18FrameIter$LT$R$GT$4next17h5d9dc218a3d70785E', symObjAddr: 0x1AB04, symBinAddr: 0x100037114, symSize: 0x2FC }
  - { offset: 0xCB162, size: 0x8, addend: 0x0, symName: '__ZN9addr2line30LoopingLookup$LT$T$C$L$C$F$GT$10new_lookup17h69ec4693d316778dE', symObjAddr: 0x1AE00, symBinAddr: 0x100037410, symSize: 0x404 }
  - { offset: 0xCB64A, size: 0x8, addend: 0x0, symName: __ZN9addr2line5Lines5parse17h239c9d0fb9e4388cE, symObjAddr: 0x1B204, symBinAddr: 0x100037814, symSize: 0x1464 }
  - { offset: 0xCE2A5, size: 0x8, addend: 0x0, symName: __ZN5gimli4read6reader6Reader11read_offset17h507167eba07c55b2E, symObjAddr: 0x1688C, symBinAddr: 0x100032E9C, symSize: 0xBC }
  - { offset: 0xCE4E1, size: 0x8, addend: 0x0, symName: __ZN5gimli4read6reader6Reader12read_sleb12817h8ea8408dd43930a7E, symObjAddr: 0x16948, symBinAddr: 0x100032F58, symSize: 0x21C }
  - { offset: 0xCE5D0, size: 0x8, addend: 0x0, symName: __ZN5gimli4read6reader6Reader12read_uleb12817h3f9bded8998600a1E, symObjAddr: 0x16B64, symBinAddr: 0x100033174, symSize: 0xB0 }
  - { offset: 0xCE685, size: 0x8, addend: 0x0, symName: __ZN5gimli4read6reader6Reader17read_sized_offset17h7fb8b8082a308758E, symObjAddr: 0x16C14, symBinAddr: 0x100033224, symSize: 0xEC }
  - { offset: 0xCEAB6, size: 0x8, addend: 0x0, symName: '__ZN5gimli4read4unit32AttributeValue$LT$R$C$Offset$GT$11udata_value17h78a0cae784eb90bbE', symObjAddr: 0x13DF8, symBinAddr: 0x100030408, symSize: 0x90 }
  - { offset: 0xCEB11, size: 0x8, addend: 0x0, symName: __ZN5gimli4read4unit15parse_attribute17h948770c1726d773bE, symObjAddr: 0x120E0, symBinAddr: 0x10002E6F0, symSize: 0xF68 }
  - { offset: 0xD1767, size: 0x8, addend: 0x0, symName: __ZN5gimli4read4unit15skip_attributes17hf7d782d82a91ce5dE, symObjAddr: 0x13048, symBinAddr: 0x10002F658, symSize: 0x520 }
  - { offset: 0xD2184, size: 0x8, addend: 0x0, symName: '__ZN5gimli4read4unit18Attribute$LT$R$GT$5value17hed9fc3bf893aa23aE', symObjAddr: 0x13568, symBinAddr: 0x10002FB78, symSize: 0x5DC }
  - { offset: 0xD26F0, size: 0x8, addend: 0x0, symName: '__ZN5gimli4read4unit22EntriesCursor$LT$R$GT$10next_entry17hd23780b78bf6f453E', symObjAddr: 0x13B44, symBinAddr: 0x100030154, symSize: 0x2B4 }
  - { offset: 0xD2C62, size: 0x8, addend: 0x0, symName: '__ZN5gimli4read4unit33DebugInfoUnitHeadersIter$LT$R$GT$4next17h7b27487e1890ae2aE', symObjAddr: 0x13E88, symBinAddr: 0x100030498, symSize: 0x4D4 }
  - { offset: 0xD3DC8, size: 0x8, addend: 0x0, symName: '__ZN90_$LT$gimli..read..unit..AttributeValue$LT$R$C$Offset$GT$$u20$as$u20$core..clone..Clone$GT$5clone17hac5ae9c9c6c8d42fE', symObjAddr: 0x184D0, symBinAddr: 0x100034AE0, symSize: 0x68 }
  - { offset: 0xD3EEE, size: 0x8, addend: 0x0, symName: __ZN5gimli4read4line13parse_file_v517h64c1bf063e2a127bE, symObjAddr: 0x10FB8, symBinAddr: 0x10002D5C8, symSize: 0x278 }
  - { offset: 0xD4065, size: 0x8, addend: 0x0, symName: __ZN5gimli4read4line15FileEntryFormat5parse17hf3c6024dca6e391dE, symObjAddr: 0x11230, symBinAddr: 0x10002D840, symSize: 0x350 }
  - { offset: 0xD4873, size: 0x8, addend: 0x0, symName: __ZN5gimli4read4line15parse_attribute17hcacf4681423038ddE, symObjAddr: 0x11580, symBinAddr: 0x10002DB90, symSize: 0x868 }
  - { offset: 0xD6008, size: 0x8, addend: 0x0, symName: __ZN5gimli4read4line18parse_directory_v517heb01e2d78153f60bE, symObjAddr: 0x11DE8, symBinAddr: 0x10002E3F8, symSize: 0xE8 }
  - { offset: 0xD6098, size: 0x8, addend: 0x0, symName: '__ZN5gimli4read4line27FileEntry$LT$R$C$Offset$GT$5parse17hadc56d2b0249308dE', symObjAddr: 0x11ED0, symBinAddr: 0x10002E4E0, symSize: 0x210 }
  - { offset: 0xD6381, size: 0x8, addend: 0x0, symName: '__ZN93_$LT$gimli..read..line..LineProgramHeader$LT$R$C$Offset$GT$$u20$as$u20$core..clone..Clone$GT$5clone17h02398f1a99a50a4fE', symObjAddr: 0x18538, symBinAddr: 0x100034B48, symSize: 0x448 }
  - { offset: 0xD6FAA, size: 0x8, addend: 0x0, symName: '__ZN5gimli4read5dwarf14Dwarf$LT$R$GT$11attr_string17h23281c43e7d8666cE', symObjAddr: 0x15FC4, symBinAddr: 0x1000325D4, symSize: 0x1E8 }
  - { offset: 0xD77CB, size: 0x8, addend: 0x0, symName: '__ZN5gimli4read5dwarf13Unit$LT$R$GT$3new17h60a6e7428346a71eE', symObjAddr: 0x1435C, symBinAddr: 0x10003096C, symSize: 0x1C68 }
  - { offset: 0xDB32B, size: 0x8, addend: 0x0, symName: '__ZN5gimli4read5index18UnitIndex$LT$R$GT$5parse17h55b5c12b00c2d27cE', symObjAddr: 0x161AC, symBinAddr: 0x1000327BC, symSize: 0x6E0 }
  - { offset: 0xDB8FF, size: 0x8, addend: 0x0, symName: '__ZN5gimli4read7aranges30ArangeHeader$LT$R$C$Offset$GT$5parse17h8b32058b43fa7eedE', symObjAddr: 0x16D00, symBinAddr: 0x100033310, symSize: 0x29C }
  - { offset: 0xDC12F, size: 0x8, addend: 0x0, symName: '__ZN5gimli4read8rnglists20RngListIter$LT$R$GT$4next17hed01def4856eca9aE', symObjAddr: 0x16F9C, symBinAddr: 0x1000335AC, symSize: 0xC3C }
  - { offset: 0xDEFEA, size: 0x8, addend: 0x0, symName: __ZN6object4read7archive13ArchiveMember5parse17hec8f05bf7f831dc2E, symObjAddr: 0x18094, symBinAddr: 0x1000346A4, symSize: 0x2E0 }
  - { offset: 0xDF577, size: 0x8, addend: 0x0, symName: __ZN6object4read7archive23parse_bsd_extended_name17hcd252cd855568d2fE, symObjAddr: 0x18374, symBinAddr: 0x100034984, symSize: 0xB8 }
  - { offset: 0xDFCA6, size: 0x8, addend: 0x0, symName: _OUTLINED_FUNCTION_0, symObjAddr: 0x4B37C, symBinAddr: 0x100066024, symSize: 0x24 }
  - { offset: 0xDFCBE, size: 0x8, addend: 0x0, symName: _OUTLINED_FUNCTION_1, symObjAddr: 0x4B3A0, symBinAddr: 0x100066048, symSize: 0x8 }
  - { offset: 0xDFCD6, size: 0x8, addend: 0x0, symName: _OUTLINED_FUNCTION_2, symObjAddr: 0x4B3A8, symBinAddr: 0x100066050, symSize: 0x8 }
  - { offset: 0xDFCEE, size: 0x8, addend: 0x0, symName: _OUTLINED_FUNCTION_3, symObjAddr: 0x4B3B0, symBinAddr: 0x100066058, symSize: 0x8 }
  - { offset: 0xDFD06, size: 0x8, addend: 0x0, symName: _OUTLINED_FUNCTION_4, symObjAddr: 0x4B3B8, symBinAddr: 0x100066060, symSize: 0x8 }
  - { offset: 0xDFD1E, size: 0x8, addend: 0x0, symName: _OUTLINED_FUNCTION_5, symObjAddr: 0x4B3C0, symBinAddr: 0x100066068, symSize: 0xC }
  - { offset: 0xDFD36, size: 0x8, addend: 0x0, symName: _OUTLINED_FUNCTION_6, symObjAddr: 0x4B3CC, symBinAddr: 0x100066074, symSize: 0xC }
  - { offset: 0xDFD4E, size: 0x8, addend: 0x0, symName: _OUTLINED_FUNCTION_7, symObjAddr: 0x4B3D8, symBinAddr: 0x100066080, symSize: 0xC }
  - { offset: 0xDFD84, size: 0x8, addend: 0x0, symName: '__ZN4core3ptr49drop_in_place$LT$panic_unwind..imp..Exception$GT$17hed54968f30dd5290E', symObjAddr: 0x0, symBinAddr: 0x10006608C, symSize: 0x78 }
  - { offset: 0xDFDAA, size: 0x8, addend: 0x0, symName: '__ZN4core3ptr49drop_in_place$LT$panic_unwind..imp..Exception$GT$17hed54968f30dd5290E', symObjAddr: 0x0, symBinAddr: 0x10006608C, symSize: 0x78 }
  - { offset: 0xDFEB1, size: 0x8, addend: 0x0, symName: '__ZN4core3ptr74drop_in_place$LT$alloc..boxed..Box$LT$panic_unwind..imp..Exception$GT$$GT$17h6b9081c1409d55c1E', symObjAddr: 0x78, symBinAddr: 0x100066104, symSize: 0x8C }
  - { offset: 0xE0186, size: 0x8, addend: 0x0, symName: __ZN12panic_unwind3imp5panic17exception_cleanup17hc2dfc11f5b65ae4bE, symObjAddr: 0x214, symBinAddr: 0x1000662A0, symSize: 0x18 }
  - { offset: 0xE01A2, size: 0x8, addend: 0x0, symName: ___rust_panic_cleanup, symObjAddr: 0x104, symBinAddr: 0x100066190, symSize: 0x68 }
  - { offset: 0xE0244, size: 0x8, addend: 0x0, symName: ___rust_start_panic, symObjAddr: 0x16C, symBinAddr: 0x1000661F8, symSize: 0xA8 }
  - { offset: 0xE02FE, size: 0x8, addend: 0x0, symName: '__ZN42_$LT$$RF$T$u20$as$u20$core..fmt..Debug$GT$3fmt17hc10e7420f6dffb19E', symObjAddr: 0x0, symBinAddr: 0x100069DF8, symSize: 0x30 }
  - { offset: 0xE0348, size: 0x8, addend: 0x0, symName: '__ZN42_$LT$$RF$T$u20$as$u20$core..fmt..Debug$GT$3fmt17hc10e7420f6dffb19E', symObjAddr: 0x0, symBinAddr: 0x100069DF8, symSize: 0x30 }
  - { offset: 0xE03B7, size: 0x8, addend: 0x0, symName: __ZN4core9panicking13assert_failed17h01057eccb24808cdE, symObjAddr: 0x30, symBinAddr: 0x1000A60AC, symSize: 0x38 }
  - { offset: 0xE09D4, size: 0x8, addend: 0x0, symName: __ZN6memchr6memchr8fallback6memchr17h9a7d91b4f82895aaE, symObjAddr: 0x68, symBinAddr: 0x100069E28, symSize: 0x148 }
  - { offset: 0xE09EB, size: 0x8, addend: 0x0, symName: __ZN6memchr6memchr8fallback6memchr17h9a7d91b4f82895aaE, symObjAddr: 0x68, symBinAddr: 0x100069E28, symSize: 0x148 }
  - { offset: 0xE0ADA, size: 0x8, addend: 0x0, symName: __ZN6memchr6memchr8fallback7memchr217h38dab6640d5cf3f6E, symObjAddr: 0x1B0, symBinAddr: 0x100069F70, symSize: 0x154 }
  - { offset: 0xE0AF7, size: 0x8, addend: 0x0, symName: __ZN6memchr6memchr8fallback7memchr217h38dab6640d5cf3f6E, symObjAddr: 0x1B0, symBinAddr: 0x100069F70, symSize: 0x154 }
  - { offset: 0xE0C48, size: 0x8, addend: 0x0, symName: __ZN6memchr6memchr8fallback7memchr317hafed0fa242bbdc25E, symObjAddr: 0x304, symBinAddr: 0x10006A0C4, symSize: 0x18C }
  - { offset: 0xE0C65, size: 0x8, addend: 0x0, symName: __ZN6memchr6memchr8fallback7memchr317hafed0fa242bbdc25E, symObjAddr: 0x304, symBinAddr: 0x10006A0C4, symSize: 0x18C }
  - { offset: 0xE0DBE, size: 0x8, addend: 0x0, symName: __ZN6memchr6memchr8fallback7memrchr17hc1d2f49453f4f6ecE, symObjAddr: 0x490, symBinAddr: 0x10006A250, symSize: 0x130 }
  - { offset: 0xE0DD5, size: 0x8, addend: 0x0, symName: __ZN6memchr6memchr8fallback7memrchr17hc1d2f49453f4f6ecE, symObjAddr: 0x490, symBinAddr: 0x10006A250, symSize: 0x130 }
  - { offset: 0xE0E72, size: 0x8, addend: 0x0, symName: __ZN6memchr6memchr8fallback8memrchr217h7b1b6ee0be3d7d91E, symObjAddr: 0x5C0, symBinAddr: 0x10006A380, symSize: 0x144 }
  - { offset: 0xE0E8F, size: 0x8, addend: 0x0, symName: __ZN6memchr6memchr8fallback8memrchr217h7b1b6ee0be3d7d91E, symObjAddr: 0x5C0, symBinAddr: 0x10006A380, symSize: 0x144 }
  - { offset: 0xE0F96, size: 0x8, addend: 0x0, symName: __ZN6memchr6memchr8fallback8memrchr317h324e2ab5b51a436fE, symObjAddr: 0x704, symBinAddr: 0x10006A4C4, symSize: 0x17C }
  - { offset: 0xE0FB3, size: 0x8, addend: 0x0, symName: __ZN6memchr6memchr8fallback8memrchr317h324e2ab5b51a436fE, symObjAddr: 0x704, symBinAddr: 0x10006A4C4, symSize: 0x17C }
  - { offset: 0xE11F8, size: 0x8, addend: 0x0, symName: __ZN6memchr6memmem9prefilter8fallback4find17hd8329412f41edffbE, symObjAddr: 0x880, symBinAddr: 0x10006A640, symSize: 0x240 }
  - { offset: 0xE13B9, size: 0x8, addend: 0x0, symName: '__ZN75_$LT$memchr..memmem..prefilter..PrefilterFn$u20$as$u20$core..fmt..Debug$GT$3fmt17hc09b70f550f9b5a1E', symObjAddr: 0xAC0, symBinAddr: 0x10006A880, symSize: 0x20 }
  - { offset: 0xE1517, size: 0x8, addend: 0x0, symName: __ZN6memchr6memmem9rabinkarp4find17hca20a4ff56292241E, symObjAddr: 0xAE0, symBinAddr: 0x10006A8A0, symSize: 0x12C }
  - { offset: 0xE16E6, size: 0x8, addend: 0x0, symName: __ZN6memchr6memmem9rabinkarp5rfind17h225ffd3602b46ae7E, symObjAddr: 0xC0C, symBinAddr: 0x10006A9CC, symSize: 0x15C }
  - { offset: 0xE18A4, size: 0x8, addend: 0x0, symName: __ZN6memchr6memmem9rabinkarp10rfind_with17h3b9b93dc156cbc5fE, symObjAddr: 0xD68, symBinAddr: 0x10006AB28, symSize: 0xE0 }
  - { offset: 0xE1984, size: 0x8, addend: 0x0, symName: __ZN6memchr6memmem9rabinkarp9is_prefix17hebf3adbebf958a9cE, symObjAddr: 0xE48, symBinAddr: 0x1000A60E4, symSize: 0xE0 }
  - { offset: 0xE1A5F, size: 0x8, addend: 0x0, symName: __ZN6memchr6memmem9rabinkarp9is_suffix17h2275ce5477eacdd3E, symObjAddr: 0xF28, symBinAddr: 0x1000A61C4, symSize: 0xDC }
  - { offset: 0xE1C3F, size: 0x8, addend: 0x0, symName: __ZN6memchr6memmem8Searcher3new17h2aa2be29d8b2b7fdE, symObjAddr: 0x1A9C, symBinAddr: 0x10006B6A0, symSize: 0x7A8 }
  - { offset: 0xE2078, size: 0x8, addend: 0x0, symName: __ZN6memchr6memmem8Searcher7find_tw17h709fb61352957be3E, symObjAddr: 0x2244, symBinAddr: 0x10006BE48, symSize: 0x780 }
  - { offset: 0xE23F8, size: 0x8, addend: 0x0, symName: __ZN6memchr6memmem6Finder4find17he3ddc5eb29194132E, symObjAddr: 0x1838, symBinAddr: 0x10006B43C, symSize: 0x264 }
  - { offset: 0xE2664, size: 0x8, addend: 0x0, symName: '__ZN83_$LT$memchr..memmem..FindIter$u20$as$u20$core..iter..traits..iterator..Iterator$GT$4next17h39fc67b8adebd223E', symObjAddr: 0x1004, symBinAddr: 0x10006AC08, symSize: 0x2A8 }
  - { offset: 0xE297A, size: 0x8, addend: 0x0, symName: __ZN6memchr6memmem11SearcherRev3new17hdf90e8b31a9cf6c5E, symObjAddr: 0x29C4, symBinAddr: 0x10006C5C8, symSize: 0x5CC }
  - { offset: 0xE2D62, size: 0x8, addend: 0x0, symName: '__ZN86_$LT$memchr..memmem..FindRevIter$u20$as$u20$core..iter..traits..iterator..Iterator$GT$4next17h6357aa1e631a9836E', symObjAddr: 0x12AC, symBinAddr: 0x10006AEB0, symSize: 0x58C }
  - { offset: 0xE3070, size: 0x8, addend: 0x0, symName: '__ZN42_$LT$$RF$T$u20$as$u20$core..fmt..Debug$GT$3fmt17ha0ef3460bf7134daE', symObjAddr: 0x0, symBinAddr: 0x1000827D0, symSize: 0x1C }
  - { offset: 0xE308D, size: 0x8, addend: 0x0, symName: '__ZN42_$LT$$RF$T$u20$as$u20$core..fmt..Debug$GT$3fmt17ha0ef3460bf7134daE', symObjAddr: 0x0, symBinAddr: 0x1000827D0, symSize: 0x1C }
  - { offset: 0xE30C7, size: 0x8, addend: 0x0, symName: __ZN4core3fmt5Write9write_fmt17h415e08f145dfb262E, symObjAddr: 0x1C, symBinAddr: 0x1000827EC, symSize: 0x1C }
  - { offset: 0xE3109, size: 0x8, addend: 0x0, symName: '__ZN53_$LT$core..fmt..Error$u20$as$u20$core..fmt..Debug$GT$3fmt17he86a5143693380e6E', symObjAddr: 0xDC, symBinAddr: 0x1000828AC, symSize: 0x20 }
  - { offset: 0xE3220, size: 0x8, addend: 0x0, symName: '__ZN4core3ptr205drop_in_place$LT$$LT$alloc..boxed..Box$LT$dyn$u20$core..error..Error$u2b$core..marker..Send$u2b$core..marker..Sync$GT$$u20$as$u20$core..convert..From$LT$alloc..string..String$GT$$GT$..from..StringError$GT$17heaad1687d35e3e23E', symObjAddr: 0x38, symBinAddr: 0x100082808, symSize: 0x28 }
  - { offset: 0xE32C3, size: 0x8, addend: 0x0, symName: '__ZN4core3ptr42drop_in_place$LT$alloc..string..String$GT$17hf3dc24f1a9d3aa6cE', symObjAddr: 0x60, symBinAddr: 0x100082830, symSize: 0x28 }
  - { offset: 0xE3534, size: 0x8, addend: 0x0, symName: __ZN4core5error5Error5cause17h3e78fac579f0d2cdE, symObjAddr: 0x88, symBinAddr: 0x100082858, symSize: 0x14 }
  - { offset: 0xE354E, size: 0x8, addend: 0x0, symName: __ZN4core5error5Error7provide17h04158b094f99fafbE, symObjAddr: 0x9C, symBinAddr: 0x10008286C, symSize: 0x10 }
  - { offset: 0xE3568, size: 0x8, addend: 0x0, symName: __ZN4core5error5Error7type_id17ha8c7e9ae09d6f731E, symObjAddr: 0xAC, symBinAddr: 0x10008287C, symSize: 0x30 }
  - { offset: 0xE3593, size: 0x8, addend: 0x0, symName: '__ZN69_$LT$core..alloc..layout..LayoutError$u20$as$u20$core..fmt..Debug$GT$3fmt17h38f65cacd4e5603aE', symObjAddr: 0xFC, symBinAddr: 0x1000828CC, symSize: 0x20 }
  - { offset: 0xE3C5C, size: 0x8, addend: 0x0, symName: '__ZN5alloc3ffi5c_str40_$LT$impl$u20$core..ffi..c_str..CStr$GT$15to_string_lossy17hca96055bc4172724E', symObjAddr: 0x17B0, symBinAddr: 0x100083EB4, symSize: 0x14 }
  - { offset: 0xE3C8D, size: 0x8, addend: 0x0, symName: '__ZN5alloc3ffi5c_str40_$LT$impl$u20$core..ffi..c_str..CStr$GT$13into_c_string17h0c9912f37761ecd8E', symObjAddr: 0x17C4, symBinAddr: 0x100083EC8, symSize: 0x10 }
  - { offset: 0xE461B, size: 0x8, addend: 0x0, symName: __ZN5alloc7raw_vec17capacity_overflow17h6035597745bd01e1E, symObjAddr: 0x11C, symBinAddr: 0x1000828EC, symSize: 0x38 }
  - { offset: 0xE465D, size: 0x8, addend: 0x0, symName: '__ZN5alloc7raw_vec19RawVec$LT$T$C$A$GT$8grow_one17hadb5daffdf9dd647E', symObjAddr: 0x154, symBinAddr: 0x100082924, symSize: 0xA0 }
  - { offset: 0xE48CA, size: 0x8, addend: 0x0, symName: '__ZN5alloc7raw_vec20RawVecInner$LT$A$GT$7reserve21do_reserve_and_handle17h02645e5a46a7b399E', symObjAddr: 0x1F4, symBinAddr: 0x1000A62F4, symSize: 0xA0 }
  - { offset: 0xE49E3, size: 0x8, addend: 0x0, symName: __ZN5alloc7raw_vec11finish_grow17hb0bd977838508dd5E, symObjAddr: 0x294, symBinAddr: 0x1000829C4, symSize: 0x88 }
  - { offset: 0xE4A58, size: 0x8, addend: 0x0, symName: __ZN5alloc7raw_vec12handle_error17hbe5ce02d989aad7dE, symObjAddr: 0x31C, symBinAddr: 0x1000A6394, symSize: 0x14 }
  - { offset: 0xE4B57, size: 0x8, addend: 0x0, symName: __ZN5alloc5alloc18handle_alloc_error8ct_error17h1374e75f1bc6e215E, symObjAddr: 0x348, symBinAddr: 0x100082A4C, symSize: 0x38 }
  - { offset: 0xE4B88, size: 0x8, addend: 0x0, symName: __ZN5alloc5alloc18handle_alloc_error17h0a3050efcb156a76E, symObjAddr: 0x330, symBinAddr: 0x1000A63A8, symSize: 0x18 }
  - { offset: 0xE4BBE, size: 0x8, addend: 0x0, symName: ___rdl_oom, symObjAddr: 0x380, symBinAddr: 0x100082A84, symSize: 0xA4 }
  - { offset: 0xE4C63, size: 0x8, addend: 0x0, symName: '__ZN88_$LT$alloc..collections..btree..map..UnorderedKeyError$u20$as$u20$core..fmt..Display$GT$3fmt17hd156fab08b5984c2E', symObjAddr: 0xCAC, symBinAddr: 0x1000833B0, symSize: 0x24 }
  - { offset: 0xE4CA5, size: 0x8, addend: 0x0, symName: '__ZN93_$LT$alloc..collections..btree..mem..replace..PanicGuard$u20$as$u20$core..ops..drop..Drop$GT$4drop17hd9245f00ec3723f9E', symObjAddr: 0xCD0, symBinAddr: 0x1000833D4, symSize: 0xC }
  - { offset: 0xE4CC8, size: 0x8, addend: 0x0, symName: '__ZN74_$LT$alloc..collections..TryReserveError$u20$as$u20$core..fmt..Display$GT$3fmt17h728f07ed85bfed22E', symObjAddr: 0xCDC, symBinAddr: 0x1000833E0, symSize: 0x74 }
  - { offset: 0xE4D47, size: 0x8, addend: 0x0, symName: '__ZN67_$LT$alloc..boxed..Box$LT$str$GT$$u20$as$u20$core..clone..Clone$GT$5clone17hc575f0c658516a2cE', symObjAddr: 0x424, symBinAddr: 0x100082B28, symSize: 0x80 }
  - { offset: 0xE4E61, size: 0x8, addend: 0x0, symName: '__ZN223_$LT$$LT$alloc..boxed..Box$LT$dyn$u20$core..error..Error$u2b$core..marker..Send$u2b$core..marker..Sync$GT$$u20$as$u20$core..convert..From$LT$alloc..string..String$GT$$GT$..from..StringError$u20$as$u20$core..error..Error$GT$11description17hc43c21224f03a43aE', symObjAddr: 0x4A4, symBinAddr: 0x100082BA8, symSize: 0x18 }
  - { offset: 0xE4F1C, size: 0x8, addend: 0x0, symName: '__ZN223_$LT$$LT$alloc..boxed..Box$LT$dyn$u20$core..error..Error$u2b$core..marker..Send$u2b$core..marker..Sync$GT$$u20$as$u20$core..convert..From$LT$alloc..string..String$GT$$GT$..from..StringError$u20$as$u20$core..fmt..Display$GT$3fmt17h8d04154494b47114E', symObjAddr: 0x4BC, symBinAddr: 0x100082BC0, symSize: 0x1C }
  - { offset: 0xE4F53, size: 0x8, addend: 0x0, symName: '__ZN221_$LT$$LT$alloc..boxed..Box$LT$dyn$u20$core..error..Error$u2b$core..marker..Send$u2b$core..marker..Sync$GT$$u20$as$u20$core..convert..From$LT$alloc..string..String$GT$$GT$..from..StringError$u20$as$u20$core..fmt..Debug$GT$3fmt17h4f7a51c962ea880eE', symObjAddr: 0x4D8, symBinAddr: 0x100082BDC, symSize: 0x1C }
  - { offset: 0xE4FC8, size: 0x8, addend: 0x0, symName: '__ZN120_$LT$alloc..boxed..Box$LT$dyn$u20$core..error..Error$GT$$u20$as$u20$core..convert..From$LT$alloc..string..String$GT$$GT$4from17h8ed31ded0bc70da2E', symObjAddr: 0x4F4, symBinAddr: 0x100082BF8, symSize: 0x84 }
  - { offset: 0xE5133, size: 0x8, addend: 0x0, symName: '__ZN106_$LT$alloc..boxed..Box$LT$dyn$u20$core..error..Error$GT$$u20$as$u20$core..convert..From$LT$$RF$str$GT$$GT$4from17h59e8c4713237c025E', symObjAddr: 0x578, symBinAddr: 0x100082C7C, symSize: 0xD8 }
  - { offset: 0xE53EC, size: 0x8, addend: 0x0, symName: '__ZN174_$LT$alloc..boxed..Box$LT$dyn$u20$core..error..Error$u2b$core..marker..Send$u2b$core..marker..Sync$GT$$u20$as$u20$core..convert..From$LT$alloc..borrow..Cow$LT$str$GT$$GT$$GT$4from17h365c6c2451e8218bE', symObjAddr: 0x650, symBinAddr: 0x100082D54, symSize: 0xEC }
  - { offset: 0xE56A5, size: 0x8, addend: 0x0, symName: '__ZN128_$LT$alloc..boxed..Box$LT$dyn$u20$core..error..Error$GT$$u20$as$u20$core..convert..From$LT$alloc..borrow..Cow$LT$str$GT$$GT$$GT$4from17ha65a262cda67cd0dE', symObjAddr: 0x73C, symBinAddr: 0x100082E40, symSize: 0xEC }
  - { offset: 0xE5DCE, size: 0x8, addend: 0x0, symName: '__ZN5alloc3vec16Vec$LT$T$C$A$GT$11swap_remove13assert_failed17ha8bacf0bd33759e6E', symObjAddr: 0x5068, symBinAddr: 0x1000A63C0, symSize: 0x34 }
  - { offset: 0xE5E04, size: 0x8, addend: 0x0, symName: '__ZN5alloc3vec16Vec$LT$T$C$A$GT$6insert13assert_failed17hc4dbb912dbd499ceE', symObjAddr: 0x509C, symBinAddr: 0x1000A63F4, symSize: 0x34 }
  - { offset: 0xE5E3A, size: 0x8, addend: 0x0, symName: '__ZN5alloc3vec16Vec$LT$T$C$A$GT$6remove13assert_failed17hb2517dbee879e060E', symObjAddr: 0x50D0, symBinAddr: 0x1000A6428, symSize: 0x34 }
  - { offset: 0xE5E70, size: 0x8, addend: 0x0, symName: '__ZN5alloc3vec16Vec$LT$T$C$A$GT$9split_off13assert_failed17h8702778ae0f3698bE', symObjAddr: 0x5104, symBinAddr: 0x1000A645C, symSize: 0x34 }
  - { offset: 0xE5EBB, size: 0x8, addend: 0x0, symName: '__ZN80_$LT$alloc..vec..Vec$LT$u8$GT$$u20$as$u20$core..convert..From$LT$$RF$str$GT$$GT$4from17hf754f13c4fb6611aE', symObjAddr: 0x5138, symBinAddr: 0x10008776C, symSize: 0x90 }
  - { offset: 0xE60A9, size: 0x8, addend: 0x0, symName: __ZN5alloc6string6String15from_utf8_lossy17hb6a66e2937a0fa0eE, symObjAddr: 0x2ED4, symBinAddr: 0x1000855D8, symSize: 0x228 }
  - { offset: 0xE662F, size: 0x8, addend: 0x0, symName: __ZN5alloc6string6String21from_utf8_lossy_owned17h6a20262cdc645974E, symObjAddr: 0x30FC, symBinAddr: 0x100085800, symSize: 0xB8 }
  - { offset: 0xE6821, size: 0x8, addend: 0x0, symName: __ZN5alloc6string6String10from_utf1617he8fe441f54626db4E, symObjAddr: 0x31B4, symBinAddr: 0x1000858B8, symSize: 0x280 }
  - { offset: 0xE6D4D, size: 0x8, addend: 0x0, symName: __ZN5alloc6string6String12from_utf16le17h665c2a127a81c533E, symObjAddr: 0x3434, symBinAddr: 0x100085B38, symSize: 0x3E0 }
  - { offset: 0xE7248, size: 0x8, addend: 0x0, symName: __ZN5alloc6string6String18from_utf16le_lossy17hfdacc83bd8987720E, symObjAddr: 0x3814, symBinAddr: 0x100085F18, symSize: 0x414 }
  - { offset: 0xE7CAE, size: 0x8, addend: 0x0, symName: __ZN5alloc6string6String12from_utf16be17hb75fef09e4841f7dE, symObjAddr: 0x3C28, symBinAddr: 0x10008632C, symSize: 0x3B8 }
  - { offset: 0xE8142, size: 0x8, addend: 0x0, symName: __ZN5alloc6string6String18from_utf16be_lossy17h93c4452e2b729505E, symObjAddr: 0x3FE0, symBinAddr: 0x1000866E4, symSize: 0x35C }
  - { offset: 0xE8837, size: 0x8, addend: 0x0, symName: __ZN5alloc6string6String14into_raw_parts17hcd6c0aa6664ee57fE, symObjAddr: 0x433C, symBinAddr: 0x100086A40, symSize: 0x20 }
  - { offset: 0xE8868, size: 0x8, addend: 0x0, symName: __ZN5alloc6string6String11try_reserve17hb819b54b03d63790E, symObjAddr: 0x435C, symBinAddr: 0x100086A60, symSize: 0xC4 }
  - { offset: 0xE89E8, size: 0x8, addend: 0x0, symName: __ZN5alloc6string6String17try_reserve_exact17h2ad5c6ad3e68883cE, symObjAddr: 0x4420, symBinAddr: 0x100086B24, symSize: 0xAC }
  - { offset: 0xE8AF4, size: 0x8, addend: 0x0, symName: __ZN5alloc6string6String12insert_bytes17h144788751b492e0bE, symObjAddr: 0x44CC, symBinAddr: 0x100086BD0, symSize: 0x94 }
  - { offset: 0xE8D2B, size: 0x8, addend: 0x0, symName: '__ZN98_$LT$alloc..string..String$u20$as$u20$core..convert..From$LT$alloc..borrow..Cow$LT$str$GT$$GT$$GT$4from17h3362f50b98fe1e8cE', symObjAddr: 0x4C4C, symBinAddr: 0x100087350, symSize: 0xB4 }
  - { offset: 0xE8ED9, size: 0x8, addend: 0x0, symName: '__ZN95_$LT$alloc..string..String$u20$as$u20$core..iter..traits..collect..FromIterator$LT$char$GT$$GT$9from_iter17h16a9bb20b6fc61ecE', symObjAddr: 0x48B8, symBinAddr: 0x100086FBC, symSize: 0x2DC }
  - { offset: 0xE94A0, size: 0x8, addend: 0x0, symName: __ZN5alloc6string13FromUtf8Error8as_bytes17h965b2218ece9a7d6E, symObjAddr: 0x4560, symBinAddr: 0x100086C64, symSize: 0x18 }
  - { offset: 0xE94BB, size: 0x8, addend: 0x0, symName: __ZN5alloc6string13FromUtf8Error15into_utf8_lossy17hff24a50faab43f5fE, symObjAddr: 0x4578, symBinAddr: 0x100086C7C, symSize: 0x200 }
  - { offset: 0xE9B64, size: 0x8, addend: 0x0, symName: '__ZN67_$LT$alloc..string..FromUtf8Error$u20$as$u20$core..fmt..Display$GT$3fmt17h11d6ca99829f9b41E', symObjAddr: 0x4778, symBinAddr: 0x100086E7C, symSize: 0x14 }
  - { offset: 0xE9B85, size: 0x8, addend: 0x0, symName: '__ZN68_$LT$alloc..string..FromUtf16Error$u20$as$u20$core..fmt..Display$GT$3fmt17h02c5e0f4af44d644E', symObjAddr: 0x478C, symBinAddr: 0x100086E90, symSize: 0x20 }
  - { offset: 0xE9BA6, size: 0x8, addend: 0x0, symName: '__ZN60_$LT$alloc..string..String$u20$as$u20$core..clone..Clone$GT$5clone17hb95962ed94d46547E', symObjAddr: 0x47AC, symBinAddr: 0x100086EB0, symSize: 0x90 }
  - { offset: 0xE9CE0, size: 0x8, addend: 0x0, symName: '__ZN60_$LT$alloc..string..String$u20$as$u20$core..clone..Clone$GT$10clone_from17hb1eba086b96c08b8E', symObjAddr: 0x483C, symBinAddr: 0x100086F40, symSize: 0x7C }
  - { offset: 0xE9E47, size: 0x8, addend: 0x0, symName: '__ZN73_$LT$$RF$alloc..string..String$u20$as$u20$core..str..pattern..Pattern$GT$13into_searcher17ha8862925e6e71b15E', symObjAddr: 0x4B94, symBinAddr: 0x100087298, symSize: 0x20 }
  - { offset: 0xE9E7E, size: 0x8, addend: 0x0, symName: '__ZN5alloc6string107_$LT$impl$u20$core..convert..From$LT$alloc..string..String$GT$$u20$for$u20$alloc..boxed..Box$LT$str$GT$$GT$4from17hb09ca83b245a45e0E', symObjAddr: 0x4BB4, symBinAddr: 0x1000872B8, symSize: 0x98 }
  - { offset: 0xE9FF8, size: 0x8, addend: 0x0, symName: '__ZN58_$LT$alloc..string..String$u20$as$u20$core..fmt..Write$GT$9write_str17h0e58f50c5cceb6ccE', symObjAddr: 0x4D00, symBinAddr: 0x100087404, symSize: 0x78 }
  - { offset: 0xEA14B, size: 0x8, addend: 0x0, symName: '__ZN58_$LT$alloc..string..String$u20$as$u20$core..fmt..Write$GT$10write_char17hd93e9ff1698e117fE', symObjAddr: 0x4D78, symBinAddr: 0x10008747C, symSize: 0x13C }
  - { offset: 0xEA3C4, size: 0x8, addend: 0x0, symName: __ZN5alloc6string5Drain6as_str17hfd5ba675729c09a7E, symObjAddr: 0x4F90, symBinAddr: 0x100087694, symSize: 0x1C }
  - { offset: 0xEA449, size: 0x8, addend: 0x0, symName: '__ZN57_$LT$alloc..string..Drain$u20$as$u20$core..fmt..Debug$GT$3fmt17h27cfcd2c53f5dc19E', symObjAddr: 0x4EB4, symBinAddr: 0x1000875B8, symSize: 0x64 }
  - { offset: 0xEA4EB, size: 0x8, addend: 0x0, symName: '__ZN62_$LT$alloc..string..Drain$u20$as$u20$core..ops..drop..Drop$GT$4drop17h35dfa602296dd454E', symObjAddr: 0x4F18, symBinAddr: 0x10008761C, symSize: 0x78 }
  - { offset: 0xEA64C, size: 0x8, addend: 0x0, symName: '__ZN72_$LT$alloc..string..Drain$u20$as$u20$core..convert..AsRef$LT$str$GT$$GT$6as_ref17ha781e5a4d5a8b2e6E', symObjAddr: 0x4FAC, symBinAddr: 0x1000876B0, symSize: 0x1C }
  - { offset: 0xEA6EE, size: 0x8, addend: 0x0, symName: '__ZN79_$LT$alloc..string..Drain$u20$as$u20$core..iter..traits..iterator..Iterator$GT$9size_hint17hcf870634aead5977E', symObjAddr: 0x4FC8, symBinAddr: 0x1000876CC, symSize: 0x2C }
  - { offset: 0xEA949, size: 0x8, addend: 0x0, symName: '__ZN5alloc3str21_$LT$impl$u20$str$GT$12to_lowercase17h323e575193191549E', symObjAddr: 0x19F0, symBinAddr: 0x1000840F4, symSize: 0xB94 }
  - { offset: 0xEBDBA, size: 0x8, addend: 0x0, symName: '__ZN5alloc3str21_$LT$impl$u20$str$GT$12to_uppercase17h1a5a34c07755b201E', symObjAddr: 0x2584, symBinAddr: 0x100084C88, symSize: 0x7D4 }
  - { offset: 0xECE44, size: 0x8, addend: 0x0, symName: '__ZN5alloc3str21_$LT$impl$u20$str$GT$6repeat17h781b0c9e75b1df9eE', symObjAddr: 0x2D58, symBinAddr: 0x10008545C, symSize: 0x17C }
  - { offset: 0xED136, size: 0x8, addend: 0x0, symName: '__ZN92_$LT$alloc..borrow..Cow$LT$str$GT$$u20$as$u20$core..ops..arith..AddAssign$LT$$RF$str$GT$$GT$10add_assign17h0f88a115195c284aE', symObjAddr: 0x828, symBinAddr: 0x100082F2C, symSize: 0x1F8 }
  - { offset: 0xED685, size: 0x8, addend: 0x0, symName: '__ZN77_$LT$alloc..borrow..Cow$LT$str$GT$$u20$as$u20$core..ops..arith..AddAssign$GT$10add_assign17h1b1f174471f8dd5dE', symObjAddr: 0xA20, symBinAddr: 0x100083124, symSize: 0x28C }
  - { offset: 0xEDDF7, size: 0x8, addend: 0x0, symName: __ZN5alloc3ffi5c_str19FromVecWithNulError8as_bytes17he9698f11b479dc85E, symObjAddr: 0xD50, symBinAddr: 0x100083454, symSize: 0x18 }
  - { offset: 0xEDE2F, size: 0x8, addend: 0x0, symName: '__ZN72_$LT$$RF$str$u20$as$u20$alloc..ffi..c_str..CString..new..SpecNewImpl$GT$13spec_new_impl17h37c9772315c87d63E', symObjAddr: 0xD68, symBinAddr: 0x10008346C, symSize: 0x114 }
  - { offset: 0xEE058, size: 0x8, addend: 0x0, symName: '__ZN89_$LT$$RF$mut$u20$$u5b$u8$u5d$$u20$as$u20$alloc..ffi..c_str..CString..new..SpecNewImpl$GT$13spec_new_impl17h0e205d29520e586fE', symObjAddr: 0xE7C, symBinAddr: 0x100083580, symSize: 0x114 }
  - { offset: 0xEE297, size: 0x8, addend: 0x0, symName: __ZN5alloc3ffi5c_str7CString18from_vec_unchecked17hb36965a562a614b6E, symObjAddr: 0xF90, symBinAddr: 0x100083694, symSize: 0x30 }
  - { offset: 0xEE2B2, size: 0x8, addend: 0x0, symName: __ZN5alloc3ffi5c_str7CString19_from_vec_unchecked17ha473a1a6d71e3811E, symObjAddr: 0xFC0, symBinAddr: 0x1000836C4, symSize: 0x138 }
  - { offset: 0xEE5E2, size: 0x8, addend: 0x0, symName: __ZN5alloc3ffi5c_str7CString8from_raw17h73df40c3301bc544E, symObjAddr: 0x10F8, symBinAddr: 0x1000837FC, symSize: 0x28 }
  - { offset: 0xEE60B, size: 0x8, addend: 0x0, symName: __ZN5alloc3ffi5c_str7CString11into_string17h91cab1d5fecbd6aeE, symObjAddr: 0x1120, symBinAddr: 0x100083824, symSize: 0xF8 }
  - { offset: 0xEE723, size: 0x8, addend: 0x0, symName: __ZN5alloc3ffi5c_str7CString10into_bytes17hb94a14545a04e1bcE, symObjAddr: 0x1218, symBinAddr: 0x10008391C, symSize: 0x20 }
  - { offset: 0xEE74D, size: 0x8, addend: 0x0, symName: __ZN5alloc3ffi5c_str7CString19into_bytes_with_nul17hbe851104b5dd6460E, symObjAddr: 0x1238, symBinAddr: 0x10008393C, symSize: 0x18 }
  - { offset: 0xEE7A1, size: 0x8, addend: 0x0, symName: __ZN5alloc3ffi5c_str7CString27from_vec_with_nul_unchecked17hd19c1f93485877fdE, symObjAddr: 0x1250, symBinAddr: 0x100083954, symSize: 0x98 }
  - { offset: 0xEE915, size: 0x8, addend: 0x0, symName: __ZN5alloc3ffi5c_str7CString17from_vec_with_nul17h699462252b6395fbE, symObjAddr: 0x12E8, symBinAddr: 0x1000839EC, symSize: 0x130 }
  - { offset: 0xEEB40, size: 0x8, addend: 0x0, symName: '__ZN63_$LT$alloc..ffi..c_str..CString$u20$as$u20$core..fmt..Debug$GT$3fmt17h4ce6e4088f7e656cE', symObjAddr: 0x1418, symBinAddr: 0x100083B1C, symSize: 0x1C }
  - { offset: 0xEEB9B, size: 0x8, addend: 0x0, symName: '__ZN5alloc3ffi5c_str75_$LT$impl$u20$alloc..borrow..ToOwned$u20$for$u20$core..ffi..c_str..CStr$GT$10clone_into17h0d22677b1bb88d88E', symObjAddr: 0x161C, symBinAddr: 0x100083D20, symSize: 0x114 }
  - { offset: 0xEEECE, size: 0x8, addend: 0x0, symName: '__ZN69_$LT$alloc..ffi..c_str..CString$u20$as$u20$core..default..Default$GT$7default17hd1a77f0c94a22d81E', symObjAddr: 0x1434, symBinAddr: 0x100083B38, symSize: 0x40 }
  - { offset: 0xEEFC1, size: 0x8, addend: 0x0, symName: '__ZN5alloc3ffi5c_str131_$LT$impl$u20$core..convert..From$LT$$RF$core..ffi..c_str..CStr$GT$$u20$for$u20$alloc..boxed..Box$LT$core..ffi..c_str..CStr$GT$$GT$4from17h921772b7e7194e80E', symObjAddr: 0x1474, symBinAddr: 0x100083B78, symSize: 0x80 }
  - { offset: 0xEF0C3, size: 0x8, addend: 0x0, symName: '__ZN5alloc3ffi5c_str100_$LT$impl$u20$core..default..Default$u20$for$u20$alloc..boxed..Box$LT$core..ffi..c_str..CStr$GT$$GT$7default17h041044665bad87fdE', symObjAddr: 0x14F4, symBinAddr: 0x100083BF8, symSize: 0x40 }
  - { offset: 0xEF163, size: 0x8, addend: 0x0, symName: '__ZN66_$LT$alloc..ffi..c_str..NulError$u20$as$u20$core..fmt..Display$GT$3fmt17h243b9ac62b1d0462E', symObjAddr: 0x1534, symBinAddr: 0x100083C38, symSize: 0x50 }
  - { offset: 0xEF1EE, size: 0x8, addend: 0x0, symName: '__ZN77_$LT$alloc..ffi..c_str..FromVecWithNulError$u20$as$u20$core..fmt..Display$GT$3fmt17hcd6494b9417fe454E', symObjAddr: 0x1584, symBinAddr: 0x100083C88, symSize: 0x78 }
  - { offset: 0xEF24F, size: 0x8, addend: 0x0, symName: '__ZN73_$LT$alloc..ffi..c_str..IntoStringError$u20$as$u20$core..fmt..Display$GT$3fmt17h18345458c702cf8cE', symObjAddr: 0x15FC, symBinAddr: 0x100083D00, symSize: 0x20 }
  - { offset: 0xEF270, size: 0x8, addend: 0x0, symName: '__ZN100_$LT$alloc..ffi..c_str..CString$u20$as$u20$core..convert..From$LT$$RF$core..ffi..c_str..CStr$GT$$GT$4from17hf8564ab40c5c4f06E', symObjAddr: 0x1730, symBinAddr: 0x100083E34, symSize: 0x80 }
  - { offset: 0xEF395, size: 0x8, addend: 0x0, symName: __ZN5alloc3fmt6format12format_inner17h65f007f2dcc18b39E, symObjAddr: 0x17D4, symBinAddr: 0x100083ED8, symSize: 0x1A8 }
  - { offset: 0xEF5DE, size: 0x8, addend: 0x0, symName: __ZN5alloc2rc29rcbox_layout_for_value_layout17h9062364011480a01E, symObjAddr: 0x197C, symBinAddr: 0x100084080, symSize: 0x74 }
  - { offset: 0xEF6AA, size: 0x8, addend: 0x0, symName: __ZN5alloc4sync32arcinner_layout_for_value_layout17hc2e63e5c4e3c6fa7E, symObjAddr: 0x4FF4, symBinAddr: 0x1000876F8, symSize: 0x74 }
  - { offset: 0xEF772, size: 0x8, addend: 0x0, symName: _OUTLINED_FUNCTION_0, symObjAddr: 0x51C8, symBinAddr: 0x1000877FC, symSize: 0x24 }
  - { offset: 0xEF7A8, size: 0x8, addend: 0x0, symName: __ZN4core3num7dec2flt7decimal7Decimal5round17h39bbb98f9235df67E, symObjAddr: 0x0, symBinAddr: 0x100087820, symSize: 0xC4 }
  - { offset: 0xF04C2, size: 0x8, addend: 0x0, symName: __ZN4core3num7dec2flt7decimal7Decimal5round17h39bbb98f9235df67E, symObjAddr: 0x0, symBinAddr: 0x100087820, symSize: 0xC4 }
  - { offset: 0xF050E, size: 0x8, addend: 0x0, symName: __ZN4core3num7dec2flt7decimal7Decimal10left_shift17h0bd27f16f3e74cf7E, symObjAddr: 0xC4, symBinAddr: 0x1000878E4, symSize: 0x210 }
  - { offset: 0xF05B2, size: 0x8, addend: 0x0, symName: __ZN4core3num7dec2flt7decimal7Decimal11right_shift17h8d35c1572ddd8c18E, symObjAddr: 0x2D4, symBinAddr: 0x100087AF4, symSize: 0x1C0 }
  - { offset: 0xF0644, size: 0x8, addend: 0x0, symName: __ZN4core3num7dec2flt7decimal13parse_decimal17hbe4aa653484e762cE, symObjAddr: 0x494, symBinAddr: 0x100087CB4, symSize: 0x384 }
  - { offset: 0xF0A29, size: 0x8, addend: 0x0, symName: '__ZN59_$LT$f32$u20$as$u20$core..num..dec2flt..float..RawFloat$GT$15pow10_fast_path17he42c325bf6de4412E', symObjAddr: 0x818, symBinAddr: 0x100088038, symSize: 0x20 }
  - { offset: 0xF0A84, size: 0x8, addend: 0x0, symName: '__ZN59_$LT$f64$u20$as$u20$core..num..dec2flt..float..RawFloat$GT$15pow10_fast_path17h4c5d8ea4599c593dE', symObjAddr: 0x838, symBinAddr: 0x100088058, symSize: 0x20 }
  - { offset: 0xF0AFA, size: 0x8, addend: 0x0, symName: __ZN4core3num7dec2flt6lemire13compute_float17h24197ee91841faceE, symObjAddr: 0x858, symBinAddr: 0x100088078, symSize: 0x164 }
  - { offset: 0xF0BB0, size: 0x8, addend: 0x0, symName: __ZN4core3num7dec2flt6lemire13compute_float17heace79c12f7ad6b7E, symObjAddr: 0x9BC, symBinAddr: 0x1000881DC, symSize: 0x160 }
  - { offset: 0xF0C59, size: 0x8, addend: 0x0, symName: __ZN4core3num7dec2flt6lemire22compute_product_approx17h886e11cb48d9dfbeE, symObjAddr: 0xB1C, symBinAddr: 0x10008833C, symSize: 0x6C }
  - { offset: 0xF0D17, size: 0x8, addend: 0x0, symName: __ZN4core3num7dec2flt5parse12parse_number17h0f3d9a49b3859b7fE, symObjAddr: 0xB88, symBinAddr: 0x1000883A8, symSize: 0x44C }
  - { offset: 0xF12C1, size: 0x8, addend: 0x0, symName: '__ZN74_$LT$core..num..dec2flt..ParseFloatError$u20$as$u20$core..fmt..Display$GT$3fmt17hd93c6d8510dab5c4E', symObjAddr: 0xFD4, symBinAddr: 0x1000887F4, symSize: 0x44 }
  - { offset: 0xF13B8, size: 0x8, addend: 0x0, symName: '__ZN4core3num7dec2flt60_$LT$impl$u20$core..str..traits..FromStr$u20$for$u20$f32$GT$8from_str17h1f26851244223c92E', symObjAddr: 0x138EC, symBinAddr: 0x10009A7A0, symSize: 0x484 }
  - { offset: 0xF13E1, size: 0x8, addend: 0x0, symName: '__ZN4core3num7dec2flt60_$LT$impl$u20$core..str..traits..FromStr$u20$for$u20$f32$GT$8from_str17h1f26851244223c92E', symObjAddr: 0x138EC, symBinAddr: 0x10009A7A0, symSize: 0x484 }
  - { offset: 0xF165C, size: 0x8, addend: 0x0, symName: '__ZN4core3num7dec2flt60_$LT$impl$u20$core..str..traits..FromStr$u20$for$u20$f64$GT$8from_str17hf08473c135ca8a1aE', symObjAddr: 0x13D70, symBinAddr: 0x10009AC24, symSize: 0x454 }
  - { offset: 0xF1C7B, size: 0x8, addend: 0x0, symName: __ZN4core3num9diy_float2Fp12normalize_to17h7fc18ee595a5a538E, symObjAddr: 0x1018, symBinAddr: 0x100088838, symSize: 0x70 }
  - { offset: 0xF1CC2, size: 0x8, addend: 0x0, symName: __ZN4core3num7flt2dec9estimator23estimate_scaling_factor17h6681fda4199a4c9eE, symObjAddr: 0x1088, symBinAddr: 0x1000888A8, symSize: 0x3C }
  - { offset: 0xF1D03, size: 0x8, addend: 0x0, symName: __ZN4core3num7flt2dec8strategy6dragon9mul_pow1017h2f869bdb0df99d47E, symObjAddr: 0x10C4, symBinAddr: 0x1000888E4, symSize: 0x1E4 }
  - { offset: 0xF1F9C, size: 0x8, addend: 0x0, symName: __ZN4core3num7flt2dec8strategy6dragon15format_shortest17h7a4009ddfef3335aE, symObjAddr: 0x12A8, symBinAddr: 0x100088AC8, symSize: 0xCB8 }
  - { offset: 0xF3B42, size: 0x8, addend: 0x0, symName: __ZN4core3num7flt2dec8strategy6dragon12format_exact17hfdfa2a63cdf21877E, symObjAddr: 0x1F60, symBinAddr: 0x100089780, symSize: 0xB4C }
  - { offset: 0xF52B3, size: 0x8, addend: 0x0, symName: __ZN4core3num7flt2dec8strategy5grisu12cached_power17h5df0d2ddfa15b00fE, symObjAddr: 0x2AAC, symBinAddr: 0x10008A2CC, symSize: 0x78 }
  - { offset: 0xF52F5, size: 0x8, addend: 0x0, symName: __ZN4core3num7flt2dec8strategy5grisu19format_shortest_opt17hd24b4ccc64221d0bE, symObjAddr: 0x2B24, symBinAddr: 0x10008A344, symSize: 0x7C4 }
  - { offset: 0xF53F2, size: 0x8, addend: 0x0, symName: __ZN4core3num7flt2dec8strategy5grisu15format_shortest17hb5d5cf1dc4df7df2E, symObjAddr: 0x32E8, symBinAddr: 0x10008AB08, symSize: 0x7C }
  - { offset: 0xF5406, size: 0x8, addend: 0x0, symName: __ZN4core3num7flt2dec8strategy5grisu16format_exact_opt17h5750650986d81e94E, symObjAddr: 0x3364, symBinAddr: 0x10008AB84, symSize: 0x428 }
  - { offset: 0xF5466, size: 0x8, addend: 0x0, symName: __ZN4core3num7flt2dec8strategy5grisu16format_exact_opt14possibly_round17hca4abbf44438ba20E, symObjAddr: 0x378C, symBinAddr: 0x10008AFAC, symSize: 0x1E0 }
  - { offset: 0xF55BF, size: 0x8, addend: 0x0, symName: __ZN4core3num7flt2dec8strategy5grisu12format_exact17h1c6086cdee848a1fE, symObjAddr: 0x396C, symBinAddr: 0x10008B18C, symSize: 0x90 }
  - { offset: 0xF55FE, size: 0x8, addend: 0x0, symName: __ZN4core3num7flt2dec8round_up17h597e2fa55f3f6e18E, symObjAddr: 0x39FC, symBinAddr: 0x10008B21C, symSize: 0xB4 }
  - { offset: 0xF56AC, size: 0x8, addend: 0x0, symName: __ZN4core3num7flt2dec17digits_to_dec_str17h337100ada1b27e7eE, symObjAddr: 0x3AB0, symBinAddr: 0x10008B2D0, symSize: 0x14C }
  - { offset: 0xF5727, size: 0x8, addend: 0x0, symName: __ZN4core3num7flt2dec17digits_to_exp_str17hdeacfa6faa06f004E, symObjAddr: 0x3BFC, symBinAddr: 0x10008B41C, symSize: 0x168 }
  - { offset: 0xF597D, size: 0x8, addend: 0x0, symName: __ZN4core3num6bignum8Big32x408from_u6417hc6456b574e970ce4E, symObjAddr: 0x11438, symBinAddr: 0x1000982EC, symSize: 0x68 }
  - { offset: 0xF5991, size: 0x8, addend: 0x0, symName: __ZN4core3num6bignum8Big32x406digits17h6003f94b4e65e3beE, symObjAddr: 0x114A0, symBinAddr: 0x100098354, symSize: 0x2C }
  - { offset: 0xF59DC, size: 0x8, addend: 0x0, symName: __ZN4core3num6bignum8Big32x407get_bit17h762981d4889a68c7E, symObjAddr: 0x114CC, symBinAddr: 0x100098380, symSize: 0x38 }
  - { offset: 0xF59F0, size: 0x8, addend: 0x0, symName: __ZN4core3num6bignum8Big32x407is_zero17he34b5b664b72b436E, symObjAddr: 0x11504, symBinAddr: 0x1000983B8, symSize: 0x50 }
  - { offset: 0xF5A7F, size: 0x8, addend: 0x0, symName: __ZN4core3num6bignum8Big32x4010bit_length17h2a954672f1188ddfE, symObjAddr: 0x11554, symBinAddr: 0x100098408, symSize: 0x80 }
  - { offset: 0xF5B8E, size: 0x8, addend: 0x0, symName: __ZN4core3num6bignum8Big32x403add17h0e5fb63bf57e38c8E, symObjAddr: 0x115D4, symBinAddr: 0x100098488, symSize: 0xA8 }
  - { offset: 0xF5C72, size: 0x8, addend: 0x0, symName: __ZN4core3num6bignum8Big32x409add_small17hda254c34b099e539E, symObjAddr: 0x1167C, symBinAddr: 0x100098530, symSize: 0x3EC }
  - { offset: 0xF5CD2, size: 0x8, addend: 0x0, symName: __ZN4core3num6bignum8Big32x403sub17h3a058e81995a81aeE, symObjAddr: 0x11A68, symBinAddr: 0x10009891C, symSize: 0xA0 }
  - { offset: 0xF5DB6, size: 0x8, addend: 0x0, symName: __ZN4core3num6bignum8Big32x409mul_small17hc7b3b7c277319d94E, symObjAddr: 0x11B08, symBinAddr: 0x1000989BC, symSize: 0x88 }
  - { offset: 0xF5E44, size: 0x8, addend: 0x0, symName: __ZN4core3num6bignum8Big32x408mul_pow217h74db9c7992bb3a2bE, symObjAddr: 0x11B90, symBinAddr: 0x100098A44, symSize: 0x198 }
  - { offset: 0xF5F2D, size: 0x8, addend: 0x0, symName: __ZN4core3num6bignum8Big32x408mul_pow517h3ae0c0b0b60a7a64E, symObjAddr: 0x11D28, symBinAddr: 0x100098BDC, symSize: 0x108 }
  - { offset: 0xF6137, size: 0x8, addend: 0x0, symName: __ZN4core3num6bignum8Big32x4010mul_digits17hc39f6d391ac5e442E, symObjAddr: 0x11E30, symBinAddr: 0x100098CE4, symSize: 0x2EC }
  - { offset: 0xF6421, size: 0x8, addend: 0x0, symName: __ZN4core3num6bignum8Big32x4013div_rem_small17h8255ba21855048d4E, symObjAddr: 0x1211C, symBinAddr: 0x100098FD0, symSize: 0x88 }
  - { offset: 0xF64CB, size: 0x8, addend: 0x0, symName: __ZN4core3num6bignum8Big32x407div_rem17h9f7a03a4715ef08fE, symObjAddr: 0x121A4, symBinAddr: 0x100099058, symSize: 0x290 }
  - { offset: 0xF69FA, size: 0x8, addend: 0x0, symName: '__ZN62_$LT$core..num..bignum..Big32x40$u20$as$u20$core..cmp..Ord$GT$3cmp17heaa0a4e2c30abab6E', symObjAddr: 0x124C4, symBinAddr: 0x100099378, symSize: 0x70 }
  - { offset: 0xF6C59, size: 0x8, addend: 0x0, symName: '__ZN69_$LT$core..num..bignum..Big32x40$u20$as$u20$core..cmp..PartialOrd$GT$11partial_cmp17h8d1f7ae1543381bfE', symObjAddr: 0x12454, symBinAddr: 0x100099308, symSize: 0x70 }
  - { offset: 0xF6EC5, size: 0x8, addend: 0x0, symName: '__ZN50_$LT$u32$u20$as$u20$core..num..bignum..FullOps$GT$12full_div_rem17hedd069b0e951eb5fE', symObjAddr: 0x11404, symBinAddr: 0x1000982B8, symSize: 0x34 }
  - { offset: 0xF6EEC, size: 0x8, addend: 0x0, symName: '__ZN49_$LT$u8$u20$as$u20$core..num..bignum..FullOps$GT$12full_div_rem17h9212d6e80dbbec4dE', symObjAddr: 0x11398, symBinAddr: 0x10009824C, symSize: 0x38 }
  - { offset: 0xF6F20, size: 0x8, addend: 0x0, symName: '__ZN50_$LT$u16$u20$as$u20$core..num..bignum..FullOps$GT$12full_div_rem17hebab2f50adb935fcE', symObjAddr: 0x113D0, symBinAddr: 0x100098284, symSize: 0x34 }
  - { offset: 0xF6F5A, size: 0x8, addend: 0x0, symName: '__ZN68_$LT$core..num..bignum..Big32x40$u20$as$u20$core..cmp..PartialEq$GT$2eq17h984bb84e32e2df73E', symObjAddr: 0x12434, symBinAddr: 0x1000992E8, symSize: 0x20 }
  - { offset: 0xF6FA6, size: 0x8, addend: 0x0, symName: '__ZN64_$LT$core..num..bignum..Big32x40$u20$as$u20$core..fmt..Debug$GT$3fmt17hd7caf2afa1b87806E', symObjAddr: 0x12534, symBinAddr: 0x1000993E8, symSize: 0x198 }
  - { offset: 0xF706E, size: 0x8, addend: 0x0, symName: __ZN4core3num6bignum5tests6Big8x38from_u6417ha8af1508a50adc17E, symObjAddr: 0x126CC, symBinAddr: 0x100099580, symSize: 0xB4 }
  - { offset: 0xF7088, size: 0x8, addend: 0x0, symName: __ZN4core3num6bignum5tests6Big8x36digits17h98f98e91ac9404a0E, symObjAddr: 0x12780, symBinAddr: 0x100099634, symSize: 0x30 }
  - { offset: 0xF70D3, size: 0x8, addend: 0x0, symName: __ZN4core3num6bignum5tests6Big8x37get_bit17h977475b6b72e79bdE, symObjAddr: 0x127B0, symBinAddr: 0x100099664, symSize: 0x40 }
  - { offset: 0xF70F4, size: 0x8, addend: 0x0, symName: __ZN4core3num6bignum5tests6Big8x37is_zero17h2576e3b405326b3eE, symObjAddr: 0x127F0, symBinAddr: 0x1000996A4, symSize: 0x80 }
  - { offset: 0xF7174, size: 0x8, addend: 0x0, symName: __ZN4core3num6bignum5tests6Big8x310bit_length17h6ffd0280771ee432E, symObjAddr: 0x12870, symBinAddr: 0x100099724, symSize: 0xC0 }
  - { offset: 0xF726B, size: 0x8, addend: 0x0, symName: __ZN4core3num6bignum5tests6Big8x33add17h2f363d637b5f9113E, symObjAddr: 0x12930, symBinAddr: 0x1000997E4, symSize: 0xB4 }
  - { offset: 0xF7355, size: 0x8, addend: 0x0, symName: __ZN4core3num6bignum5tests6Big8x39add_small17h03e3e1c7b4b6ece1E, symObjAddr: 0x129E4, symBinAddr: 0x100099898, symSize: 0x8C }
  - { offset: 0xF73B5, size: 0x8, addend: 0x0, symName: __ZN4core3num6bignum5tests6Big8x33sub17h39107902a38d93cbE, symObjAddr: 0x12A70, symBinAddr: 0x100099924, symSize: 0xA4 }
  - { offset: 0xF7499, size: 0x8, addend: 0x0, symName: __ZN4core3num6bignum5tests6Big8x39mul_small17h2f5d8d34b5d6c1d2E, symObjAddr: 0x12B14, symBinAddr: 0x1000999C8, symSize: 0xA8 }
  - { offset: 0xF7521, size: 0x8, addend: 0x0, symName: __ZN4core3num6bignum5tests6Big8x38mul_pow217h2248b44159cebdd3E, symObjAddr: 0x12BBC, symBinAddr: 0x100099A70, symSize: 0x184 }
  - { offset: 0xF7602, size: 0x8, addend: 0x0, symName: __ZN4core3num6bignum5tests6Big8x38mul_pow517h03bb2dcb9734f270E, symObjAddr: 0x12D40, symBinAddr: 0x100099BF4, symSize: 0x14C }
  - { offset: 0xF7800, size: 0x8, addend: 0x0, symName: __ZN4core3num6bignum5tests6Big8x310mul_digits17h9b511d7e6a268206E, symObjAddr: 0x12E8C, symBinAddr: 0x100099D40, symSize: 0x36C }
  - { offset: 0xF7AC4, size: 0x8, addend: 0x0, symName: __ZN4core3num6bignum5tests6Big8x313div_rem_small17h8b1c0d0eedd54463E, symObjAddr: 0x131F8, symBinAddr: 0x10009A0AC, symSize: 0xBC }
  - { offset: 0xF7BAA, size: 0x8, addend: 0x0, symName: __ZN4core3num6bignum5tests6Big8x37div_rem17h7e5f1cefda338378E, symObjAddr: 0x132B4, symBinAddr: 0x10009A168, symSize: 0x2DC }
  - { offset: 0xF808A, size: 0x8, addend: 0x0, symName: '__ZN67_$LT$core..num..bignum..tests..Big8x3$u20$as$u20$core..cmp..Ord$GT$3cmp17hdaf11620d3bfa8e1E', symObjAddr: 0x13690, symBinAddr: 0x10009A544, symSize: 0xD4 }
  - { offset: 0xF8271, size: 0x8, addend: 0x0, symName: '__ZN74_$LT$core..num..bignum..tests..Big8x3$u20$as$u20$core..cmp..PartialOrd$GT$11partial_cmp17h3f98865c4aac9096E', symObjAddr: 0x135BC, symBinAddr: 0x10009A470, symSize: 0xD4 }
  - { offset: 0xF8458, size: 0x8, addend: 0x0, symName: '__ZN73_$LT$core..num..bignum..tests..Big8x3$u20$as$u20$core..cmp..PartialEq$GT$2eq17hed1f9f708154d657E', symObjAddr: 0x13590, symBinAddr: 0x10009A444, symSize: 0x2C }
  - { offset: 0xF84A4, size: 0x8, addend: 0x0, symName: '__ZN69_$LT$core..num..bignum..tests..Big8x3$u20$as$u20$core..fmt..Debug$GT$3fmt17h9f4cfe8aafdccee3E', symObjAddr: 0x13764, symBinAddr: 0x10009A618, symSize: 0x188 }
  - { offset: 0xF868A, size: 0x8, addend: 0x0, symName: __ZN4core3num3fmt4Part5write17h051625eae2c0947eE, symObjAddr: 0x3D64, symBinAddr: 0x10008B584, symSize: 0x164 }
  - { offset: 0xF879C, size: 0x8, addend: 0x0, symName: __ZN4core3num3fmt9Formatted3len17hb1ecd50dc6164bf1E, symObjAddr: 0x3EC8, symBinAddr: 0x10008B6E8, symSize: 0x98 }
  - { offset: 0xF87DF, size: 0x8, addend: 0x0, symName: __ZN4core3num3fmt9Formatted5write17h0fd6294897ab6537E, symObjAddr: 0x3F60, symBinAddr: 0x10008B780, symSize: 0xB0 }
  - { offset: 0xF88F5, size: 0x8, addend: 0x0, symName: '__ZN72_$LT$core..num..error..TryFromIntError$u20$as$u20$core..fmt..Display$GT$3fmt17h80c9566c13c143d4E', symObjAddr: 0x4010, symBinAddr: 0x10008B830, symSize: 0x20 }
  - { offset: 0xF893D, size: 0x8, addend: 0x0, symName: '__ZN70_$LT$core..num..error..ParseIntError$u20$as$u20$core..fmt..Display$GT$3fmt17h4e89c228eaf79c80E', symObjAddr: 0x4030, symBinAddr: 0x10008B850, symSize: 0x34 }
  - { offset: 0xF8987, size: 0x8, addend: 0x0, symName: __ZN4core3num9int_log1030panic_for_nonpositive_argument17h81ec7b6e052c2aa3E, symObjAddr: 0x4064, symBinAddr: 0x1000A6490, symSize: 0x34 }
  - { offset: 0xF89FD, size: 0x8, addend: 0x0, symName: __ZN4core3num8int_sqrt27panic_for_negative_argument17h0b53af7306936742E, symObjAddr: 0x4098, symBinAddr: 0x1000A64C4, symSize: 0x34 }
  - { offset: 0xF8A33, size: 0x8, addend: 0x0, symName: __ZN4core3num14overflow_panic3add17h7a5ab6ad9a94ea33E, symObjAddr: 0x40CC, symBinAddr: 0x1000A64F8, symSize: 0x34 }
  - { offset: 0xF8A62, size: 0x8, addend: 0x0, symName: __ZN4core3num14overflow_panic3sub17h26e9c7b80a8446cfE, symObjAddr: 0x4100, symBinAddr: 0x1000A652C, symSize: 0x34 }
  - { offset: 0xF8A91, size: 0x8, addend: 0x0, symName: __ZN4core3num14overflow_panic3mul17h2a49f350ba4a061bE, symObjAddr: 0x4134, symBinAddr: 0x1000A6560, symSize: 0x34 }
  - { offset: 0xF8AC0, size: 0x8, addend: 0x0, symName: __ZN4core3num14overflow_panic3div17h5d69d4d04adb8bacE, symObjAddr: 0x4168, symBinAddr: 0x1000A6594, symSize: 0x34 }
  - { offset: 0xF8AEF, size: 0x8, addend: 0x0, symName: __ZN4core3num14overflow_panic3rem17h543a0ed3697d1aa1E, symObjAddr: 0x419C, symBinAddr: 0x1000A65C8, symSize: 0x34 }
  - { offset: 0xF8B1E, size: 0x8, addend: 0x0, symName: __ZN4core3num14overflow_panic3neg17h150bb2aa4da36845E, symObjAddr: 0x41D0, symBinAddr: 0x1000A65FC, symSize: 0x34 }
  - { offset: 0xF8B4D, size: 0x8, addend: 0x0, symName: __ZN4core3num14overflow_panic3shr17hf709ff2092e57474E, symObjAddr: 0x4204, symBinAddr: 0x1000A6630, symSize: 0x34 }
  - { offset: 0xF8B7C, size: 0x8, addend: 0x0, symName: __ZN4core3num14overflow_panic3shl17h412043bea767346cE, symObjAddr: 0x4238, symBinAddr: 0x1000A6664, symSize: 0x34 }
  - { offset: 0xF8BAC, size: 0x8, addend: 0x0, symName: __ZN4core3num23from_str_radix_panic_ct17hc7460cb66093aca9E, symObjAddr: 0x426C, symBinAddr: 0x10008B884, symSize: 0x30 }
  - { offset: 0xF8BDC, size: 0x8, addend: 0x0, symName: __ZN4core3num23from_str_radix_panic_rt17he45ccaccb55c6404E, symObjAddr: 0x429C, symBinAddr: 0x10008B8B4, symSize: 0x44 }
  - { offset: 0xF8C0C, size: 0x8, addend: 0x0, symName: __ZN4core3num20from_str_radix_panic17heb1e6b1205d27dc7E, symObjAddr: 0x42E0, symBinAddr: 0x1000A6698, symSize: 0xC }
  - { offset: 0xF8CDF, size: 0x8, addend: 0x0, symName: '__ZN73_$LT$core..num..nonzero..NonZero$LT$T$GT$$u20$as$u20$core..fmt..Debug$GT$3fmt17h9c1b7807a5db8ec7E', symObjAddr: 0x141C4, symBinAddr: 0x10009B078, symSize: 0x28 }
  - { offset: 0xF8D14, size: 0x8, addend: 0x0, symName: '__ZN84_$LT$core..num..nonzero..NonZero$LT$u8$GT$$u20$as$u20$core..str..traits..FromStr$GT$8from_str17h21272beba62c98e7E', symObjAddr: 0x141EC, symBinAddr: 0x10009B0A0, symSize: 0x138 }
  - { offset: 0xF8DFD, size: 0x8, addend: 0x0, symName: '__ZN85_$LT$core..num..nonzero..NonZero$LT$u16$GT$$u20$as$u20$core..str..traits..FromStr$GT$8from_str17hea5732906bca706dE', symObjAddr: 0x14324, symBinAddr: 0x10009B1D8, symSize: 0x124 }
  - { offset: 0xF8EDF, size: 0x8, addend: 0x0, symName: '__ZN85_$LT$core..num..nonzero..NonZero$LT$u32$GT$$u20$as$u20$core..str..traits..FromStr$GT$8from_str17h86b66a8ad5c146a6E', symObjAddr: 0x14448, symBinAddr: 0x10009B2FC, symSize: 0x12C }
  - { offset: 0xF8FD0, size: 0x8, addend: 0x0, symName: '__ZN85_$LT$core..num..nonzero..NonZero$LT$u64$GT$$u20$as$u20$core..str..traits..FromStr$GT$8from_str17hbcb8af6a873f2038E', symObjAddr: 0x14574, symBinAddr: 0x10009B428, symSize: 0xFC }
  - { offset: 0xF90C8, size: 0x8, addend: 0x0, symName: '__ZN86_$LT$core..num..nonzero..NonZero$LT$u128$GT$$u20$as$u20$core..str..traits..FromStr$GT$8from_str17ha4e3d3ada8b0ecc7E', symObjAddr: 0x14670, symBinAddr: 0x10009B524, symSize: 0x130 }
  - { offset: 0xF91C7, size: 0x8, addend: 0x0, symName: '__ZN87_$LT$core..num..nonzero..NonZero$LT$usize$GT$$u20$as$u20$core..str..traits..FromStr$GT$8from_str17h8e62aaabf4c3d4b8E', symObjAddr: 0x147A0, symBinAddr: 0x10009B654, symSize: 0xFC }
  - { offset: 0xF92D5, size: 0x8, addend: 0x0, symName: '__ZN84_$LT$core..num..nonzero..NonZero$LT$i8$GT$$u20$as$u20$core..str..traits..FromStr$GT$8from_str17hbac4d88d8c47774bE', symObjAddr: 0x1489C, symBinAddr: 0x10009B750, symSize: 0x34 }
  - { offset: 0xF930C, size: 0x8, addend: 0x0, symName: '__ZN85_$LT$core..num..nonzero..NonZero$LT$i16$GT$$u20$as$u20$core..str..traits..FromStr$GT$8from_str17h0a7e51242b020dc6E', symObjAddr: 0x148D0, symBinAddr: 0x10009B784, symSize: 0x40 }
  - { offset: 0xF9343, size: 0x8, addend: 0x0, symName: '__ZN85_$LT$core..num..nonzero..NonZero$LT$i32$GT$$u20$as$u20$core..str..traits..FromStr$GT$8from_str17hd68e4e5de9379ca8E', symObjAddr: 0x14910, symBinAddr: 0x10009B7C4, symSize: 0x44 }
  - { offset: 0xF937A, size: 0x8, addend: 0x0, symName: '__ZN85_$LT$core..num..nonzero..NonZero$LT$i64$GT$$u20$as$u20$core..str..traits..FromStr$GT$8from_str17h702f65c79b112081E', symObjAddr: 0x14954, symBinAddr: 0x10009B808, symSize: 0x64 }
  - { offset: 0xF93D4, size: 0x8, addend: 0x0, symName: '__ZN86_$LT$core..num..nonzero..NonZero$LT$i128$GT$$u20$as$u20$core..str..traits..FromStr$GT$8from_str17h7304d1d56fa09267E', symObjAddr: 0x149B8, symBinAddr: 0x10009B86C, symSize: 0x68 }
  - { offset: 0xF942E, size: 0x8, addend: 0x0, symName: '__ZN87_$LT$core..num..nonzero..NonZero$LT$isize$GT$$u20$as$u20$core..str..traits..FromStr$GT$8from_str17h796026d9ef7ae7efE', symObjAddr: 0x14A20, symBinAddr: 0x10009B8D4, symSize: 0x64 }
  - { offset: 0xF979D, size: 0x8, addend: 0x0, symName: '__ZN4core3num20_$LT$impl$u20$u8$GT$14from_str_radix17h4d97c07797168bc1E', symObjAddr: 0x15174, symBinAddr: 0x10009C028, symSize: 0x210 }
  - { offset: 0xF9898, size: 0x8, addend: 0x0, symName: '__ZN4core3num21_$LT$impl$u20$u16$GT$14from_str_radix17hcb23716c26fb66a7E', symObjAddr: 0x15384, symBinAddr: 0x10009C238, symSize: 0x1F8 }
  - { offset: 0xF9993, size: 0x8, addend: 0x0, symName: '__ZN4core3num21_$LT$impl$u20$u32$GT$14from_str_radix17h721a19915d795d93E', symObjAddr: 0x1557C, symBinAddr: 0x10009C430, symSize: 0x1FC }
  - { offset: 0xF9A8E, size: 0x8, addend: 0x0, symName: '__ZN4core3num21_$LT$impl$u20$u64$GT$14from_str_radix17h191104f15cd90851E', symObjAddr: 0x15778, symBinAddr: 0x10009C62C, symSize: 0x1E0 }
  - { offset: 0xF9B89, size: 0x8, addend: 0x0, symName: '__ZN4core3num22_$LT$impl$u20$u128$GT$14from_str_radix17hda31cc834db2ef15E', symObjAddr: 0x15958, symBinAddr: 0x10009C80C, symSize: 0x23C }
  - { offset: 0xF9CD0, size: 0x8, addend: 0x0, symName: '__ZN4core3num23_$LT$impl$u20$usize$GT$14from_str_radix17he073e7988cbbf7f9E', symObjAddr: 0x16C20, symBinAddr: 0x10009DAD4, symSize: 0x54 }
  - { offset: 0xF9CF8, size: 0x8, addend: 0x0, symName: '__ZN4core3num23_$LT$impl$u20$isize$GT$14from_str_radix17ha7c143638f50bf7bE', symObjAddr: 0x16BCC, symBinAddr: 0x10009DA80, symSize: 0x54 }
  - { offset: 0xF9D12, size: 0x8, addend: 0x0, symName: '__ZN4core3num62_$LT$impl$u20$core..str..traits..FromStr$u20$for$u20$isize$GT$8from_str17h9be7f8c940fb0207E', symObjAddr: 0x14A84, symBinAddr: 0x10009B938, symSize: 0x58 }
  - { offset: 0xF9D49, size: 0x8, addend: 0x0, symName: '__ZN4core3num59_$LT$impl$u20$core..str..traits..FromStr$u20$for$u20$i8$GT$8from_str17hdecb5a4e88c48dfcE', symObjAddr: 0x14ADC, symBinAddr: 0x10009B990, symSize: 0x14 }
  - { offset: 0xF9D6A, size: 0x8, addend: 0x0, symName: '__ZN4core3num60_$LT$impl$u20$core..str..traits..FromStr$u20$for$u20$i16$GT$8from_str17hd5fa92132fa63364E', symObjAddr: 0x14AF0, symBinAddr: 0x10009B9A4, symSize: 0x14 }
  - { offset: 0xF9D8B, size: 0x8, addend: 0x0, symName: '__ZN4core3num60_$LT$impl$u20$core..str..traits..FromStr$u20$for$u20$i32$GT$8from_str17hac74baf05c93edadE', symObjAddr: 0x14B04, symBinAddr: 0x10009B9B8, symSize: 0x14 }
  - { offset: 0xF9DAC, size: 0x8, addend: 0x0, symName: '__ZN4core3num60_$LT$impl$u20$core..str..traits..FromStr$u20$for$u20$i64$GT$8from_str17he0e0479953c74cf5E', symObjAddr: 0x14B18, symBinAddr: 0x10009B9CC, symSize: 0x14 }
  - { offset: 0xF9DCD, size: 0x8, addend: 0x0, symName: '__ZN4core3num61_$LT$impl$u20$core..str..traits..FromStr$u20$for$u20$i128$GT$8from_str17haf42a3de9ebc5ac8E', symObjAddr: 0x14B2C, symBinAddr: 0x10009B9E0, symSize: 0x14 }
  - { offset: 0xF9DEE, size: 0x8, addend: 0x0, symName: '__ZN4core3num62_$LT$impl$u20$core..str..traits..FromStr$u20$for$u20$usize$GT$8from_str17hdd182ed93f0eb039E', symObjAddr: 0x14B40, symBinAddr: 0x10009B9F4, symSize: 0xEC }
  - { offset: 0xF9ED9, size: 0x8, addend: 0x0, symName: '__ZN4core3num59_$LT$impl$u20$core..str..traits..FromStr$u20$for$u20$u8$GT$8from_str17hfe217f745917387eE', symObjAddr: 0x14C2C, symBinAddr: 0x10009BAE0, symSize: 0x114 }
  - { offset: 0xF9FAD, size: 0x8, addend: 0x0, symName: '__ZN4core3num60_$LT$impl$u20$core..str..traits..FromStr$u20$for$u20$u16$GT$8from_str17hc1048b95e6ac4ed2E', symObjAddr: 0x14D40, symBinAddr: 0x10009BBF4, symSize: 0x108 }
  - { offset: 0xFA07A, size: 0x8, addend: 0x0, symName: '__ZN4core3num60_$LT$impl$u20$core..str..traits..FromStr$u20$for$u20$u32$GT$8from_str17hb64dad5765205691E', symObjAddr: 0x14E48, symBinAddr: 0x10009BCFC, symSize: 0x100 }
  - { offset: 0xFA156, size: 0x8, addend: 0x0, symName: '__ZN4core3num60_$LT$impl$u20$core..str..traits..FromStr$u20$for$u20$u64$GT$8from_str17h8985d3cb52cf644aE', symObjAddr: 0x14F48, symBinAddr: 0x10009BDFC, symSize: 0xFC }
  - { offset: 0xFA232, size: 0x8, addend: 0x0, symName: '__ZN4core3num61_$LT$impl$u20$core..str..traits..FromStr$u20$for$u20$u128$GT$8from_str17he6143ed602f7d6f6E', symObjAddr: 0x15044, symBinAddr: 0x10009BEF8, symSize: 0x130 }
  - { offset: 0xFA376, size: 0x8, addend: 0x0, symName: '__ZN4core3num20_$LT$impl$u20$i8$GT$14from_str_radix17h1b3bed9199cd4188E', symObjAddr: 0x15B94, symBinAddr: 0x10009CA48, symSize: 0x2D0 }
  - { offset: 0xFA5D9, size: 0x8, addend: 0x0, symName: '__ZN4core3num21_$LT$impl$u20$i16$GT$14from_str_radix17h54c3364600c91085E', symObjAddr: 0x15E64, symBinAddr: 0x10009CD18, symSize: 0x318 }
  - { offset: 0xFA7CC, size: 0x8, addend: 0x0, symName: '__ZN4core3num21_$LT$impl$u20$i32$GT$14from_str_radix17h196058767b8c3e6eE', symObjAddr: 0x1617C, symBinAddr: 0x10009D030, symSize: 0x368 }
  - { offset: 0xFA9EC, size: 0x8, addend: 0x0, symName: '__ZN4core3num21_$LT$impl$u20$i64$GT$14from_str_radix17h3d73d244237e7adcE', symObjAddr: 0x164E4, symBinAddr: 0x10009D398, symSize: 0x32C }
  - { offset: 0xFAC0C, size: 0x8, addend: 0x0, symName: '__ZN4core3num22_$LT$impl$u20$i128$GT$14from_str_radix17h3ef54c940fd72cefE', symObjAddr: 0x16810, symBinAddr: 0x10009D6C4, symSize: 0x3BC }
  - { offset: 0xFB776, size: 0x8, addend: 0x0, symName: __ZN4core5slice5index26slice_start_index_len_fail17h09adaa8af9c45d77E, symObjAddr: 0xDB40, symBinAddr: 0x1000A6C10, symSize: 0x50 }
  - { offset: 0xFB7C7, size: 0x8, addend: 0x0, symName: __ZN4core5slice5index24slice_end_index_len_fail17hace87fef8ebaa879E, symObjAddr: 0xDB90, symBinAddr: 0x1000A6C60, symSize: 0x50 }
  - { offset: 0xFB818, size: 0x8, addend: 0x0, symName: __ZN4core5slice5index22slice_index_order_fail17h9da95e3287fe1a73E, symObjAddr: 0xDBE0, symBinAddr: 0x1000A6CB0, symSize: 0x50 }
  - { offset: 0xFB85C, size: 0x8, addend: 0x0, symName: __ZN4core5slice5index31slice_start_index_overflow_fail17h5f4fb4740fd0d783E, symObjAddr: 0xDC30, symBinAddr: 0x1000A6D00, symSize: 0x34 }
  - { offset: 0xFB88B, size: 0x8, addend: 0x0, symName: __ZN4core5slice5index29slice_end_index_overflow_fail17hc21cb2becac302eeE, symObjAddr: 0xDC64, symBinAddr: 0x1000A6D34, symSize: 0x34 }
  - { offset: 0xFB8BA, size: 0x8, addend: 0x0, symName: __ZN4core5slice5index10into_range17h337c6ed12ec3d64dE, symObjAddr: 0xDC98, symBinAddr: 0x100094BE0, symSize: 0x68 }
  - { offset: 0xFB922, size: 0x8, addend: 0x0, symName: __ZN4core5slice5index16into_slice_range17h712dc134ae1a862cE, symObjAddr: 0xDD00, symBinAddr: 0x100094C48, symSize: 0x70 }
  - { offset: 0xFBFB1, size: 0x8, addend: 0x0, symName: '__ZN4core5slice29_$LT$impl$u20$$u5b$T$u5d$$GT$15copy_from_slice17len_mismatch_fail17h28c1906e92a1bbf0E', symObjAddr: 0xDD70, symBinAddr: 0x1000A6D68, symSize: 0x54 }
  - { offset: 0xFBFE7, size: 0x8, addend: 0x0, symName: '__ZN4core5slice29_$LT$impl$u20$$u5b$T$u5d$$GT$16align_to_offsets3gcd17h75d441101e1ac7d6E', symObjAddr: 0xDDC4, symBinAddr: 0x100094CB8, symSize: 0x34 }
  - { offset: 0xFC2A5, size: 0x8, addend: 0x0, symName: '__ZN105_$LT$core..slice..ascii..EscapeAscii$u20$as$u20$core..iter..traits..double_ended..DoubleEndedIterator$GT$9next_back17hcc1ea437677d4882E', symObjAddr: 0xD708, symBinAddr: 0x1000947A8, symSize: 0x15C }
  - { offset: 0xFC599, size: 0x8, addend: 0x0, symName: '__ZN70_$LT$core..slice..ascii..EscapeAscii$u20$as$u20$core..fmt..Display$GT$3fmt17hce87d40504788912E', symObjAddr: 0xD864, symBinAddr: 0x100094904, symSize: 0x270 }
  - { offset: 0xFCA6B, size: 0x8, addend: 0x0, symName: '__ZN68_$LT$core..slice..ascii..EscapeAscii$u20$as$u20$core..fmt..Debug$GT$3fmt17h328f07b8530f645eE', symObjAddr: 0xDAD4, symBinAddr: 0x100094B74, symSize: 0x6C }
  - { offset: 0xFCB47, size: 0x8, addend: 0x0, symName: __ZN4core5slice6memchr14memchr_aligned17habb95d53ed733198E, symObjAddr: 0xD490, symBinAddr: 0x100094568, symSize: 0xE8 }
  - { offset: 0xFCBC2, size: 0x8, addend: 0x0, symName: __ZN4core5slice6memchr7memrchr17h7c09f282c8d43a18E, symObjAddr: 0xD578, symBinAddr: 0x100094650, symSize: 0x120 }
  - { offset: 0xFCD2E, size: 0x8, addend: 0x0, symName: __ZN4core5slice4sort6stable5drift11sqrt_approx17hcf58ea2718a1a898E, symObjAddr: 0xD698, symBinAddr: 0x100094770, symSize: 0x38 }
  - { offset: 0xFCDAB, size: 0x8, addend: 0x0, symName: __ZN4core5slice4sort6shared9smallsort22panic_on_ord_violation17hf75f95b80e6d7464E, symObjAddr: 0xD6D0, symBinAddr: 0x1000A6BD8, symSize: 0x38 }
  - { offset: 0xFD31A, size: 0x8, addend: 0x0, symName: '__ZN68_$LT$core..ptr..alignment..Alignment$u20$as$u20$core..fmt..Debug$GT$3fmt17hcc7dce9bd226a2d9E', symObjAddr: 0x4304, symBinAddr: 0x10008B910, symSize: 0x78 }
  - { offset: 0xFD6C1, size: 0x8, addend: 0x0, symName: __ZN4core10intrinsics3mir11PtrMetadata19panic_cold_explicit17h940fea140c5c4fd9E, symObjAddr: 0x16C74, symBinAddr: 0x1000A6DFC, symSize: 0xC }
  - { offset: 0xFD790, size: 0x8, addend: 0x0, symName: '__ZN42_$LT$str$u20$as$u20$core..fmt..Display$GT$3fmt17h14b09b2136c51b18E', symObjAddr: 0xD108, symBinAddr: 0x1000941E0, symSize: 0x20 }
  - { offset: 0xFDDDE, size: 0x8, addend: 0x0, symName: __ZN4core3fmt9Formatter12pad_integral17h9c8ca8356d09ee41E, symObjAddr: 0xB1A0, symBinAddr: 0x100092278, symSize: 0x3D8 }
  - { offset: 0xFE09D, size: 0x8, addend: 0x0, symName: __ZN4core3fmt9Formatter3pad17ha16951b7d2682cf7E, symObjAddr: 0xB5F4, symBinAddr: 0x1000926CC, symSize: 0x37C }
  - { offset: 0xFE55A, size: 0x8, addend: 0x0, symName: __ZN4core3fmt9Formatter19pad_formatted_parts17h7346a5b6be4e8f01E, symObjAddr: 0xB970, symBinAddr: 0x100092A48, symSize: 0x21C }
  - { offset: 0xFE700, size: 0x8, addend: 0x0, symName: __ZN4core3fmt9Formatter21write_formatted_parts17h62b5f1bd4adef792E, symObjAddr: 0xBB8C, symBinAddr: 0x100092C64, symSize: 0x23C }
  - { offset: 0xFE7E5, size: 0x8, addend: 0x0, symName: __ZN4core3fmt9Formatter9write_str17h63c3ec7427df42c3E, symObjAddr: 0xBDC8, symBinAddr: 0x100092EA0, symSize: 0x1C }
  - { offset: 0xFE7F9, size: 0x8, addend: 0x0, symName: __ZN4core3fmt9Formatter12debug_struct17h69b8155eb75b69d7E, symObjAddr: 0xBDE4, symBinAddr: 0x100092EBC, symSize: 0x3C }
  - { offset: 0xFE838, size: 0x8, addend: 0x0, symName: __ZN4core3fmt9Formatter26debug_struct_field1_finish17h7d5c60d1c38fd9a8E, symObjAddr: 0xBE20, symBinAddr: 0x100092EF8, symSize: 0xD0 }
  - { offset: 0xFE90F, size: 0x8, addend: 0x0, symName: __ZN4core3fmt9Formatter26debug_struct_field2_finish17h74739c5309b72b6dE, symObjAddr: 0xBEF0, symBinAddr: 0x100092FC8, symSize: 0x104 }
  - { offset: 0xFE9E6, size: 0x8, addend: 0x0, symName: __ZN4core3fmt9Formatter26debug_struct_field3_finish17haa82658f71b52464E, symObjAddr: 0xBFF4, symBinAddr: 0x1000930CC, symSize: 0x12C }
  - { offset: 0xFEABD, size: 0x8, addend: 0x0, symName: __ZN4core3fmt9Formatter26debug_struct_field4_finish17h8f563ca64b0bde12E, symObjAddr: 0xC120, symBinAddr: 0x1000931F8, symSize: 0x15C }
  - { offset: 0xFEB94, size: 0x8, addend: 0x0, symName: __ZN4core3fmt9Formatter26debug_struct_field5_finish17h0e601909249ec8f4E, symObjAddr: 0xC27C, symBinAddr: 0x100093354, symSize: 0x180 }
  - { offset: 0xFEC6B, size: 0x8, addend: 0x0, symName: __ZN4core3fmt9Formatter26debug_struct_fields_finish17h08b0e7cc894c8971E, symObjAddr: 0xC3FC, symBinAddr: 0x1000934D4, symSize: 0xFC }
  - { offset: 0xFED5D, size: 0x8, addend: 0x0, symName: __ZN4core3fmt9Formatter11debug_tuple17h9180a6a45d78fb65E, symObjAddr: 0xC4F8, symBinAddr: 0x1000935D0, symSize: 0x50 }
  - { offset: 0xFEDB2, size: 0x8, addend: 0x0, symName: __ZN4core3fmt9Formatter25debug_tuple_field1_finish17hcf7a6e8d9d1f867dE, symObjAddr: 0xC548, symBinAddr: 0x100093620, symSize: 0xEC }
  - { offset: 0xFEE88, size: 0x8, addend: 0x0, symName: __ZN4core3fmt9Formatter25debug_tuple_field2_finish17h1866cec65a76ae5eE, symObjAddr: 0xC634, symBinAddr: 0x10009370C, symSize: 0x10C }
  - { offset: 0xFEF5E, size: 0x8, addend: 0x0, symName: __ZN4core3fmt9Formatter25debug_tuple_field3_finish17h4cda1709c71f7719E, symObjAddr: 0xC740, symBinAddr: 0x100093818, symSize: 0x12C }
  - { offset: 0xFF034, size: 0x8, addend: 0x0, symName: __ZN4core3fmt9Formatter25debug_tuple_field4_finish17h11ec8338c8c0157cE, symObjAddr: 0xC86C, symBinAddr: 0x100093944, symSize: 0x148 }
  - { offset: 0xFF10A, size: 0x8, addend: 0x0, symName: __ZN4core3fmt9Formatter25debug_tuple_field5_finish17h878cdf23ef4fa6cfE, symObjAddr: 0xC9B4, symBinAddr: 0x100093A8C, symSize: 0x164 }
  - { offset: 0xFF1E0, size: 0x8, addend: 0x0, symName: __ZN4core3fmt9Formatter25debug_tuple_fields_finish17h40ec780b66187132E, symObjAddr: 0xCB18, symBinAddr: 0x100093BF0, symSize: 0x114 }
  - { offset: 0xFF317, size: 0x8, addend: 0x0, symName: __ZN4core3fmt9Formatter10debug_list17h532916e595297b31E, symObjAddr: 0xCC2C, symBinAddr: 0x100093D04, symSize: 0x48 }
  - { offset: 0xFF357, size: 0x8, addend: 0x0, symName: __ZN4core3fmt9Formatter9debug_set17h8328ce1d5bf71244E, symObjAddr: 0xCC74, symBinAddr: 0x100093D4C, symSize: 0x48 }
  - { offset: 0xFF39E, size: 0x8, addend: 0x0, symName: __ZN4core3fmt9Formatter9debug_map17haf55d4ac40eaec57E, symObjAddr: 0xCCBC, symBinAddr: 0x100093D94, symSize: 0x58 }
  - { offset: 0xFF580, size: 0x8, addend: 0x0, symName: __ZN4core3fmt8builders11DebugStruct5field17h7ff8e911eb188324E, symObjAddr: 0x80DC, symBinAddr: 0x10008F1B4, symSize: 0x1C4 }
  - { offset: 0xFF784, size: 0x8, addend: 0x0, symName: __ZN4core3fmt8builders11DebugStruct21finish_non_exhaustive17h62424373ad9e838bE, symObjAddr: 0x82A0, symBinAddr: 0x10008F378, symSize: 0xC4 }
  - { offset: 0xFF894, size: 0x8, addend: 0x0, symName: __ZN4core3fmt8builders11DebugStruct6finish17h04604717d5347e9cE, symObjAddr: 0x8364, symBinAddr: 0x10008F43C, symSize: 0x80 }
  - { offset: 0xFF995, size: 0x8, addend: 0x0, symName: __ZN4core3fmt8builders10PadAdapter4wrap17hf86607394efd582eE, symObjAddr: 0x7DCC, symBinAddr: 0x10008EEA4, symSize: 0x40 }
  - { offset: 0xFF9FC, size: 0x8, addend: 0x0, symName: '__ZN68_$LT$core..fmt..builders..PadAdapter$u20$as$u20$core..fmt..Write$GT$9write_str17hd65d345e1b6f891dE', symObjAddr: 0x7E0C, symBinAddr: 0x10008EEE4, symSize: 0x250 }
  - { offset: 0xFFC79, size: 0x8, addend: 0x0, symName: '__ZN68_$LT$core..fmt..builders..PadAdapter$u20$as$u20$core..fmt..Write$GT$10write_char17h96017e9fc4faedcaE', symObjAddr: 0x805C, symBinAddr: 0x10008F134, symSize: 0x80 }
  - { offset: 0xFFD38, size: 0x8, addend: 0x0, symName: __ZN4core3fmt8builders10DebugTuple5field17h9d50a3632f077675E, symObjAddr: 0x83E4, symBinAddr: 0x10008F4BC, symSize: 0x15C }
  - { offset: 0xFFEC3, size: 0x8, addend: 0x0, symName: __ZN4core3fmt8builders10DebugTuple21finish_non_exhaustive17hc2cddc171a18cba4E, symObjAddr: 0x8540, symBinAddr: 0x10008F618, symSize: 0xC0 }
  - { offset: 0x100000, size: 0x8, addend: 0x0, symName: __ZN4core3fmt8builders10DebugTuple6finish17h33008b9c152709edE, symObjAddr: 0x8600, symBinAddr: 0x10008F6D8, symSize: 0xB0 }
  - { offset: 0x10017D, size: 0x8, addend: 0x0, symName: __ZN4core3fmt8builders8DebugSet5entry17h9fcf40d66ceb972aE, symObjAddr: 0x86B0, symBinAddr: 0x10008F788, symSize: 0x150 }
  - { offset: 0x100308, size: 0x8, addend: 0x0, symName: __ZN4core3fmt8builders8DebugSet21finish_non_exhaustive17h832392bbbf1b21afE, symObjAddr: 0x8800, symBinAddr: 0x10008F8D8, symSize: 0xC4 }
  - { offset: 0x100427, size: 0x8, addend: 0x0, symName: __ZN4core3fmt8builders8DebugSet6finish17h735f85de9eb4547cE, symObjAddr: 0x88C4, symBinAddr: 0x10008F99C, symSize: 0x4C }
  - { offset: 0x1004B0, size: 0x8, addend: 0x0, symName: __ZN4core3fmt8builders9DebugList21finish_non_exhaustive17hb746be46314d938eE, symObjAddr: 0x8910, symBinAddr: 0x10008F9E8, symSize: 0xC8 }
  - { offset: 0x1005D7, size: 0x8, addend: 0x0, symName: __ZN4core3fmt8builders9DebugList6finish17h3d36d9a522031b21E, symObjAddr: 0x89D8, symBinAddr: 0x10008FAB0, symSize: 0x4C }
  - { offset: 0x100647, size: 0x8, addend: 0x0, symName: __ZN4core3fmt8builders8DebugMap5entry17hb2fb47b1de44391eE, symObjAddr: 0x8A24, symBinAddr: 0x10008FAFC, symSize: 0x2C }
  - { offset: 0x10067E, size: 0x8, addend: 0x0, symName: __ZN4core3fmt8builders8DebugMap3key17h4139ab51b64b5f6fE, symObjAddr: 0x8A50, symBinAddr: 0x10008FB28, symSize: 0x1DC }
  - { offset: 0x100859, size: 0x8, addend: 0x0, symName: __ZN4core3fmt8builders8DebugMap5value17h74e2bb0b17892ea9E, symObjAddr: 0x8C2C, symBinAddr: 0x10008FD04, symSize: 0x118 }
  - { offset: 0x1009B1, size: 0x8, addend: 0x0, symName: __ZN4core3fmt8builders8DebugMap21finish_non_exhaustive17hed5fe972c64fb7f8E, symObjAddr: 0x8D44, symBinAddr: 0x10008FE1C, symSize: 0xF8 }
  - { offset: 0x100AE4, size: 0x8, addend: 0x0, symName: __ZN4core3fmt8builders8DebugMap6finish17hdb73ecc34c4f52e2E, symObjAddr: 0x8E3C, symBinAddr: 0x10008FF14, symSize: 0x88 }
  - { offset: 0x100C10, size: 0x8, addend: 0x0, symName: '__ZN57_$LT$core..fmt..Formatter$u20$as$u20$core..fmt..Write$GT$10write_char17h468bea102974991dE', symObjAddr: 0xCD14, symBinAddr: 0x100093DEC, symSize: 0x1C }
  - { offset: 0x100CAB, size: 0x8, addend: 0x0, symName: __ZN4core3fmt5Write10write_char17h20b4677caa33eba3E, symObjAddr: 0xA984, symBinAddr: 0x100091A5C, symSize: 0x158 }
  - { offset: 0x100D8F, size: 0x8, addend: 0x0, symName: __ZN4core3fmt5Write10write_char17hb04f42e51ccf6559E, symObjAddr: 0xAADC, symBinAddr: 0x100091BB4, symSize: 0x158 }
  - { offset: 0x100E73, size: 0x8, addend: 0x0, symName: __ZN4core3fmt5Write10write_char17hf40fb570ee9c30f0E, symObjAddr: 0xAC34, symBinAddr: 0x100091D0C, symSize: 0x158 }
  - { offset: 0x100F57, size: 0x8, addend: 0x0, symName: __ZN4core3fmt5Write10write_char17hfbdfa0b0e2ae116dE, symObjAddr: 0xAD8C, symBinAddr: 0x100091E64, symSize: 0x158 }
  - { offset: 0x10103B, size: 0x8, addend: 0x0, symName: __ZN4core3fmt5Write9write_fmt17h1131efa77a78d81cE, symObjAddr: 0xAEE4, symBinAddr: 0x100091FBC, symSize: 0x1C }
  - { offset: 0x10106A, size: 0x8, addend: 0x0, symName: __ZN4core3fmt5Write9write_fmt17h2a28941d818aae51E, symObjAddr: 0xAF00, symBinAddr: 0x100091FD8, symSize: 0x1C }
  - { offset: 0x101099, size: 0x8, addend: 0x0, symName: __ZN4core3fmt5Write9write_fmt17h86594e12a4b5c2c3E, symObjAddr: 0xAF1C, symBinAddr: 0x100091FF4, symSize: 0x1C }
  - { offset: 0x1010C8, size: 0x8, addend: 0x0, symName: __ZN4core3fmt5Write9write_fmt17h96b3ac15480e1540E, symObjAddr: 0xAF38, symBinAddr: 0x100092010, symSize: 0x1C }
  - { offset: 0x1010F7, size: 0x8, addend: 0x0, symName: __ZN4core3fmt5Write9write_fmt17h96bca65bd8bdc463E, symObjAddr: 0xAF54, symBinAddr: 0x10009202C, symSize: 0x1C }
  - { offset: 0x10117A, size: 0x8, addend: 0x0, symName: '__ZN43_$LT$bool$u20$as$u20$core..fmt..Display$GT$3fmt17hd16434f3f9b8c527E', symObjAddr: 0xCD50, symBinAddr: 0x100093E28, symSize: 0x44 }
  - { offset: 0x1011D3, size: 0x8, addend: 0x0, symName: __ZN4core3fmt5float29float_to_decimal_common_exact17h115d397f254631d6E, symObjAddr: 0x8EC4, symBinAddr: 0x10008FF9C, symSize: 0x2F8 }
  - { offset: 0x101292, size: 0x8, addend: 0x0, symName: __ZN4core3fmt5float29float_to_decimal_common_exact17h16a67861b0900a8eE, symObjAddr: 0x91BC, symBinAddr: 0x100090294, symSize: 0x2F4 }
  - { offset: 0x101351, size: 0x8, addend: 0x0, symName: __ZN4core3fmt5float32float_to_decimal_common_shortest17h1d29b2c3bfb24d5cE, symObjAddr: 0x94B0, symBinAddr: 0x100090588, symSize: 0x244 }
  - { offset: 0x10140A, size: 0x8, addend: 0x0, symName: __ZN4core3fmt5float32float_to_decimal_common_shortest17h4d44713895a45ef6E, symObjAddr: 0x96F4, symBinAddr: 0x1000907CC, symSize: 0x248 }
  - { offset: 0x1014C3, size: 0x8, addend: 0x0, symName: __ZN4core3fmt5float33float_to_exponential_common_exact17h3555eaee143e9ffcE, symObjAddr: 0x993C, symBinAddr: 0x100090A14, symSize: 0x334 }
  - { offset: 0x1015AB, size: 0x8, addend: 0x0, symName: __ZN4core3fmt5float33float_to_exponential_common_exact17h3ffe83d474cb1910E, symObjAddr: 0x9C70, symBinAddr: 0x100090D48, symSize: 0x338 }
  - { offset: 0x101693, size: 0x8, addend: 0x0, symName: __ZN4core3fmt5float36float_to_exponential_common_shortest17h043a52a7d566c7d5E, symObjAddr: 0x9FA8, symBinAddr: 0x100091080, symSize: 0x234 }
  - { offset: 0x10175B, size: 0x8, addend: 0x0, symName: __ZN4core3fmt5float36float_to_exponential_common_shortest17h6712bc626d44fef4E, symObjAddr: 0xA1DC, symBinAddr: 0x1000912B4, symSize: 0x230 }
  - { offset: 0x101848, size: 0x8, addend: 0x0, symName: '__ZN4core3fmt5float50_$LT$impl$u20$core..fmt..Debug$u20$for$u20$f32$GT$3fmt17h1049e010484a4039E', symObjAddr: 0x17EF4, symBinAddr: 0x10009E9F4, symSize: 0xA0 }
  - { offset: 0x1018C1, size: 0x8, addend: 0x0, symName: '__ZN4core3fmt5float52_$LT$impl$u20$core..fmt..Display$u20$for$u20$f32$GT$3fmt17h8f0d8cfd723e85a0E', symObjAddr: 0x17F94, symBinAddr: 0x10009EA94, symSize: 0x48 }
  - { offset: 0x101911, size: 0x8, addend: 0x0, symName: '__ZN4core3fmt5float53_$LT$impl$u20$core..fmt..LowerExp$u20$for$u20$f32$GT$3fmt17h4b82a81d9017b189E', symObjAddr: 0x17FDC, symBinAddr: 0x10009EADC, symSize: 0x50 }
  - { offset: 0x101954, size: 0x8, addend: 0x0, symName: '__ZN4core3fmt5float53_$LT$impl$u20$core..fmt..UpperExp$u20$for$u20$f32$GT$3fmt17h79d83cb8cb9907e0E', symObjAddr: 0x1802C, symBinAddr: 0x10009EB2C, symSize: 0x50 }
  - { offset: 0x1019B7, size: 0x8, addend: 0x0, symName: '__ZN4core3fmt5float50_$LT$impl$u20$core..fmt..Debug$u20$for$u20$f64$GT$3fmt17h36a98c5cee4adac8E', symObjAddr: 0x1807C, symBinAddr: 0x10009EB7C, symSize: 0xB0 }
  - { offset: 0x101A30, size: 0x8, addend: 0x0, symName: '__ZN4core3fmt5float52_$LT$impl$u20$core..fmt..Display$u20$for$u20$f64$GT$3fmt17h249e181677c2a520E', symObjAddr: 0x1812C, symBinAddr: 0x10009EC2C, symSize: 0x48 }
  - { offset: 0x101A80, size: 0x8, addend: 0x0, symName: '__ZN4core3fmt5float53_$LT$impl$u20$core..fmt..LowerExp$u20$for$u20$f64$GT$3fmt17hea0234efb8741965E', symObjAddr: 0x18174, symBinAddr: 0x10009EC74, symSize: 0x50 }
  - { offset: 0x101AC3, size: 0x8, addend: 0x0, symName: '__ZN4core3fmt5float53_$LT$impl$u20$core..fmt..UpperExp$u20$for$u20$f64$GT$3fmt17h7eed48a79dfe5214E', symObjAddr: 0x181C4, symBinAddr: 0x10009ECC4, symSize: 0x50 }
  - { offset: 0x101B07, size: 0x8, addend: 0x0, symName: __ZN4core3fmt3num14parse_u64_into17hb6b900b358bb8825E, symObjAddr: 0xA40C, symBinAddr: 0x1000914E4, symSize: 0x3A0 }
  - { offset: 0x101CDA, size: 0x8, addend: 0x0, symName: '__ZN4core3fmt3num53_$LT$impl$u20$core..fmt..Display$u20$for$u20$u128$GT$3fmt17h759e313c0ed97b75E', symObjAddr: 0xA7AC, symBinAddr: 0x100091884, symSize: 0x1C }
  - { offset: 0x101D02, size: 0x8, addend: 0x0, symName: '__ZN4core3fmt3num53_$LT$impl$u20$core..fmt..Display$u20$for$u20$i128$GT$3fmt17hde450407dbba8e59E', symObjAddr: 0xA7C8, symBinAddr: 0x1000918A0, symSize: 0x34 }
  - { offset: 0x101D41, size: 0x8, addend: 0x0, symName: __ZN4core3fmt3num8fmt_u12817h6b9d66744d756395E, symObjAddr: 0xA7FC, symBinAddr: 0x1000918D4, symSize: 0x188 }
  - { offset: 0x101F62, size: 0x8, addend: 0x0, symName: '__ZN73_$LT$core..fmt..num..LowerHex$u20$as$u20$core..fmt..num..GenericRadix$GT$5digit17hff8d06a3dbf20caeE', symObjAddr: 0x182EC, symBinAddr: 0x10009EDEC, symSize: 0x7C }
  - { offset: 0x101FB1, size: 0x8, addend: 0x0, symName: '__ZN4core3fmt3num52_$LT$impl$u20$core..fmt..LowerHex$u20$for$u20$i8$GT$3fmt17h4ed169e6230ce018E', symObjAddr: 0x184FC, symBinAddr: 0x10009EFFC, symSize: 0x9C }
  - { offset: 0x1020AD, size: 0x8, addend: 0x0, symName: '__ZN4core3fmt3num52_$LT$impl$u20$core..fmt..UpperHex$u20$for$u20$i8$GT$3fmt17h72e63b61ef78fbc7E', symObjAddr: 0x18598, symBinAddr: 0x10009F098, symSize: 0x9C }
  - { offset: 0x1021A9, size: 0x8, addend: 0x0, symName: '__ZN73_$LT$core..fmt..num..UpperHex$u20$as$u20$core..fmt..num..GenericRadix$GT$5digit17h0474f0aea895d191E', symObjAddr: 0x18368, symBinAddr: 0x10009EE68, symSize: 0x7C }
  - { offset: 0x102210, size: 0x8, addend: 0x0, symName: '__ZN4core3fmt3num3imp51_$LT$impl$u20$core..fmt..Display$u20$for$u20$u8$GT$3fmt17hc314125b2b3860f7E', symObjAddr: 0x196F0, symBinAddr: 0x1000A01F0, symSize: 0xA8 }
  - { offset: 0x1022C9, size: 0x8, addend: 0x0, symName: '__ZN4core3fmt3num3imp52_$LT$impl$u20$core..fmt..Display$u20$for$u20$u16$GT$3fmt17hf35e4492f58264deE', symObjAddr: 0x199B8, symBinAddr: 0x1000A04B8, symSize: 0x110 }
  - { offset: 0x102384, size: 0x8, addend: 0x0, symName: '__ZN4core3fmt3num3imp52_$LT$impl$u20$core..fmt..Display$u20$for$u20$u32$GT$3fmt17hd6c809fd627347a7E', symObjAddr: 0x19D28, symBinAddr: 0x1000A0828, symSize: 0x13C }
  - { offset: 0x102450, size: 0x8, addend: 0x0, symName: '__ZN4core3fmt3num3imp52_$LT$impl$u20$core..fmt..Display$u20$for$u20$u64$GT$3fmt17h933792634702d73eE', symObjAddr: 0x1A0D8, symBinAddr: 0x1000A0BD8, symSize: 0x13C }
  - { offset: 0x102522, size: 0x8, addend: 0x0, symName: '__ZN4core3fmt3num3imp51_$LT$impl$u20$core..fmt..Display$u20$for$u20$i8$GT$3fmt17h085ed3912771dee1E', symObjAddr: 0x195C8, symBinAddr: 0x1000A00C8, symSize: 0x128 }
  - { offset: 0x102656, size: 0x8, addend: 0x0, symName: '__ZN4core3fmt3num3imp52_$LT$impl$u20$core..fmt..Display$u20$for$u20$i16$GT$3fmt17h3d8240010ae355c2E', symObjAddr: 0x19798, symBinAddr: 0x1000A0298, symSize: 0x220 }
  - { offset: 0x1027DE, size: 0x8, addend: 0x0, symName: '__ZN4core3fmt3num3imp52_$LT$impl$u20$core..fmt..Display$u20$for$u20$i32$GT$3fmt17h8cf700f0ed8d8c38E', symObjAddr: 0x19AC8, symBinAddr: 0x1000A05C8, symSize: 0x260 }
  - { offset: 0x10293C, size: 0x8, addend: 0x0, symName: '__ZN4core3fmt3num3imp52_$LT$impl$u20$core..fmt..Display$u20$for$u20$i64$GT$3fmt17h7d3694b0a7d6cd36E', symObjAddr: 0x19E64, symBinAddr: 0x1000A0964, symSize: 0x274 }
  - { offset: 0x102A82, size: 0x8, addend: 0x0, symName: __ZN4core3fmt3num3imp7exp_u6417hff48f7c9820a7bc5E, symObjAddr: 0x1A214, symBinAddr: 0x1000A0D14, symSize: 0x484 }
  - { offset: 0x102C4E, size: 0x8, addend: 0x0, symName: '__ZN4core3fmt3num3imp52_$LT$impl$u20$core..fmt..LowerExp$u20$for$u20$i8$GT$3fmt17hfd1463c669fedc2aE', symObjAddr: 0x1A698, symBinAddr: 0x1000A1198, symSize: 0x2C }
  - { offset: 0x102C6F, size: 0x8, addend: 0x0, symName: '__ZN4core3fmt3num3imp52_$LT$impl$u20$core..fmt..LowerExp$u20$for$u20$u8$GT$3fmt17h47beb4eb78b3dc99E', symObjAddr: 0x1A6C4, symBinAddr: 0x1000A11C4, symSize: 0x20 }
  - { offset: 0x102C90, size: 0x8, addend: 0x0, symName: '__ZN4core3fmt3num3imp53_$LT$impl$u20$core..fmt..LowerExp$u20$for$u20$i16$GT$3fmt17h5bb5acf8c5d38860E', symObjAddr: 0x1A6E4, symBinAddr: 0x1000A11E4, symSize: 0x2C }
  - { offset: 0x102CB1, size: 0x8, addend: 0x0, symName: '__ZN4core3fmt3num3imp53_$LT$impl$u20$core..fmt..LowerExp$u20$for$u20$u16$GT$3fmt17h247b384b893aa55dE', symObjAddr: 0x1A710, symBinAddr: 0x1000A1210, symSize: 0x20 }
  - { offset: 0x102CD2, size: 0x8, addend: 0x0, symName: '__ZN4core3fmt3num3imp53_$LT$impl$u20$core..fmt..LowerExp$u20$for$u20$i32$GT$3fmt17h46177479b08b35ddE', symObjAddr: 0x1A730, symBinAddr: 0x1000A1230, symSize: 0x2C }
  - { offset: 0x102CF3, size: 0x8, addend: 0x0, symName: '__ZN4core3fmt3num3imp53_$LT$impl$u20$core..fmt..LowerExp$u20$for$u20$u32$GT$3fmt17h0b8e7c7963903a9bE', symObjAddr: 0x1A75C, symBinAddr: 0x1000A125C, symSize: 0x20 }
  - { offset: 0x102D14, size: 0x8, addend: 0x0, symName: '__ZN4core3fmt3num3imp53_$LT$impl$u20$core..fmt..LowerExp$u20$for$u20$i64$GT$3fmt17hc517395881c20065E', symObjAddr: 0x1A77C, symBinAddr: 0x1000A127C, symSize: 0x2C }
  - { offset: 0x102D35, size: 0x8, addend: 0x0, symName: '__ZN4core3fmt3num3imp53_$LT$impl$u20$core..fmt..LowerExp$u20$for$u20$u64$GT$3fmt17h041b24e8824e3e4cE', symObjAddr: 0x1A7A8, symBinAddr: 0x1000A12A8, symSize: 0x20 }
  - { offset: 0x102D56, size: 0x8, addend: 0x0, symName: '__ZN4core3fmt3num3imp52_$LT$impl$u20$core..fmt..UpperExp$u20$for$u20$i8$GT$3fmt17hd7faafb233f13533E', symObjAddr: 0x1A7C8, symBinAddr: 0x1000A12C8, symSize: 0x2C }
  - { offset: 0x102D77, size: 0x8, addend: 0x0, symName: '__ZN4core3fmt3num3imp52_$LT$impl$u20$core..fmt..UpperExp$u20$for$u20$u8$GT$3fmt17he7d5eb6675265e1bE', symObjAddr: 0x1A7F4, symBinAddr: 0x1000A12F4, symSize: 0x20 }
  - { offset: 0x102D98, size: 0x8, addend: 0x0, symName: '__ZN4core3fmt3num3imp53_$LT$impl$u20$core..fmt..UpperExp$u20$for$u20$i16$GT$3fmt17h8aed35a5a3df9ca9E', symObjAddr: 0x1A814, symBinAddr: 0x1000A1314, symSize: 0x2C }
  - { offset: 0x102DB9, size: 0x8, addend: 0x0, symName: '__ZN4core3fmt3num3imp53_$LT$impl$u20$core..fmt..UpperExp$u20$for$u20$u16$GT$3fmt17h8015e4730c1f834fE', symObjAddr: 0x1A840, symBinAddr: 0x1000A1340, symSize: 0x20 }
  - { offset: 0x102DDA, size: 0x8, addend: 0x0, symName: '__ZN4core3fmt3num3imp53_$LT$impl$u20$core..fmt..UpperExp$u20$for$u20$i32$GT$3fmt17h0d5c872a1dcada42E', symObjAddr: 0x1A860, symBinAddr: 0x1000A1360, symSize: 0x2C }
  - { offset: 0x102DFB, size: 0x8, addend: 0x0, symName: '__ZN4core3fmt3num3imp53_$LT$impl$u20$core..fmt..UpperExp$u20$for$u20$u32$GT$3fmt17hdc4962002209cb16E', symObjAddr: 0x1A88C, symBinAddr: 0x1000A138C, symSize: 0x20 }
  - { offset: 0x102E1C, size: 0x8, addend: 0x0, symName: '__ZN4core3fmt3num3imp53_$LT$impl$u20$core..fmt..UpperExp$u20$for$u20$i64$GT$3fmt17h5aa47d7ad33463c8E', symObjAddr: 0x1A8AC, symBinAddr: 0x1000A13AC, symSize: 0x2C }
  - { offset: 0x102E3D, size: 0x8, addend: 0x0, symName: '__ZN4core3fmt3num3imp53_$LT$impl$u20$core..fmt..UpperExp$u20$for$u20$u64$GT$3fmt17h9078588b6498fc8dE', symObjAddr: 0x1A8D8, symBinAddr: 0x1000A13D8, symSize: 0x20 }
  - { offset: 0x102EA5, size: 0x8, addend: 0x0, symName: '__ZN4core3fmt3num53_$LT$impl$u20$core..fmt..LowerHex$u20$for$u20$i16$GT$3fmt17h1c518d31c554d1c1E', symObjAddr: 0x1874C, symBinAddr: 0x10009F24C, symSize: 0x9C }
  - { offset: 0x102FAD, size: 0x8, addend: 0x0, symName: '__ZN4core3fmt3num53_$LT$impl$u20$core..fmt..UpperHex$u20$for$u20$i16$GT$3fmt17haeff63f80cd3d13fE', symObjAddr: 0x187E8, symBinAddr: 0x10009F2E8, symSize: 0x9C }
  - { offset: 0x1030EE, size: 0x8, addend: 0x0, symName: '__ZN4core3fmt3num53_$LT$impl$u20$core..fmt..LowerHex$u20$for$u20$i32$GT$3fmt17h586e9ec438f7201eE', symObjAddr: 0x1899C, symBinAddr: 0x10009F49C, symSize: 0x9C }
  - { offset: 0x1031F6, size: 0x8, addend: 0x0, symName: '__ZN4core3fmt3num53_$LT$impl$u20$core..fmt..UpperHex$u20$for$u20$i32$GT$3fmt17hc8e8f19989b6b712E', symObjAddr: 0x18A38, symBinAddr: 0x10009F538, symSize: 0x9C }
  - { offset: 0x1032FE, size: 0x8, addend: 0x0, symName: '__ZN4core3fmt3num53_$LT$impl$u20$core..fmt..LowerHex$u20$for$u20$i64$GT$3fmt17h86eef6960ac5e14cE', symObjAddr: 0x18BEC, symBinAddr: 0x10009F6EC, symSize: 0x9C }
  - { offset: 0x103406, size: 0x8, addend: 0x0, symName: '__ZN4core3fmt3num53_$LT$impl$u20$core..fmt..UpperHex$u20$for$u20$i64$GT$3fmt17hfd687de257dcf426E', symObjAddr: 0x18C88, symBinAddr: 0x10009F788, symSize: 0x9C }
  - { offset: 0x10350E, size: 0x8, addend: 0x0, symName: '__ZN4core3fmt3num54_$LT$impl$u20$core..fmt..LowerHex$u20$for$u20$i128$GT$3fmt17h6375c21cab848cafE', symObjAddr: 0x18E54, symBinAddr: 0x10009F954, symSize: 0xA8 }
  - { offset: 0x10364B, size: 0x8, addend: 0x0, symName: '__ZN4core3fmt3num54_$LT$impl$u20$core..fmt..UpperHex$u20$for$u20$i128$GT$3fmt17hd36e1b61d6701e13E', symObjAddr: 0x18EFC, symBinAddr: 0x10009F9FC, symSize: 0xA8 }
  - { offset: 0x1037A1, size: 0x8, addend: 0x0, symName: '__ZN71_$LT$core..fmt..num..Binary$u20$as$u20$core..fmt..num..GenericRadix$GT$5digit17h18c9daa7221a244aE', symObjAddr: 0x18214, symBinAddr: 0x10009ED14, symSize: 0x6C }
  - { offset: 0x1037DD, size: 0x8, addend: 0x0, symName: '__ZN70_$LT$core..fmt..num..Octal$u20$as$u20$core..fmt..num..GenericRadix$GT$5digit17hc421e73137a7da30E', symObjAddr: 0x18280, symBinAddr: 0x10009ED80, symSize: 0x6C }
  - { offset: 0x103819, size: 0x8, addend: 0x0, symName: '__ZN4core3fmt3num50_$LT$impl$u20$core..fmt..Binary$u20$for$u20$i8$GT$3fmt17hc9a4a7f47c3210e3E', symObjAddr: 0x183E4, symBinAddr: 0x10009EEE4, symSize: 0x8C }
  - { offset: 0x103915, size: 0x8, addend: 0x0, symName: '__ZN4core3fmt3num49_$LT$impl$u20$core..fmt..Octal$u20$for$u20$i8$GT$3fmt17hac4769883c049300E', symObjAddr: 0x18470, symBinAddr: 0x10009EF70, symSize: 0x8C }
  - { offset: 0x103A11, size: 0x8, addend: 0x0, symName: '__ZN4core3fmt3num51_$LT$impl$u20$core..fmt..Binary$u20$for$u20$i16$GT$3fmt17hedbfe99deb535980E', symObjAddr: 0x18634, symBinAddr: 0x10009F134, symSize: 0x8C }
  - { offset: 0x103AF2, size: 0x8, addend: 0x0, symName: '__ZN4core3fmt3num50_$LT$impl$u20$core..fmt..Octal$u20$for$u20$i16$GT$3fmt17h3915a11b53c9cfdaE', symObjAddr: 0x186C0, symBinAddr: 0x10009F1C0, symSize: 0x8C }
  - { offset: 0x103BD3, size: 0x8, addend: 0x0, symName: '__ZN4core3fmt3num51_$LT$impl$u20$core..fmt..Binary$u20$for$u20$i32$GT$3fmt17hba0de9d7c4c264e7E', symObjAddr: 0x18884, symBinAddr: 0x10009F384, symSize: 0x8C }
  - { offset: 0x103CB4, size: 0x8, addend: 0x0, symName: '__ZN4core3fmt3num50_$LT$impl$u20$core..fmt..Octal$u20$for$u20$i32$GT$3fmt17hf25ae6c995c7def7E', symObjAddr: 0x18910, symBinAddr: 0x10009F410, symSize: 0x8C }
  - { offset: 0x103D95, size: 0x8, addend: 0x0, symName: '__ZN4core3fmt3num51_$LT$impl$u20$core..fmt..Binary$u20$for$u20$i64$GT$3fmt17hfb621dd728229d92E', symObjAddr: 0x18AD4, symBinAddr: 0x10009F5D4, symSize: 0x8C }
  - { offset: 0x103E76, size: 0x8, addend: 0x0, symName: '__ZN4core3fmt3num50_$LT$impl$u20$core..fmt..Octal$u20$for$u20$i64$GT$3fmt17h7e209748811ad05bE', symObjAddr: 0x18B60, symBinAddr: 0x10009F660, symSize: 0x8C }
  - { offset: 0x103F57, size: 0x8, addend: 0x0, symName: '__ZN4core3fmt3num52_$LT$impl$u20$core..fmt..Binary$u20$for$u20$i128$GT$3fmt17h7d4514fd0159df47E', symObjAddr: 0x18D24, symBinAddr: 0x10009F824, symSize: 0x98 }
  - { offset: 0x104066, size: 0x8, addend: 0x0, symName: '__ZN4core3fmt3num51_$LT$impl$u20$core..fmt..Octal$u20$for$u20$i128$GT$3fmt17h57540f0d102f1d04E', symObjAddr: 0x18DBC, symBinAddr: 0x10009F8BC, symSize: 0x98 }
  - { offset: 0x10419B, size: 0x8, addend: 0x0, symName: '__ZN4core3fmt3num50_$LT$impl$u20$core..fmt..Debug$u20$for$u20$u32$GT$3fmt17h20423420560f3e4aE', symObjAddr: 0x18FA4, symBinAddr: 0x10009FAA4, symSize: 0x210 }
  - { offset: 0x104351, size: 0x8, addend: 0x0, symName: '__ZN4core3fmt3num50_$LT$impl$u20$core..fmt..Debug$u20$for$u20$u64$GT$3fmt17hcf93b17fc1abb0a9E', symObjAddr: 0x191B4, symBinAddr: 0x10009FCB4, symSize: 0x204 }
  - { offset: 0x1044F4, size: 0x8, addend: 0x0, symName: '__ZN4core3fmt3num52_$LT$impl$u20$core..fmt..Debug$u20$for$u20$usize$GT$3fmt17hbcf940b80966635eE', symObjAddr: 0x193B8, symBinAddr: 0x10009FEB8, symSize: 0x210 }
  - { offset: 0x10467F, size: 0x8, addend: 0x0, symName: __ZN4core3fmt3num8exp_u12817hf6e0b8fed0117957E, symObjAddr: 0x1A8F8, symBinAddr: 0x1000A13F8, symSize: 0x838 }
  - { offset: 0x104879, size: 0x8, addend: 0x0, symName: '__ZN4core3fmt3num54_$LT$impl$u20$core..fmt..LowerExp$u20$for$u20$i128$GT$3fmt17h6654da10361134e6E', symObjAddr: 0x1B130, symBinAddr: 0x1000A1C30, symSize: 0x38 }
  - { offset: 0x10489A, size: 0x8, addend: 0x0, symName: '__ZN4core3fmt3num54_$LT$impl$u20$core..fmt..LowerExp$u20$for$u20$u128$GT$3fmt17hd1d1d5ca00a2f225E', symObjAddr: 0x1B168, symBinAddr: 0x1000A1C68, symSize: 0x20 }
  - { offset: 0x1048BB, size: 0x8, addend: 0x0, symName: '__ZN4core3fmt3num54_$LT$impl$u20$core..fmt..UpperExp$u20$for$u20$i128$GT$3fmt17hf5701b495cdefe4eE', symObjAddr: 0x1B188, symBinAddr: 0x1000A1C88, symSize: 0x38 }
  - { offset: 0x1048DC, size: 0x8, addend: 0x0, symName: '__ZN4core3fmt3num54_$LT$impl$u20$core..fmt..UpperExp$u20$for$u20$u128$GT$3fmt17h9f1c51a39307c136E', symObjAddr: 0x1B1C0, symBinAddr: 0x1000A1CC0, symSize: 0x20 }
  - { offset: 0x10490C, size: 0x8, addend: 0x0, symName: '__ZN59_$LT$core..fmt..Arguments$u20$as$u20$core..fmt..Display$GT$3fmt17h09b75bc392b800bdE', symObjAddr: 0xAF88, symBinAddr: 0x100092060, symSize: 0x18 }
  - { offset: 0x104926, size: 0x8, addend: 0x0, symName: '__ZN57_$LT$core..fmt..Arguments$u20$as$u20$core..fmt..Debug$GT$3fmt17h9e1f77980d0394dcE', symObjAddr: 0xAF70, symBinAddr: 0x100092048, symSize: 0x18 }
  - { offset: 0x104974, size: 0x8, addend: 0x0, symName: __ZN4core3fmt5write17h381c0b0ce6ab972aE, symObjAddr: 0xAFA0, symBinAddr: 0x100092078, symSize: 0x200 }
  - { offset: 0x104B87, size: 0x8, addend: 0x0, symName: __ZN4core3fmt9Formatter12pad_integral12write_prefix17hb4537e90003b1c64E, symObjAddr: 0xB578, symBinAddr: 0x100092650, symSize: 0x7C }
  - { offset: 0x104BD3, size: 0x8, addend: 0x0, symName: '__ZN55_$LT$core..fmt..Error$u20$as$u20$core..fmt..Display$GT$3fmt17h722ba4f67c28c616E', symObjAddr: 0xCD30, symBinAddr: 0x100093E08, symSize: 0x20 }
  - { offset: 0x104C2C, size: 0x8, addend: 0x0, symName: '__ZN40_$LT$str$u20$as$u20$core..fmt..Debug$GT$3fmt17heb25a21cd747bc08E', symObjAddr: 0xCD94, symBinAddr: 0x100093E6C, symSize: 0x374 }
  - { offset: 0x105119, size: 0x8, addend: 0x0, symName: '__ZN41_$LT$char$u20$as$u20$core..fmt..Debug$GT$3fmt17h401477d182c99069E', symObjAddr: 0xD128, symBinAddr: 0x100094200, symSize: 0xAC }
  - { offset: 0x105219, size: 0x8, addend: 0x0, symName: '__ZN43_$LT$char$u20$as$u20$core..fmt..Display$GT$3fmt17h7c940c11a1c12216E', symObjAddr: 0xD1D4, symBinAddr: 0x1000942AC, symSize: 0xF8 }
  - { offset: 0x1052CB, size: 0x8, addend: 0x0, symName: __ZN4core3fmt17pointer_fmt_inner17h1280a504d3575fb5E, symObjAddr: 0xD2CC, symBinAddr: 0x1000943A4, symSize: 0xE0 }
  - { offset: 0x10540D, size: 0x8, addend: 0x0, symName: '__ZN52_$LT$$BP$const$u20$T$u20$as$u20$core..fmt..Debug$GT$3fmt17hc5b3c0a90fda40d2E', symObjAddr: 0xD3AC, symBinAddr: 0x100094484, symSize: 0xE4 }
  - { offset: 0x105551, size: 0x8, addend: 0x0, symName: '__ZN53_$LT$core..fmt..Error$u20$as$u20$core..fmt..Debug$GT$3fmt17he86a5143693380e6E', symObjAddr: 0x1B1E0, symBinAddr: 0x1000A1CE0, symSize: 0x24 }
  - { offset: 0x105586, size: 0x8, addend: 0x0, symName: '__ZN42_$LT$$RF$T$u20$as$u20$core..fmt..Debug$GT$3fmt17h6d97b05d09fb71e8E', symObjAddr: 0x1B204, symBinAddr: 0x1000A1D04, symSize: 0x1C }
  - { offset: 0x1055A1, size: 0x8, addend: 0x0, symName: '__ZN42_$LT$$RF$T$u20$as$u20$core..fmt..Debug$GT$3fmt17h85c26c063dccd5c8E', symObjAddr: 0x1B220, symBinAddr: 0x1000A1D20, symSize: 0x14 }
  - { offset: 0x1055BC, size: 0x8, addend: 0x0, symName: '__ZN42_$LT$$RF$T$u20$as$u20$core..fmt..Debug$GT$3fmt17h9c0c5917dbecf256E', symObjAddr: 0x1B234, symBinAddr: 0x1000A1D34, symSize: 0x18 }
  - { offset: 0x1055D7, size: 0x8, addend: 0x0, symName: '__ZN42_$LT$$RF$T$u20$as$u20$core..fmt..Debug$GT$3fmt17hf5635feda874b9ebE', symObjAddr: 0x1B24C, symBinAddr: 0x1000A1D4C, symSize: 0x14 }
  - { offset: 0x1055F8, size: 0x8, addend: 0x0, symName: '__ZN44_$LT$$RF$T$u20$as$u20$core..fmt..Display$GT$3fmt17h0b61412bc7dfb2fbE', symObjAddr: 0x1B260, symBinAddr: 0x1000A1D60, symSize: 0x1C }
  - { offset: 0x105629, size: 0x8, addend: 0x0, symName: '__ZN44_$LT$$RF$T$u20$as$u20$core..fmt..Display$GT$3fmt17h9eaf27d921c2ec27E', symObjAddr: 0x1B27C, symBinAddr: 0x1000A1D7C, symSize: 0x14 }
  - { offset: 0x105644, size: 0x8, addend: 0x0, symName: '__ZN44_$LT$$RF$T$u20$as$u20$core..fmt..Display$GT$3fmt17hdac32d624bc302afE', symObjAddr: 0x1B290, symBinAddr: 0x1000A1D90, symSize: 0x14 }
  - { offset: 0x105665, size: 0x8, addend: 0x0, symName: '__ZN45_$LT$$RF$T$u20$as$u20$core..fmt..LowerHex$GT$3fmt17h3a3d0b1cbf3733d2E', symObjAddr: 0x1B2A4, symBinAddr: 0x1000A1DA4, symSize: 0xA0 }
  - { offset: 0x105CED, size: 0x8, addend: 0x0, symName: __ZN4core6option13unwrap_failed17h72fe2175587bb8c5E, symObjAddr: 0x77A0, symBinAddr: 0x1000A6764, symSize: 0x1C }
  - { offset: 0x105D08, size: 0x8, addend: 0x0, symName: __ZN4core6option13expect_failed17h8e777ef42d0a5298E, symObjAddr: 0x77BC, symBinAddr: 0x1000A6780, symSize: 0x48 }
  - { offset: 0x1061A1, size: 0x8, addend: 0x0, symName: '__ZN69_$LT$core..ffi..c_str..CStr$u20$as$u20$core..clone..CloneToUninit$GT$15clone_to_uninit17he530f04317854a89E', symObjAddr: 0x437C, symBinAddr: 0x10008B988, symSize: 0x20 }
  - { offset: 0x1062D2, size: 0x8, addend: 0x0, symName: '__ZN64_$LT$core..ops..range..RangeFull$u20$as$u20$core..fmt..Debug$GT$3fmt17h03469f34942d51f4E', symObjAddr: 0x4454, symBinAddr: 0x10008BA60, symSize: 0x24 }
  - { offset: 0x106308, size: 0x8, addend: 0x0, symName: '__ZN71_$LT$core..ops..range..Range$LT$Idx$GT$$u20$as$u20$core..fmt..Debug$GT$3fmt17he394e20c3c86d8aeE', symObjAddr: 0x4478, symBinAddr: 0x10008BA84, symSize: 0x5C }
  - { offset: 0x1066AE, size: 0x8, addend: 0x0, symName: '__ZN76_$LT$core..mem..transmutability..Assume$u20$as$u20$core..ops..arith..Sub$GT$3sub17h5a046ea1073bcd13E', symObjAddr: 0x42EC, symBinAddr: 0x10008B8F8, symSize: 0x18 }
  - { offset: 0x106BDD, size: 0x8, addend: 0x0, symName: __ZN4core6result13unwrap_failed17h6de8f20130c8e837E, symObjAddr: 0x7D2C, symBinAddr: 0x1000A6B7C, symSize: 0x5C }
  - { offset: 0x106C72, size: 0x8, addend: 0x0, symName: '__ZN57_$LT$core..error..Request$u20$as$u20$core..fmt..Debug$GT$3fmt17h21071563385bf67bE', symObjAddr: 0x439C, symBinAddr: 0x10008B9A8, symSize: 0x6C }
  - { offset: 0x106D19, size: 0x8, addend: 0x0, symName: '__ZN78_$LT$core..error..Source$u20$as$u20$core..iter..traits..iterator..Iterator$GT$4next17hd68d127cc4879c4aE', symObjAddr: 0x4408, symBinAddr: 0x10008BA14, symSize: 0x4C }
  - { offset: 0x106D6C, size: 0x8, addend: 0x0, symName: '__ZN105_$LT$dyn$u20$core..any..Any$u2b$core..marker..Send$u2b$core..marker..Sync$u20$as$u20$core..fmt..Debug$GT$3fmt17hd59d9dd40169e85bE', symObjAddr: 0x44D4, symBinAddr: 0x10008BAE0, symSize: 0x6C }
  - { offset: 0x106E24, size: 0x8, addend: 0x0, symName: '__ZN54_$LT$core..any..TypeId$u20$as$u20$core..fmt..Debug$GT$3fmt17h1d290e7a2625341aE', symObjAddr: 0x4540, symBinAddr: 0x10008BB4C, symSize: 0x88 }
  - { offset: 0x106E89, size: 0x8, addend: 0x0, symName: '__ZN73_$LT$core..ascii..ascii_char..AsciiChar$u20$as$u20$core..fmt..Display$GT$3fmt17he92a14c5521339b8E', symObjAddr: 0x45C8, symBinAddr: 0x10008BBD4, symSize: 0x20 }
  - { offset: 0x106EC0, size: 0x8, addend: 0x0, symName: '__ZN71_$LT$core..ascii..ascii_char..AsciiChar$u20$as$u20$core..fmt..Debug$GT$3fmt17h0cf185979cff511bE', symObjAddr: 0x45E8, symBinAddr: 0x10008BBF4, symSize: 0x158 }
  - { offset: 0x106F1B, size: 0x8, addend: 0x0, symName: __ZN4core5ascii14escape_default17h83ddf1acb35a3681E, symObjAddr: 0x4740, symBinAddr: 0x10008BD4C, symSize: 0x78 }
  - { offset: 0x106F9C, size: 0x8, addend: 0x0, symName: '__ZN65_$LT$core..ascii..EscapeDefault$u20$as$u20$core..fmt..Display$GT$3fmt17h9e493467aab3b5f2E', symObjAddr: 0x47B8, symBinAddr: 0x10008BDC4, symSize: 0x2C }
  - { offset: 0x107029, size: 0x8, addend: 0x0, symName: '__ZN63_$LT$core..ascii..EscapeDefault$u20$as$u20$core..fmt..Debug$GT$3fmt17h61180db481e449acE', symObjAddr: 0x47E4, symBinAddr: 0x10008BDF0, symSize: 0x6C }
  - { offset: 0x10727D, size: 0x8, addend: 0x0, symName: __ZN4core4cell4lazy14panic_poisoned17hf7b7352820ceda51E, symObjAddr: 0x4850, symBinAddr: 0x1000A66A4, symSize: 0x38 }
