---
triple:          'arm64-apple-darwin'
binary-path:     '/Users/teddy/code/zero_to_production/newsletter_server/target/debug/deps/libzerocopy_derive-d000aebca22023bd.dylib'
relocations:
  - { offset: 0x1E, size: 0x8, addend: 0x0, symName: __RINvMsi_NtCsdze8u8oDPro_5alloc3vecINtB6_3VecNtCs475r2uZUTuc_11proc_macro29TokenTreeE16extend_desugaredINtNtNtNtCs9f3LFPSIp77_4core4iter8adapters7flatten7FlattenINtNtB1H_3map3MapIB2z_IB2z_INtNtNtB1L_5slice4iter4IterNtNtCsATtFUPiRFW_3syn5error5ErrorENvMB3s_B3q_16to_compile_errorENCINvXs7_BI_NtBI_11TokenStreamINtNtNtB1J_6traits7collect12FromIteratorB4E_E9from_iterB2U_E0ENCINvXs6_NtBI_3impNtB65_11TokenStreamIB4X_B6e_E9from_iterB2P_Es_0EEECsaQ2CmD7W1Vs_15zerocopy_derive, symObjAddr: 0x0, symBinAddr: 0x2D7C, symSize: 0x1E0 }
  - { offset: 0x6A65, size: 0x8, addend: 0x0, symName: __RINvXsd_NtCsdze8u8oDPro_5alloc3vecINtB6_3VecNtNtCsATtFUPiRFW_3syn8generics14WherePredicateEINtNtNtNtCs9f3LFPSIp77_4core4iter6traits7collect12FromIteratorBG_E9from_iterINtNtNtB1y_8adapters3map3MapINtNtNtB1A_5slice4iter4IterRNtNtBK_2ty4TypeENCINvCsaQ2CmD7W1Vs_15zerocopy_derive10impl_blockNtNtBK_6derive10DataStructE0EEB3U_, symObjAddr: 0x1230, symBinAddr: 0x3FAC, symSize: 0x34 }
  - { offset: 0x6AA6, size: 0x8, addend: 0x0, symName: __RINvXsd_NtCsdze8u8oDPro_5alloc3vecINtB6_3VecNtNtCsATtFUPiRFW_3syn8generics14WherePredicateEINtNtNtNtCs9f3LFPSIp77_4core4iter6traits7collect12FromIteratorBG_E9from_iterINtNtNtB1y_8adapters3map3MapINtNtNtB1A_5slice4iter4IterRNtNtBK_2ty4TypeENCINvCsaQ2CmD7W1Vs_15zerocopy_derive10impl_blockNtNtBK_6derive8DataEnumE0EEB3U_, symObjAddr: 0x1264, symBinAddr: 0x3FE0, symSize: 0x34 }
  - { offset: 0x6AE7, size: 0x8, addend: 0x0, symName: __RINvXsd_NtCsdze8u8oDPro_5alloc3vecINtB6_3VecNtNtCsATtFUPiRFW_3syn8generics14WherePredicateEINtNtNtNtCs9f3LFPSIp77_4core4iter6traits7collect12FromIteratorBG_E9from_iterINtNtNtB1y_8adapters3map3MapINtNtNtB1A_5slice4iter4IterRNtNtBK_2ty4TypeENCINvCsaQ2CmD7W1Vs_15zerocopy_derive10impl_blockNtNtBK_6derive9DataUnionE0EEB3U_, symObjAddr: 0x1298, symBinAddr: 0x4014, symSize: 0x34 }
  - { offset: 0x6B28, size: 0x8, addend: 0x0, symName: __RINvXsd_NtCsdze8u8oDPro_5alloc3vecINtB6_3VecRNtNtCsATtFUPiRFW_3syn2ty4TypeEINtNtNtNtCs9f3LFPSIp77_4core4iter6traits7collect12FromIteratorBG_E9from_iterINtNtNtB1i_8adapters3map3MapINtNtB2u_7flatten7FlatMapINtNtBL_10punctuated4IterNtNtBL_4data7VariantERNtB3H_6FieldsNCNvXs0_NtCsaQ2CmD7W1Vs_15zerocopy_derive3extNtNtBL_6derive8DataEnumNtB4m_7DataExt11field_types0ENCB4g_s_0EEB4o_, symObjAddr: 0x12CC, symBinAddr: 0x4048, symSize: 0x34 }
  - { offset: 0x6B69, size: 0x8, addend: 0x0, symName: __RINvXsd_NtCsdze8u8oDPro_5alloc3vecINtB6_3VecRNtNtCsATtFUPiRFW_3syn2ty4TypeEINtNtNtNtCs9f3LFPSIp77_4core4iter6traits7collect12FromIteratorBG_E9from_iterINtNtNtB1i_8adapters3map3MapINtNtBL_10punctuated4IterNtNtBL_4data5FieldENCNvXs1_NtCsaQ2CmD7W1Vs_15zerocopy_derive3extNtNtBL_6derive9DataUnionNtB3H_7DataExt11field_types0EEB3J_, symObjAddr: 0x1300, symBinAddr: 0x407C, symSize: 0x38 }
  - { offset: 0x6BA9, size: 0x8, addend: 0x0, symName: __RINvXsd_NtCsdze8u8oDPro_5alloc3vecINtB6_3VecRNtNtCsATtFUPiRFW_3syn2ty4TypeEINtNtNtNtCs9f3LFPSIp77_4core4iter6traits7collect12FromIteratorBG_E9from_iterINtNtNtB1i_8adapters3map3MapINtNtBL_10punctuated4IterNtNtBL_4data5FieldENCNvXs_NtCsaQ2CmD7W1Vs_15zerocopy_derive3extNtNtBL_6derive10DataStructNtB3G_7DataExt11field_types0EEB3I_, symObjAddr: 0x1338, symBinAddr: 0x40B4, symSize: 0x38 }
  - { offset: 0x6BEF, size: 0x8, addend: 0x0, symName: __RINvXsh_NtCsdze8u8oDPro_5alloc3vecINtB6_3VecNtCs475r2uZUTuc_11proc_macro29TokenTreeEINtNtNtNtCs9f3LFPSIp77_4core4iter6traits7collect6ExtendBG_E6extendINtNtNtB1r_8adapters7flatten7FlattenINtNtB2t_3map3MapIB2Z_IB2Z_INtNtNtB1t_5slice4iter4IterNtNtCsATtFUPiRFW_3syn5error5ErrorENvMB3S_B3Q_16to_compile_errorENCINvXs7_BI_NtBI_11TokenStreamINtB1n_12FromIteratorB54_E9from_iterB3k_E0ENCINvXs6_NtBI_3impNtB6c_11TokenStreamIB5n_B6l_E9from_iterB3f_Es_0EEECsaQ2CmD7W1Vs_15zerocopy_derive, symObjAddr: 0x1370, symBinAddr: 0x40EC, symSize: 0x40 }
  - { offset: 0x6C44, size: 0x8, addend: 0x0, symName: __RINvXsh_NtCsdze8u8oDPro_5alloc3vecINtB6_3VecNtNtCsATtFUPiRFW_3syn4attr4MetaEINtNtNtNtCs9f3LFPSIp77_4core4iter6traits7collect6ExtendBG_E6extendINtNtB1l_6option6OptionBG_EECsaQ2CmD7W1Vs_15zerocopy_derive, symObjAddr: 0x13B0, symBinAddr: 0x412C, symSize: 0x48 }
  - { offset: 0x6C99, size: 0x8, addend: 0x0, symName: __RINvXsh_NtCsdze8u8oDPro_5alloc3vecINtB6_3VecNtNtCsATtFUPiRFW_3syn4attr4MetaEINtNtNtNtCs9f3LFPSIp77_4core4iter6traits7collect6ExtendBG_E6extendINtNtNtB1j_8adapters3map3MapINtNtB6_9into_iter8IntoIterTBG_NtNtBK_5token5CommaEENCNvXs8_NtBK_10punctuatedINtB3G_10PunctuatedBG_B3d_ENtB1f_12IntoIterator9into_iter0EECsaQ2CmD7W1Vs_15zerocopy_derive, symObjAddr: 0x13F8, symBinAddr: 0x4174, symSize: 0x40 }
  - { offset: 0x6CEE, size: 0x8, addend: 0x0, symName: __RINvXsh_NtCsdze8u8oDPro_5alloc3vecINtB6_3VecNtNtCsATtFUPiRFW_3syn8generics12GenericParamEINtNtNtNtCs9f3LFPSIp77_4core4iter6traits7collect6ExtendBG_E6extendINtNtB1y_6option6OptionBG_EECsaQ2CmD7W1Vs_15zerocopy_derive, symObjAddr: 0x1438, symBinAddr: 0x41B4, symSize: 0x48 }
  - { offset: 0x6D43, size: 0x8, addend: 0x0, symName: __RINvXsh_NtCsdze8u8oDPro_5alloc3vecINtB6_3VecNtNtCsATtFUPiRFW_3syn8generics12GenericParamEINtNtNtNtCs9f3LFPSIp77_4core4iter6traits7collect6ExtendBG_E6extendINtNtNtB1w_8adapters3map3MapINtNtB6_9into_iter8IntoIterTBG_NtNtBK_5token5CommaEENCNvXs8_NtBK_10punctuatedINtB3T_10PunctuatedBG_B3q_ENtB1s_12IntoIterator9into_iter0EECsaQ2CmD7W1Vs_15zerocopy_derive, symObjAddr: 0x1480, symBinAddr: 0x41FC, symSize: 0x40 }
  - { offset: 0x6DA3, size: 0x8, addend: 0x0, symName: __RNCINvMsi_NtCsdze8u8oDPro_5alloc3vecINtB8_3VecNtNtCsATtFUPiRFW_3syn4attr4MetaE14extend_trustedINtNtCs9f3LFPSIp77_4core6option8IntoIterBI_EE0CsaQ2CmD7W1Vs_15zerocopy_derive, symObjAddr: 0x14C0, symBinAddr: 0x423C, symSize: 0x78 }
  - { offset: 0x6E96, size: 0x8, addend: 0x0, symName: __RNCINvMsi_NtCsdze8u8oDPro_5alloc3vecINtB8_3VecNtNtCsATtFUPiRFW_3syn4attr4MetaE14extend_trustedINtNtNtNtCs9f3LFPSIp77_4core4iter8adapters3map3MapINtNtB8_9into_iter8IntoIterTBI_NtNtBM_5token5CommaEENCNvXs8_NtBM_10punctuatedINtB3g_10PunctuatedBI_B2N_ENtNtNtB1B_6traits7collect12IntoIterator9into_iter0EE0CsaQ2CmD7W1Vs_15zerocopy_derive, symObjAddr: 0x1538, symBinAddr: 0x42B4, symSize: 0x78 }
  - { offset: 0x6F89, size: 0x8, addend: 0x0, symName: __RNCINvMsi_NtCsdze8u8oDPro_5alloc3vecINtB8_3VecNtNtCsATtFUPiRFW_3syn8generics12GenericParamE14extend_trustedINtNtCs9f3LFPSIp77_4core6option8IntoIterBI_EE0CsaQ2CmD7W1Vs_15zerocopy_derive, symObjAddr: 0x15B0, symBinAddr: 0x432C, symSize: 0x78 }
  - { offset: 0x707C, size: 0x8, addend: 0x0, symName: __RNCINvMsi_NtCsdze8u8oDPro_5alloc3vecINtB8_3VecNtNtCsATtFUPiRFW_3syn8generics12GenericParamE14extend_trustedINtNtNtNtCs9f3LFPSIp77_4core4iter8adapters3map3MapINtNtB8_9into_iter8IntoIterTBI_NtNtBM_5token5CommaEENCNvXs8_NtBM_10punctuatedINtB3t_10PunctuatedBI_B30_ENtNtNtB1O_6traits7collect12IntoIterator9into_iter0EE0CsaQ2CmD7W1Vs_15zerocopy_derive, symObjAddr: 0x1628, symBinAddr: 0x43A4, symSize: 0x78 }
  - { offset: 0x716F, size: 0x8, addend: 0x0, symName: __RNCINvMsi_NtCsdze8u8oDPro_5alloc3vecINtB8_3VecNtNtCsATtFUPiRFW_3syn8generics14WherePredicateE14extend_trustedINtNtNtNtCs9f3LFPSIp77_4core4iter8adapters3map3MapINtNtNtB1S_5slice4iter4IterRNtNtBM_2ty4TypeENCINvCsaQ2CmD7W1Vs_15zerocopy_derive10impl_blockNtNtBM_6derive10DataStructE0EE0B3k_, symObjAddr: 0x16A0, symBinAddr: 0x441C, symSize: 0x78 }
  - { offset: 0x7262, size: 0x8, addend: 0x0, symName: __RNCINvMsi_NtCsdze8u8oDPro_5alloc3vecINtB8_3VecNtNtCsATtFUPiRFW_3syn8generics14WherePredicateE14extend_trustedINtNtNtNtCs9f3LFPSIp77_4core4iter8adapters3map3MapINtNtNtB1S_5slice4iter4IterRNtNtBM_2ty4TypeENCINvCsaQ2CmD7W1Vs_15zerocopy_derive10impl_blockNtNtBM_6derive8DataEnumE0EE0B3k_, symObjAddr: 0x1718, symBinAddr: 0x4494, symSize: 0x78 }
  - { offset: 0x7355, size: 0x8, addend: 0x0, symName: __RNCINvMsi_NtCsdze8u8oDPro_5alloc3vecINtB8_3VecNtNtCsATtFUPiRFW_3syn8generics14WherePredicateE14extend_trustedINtNtNtNtCs9f3LFPSIp77_4core4iter8adapters3map3MapINtNtNtB1S_5slice4iter4IterRNtNtBM_2ty4TypeENCINvCsaQ2CmD7W1Vs_15zerocopy_derive10impl_blockNtNtBM_6derive9DataUnionE0EE0B3k_, symObjAddr: 0x1790, symBinAddr: 0x450C, symSize: 0x78 }
  - { offset: 0x7D9E, size: 0x8, addend: 0x0, symName: __RNvXNtNtCsdze8u8oDPro_5alloc3vec11spec_extendINtB4_3VecNtCs475r2uZUTuc_11proc_macro29TokenTreeEINtB2_10SpecExtendBR_INtNtNtNtCs9f3LFPSIp77_4core4iter8adapters7flatten7FlattenINtNtB1V_3map3MapIB2N_IB2N_INtNtNtB1Z_5slice4iter4IterNtNtCsATtFUPiRFW_3syn5error5ErrorENvMB3G_B3E_16to_compile_errorENCINvXs7_BT_NtBT_11TokenStreamINtNtNtB1X_6traits7collect12FromIteratorB4S_E9from_iterB38_E0ENCINvXs6_NtBT_3impNtB6j_11TokenStreamIB5b_B6s_E9from_iterB33_Es_0EEE11spec_extendCsaQ2CmD7W1Vs_15zerocopy_derive, symObjAddr: 0x2DA4, symBinAddr: 0x5B20, symSize: 0x24 }
  - { offset: 0x7DF0, size: 0x8, addend: 0x0, symName: __RNvXNtNtCsdze8u8oDPro_5alloc3vec11spec_extendINtB4_3VecRNtNtCsATtFUPiRFW_3syn2ty4TypeEINtB2_10SpecExtendBR_INtNtNtNtCs9f3LFPSIp77_4core4iter8adapters3map3MapINtNtB1M_7flatten7FlatMapINtNtBW_10punctuated4IterNtNtBW_4data7VariantERNtB3l_6FieldsNCNvXs0_NtCsaQ2CmD7W1Vs_15zerocopy_derive3extNtNtBW_6derive8DataEnumNtB40_7DataExt11field_types0ENCB3U_s_0EE11spec_extendB42_, symObjAddr: 0x2DC8, symBinAddr: 0x5B44, symSize: 0x24 }
  - { offset: 0x7E42, size: 0x8, addend: 0x0, symName: __RNvXNtNtCsdze8u8oDPro_5alloc3vec11spec_extendINtB4_3VecRNtNtCsATtFUPiRFW_3syn2ty4TypeEINtB2_10SpecExtendBR_INtNtNtNtCs9f3LFPSIp77_4core4iter8adapters3map3MapINtNtBW_10punctuated4IterNtNtBW_4data5FieldENCNvXs1_NtCsaQ2CmD7W1Vs_15zerocopy_derive3extNtNtBW_6derive9DataUnionNtB3l_7DataExt11field_types0EE11spec_extendB3n_, symObjAddr: 0x2DEC, symBinAddr: 0x5B68, symSize: 0x34 }
  - { offset: 0x7E93, size: 0x8, addend: 0x0, symName: __RNvXNtNtCsdze8u8oDPro_5alloc3vec11spec_extendINtB4_3VecRNtNtCsATtFUPiRFW_3syn2ty4TypeEINtB2_10SpecExtendBR_INtNtNtNtCs9f3LFPSIp77_4core4iter8adapters3map3MapINtNtBW_10punctuated4IterNtNtBW_4data5FieldENCNvXs_NtCsaQ2CmD7W1Vs_15zerocopy_derive3extNtNtBW_6derive10DataStructNtB3k_7DataExt11field_types0EE11spec_extendB3m_, symObjAddr: 0x2E20, symBinAddr: 0x5B9C, symSize: 0x34 }
  - { offset: 0x7EEA, size: 0x8, addend: 0x0, symName: __RNvXs_NtNtCsdze8u8oDPro_5alloc3vec11spec_extendINtB6_3VecNtNtCsATtFUPiRFW_3syn4attr4MetaEINtB4_10SpecExtendBT_INtNtCs9f3LFPSIp77_4core6option8IntoIterBT_EE11spec_extendCsaQ2CmD7W1Vs_15zerocopy_derive, symObjAddr: 0x37BC, symBinAddr: 0x6538, symSize: 0x24 }
  - { offset: 0x7F3C, size: 0x8, addend: 0x0, symName: __RNvXs_NtNtCsdze8u8oDPro_5alloc3vec11spec_extendINtB6_3VecNtNtCsATtFUPiRFW_3syn4attr4MetaEINtB4_10SpecExtendBT_INtNtNtNtCs9f3LFPSIp77_4core4iter8adapters3map3MapINtNtB6_9into_iter8IntoIterTBT_NtNtBX_5token5CommaEENCNvXs8_NtBX_10punctuatedINtB3w_10PunctuatedBT_B33_ENtNtNtB1R_6traits7collect12IntoIterator9into_iter0EE11spec_extendCsaQ2CmD7W1Vs_15zerocopy_derive, symObjAddr: 0x37E0, symBinAddr: 0x655C, symSize: 0x24 }
  - { offset: 0x7F8E, size: 0x8, addend: 0x0, symName: __RNvXs_NtNtCsdze8u8oDPro_5alloc3vec11spec_extendINtB6_3VecNtNtCsATtFUPiRFW_3syn8generics12GenericParamEINtB4_10SpecExtendBT_INtNtCs9f3LFPSIp77_4core6option8IntoIterBT_EE11spec_extendCsaQ2CmD7W1Vs_15zerocopy_derive, symObjAddr: 0x3804, symBinAddr: 0x6580, symSize: 0x24 }
  - { offset: 0x7FE0, size: 0x8, addend: 0x0, symName: __RNvXs_NtNtCsdze8u8oDPro_5alloc3vec11spec_extendINtB6_3VecNtNtCsATtFUPiRFW_3syn8generics12GenericParamEINtB4_10SpecExtendBT_INtNtNtNtCs9f3LFPSIp77_4core4iter8adapters3map3MapINtNtB6_9into_iter8IntoIterTBT_NtNtBX_5token5CommaEENCNvXs8_NtBX_10punctuatedINtB3J_10PunctuatedBT_B3g_ENtNtNtB24_6traits7collect12IntoIterator9into_iter0EE11spec_extendCsaQ2CmD7W1Vs_15zerocopy_derive, symObjAddr: 0x3828, symBinAddr: 0x65A4, symSize: 0x24 }
  - { offset: 0x8032, size: 0x8, addend: 0x0, symName: __RNvXs_NtNtCsdze8u8oDPro_5alloc3vec11spec_extendINtB6_3VecNtNtCsATtFUPiRFW_3syn8generics14WherePredicateEINtB4_10SpecExtendBT_INtNtNtNtCs9f3LFPSIp77_4core4iter8adapters3map3MapINtNtNtB28_5slice4iter4IterRNtNtBX_2ty4TypeENCINvCsaQ2CmD7W1Vs_15zerocopy_derive10impl_blockNtNtBX_6derive10DataStructE0EE11spec_extendB3A_, symObjAddr: 0x384C, symBinAddr: 0x65C8, symSize: 0x24 }
  - { offset: 0x8084, size: 0x8, addend: 0x0, symName: __RNvXs_NtNtCsdze8u8oDPro_5alloc3vec11spec_extendINtB6_3VecNtNtCsATtFUPiRFW_3syn8generics14WherePredicateEINtB4_10SpecExtendBT_INtNtNtNtCs9f3LFPSIp77_4core4iter8adapters3map3MapINtNtNtB28_5slice4iter4IterRNtNtBX_2ty4TypeENCINvCsaQ2CmD7W1Vs_15zerocopy_derive10impl_blockNtNtBX_6derive8DataEnumE0EE11spec_extendB3A_, symObjAddr: 0x3870, symBinAddr: 0x65EC, symSize: 0x24 }
  - { offset: 0x80D6, size: 0x8, addend: 0x0, symName: __RNvXs_NtNtCsdze8u8oDPro_5alloc3vec11spec_extendINtB6_3VecNtNtCsATtFUPiRFW_3syn8generics14WherePredicateEINtB4_10SpecExtendBT_INtNtNtNtCs9f3LFPSIp77_4core4iter8adapters3map3MapINtNtNtB28_5slice4iter4IterRNtNtBX_2ty4TypeENCINvCsaQ2CmD7W1Vs_15zerocopy_derive10impl_blockNtNtBX_6derive9DataUnionE0EE11spec_extendB3A_, symObjAddr: 0x3894, symBinAddr: 0x6610, symSize: 0x24 }
  - { offset: 0x8134, size: 0x8, addend: 0x0, symName: __RNvXNtNtCsdze8u8oDPro_5alloc3vec14spec_from_iterINtB4_3VecNtNtCsATtFUPiRFW_3syn8generics14WherePredicateEINtB2_12SpecFromIterBU_INtNtNtNtCs9f3LFPSIp77_4core4iter8adapters3map3MapINtNtNtB2b_5slice4iter4IterRNtNtBY_2ty4TypeENCINvCsaQ2CmD7W1Vs_15zerocopy_derive10impl_blockNtNtBY_6derive10DataStructE0EE9from_iterB3D_, symObjAddr: 0x2E54, symBinAddr: 0x5BD0, symSize: 0x14 }
  - { offset: 0x8173, size: 0x8, addend: 0x0, symName: __RNvXNtNtCsdze8u8oDPro_5alloc3vec14spec_from_iterINtB4_3VecNtNtCsATtFUPiRFW_3syn8generics14WherePredicateEINtB2_12SpecFromIterBU_INtNtNtNtCs9f3LFPSIp77_4core4iter8adapters3map3MapINtNtNtB2b_5slice4iter4IterRNtNtBY_2ty4TypeENCINvCsaQ2CmD7W1Vs_15zerocopy_derive10impl_blockNtNtBY_6derive8DataEnumE0EE9from_iterB3D_, symObjAddr: 0x2E68, symBinAddr: 0x5BE4, symSize: 0x14 }
  - { offset: 0x81B2, size: 0x8, addend: 0x0, symName: __RNvXNtNtCsdze8u8oDPro_5alloc3vec14spec_from_iterINtB4_3VecNtNtCsATtFUPiRFW_3syn8generics14WherePredicateEINtB2_12SpecFromIterBU_INtNtNtNtCs9f3LFPSIp77_4core4iter8adapters3map3MapINtNtNtB2b_5slice4iter4IterRNtNtBY_2ty4TypeENCINvCsaQ2CmD7W1Vs_15zerocopy_derive10impl_blockNtNtBY_6derive9DataUnionE0EE9from_iterB3D_, symObjAddr: 0x2E7C, symBinAddr: 0x5BF8, symSize: 0x14 }
  - { offset: 0x81F1, size: 0x8, addend: 0x0, symName: __RNvXNtNtCsdze8u8oDPro_5alloc3vec14spec_from_iterINtB4_3VecRNtNtCsATtFUPiRFW_3syn2ty4TypeEINtB2_12SpecFromIterBU_INtNtNtNtCs9f3LFPSIp77_4core4iter8adapters3map3MapINtNtB1R_7flatten7FlatMapINtNtBZ_10punctuated4IterNtNtBZ_4data7VariantERNtB3q_6FieldsNCNvXs0_NtCsaQ2CmD7W1Vs_15zerocopy_derive3extNtNtBZ_6derive8DataEnumNtB45_7DataExt11field_types0ENCB3Z_s_0EE9from_iterB47_, symObjAddr: 0x2E90, symBinAddr: 0x5C0C, symSize: 0x14 }
  - { offset: 0x8230, size: 0x8, addend: 0x0, symName: __RNvXNtNtCsdze8u8oDPro_5alloc3vec14spec_from_iterINtB4_3VecRNtNtCsATtFUPiRFW_3syn2ty4TypeEINtB2_12SpecFromIterBU_INtNtNtNtCs9f3LFPSIp77_4core4iter8adapters3map3MapINtNtBZ_10punctuated4IterNtNtBZ_4data5FieldENCNvXs1_NtCsaQ2CmD7W1Vs_15zerocopy_derive3extNtNtBZ_6derive9DataUnionNtB3q_7DataExt11field_types0EE9from_iterB3s_, symObjAddr: 0x2EA4, symBinAddr: 0x5C20, symSize: 0x2C }
  - { offset: 0x826E, size: 0x8, addend: 0x0, symName: __RNvXNtNtCsdze8u8oDPro_5alloc3vec14spec_from_iterINtB4_3VecRNtNtCsATtFUPiRFW_3syn2ty4TypeEINtB2_12SpecFromIterBU_INtNtNtNtCs9f3LFPSIp77_4core4iter8adapters3map3MapINtNtBZ_10punctuated4IterNtNtBZ_4data5FieldENCNvXs_NtCsaQ2CmD7W1Vs_15zerocopy_derive3extNtNtBZ_6derive10DataStructNtB3p_7DataExt11field_types0EE9from_iterB3r_, symObjAddr: 0x2ED0, symBinAddr: 0x5C4C, symSize: 0x2C }
  - { offset: 0x82B8, size: 0x8, addend: 0x0, symName: __RNvXNtNtCsdze8u8oDPro_5alloc3vec21spec_from_iter_nestedINtB4_3VecRNtNtCsATtFUPiRFW_3syn2ty4TypeEINtB2_18SpecFromIterNestedB11_INtNtNtNtCs9f3LFPSIp77_4core4iter8adapters3map3MapINtNtB16_10punctuated4IterNtNtB16_4data5FieldENCNvXs1_NtCsaQ2CmD7W1Vs_15zerocopy_derive3extNtNtB16_6derive9DataUnionNtB3G_7DataExt11field_types0EE9from_iterB3I_, symObjAddr: 0x2EFC, symBinAddr: 0x5C78, symSize: 0x228 }
  - { offset: 0x85C9, size: 0x8, addend: 0x0, symName: __RNvXNtNtCsdze8u8oDPro_5alloc3vec21spec_from_iter_nestedINtB4_3VecRNtNtCsATtFUPiRFW_3syn2ty4TypeEINtB2_18SpecFromIterNestedB11_INtNtNtNtCs9f3LFPSIp77_4core4iter8adapters3map3MapINtNtB16_10punctuated4IterNtNtB16_4data5FieldENCNvXs_NtCsaQ2CmD7W1Vs_15zerocopy_derive3extNtNtB16_6derive10DataStructNtB3F_7DataExt11field_types0EE9from_iterB3H_, symObjAddr: 0x3124, symBinAddr: 0x5EA0, symSize: 0x228 }
  - { offset: 0x88DA, size: 0x8, addend: 0x0, symName: __RNvXNtNtCsdze8u8oDPro_5alloc3vec21spec_from_iter_nestedINtB4_3VecRNtNtCsATtFUPiRFW_3syn2ty4TypeEINtB2_18SpecFromIterNestedB11_INtNtNtNtCs9f3LFPSIp77_4core4iter8adapters3map3MapINtNtB25_7flatten7FlatMapINtNtB16_10punctuated4IterNtNtB16_4data7VariantERNtB3F_6FieldsNCNvXs0_NtCsaQ2CmD7W1Vs_15zerocopy_derive3extNtNtB16_6derive8DataEnumNtB4l_7DataExt11field_types0ENCB4f_s_0EE9from_iterB4n_, symObjAddr: 0x334C, symBinAddr: 0x60C8, symSize: 0x238 }
  - { offset: 0x8BF2, size: 0x8, addend: 0x0, symName: __RNvXs_NtNtCsdze8u8oDPro_5alloc3vec21spec_from_iter_nestedINtB6_3VecNtNtCsATtFUPiRFW_3syn8generics14WherePredicateEINtB4_18SpecFromIterNestedB13_INtNtNtNtCs9f3LFPSIp77_4core4iter8adapters3map3MapINtNtNtB2r_5slice4iter4IterRNtNtB17_2ty4TypeENCINvCsaQ2CmD7W1Vs_15zerocopy_derive10impl_blockNtNtB17_6derive10DataStructE0EE9from_iterB3U_, symObjAddr: 0x38B8, symBinAddr: 0x6634, symSize: 0x164 }
  - { offset: 0x8CC9, size: 0x8, addend: 0x0, symName: __RNvXs_NtNtCsdze8u8oDPro_5alloc3vec21spec_from_iter_nestedINtB6_3VecNtNtCsATtFUPiRFW_3syn8generics14WherePredicateEINtB4_18SpecFromIterNestedB13_INtNtNtNtCs9f3LFPSIp77_4core4iter8adapters3map3MapINtNtNtB2r_5slice4iter4IterRNtNtB17_2ty4TypeENCINvCsaQ2CmD7W1Vs_15zerocopy_derive10impl_blockNtNtB17_6derive8DataEnumE0EE9from_iterB3U_, symObjAddr: 0x3A1C, symBinAddr: 0x6798, symSize: 0x164 }
  - { offset: 0x8DA0, size: 0x8, addend: 0x0, symName: __RNvXs_NtNtCsdze8u8oDPro_5alloc3vec21spec_from_iter_nestedINtB6_3VecNtNtCsATtFUPiRFW_3syn8generics14WherePredicateEINtB4_18SpecFromIterNestedB13_INtNtNtNtCs9f3LFPSIp77_4core4iter8adapters3map3MapINtNtNtB2r_5slice4iter4IterRNtNtB17_2ty4TypeENCINvCsaQ2CmD7W1Vs_15zerocopy_derive10impl_blockNtNtB17_6derive9DataUnionE0EE9from_iterB3U_, symObjAddr: 0x3B80, symBinAddr: 0x68FC, symSize: 0x164 }
  - { offset: 0x8E7E, size: 0x8, addend: 0x0, symName: __RNvXs6_NtCsdze8u8oDPro_5alloc3vecINtB5_3VecNtNtCsATtFUPiRFW_3syn4attr4MetaENtNtNtCs9f3LFPSIp77_4core3ops5deref5Deref5derefCsaQ2CmD7W1Vs_15zerocopy_derive, symObjAddr: 0x3584, symBinAddr: 0x6300, symSize: 0x24 }
  - { offset: 0x8EBE, size: 0x8, addend: 0x0, symName: __RNvXs6_NtCsdze8u8oDPro_5alloc3vecINtB5_3VecNtNtCsATtFUPiRFW_3syn5error5ErrorENtNtNtCs9f3LFPSIp77_4core3ops5deref5Deref5derefCsaQ2CmD7W1Vs_15zerocopy_derive, symObjAddr: 0x35A8, symBinAddr: 0x6324, symSize: 0x24 }
  - { offset: 0x8EFE, size: 0x8, addend: 0x0, symName: __RNvXs6_NtCsdze8u8oDPro_5alloc3vecINtB5_3VecNtNtCsATtFUPiRFW_3syn8generics14WherePredicateENtNtNtCs9f3LFPSIp77_4core3ops5deref5Deref5derefCsaQ2CmD7W1Vs_15zerocopy_derive, symObjAddr: 0x35CC, symBinAddr: 0x6348, symSize: 0x24 }
  - { offset: 0x8F3E, size: 0x8, addend: 0x0, symName: __RNvXs6_NtCsdze8u8oDPro_5alloc3vecINtB5_3VecNtNtCsaQ2CmD7W1Vs_15zerocopy_derive4repr10StructReprENtNtNtCs9f3LFPSIp77_4core3ops5deref5Deref5derefBJ_, symObjAddr: 0x35F0, symBinAddr: 0x636C, symSize: 0x24 }
  - { offset: 0x8F7E, size: 0x8, addend: 0x0, symName: __RNvXs6_NtCsdze8u8oDPro_5alloc3vecINtB5_3VecRNtNtCsATtFUPiRFW_3syn2ty4TypeENtNtNtCs9f3LFPSIp77_4core3ops5deref5Deref5derefCsaQ2CmD7W1Vs_15zerocopy_derive, symObjAddr: 0x3614, symBinAddr: 0x6390, symSize: 0x24 }
  - { offset: 0x8FBE, size: 0x8, addend: 0x0, symName: __RNvXs6_NtCsdze8u8oDPro_5alloc3vecINtB5_3VecTNtNtCsATtFUPiRFW_3syn4attr4MetaNtNtCsaQ2CmD7W1Vs_15zerocopy_derive4repr10StructReprEENtNtNtCs9f3LFPSIp77_4core3ops5deref5Deref5derefB1f_, symObjAddr: 0x3638, symBinAddr: 0x63B4, symSize: 0x24 }
  - { offset: 0x8FFE, size: 0x8, addend: 0x0, symName: __RNvXs6_NtCsdze8u8oDPro_5alloc3vecINtB5_3VecTNtNtCsATtFUPiRFW_3syn4attr4MetaNtNtCsaQ2CmD7W1Vs_15zerocopy_derive4repr4ReprEENtNtNtCs9f3LFPSIp77_4core3ops5deref5Deref5derefB1f_, symObjAddr: 0x365C, symBinAddr: 0x63D8, symSize: 0x24 }
  - { offset: 0x903E, size: 0x8, addend: 0x0, symName: __RNvXs6_NtCsdze8u8oDPro_5alloc3vecINtB5_3VecTNtNtCsATtFUPiRFW_3syn4attr4MetaNtNtCsaQ2CmD7W1Vs_15zerocopy_derive4repr8EnumReprEENtNtNtCs9f3LFPSIp77_4core3ops5deref5Deref5derefB1f_, symObjAddr: 0x3680, symBinAddr: 0x63FC, symSize: 0x24 }
  - { offset: 0x9114, size: 0x8, addend: 0x0, symName: __RNvXs7_NtCsdze8u8oDPro_5alloc3vecINtB5_3VecTNtNtCsATtFUPiRFW_3syn4attr4MetaNtNtCsaQ2CmD7W1Vs_15zerocopy_derive4repr10StructReprEENtNtNtCs9f3LFPSIp77_4core3ops5deref8DerefMut9deref_mutB1f_, symObjAddr: 0x36A4, symBinAddr: 0x6420, symSize: 0x24 }
  - { offset: 0x9154, size: 0x8, addend: 0x0, symName: __RNvXs7_NtCsdze8u8oDPro_5alloc3vecINtB5_3VecTNtNtCsATtFUPiRFW_3syn4attr4MetaNtNtCsaQ2CmD7W1Vs_15zerocopy_derive4repr8EnumReprEENtNtNtCs9f3LFPSIp77_4core3ops5deref8DerefMut9deref_mutB1f_, symObjAddr: 0x36C8, symBinAddr: 0x6444, symSize: 0x24 }
  - { offset: 0x919A, size: 0x8, addend: 0x0, symName: __RNvXsb_NtCsdze8u8oDPro_5alloc3vecINtB5_3VecNtNtCsATtFUPiRFW_3syn4attr4MetaEINtNtNtCs9f3LFPSIp77_4core3ops5index5IndexjE5indexCsaQ2CmD7W1Vs_15zerocopy_derive, symObjAddr: 0x3CE4, symBinAddr: 0x6A60, symSize: 0x9C }
  - { offset: 0x9378, size: 0x8, addend: 0x0, symName: __RNvXsb_NtCsdze8u8oDPro_5alloc3vecINtB5_3VecNtNtCsaQ2CmD7W1Vs_15zerocopy_derive4repr8EnumReprEINtNtNtCs9f3LFPSIp77_4core3ops5index5IndexjE5indexBJ_, symObjAddr: 0x3D80, symBinAddr: 0x6AFC, symSize: 0x9C }
  - { offset: 0x9556, size: 0x8, addend: 0x0, symName: __RNvXsb_NtCsdze8u8oDPro_5alloc3vecINtB5_3VecRNtNtCsATtFUPiRFW_3syn2ty4TypeEINtNtNtCs9f3LFPSIp77_4core3ops5index5IndexNtNtB1f_5range9RangeFullE5indexCsaQ2CmD7W1Vs_15zerocopy_derive, symObjAddr: 0x3E1C, symBinAddr: 0x6B98, symSize: 0x8C }
  - { offset: 0x973A, size: 0x8, addend: 0x0, symName: __RNvXse_NtCsdze8u8oDPro_5alloc3vecINtB5_3VecNtNtCsATtFUPiRFW_3syn4attr4MetaENtNtNtNtCs9f3LFPSIp77_4core4iter6traits7collect12IntoIterator9into_iterCsaQ2CmD7W1Vs_15zerocopy_derive, symObjAddr: 0x3EA8, symBinAddr: 0x6C24, symSize: 0x100 }
  - { offset: 0x9A09, size: 0x8, addend: 0x0, symName: __RNvXse_NtCsdze8u8oDPro_5alloc3vecINtB5_3VecNtNtCsATtFUPiRFW_3syn8generics12GenericParamENtNtNtNtCs9f3LFPSIp77_4core4iter6traits7collect12IntoIterator9into_iterCsaQ2CmD7W1Vs_15zerocopy_derive, symObjAddr: 0x3FA8, symBinAddr: 0x6D24, symSize: 0x100 }
  - { offset: 0x9CD8, size: 0x8, addend: 0x0, symName: __RNvXse_NtCsdze8u8oDPro_5alloc3vecINtB5_3VecTNtNtCsATtFUPiRFW_3syn4attr4MetaNtNtBK_5token5CommaEENtNtNtNtCs9f3LFPSIp77_4core4iter6traits7collect12IntoIterator9into_iterCsaQ2CmD7W1Vs_15zerocopy_derive, symObjAddr: 0x40A8, symBinAddr: 0x6E24, symSize: 0x100 }
  - { offset: 0x9FA7, size: 0x8, addend: 0x0, symName: __RNvXse_NtCsdze8u8oDPro_5alloc3vecINtB5_3VecTNtNtCsATtFUPiRFW_3syn4attr4MetaNtNtCsaQ2CmD7W1Vs_15zerocopy_derive4repr10StructReprEENtNtNtNtCs9f3LFPSIp77_4core4iter6traits7collect12IntoIterator9into_iterB1f_, symObjAddr: 0x41A8, symBinAddr: 0x6F24, symSize: 0x100 }
  - { offset: 0xA276, size: 0x8, addend: 0x0, symName: __RNvXse_NtCsdze8u8oDPro_5alloc3vecINtB5_3VecTNtNtCsATtFUPiRFW_3syn4attr4MetaNtNtCsaQ2CmD7W1Vs_15zerocopy_derive4repr8EnumReprEENtNtNtNtCs9f3LFPSIp77_4core4iter6traits7collect12IntoIterator9into_iterB1f_, symObjAddr: 0x42A8, symBinAddr: 0x7024, symSize: 0x100 }
  - { offset: 0xA545, size: 0x8, addend: 0x0, symName: __RNvXse_NtCsdze8u8oDPro_5alloc3vecINtB5_3VecTNtNtCsATtFUPiRFW_3syn8generics12GenericParamNtNtBK_5token5CommaEENtNtNtNtCs9f3LFPSIp77_4core4iter6traits7collect12IntoIterator9into_iterCsaQ2CmD7W1Vs_15zerocopy_derive, symObjAddr: 0x43A8, symBinAddr: 0x7124, symSize: 0x100 }
  - { offset: 0xA81A, size: 0x8, addend: 0x0, symName: __RNvXsn_NtCsdze8u8oDPro_5alloc3vecINtB5_3VecNtNtCsATtFUPiRFW_3syn4attr4MetaENtNtNtCs9f3LFPSIp77_4core3ops4drop4Drop4dropCsaQ2CmD7W1Vs_15zerocopy_derive, symObjAddr: 0x44A8, symBinAddr: 0x7224, symSize: 0x50 }
  - { offset: 0xA927, size: 0x8, addend: 0x0, symName: __RNvXsn_NtCsdze8u8oDPro_5alloc3vecINtB5_3VecNtNtCsATtFUPiRFW_3syn5error5ErrorENtNtNtCs9f3LFPSIp77_4core3ops4drop4Drop4dropCsaQ2CmD7W1Vs_15zerocopy_derive, symObjAddr: 0x44F8, symBinAddr: 0x7274, symSize: 0x50 }
  - { offset: 0xAA34, size: 0x8, addend: 0x0, symName: __RNvXsn_NtCsdze8u8oDPro_5alloc3vecINtB5_3VecNtNtCsATtFUPiRFW_3syn8generics12GenericParamENtNtNtCs9f3LFPSIp77_4core3ops4drop4Drop4dropCsaQ2CmD7W1Vs_15zerocopy_derive, symObjAddr: 0x4548, symBinAddr: 0x72C4, symSize: 0x50 }
  - { offset: 0xAB41, size: 0x8, addend: 0x0, symName: __RNvXsn_NtCsdze8u8oDPro_5alloc3vecINtB5_3VecNtNtCsATtFUPiRFW_3syn8generics14WherePredicateENtNtNtCs9f3LFPSIp77_4core3ops4drop4Drop4dropCsaQ2CmD7W1Vs_15zerocopy_derive, symObjAddr: 0x4598, symBinAddr: 0x7314, symSize: 0x50 }
  - { offset: 0xAC4E, size: 0x8, addend: 0x0, symName: __RNvXsn_NtCsdze8u8oDPro_5alloc3vecINtB5_3VecNtNtCsaQ2CmD7W1Vs_15zerocopy_derive4repr10StructReprENtNtNtCs9f3LFPSIp77_4core3ops4drop4Drop4dropBJ_, symObjAddr: 0x45E8, symBinAddr: 0x7364, symSize: 0x3C }
  - { offset: 0xAD5B, size: 0x8, addend: 0x0, symName: __RNvXsn_NtCsdze8u8oDPro_5alloc3vecINtB5_3VecNtNtCsaQ2CmD7W1Vs_15zerocopy_derive4repr8EnumReprENtNtNtCs9f3LFPSIp77_4core3ops4drop4Drop4dropBJ_, symObjAddr: 0x4624, symBinAddr: 0x73A0, symSize: 0x3C }
  - { offset: 0xAE68, size: 0x8, addend: 0x0, symName: __RNvXsn_NtCsdze8u8oDPro_5alloc3vecINtB5_3VecRNtNtCsATtFUPiRFW_3syn2ty4TypeENtNtNtCs9f3LFPSIp77_4core3ops4drop4Drop4dropCsaQ2CmD7W1Vs_15zerocopy_derive, symObjAddr: 0x4660, symBinAddr: 0x73DC, symSize: 0x3C }
  - { offset: 0xAF75, size: 0x8, addend: 0x0, symName: __RNvXsn_NtCsdze8u8oDPro_5alloc3vecINtB5_3VecTNtNtCsATtFUPiRFW_3syn4attr4MetaNtNtBK_5token5CommaEENtNtNtCs9f3LFPSIp77_4core3ops4drop4Drop4dropCsaQ2CmD7W1Vs_15zerocopy_derive, symObjAddr: 0x469C, symBinAddr: 0x7418, symSize: 0x50 }
  - { offset: 0xB082, size: 0x8, addend: 0x0, symName: __RNvXsn_NtCsdze8u8oDPro_5alloc3vecINtB5_3VecTNtNtCsATtFUPiRFW_3syn4attr4MetaNtNtCsaQ2CmD7W1Vs_15zerocopy_derive4repr10StructReprEENtNtNtCs9f3LFPSIp77_4core3ops4drop4Drop4dropB1f_, symObjAddr: 0x46EC, symBinAddr: 0x7468, symSize: 0x50 }
  - { offset: 0xB18F, size: 0x8, addend: 0x0, symName: __RNvXsn_NtCsdze8u8oDPro_5alloc3vecINtB5_3VecTNtNtCsATtFUPiRFW_3syn4attr4MetaNtNtCsaQ2CmD7W1Vs_15zerocopy_derive4repr4ReprEENtNtNtCs9f3LFPSIp77_4core3ops4drop4Drop4dropB1f_, symObjAddr: 0x473C, symBinAddr: 0x74B8, symSize: 0x50 }
  - { offset: 0xB29C, size: 0x8, addend: 0x0, symName: __RNvXsn_NtCsdze8u8oDPro_5alloc3vecINtB5_3VecTNtNtCsATtFUPiRFW_3syn4attr4MetaNtNtCsaQ2CmD7W1Vs_15zerocopy_derive4repr8EnumReprEENtNtNtCs9f3LFPSIp77_4core3ops4drop4Drop4dropB1f_, symObjAddr: 0x478C, symBinAddr: 0x7508, symSize: 0x50 }
  - { offset: 0xCB7F, size: 0x8, addend: 0x0, symName: __RNvXs8_NtCsdze8u8oDPro_5alloc5sliceINtNtB7_3vec3VecTNtNtCsATtFUPiRFW_3syn4attr4MetaNtNtCsaQ2CmD7W1Vs_15zerocopy_derive4repr10StructReprEEINtNtNtNtCs9f3LFPSIp77_4core5slice4sort6stable8BufGuardBN_E13with_capacityB1n_, symObjAddr: 0x36EC, symBinAddr: 0x6468, symSize: 0x44 }
  - { offset: 0xCC20, size: 0x8, addend: 0x0, symName: __RNvXs8_NtCsdze8u8oDPro_5alloc5sliceINtNtB7_3vec3VecTNtNtCsATtFUPiRFW_3syn4attr4MetaNtNtCsaQ2CmD7W1Vs_15zerocopy_derive4repr10StructReprEEINtNtNtNtCs9f3LFPSIp77_4core5slice4sort6stable8BufGuardBN_E19as_uninit_slice_mutB1n_, symObjAddr: 0x3730, symBinAddr: 0x64AC, symSize: 0x24 }
  - { offset: 0xCC57, size: 0x8, addend: 0x0, symName: __RNvXs8_NtCsdze8u8oDPro_5alloc5sliceINtNtB7_3vec3VecTNtNtCsATtFUPiRFW_3syn4attr4MetaNtNtCsaQ2CmD7W1Vs_15zerocopy_derive4repr8EnumReprEEINtNtNtNtCs9f3LFPSIp77_4core5slice4sort6stable8BufGuardBN_E13with_capacityB1n_, symObjAddr: 0x3754, symBinAddr: 0x64D0, symSize: 0x44 }
  - { offset: 0xCCF8, size: 0x8, addend: 0x0, symName: __RNvXs8_NtCsdze8u8oDPro_5alloc5sliceINtNtB7_3vec3VecTNtNtCsATtFUPiRFW_3syn4attr4MetaNtNtCsaQ2CmD7W1Vs_15zerocopy_derive4repr8EnumReprEEINtNtNtNtCs9f3LFPSIp77_4core5slice4sort6stable8BufGuardBN_E19as_uninit_slice_mutB1n_, symObjAddr: 0x3798, symBinAddr: 0x6514, symSize: 0x24 }
  - { offset: 0x11D50, size: 0x8, addend: 0x0, symName: __RINvMsi_NtCsdze8u8oDPro_5alloc3vecINtB6_3VecNtCs475r2uZUTuc_11proc_macro29TokenTreeE16extend_desugaredINtNtNtNtCs9f3LFPSIp77_4core4iter8adapters7flatten7FlattenINtNtB1H_3map3MapIB2z_IB2z_INtNtNtB1L_5slice4iter4IterNtNtCsATtFUPiRFW_3syn5error5ErrorENvMB3s_B3q_16to_compile_errorENCINvXs7_BI_NtBI_11TokenStreamINtNtNtB1J_6traits7collect12FromIteratorB4E_E9from_iterB2U_E0ENCINvXs6_NtBI_3impNtB65_11TokenStreamIB4X_B6e_E9from_iterB2P_Es_0EEECsaQ2CmD7W1Vs_15zerocopy_derive, symObjAddr: 0x0, symBinAddr: 0x2D7C, symSize: 0x1E0 }
  - { offset: 0x1276B, size: 0x8, addend: 0x0, symName: __RINvMsi_NtCsdze8u8oDPro_5alloc3vecINtB6_3VecNtNtCsATtFUPiRFW_3syn4attr4MetaE14extend_trustedINtNtCs9f3LFPSIp77_4core6option8IntoIterBG_EECsaQ2CmD7W1Vs_15zerocopy_derive, symObjAddr: 0x1E0, symBinAddr: 0x2F5C, symSize: 0x1B4 }
  - { offset: 0x12B0C, size: 0x8, addend: 0x0, symName: __RINvMsi_NtCsdze8u8oDPro_5alloc3vecINtB6_3VecNtNtCsATtFUPiRFW_3syn4attr4MetaE14extend_trustedINtNtNtNtCs9f3LFPSIp77_4core4iter8adapters3map3MapINtNtB6_9into_iter8IntoIterTBG_NtNtBK_5token5CommaEENCNvXs8_NtBK_10punctuatedINtB3e_10PunctuatedBG_B2L_ENtNtNtB1z_6traits7collect12IntoIterator9into_iter0EECsaQ2CmD7W1Vs_15zerocopy_derive, symObjAddr: 0x394, symBinAddr: 0x3110, symSize: 0x19C }
  - { offset: 0x12EB6, size: 0x8, addend: 0x0, symName: __RINvMsi_NtCsdze8u8oDPro_5alloc3vecINtB6_3VecNtNtCsATtFUPiRFW_3syn8generics12GenericParamE14extend_trustedINtNtCs9f3LFPSIp77_4core6option8IntoIterBG_EECsaQ2CmD7W1Vs_15zerocopy_derive, symObjAddr: 0x530, symBinAddr: 0x32AC, symSize: 0x1B4 }
  - { offset: 0x13239, size: 0x8, addend: 0x0, symName: __RINvMsi_NtCsdze8u8oDPro_5alloc3vecINtB6_3VecNtNtCsATtFUPiRFW_3syn8generics12GenericParamE14extend_trustedINtNtNtNtCs9f3LFPSIp77_4core4iter8adapters3map3MapINtNtB6_9into_iter8IntoIterTBG_NtNtBK_5token5CommaEENCNvXs8_NtBK_10punctuatedINtB3r_10PunctuatedBG_B2Y_ENtNtNtB1M_6traits7collect12IntoIterator9into_iter0EECsaQ2CmD7W1Vs_15zerocopy_derive, symObjAddr: 0x6E4, symBinAddr: 0x3460, symSize: 0x19C }
  - { offset: 0x139EB, size: 0x8, addend: 0x0, symName: __RINvMsi_NtCsdze8u8oDPro_5alloc3vecINtB6_3VecNtNtCsATtFUPiRFW_3syn8generics14WherePredicateE14extend_trustedINtNtNtNtCs9f3LFPSIp77_4core4iter8adapters3map3MapINtNtNtB1Q_5slice4iter4IterRNtNtBK_2ty4TypeENCINvCsaQ2CmD7W1Vs_15zerocopy_derive10impl_blockNtNtBK_6derive10DataStructE0EEB3i_, symObjAddr: 0x880, symBinAddr: 0x35FC, symSize: 0x190 }
  - { offset: 0x13D61, size: 0x8, addend: 0x0, symName: __RINvMsi_NtCsdze8u8oDPro_5alloc3vecINtB6_3VecNtNtCsATtFUPiRFW_3syn8generics14WherePredicateE14extend_trustedINtNtNtNtCs9f3LFPSIp77_4core4iter8adapters3map3MapINtNtNtB1Q_5slice4iter4IterRNtNtBK_2ty4TypeENCINvCsaQ2CmD7W1Vs_15zerocopy_derive10impl_blockNtNtBK_6derive8DataEnumE0EEB3i_, symObjAddr: 0xA10, symBinAddr: 0x378C, symSize: 0x190 }
  - { offset: 0x140D7, size: 0x8, addend: 0x0, symName: __RINvMsi_NtCsdze8u8oDPro_5alloc3vecINtB6_3VecNtNtCsATtFUPiRFW_3syn8generics14WherePredicateE14extend_trustedINtNtNtNtCs9f3LFPSIp77_4core4iter8adapters3map3MapINtNtNtB1Q_5slice4iter4IterRNtNtBK_2ty4TypeENCINvCsaQ2CmD7W1Vs_15zerocopy_derive10impl_blockNtNtBK_6derive9DataUnionE0EEB3i_, symObjAddr: 0xBA0, symBinAddr: 0x391C, symSize: 0x190 }
  - { offset: 0x14586, size: 0x8, addend: 0x0, symName: __RINvMsi_NtCsdze8u8oDPro_5alloc3vecINtB6_3VecRNtNtCsATtFUPiRFW_3syn2ty4TypeE16extend_desugaredINtNtNtNtCs9f3LFPSIp77_4core4iter8adapters3map3MapINtNtB1y_7flatten7FlatMapINtNtBL_10punctuated4IterNtNtBL_4data7VariantERNtB37_6FieldsNCNvXs0_NtCsaQ2CmD7W1Vs_15zerocopy_derive3extNtNtBL_6derive8DataEnumNtB3M_7DataExt11field_types0ENCB3G_s_0EEB3O_, symObjAddr: 0xD30, symBinAddr: 0x3AAC, symSize: 0x1A8 }
  - { offset: 0x149C7, size: 0x8, addend: 0x0, symName: __RINvMsi_NtCsdze8u8oDPro_5alloc3vecINtB6_3VecRNtNtCsATtFUPiRFW_3syn2ty4TypeE16extend_desugaredINtNtNtNtCs9f3LFPSIp77_4core4iter8adapters3map3MapINtNtBL_10punctuated4IterNtNtBL_4data5FieldENCNvXs1_NtCsaQ2CmD7W1Vs_15zerocopy_derive3extNtNtBL_6derive9DataUnionNtB37_7DataExt11field_types0EEB39_, symObjAddr: 0xED8, symBinAddr: 0x3C54, symSize: 0x1AC }
  - { offset: 0x14E07, size: 0x8, addend: 0x0, symName: __RINvMsi_NtCsdze8u8oDPro_5alloc3vecINtB6_3VecRNtNtCsATtFUPiRFW_3syn2ty4TypeE16extend_desugaredINtNtNtNtCs9f3LFPSIp77_4core4iter8adapters3map3MapINtNtBL_10punctuated4IterNtNtBL_4data5FieldENCNvXs_NtCsaQ2CmD7W1Vs_15zerocopy_derive3extNtNtBL_6derive10DataStructNtB36_7DataExt11field_types0EEB38_, symObjAddr: 0x1084, symBinAddr: 0x3E00, symSize: 0x1AC }
  - { offset: 0x1524F, size: 0x8, addend: 0x0, symName: __RNvMNtCsdze8u8oDPro_5alloc3vecINtB2_3VecNtNtCsATtFUPiRFW_3syn4attr4MetaE13with_capacityCsaQ2CmD7W1Vs_15zerocopy_derive, symObjAddr: 0x1808, symBinAddr: 0x4584, symSize: 0x44 }
  - { offset: 0x15332, size: 0x8, addend: 0x0, symName: __RNvMNtCsdze8u8oDPro_5alloc3vecINtB2_3VecNtNtCsATtFUPiRFW_3syn4attr4MetaE3newCsaQ2CmD7W1Vs_15zerocopy_derive, symObjAddr: 0x184C, symBinAddr: 0x45C8, symSize: 0x28 }
  - { offset: 0x15426, size: 0x8, addend: 0x0, symName: __RNvMNtCsdze8u8oDPro_5alloc3vecINtB2_3VecNtNtCsATtFUPiRFW_3syn5error5ErrorE3newCsaQ2CmD7W1Vs_15zerocopy_derive, symObjAddr: 0x1874, symBinAddr: 0x45F0, symSize: 0x28 }
  - { offset: 0x1550F, size: 0x8, addend: 0x0, symName: __RNvMNtCsdze8u8oDPro_5alloc3vecINtB2_3VecNtNtCsATtFUPiRFW_3syn8generics12GenericParamE13with_capacityCsaQ2CmD7W1Vs_15zerocopy_derive, symObjAddr: 0x189C, symBinAddr: 0x4618, symSize: 0x44 }
  - { offset: 0x155F2, size: 0x8, addend: 0x0, symName: __RNvMNtCsdze8u8oDPro_5alloc3vecINtB2_3VecNtNtCsATtFUPiRFW_3syn8generics14WherePredicateE3newCsaQ2CmD7W1Vs_15zerocopy_derive, symObjAddr: 0x18E0, symBinAddr: 0x465C, symSize: 0x28 }
  - { offset: 0x156E6, size: 0x8, addend: 0x0, symName: __RNvMNtCsdze8u8oDPro_5alloc3vecINtB2_3VecNtNtCsaQ2CmD7W1Vs_15zerocopy_derive4repr10StructReprE3newBG_, symObjAddr: 0x1908, symBinAddr: 0x4684, symSize: 0x28 }
  - { offset: 0x157DA, size: 0x8, addend: 0x0, symName: __RNvMNtCsdze8u8oDPro_5alloc3vecINtB2_3VecNtNtCsaQ2CmD7W1Vs_15zerocopy_derive4repr8EnumReprE3newBG_, symObjAddr: 0x1930, symBinAddr: 0x46AC, symSize: 0x28 }
  - { offset: 0x158CE, size: 0x8, addend: 0x0, symName: __RNvMNtCsdze8u8oDPro_5alloc3vecINtB2_3VecTNtNtCsATtFUPiRFW_3syn4attr4MetaNtNtBH_5token5CommaEE3newCsaQ2CmD7W1Vs_15zerocopy_derive, symObjAddr: 0x1958, symBinAddr: 0x46D4, symSize: 0x28 }
  - { offset: 0x159E0, size: 0x8, addend: 0x0, symName: __RNvMNtCsdze8u8oDPro_5alloc3vecINtB2_3VecTNtNtCsATtFUPiRFW_3syn4attr4MetaNtNtCsaQ2CmD7W1Vs_15zerocopy_derive4repr10StructReprEE3newB1c_, symObjAddr: 0x1980, symBinAddr: 0x46FC, symSize: 0x28 }
  - { offset: 0x15AF2, size: 0x8, addend: 0x0, symName: __RNvMNtCsdze8u8oDPro_5alloc3vecINtB2_3VecTNtNtCsATtFUPiRFW_3syn4attr4MetaNtNtCsaQ2CmD7W1Vs_15zerocopy_derive4repr4ReprEE3newB1c_, symObjAddr: 0x19A8, symBinAddr: 0x4724, symSize: 0x28 }
  - { offset: 0x15C04, size: 0x8, addend: 0x0, symName: __RNvMNtCsdze8u8oDPro_5alloc3vecINtB2_3VecTNtNtCsATtFUPiRFW_3syn4attr4MetaNtNtCsaQ2CmD7W1Vs_15zerocopy_derive4repr8EnumReprEE3newB1c_, symObjAddr: 0x19D0, symBinAddr: 0x474C, symSize: 0x28 }
  - { offset: 0x15DD4, size: 0x8, addend: 0x0, symName: __RNvMs_NtCsdze8u8oDPro_5alloc3vecINtB4_3VecNtNtCsATtFUPiRFW_3syn4attr4MetaE4pushCsaQ2CmD7W1Vs_15zerocopy_derive, symObjAddr: 0x19F8, symBinAddr: 0x4774, symSize: 0x12C }
  - { offset: 0x160E9, size: 0x8, addend: 0x0, symName: __RNvMs_NtCsdze8u8oDPro_5alloc3vecINtB4_3VecNtNtCsATtFUPiRFW_3syn4attr4MetaE7reserveCsaQ2CmD7W1Vs_15zerocopy_derive, symObjAddr: 0x1B24, symBinAddr: 0x48A0, symSize: 0xC4 }
  - { offset: 0x16347, size: 0x8, addend: 0x0, symName: __RNvMs_NtCsdze8u8oDPro_5alloc3vecINtB4_3VecNtNtCsATtFUPiRFW_3syn4attr4MetaE8as_sliceCsaQ2CmD7W1Vs_15zerocopy_derive, symObjAddr: 0x1BE8, symBinAddr: 0x4964, symSize: 0x7C }
  - { offset: 0x165C3, size: 0x8, addend: 0x0, symName: __RNvMs_NtCsdze8u8oDPro_5alloc3vecINtB4_3VecNtNtCsATtFUPiRFW_3syn5error5ErrorE4pushCsaQ2CmD7W1Vs_15zerocopy_derive, symObjAddr: 0x1C64, symBinAddr: 0x49E0, symSize: 0x114 }
  - { offset: 0x168C9, size: 0x8, addend: 0x0, symName: __RNvMs_NtCsdze8u8oDPro_5alloc3vecINtB4_3VecNtNtCsATtFUPiRFW_3syn5error5ErrorE8as_sliceCsaQ2CmD7W1Vs_15zerocopy_derive, symObjAddr: 0x1D78, symBinAddr: 0x4AF4, symSize: 0x7C }
  - { offset: 0x169FC, size: 0x8, addend: 0x0, symName: __RNvMs_NtCsdze8u8oDPro_5alloc3vecINtB4_3VecNtNtCsATtFUPiRFW_3syn5error5ErrorE8is_emptyCsaQ2CmD7W1Vs_15zerocopy_derive, symObjAddr: 0x1DF4, symBinAddr: 0x4B70, symSize: 0x20 }
  - { offset: 0x16B53, size: 0x8, addend: 0x0, symName: __RNvMs_NtCsdze8u8oDPro_5alloc3vecINtB4_3VecNtNtCsATtFUPiRFW_3syn8generics12GenericParamE7reserveCsaQ2CmD7W1Vs_15zerocopy_derive, symObjAddr: 0x1E14, symBinAddr: 0x4B90, symSize: 0xC4 }
  - { offset: 0x16DA3, size: 0x8, addend: 0x0, symName: __RNvMs_NtCsdze8u8oDPro_5alloc3vecINtB4_3VecNtNtCsATtFUPiRFW_3syn8generics14WherePredicateE7reserveCsaQ2CmD7W1Vs_15zerocopy_derive, symObjAddr: 0x1ED8, symBinAddr: 0x4C54, symSize: 0xC4 }
  - { offset: 0x17001, size: 0x8, addend: 0x0, symName: __RNvMs_NtCsdze8u8oDPro_5alloc3vecINtB4_3VecNtNtCsATtFUPiRFW_3syn8generics14WherePredicateE8as_sliceCsaQ2CmD7W1Vs_15zerocopy_derive, symObjAddr: 0x1F9C, symBinAddr: 0x4D18, symSize: 0x7C }
  - { offset: 0x1728A, size: 0x8, addend: 0x0, symName: __RNvMs_NtCsdze8u8oDPro_5alloc3vecINtB4_3VecNtNtCsaQ2CmD7W1Vs_15zerocopy_derive4repr10StructReprE4pushBI_, symObjAddr: 0x2018, symBinAddr: 0x4D94, symSize: 0xFC }
  - { offset: 0x1758F, size: 0x8, addend: 0x0, symName: __RNvMs_NtCsdze8u8oDPro_5alloc3vecINtB4_3VecNtNtCsaQ2CmD7W1Vs_15zerocopy_derive4repr10StructReprE8as_sliceBI_, symObjAddr: 0x2114, symBinAddr: 0x4E90, symSize: 0x7C }
  - { offset: 0x176C2, size: 0x8, addend: 0x0, symName: __RNvMs_NtCsdze8u8oDPro_5alloc3vecINtB4_3VecNtNtCsaQ2CmD7W1Vs_15zerocopy_derive4repr10StructReprE8is_emptyBI_, symObjAddr: 0x2190, symBinAddr: 0x4F0C, symSize: 0x20 }
  - { offset: 0x17890, size: 0x8, addend: 0x0, symName: __RNvMs_NtCsdze8u8oDPro_5alloc3vecINtB4_3VecNtNtCsaQ2CmD7W1Vs_15zerocopy_derive4repr8EnumReprE4pushBI_, symObjAddr: 0x21B0, symBinAddr: 0x4F2C, symSize: 0xFC }
  - { offset: 0x17B95, size: 0x8, addend: 0x0, symName: __RNvMs_NtCsdze8u8oDPro_5alloc3vecINtB4_3VecNtNtCsaQ2CmD7W1Vs_15zerocopy_derive4repr8EnumReprE8as_sliceBI_, symObjAddr: 0x22AC, symBinAddr: 0x5028, symSize: 0x7C }
  - { offset: 0x17CC8, size: 0x8, addend: 0x0, symName: __RNvMs_NtCsdze8u8oDPro_5alloc3vecINtB4_3VecNtNtCsaQ2CmD7W1Vs_15zerocopy_derive4repr8EnumReprE8is_emptyBI_, symObjAddr: 0x2328, symBinAddr: 0x50A4, symSize: 0x20 }
  - { offset: 0x17E1F, size: 0x8, addend: 0x0, symName: __RNvMs_NtCsdze8u8oDPro_5alloc3vecINtB4_3VecRNtNtCsATtFUPiRFW_3syn2ty4TypeE7reserveCsaQ2CmD7W1Vs_15zerocopy_derive, symObjAddr: 0x2348, symBinAddr: 0x50C4, symSize: 0xB8 }
  - { offset: 0x18070, size: 0x8, addend: 0x0, symName: __RNvMs_NtCsdze8u8oDPro_5alloc3vecINtB4_3VecRNtNtCsATtFUPiRFW_3syn2ty4TypeE8as_sliceCsaQ2CmD7W1Vs_15zerocopy_derive, symObjAddr: 0x2400, symBinAddr: 0x517C, symSize: 0x78 }
  - { offset: 0x181A3, size: 0x8, addend: 0x0, symName: __RNvMs_NtCsdze8u8oDPro_5alloc3vecINtB4_3VecRNtNtCsATtFUPiRFW_3syn2ty4TypeE8is_emptyCsaQ2CmD7W1Vs_15zerocopy_derive, symObjAddr: 0x2478, symBinAddr: 0x51F4, symSize: 0x20 }
  - { offset: 0x18203, size: 0x8, addend: 0x0, symName: __RNvMs_NtCsdze8u8oDPro_5alloc3vecINtB4_3VecTNtNtCsATtFUPiRFW_3syn4attr4MetaNtNtBJ_5token5CommaEE3lenCsaQ2CmD7W1Vs_15zerocopy_derive, symObjAddr: 0x2498, symBinAddr: 0x5214, symSize: 0x18 }
  - { offset: 0x183A6, size: 0x8, addend: 0x0, symName: __RNvMs_NtCsdze8u8oDPro_5alloc3vecINtB4_3VecTNtNtCsATtFUPiRFW_3syn4attr4MetaNtNtBJ_5token5CommaEE4pushCsaQ2CmD7W1Vs_15zerocopy_derive, symObjAddr: 0x24B0, symBinAddr: 0x522C, symSize: 0x12C }
  - { offset: 0x186F1, size: 0x8, addend: 0x0, symName: __RNvMs_NtCsdze8u8oDPro_5alloc3vecINtB4_3VecTNtNtCsATtFUPiRFW_3syn4attr4MetaNtNtCsaQ2CmD7W1Vs_15zerocopy_derive4repr10StructReprEE12as_mut_sliceB1e_, symObjAddr: 0x25DC, symBinAddr: 0x5358, symSize: 0x7C }
  - { offset: 0x18998, size: 0x8, addend: 0x0, symName: __RNvMs_NtCsdze8u8oDPro_5alloc3vecINtB4_3VecTNtNtCsATtFUPiRFW_3syn4attr4MetaNtNtCsaQ2CmD7W1Vs_15zerocopy_derive4repr10StructReprEE18spare_capacity_mutB1e_, symObjAddr: 0x2658, symBinAddr: 0x53D4, symSize: 0xE0 }
  - { offset: 0x18C7E, size: 0x8, addend: 0x0, symName: __RNvMs_NtCsdze8u8oDPro_5alloc3vecINtB4_3VecTNtNtCsATtFUPiRFW_3syn4attr4MetaNtNtCsaQ2CmD7W1Vs_15zerocopy_derive4repr10StructReprEE4pushB1e_, symObjAddr: 0x2738, symBinAddr: 0x54B4, symSize: 0x12C }
  - { offset: 0x18F7E, size: 0x8, addend: 0x0, symName: __RNvMs_NtCsdze8u8oDPro_5alloc3vecINtB4_3VecTNtNtCsATtFUPiRFW_3syn4attr4MetaNtNtCsaQ2CmD7W1Vs_15zerocopy_derive4repr10StructReprEE8as_sliceB1e_, symObjAddr: 0x2864, symBinAddr: 0x55E0, symSize: 0x7C }
  - { offset: 0x19207, size: 0x8, addend: 0x0, symName: __RNvMs_NtCsdze8u8oDPro_5alloc3vecINtB4_3VecTNtNtCsATtFUPiRFW_3syn4attr4MetaNtNtCsaQ2CmD7W1Vs_15zerocopy_derive4repr4ReprEE4pushB1e_, symObjAddr: 0x28E0, symBinAddr: 0x565C, symSize: 0x12C }
  - { offset: 0x19510, size: 0x8, addend: 0x0, symName: __RNvMs_NtCsdze8u8oDPro_5alloc3vecINtB4_3VecTNtNtCsATtFUPiRFW_3syn4attr4MetaNtNtCsaQ2CmD7W1Vs_15zerocopy_derive4repr4ReprEE8as_sliceB1e_, symObjAddr: 0x2A0C, symBinAddr: 0x5788, symSize: 0x7C }
  - { offset: 0x19773, size: 0x8, addend: 0x0, symName: __RNvMs_NtCsdze8u8oDPro_5alloc3vecINtB4_3VecTNtNtCsATtFUPiRFW_3syn4attr4MetaNtNtCsaQ2CmD7W1Vs_15zerocopy_derive4repr8EnumReprEE12as_mut_sliceB1e_, symObjAddr: 0x2A88, symBinAddr: 0x5804, symSize: 0x7C }
  - { offset: 0x19A1A, size: 0x8, addend: 0x0, symName: __RNvMs_NtCsdze8u8oDPro_5alloc3vecINtB4_3VecTNtNtCsATtFUPiRFW_3syn4attr4MetaNtNtCsaQ2CmD7W1Vs_15zerocopy_derive4repr8EnumReprEE18spare_capacity_mutB1e_, symObjAddr: 0x2B04, symBinAddr: 0x5880, symSize: 0xE0 }
  - { offset: 0x19D00, size: 0x8, addend: 0x0, symName: __RNvMs_NtCsdze8u8oDPro_5alloc3vecINtB4_3VecTNtNtCsATtFUPiRFW_3syn4attr4MetaNtNtCsaQ2CmD7W1Vs_15zerocopy_derive4repr8EnumReprEE4pushB1e_, symObjAddr: 0x2BE4, symBinAddr: 0x5960, symSize: 0x12C }
  - { offset: 0x1A000, size: 0x8, addend: 0x0, symName: __RNvMs_NtCsdze8u8oDPro_5alloc3vecINtB4_3VecTNtNtCsATtFUPiRFW_3syn4attr4MetaNtNtCsaQ2CmD7W1Vs_15zerocopy_derive4repr8EnumReprEE8as_sliceB1e_, symObjAddr: 0x2D10, symBinAddr: 0x5A8C, symSize: 0x7C }
  - { offset: 0x1A11B, size: 0x8, addend: 0x0, symName: __RNvMs_NtCsdze8u8oDPro_5alloc3vecINtB4_3VecTNtNtCsATtFUPiRFW_3syn4data7VariantNtNtBJ_5token5CommaEE3lenCsaQ2CmD7W1Vs_15zerocopy_derive, symObjAddr: 0x2D8C, symBinAddr: 0x5B08, symSize: 0x18 }
  - { offset: 0x1C280, size: 0x8, addend: 0x0, symName: __RINvNtNtNtCs9f3LFPSIp77_4core4iter8adapters5chain17and_then_or_clearINtB2_5ChainIB15_INtNtB4_7flatten7FlattenINtNtB8_6option8IntoIterINtNtCsATtFUPiRFW_3syn10punctuated4IterNtNtB2c_8generics14WherePredicateEEEINtNtNtB8_5slice4iter4IterB2K_EEINtB1M_4IterB2K_EERB2K_NvYB14_NtNtNtB6_6traits8iterator8Iterator4nextECsaQ2CmD7W1Vs_15zerocopy_derive, symObjAddr: 0x0, symBinAddr: 0x7564, symSize: 0xFC }
  - { offset: 0x1C90D, size: 0x8, addend: 0x0, symName: __RINvXs6_NtCs475r2uZUTuc_11proc_macro23impNtB6_11TokenStreamINtNtNtNtCs9f3LFPSIp77_4core4iter6traits7collect12FromIteratorBD_E9from_iterINtNtNtB12_8adapters3map3MapIB2a_INtNtNtB14_5slice4iter4IterNtNtCsATtFUPiRFW_3syn5error5ErrorENvMB39_B37_16to_compile_errorENCINvXs7_B8_NtB8_11TokenStreamIBW_B4l_E9from_iterB2B_E0EECsaQ2CmD7W1Vs_15zerocopy_derive, symObjAddr: 0x1BB4, symBinAddr: 0x9118, symSize: 0x264 }
  - { offset: 0x1C987, size: 0x8, addend: 0x0, symName: __RNCINvXs6_NtCs475r2uZUTuc_11proc_macro23impNtB8_11TokenStreamINtNtNtNtCs9f3LFPSIp77_4core4iter6traits7collect12FromIteratorBF_E9from_iterINtNtNtB14_8adapters3map3MapIB2c_INtNtNtB16_5slice4iter4IterNtNtCsATtFUPiRFW_3syn5error5ErrorENvMB3b_B39_16to_compile_errorENCINvXs7_Ba_NtBa_11TokenStreamIBY_B4n_E9from_iterB2D_E0EE0CsaQ2CmD7W1Vs_15zerocopy_derive, symObjAddr: 0x2248, symBinAddr: 0x97AC, symSize: 0x10C }
  - { offset: 0x1C9E4, size: 0x8, addend: 0x0, symName: __RNCINvXs6_NtCs475r2uZUTuc_11proc_macro23impNtB8_11TokenStreamINtNtNtNtCs9f3LFPSIp77_4core4iter6traits7collect12FromIteratorBF_E9from_iterINtNtNtB14_8adapters3map3MapIB2c_INtNtNtB16_5slice4iter4IterNtNtCsATtFUPiRFW_3syn5error5ErrorENvMB3b_B39_16to_compile_errorENCINvXs7_Ba_NtBa_11TokenStreamIBY_B4n_E9from_iterB2D_E0EEs_0CsaQ2CmD7W1Vs_15zerocopy_derive, symObjAddr: 0x2354, symBinAddr: 0x98B8, symSize: 0xFC }
  - { offset: 0x1CA39, size: 0x8, addend: 0x0, symName: __RNvXsA_NtCs475r2uZUTuc_11proc_macro23impNtB5_19DeferredTokenStreamNtNtCs9f3LFPSIp77_4core5clone5Clone5cloneCsaQ2CmD7W1Vs_15zerocopy_derive, symObjAddr: 0x2EF4, symBinAddr: 0xA458, symSize: 0x88 }
  - { offset: 0x1CA6B, size: 0x8, addend: 0x0, symName: __RNvXsz_NtCs475r2uZUTuc_11proc_macro23impNtB5_11TokenStreamNtNtCs9f3LFPSIp77_4core5clone5Clone5cloneCsaQ2CmD7W1Vs_15zerocopy_derive, symObjAddr: 0x4404, symBinAddr: 0xB968, symSize: 0x98 }
  - { offset: 0x1CB75, size: 0x8, addend: 0x0, symName: __RINvXsb_NtCs475r2uZUTuc_11proc_macro28fallbackNtB6_11TokenStreamINtNtNtNtCs9f3LFPSIp77_4core4iter6traits7collect6ExtendBI_E6extendINtNtNtB17_8adapters3map3MapIB25_IB25_INtNtNtB19_5slice4iter4IterNtNtCsATtFUPiRFW_3syn5error5ErrorENvMB39_B37_16to_compile_errorENCINvXs7_B8_NtB8_11TokenStreamINtB13_12FromIteratorB4l_E9from_iterB2B_E0ENCINvXs6_NtB8_3impNtB5t_11TokenStreamIB4E_B5C_E9from_iterB2w_Es_0EECsaQ2CmD7W1Vs_15zerocopy_derive, symObjAddr: 0x1E18, symBinAddr: 0x937C, symSize: 0xC8 }
  - { offset: 0x1CBBD, size: 0x8, addend: 0x0, symName: __RNvXss_NtCs475r2uZUTuc_11proc_macro28fallbackNtB5_11TokenStreamNtNtCs9f3LFPSIp77_4core5clone5Clone5cloneCsaQ2CmD7W1Vs_15zerocopy_derive, symObjAddr: 0x3114, symBinAddr: 0xA678, symSize: 0x24 }
  - { offset: 0x1FFBF, size: 0x8, addend: 0x0, symName: __RINvNtNtNtCs9f3LFPSIp77_4core4iter8adapters5chain17and_then_or_clearINtB2_5ChainIB15_INtNtB4_7flatten7FlattenINtNtB8_6option8IntoIterINtNtCsATtFUPiRFW_3syn10punctuated4IterNtNtB2c_8generics14WherePredicateEEEINtNtNtB8_5slice4iter4IterB2K_EEINtB1M_4IterB2K_EERB2K_NvYB14_NtNtNtB6_6traits8iterator8Iterator4nextECsaQ2CmD7W1Vs_15zerocopy_derive, symObjAddr: 0x0, symBinAddr: 0x7564, symSize: 0xFC }
  - { offset: 0x20104, size: 0x8, addend: 0x0, symName: __RINvNtNtNtCs9f3LFPSIp77_4core4iter8adapters5chain17and_then_or_clearINtB2_5ChainINtNtB4_7flatten7FlattenINtNtB8_6option8IntoIterINtNtCsATtFUPiRFW_3syn10punctuated4IterNtNtB27_8generics14WherePredicateEEEINtNtNtB8_5slice4iter4IterB2F_EERB2F_NvYB14_NtNtNtB6_6traits8iterator8Iterator4nextECsaQ2CmD7W1Vs_15zerocopy_derive, symObjAddr: 0xFC, symBinAddr: 0x7660, symSize: 0xFC }
  - { offset: 0x20249, size: 0x8, addend: 0x0, symName: __RINvNtNtNtCs9f3LFPSIp77_4core4iter8adapters5chain17and_then_or_clearINtNtB4_7flatten7FlattenINtNtB8_6option8IntoIterINtNtCsATtFUPiRFW_3syn10punctuated4IterNtNtB1V_8generics14WherePredicateEEERB2t_NvYB14_NtNtNtB6_6traits8iterator8Iterator4nextECsaQ2CmD7W1Vs_15zerocopy_derive, symObjAddr: 0x1F8, symBinAddr: 0x775C, symSize: 0xFC }
  - { offset: 0x203F7, size: 0x8, addend: 0x0, symName: __RNCNvXs_NtNtNtCs9f3LFPSIp77_4core4iter8adapters5chainINtB6_5ChainIBQ_IBQ_INtNtB8_7flatten7FlattenINtNtBc_6option8IntoIterINtNtCsATtFUPiRFW_3syn10punctuated4IterNtNtB20_8generics14WherePredicateEEEINtNtNtBc_5slice4iter4IterB2y_EEINtB1A_4IterB2y_EEB3E_ENtNtNtBa_6traits8iterator8Iterator4next0CsaQ2CmD7W1Vs_15zerocopy_derive, symObjAddr: 0x2450, symBinAddr: 0x99B4, symSize: 0x7C }
  - { offset: 0x204CE, size: 0x8, addend: 0x0, symName: __RNCNvXs_NtNtNtCs9f3LFPSIp77_4core4iter8adapters5chainINtB6_5ChainIBQ_INtNtB8_7flatten7FlattenINtNtBc_6option8IntoIterINtNtCsATtFUPiRFW_3syn10punctuated4IterNtNtB1W_8generics14WherePredicateEEEINtNtNtBc_5slice4iter4IterB2u_EEINtB1w_4IterB2u_EENtNtNtBa_6traits8iterator8Iterator4next0CsaQ2CmD7W1Vs_15zerocopy_derive, symObjAddr: 0x24CC, symBinAddr: 0x9A30, symSize: 0x7C }
  - { offset: 0x205A5, size: 0x8, addend: 0x0, symName: __RNCNvXs_NtNtNtCs9f3LFPSIp77_4core4iter8adapters5chainINtB6_5ChainINtNtB8_7flatten7FlattenINtNtBc_6option8IntoIterINtNtCsATtFUPiRFW_3syn10punctuated4IterNtNtB1S_8generics14WherePredicateEEEINtNtNtBc_5slice4iter4IterB2q_EENtNtNtBa_6traits8iterator8Iterator4next0CsaQ2CmD7W1Vs_15zerocopy_derive, symObjAddr: 0x2548, symBinAddr: 0x9AAC, symSize: 0x80 }
  - { offset: 0x2067D, size: 0x8, addend: 0x0, symName: __RNvXs_NtNtNtCs9f3LFPSIp77_4core4iter8adapters5chainINtB4_5ChainIBO_IBO_INtNtB6_7flatten7FlattenINtNtBa_6option8IntoIterINtNtCsATtFUPiRFW_3syn10punctuated4IterNtNtB1Y_8generics14WherePredicateEEEINtNtNtBa_5slice4iter4IterB2w_EEINtB1y_4IterB2w_EEB3C_ENtNtNtB8_6traits8iterator8Iterator4nextCsaQ2CmD7W1Vs_15zerocopy_derive, symObjAddr: 0x3018, symBinAddr: 0xA57C, symSize: 0x30 }
  - { offset: 0x206BB, size: 0x8, addend: 0x0, symName: __RNvXs_NtNtNtCs9f3LFPSIp77_4core4iter8adapters5chainINtB4_5ChainIBO_INtNtB6_7flatten7FlattenINtNtBa_6option8IntoIterINtNtCsATtFUPiRFW_3syn10punctuated4IterNtNtB1U_8generics14WherePredicateEEEINtNtNtBa_5slice4iter4IterB2s_EEINtB1u_4IterB2s_EENtNtNtB8_6traits8iterator8Iterator4nextCsaQ2CmD7W1Vs_15zerocopy_derive, symObjAddr: 0x3048, symBinAddr: 0xA5AC, symSize: 0x30 }
  - { offset: 0x206F9, size: 0x8, addend: 0x0, symName: __RNvXs_NtNtNtCs9f3LFPSIp77_4core4iter8adapters5chainINtB4_5ChainINtNtB6_7flatten7FlattenINtNtBa_6option8IntoIterINtNtCsATtFUPiRFW_3syn10punctuated4IterNtNtB1Q_8generics14WherePredicateEEEINtNtNtBa_5slice4iter4IterB2o_EENtNtNtB8_6traits8iterator8Iterator4nextCsaQ2CmD7W1Vs_15zerocopy_derive, symObjAddr: 0x3078, symBinAddr: 0xA5DC, symSize: 0x30 }
  - { offset: 0x2079B, size: 0x8, addend: 0x0, symName: __RINvNtNtNtCs9f3LFPSIp77_4core4iter8adapters7flatten17and_then_or_clearINtNtCsATtFUPiRFW_3syn10punctuated4IterNtNtB1b_4data5FieldERB1J_NvYB16_NtNtNtB6_6traits8iterator8Iterator4nextECsaQ2CmD7W1Vs_15zerocopy_derive, symObjAddr: 0x2F4, symBinAddr: 0x7858, symSize: 0xF8 }
  - { offset: 0x208E2, size: 0x8, addend: 0x0, symName: __RINvNtNtNtCs9f3LFPSIp77_4core4iter8adapters7flatten17and_then_or_clearINtNtCsATtFUPiRFW_3syn10punctuated4IterNtNtB1b_8generics14WherePredicateERB1J_NvYB16_NtNtNtB6_6traits8iterator8Iterator4nextECsaQ2CmD7W1Vs_15zerocopy_derive, symObjAddr: 0x3EC, symBinAddr: 0x7950, symSize: 0xF8 }
  - { offset: 0x20A9D, size: 0x8, addend: 0x0, symName: __RNvXs1_NtNtNtCs9f3LFPSIp77_4core4iter8adapters7flattenINtB5_7FlatMapINtNtCsATtFUPiRFW_3syn10punctuated4IterNtNtB19_4data7VariantERNtB1J_6FieldsNCNvXs0_NtCsaQ2CmD7W1Vs_15zerocopy_derive3extNtNtB19_6derive8DataEnumNtB2p_7DataExt11field_types0ENtNtNtB9_6traits8iterator8Iterator4nextB2r_, symObjAddr: 0x2A4C, symBinAddr: 0x9FB0, symSize: 0x24 }
  - { offset: 0x20AE4, size: 0x8, addend: 0x0, symName: __RNvXs1_NtNtNtCs9f3LFPSIp77_4core4iter8adapters7flattenINtB5_7FlatMapINtNtCsATtFUPiRFW_3syn10punctuated4IterNtNtB19_4data7VariantERNtB1J_6FieldsNCNvXs0_NtCsaQ2CmD7W1Vs_15zerocopy_derive3extNtNtB19_6derive8DataEnumNtB2p_7DataExt11field_types0ENtNtNtB9_6traits8iterator8Iterator9size_hintB2r_, symObjAddr: 0x2A70, symBinAddr: 0x9FD4, symSize: 0x24 }
  - { offset: 0x20B31, size: 0x8, addend: 0x0, symName: __RNvXsn_NtNtNtCs9f3LFPSIp77_4core4iter8adapters7flattenINtB5_7FlattenINtNtB7_3map3MapIB15_IB15_INtNtNtBb_5slice4iter4IterNtNtCsATtFUPiRFW_3syn5error5ErrorENvMB1W_B1U_16to_compile_errorENCINvXs7_Cs475r2uZUTuc_11proc_macro2NtB35_11TokenStreamINtNtNtB9_6traits7collect12FromIteratorB3w_E9from_iterB1p_E0ENCINvXs6_NtB35_3impNtB4X_11TokenStreamIB3Q_B57_E9from_iterB1k_Es_0EENtNtB3U_8iterator8Iterator4nextCsaQ2CmD7W1Vs_15zerocopy_derive, symObjAddr: 0x30A8, symBinAddr: 0xA60C, symSize: 0x24 }
  - { offset: 0x20B71, size: 0x8, addend: 0x0, symName: __RNvXsn_NtNtNtCs9f3LFPSIp77_4core4iter8adapters7flattenINtB5_7FlattenINtNtB7_3map3MapIB15_IB15_INtNtNtBb_5slice4iter4IterNtNtCsATtFUPiRFW_3syn5error5ErrorENvMB1W_B1U_16to_compile_errorENCINvXs7_Cs475r2uZUTuc_11proc_macro2NtB35_11TokenStreamINtNtNtB9_6traits7collect12FromIteratorB3w_E9from_iterB1p_E0ENCINvXs6_NtB35_3impNtB4X_11TokenStreamIB3Q_B57_E9from_iterB1k_Es_0EENtNtB3U_8iterator8Iterator9size_hintCsaQ2CmD7W1Vs_15zerocopy_derive, symObjAddr: 0x30CC, symBinAddr: 0xA630, symSize: 0x24 }
  - { offset: 0x20BB1, size: 0x8, addend: 0x0, symName: __RNvXsn_NtNtNtCs9f3LFPSIp77_4core4iter8adapters7flattenINtB5_7FlattenINtNtBb_6option8IntoIterINtNtCsATtFUPiRFW_3syn10punctuated4IterNtNtB1x_8generics14WherePredicateEEENtNtNtB9_6traits8iterator8Iterator4nextCsaQ2CmD7W1Vs_15zerocopy_derive, symObjAddr: 0x30F0, symBinAddr: 0xA654, symSize: 0x24 }
  - { offset: 0x20BF7, size: 0x8, addend: 0x0, symName: __RNvXsx_NtNtNtCs9f3LFPSIp77_4core4iter8adapters7flattenINtB5_13FlattenCompatINtNtB7_3map3MapIB1c_IB1c_INtNtNtBb_5slice4iter4IterNtNtCsATtFUPiRFW_3syn5error5ErrorENvMB23_B21_16to_compile_errorENCINvXs7_Cs475r2uZUTuc_11proc_macro2NtB3c_11TokenStreamINtNtNtB9_6traits7collect12FromIteratorB3D_E9from_iterB1w_E0ENCINvXs6_NtB3c_3impNtB54_11TokenStreamIB3X_B5e_E9from_iterB1r_Es_0EINtNtB3c_5rcvec13RcVecIntoIterNtB3c_9TokenTreeEENtNtB41_8iterator8Iterator4nextCsaQ2CmD7W1Vs_15zerocopy_derive, symObjAddr: 0x3138, symBinAddr: 0xA69C, symSize: 0x12C }
  - { offset: 0x20C89, size: 0x8, addend: 0x0, symName: __RNvXsx_NtNtNtCs9f3LFPSIp77_4core4iter8adapters7flattenINtB5_13FlattenCompatINtNtB7_3map3MapIB1c_IB1c_INtNtNtBb_5slice4iter4IterNtNtCsATtFUPiRFW_3syn5error5ErrorENvMB23_B21_16to_compile_errorENCINvXs7_Cs475r2uZUTuc_11proc_macro2NtB3c_11TokenStreamINtNtNtB9_6traits7collect12FromIteratorB3D_E9from_iterB1w_E0ENCINvXs6_NtB3c_3impNtB54_11TokenStreamIB3X_B5e_E9from_iterB1r_Es_0EINtNtB3c_5rcvec13RcVecIntoIterNtB3c_9TokenTreeEENtNtB41_8iterator8Iterator9size_hintCsaQ2CmD7W1Vs_15zerocopy_derive, symObjAddr: 0x3264, symBinAddr: 0xA7C8, symSize: 0x7C8 }
  - { offset: 0x21319, size: 0x8, addend: 0x0, symName: __RNvXsx_NtNtNtCs9f3LFPSIp77_4core4iter8adapters7flattenINtB5_13FlattenCompatINtNtB7_3map3MapINtNtCsATtFUPiRFW_3syn10punctuated4IterNtNtB1w_4data7VariantENCNvXs0_NtCsaQ2CmD7W1Vs_15zerocopy_derive3extNtNtB1w_6derive8DataEnumNtB2y_7DataExt11field_types0EIB1s_NtB26_5FieldEENtNtNtB9_6traits8iterator8Iterator4nextB2A_, symObjAddr: 0x3A2C, symBinAddr: 0xAF90, symSize: 0x104 }
  - { offset: 0x213AB, size: 0x8, addend: 0x0, symName: __RNvXsx_NtNtNtCs9f3LFPSIp77_4core4iter8adapters7flattenINtB5_13FlattenCompatINtNtB7_3map3MapINtNtCsATtFUPiRFW_3syn10punctuated4IterNtNtB1w_4data7VariantENCNvXs0_NtCsaQ2CmD7W1Vs_15zerocopy_derive3extNtNtB1w_6derive8DataEnumNtB2y_7DataExt11field_types0EIB1s_NtB26_5FieldEENtNtNtB9_6traits8iterator8Iterator9size_hintB2A_, symObjAddr: 0x3B30, symBinAddr: 0xB094, symSize: 0x7C4 }
  - { offset: 0x21A3B, size: 0x8, addend: 0x0, symName: __RNvXsx_NtNtNtCs9f3LFPSIp77_4core4iter8adapters7flattenINtB5_13FlattenCompatINtNtBb_6option8IntoIterINtNtCsATtFUPiRFW_3syn10punctuated4IterNtNtB1E_8generics14WherePredicateEEB1z_ENtNtNtB9_6traits8iterator8Iterator4nextCsaQ2CmD7W1Vs_15zerocopy_derive, symObjAddr: 0x42F4, symBinAddr: 0xB858, symSize: 0x110 }
  - { offset: 0x21F3F, size: 0x8, addend: 0x0, symName: __RNvXsF_NtNtCs9f3LFPSIp77_4core4iter5rangejNtB5_4Step17forward_uncheckedCsaQ2CmD7W1Vs_15zerocopy_derive, symObjAddr: 0x2FA0, symBinAddr: 0xA504, symSize: 0x48 }
  - { offset: 0x21FAF, size: 0x8, addend: 0x0, symName: __RINvYINtNtNtNtCs9f3LFPSIp77_4core4iter8adapters5chain5ChainIB4_INtNtB8_7flatten7FlattenINtNtBc_6option8IntoIterINtNtCsATtFUPiRFW_3syn10punctuated4IterNtNtB1Q_8generics14WherePredicateEEEINtNtNtBc_5slice4iter4IterB2o_EEINtB1q_4IterB2o_EENtNtNtBa_6traits8iterator8Iterator5chainB3u_ECsaQ2CmD7W1Vs_15zerocopy_derive, symObjAddr: 0x1EE0, symBinAddr: 0x9444, symSize: 0xDC }
  - { offset: 0x22025, size: 0x8, addend: 0x0, symName: __RINvYINtNtNtNtCs9f3LFPSIp77_4core4iter8adapters5chain5ChainINtNtB8_7flatten7FlattenINtNtBc_6option8IntoIterINtNtCsATtFUPiRFW_3syn10punctuated4IterNtNtB1M_8generics14WherePredicateEEEINtNtNtBc_5slice4iter4IterB2k_EENtNtNtBa_6traits8iterator8Iterator5chainINtB1m_4IterB2k_EECsaQ2CmD7W1Vs_15zerocopy_derive, symObjAddr: 0x1FBC, symBinAddr: 0x9520, symSize: 0xDC }
  - { offset: 0x2209B, size: 0x8, addend: 0x0, symName: __RINvYINtNtNtNtCs9f3LFPSIp77_4core4iter8adapters7flatten7FlatMapINtNtCsATtFUPiRFW_3syn10punctuated4IterNtNtB14_4data7VariantERNtB1E_6FieldsNCNvXs0_NtCsaQ2CmD7W1Vs_15zerocopy_derive3extNtNtB14_6derive8DataEnumNtB2k_7DataExt11field_types0ENtNtNtBa_6traits8iterator8Iterator3mapRNtNtB14_2ty4TypeNCB2e_s_0EB2m_, symObjAddr: 0x2098, symBinAddr: 0x95FC, symSize: 0x30 }
  - { offset: 0x2211A, size: 0x8, addend: 0x0, symName: __RINvYINtNtNtNtCs9f3LFPSIp77_4core4iter8adapters7flatten7FlattenINtNtBc_6option8IntoIterINtNtCsATtFUPiRFW_3syn10punctuated4IterNtNtB1s_8generics14WherePredicateEEENtNtNtBa_6traits8iterator8Iterator5chainINtNtNtBc_5slice4iter4IterB20_EECsaQ2CmD7W1Vs_15zerocopy_derive, symObjAddr: 0x20C8, symBinAddr: 0x962C, symSize: 0xF0 }
  - { offset: 0x2219D, size: 0x8, addend: 0x0, symName: __RNvXs_NtNtNtCs9f3LFPSIp77_4core4iter6traits7collectINtNtNtB8_8adapters7flatten7FlattenINtNtBS_3map3MapIB1n_IB1n_INtNtNtBa_5slice4iter4IterNtNtCsATtFUPiRFW_3syn5error5ErrorENvMB2e_B2c_16to_compile_errorENCINvXs7_Cs475r2uZUTuc_11proc_macro2NtB3n_11TokenStreamINtB4_12FromIteratorB3O_E9from_iterB1H_E0ENCINvXs6_NtB3n_3impNtB4W_11TokenStreamIB48_B56_E9from_iterB1C_Es_0EENtB4_12IntoIterator9into_iterCsaQ2CmD7W1Vs_15zerocopy_derive, symObjAddr: 0x2FE8, symBinAddr: 0xA54C, symSize: 0x30 }
  - { offset: 0x22CD1, size: 0x8, addend: 0x0, symName: __RNvNvMNtNtCs9f3LFPSIp77_4core3ptr9const_ptrPp7sub_ptr18precondition_checkCsaQ2CmD7W1Vs_15zerocopy_derive, symObjAddr: 0x28C0, symBinAddr: 0x9E24, symSize: 0x40 }
  - { offset: 0x23716, size: 0x8, addend: 0x0, symName: __RINvNtNtNtNtCs9f3LFPSIp77_4core5slice4sort6stable9quicksort16stable_partitionTNtNtCsATtFUPiRFW_3syn4attr4MetaNtNtCsaQ2CmD7W1Vs_15zerocopy_derive4repr10StructReprENCINvB2_9quicksortB1d_NCINvMNtCsdze8u8oDPro_5alloc5sliceSB1d_7sort_byNCNvMB1L_INtB1L_6ConfigB1J_E14validate_reprs0E0E0EB1N_, symObjAddr: 0x4E4, symBinAddr: 0x7A48, symSize: 0x3D0 }
  - { offset: 0x23B5E, size: 0x8, addend: 0x0, symName: __RINvNtNtNtNtCs9f3LFPSIp77_4core5slice4sort6stable9quicksort16stable_partitionTNtNtCsATtFUPiRFW_3syn4attr4MetaNtNtCsaQ2CmD7W1Vs_15zerocopy_derive4repr10StructReprENCINvMNtCsdze8u8oDPro_5alloc5sliceSB1d_7sort_byNCNvMB1L_INtB1L_6ConfigB1J_E14validate_reprs0E0EB1N_, symObjAddr: 0x8B4, symBinAddr: 0x7E18, symSize: 0x3D0 }
  - { offset: 0x24033, size: 0x8, addend: 0x0, symName: __RINvNtNtNtNtCs9f3LFPSIp77_4core5slice4sort6stable9quicksort16stable_partitionTNtNtCsATtFUPiRFW_3syn4attr4MetaNtNtCsaQ2CmD7W1Vs_15zerocopy_derive4repr8EnumReprENCINvB2_9quicksortB1d_NCINvMNtCsdze8u8oDPro_5alloc5sliceSB1d_7sort_byNCNvMB1L_INtB1L_6ConfigB1J_E14validate_reprs0E0E0EB1N_, symObjAddr: 0xC84, symBinAddr: 0x81E8, symSize: 0x3D0 }
  - { offset: 0x2447B, size: 0x8, addend: 0x0, symName: __RINvNtNtNtNtCs9f3LFPSIp77_4core5slice4sort6stable9quicksort16stable_partitionTNtNtCsATtFUPiRFW_3syn4attr4MetaNtNtCsaQ2CmD7W1Vs_15zerocopy_derive4repr8EnumReprENCINvMNtCsdze8u8oDPro_5alloc5sliceSB1d_7sort_byNCNvMB1L_INtB1L_6ConfigB1J_E14validate_reprs0E0EB1N_, symObjAddr: 0x1054, symBinAddr: 0x85B8, symSize: 0x3D0 }
  - { offset: 0x248C3, size: 0x8, addend: 0x0, symName: __RINvNtNtNtNtCs9f3LFPSIp77_4core5slice4sort6stable9quicksort9quicksortTNtNtCsATtFUPiRFW_3syn4attr4MetaNtNtCsaQ2CmD7W1Vs_15zerocopy_derive4repr10StructReprENCINvMNtCsdze8u8oDPro_5alloc5sliceSB15_7sort_byNCNvMB1D_INtB1D_6ConfigB1B_E14validate_reprs0E0EB1F_, symObjAddr: 0x1424, symBinAddr: 0x8988, symSize: 0x3C8 }
  - { offset: 0x24B6E, size: 0x8, addend: 0x0, symName: __RINvNtNtNtNtCs9f3LFPSIp77_4core5slice4sort6stable9quicksort9quicksortTNtNtCsATtFUPiRFW_3syn4attr4MetaNtNtCsaQ2CmD7W1Vs_15zerocopy_derive4repr8EnumReprENCINvMNtCsdze8u8oDPro_5alloc5sliceSB15_7sort_byNCNvMB1D_INtB1D_6ConfigB1B_E14validate_reprs0E0EB1F_, symObjAddr: 0x17EC, symBinAddr: 0x8D50, symSize: 0x3C8 }
  - { offset: 0x24E04, size: 0x8, addend: 0x0, symName: __RNCINvNtNtNtNtCs9f3LFPSIp77_4core5slice4sort6stable9quicksort9quicksortTNtNtCsATtFUPiRFW_3syn4attr4MetaNtNtCsaQ2CmD7W1Vs_15zerocopy_derive4repr10StructReprENCINvMNtCsdze8u8oDPro_5alloc5sliceSB17_7sort_byNCNvMB1F_INtB1F_6ConfigB1D_E14validate_reprs0E0E0B1H_, symObjAddr: 0x21B8, symBinAddr: 0x971C, symSize: 0x48 }
  - { offset: 0x24E61, size: 0x8, addend: 0x0, symName: __RNCINvNtNtNtNtCs9f3LFPSIp77_4core5slice4sort6stable9quicksort9quicksortTNtNtCsATtFUPiRFW_3syn4attr4MetaNtNtCsaQ2CmD7W1Vs_15zerocopy_derive4repr8EnumReprENCINvMNtCsdze8u8oDPro_5alloc5sliceSB17_7sort_byNCNvMB1F_INtB1F_6ConfigB1D_E14validate_reprs0E0E0B1H_, symObjAddr: 0x2200, symBinAddr: 0x9764, symSize: 0x48 }
  - { offset: 0x250FA, size: 0x8, addend: 0x0, symName: __RNvXs2_NtNtCs9f3LFPSIp77_4core5slice5indexINtNtNtB9_3ops5range5RangejEINtB5_10SliceIndexSTNtNtCsATtFUPiRFW_3syn4attr4MetaNtNtCsaQ2CmD7W1Vs_15zerocopy_derive4repr10StructReprEE9index_mutB1Z_, symObjAddr: 0x2AF0, symBinAddr: 0xA054, symSize: 0xD0 }
  - { offset: 0x251E7, size: 0x8, addend: 0x0, symName: __RNvXs2_NtNtCs9f3LFPSIp77_4core5slice5indexINtNtNtB9_3ops5range5RangejEINtB5_10SliceIndexSTNtNtCsATtFUPiRFW_3syn4attr4MetaNtNtCsaQ2CmD7W1Vs_15zerocopy_derive4repr8EnumReprEE9index_mutB1Z_, symObjAddr: 0x2BC0, symBinAddr: 0xA124, symSize: 0xD0 }
  - { offset: 0x2541B, size: 0x8, addend: 0x0, symName: __RNvXs5_NtNtCs9f3LFPSIp77_4core5slice5indexINtNtNtB9_3ops5range9RangeFromjEINtB5_10SliceIndexSTNtNtCsATtFUPiRFW_3syn4attr4MetaNtNtCsaQ2CmD7W1Vs_15zerocopy_derive4repr10StructReprEE9index_mutB23_, symObjAddr: 0x2D7C, symBinAddr: 0xA2E0, symSize: 0xB0 }
  - { offset: 0x25575, size: 0x8, addend: 0x0, symName: __RNvXs5_NtNtCs9f3LFPSIp77_4core5slice5indexINtNtNtB9_3ops5range9RangeFromjEINtB5_10SliceIndexSTNtNtCsATtFUPiRFW_3syn4attr4MetaNtNtCsaQ2CmD7W1Vs_15zerocopy_derive4repr8EnumReprEE9index_mutB23_, symObjAddr: 0x2E2C, symBinAddr: 0xA390, symSize: 0xB0 }
  - { offset: 0x257AF, size: 0x8, addend: 0x0, symName: __RNvXs7_NtNtCs9f3LFPSIp77_4core5slice5indexNtNtNtB9_3ops5range9RangeFullINtB5_10SliceIndexSRNtNtCsATtFUPiRFW_3syn2ty4TypeE5indexCsaQ2CmD7W1Vs_15zerocopy_derive, symObjAddr: 0x2EDC, symBinAddr: 0xA440, symSize: 0x18 }
  - { offset: 0x25CFB, size: 0x8, addend: 0x0, symName: __RNvXs2_NtNtNtCs9f3LFPSIp77_4core3ops8function5implsQNCINvXs6_NtCs475r2uZUTuc_11proc_macro23impNtBX_11TokenStreamINtNtNtNtBb_4iter6traits7collect12FromIteratorB1u_E9from_iterINtNtNtB1T_8adapters3map3MapIB2M_INtNtNtBb_5slice4iter4IterNtNtCsATtFUPiRFW_3syn5error5ErrorENvMB3K_B3I_16to_compile_errorENCINvXs7_BZ_NtBZ_11TokenStreamIB1N_B4W_E9from_iterB3d_E0EEs_0INtB7_6FnOnceTB1u_EE9call_onceCsaQ2CmD7W1Vs_15zerocopy_derive, symObjAddr: 0x2C90, symBinAddr: 0xA1F4, symSize: 0x3C }
  - { offset: 0x25D4A, size: 0x8, addend: 0x0, symName: __RNvXs2_NtNtNtCs9f3LFPSIp77_4core3ops8function5implsQNCNvXs0_NtCsaQ2CmD7W1Vs_15zerocopy_derive3extNtNtCsATtFUPiRFW_3syn6derive8DataEnumNtBW_7DataExt11field_types0INtB7_6FnOnceTRNtNtB1B_4data7VariantEE9call_onceBY_, symObjAddr: 0x2CCC, symBinAddr: 0xA230, symSize: 0x2C }
  - { offset: 0x25D99, size: 0x8, addend: 0x0, symName: __RNvXs2_NtNtNtCs9f3LFPSIp77_4core3ops8function5implsQNCNvXs0_NtCsaQ2CmD7W1Vs_15zerocopy_derive3extNtNtCsATtFUPiRFW_3syn6derive8DataEnumNtBW_7DataExt11field_typess_0INtB7_6FnOnceTRNtNtB1B_4data5FieldEE9call_onceBY_, symObjAddr: 0x2CF8, symBinAddr: 0xA25C, symSize: 0x2C }
  - { offset: 0x25DE8, size: 0x8, addend: 0x0, symName: __RNvXs2_NtNtNtCs9f3LFPSIp77_4core3ops8function5implsQNCNvXs1_NtCsaQ2CmD7W1Vs_15zerocopy_derive3extNtNtCsATtFUPiRFW_3syn6derive9DataUnionNtBW_7DataExt11field_types0INtB7_6FnOnceTRNtNtB1B_4data5FieldEE9call_onceBY_, symObjAddr: 0x2D24, symBinAddr: 0xA288, symSize: 0x2C }
  - { offset: 0x25E37, size: 0x8, addend: 0x0, symName: __RNvXs2_NtNtNtCs9f3LFPSIp77_4core3ops8function5implsQNCNvXs_NtCsaQ2CmD7W1Vs_15zerocopy_derive3extNtNtCsATtFUPiRFW_3syn6derive10DataStructNtBV_7DataExt11field_types0INtB7_6FnOnceTRNtNtB1A_4data5FieldEE9call_onceBX_, symObjAddr: 0x2D50, symBinAddr: 0xA2B4, symSize: 0x2C }
  - { offset: 0x26173, size: 0x8, addend: 0x0, symName: __RNvXs0_NtNtCs9f3LFPSIp77_4core5array4iterINtB5_8IntoIterjKj2_ENtNtNtNtB9_4iter6traits8iterator8Iterator4nextCsaQ2CmD7W1Vs_15zerocopy_derive, symObjAddr: 0x2900, symBinAddr: 0x9E64, symSize: 0xC4 }
  - { offset: 0x2632E, size: 0x8, addend: 0x0, symName: __RNvXs2_NtNtCs9f3LFPSIp77_4core5array4iterINtB5_8IntoIterjKj2_ENtNtNtB9_3ops4drop4Drop4dropCsaQ2CmD7W1Vs_15zerocopy_derive, symObjAddr: 0x2A94, symBinAddr: 0x9FF8, symSize: 0x5C }
  - { offset: 0x2C01B, size: 0x8, addend: 0x0, symName: __RNvXs19_NtCsdze8u8oDPro_5alloc6stringNtB6_6StringNtNtCs9f3LFPSIp77_4core3cmp3Ord3cmpCsaQ2CmD7W1Vs_15zerocopy_derive, symObjAddr: 0x29C4, symBinAddr: 0x9F28, symSize: 0x2C }
  - { offset: 0x2C082, size: 0x8, addend: 0x0, symName: __RNvXs1B_NtCsdze8u8oDPro_5alloc6stringReNtB6_8ToString9to_stringCsaQ2CmD7W1Vs_15zerocopy_derive, symObjAddr: 0x29F0, symBinAddr: 0x9F54, symSize: 0x5C }
  - { offset: 0x2C1B3, size: 0x8, addend: 0x0, symName: __RNvXsB_NtCsdze8u8oDPro_5alloc6stringNtB5_6StringNtB5_8ToString9to_stringCsaQ2CmD7W1Vs_15zerocopy_derive, symObjAddr: 0x2F7C, symBinAddr: 0xA4E0, symSize: 0x24 }
  - { offset: 0x2CDDF, size: 0x8, addend: 0x0, symName: __RNCNvXs0_NtCsaQ2CmD7W1Vs_15zerocopy_derive3extNtNtCsATtFUPiRFW_3syn6derive8DataEnumNtB7_7DataExt11field_types0B9_, symObjAddr: 0x450C, symBinAddr: 0xBA70, symSize: 0x30 }
  - { offset: 0x2CE15, size: 0x8, addend: 0x0, symName: __RNCNvXs0_NtCsaQ2CmD7W1Vs_15zerocopy_derive3extNtNtCsATtFUPiRFW_3syn6derive8DataEnumNtB7_7DataExt11field_typess_0B9_, symObjAddr: 0x453C, symBinAddr: 0xBAA0, symSize: 0x30 }
  - { offset: 0x2CE57, size: 0x8, addend: 0x0, symName: __RNCNvXs_NtCsaQ2CmD7W1Vs_15zerocopy_derive3extNtNtCsATtFUPiRFW_3syn6derive10DataStructNtB6_7DataExt11field_types0B8_, symObjAddr: 0x44DC, symBinAddr: 0xBA40, symSize: 0x30 }
  - { offset: 0x2CEA0, size: 0x8, addend: 0x0, symName: __RNCNvXs1_NtCsaQ2CmD7W1Vs_15zerocopy_derive3extNtNtCsATtFUPiRFW_3syn6derive9DataUnionNtB7_7DataExt11field_types0B9_, symObjAddr: 0x456C, symBinAddr: 0xBAD0, symSize: 0x30 }
  - { offset: 0x2D6A0, size: 0x8, addend: 0x0, symName: __RNvMNtCsdze8u8oDPro_5alloc6stringNtB2_6String6as_strCsaQ2CmD7W1Vs_15zerocopy_derive, symObjAddr: 0x25C8, symBinAddr: 0x9B2C, symSize: 0x88 }
  - { offset: 0x2D830, size: 0x8, addend: 0x0, symName: __RNvMNtNtNtNtCs9f3LFPSIp77_4core5slice4sort6stable9quicksortINtB2_14PartitionStateTNtNtCsATtFUPiRFW_3syn4attr4MetaNtNtCsaQ2CmD7W1Vs_15zerocopy_derive4repr10StructReprEE13partition_oneB1R_, symObjAddr: 0x2650, symBinAddr: 0x9BB4, symSize: 0x138 }
  - { offset: 0x2D926, size: 0x8, addend: 0x0, symName: __RNvMNtNtNtNtCs9f3LFPSIp77_4core5slice4sort6stable9quicksortINtB2_14PartitionStateTNtNtCsATtFUPiRFW_3syn4attr4MetaNtNtCsaQ2CmD7W1Vs_15zerocopy_derive4repr8EnumReprEE13partition_oneB1R_, symObjAddr: 0x2788, symBinAddr: 0x9CEC, symSize: 0x138 }
  - { offset: 0x2DDAE, size: 0x8, addend: 0x0, symName: __RNvYINtNtNtNtCs9f3LFPSIp77_4core4iter8adapters5chain5ChainIB3_IB3_INtNtB7_7flatten7FlattenINtNtBb_6option8IntoIterINtNtCsATtFUPiRFW_3syn10punctuated4IterNtNtB1T_8generics14WherePredicateEEEINtNtNtBb_5slice4iter4IterB2r_EEINtB1t_4IterB2r_EEB3x_ENtNtNtCs62MdaZFMefA_5quote9___private3ext14RepIteratorExt15quote_into_iterCsaQ2CmD7W1Vs_15zerocopy_derive, symObjAddr: 0x449C, symBinAddr: 0xBA00, symSize: 0x40 }
  - { offset: 0x2E049, size: 0x8, addend: 0x0, symName: __RINvCsATtFUPiRFW_3syn5parseNtNtB2_6derive11DeriveInputECsaQ2CmD7W1Vs_15zerocopy_derive, symObjAddr: 0x0, symBinAddr: 0xBB00, symSize: 0x30 }
  - { offset: 0x2E57C, size: 0x8, addend: 0x0, symName: __RNCNCNvXsx_NtCsATtFUPiRFW_3syn10punctuatedINtB9_11PrivateIterNtNtBb_4data7VariantNtNtBb_5token5CommaENtNtNtNtCs9f3LFPSIp77_4core4iter6traits12double_ended19DoubleEndedIterator9next_back00CsaQ2CmD7W1Vs_15zerocopy_derive, symObjAddr: 0x25F8, symBinAddr: 0xE0F8, symSize: 0x24 }
  - { offset: 0x2E5C7, size: 0x8, addend: 0x0, symName: __RNCNCNvXsx_NtCsATtFUPiRFW_3syn10punctuatedINtB9_11PrivateIterNtNtBb_8generics14WherePredicateNtNtBb_5token5CommaENtNtNtNtCs9f3LFPSIp77_4core4iter6traits12double_ended19DoubleEndedIterator9next_back00CsaQ2CmD7W1Vs_15zerocopy_derive, symObjAddr: 0x261C, symBinAddr: 0xE11C, symSize: 0x24 }
  - { offset: 0x2E621, size: 0x8, addend: 0x0, symName: __RNCNvXsx_NtCsATtFUPiRFW_3syn10punctuatedINtB7_11PrivateIterNtNtB9_4data7VariantNtNtB9_5token5CommaENtNtNtNtCs9f3LFPSIp77_4core4iter6traits12double_ended19DoubleEndedIterator9next_back0CsaQ2CmD7W1Vs_15zerocopy_derive, symObjAddr: 0x2868, symBinAddr: 0xE368, symSize: 0x38 }
  - { offset: 0x2E663, size: 0x8, addend: 0x0, symName: __RNCNvXsx_NtCsATtFUPiRFW_3syn10punctuatedINtB7_11PrivateIterNtNtB9_8generics14WherePredicateNtNtB9_5token5CommaENtNtNtNtCs9f3LFPSIp77_4core4iter6traits12double_ended19DoubleEndedIterator9next_back0CsaQ2CmD7W1Vs_15zerocopy_derive, symObjAddr: 0x28A0, symBinAddr: 0xE3A0, symSize: 0x38 }
  - { offset: 0x2E6A6, size: 0x8, addend: 0x0, symName: __RNvXsx_NtCsATtFUPiRFW_3syn10punctuatedINtB5_11PrivateIterNtNtB7_4data7VariantNtNtB7_5token5CommaENtNtNtNtCs9f3LFPSIp77_4core4iter6traits12double_ended19DoubleEndedIterator9next_backCsaQ2CmD7W1Vs_15zerocopy_derive, symObjAddr: 0x4B4C, symBinAddr: 0x1064C, symSize: 0x40 }
  - { offset: 0x2E6E6, size: 0x8, addend: 0x0, symName: __RNvXsx_NtCsATtFUPiRFW_3syn10punctuatedINtB5_11PrivateIterNtNtB7_8generics14WherePredicateNtNtB7_5token5CommaENtNtNtNtCs9f3LFPSIp77_4core4iter6traits12double_ended19DoubleEndedIterator9next_backCsaQ2CmD7W1Vs_15zerocopy_derive, symObjAddr: 0x4B8C, symBinAddr: 0x1068C, symSize: 0x40 }
  - { offset: 0x2E731, size: 0x8, addend: 0x0, symName: __RNCNvXs8_NtCsATtFUPiRFW_3syn10punctuatedINtB7_10PunctuatedNtNtB9_4attr4MetaNtNtB9_5token5CommaENtNtNtNtCs9f3LFPSIp77_4core4iter6traits7collect12IntoIterator9into_iter0CsaQ2CmD7W1Vs_15zerocopy_derive, symObjAddr: 0x2640, symBinAddr: 0xE140, symSize: 0x44 }
  - { offset: 0x2E77D, size: 0x8, addend: 0x0, symName: __RNCNvXs8_NtCsATtFUPiRFW_3syn10punctuatedINtB7_10PunctuatedNtNtB9_4attr4MetaNtNtB9_5token5CommaENtNtNtNtCs9f3LFPSIp77_4core4iter6traits7collect12IntoIterator9into_iters_0CsaQ2CmD7W1Vs_15zerocopy_derive, symObjAddr: 0x2684, symBinAddr: 0xE184, symSize: 0x78 }
  - { offset: 0x2E7C8, size: 0x8, addend: 0x0, symName: __RNCNvXs8_NtCsATtFUPiRFW_3syn10punctuatedINtB7_10PunctuatedNtNtB9_8generics12GenericParamNtNtB9_5token5CommaENtNtNtNtCs9f3LFPSIp77_4core4iter6traits7collect12IntoIterator9into_iter0CsaQ2CmD7W1Vs_15zerocopy_derive, symObjAddr: 0x26FC, symBinAddr: 0xE1FC, symSize: 0x44 }
  - { offset: 0x2E814, size: 0x8, addend: 0x0, symName: __RNCNvXs8_NtCsATtFUPiRFW_3syn10punctuatedINtB7_10PunctuatedNtNtB9_8generics12GenericParamNtNtB9_5token5CommaENtNtNtNtCs9f3LFPSIp77_4core4iter6traits7collect12IntoIterator9into_iters_0CsaQ2CmD7W1Vs_15zerocopy_derive, symObjAddr: 0x2740, symBinAddr: 0xE240, symSize: 0x78 }
  - { offset: 0x2E87C, size: 0x8, addend: 0x0, symName: __RNvXs8_NtCsATtFUPiRFW_3syn10punctuatedINtB5_10PunctuatedNtNtB7_4attr4MetaNtNtB7_5token5CommaENtNtNtNtCs9f3LFPSIp77_4core4iter6traits7collect12IntoIterator9into_iterCsaQ2CmD7W1Vs_15zerocopy_derive, symObjAddr: 0x3EC8, symBinAddr: 0xF9C8, symSize: 0x1A8 }
  - { offset: 0x2E8D3, size: 0x8, addend: 0x0, symName: __RNvXs8_NtCsATtFUPiRFW_3syn10punctuatedINtB5_10PunctuatedNtNtB7_8generics12GenericParamNtNtB7_5token5CommaENtNtNtNtCs9f3LFPSIp77_4core4iter6traits7collect12IntoIterator9into_iterCsaQ2CmD7W1Vs_15zerocopy_derive, symObjAddr: 0x4070, symBinAddr: 0xFB70, symSize: 0x1A8 }
  - { offset: 0x2E935, size: 0x8, addend: 0x0, symName: __RNCNvXsw_NtCsATtFUPiRFW_3syn10punctuatedINtB7_11PrivateIterNtNtB9_4data7VariantNtNtB9_5token5CommaENtNtNtNtCs9f3LFPSIp77_4core4iter6traits8iterator8Iterator4next0CsaQ2CmD7W1Vs_15zerocopy_derive, symObjAddr: 0x27B8, symBinAddr: 0xE2B8, symSize: 0x24 }
  - { offset: 0x2E980, size: 0x8, addend: 0x0, symName: __RNCNvXsw_NtCsATtFUPiRFW_3syn10punctuatedINtB7_11PrivateIterNtNtB9_4data7VariantNtNtB9_5token5CommaENtNtNtNtCs9f3LFPSIp77_4core4iter6traits8iterator8Iterator4nexts_0CsaQ2CmD7W1Vs_15zerocopy_derive, symObjAddr: 0x27DC, symBinAddr: 0xE2DC, symSize: 0x34 }
  - { offset: 0x2E9C2, size: 0x8, addend: 0x0, symName: __RNCNvXsw_NtCsATtFUPiRFW_3syn10punctuatedINtB7_11PrivateIterNtNtB9_8generics14WherePredicateNtNtB9_5token5CommaENtNtNtNtCs9f3LFPSIp77_4core4iter6traits8iterator8Iterator4next0CsaQ2CmD7W1Vs_15zerocopy_derive, symObjAddr: 0x2810, symBinAddr: 0xE310, symSize: 0x24 }
  - { offset: 0x2EA0D, size: 0x8, addend: 0x0, symName: __RNCNvXsw_NtCsATtFUPiRFW_3syn10punctuatedINtB7_11PrivateIterNtNtB9_8generics14WherePredicateNtNtB9_5token5CommaENtNtNtNtCs9f3LFPSIp77_4core4iter6traits8iterator8Iterator4nexts_0CsaQ2CmD7W1Vs_15zerocopy_derive, symObjAddr: 0x2834, symBinAddr: 0xE334, symSize: 0x34 }
  - { offset: 0x2EA5E, size: 0x8, addend: 0x0, symName: __RNvXsw_NtCsATtFUPiRFW_3syn10punctuatedINtB5_11PrivateIterNtNtB7_4data7VariantNtNtB7_5token5CommaENtNtNtNtCs9f3LFPSIp77_4core4iter6traits8iterator8Iterator4nextCsaQ2CmD7W1Vs_15zerocopy_derive, symObjAddr: 0x4AC4, symBinAddr: 0x105C4, symSize: 0x44 }
  - { offset: 0x2EA9E, size: 0x8, addend: 0x0, symName: __RNvXsw_NtCsATtFUPiRFW_3syn10punctuatedINtB5_11PrivateIterNtNtB7_8generics14WherePredicateNtNtB7_5token5CommaENtNtNtNtCs9f3LFPSIp77_4core4iter6traits8iterator8Iterator4nextCsaQ2CmD7W1Vs_15zerocopy_derive, symObjAddr: 0x4B08, symBinAddr: 0x10608, symSize: 0x44 }
  - { offset: 0x2EC4A, size: 0x8, addend: 0x0, symName: __RNvXsA_NtCsATtFUPiRFW_3syn10punctuatedINtB5_11PrivateIterNtNtB7_4data7VariantNtNtB7_5token5CommaEINtB5_9IterTraitBT_E9clone_boxCsaQ2CmD7W1Vs_15zerocopy_derive, symObjAddr: 0x4340, symBinAddr: 0xFE40, symSize: 0x94 }
  - { offset: 0x2ECA8, size: 0x8, addend: 0x0, symName: __RNvXsA_NtCsATtFUPiRFW_3syn10punctuatedINtB5_11PrivateIterNtNtB7_8generics14WherePredicateNtNtB7_5token5CommaEINtB5_9IterTraitBT_E9clone_boxCsaQ2CmD7W1Vs_15zerocopy_derive, symObjAddr: 0x43D4, symBinAddr: 0xFED4, symSize: 0x94 }
  - { offset: 0x2ED0C, size: 0x8, addend: 0x0, symName: __RNvXsn_NtCsATtFUPiRFW_3syn10punctuatedINtB5_8IntoIterNtNtB7_4attr4MetaENtNtNtNtCs9f3LFPSIp77_4core4iter6traits8iterator8Iterator4nextCsaQ2CmD7W1Vs_15zerocopy_derive, symObjAddr: 0x4844, symBinAddr: 0x10344, symSize: 0x34 }
  - { offset: 0x2ED43, size: 0x8, addend: 0x0, symName: __RNvXsn_NtCsATtFUPiRFW_3syn10punctuatedINtB5_8IntoIterNtNtB7_8generics12GenericParamENtNtNtNtCs9f3LFPSIp77_4core4iter6traits8iterator8Iterator4nextCsaQ2CmD7W1Vs_15zerocopy_derive, symObjAddr: 0x4878, symBinAddr: 0x10378, symSize: 0x34 }
  - { offset: 0x2ED80, size: 0x8, addend: 0x0, symName: __RNvXst_NtCsATtFUPiRFW_3syn10punctuatedINtB5_4IterNtNtB7_4data5FieldENtNtNtNtCs9f3LFPSIp77_4core4iter6traits8iterator8Iterator9size_hintCsaQ2CmD7W1Vs_15zerocopy_derive, symObjAddr: 0x48AC, symBinAddr: 0x103AC, symSize: 0x7C }
  - { offset: 0x2EDB7, size: 0x8, addend: 0x0, symName: __RNvXst_NtCsATtFUPiRFW_3syn10punctuatedINtB5_4IterNtNtB7_4data7VariantENtNtNtNtCs9f3LFPSIp77_4core4iter6traits8iterator8Iterator4nextCsaQ2CmD7W1Vs_15zerocopy_derive, symObjAddr: 0x4928, symBinAddr: 0x10428, symSize: 0x48 }
  - { offset: 0x2EDEE, size: 0x8, addend: 0x0, symName: __RNvXst_NtCsATtFUPiRFW_3syn10punctuatedINtB5_4IterNtNtB7_4data7VariantENtNtNtNtCs9f3LFPSIp77_4core4iter6traits8iterator8Iterator9size_hintCsaQ2CmD7W1Vs_15zerocopy_derive, symObjAddr: 0x4970, symBinAddr: 0x10470, symSize: 0x7C }
  - { offset: 0x2EE25, size: 0x8, addend: 0x0, symName: __RNvXst_NtCsATtFUPiRFW_3syn10punctuatedINtB5_4IterNtNtB7_8generics14WherePredicateENtNtNtNtCs9f3LFPSIp77_4core4iter6traits8iterator8Iterator4nextCsaQ2CmD7W1Vs_15zerocopy_derive, symObjAddr: 0x49EC, symBinAddr: 0x104EC, symSize: 0x48 }
  - { offset: 0x2EE62, size: 0x8, addend: 0x0, symName: __RNvXsv_NtCsATtFUPiRFW_3syn10punctuatedINtB5_4IterNtNtB7_4data5FieldENtNtNtNtCs9f3LFPSIp77_4core4iter6traits10exact_size17ExactSizeIterator3lenCsaQ2CmD7W1Vs_15zerocopy_derive, symObjAddr: 0x4A34, symBinAddr: 0x10534, symSize: 0x48 }
  - { offset: 0x2EE99, size: 0x8, addend: 0x0, symName: __RNvXsv_NtCsATtFUPiRFW_3syn10punctuatedINtB5_4IterNtNtB7_4data7VariantENtNtNtNtCs9f3LFPSIp77_4core4iter6traits10exact_size17ExactSizeIterator3lenCsaQ2CmD7W1Vs_15zerocopy_derive, symObjAddr: 0x4A7C, symBinAddr: 0x1057C, symSize: 0x48 }
  - { offset: 0x2EED6, size: 0x8, addend: 0x0, symName: __RNvXsy_NtCsATtFUPiRFW_3syn10punctuatedINtB5_11PrivateIterNtNtB7_4data7VariantNtNtB7_5token5CommaENtNtNtNtCs9f3LFPSIp77_4core4iter6traits10exact_size17ExactSizeIterator3lenCsaQ2CmD7W1Vs_15zerocopy_derive, symObjAddr: 0x4BCC, symBinAddr: 0x106CC, symSize: 0xC4 }
  - { offset: 0x2EFC0, size: 0x8, addend: 0x0, symName: __RNvXsy_NtCsATtFUPiRFW_3syn10punctuatedINtB5_11PrivateIterNtNtB7_8generics14WherePredicateNtNtB7_5token5CommaENtNtNtNtCs9f3LFPSIp77_4core4iter6traits10exact_size17ExactSizeIterator3lenCsaQ2CmD7W1Vs_15zerocopy_derive, symObjAddr: 0x4C90, symBinAddr: 0x10790, symSize: 0xC4 }
  - { offset: 0x2F0B0, size: 0x8, addend: 0x0, symName: __RNvXsz_NtCsATtFUPiRFW_3syn10punctuatedINtB5_11PrivateIterNtNtB7_4data7VariantNtNtB7_5token5CommaENtNtCs9f3LFPSIp77_4core5clone5Clone5cloneCsaQ2CmD7W1Vs_15zerocopy_derive, symObjAddr: 0x4D54, symBinAddr: 0x10854, symSize: 0x68 }
  - { offset: 0x2F0F0, size: 0x8, addend: 0x0, symName: __RNvXsz_NtCsATtFUPiRFW_3syn10punctuatedINtB5_11PrivateIterNtNtB7_8generics14WherePredicateNtNtB7_5token5CommaENtNtCs9f3LFPSIp77_4core5clone5Clone5cloneCsaQ2CmD7W1Vs_15zerocopy_derive, symObjAddr: 0x4DBC, symBinAddr: 0x108BC, symSize: 0x68 }
  - { offset: 0x339EB, size: 0x8, addend: 0x0, symName: __RINvCsATtFUPiRFW_3syn5parseNtNtB2_6derive11DeriveInputECsaQ2CmD7W1Vs_15zerocopy_derive, symObjAddr: 0x0, symBinAddr: 0xBB00, symSize: 0x30 }
  - { offset: 0x33E1E, size: 0x8, addend: 0x0, symName: __RNvXsh_NtCsATtFUPiRFW_3syn5parseNvMNtB7_10punctuatedINtBx_10PunctuatedNtNtB7_4attr4MetaNtNtB7_5token5CommaE16parse_terminatedNtB5_6Parser14___parse_scopedCsaQ2CmD7W1Vs_15zerocopy_derive, symObjAddr: 0x4484, symBinAddr: 0xFF84, symSize: 0x3C0 }
  - { offset: 0x352AD, size: 0x8, addend: 0x0, symName: __RINvMNtCsdze8u8oDPro_5alloc5sliceSNtNtCsATtFUPiRFW_3syn5error5Error8into_vecNtNtB5_5alloc6GlobalECsaQ2CmD7W1Vs_15zerocopy_derive, symObjAddr: 0x3DC, symBinAddr: 0xBEDC, symSize: 0x28 }
  - { offset: 0x3539A, size: 0x8, addend: 0x0, symName: __RNvXs6_NtCsdze8u8oDPro_5alloc5boxedINtB5_3BoxANtNtCsATtFUPiRFW_3syn5error5Errorj1_ENtNtNtCs9f3LFPSIp77_4core3ops4drop4Drop4dropCsaQ2CmD7W1Vs_15zerocopy_derive, symObjAddr: 0x3914, symBinAddr: 0xF414, symSize: 0xB0 }
  - { offset: 0x35518, size: 0x8, addend: 0x0, symName: __RNvXs6_NtCsdze8u8oDPro_5alloc5boxedINtB5_3BoxANtNtCsATtFUPiRFW_3syn8generics14WherePredicatej1_ENtNtNtCs9f3LFPSIp77_4core3ops4drop4Drop4dropCsaQ2CmD7W1Vs_15zerocopy_derive, symObjAddr: 0x39C4, symBinAddr: 0xF4C4, symSize: 0xB0 }
  - { offset: 0x35696, size: 0x8, addend: 0x0, symName: __RNvXs6_NtCsdze8u8oDPro_5alloc5boxedINtB5_3BoxDNtNtCs9f3LFPSIp77_4core5error5ErrorNtNtBM_6marker4SendNtB1j_4SyncEL_ENtNtNtBM_3ops4drop4Drop4dropCsaQ2CmD7W1Vs_15zerocopy_derive, symObjAddr: 0x3A74, symBinAddr: 0xF574, symSize: 0xC4 }
  - { offset: 0x35814, size: 0x8, addend: 0x0, symName: __RNvXs6_NtCsdze8u8oDPro_5alloc5boxedINtB5_3BoxINtNtCsATtFUPiRFW_3syn5drops6NoDropDINtNtBM_10punctuated9IterTraitNtNtBM_4data7VariantEp4ItemRB1L_EL_EENtNtNtCs9f3LFPSIp77_4core3ops4drop4Drop4dropCsaQ2CmD7W1Vs_15zerocopy_derive, symObjAddr: 0x3B38, symBinAddr: 0xF638, symSize: 0x118 }
  - { offset: 0x35992, size: 0x8, addend: 0x0, symName: __RNvXs6_NtCsdze8u8oDPro_5alloc5boxedINtB5_3BoxINtNtCsATtFUPiRFW_3syn5drops6NoDropDINtNtBM_10punctuated9IterTraitNtNtBM_8generics14WherePredicateEp4ItemRB1L_EL_EENtNtNtCs9f3LFPSIp77_4core3ops4drop4Drop4dropCsaQ2CmD7W1Vs_15zerocopy_derive, symObjAddr: 0x3C50, symBinAddr: 0xF750, symSize: 0x118 }
  - { offset: 0x35B10, size: 0x8, addend: 0x0, symName: __RNvXs6_NtCsdze8u8oDPro_5alloc5boxedINtB5_3BoxNtNtCsATtFUPiRFW_3syn4attr4MetaENtNtNtCs9f3LFPSIp77_4core3ops4drop4Drop4dropCsaQ2CmD7W1Vs_15zerocopy_derive, symObjAddr: 0x3D68, symBinAddr: 0xF868, symSize: 0xB0 }
  - { offset: 0x35C8E, size: 0x8, addend: 0x0, symName: __RNvXs6_NtCsdze8u8oDPro_5alloc5boxedINtB5_3BoxNtNtNtCs27l1GJC5rMQ_3std2io5error6CustomENtNtNtCs9f3LFPSIp77_4core3ops4drop4Drop4dropCsaQ2CmD7W1Vs_15zerocopy_derive, symObjAddr: 0x3E18, symBinAddr: 0xF918, symSize: 0xB0 }
  - { offset: 0x36C23, size: 0x8, addend: 0x0, symName: __RNvNvMs9_NtCs9f3LFPSIp77_4core3numj13unchecked_add18precondition_checkCsaQ2CmD7W1Vs_15zerocopy_derive, symObjAddr: 0x35C4, symBinAddr: 0xF0C4, symSize: 0x4C }
  - { offset: 0x36CCA, size: 0x8, addend: 0x0, symName: __RNvNvMs9_NtCs9f3LFPSIp77_4core3numj13unchecked_sub18precondition_checkCsaQ2CmD7W1Vs_15zerocopy_derive, symObjAddr: 0x3610, symBinAddr: 0xF110, symSize: 0x54 }
  - { offset: 0x36E42, size: 0x8, addend: 0x0, symName: __RNvNvMs3_NtCs9f3LFPSIp77_4core3numi13unchecked_neg18precondition_checkCsaQ2CmD7W1Vs_15zerocopy_derive, symObjAddr: 0x3578, symBinAddr: 0xF078, symSize: 0x4C }
  - { offset: 0x3AA57, size: 0x8, addend: 0x0, symName: __RINvNvMNtCs9f3LFPSIp77_4core5sliceSp7reverse7revswapTNtNtCsATtFUPiRFW_3syn4attr4MetaNtNtCsaQ2CmD7W1Vs_15zerocopy_derive4repr10StructReprEEB1o_, symObjAddr: 0x18A4, symBinAddr: 0xD3A4, symSize: 0x1C4 }
  - { offset: 0x3ABB0, size: 0x8, addend: 0x0, symName: __RINvNvMNtCs9f3LFPSIp77_4core5sliceSp7reverse7revswapTNtNtCsATtFUPiRFW_3syn4attr4MetaNtNtCsaQ2CmD7W1Vs_15zerocopy_derive4repr8EnumReprEEB1o_, symObjAddr: 0x1A68, symBinAddr: 0xD568, symSize: 0x1C4 }
  - { offset: 0x3AD0A, size: 0x8, addend: 0x0, symName: __RNvMNtCs9f3LFPSIp77_4core5sliceSNtNtCsATtFUPiRFW_3syn5error5Error4iterCsaQ2CmD7W1Vs_15zerocopy_derive, symObjAddr: 0x28D8, symBinAddr: 0xE3D8, symSize: 0x28 }
  - { offset: 0x3AD8F, size: 0x8, addend: 0x0, symName: __RNvMNtCs9f3LFPSIp77_4core5sliceSh15copy_from_sliceCsaQ2CmD7W1Vs_15zerocopy_derive, symObjAddr: 0x2900, symBinAddr: 0xE400, symSize: 0xA4 }
  - { offset: 0x3AE38, size: 0x8, addend: 0x0, symName: __RNvNvMNtCs9f3LFPSIp77_4core5sliceSp22split_at_mut_unchecked18precondition_checkCsaQ2CmD7W1Vs_15zerocopy_derive, symObjAddr: 0x34E8, symBinAddr: 0xEFE8, symSize: 0x40 }
  - { offset: 0x3AFB6, size: 0x8, addend: 0x0, symName: __RINvNtNtNtNtCs9f3LFPSIp77_4core5slice4sort6stable5drift10create_runTNtNtCsATtFUPiRFW_3syn4attr4MetaNtNtCsaQ2CmD7W1Vs_15zerocopy_derive4repr10StructReprENCINvMNtCsdze8u8oDPro_5alloc5sliceSB13_7sort_byNCNvMB1B_INtB1B_6ConfigB1z_E14validate_reprs0E0EB1D_, symObjAddr: 0x4FC, symBinAddr: 0xBFFC, symSize: 0x3E0 }
  - { offset: 0x3B579, size: 0x8, addend: 0x0, symName: __RINvNtNtNtNtCs9f3LFPSIp77_4core5slice4sort6stable5drift10create_runTNtNtCsATtFUPiRFW_3syn4attr4MetaNtNtCsaQ2CmD7W1Vs_15zerocopy_derive4repr8EnumReprENCINvMNtCsdze8u8oDPro_5alloc5sliceSB13_7sort_byNCNvMB1B_INtB1B_6ConfigB1z_E14validate_reprs0E0EB1D_, symObjAddr: 0x8DC, symBinAddr: 0xC3DC, symSize: 0x3E0 }
  - { offset: 0x3BB3C, size: 0x8, addend: 0x0, symName: __RINvNtNtNtNtCs9f3LFPSIp77_4core5slice4sort6stable5drift16stable_quicksortTNtNtCsATtFUPiRFW_3syn4attr4MetaNtNtCsaQ2CmD7W1Vs_15zerocopy_derive4repr10StructReprENCINvMNtCsdze8u8oDPro_5alloc5sliceSB19_7sort_byNCNvMB1H_INtB1H_6ConfigB1F_E14validate_reprs0E0EB1J_, symObjAddr: 0xCBC, symBinAddr: 0xC7BC, symSize: 0xB4 }
  - { offset: 0x3BC65, size: 0x8, addend: 0x0, symName: __RINvNtNtNtNtCs9f3LFPSIp77_4core5slice4sort6stable5drift16stable_quicksortTNtNtCsATtFUPiRFW_3syn4attr4MetaNtNtCsaQ2CmD7W1Vs_15zerocopy_derive4repr8EnumReprENCINvMNtCsdze8u8oDPro_5alloc5sliceSB19_7sort_byNCNvMB1H_INtB1H_6ConfigB1F_E14validate_reprs0E0EB1J_, symObjAddr: 0xD70, symBinAddr: 0xC870, symSize: 0xB4 }
  - { offset: 0x3BE78, size: 0x8, addend: 0x0, symName: __RINvNtNtNtNtCs9f3LFPSIp77_4core5slice4sort6stable5drift4sortTNtNtCsATtFUPiRFW_3syn4attr4MetaNtNtCsaQ2CmD7W1Vs_15zerocopy_derive4repr10StructReprENCINvMNtCsdze8u8oDPro_5alloc5sliceSBW_7sort_byNCNvMB1u_INtB1u_6ConfigB1s_E14validate_reprs0E0EB1w_, symObjAddr: 0xE24, symBinAddr: 0xC924, symSize: 0x540 }
  - { offset: 0x3C6A8, size: 0x8, addend: 0x0, symName: __RINvNtNtNtNtCs9f3LFPSIp77_4core5slice4sort6stable5drift4sortTNtNtCsATtFUPiRFW_3syn4attr4MetaNtNtCsaQ2CmD7W1Vs_15zerocopy_derive4repr8EnumReprENCINvMNtCsdze8u8oDPro_5alloc5sliceSBW_7sort_byNCNvMB1u_INtB1u_6ConfigB1s_E14validate_reprs0E0EB1w_, symObjAddr: 0x1364, symBinAddr: 0xCE64, symSize: 0x540 }
  - { offset: 0x3CE80, size: 0x8, addend: 0x0, symName: __RNvNvXs0_NtNtCs9f3LFPSIp77_4core5slice5indexjINtB7_10SliceIndexSpE13get_unchecked18precondition_checkCsaQ2CmD7W1Vs_15zerocopy_derive, symObjAddr: 0x3748, symBinAddr: 0xF248, symSize: 0x40 }
  - { offset: 0x3CEB7, size: 0x8, addend: 0x0, symName: __RNvXs0_NtNtCs9f3LFPSIp77_4core5slice5indexjINtB5_10SliceIndexSNtNtCsATtFUPiRFW_3syn4attr4MetaE5indexCsaQ2CmD7W1Vs_15zerocopy_derive, symObjAddr: 0x3828, symBinAddr: 0xF328, symSize: 0x64 }
  - { offset: 0x3CEFD, size: 0x8, addend: 0x0, symName: __RNvXs0_NtNtCs9f3LFPSIp77_4core5slice5indexjINtB5_10SliceIndexSNtNtCsaQ2CmD7W1Vs_15zerocopy_derive4repr8EnumReprE5indexB12_, symObjAddr: 0x388C, symBinAddr: 0xF38C, symSize: 0x5C }
  - { offset: 0x3D478, size: 0x8, addend: 0x0, symName: __RNvNvXs2_NtNtCs9f3LFPSIp77_4core5slice5indexINtNtNtBb_3ops5range5RangejEINtB7_10SliceIndexSpE17get_unchecked_mut18precondition_checkCsaQ2CmD7W1Vs_15zerocopy_derive, symObjAddr: 0x37C8, symBinAddr: 0xF2C8, symSize: 0x60 }
  - { offset: 0x3D5D6, size: 0x8, addend: 0x0, symName: __RNvNvXs1_NtNtCs9f3LFPSIp77_4core5slice5indexNtNtNtBb_3ops11index_range10IndexRangeINtB7_10SliceIndexSpE17get_unchecked_mut18precondition_checkCsaQ2CmD7W1Vs_15zerocopy_derive, symObjAddr: 0x3788, symBinAddr: 0xF288, symSize: 0x40 }
  - { offset: 0x3D831, size: 0x8, addend: 0x0, symName: __RINvMNtCs9f3LFPSIp77_4core3stre5parsejECsaQ2CmD7W1Vs_15zerocopy_derive, symObjAddr: 0x30, symBinAddr: 0xBB30, symSize: 0x28 }
  - { offset: 0x3D868, size: 0x8, addend: 0x0, symName: __RINvMNtCs9f3LFPSIp77_4core3stre5parseyECsaQ2CmD7W1Vs_15zerocopy_derive, symObjAddr: 0x58, symBinAddr: 0xBB58, symSize: 0x28 }
  - { offset: 0x3D8AB, size: 0x8, addend: 0x0, symName: __RINvMNtCs9f3LFPSIp77_4core4boolb9then_someNtCsaQ2CmD7W1Vs_15zerocopy_derive12PaddingCheckEBG_, symObjAddr: 0x80, symBinAddr: 0xBB80, symSize: 0x3C }
  - { offset: 0x3DBED, size: 0x8, addend: 0x0, symName: __RINvNtNtNtCs9f3LFPSIp77_4core4iter8adapters4fuse17and_then_or_clearINtNtB4_3map3MapINtNtCsATtFUPiRFW_3syn10punctuated4IterNtNtB1o_4data7VariantENCNvXs0_NtCsaQ2CmD7W1Vs_15zerocopy_derive3extNtNtB1o_6derive8DataEnumNtB2q_7DataExt11field_types0ERNtB1Y_6FieldsNvYB13_NtNtNtB6_6traits8iterator8Iterator4nextEB2s_, symObjAddr: 0x404, symBinAddr: 0xBF04, symSize: 0xF8 }
  - { offset: 0x3DD75, size: 0x8, addend: 0x0, symName: __RNvXs8_NtNtNtCs9f3LFPSIp77_4core4iter8adapters4fuseINtB5_4FuseINtNtB7_3map3MapINtNtCsATtFUPiRFW_3syn10punctuated4IterNtNtB1j_4data7VariantENCNvXs0_NtCsaQ2CmD7W1Vs_15zerocopy_derive3extNtNtB1j_6derive8DataEnumNtB2l_7DataExt11field_types0EEINtB5_8FuseImplBY_E4nextB2n_, symObjAddr: 0x4218, symBinAddr: 0xFD18, symSize: 0x24 }
  - { offset: 0x3DDB2, size: 0x8, addend: 0x0, symName: __RNvXs9_NtNtNtCs9f3LFPSIp77_4core4iter8adapters4fuseINtB5_4FuseINtNtB7_3map3MapIBZ_IBZ_INtNtNtBb_5slice4iter4IterNtNtCsATtFUPiRFW_3syn5error5ErrorENvMB1O_B1M_16to_compile_errorENCINvXs7_Cs475r2uZUTuc_11proc_macro2NtB2X_11TokenStreamINtNtNtB9_6traits7collect12FromIteratorB3o_E9from_iterB1i_E0ENCINvXs6_NtB2X_3impNtB4P_11TokenStreamIB3I_B4Z_E9from_iterB1e_Es_0EEINtB5_8FuseImplBY_E4nextCsaQ2CmD7W1Vs_15zerocopy_derive, symObjAddr: 0x423C, symBinAddr: 0xFD3C, symSize: 0x80 }
  - { offset: 0x3DE84, size: 0x8, addend: 0x0, symName: __RNvXs9_NtNtNtCs9f3LFPSIp77_4core4iter8adapters4fuseINtB5_4FuseINtNtBb_6option8IntoIterINtNtCsATtFUPiRFW_3syn10punctuated4IterNtNtB1r_8generics14WherePredicateEEEINtB5_8FuseImplBY_E4nextCsaQ2CmD7W1Vs_15zerocopy_derive, symObjAddr: 0x42BC, symBinAddr: 0xFDBC, symSize: 0x84 }
  - { offset: 0x3E0D3, size: 0x8, addend: 0x0, symName: __RINvYINtNtCsATtFUPiRFW_3syn10punctuated4IterNtNtB8_4data5FieldENtNtNtNtCs9f3LFPSIp77_4core4iter6traits8iterator8Iterator3mapRNtNtB8_2ty4TypeNCNvXs1_NtCsaQ2CmD7W1Vs_15zerocopy_derive3extNtNtB8_6derive9DataUnionNtB2m_7DataExt11field_types0EB2o_, symObjAddr: 0x2014, symBinAddr: 0xDB14, symSize: 0x1C }
  - { offset: 0x3E12B, size: 0x8, addend: 0x0, symName: __RINvYINtNtCsATtFUPiRFW_3syn10punctuated4IterNtNtB8_4data5FieldENtNtNtNtCs9f3LFPSIp77_4core4iter6traits8iterator8Iterator3mapRNtNtB8_2ty4TypeNCNvXs_NtCsaQ2CmD7W1Vs_15zerocopy_derive3extNtNtB8_6derive10DataStructNtB2l_7DataExt11field_types0EB2n_, symObjAddr: 0x2030, symBinAddr: 0xDB30, symSize: 0x1C }
  - { offset: 0x3E183, size: 0x8, addend: 0x0, symName: __RINvYINtNtCsATtFUPiRFW_3syn10punctuated4IterNtNtB8_4data7VariantENtNtNtNtCs9f3LFPSIp77_4core4iter6traits8iterator8Iterator10filter_mapRTNtNtB8_5token2EqNtNtB8_4expr4ExprENCNvCsaQ2CmD7W1Vs_15zerocopy_derive23derive_from_zeroes_enum0EB2M_, symObjAddr: 0x204C, symBinAddr: 0xDB4C, symSize: 0x1C }
  - { offset: 0x3E1DB, size: 0x8, addend: 0x0, symName: __RINvYINtNtCsATtFUPiRFW_3syn10punctuated4IterNtNtB8_4data7VariantENtNtNtNtCs9f3LFPSIp77_4core4iter6traits8iterator8Iterator3mapRNtBI_6FieldsNCNvXs0_NtCsaQ2CmD7W1Vs_15zerocopy_derive3extNtNtB8_6derive8DataEnumNtB2l_7DataExt11field_types0EB2n_, symObjAddr: 0x2068, symBinAddr: 0xDB68, symSize: 0x1C }
  - { offset: 0x3E25A, size: 0x8, addend: 0x0, symName: __RINvYINtNtCsATtFUPiRFW_3syn10punctuated4IterNtNtB8_4data7VariantENtNtNtNtCs9f3LFPSIp77_4core4iter6traits8iterator8Iterator8flat_mapRNtBI_6FieldsNCNvXs0_NtCsaQ2CmD7W1Vs_15zerocopy_derive3extNtNtB8_6derive8DataEnumNtB2q_7DataExt11field_types0EB2s_, symObjAddr: 0x2084, symBinAddr: 0xDB84, symSize: 0x94 }
  - { offset: 0x3E331, size: 0x8, addend: 0x0, symName: __RINvYINtNtCsATtFUPiRFW_3syn10punctuated4IterNtNtB8_4data7VariantENtNtNtNtCs9f3LFPSIp77_4core4iter6traits8iterator8Iterator8try_folduNCINvNtNtB17_8adapters10filter_map19filter_map_try_foldRBG_RTNtNtB8_5token2EqNtNtB8_4expr4ExprEuINtNtNtB19_3ops12control_flow11ControlFlowuENCNvCsaQ2CmD7W1Vs_15zerocopy_derive23derive_from_zeroes_enum0NCINvNvB11_3any5checkB33_NCB4o_s_0E0E0B3E_EB4q_, symObjAddr: 0x2118, symBinAddr: 0xDC18, symSize: 0x138 }
  - { offset: 0x3E3E9, size: 0x8, addend: 0x0, symName: __RINvYINtNtCsATtFUPiRFW_3syn10punctuated4IterNtNtB8_8generics12GenericParamENtNtNtNtCs9f3LFPSIp77_4core4iter6traits8iterator8Iterator3mapNtCs475r2uZUTuc_11proc_macro211TokenStreamNCINvCsaQ2CmD7W1Vs_15zerocopy_derive10impl_blockNtNtB8_6derive10DataStructEs3_0EB2V_, symObjAddr: 0x2250, symBinAddr: 0xDD50, symSize: 0x1C }
  - { offset: 0x3E441, size: 0x8, addend: 0x0, symName: __RINvYINtNtCsATtFUPiRFW_3syn10punctuated4IterNtNtB8_8generics12GenericParamENtNtNtNtCs9f3LFPSIp77_4core4iter6traits8iterator8Iterator3mapNtCs475r2uZUTuc_11proc_macro211TokenStreamNCINvCsaQ2CmD7W1Vs_15zerocopy_derive10impl_blockNtNtB8_6derive8DataEnumEs3_0EB2V_, symObjAddr: 0x226C, symBinAddr: 0xDD6C, symSize: 0x1C }
  - { offset: 0x3E499, size: 0x8, addend: 0x0, symName: __RINvYINtNtCsATtFUPiRFW_3syn10punctuated4IterNtNtB8_8generics12GenericParamENtNtNtNtCs9f3LFPSIp77_4core4iter6traits8iterator8Iterator3mapNtCs475r2uZUTuc_11proc_macro211TokenStreamNCINvCsaQ2CmD7W1Vs_15zerocopy_derive10impl_blockNtNtB8_6derive9DataUnionEs3_0EB2V_, symObjAddr: 0x2288, symBinAddr: 0xDD88, symSize: 0x1C }
  - { offset: 0x3E4F1, size: 0x8, addend: 0x0, symName: __RINvYINtNtCsATtFUPiRFW_3syn10punctuated8IntoIterNtNtB8_8generics12GenericParamENtNtNtNtCs9f3LFPSIp77_4core4iter6traits8iterator8Iterator3mapNtCs475r2uZUTuc_11proc_macro211TokenStreamNCINvCsaQ2CmD7W1Vs_15zerocopy_derive10impl_blockNtNtB8_6derive10DataStructEs2_0EB2Z_, symObjAddr: 0x22A4, symBinAddr: 0xDDA4, symSize: 0x1C }
  - { offset: 0x3E56F, size: 0x8, addend: 0x0, symName: __RINvYINtNtCsATtFUPiRFW_3syn10punctuated8IntoIterNtNtB8_8generics12GenericParamENtNtNtNtCs9f3LFPSIp77_4core4iter6traits8iterator8Iterator3mapNtCs475r2uZUTuc_11proc_macro211TokenStreamNCINvCsaQ2CmD7W1Vs_15zerocopy_derive10impl_blockNtNtB8_6derive8DataEnumEs2_0EB2Z_, symObjAddr: 0x22C0, symBinAddr: 0xDDC0, symSize: 0x1C }
  - { offset: 0x3E5ED, size: 0x8, addend: 0x0, symName: __RINvYINtNtCsATtFUPiRFW_3syn10punctuated8IntoIterNtNtB8_8generics12GenericParamENtNtNtNtCs9f3LFPSIp77_4core4iter6traits8iterator8Iterator3mapNtCs475r2uZUTuc_11proc_macro211TokenStreamNCINvCsaQ2CmD7W1Vs_15zerocopy_derive10impl_blockNtNtB8_6derive9DataUnionEs2_0EB2Z_, symObjAddr: 0x22DC, symBinAddr: 0xDDDC, symSize: 0x1C }
  - { offset: 0x3E675, size: 0x8, addend: 0x0, symName: __RNCINvNvNtNtNtNtCs9f3LFPSIp77_4core4iter6traits8iterator8Iterator3any5checkRTNtNtCsATtFUPiRFW_3syn5token2EqNtNtB1h_4expr4ExprENCNvCsaQ2CmD7W1Vs_15zerocopy_derive23derive_from_zeroes_enums_0E0B24_, symObjAddr: 0x22F8, symBinAddr: 0xDDF8, symSize: 0x50 }
  - { offset: 0x3E6EF, size: 0x8, addend: 0x0, symName: __RNCINvNvNtNtNtNtCs9f3LFPSIp77_4core4iter6traits8iterator8Iterator8for_each4callNtCsjLJ1XWNSM6u_10proc_macro11TokenStreamNCINvXsk_B1h_B1f_INtNtBa_7collect6ExtendB1f_E6extendINtNtNtBc_8adapters3map3MapIB2L_IB2L_INtNtNtBe_5slice4iter4IterNtNtCsATtFUPiRFW_3syn5error5ErrorENvMB3N_B3L_16to_compile_errorENCINvXs7_Cs475r2uZUTuc_11proc_macro2NtB4W_11TokenStreamINtB2e_12FromIteratorB5n_E9from_iterB3g_E0ENCINvXs6_NtB4W_3impNtB6w_11TokenStreamIB5H_B6G_E9from_iterB3b_E0EE0E0CsaQ2CmD7W1Vs_15zerocopy_derive, symObjAddr: 0x2348, symBinAddr: 0xDE48, symSize: 0x28 }
  - { offset: 0x3E747, size: 0x8, addend: 0x0, symName: __RNCINvNvNtNtNtNtCs9f3LFPSIp77_4core4iter6traits8iterator8Iterator8for_each4callNtNtCsATtFUPiRFW_3syn4attr4MetaNCINvMsi_NtCsdze8u8oDPro_5alloc3vecINtB1T_3VecB1f_E14extend_trustedINtNtBe_6option8IntoIterB1f_EE0E0CsaQ2CmD7W1Vs_15zerocopy_derive, symObjAddr: 0x2370, symBinAddr: 0xDE70, symSize: 0x48 }
  - { offset: 0x3E7A0, size: 0x8, addend: 0x0, symName: __RNCINvNvNtNtNtNtCs9f3LFPSIp77_4core4iter6traits8iterator8Iterator8for_each4callNtNtCsATtFUPiRFW_3syn4attr4MetaNCINvMsi_NtCsdze8u8oDPro_5alloc3vecINtB1T_3VecB1f_E14extend_trustedINtNtNtBc_8adapters3map3MapINtNtB1T_9into_iter8IntoIterTB1f_NtNtB1j_5token5CommaEENCNvXs8_NtB1j_10punctuatedINtB4h_10PunctuatedB1f_B3N_ENtNtBa_7collect12IntoIterator9into_iter0EE0E0CsaQ2CmD7W1Vs_15zerocopy_derive, symObjAddr: 0x23B8, symBinAddr: 0xDEB8, symSize: 0x48 }
  - { offset: 0x3E7F9, size: 0x8, addend: 0x0, symName: __RNCINvNvNtNtNtNtCs9f3LFPSIp77_4core4iter6traits8iterator8Iterator8for_each4callNtNtCsATtFUPiRFW_3syn8generics12GenericParamNCINvMsi_NtCsdze8u8oDPro_5alloc3vecINtB26_3VecB1f_E14extend_trustedINtNtBe_6option8IntoIterB1f_EE0E0CsaQ2CmD7W1Vs_15zerocopy_derive, symObjAddr: 0x2400, symBinAddr: 0xDF00, symSize: 0x48 }
  - { offset: 0x3E852, size: 0x8, addend: 0x0, symName: __RNCINvNvNtNtNtNtCs9f3LFPSIp77_4core4iter6traits8iterator8Iterator8for_each4callNtNtCsATtFUPiRFW_3syn8generics12GenericParamNCINvMsi_NtCsdze8u8oDPro_5alloc3vecINtB26_3VecB1f_E14extend_trustedINtNtNtBc_8adapters3map3MapINtNtB26_9into_iter8IntoIterTB1f_NtNtB1j_5token5CommaEENCNvXs8_NtB1j_10punctuatedINtB4u_10PunctuatedB1f_B40_ENtNtBa_7collect12IntoIterator9into_iter0EE0E0CsaQ2CmD7W1Vs_15zerocopy_derive, symObjAddr: 0x2448, symBinAddr: 0xDF48, symSize: 0x48 }
  - { offset: 0x3E8AB, size: 0x8, addend: 0x0, symName: __RNCINvNvNtNtNtNtCs9f3LFPSIp77_4core4iter6traits8iterator8Iterator8for_each4callNtNtCsATtFUPiRFW_3syn8generics14WherePredicateNCINvMsi_NtCsdze8u8oDPro_5alloc3vecINtB28_3VecB1f_E14extend_trustedINtNtNtBc_8adapters3map3MapINtNtNtBe_5slice4iter4IterRNtNtB1j_2ty4TypeENCINvCsaQ2CmD7W1Vs_15zerocopy_derive10impl_blockNtNtB1j_6derive10DataStructE0EE0E0B4i_, symObjAddr: 0x2490, symBinAddr: 0xDF90, symSize: 0x48 }
  - { offset: 0x3E904, size: 0x8, addend: 0x0, symName: __RNCINvNvNtNtNtNtCs9f3LFPSIp77_4core4iter6traits8iterator8Iterator8for_each4callNtNtCsATtFUPiRFW_3syn8generics14WherePredicateNCINvMsi_NtCsdze8u8oDPro_5alloc3vecINtB28_3VecB1f_E14extend_trustedINtNtNtBc_8adapters3map3MapINtNtNtBe_5slice4iter4IterRNtNtB1j_2ty4TypeENCINvCsaQ2CmD7W1Vs_15zerocopy_derive10impl_blockNtNtB1j_6derive8DataEnumE0EE0E0B4i_, symObjAddr: 0x24D8, symBinAddr: 0xDFD8, symSize: 0x48 }
  - { offset: 0x3E95D, size: 0x8, addend: 0x0, symName: __RNCINvNvNtNtNtNtCs9f3LFPSIp77_4core4iter6traits8iterator8Iterator8for_each4callNtNtCsATtFUPiRFW_3syn8generics14WherePredicateNCINvMsi_NtCsdze8u8oDPro_5alloc3vecINtB28_3VecB1f_E14extend_trustedINtNtNtBc_8adapters3map3MapINtNtNtBe_5slice4iter4IterRNtNtB1j_2ty4TypeENCINvCsaQ2CmD7W1Vs_15zerocopy_derive10impl_blockNtNtB1j_6derive9DataUnionE0EE0E0B4i_, symObjAddr: 0x2520, symBinAddr: 0xE020, symSize: 0x48 }
  - { offset: 0x3E9B6, size: 0x8, addend: 0x0, symName: __RNCINvNvNtNtNtNtCs9f3LFPSIp77_4core4iter6traits8iterator8Iterator8for_each4callTNtNtCsATtFUPiRFW_3syn4attr4MetaNtNtCsaQ2CmD7W1Vs_15zerocopy_derive4repr10StructReprENCNvMB1N_INtB1N_6ConfigB1L_E14validate_reprss1_0E0B1P_, symObjAddr: 0x2568, symBinAddr: 0xE068, symSize: 0x48 }
  - { offset: 0x3EA0F, size: 0x8, addend: 0x0, symName: __RNCINvNvNtNtNtNtCs9f3LFPSIp77_4core4iter6traits8iterator8Iterator8for_each4callTNtNtCsATtFUPiRFW_3syn4attr4MetaNtNtCsaQ2CmD7W1Vs_15zerocopy_derive4repr8EnumReprENCNvMB1N_INtB1N_6ConfigB1L_E14validate_reprss1_0E0B1P_, symObjAddr: 0x25B0, symBinAddr: 0xE0B0, symSize: 0x48 }
  - { offset: 0x3EA6A, size: 0x8, addend: 0x0, symName: __RNvYINtNtCsATtFUPiRFW_3syn10punctuated11PrivateIterNtNtB7_4data7VariantNtNtB7_5token5CommaENtNtNtNtCs9f3LFPSIp77_4core4iter6traits8iterator8Iterator10advance_byCsaQ2CmD7W1Vs_15zerocopy_derive, symObjAddr: 0x4FEC, symBinAddr: 0x10AEC, symSize: 0x134 }
  - { offset: 0x3EBBF, size: 0x8, addend: 0x0, symName: __RNvYINtNtCsATtFUPiRFW_3syn10punctuated11PrivateIterNtNtB7_4data7VariantNtNtB7_5token5CommaENtNtNtNtCs9f3LFPSIp77_4core4iter6traits8iterator8Iterator3nthCsaQ2CmD7W1Vs_15zerocopy_derive, symObjAddr: 0x5120, symBinAddr: 0x10C20, symSize: 0x80 }
  - { offset: 0x3EC92, size: 0x8, addend: 0x0, symName: __RNvYINtNtCsATtFUPiRFW_3syn10punctuated11PrivateIterNtNtB7_4data7VariantNtNtB7_5token5CommaENtNtNtNtCs9f3LFPSIp77_4core4iter6traits8iterator8Iterator9size_hintCsaQ2CmD7W1Vs_15zerocopy_derive, symObjAddr: 0x51A0, symBinAddr: 0x10CA0, symSize: 0x34 }
  - { offset: 0x3ECC7, size: 0x8, addend: 0x0, symName: __RNvYINtNtCsATtFUPiRFW_3syn10punctuated11PrivateIterNtNtB7_8generics14WherePredicateNtNtB7_5token5CommaENtNtNtNtCs9f3LFPSIp77_4core4iter6traits8iterator8Iterator10advance_byCsaQ2CmD7W1Vs_15zerocopy_derive, symObjAddr: 0x539C, symBinAddr: 0x10E9C, symSize: 0x134 }
  - { offset: 0x3EE1C, size: 0x8, addend: 0x0, symName: __RNvYINtNtCsATtFUPiRFW_3syn10punctuated11PrivateIterNtNtB7_8generics14WherePredicateNtNtB7_5token5CommaENtNtNtNtCs9f3LFPSIp77_4core4iter6traits8iterator8Iterator3nthCsaQ2CmD7W1Vs_15zerocopy_derive, symObjAddr: 0x54D0, symBinAddr: 0x10FD0, symSize: 0x80 }
  - { offset: 0x3EEEF, size: 0x8, addend: 0x0, symName: __RNvYINtNtCsATtFUPiRFW_3syn10punctuated11PrivateIterNtNtB7_8generics14WherePredicateNtNtB7_5token5CommaENtNtNtNtCs9f3LFPSIp77_4core4iter6traits8iterator8Iterator9size_hintCsaQ2CmD7W1Vs_15zerocopy_derive, symObjAddr: 0x5550, symBinAddr: 0x11050, symSize: 0x34 }
  - { offset: 0x3EF30, size: 0x8, addend: 0x0, symName: __RNvXs_NtNtNtCs9f3LFPSIp77_4core4iter6traits7collectINtNtCsATtFUPiRFW_3syn10punctuated4IterNtNtBS_8generics14WherePredicateENtB4_12IntoIterator9into_iterCsaQ2CmD7W1Vs_15zerocopy_derive, symObjAddr: 0x4468, symBinAddr: 0xFF68, symSize: 0x1C }
  - { offset: 0x3EF73, size: 0x8, addend: 0x0, symName: __RNvYINtNtCsATtFUPiRFW_3syn10punctuated11PrivateIterNtNtB7_4data7VariantNtNtB7_5token5CommaENtNtNtNtCs9f3LFPSIp77_4core4iter6traits10exact_size17ExactSizeIterator8is_emptyCsaQ2CmD7W1Vs_15zerocopy_derive, symObjAddr: 0x4E24, symBinAddr: 0x10924, symSize: 0x2C }
  - { offset: 0x3EFA8, size: 0x8, addend: 0x0, symName: __RNvYINtNtCsATtFUPiRFW_3syn10punctuated11PrivateIterNtNtB7_8generics14WherePredicateNtNtB7_5token5CommaENtNtNtNtCs9f3LFPSIp77_4core4iter6traits10exact_size17ExactSizeIterator8is_emptyCsaQ2CmD7W1Vs_15zerocopy_derive, symObjAddr: 0x51D4, symBinAddr: 0x10CD4, symSize: 0x2C }
  - { offset: 0x3EFE9, size: 0x8, addend: 0x0, symName: __RNvYINtNtCsATtFUPiRFW_3syn10punctuated11PrivateIterNtNtB7_4data7VariantNtNtB7_5token5CommaENtNtNtNtCs9f3LFPSIp77_4core4iter6traits12double_ended19DoubleEndedIterator15advance_back_byCsaQ2CmD7W1Vs_15zerocopy_derive, symObjAddr: 0x4E50, symBinAddr: 0x10950, symSize: 0x134 }
  - { offset: 0x3F136, size: 0x8, addend: 0x0, symName: __RNvYINtNtCsATtFUPiRFW_3syn10punctuated11PrivateIterNtNtB7_4data7VariantNtNtB7_5token5CommaENtNtNtNtCs9f3LFPSIp77_4core4iter6traits12double_ended19DoubleEndedIterator8nth_backCsaQ2CmD7W1Vs_15zerocopy_derive, symObjAddr: 0x4F84, symBinAddr: 0x10A84, symSize: 0x68 }
  - { offset: 0x3F1B4, size: 0x8, addend: 0x0, symName: __RNvYINtNtCsATtFUPiRFW_3syn10punctuated11PrivateIterNtNtB7_8generics14WherePredicateNtNtB7_5token5CommaENtNtNtNtCs9f3LFPSIp77_4core4iter6traits12double_ended19DoubleEndedIterator15advance_back_byCsaQ2CmD7W1Vs_15zerocopy_derive, symObjAddr: 0x5200, symBinAddr: 0x10D00, symSize: 0x134 }
  - { offset: 0x3F301, size: 0x8, addend: 0x0, symName: __RNvYINtNtCsATtFUPiRFW_3syn10punctuated11PrivateIterNtNtB7_8generics14WherePredicateNtNtB7_5token5CommaENtNtNtNtCs9f3LFPSIp77_4core4iter6traits12double_ended19DoubleEndedIterator8nth_backCsaQ2CmD7W1Vs_15zerocopy_derive, symObjAddr: 0x5334, symBinAddr: 0x10E34, symSize: 0x68 }
  - { offset: 0x3FEE5, size: 0x8, addend: 0x0, symName: __RNvXs2_NtNtNtCs9f3LFPSIp77_4core3ops8function5implsQNvMNtCsATtFUPiRFW_3syn5errorNtBR_5Error16to_compile_errorINtB7_6FnOnceTRB1g_EE9call_onceCsaQ2CmD7W1Vs_15zerocopy_derive, symObjAddr: 0x38E8, symBinAddr: 0xF3E8, symSize: 0x2C }
  - { offset: 0x40732, size: 0x8, addend: 0x0, symName: __RNvNvMNtNtCs9f3LFPSIp77_4core5alloc6layoutNtB4_6Layout25from_size_align_unchecked18precondition_checkCsaQ2CmD7W1Vs_15zerocopy_derive, symObjAddr: 0x3528, symBinAddr: 0xF028, symSize: 0x50 }
  - { offset: 0x40883, size: 0x8, addend: 0x0, symName: __RNvNvNtCs9f3LFPSIp77_4core9ub_checks17is_nonoverlapping7runtimeCsaQ2CmD7W1Vs_15zerocopy_derive, symObjAddr: 0x3664, symBinAddr: 0xF164, symSize: 0xE4 }
  - { offset: 0x413D1, size: 0x8, addend: 0x0, symName: __RINvNvNtCs27l1GJC5rMQ_3std9panicking3try7do_callINtNtNtCs9f3LFPSIp77_4core5panic11unwind_safe16AssertUnwindSafeNCINvNtNtCsjLJ1XWNSM6u_10proc_macro6bridge6client10run_clientNtB1Q_11TokenStreamINtNtBR_6option6OptionB2K_ENCNCINvMs7_B1Q_INtB1Q_6ClientNtB1U_11TokenStreamB3X_E7expand1NvCsaQ2CmD7W1Vs_15zerocopy_derive15derive_as_bytesE00E0EuEB4v_, symObjAddr: 0x1C2C, symBinAddr: 0xD72C, symSize: 0x58 }
  - { offset: 0x414A2, size: 0x8, addend: 0x0, symName: __RINvNvNtCs27l1GJC5rMQ_3std9panicking3try7do_callINtNtNtCs9f3LFPSIp77_4core5panic11unwind_safe16AssertUnwindSafeNCINvNtNtCsjLJ1XWNSM6u_10proc_macro6bridge6client10run_clientNtB1Q_11TokenStreamINtNtBR_6option6OptionB2K_ENCNCINvMs7_B1Q_INtB1Q_6ClientNtB1U_11TokenStreamB3X_E7expand1NvCsaQ2CmD7W1Vs_15zerocopy_derive16derive_unalignedE00E0EuEB4v_, symObjAddr: 0x1C84, symBinAddr: 0xD784, symSize: 0x58 }
  - { offset: 0x41573, size: 0x8, addend: 0x0, symName: __RINvNvNtCs27l1GJC5rMQ_3std9panicking3try7do_callINtNtNtCs9f3LFPSIp77_4core5panic11unwind_safe16AssertUnwindSafeNCINvNtNtCsjLJ1XWNSM6u_10proc_macro6bridge6client10run_clientNtB1Q_11TokenStreamINtNtBR_6option6OptionB2K_ENCNCINvMs7_B1Q_INtB1Q_6ClientNtB1U_11TokenStreamB3X_E7expand1NvCsaQ2CmD7W1Vs_15zerocopy_derive17derive_from_bytesE00E0EuEB4v_, symObjAddr: 0x1CDC, symBinAddr: 0xD7DC, symSize: 0x58 }
  - { offset: 0x41644, size: 0x8, addend: 0x0, symName: __RINvNvNtCs27l1GJC5rMQ_3std9panicking3try7do_callINtNtNtCs9f3LFPSIp77_4core5panic11unwind_safe16AssertUnwindSafeNCINvNtNtCsjLJ1XWNSM6u_10proc_macro6bridge6client10run_clientNtB1Q_11TokenStreamINtNtBR_6option6OptionB2K_ENCNCINvMs7_B1Q_INtB1Q_6ClientNtB1U_11TokenStreamB3X_E7expand1NvCsaQ2CmD7W1Vs_15zerocopy_derive18derive_from_zeroesE00E0EuEB4v_, symObjAddr: 0x1D34, symBinAddr: 0xD834, symSize: 0x58 }
  - { offset: 0x41715, size: 0x8, addend: 0x0, symName: __RINvNvNtCs27l1GJC5rMQ_3std9panicking3try7do_callINtNtNtCs9f3LFPSIp77_4core5panic11unwind_safe16AssertUnwindSafeNCINvNtNtCsjLJ1XWNSM6u_10proc_macro6bridge6client10run_clientNtB1Q_11TokenStreamINtNtBR_6option6OptionB2K_ENCNCINvMs7_B1Q_INtB1Q_6ClientNtB1U_11TokenStreamB3X_E7expand1NvCsaQ2CmD7W1Vs_15zerocopy_derive19derive_known_layoutE00E0EuEB4v_, symObjAddr: 0x1D8C, symBinAddr: 0xD88C, symSize: 0x58 }
  - { offset: 0x417E6, size: 0x8, addend: 0x0, symName: __RINvNvNtCs27l1GJC5rMQ_3std9panicking3try8do_catchINtNtNtCs9f3LFPSIp77_4core5panic11unwind_safe16AssertUnwindSafeNCINvNtNtCsjLJ1XWNSM6u_10proc_macro6bridge6client10run_clientNtB1R_11TokenStreamINtNtBS_6option6OptionB2L_ENCNCINvMs7_B1R_INtB1R_6ClientNtB1V_11TokenStreamB3Y_E7expand1NvCsaQ2CmD7W1Vs_15zerocopy_derive15derive_as_bytesE00E0EuEB4w_, symObjAddr: 0x1DE4, symBinAddr: 0xD8E4, symSize: 0x70 }
  - { offset: 0x4187B, size: 0x8, addend: 0x0, symName: __RINvNvNtCs27l1GJC5rMQ_3std9panicking3try8do_catchINtNtNtCs9f3LFPSIp77_4core5panic11unwind_safe16AssertUnwindSafeNCINvNtNtCsjLJ1XWNSM6u_10proc_macro6bridge6client10run_clientNtB1R_11TokenStreamINtNtBS_6option6OptionB2L_ENCNCINvMs7_B1R_INtB1R_6ClientNtB1V_11TokenStreamB3Y_E7expand1NvCsaQ2CmD7W1Vs_15zerocopy_derive16derive_unalignedE00E0EuEB4w_, symObjAddr: 0x1E54, symBinAddr: 0xD954, symSize: 0x70 }
  - { offset: 0x41910, size: 0x8, addend: 0x0, symName: __RINvNvNtCs27l1GJC5rMQ_3std9panicking3try8do_catchINtNtNtCs9f3LFPSIp77_4core5panic11unwind_safe16AssertUnwindSafeNCINvNtNtCsjLJ1XWNSM6u_10proc_macro6bridge6client10run_clientNtB1R_11TokenStreamINtNtBS_6option6OptionB2L_ENCNCINvMs7_B1R_INtB1R_6ClientNtB1V_11TokenStreamB3Y_E7expand1NvCsaQ2CmD7W1Vs_15zerocopy_derive17derive_from_bytesE00E0EuEB4w_, symObjAddr: 0x1EC4, symBinAddr: 0xD9C4, symSize: 0x70 }
  - { offset: 0x419A5, size: 0x8, addend: 0x0, symName: __RINvNvNtCs27l1GJC5rMQ_3std9panicking3try8do_catchINtNtNtCs9f3LFPSIp77_4core5panic11unwind_safe16AssertUnwindSafeNCINvNtNtCsjLJ1XWNSM6u_10proc_macro6bridge6client10run_clientNtB1R_11TokenStreamINtNtBS_6option6OptionB2L_ENCNCINvMs7_B1R_INtB1R_6ClientNtB1V_11TokenStreamB3Y_E7expand1NvCsaQ2CmD7W1Vs_15zerocopy_derive18derive_from_zeroesE00E0EuEB4w_, symObjAddr: 0x1F34, symBinAddr: 0xDA34, symSize: 0x70 }
  - { offset: 0x41A3A, size: 0x8, addend: 0x0, symName: __RINvNvNtCs27l1GJC5rMQ_3std9panicking3try8do_catchINtNtNtCs9f3LFPSIp77_4core5panic11unwind_safe16AssertUnwindSafeNCINvNtNtCsjLJ1XWNSM6u_10proc_macro6bridge6client10run_clientNtB1R_11TokenStreamINtNtBS_6option6OptionB2L_ENCNCINvMs7_B1R_INtB1R_6ClientNtB1V_11TokenStreamB3Y_E7expand1NvCsaQ2CmD7W1Vs_15zerocopy_derive19derive_known_layoutE00E0EuEB4w_, symObjAddr: 0x1FA4, symBinAddr: 0xDAA4, symSize: 0x70 }
  - { offset: 0x41C24, size: 0x8, addend: 0x0, symName: __RINvMNtCsATtFUPiRFW_3syn5errorNtB3_5Error11new_spannedRNtCs475r2uZUTuc_11proc_macro211TokenStreamReECsaQ2CmD7W1Vs_15zerocopy_derive, symObjAddr: 0xBC, symBinAddr: 0xBBBC, symSize: 0xC4 }
  - { offset: 0x41C73, size: 0x8, addend: 0x0, symName: __RINvMNtCsATtFUPiRFW_3syn5errorNtB3_5Error11new_spannedRNtNtB5_4attr4MetaReECsaQ2CmD7W1Vs_15zerocopy_derive, symObjAddr: 0x180, symBinAddr: 0xBC80, symSize: 0xC4 }
  - { offset: 0x41CC2, size: 0x8, addend: 0x0, symName: __RINvMNtCsATtFUPiRFW_3syn5errorNtB3_5Error11new_spannedRNtNtB5_6derive11DeriveInputNtNtCsdze8u8oDPro_5alloc6string6StringECsaQ2CmD7W1Vs_15zerocopy_derive, symObjAddr: 0x244, symBinAddr: 0xBD44, symSize: 0xD4 }
  - { offset: 0x41D05, size: 0x8, addend: 0x0, symName: __RINvMNtCsATtFUPiRFW_3syn5errorNtB3_5Error11new_spannedRNtNtB5_6derive11DeriveInputReECsaQ2CmD7W1Vs_15zerocopy_derive, symObjAddr: 0x318, symBinAddr: 0xBE18, symSize: 0xC4 }
  - { offset: 0x427CB, size: 0x8, addend: 0x0, symName: __RNvMNtCsATtFUPiRFW_3syn10punctuatedINtB2_10PunctuatedNtNtB4_4attr4MetaNtNtB4_5token5CommaE10push_punctCsaQ2CmD7W1Vs_15zerocopy_derive, symObjAddr: 0x29A4, symBinAddr: 0xE4A4, symSize: 0x1D8 }
  - { offset: 0x42849, size: 0x8, addend: 0x0, symName: __RNvMNtCsATtFUPiRFW_3syn10punctuatedINtB2_10PunctuatedNtNtB4_4attr4MetaNtNtB4_5token5CommaE10push_valueCsaQ2CmD7W1Vs_15zerocopy_derive, symObjAddr: 0x2B7C, symBinAddr: 0xE67C, symSize: 0x1B4 }
  - { offset: 0x428E5, size: 0x8, addend: 0x0, symName: __RNvMNtCsATtFUPiRFW_3syn10punctuatedINtB2_10PunctuatedNtNtB4_4attr4MetaNtNtB4_5token5CommaE16parse_terminatedCsaQ2CmD7W1Vs_15zerocopy_derive, symObjAddr: 0x2D30, symBinAddr: 0xE830, symSize: 0x3C }
  - { offset: 0x42927, size: 0x8, addend: 0x0, symName: __RNvMNtCsATtFUPiRFW_3syn10punctuatedINtB2_10PunctuatedNtNtB4_4attr4MetaNtNtB4_5token5CommaE17empty_or_trailingCsaQ2CmD7W1Vs_15zerocopy_derive, symObjAddr: 0x2D6C, symBinAddr: 0xE86C, symSize: 0x34 }
  - { offset: 0x42973, size: 0x8, addend: 0x0, symName: __RNvMNtCsATtFUPiRFW_3syn10punctuatedINtB2_10PunctuatedNtNtB4_4attr4MetaNtNtB4_5token5CommaE21parse_terminated_withCsaQ2CmD7W1Vs_15zerocopy_derive, symObjAddr: 0x2DA0, symBinAddr: 0xE8A0, symSize: 0x384 }
  - { offset: 0x42A76, size: 0x8, addend: 0x0, symName: __RNvMNtCsATtFUPiRFW_3syn10punctuatedINtB2_10PunctuatedNtNtB4_4attr4MetaNtNtB4_5token5CommaE3lenCsaQ2CmD7W1Vs_15zerocopy_derive, symObjAddr: 0x3124, symBinAddr: 0xEC24, symSize: 0xA0 }
  - { offset: 0x42AAA, size: 0x8, addend: 0x0, symName: __RNvMNtCsATtFUPiRFW_3syn10punctuatedINtB2_10PunctuatedNtNtB4_4attr4MetaNtNtB4_5token5CommaE3newCsaQ2CmD7W1Vs_15zerocopy_derive, symObjAddr: 0x31C4, symBinAddr: 0xECC4, symSize: 0x54 }
  - { offset: 0x42ADD, size: 0x8, addend: 0x0, symName: __RNvMNtCsATtFUPiRFW_3syn10punctuatedINtB2_10PunctuatedNtNtB4_4data7VariantNtNtB4_5token5CommaE3lenCsaQ2CmD7W1Vs_15zerocopy_derive, symObjAddr: 0x3218, symBinAddr: 0xED18, symSize: 0xA0 }
  - { offset: 0x42B1E, size: 0x8, addend: 0x0, symName: __RNvMNtCsATtFUPiRFW_3syn10punctuatedINtB2_10PunctuatedNtNtB4_4data7VariantNtNtB4_5token5CommaE4iterCsaQ2CmD7W1Vs_15zerocopy_derive, symObjAddr: 0x32B8, symBinAddr: 0xEDB8, symSize: 0xC8 }
  - { offset: 0x42B7C, size: 0x8, addend: 0x0, symName: __RNvMNtCsATtFUPiRFW_3syn10punctuatedINtB2_10PunctuatedNtNtB4_8generics12GenericParamNtNtB4_5token5CommaE3lenCsaQ2CmD7W1Vs_15zerocopy_derive, symObjAddr: 0x3380, symBinAddr: 0xEE80, symSize: 0xA0 }
  - { offset: 0x42BF8, size: 0x8, addend: 0x0, symName: __RNvMNtCsATtFUPiRFW_3syn10punctuatedINtB2_10PunctuatedNtNtB4_8generics14WherePredicateNtNtB4_5token5CommaE4iterCsaQ2CmD7W1Vs_15zerocopy_derive, symObjAddr: 0x3420, symBinAddr: 0xEF20, symSize: 0xC8 }
  - { offset: 0x43BDF, size: 0x8, addend: 0x0, symName: __RINvMNtCs9f3LFPSIp77_4core6optionINtB3_6OptionINtNtCsdze8u8oDPro_5alloc5boxed3BoxNtNtCsATtFUPiRFW_3syn4attr4MetaEE3mapB1h_NCNvXs8_NtB1l_10punctuatedINtB24_10PunctuatedB1h_NtNtB1l_5token5CommaENtNtNtNtB5_4iter6traits7collect12IntoIterator9into_iters_0ECsaQ2CmD7W1Vs_15zerocopy_derive, symObjAddr: 0x0, symBinAddr: 0x11084, symSize: 0x78 }
  - { offset: 0x44151, size: 0x8, addend: 0x0, symName: __RNvNvMs1_NtNtCs9f3LFPSIp77_4core3ptr8non_nullINtB7_7NonNullpE13new_unchecked18precondition_checkCsaQ2CmD7W1Vs_15zerocopy_derive, symObjAddr: 0x34C8, symBinAddr: 0x1454C, symSize: 0x40 }
  - { offset: 0x44C9F, size: 0x8, addend: 0x0, symName: __RINvNtCs9f3LFPSIp77_4core3ptr19swap_nonoverlappingTNtNtCsATtFUPiRFW_3syn4attr4MetaNtNtCsaQ2CmD7W1Vs_15zerocopy_derive4repr10StructReprEEB1m_, symObjAddr: 0x133C, symBinAddr: 0x123C0, symSize: 0x154 }
  - { offset: 0x45090, size: 0x8, addend: 0x0, symName: __RINvNtCs9f3LFPSIp77_4core3ptr19swap_nonoverlappingTNtNtCsATtFUPiRFW_3syn4attr4MetaNtNtCsaQ2CmD7W1Vs_15zerocopy_derive4repr8EnumReprEEB1m_, symObjAddr: 0x1490, symBinAddr: 0x12514, symSize: 0x154 }
  - { offset: 0x455C9, size: 0x8, addend: 0x0, symName: __RNvNvNtCs9f3LFPSIp77_4core3ptr13read_volatile18precondition_checkCsaQ2CmD7W1Vs_15zerocopy_derive, symObjAddr: 0x3508, symBinAddr: 0x1458C, symSize: 0xEC }
  - { offset: 0x456D4, size: 0x8, addend: 0x0, symName: __RNvNvNtCs9f3LFPSIp77_4core3ptr19swap_nonoverlapping18precondition_checkCsaQ2CmD7W1Vs_15zerocopy_derive, symObjAddr: 0x35F4, symBinAddr: 0x14678, symSize: 0x1F0 }
  - { offset: 0x460AC, size: 0x8, addend: 0x0, symName: __RNvXsR_NtCs9f3LFPSIp77_4core3fmtRyNtB5_7Display3fmtCsaQ2CmD7W1Vs_15zerocopy_derive, symObjAddr: 0x40CC, symBinAddr: 0x15150, symSize: 0x30 }
  - { offset: 0x462F3, size: 0x8, addend: 0x0, symName: __RNvXs12_NtNtCs9f3LFPSIp77_4core3cmp5implsyNtB8_10PartialOrd11partial_cmpCsaQ2CmD7W1Vs_15zerocopy_derive, symObjAddr: 0x38D4, symBinAddr: 0x14958, symSize: 0x40 }
  - { offset: 0x46360, size: 0x8, addend: 0x0, symName: __RNvXs13_NtNtCs9f3LFPSIp77_4core3cmp5implsyNtB8_3Ord3cmpCsaQ2CmD7W1Vs_15zerocopy_derive, symObjAddr: 0x3914, symBinAddr: 0x14998, symSize: 0x38 }
  - { offset: 0x463A3, size: 0x8, addend: 0x0, symName: __RNvXs16_NtNtCs9f3LFPSIp77_4core3cmp5implsiNtB8_10PartialOrd11partial_cmpCsaQ2CmD7W1Vs_15zerocopy_derive, symObjAddr: 0x394C, symBinAddr: 0x149D0, symSize: 0x40 }
  - { offset: 0x463E6, size: 0x8, addend: 0x0, symName: __RNvXs17_NtNtCs9f3LFPSIp77_4core3cmp5implsiNtB8_3Ord3cmpCsaQ2CmD7W1Vs_15zerocopy_derive, symObjAddr: 0x398C, symBinAddr: 0x14A10, symSize: 0x38 }
  - { offset: 0x46429, size: 0x8, addend: 0x0, symName: __RNvXs7_NtNtCs9f3LFPSIp77_4core3cmp5implsRyNtB7_9PartialEq2eqCsaQ2CmD7W1Vs_15zerocopy_derive, symObjAddr: 0x3E88, symBinAddr: 0x14F0C, symSize: 0x34 }
  - { offset: 0x4647E, size: 0x8, addend: 0x0, symName: __RNvXs8_NtNtCs9f3LFPSIp77_4core3cmp5implsRyNtB7_10PartialOrd2gtCsaQ2CmD7W1Vs_15zerocopy_derive, symObjAddr: 0x3EBC, symBinAddr: 0x14F40, symSize: 0x44 }
  - { offset: 0x464F9, size: 0x8, addend: 0x0, symName: __RNvXsh_NtNtCs9f3LFPSIp77_4core3cmp5implsbNtB7_9PartialEq2eqCsaQ2CmD7W1Vs_15zerocopy_derive, symObjAddr: 0x4694, symBinAddr: 0x15718, symSize: 0x34 }
  - { offset: 0x4653C, size: 0x8, addend: 0x0, symName: __RNvXsj_NtNtCs9f3LFPSIp77_4core3cmp5implsjNtB7_9PartialEq2eqCsaQ2CmD7W1Vs_15zerocopy_derive, symObjAddr: 0x46C8, symBinAddr: 0x1574C, symSize: 0x2C }
  - { offset: 0x465D3, size: 0x8, addend: 0x0, symName: __RNvXsn_NtNtCs9f3LFPSIp77_4core3cmp5implsyNtB7_9PartialEq2eqCsaQ2CmD7W1Vs_15zerocopy_derive, symObjAddr: 0x4870, symBinAddr: 0x158F4, symSize: 0x2C }
  - { offset: 0x49534, size: 0x8, addend: 0x0, symName: __RNvXs5_NtCs9f3LFPSIp77_4core6optionINtB5_6OptionINtNtCsATtFUPiRFW_3syn10punctuated4IterNtNtBP_8generics14WherePredicateEENtNtNtNtB7_4iter6traits7collect12IntoIterator9into_iterCsaQ2CmD7W1Vs_15zerocopy_derive, symObjAddr: 0x3C94, symBinAddr: 0x14D18, symSize: 0x1C }
  - { offset: 0x4956B, size: 0x8, addend: 0x0, symName: __RNvXs5_NtCs9f3LFPSIp77_4core6optionINtB5_6OptionNtNtCsATtFUPiRFW_3syn4attr4MetaENtNtNtNtB7_4iter6traits7collect12IntoIterator9into_iterCsaQ2CmD7W1Vs_15zerocopy_derive, symObjAddr: 0x3CB0, symBinAddr: 0x14D34, symSize: 0x50 }
  - { offset: 0x495A3, size: 0x8, addend: 0x0, symName: __RNvXs5_NtCs9f3LFPSIp77_4core6optionINtB5_6OptionNtNtCsATtFUPiRFW_3syn8generics12GenericParamENtNtNtNtB7_4iter6traits7collect12IntoIterator9into_iterCsaQ2CmD7W1Vs_15zerocopy_derive, symObjAddr: 0x3D00, symBinAddr: 0x14D84, symSize: 0x50 }
  - { offset: 0x495E1, size: 0x8, addend: 0x0, symName: __RNvXsB_NtCs9f3LFPSIp77_4core6optionINtB5_6OptionNtCs475r2uZUTuc_11proc_macro24SpanENtNtNtB7_3ops9try_trait3Try11from_outputCsaQ2CmD7W1Vs_15zerocopy_derive, symObjAddr: 0x3F00, symBinAddr: 0x14F84, symSize: 0x24 }
  - { offset: 0x49618, size: 0x8, addend: 0x0, symName: __RNvXsB_NtCs9f3LFPSIp77_4core6optionINtB5_6OptionNtCs475r2uZUTuc_11proc_macro24SpanENtNtNtB7_3ops9try_trait3Try6branchCsaQ2CmD7W1Vs_15zerocopy_derive, symObjAddr: 0x3F24, symBinAddr: 0x14FA8, symSize: 0x48 }
  - { offset: 0x49672, size: 0x8, addend: 0x0, symName: __RNvXsC_NtCs9f3LFPSIp77_4core6optionINtB5_6OptionNtCs475r2uZUTuc_11proc_macro24SpanEINtNtNtB7_3ops9try_trait12FromResidualIBy_NtNtB7_7convert10InfallibleEE13from_residualCsaQ2CmD7W1Vs_15zerocopy_derive, symObjAddr: 0x3F6C, symBinAddr: 0x14FF0, symSize: 0x18 }
  - { offset: 0x49780, size: 0x8, addend: 0x0, symName: __RNvXsO_NtCs9f3LFPSIp77_4core6optionINtB5_8IntoIterRNtNtCsATtFUPiRFW_3syn4data7VariantENtNtB7_5clone5Clone5cloneCsaQ2CmD7W1Vs_15zerocopy_derive, symObjAddr: 0x3FFC, symBinAddr: 0x15080, symSize: 0x68 }
  - { offset: 0x49827, size: 0x8, addend: 0x0, symName: __RNvXsO_NtCs9f3LFPSIp77_4core6optionINtB5_8IntoIterRNtNtCsATtFUPiRFW_3syn8generics14WherePredicateENtNtB7_5clone5Clone5cloneCsaQ2CmD7W1Vs_15zerocopy_derive, symObjAddr: 0x4064, symBinAddr: 0x150E8, symSize: 0x68 }
  - { offset: 0x498D4, size: 0x8, addend: 0x0, symName: __RNvXsc_NtCs9f3LFPSIp77_4core6optionINtB5_6OptionbENtNtB7_3cmp9PartialEq2eqCsaQ2CmD7W1Vs_15zerocopy_derive, symObjAddr: 0x44FC, symBinAddr: 0x15580, symSize: 0xB8 }
  - { offset: 0x49948, size: 0x8, addend: 0x0, symName: __RNvXsc_NtCs9f3LFPSIp77_4core6optionINtB5_6OptionjENtNtB7_3cmp9PartialEq2eqCsaQ2CmD7W1Vs_15zerocopy_derive, symObjAddr: 0x45B4, symBinAddr: 0x15638, symSize: 0xA8 }
  - { offset: 0x49BDA, size: 0x8, addend: 0x0, symName: __RNvXsk_NtCs9f3LFPSIp77_4core6optionINtB5_4IterNtNtCsATtFUPiRFW_3syn8generics14WherePredicateENtNtNtNtB7_4iter6traits8iterator8Iterator4nextCsaQ2CmD7W1Vs_15zerocopy_derive, symObjAddr: 0x46F4, symBinAddr: 0x15778, symSize: 0x3C }
  - { offset: 0x49CC9, size: 0x8, addend: 0x0, symName: __RNvXsv_NtCs9f3LFPSIp77_4core6optionINtB5_8IntoIterINtNtCsATtFUPiRFW_3syn10punctuated4IterNtNtBR_8generics14WherePredicateEENtNtNtNtB7_4iter6traits8iterator8Iterator4nextCsaQ2CmD7W1Vs_15zerocopy_derive, symObjAddr: 0x4AC8, symBinAddr: 0x15B4C, symSize: 0x4C }
  - { offset: 0x49DBC, size: 0x8, addend: 0x0, symName: __RNvXsv_NtCs9f3LFPSIp77_4core6optionINtB5_8IntoIterNtNtCsATtFUPiRFW_3syn4attr4MetaENtNtNtNtB7_4iter6traits8iterator8Iterator4nextCsaQ2CmD7W1Vs_15zerocopy_derive, symObjAddr: 0x4B14, symBinAddr: 0x15B98, symSize: 0x78 }
  - { offset: 0x49E99, size: 0x8, addend: 0x0, symName: __RNvXsv_NtCs9f3LFPSIp77_4core6optionINtB5_8IntoIterNtNtCsATtFUPiRFW_3syn4attr4MetaENtNtNtNtB7_4iter6traits8iterator8Iterator9size_hintCsaQ2CmD7W1Vs_15zerocopy_derive, symObjAddr: 0x4B8C, symBinAddr: 0x15C10, symSize: 0x5C }
  - { offset: 0x49F56, size: 0x8, addend: 0x0, symName: __RNvXsv_NtCs9f3LFPSIp77_4core6optionINtB5_8IntoIterNtNtCsATtFUPiRFW_3syn8generics12GenericParamENtNtNtNtB7_4iter6traits8iterator8Iterator4nextCsaQ2CmD7W1Vs_15zerocopy_derive, symObjAddr: 0x4BE8, symBinAddr: 0x15C6C, symSize: 0x78 }
  - { offset: 0x4A033, size: 0x8, addend: 0x0, symName: __RNvXsv_NtCs9f3LFPSIp77_4core6optionINtB5_8IntoIterNtNtCsATtFUPiRFW_3syn8generics12GenericParamENtNtNtNtB7_4iter6traits8iterator8Iterator9size_hintCsaQ2CmD7W1Vs_15zerocopy_derive, symObjAddr: 0x4C60, symBinAddr: 0x15CE4, symSize: 0x5C }
  - { offset: 0x4A0F0, size: 0x8, addend: 0x0, symName: __RNvXsv_NtCs9f3LFPSIp77_4core6optionINtB5_8IntoIterRNtNtCsATtFUPiRFW_3syn4data7VariantENtNtNtNtB7_4iter6traits8iterator8Iterator9size_hintCsaQ2CmD7W1Vs_15zerocopy_derive, symObjAddr: 0x4CBC, symBinAddr: 0x15D40, symSize: 0x5C }
  - { offset: 0x4A1AD, size: 0x8, addend: 0x0, symName: __RNvXsv_NtCs9f3LFPSIp77_4core6optionINtB5_8IntoIterRNtNtCsATtFUPiRFW_3syn8generics14WherePredicateENtNtNtNtB7_4iter6traits8iterator8Iterator9size_hintCsaQ2CmD7W1Vs_15zerocopy_derive, symObjAddr: 0x4D18, symBinAddr: 0x15D9C, symSize: 0x5C }
  - { offset: 0x4A8F0, size: 0x8, addend: 0x0, symName: __RNvXsn_NtNtCs9f3LFPSIp77_4core5panic11unwind_safeINtB5_16AssertUnwindSafeNCINvNtNtCsjLJ1XWNSM6u_10proc_macro6bridge6client10run_clientNtB1e_11TokenStreamINtNtB9_6option6OptionB28_ENCNCINvMs7_B1e_INtB1e_6ClientNtB1i_11TokenStreamB3l_E7expand1NvCsaQ2CmD7W1Vs_15zerocopy_derive15derive_as_bytesE00E0EINtNtNtB9_3ops8function6FnOnceuE9call_onceB3T_, symObjAddr: 0x489C, symBinAddr: 0x15920, symSize: 0x38 }
  - { offset: 0x4A947, size: 0x8, addend: 0x0, symName: __RNvXsn_NtNtCs9f3LFPSIp77_4core5panic11unwind_safeINtB5_16AssertUnwindSafeNCINvNtNtCsjLJ1XWNSM6u_10proc_macro6bridge6client10run_clientNtB1e_11TokenStreamINtNtB9_6option6OptionB28_ENCNCINvMs7_B1e_INtB1e_6ClientNtB1i_11TokenStreamB3l_E7expand1NvCsaQ2CmD7W1Vs_15zerocopy_derive16derive_unalignedE00E0EINtNtNtB9_3ops8function6FnOnceuE9call_onceB3T_, symObjAddr: 0x48D4, symBinAddr: 0x15958, symSize: 0x38 }
  - { offset: 0x4A99E, size: 0x8, addend: 0x0, symName: __RNvXsn_NtNtCs9f3LFPSIp77_4core5panic11unwind_safeINtB5_16AssertUnwindSafeNCINvNtNtCsjLJ1XWNSM6u_10proc_macro6bridge6client10run_clientNtB1e_11TokenStreamINtNtB9_6option6OptionB28_ENCNCINvMs7_B1e_INtB1e_6ClientNtB1i_11TokenStreamB3l_E7expand1NvCsaQ2CmD7W1Vs_15zerocopy_derive17derive_from_bytesE00E0EINtNtNtB9_3ops8function6FnOnceuE9call_onceB3T_, symObjAddr: 0x490C, symBinAddr: 0x15990, symSize: 0x38 }
  - { offset: 0x4A9F5, size: 0x8, addend: 0x0, symName: __RNvXsn_NtNtCs9f3LFPSIp77_4core5panic11unwind_safeINtB5_16AssertUnwindSafeNCINvNtNtCsjLJ1XWNSM6u_10proc_macro6bridge6client10run_clientNtB1e_11TokenStreamINtNtB9_6option6OptionB28_ENCNCINvMs7_B1e_INtB1e_6ClientNtB1i_11TokenStreamB3l_E7expand1NvCsaQ2CmD7W1Vs_15zerocopy_derive18derive_from_zeroesE00E0EINtNtNtB9_3ops8function6FnOnceuE9call_onceB3T_, symObjAddr: 0x4944, symBinAddr: 0x159C8, symSize: 0x38 }
  - { offset: 0x4AA4C, size: 0x8, addend: 0x0, symName: __RNvXsn_NtNtCs9f3LFPSIp77_4core5panic11unwind_safeINtB5_16AssertUnwindSafeNCINvNtNtCsjLJ1XWNSM6u_10proc_macro6bridge6client10run_clientNtB1e_11TokenStreamINtNtB9_6option6OptionB28_ENCNCINvMs7_B1e_INtB1e_6ClientNtB1i_11TokenStreamB3l_E7expand1NvCsaQ2CmD7W1Vs_15zerocopy_derive19derive_known_layoutE00E0EINtNtNtB9_3ops8function6FnOnceuE9call_onceB3T_, symObjAddr: 0x497C, symBinAddr: 0x15A00, symSize: 0x38 }
  - { offset: 0x4B761, size: 0x8, addend: 0x0, symName: __RNvMNtCs9f3LFPSIp77_4core5sliceSRNtNtCsATtFUPiRFW_3syn2ty4Type10split_lastCsaQ2CmD7W1Vs_15zerocopy_derive, symObjAddr: 0x2730, symBinAddr: 0x137B4, symSize: 0x7C }
  - { offset: 0x4B7BC, size: 0x8, addend: 0x0, symName: __RNvMNtCs9f3LFPSIp77_4core5sliceSRNtNtCsATtFUPiRFW_3syn2ty4Type4iterCsaQ2CmD7W1Vs_15zerocopy_derive, symObjAddr: 0x27AC, symBinAddr: 0x13830, symSize: 0x28 }
  - { offset: 0x4B8D5, size: 0x8, addend: 0x0, symName: __RINvNtNtNtCs9f3LFPSIp77_4core5slice4sort6stable14driftsort_mainTNtNtCsATtFUPiRFW_3syn4attr4MetaNtNtCsaQ2CmD7W1Vs_15zerocopy_derive4repr10StructReprENCINvMNtCsdze8u8oDPro_5alloc5sliceSBZ_7sort_byNCNvMB1x_INtB1x_6ConfigB1v_E14validate_reprs0E0INtNtB2u_3vec3VecBZ_EEB1z_, symObjAddr: 0x15E4, symBinAddr: 0x12668, symSize: 0x2A8 }
  - { offset: 0x4BB4E, size: 0x8, addend: 0x0, symName: __RINvNtNtNtCs9f3LFPSIp77_4core5slice4sort6stable14driftsort_mainTNtNtCsATtFUPiRFW_3syn4attr4MetaNtNtCsaQ2CmD7W1Vs_15zerocopy_derive4repr8EnumReprENCINvMNtCsdze8u8oDPro_5alloc5sliceSBZ_7sort_byNCNvMB1x_INtB1x_6ConfigB1v_E14validate_reprs0E0INtNtB2r_3vec3VecBZ_EEB1z_, symObjAddr: 0x188C, symBinAddr: 0x12910, symSize: 0x2A8 }
  - { offset: 0x4BED4, size: 0x8, addend: 0x0, symName: __RNvXs1_NtNtCs9f3LFPSIp77_4core5slice5indexNtNtNtB9_3ops11index_range10IndexRangeINtB5_10SliceIndexSINtNtNtB9_3mem12maybe_uninit11MaybeUninitjEE17get_unchecked_mutCsaQ2CmD7W1Vs_15zerocopy_derive, symObjAddr: 0x3A1C, symBinAddr: 0x14AA0, symSize: 0xC8 }
  - { offset: 0x4C206, size: 0x8, addend: 0x0, symName: __RINvXs_NtNtNtCs9f3LFPSIp77_4core4iter8adapters4skipINtB5_4SkipINtNtNtBb_5slice4iter4IterNtNtCsATtFUPiRFW_3syn4attr4MetaEENtNtNtB9_6traits8iterator8Iterator8try_foldNtCs475r2uZUTuc_11proc_macro24SpanNCNvMNtCsaQ2CmD7W1Vs_15zerocopy_derive4reprINtB3f_6ConfigNtB3f_10StructReprE14validate_reprss2_0INtNtBb_6option6OptionB2C_EEB3h_, symObjAddr: 0x2158, symBinAddr: 0x131DC, symSize: 0x140 }
  - { offset: 0x4C2C2, size: 0x8, addend: 0x0, symName: __RINvXs_NtNtNtCs9f3LFPSIp77_4core4iter8adapters4skipINtB5_4SkipINtNtNtBb_5slice4iter4IterNtNtCsATtFUPiRFW_3syn4attr4MetaEENtNtNtB9_6traits8iterator8Iterator8try_foldNtCs475r2uZUTuc_11proc_macro24SpanNCNvMNtCsaQ2CmD7W1Vs_15zerocopy_derive4reprINtB3f_6ConfigNtB3f_8EnumReprE14validate_reprss2_0INtNtBb_6option6OptionB2C_EEB3h_, symObjAddr: 0x2298, symBinAddr: 0x1331C, symSize: 0x140 }
  - { offset: 0x4C4DF, size: 0x8, addend: 0x0, symName: __RINvYINtNtCs9f3LFPSIp77_4core6option8IntoIterNtNtCsATtFUPiRFW_3syn4attr4MetaENtNtNtNtB8_4iter6traits8iterator8Iterator4folduNCINvNvB1d_8for_each4callBH_NCINvMsi_NtCsdze8u8oDPro_5alloc3vecINtB2z_3VecBH_E14extend_trustedB3_E0E0ECsaQ2CmD7W1Vs_15zerocopy_derive, symObjAddr: 0x23D8, symBinAddr: 0x1345C, symSize: 0x144 }
  - { offset: 0x4C602, size: 0x8, addend: 0x0, symName: __RINvYINtNtCs9f3LFPSIp77_4core6option8IntoIterNtNtCsATtFUPiRFW_3syn4attr4MetaENtNtNtNtB8_4iter6traits8iterator8Iterator8for_eachNCINvMsi_NtCsdze8u8oDPro_5alloc3vecINtB2a_3VecBH_E14extend_trustedB3_E0ECsaQ2CmD7W1Vs_15zerocopy_derive, symObjAddr: 0x251C, symBinAddr: 0x135A0, symSize: 0x34 }
  - { offset: 0x4C66E, size: 0x8, addend: 0x0, symName: __RINvYINtNtCs9f3LFPSIp77_4core6option8IntoIterNtNtCsATtFUPiRFW_3syn8generics12GenericParamENtNtNtNtB8_4iter6traits8iterator8Iterator4folduNCINvNvB1q_8for_each4callBH_NCINvMsi_NtCsdze8u8oDPro_5alloc3vecINtB2M_3VecBH_E14extend_trustedB3_E0E0ECsaQ2CmD7W1Vs_15zerocopy_derive, symObjAddr: 0x2550, symBinAddr: 0x135D4, symSize: 0x148 }
  - { offset: 0x4C6FF, size: 0x8, addend: 0x0, symName: __RINvYINtNtCs9f3LFPSIp77_4core6option8IntoIterNtNtCsATtFUPiRFW_3syn8generics12GenericParamENtNtNtNtB8_4iter6traits8iterator8Iterator8for_eachNCINvMsi_NtCsdze8u8oDPro_5alloc3vecINtB2n_3VecBH_E14extend_trustedB3_E0ECsaQ2CmD7W1Vs_15zerocopy_derive, symObjAddr: 0x2698, symBinAddr: 0x1371C, symSize: 0x34 }
  - { offset: 0x4C76B, size: 0x8, addend: 0x0, symName: __RNvYINtNtCs9f3LFPSIp77_4core6option8IntoIterINtNtCsATtFUPiRFW_3syn10punctuated4IterNtNtBL_8generics14WherePredicateEENtNtNtNtB7_4iter6traits8iterator8Iterator4fuseCsaQ2CmD7W1Vs_15zerocopy_derive, symObjAddr: 0x4D74, symBinAddr: 0x15DF8, symSize: 0x40 }
  - { offset: 0x4C7C0, size: 0x8, addend: 0x0, symName: __RNvYINtNtCs9f3LFPSIp77_4core6option8IntoIterINtNtCsATtFUPiRFW_3syn10punctuated4IterNtNtBL_8generics14WherePredicateEENtNtNtNtB7_4iter6traits8iterator8Iterator7flattenCsaQ2CmD7W1Vs_15zerocopy_derive, symObjAddr: 0x4DB4, symBinAddr: 0x15E38, symSize: 0x7C }
  - { offset: 0x4C86A, size: 0x8, addend: 0x0, symName: __RNvYINtNtCs9f3LFPSIp77_4core6option8IntoIterRNtNtCsATtFUPiRFW_3syn4data7VariantENtNtNtNtB7_4iter6traits10exact_size17ExactSizeIterator3lenCsaQ2CmD7W1Vs_15zerocopy_derive, symObjAddr: 0x4E30, symBinAddr: 0x15EB4, symSize: 0xC4 }
  - { offset: 0x4C95C, size: 0x8, addend: 0x0, symName: __RNvYINtNtCs9f3LFPSIp77_4core6option8IntoIterRNtNtCsATtFUPiRFW_3syn8generics14WherePredicateENtNtNtNtB7_4iter6traits10exact_size17ExactSizeIterator3lenCsaQ2CmD7W1Vs_15zerocopy_derive, symObjAddr: 0x4EF4, symBinAddr: 0x15F78, symSize: 0xC4 }
  - { offset: 0x4CA5A, size: 0x8, addend: 0x0, symName: __RNvXs_NtNtNtCs9f3LFPSIp77_4core4iter6traits7collectINtNtBa_6option4IterNtNtCsATtFUPiRFW_3syn8generics14WherePredicateENtB4_12IntoIterator9into_iterCsaQ2CmD7W1Vs_15zerocopy_derive, symObjAddr: 0x4418, symBinAddr: 0x1549C, symSize: 0x14 }
  - { offset: 0x4CC1D, size: 0x8, addend: 0x0, symName: __RNvXs1_NtCs9f3LFPSIp77_4core7convertNtCs475r2uZUTuc_11proc_macro211TokenStreamINtB5_4IntoBy_E4intoCsaQ2CmD7W1Vs_15zerocopy_derive, symObjAddr: 0x39D4, symBinAddr: 0x14A58, symSize: 0x14 }
  - { offset: 0x4CC4E, size: 0x8, addend: 0x0, symName: __RNvXs1_NtCs9f3LFPSIp77_4core7convertNtCs475r2uZUTuc_11proc_macro211TokenStreamINtB5_4IntoBy_E4intoCsaQ2CmD7W1Vs_15zerocopy_derive, symObjAddr: 0x39D4, symBinAddr: 0x14A58, symSize: 0x14 }
  - { offset: 0x4CC7B, size: 0x8, addend: 0x0, symName: __RNvXs1_NtCs9f3LFPSIp77_4core7convertNtCs475r2uZUTuc_11proc_macro211TokenStreamINtB5_4IntoNtCsjLJ1XWNSM6u_10proc_macro11TokenStreamE4intoCsaQ2CmD7W1Vs_15zerocopy_derive, symObjAddr: 0x39E8, symBinAddr: 0x14A6C, symSize: 0x14 }
  - { offset: 0x4CCBC, size: 0x8, addend: 0x0, symName: __RNvXs1_NtCs9f3LFPSIp77_4core7convertbINtB5_4IntoNtCsaQ2CmD7W1Vs_15zerocopy_derive20RequireBoundedFieldsE4intoBM_, symObjAddr: 0x39FC, symBinAddr: 0x14A80, symSize: 0x20 }
  - { offset: 0x4CEA9, size: 0x8, addend: 0x0, symName: __RNvXs_NtNtCs9f3LFPSIp77_4core3ops11index_rangeNtB4_10IndexRangeNtNtNtNtB8_4iter6traits8iterator8Iterator4nextCsaQ2CmD7W1Vs_15zerocopy_derive, symObjAddr: 0x432C, symBinAddr: 0x153B0, symSize: 0xEC }
  - { offset: 0x4CFA2, size: 0x8, addend: 0x0, symName: __RNvXs2_NtNtNtCs9f3LFPSIp77_4core3ops8function5implsQNCINvXs7_Cs475r2uZUTuc_11proc_macro2NtBX_11TokenStreamINtNtNtNtBb_4iter6traits7collect12FromIteratorB1o_E9from_iterINtNtNtB1N_8adapters3map3MapINtNtNtBb_5slice4iter4IterNtNtCsATtFUPiRFW_3syn5error5ErrorENvMB3z_B3x_16to_compile_errorEE0INtB7_6FnOnceTB1o_EE9call_onceCsaQ2CmD7W1Vs_15zerocopy_derive, symObjAddr: 0x3B1C, symBinAddr: 0x14BA0, symSize: 0x3C }
  - { offset: 0x4D0FC, size: 0x8, addend: 0x0, symName: __RNvNvNtCs9f3LFPSIp77_4core4hint21unreachable_unchecked18precondition_checkCsaQ2CmD7W1Vs_15zerocopy_derive, symObjAddr: 0x37E4, symBinAddr: 0x14868, symSize: 0x1C }
  - { offset: 0x4D2D2, size: 0x8, addend: 0x0, symName: __RINvNtNtNtCsjLJ1XWNSM6u_10proc_macro6bridge6client5state3setINtNtCs9f3LFPSIp77_4core6option6OptionNtB4_11TokenStreamENCNCINvB4_10run_clientB1y_BW_NCNCINvMs7_B4_INtB4_6ClientNtB8_11TokenStreamB2L_E7expand1NvCsaQ2CmD7W1Vs_15zerocopy_derive15derive_as_bytesE00E00EB3i_, symObjAddr: 0x1B34, symBinAddr: 0x12BB8, symSize: 0x128 }
  - { offset: 0x4D3C6, size: 0x8, addend: 0x0, symName: __RINvNtNtNtCsjLJ1XWNSM6u_10proc_macro6bridge6client5state3setINtNtCs9f3LFPSIp77_4core6option6OptionNtB4_11TokenStreamENCNCINvB4_10run_clientB1y_BW_NCNCINvMs7_B4_INtB4_6ClientNtB8_11TokenStreamB2L_E7expand1NvCsaQ2CmD7W1Vs_15zerocopy_derive16derive_unalignedE00E00EB3i_, symObjAddr: 0x1C5C, symBinAddr: 0x12CE0, symSize: 0x128 }
  - { offset: 0x4D4BA, size: 0x8, addend: 0x0, symName: __RINvNtNtNtCsjLJ1XWNSM6u_10proc_macro6bridge6client5state3setINtNtCs9f3LFPSIp77_4core6option6OptionNtB4_11TokenStreamENCNCINvB4_10run_clientB1y_BW_NCNCINvMs7_B4_INtB4_6ClientNtB8_11TokenStreamB2L_E7expand1NvCsaQ2CmD7W1Vs_15zerocopy_derive17derive_from_bytesE00E00EB3i_, symObjAddr: 0x1D84, symBinAddr: 0x12E08, symSize: 0x128 }
  - { offset: 0x4D5AE, size: 0x8, addend: 0x0, symName: __RINvNtNtNtCsjLJ1XWNSM6u_10proc_macro6bridge6client5state3setINtNtCs9f3LFPSIp77_4core6option6OptionNtB4_11TokenStreamENCNCINvB4_10run_clientB1y_BW_NCNCINvMs7_B4_INtB4_6ClientNtB8_11TokenStreamB2L_E7expand1NvCsaQ2CmD7W1Vs_15zerocopy_derive18derive_from_zeroesE00E00EB3i_, symObjAddr: 0x1EAC, symBinAddr: 0x12F30, symSize: 0x128 }
  - { offset: 0x4D6A2, size: 0x8, addend: 0x0, symName: __RINvNtNtNtCsjLJ1XWNSM6u_10proc_macro6bridge6client5state3setINtNtCs9f3LFPSIp77_4core6option6OptionNtB4_11TokenStreamENCNCINvB4_10run_clientB1y_BW_NCNCINvMs7_B4_INtB4_6ClientNtB8_11TokenStreamB2L_E7expand1NvCsaQ2CmD7W1Vs_15zerocopy_derive19derive_known_layoutE00E00EB3i_, symObjAddr: 0x1FD4, symBinAddr: 0x13058, symSize: 0x128 }
  - { offset: 0x4D7A0, size: 0x8, addend: 0x0, symName: __RNCNkNvNtNtNtCsjLJ1XWNSM6u_10proc_macro6bridge6client5state12BRIDGE_STATE0s_0CsaQ2CmD7W1Vs_15zerocopy_derive, symObjAddr: 0x26FC, symBinAddr: 0x13780, symSize: 0x34 }
  - { offset: 0x4DF36, size: 0x8, addend: 0x0, symName: __RNvXs5_NtNtCsjLJ1XWNSM6u_10proc_macro6bridge6bufferNtB5_6BufferNtNtNtCs9f3LFPSIp77_4core3ops4drop4Drop4dropCsaQ2CmD7W1Vs_15zerocopy_derive, symObjAddr: 0x3D50, symBinAddr: 0x14DD4, symSize: 0x138 }
  - { offset: 0x4E390, size: 0x8, addend: 0x0, symName: __RNvXNtNtCsjLJ1XWNSM6u_10proc_macro6bridge3rpcuINtB2_6EncodeuE6encodeCsaQ2CmD7W1Vs_15zerocopy_derive, symObjAddr: 0x38C0, symBinAddr: 0x14944, symSize: 0x14 }
  - { offset: 0x4E475, size: 0x8, addend: 0x0, symName: __RNvXsa_NtNtCsjLJ1XWNSM6u_10proc_macro6bridge3rpcRShINtB5_6EncodeuE6encodeCsaQ2CmD7W1Vs_15zerocopy_derive, symObjAddr: 0x442C, symBinAddr: 0x154B0, symSize: 0xD0 }
  - { offset: 0x4E580, size: 0x8, addend: 0x0, symName: __RNvXsc_NtNtCsjLJ1XWNSM6u_10proc_macro6bridge3rpcReINtB5_6EncodeuE6encodeCsaQ2CmD7W1Vs_15zerocopy_derive, symObjAddr: 0x465C, symBinAddr: 0x156E0, symSize: 0x38 }
  - { offset: 0x4E668, size: 0x8, addend: 0x0, symName: __RNvXsl_NtNtCsjLJ1XWNSM6u_10proc_macro6bridge3rpcNtB5_12PanicMessageINtB5_6EncodeuE6encodeCsaQ2CmD7W1Vs_15zerocopy_derive, symObjAddr: 0x4730, symBinAddr: 0x157B4, symSize: 0x140 }
  - { offset: 0x4E8B0, size: 0x8, addend: 0x0, symName: __RNvXso_NtNtCsjLJ1XWNSM6u_10proc_macro6bridge3rpcmINtB5_9DecodeMutuE6decodeCsaQ2CmD7W1Vs_15zerocopy_derive, symObjAddr: 0x49B4, symBinAddr: 0x15A38, symSize: 0x114 }
  - { offset: 0x4EA6F, size: 0x8, addend: 0x0, symName: __RNvXsR_NtCsjLJ1XWNSM6u_10proc_macro6bridgeINtNtCs9f3LFPSIp77_4core6option6OptionNtNtB5_6client11TokenStreamEINtNtB5_3rpc6EncodeuE6encodeCsaQ2CmD7W1Vs_15zerocopy_derive, symObjAddr: 0x40FC, symBinAddr: 0x15180, symSize: 0xCC }
  - { offset: 0x4EB13, size: 0x8, addend: 0x0, symName: __RNvXsR_NtCsjLJ1XWNSM6u_10proc_macro6bridgeINtNtCs9f3LFPSIp77_4core6option6OptionReEINtNtB5_3rpc6EncodeuE6encodeCsaQ2CmD7W1Vs_15zerocopy_derive, symObjAddr: 0x41C8, symBinAddr: 0x1524C, symSize: 0xD8 }
  - { offset: 0x4EFE1, size: 0x8, addend: 0x0, symName: __RNvXs1_NtCs475r2uZUTuc_11proc_macro26markerNtB5_19ProcMacroAutoTraitsNtNtCs9f3LFPSIp77_4core5clone5Clone5cloneCsaQ2CmD7W1Vs_15zerocopy_derive, symObjAddr: 0x39C4, symBinAddr: 0x14A48, symSize: 0x10 }
  - { offset: 0x4F215, size: 0x8, addend: 0x0, symName: __RINvXs7_Cs475r2uZUTuc_11proc_macro2NtB6_11TokenStreamINtNtNtNtCs9f3LFPSIp77_4core4iter6traits7collect12FromIteratorBx_E9from_iterINtNtNtBW_8adapters3map3MapINtNtNtBY_5slice4iter4IterNtNtCsATtFUPiRFW_3syn5error5ErrorENvMB2W_B2U_16to_compile_errorEECsaQ2CmD7W1Vs_15zerocopy_derive, symObjAddr: 0x20FC, symBinAddr: 0x13180, symSize: 0x5C }
  - { offset: 0x4F251, size: 0x8, addend: 0x0, symName: __RNCINvXs7_Cs475r2uZUTuc_11proc_macro2NtB8_11TokenStreamINtNtNtNtCs9f3LFPSIp77_4core4iter6traits7collect12FromIteratorBz_E9from_iterINtNtNtBY_8adapters3map3MapINtNtNtB10_5slice4iter4IterNtNtCsATtFUPiRFW_3syn5error5ErrorENvMB2Z_B2X_16to_compile_errorEE0CsaQ2CmD7W1Vs_15zerocopy_derive, symObjAddr: 0x26CC, symBinAddr: 0x13750, symSize: 0x30 }
  - { offset: 0x4F2A1, size: 0x8, addend: 0x0, symName: __RNvXsG_Cs475r2uZUTuc_11proc_macro2NtB5_11TokenStreamNtNtCs9f3LFPSIp77_4core5clone5Clone5cloneCsaQ2CmD7W1Vs_15zerocopy_derive, symObjAddr: 0x3F84, symBinAddr: 0x15008, symSize: 0x78 }
  - { offset: 0x546A8, size: 0x8, addend: 0x0, symName: __RNvNtCsdze8u8oDPro_5alloc5alloc12alloc_zeroedCsaQ2CmD7W1Vs_15zerocopy_derive, symObjAddr: 0x3320, symBinAddr: 0x143A4, symSize: 0x80 }
  - { offset: 0x54775, size: 0x8, addend: 0x0, symName: __RNvXs_NtCsdze8u8oDPro_5alloc5allocNtB4_6GlobalNtNtCs9f3LFPSIp77_4core5alloc9Allocator10deallocateCsaQ2CmD7W1Vs_15zerocopy_derive, symObjAddr: 0x42A0, symBinAddr: 0x15324, symSize: 0x8C }
  - { offset: 0x5485A, size: 0x8, addend: 0x0, symName: __RNvNtCsdze8u8oDPro_5alloc5alloc15exchange_mallocCsaQ2CmD7W1Vs_15zerocopy_derive, symObjAddr: 0x33A0, symBinAddr: 0x14424, symSize: 0xA8 }
  - { offset: 0x54969, size: 0x8, addend: 0x0, symName: __RNvNtCsdze8u8oDPro_5alloc5alloc5allocCsaQ2CmD7W1Vs_15zerocopy_derive, symObjAddr: 0x3448, symBinAddr: 0x144CC, symSize: 0x80 }
  - { offset: 0x55A17, size: 0x8, addend: 0x0, symName: __RNvNtCsdze8u8oDPro_5alloc3fmt6formatCsaQ2CmD7W1Vs_15zerocopy_derive, symObjAddr: 0x324C, symBinAddr: 0x142D0, symSize: 0xD4 }
  - { offset: 0x55FB4, size: 0x8, addend: 0x0, symName: __RINvMNtCs9f3LFPSIp77_4core6optionINtB3_6OptionINtNtCsdze8u8oDPro_5alloc5boxed3BoxNtNtCsATtFUPiRFW_3syn4attr4MetaEE3mapB1h_NCNvXs8_NtB1l_10punctuatedINtB24_10PunctuatedB1h_NtNtB1l_5token5CommaENtNtNtNtB5_4iter6traits7collect12IntoIterator9into_iters_0ECsaQ2CmD7W1Vs_15zerocopy_derive, symObjAddr: 0x0, symBinAddr: 0x11084, symSize: 0x78 }
  - { offset: 0x5601F, size: 0x8, addend: 0x0, symName: __RINvMNtCs9f3LFPSIp77_4core6optionINtB3_6OptionINtNtCsdze8u8oDPro_5alloc5boxed3BoxNtNtCsATtFUPiRFW_3syn8generics12GenericParamEE3mapB1h_NCNvXs8_NtB1l_10punctuatedINtB2h_10PunctuatedB1h_NtNtB1l_5token5CommaENtNtNtNtB5_4iter6traits7collect12IntoIterator9into_iters_0ECsaQ2CmD7W1Vs_15zerocopy_derive, symObjAddr: 0x78, symBinAddr: 0x110FC, symSize: 0x78 }
  - { offset: 0x560B1, size: 0x8, addend: 0x0, symName: __RINvMNtCs9f3LFPSIp77_4core6optionINtB3_6OptionNtCs475r2uZUTuc_11proc_macro24SpanE14unwrap_or_elseNCNvMNtCsaQ2CmD7W1Vs_15zerocopy_derive4reprINtB1C_6ConfigNtB1C_10StructReprE14validate_reprss3_0EB1E_, symObjAddr: 0xF0, symBinAddr: 0x11174, symSize: 0x58 }
  - { offset: 0x56112, size: 0x8, addend: 0x0, symName: __RINvMNtCs9f3LFPSIp77_4core6optionINtB3_6OptionNtCs475r2uZUTuc_11proc_macro24SpanE14unwrap_or_elseNCNvMNtCsaQ2CmD7W1Vs_15zerocopy_derive4reprINtB1C_6ConfigNtB1C_10StructReprE14validate_reprss4_0EB1E_, symObjAddr: 0x148, symBinAddr: 0x111CC, symSize: 0x58 }
  - { offset: 0x56173, size: 0x8, addend: 0x0, symName: __RINvMNtCs9f3LFPSIp77_4core6optionINtB3_6OptionNtCs475r2uZUTuc_11proc_macro24SpanE14unwrap_or_elseNCNvMNtCsaQ2CmD7W1Vs_15zerocopy_derive4reprINtB1C_6ConfigNtB1C_8EnumReprE14validate_reprss3_0EB1E_, symObjAddr: 0x1A0, symBinAddr: 0x11224, symSize: 0x58 }
  - { offset: 0x561D4, size: 0x8, addend: 0x0, symName: __RINvMNtCs9f3LFPSIp77_4core6optionINtB3_6OptionNtCs475r2uZUTuc_11proc_macro24SpanE14unwrap_or_elseNCNvMNtCsaQ2CmD7W1Vs_15zerocopy_derive4reprINtB1C_6ConfigNtB1C_8EnumReprE14validate_reprss4_0EB1E_, symObjAddr: 0x1F8, symBinAddr: 0x1127C, symSize: 0x58 }
  - { offset: 0x56269, size: 0x8, addend: 0x0, symName: __RINvMNtCs9f3LFPSIp77_4core6optionINtB3_6OptionNtCsaQ2CmD7W1Vs_15zerocopy_derive12PaddingCheckE3mapNtNtCsATtFUPiRFW_3syn8generics14WherePredicateNCINvBK_10impl_blockNtNtB1C_6derive10DataStructEs0_0EBK_, symObjAddr: 0x250, symBinAddr: 0x112D4, symSize: 0xAC }
  - { offset: 0x562D3, size: 0x8, addend: 0x0, symName: __RINvMNtCs9f3LFPSIp77_4core6optionINtB3_6OptionNtCsaQ2CmD7W1Vs_15zerocopy_derive12PaddingCheckE3mapNtNtCsATtFUPiRFW_3syn8generics14WherePredicateNCINvBK_10impl_blockNtNtB1C_6derive8DataEnumEs0_0EBK_, symObjAddr: 0x2FC, symBinAddr: 0x11380, symSize: 0xAC }
  - { offset: 0x5633D, size: 0x8, addend: 0x0, symName: __RINvMNtCs9f3LFPSIp77_4core6optionINtB3_6OptionNtCsaQ2CmD7W1Vs_15zerocopy_derive12PaddingCheckE3mapNtNtCsATtFUPiRFW_3syn8generics14WherePredicateNCINvBK_10impl_blockNtNtB1C_6derive9DataUnionEs0_0EBK_, symObjAddr: 0x3A8, symBinAddr: 0x1142C, symSize: 0xAC }
  - { offset: 0x563A7, size: 0x8, addend: 0x0, symName: __RINvMNtCs9f3LFPSIp77_4core6optionINtB3_6OptionNtCsaQ2CmD7W1Vs_15zerocopy_derive12PaddingCheckE8and_thenBI_NCINvBK_10impl_blockNtNtCsATtFUPiRFW_3syn6derive10DataStructEs_0EBK_, symObjAddr: 0x454, symBinAddr: 0x114D8, symSize: 0x6C }
  - { offset: 0x56411, size: 0x8, addend: 0x0, symName: __RINvMNtCs9f3LFPSIp77_4core6optionINtB3_6OptionNtCsaQ2CmD7W1Vs_15zerocopy_derive12PaddingCheckE8and_thenBI_NCINvBK_10impl_blockNtNtCsATtFUPiRFW_3syn6derive8DataEnumEs_0EBK_, symObjAddr: 0x4C0, symBinAddr: 0x11544, symSize: 0x6C }
  - { offset: 0x5647B, size: 0x8, addend: 0x0, symName: __RINvMNtCs9f3LFPSIp77_4core6optionINtB3_6OptionNtCsaQ2CmD7W1Vs_15zerocopy_derive12PaddingCheckE8and_thenBI_NCINvBK_10impl_blockNtNtCsATtFUPiRFW_3syn6derive9DataUnionEs_0EBK_, symObjAddr: 0x52C, symBinAddr: 0x115B0, symSize: 0x6C }
  - { offset: 0x56570, size: 0x8, addend: 0x0, symName: __RINvMNtCs9f3LFPSIp77_4core6optionINtB3_6OptionRINtNtCsATtFUPiRFW_3syn10punctuated4IterNtNtBO_4data5FieldEE6map_orTjIBw_jEENvYBJ_NtNtNtNtB5_4iter6traits8iterator8Iterator9size_hintECsaQ2CmD7W1Vs_15zerocopy_derive, symObjAddr: 0x598, symBinAddr: 0x1161C, symSize: 0xAC }
  - { offset: 0x56605, size: 0x8, addend: 0x0, symName: __RINvMNtCs9f3LFPSIp77_4core6optionINtB3_6OptionRNtCs475r2uZUTuc_11proc_macro25IdentE10ok_or_elseNtNtCsATtFUPiRFW_3syn5error5ErrorNCNvMs_NtCsaQ2CmD7W1Vs_15zerocopy_derive4reprNtB29_4Repr9from_meta0EB2b_, symObjAddr: 0x644, symBinAddr: 0x116C8, symSize: 0x7C }
  - { offset: 0x5667D, size: 0x8, addend: 0x0, symName: __RINvMNtCs9f3LFPSIp77_4core6optionINtB3_6OptionRNtNtCsATtFUPiRFW_3syn4data7VariantE3mapbNCNvCsaQ2CmD7W1Vs_15zerocopy_derive23derive_from_zeroes_enums0_0EB1r_, symObjAddr: 0x6C0, symBinAddr: 0x11744, symSize: 0x54 }
  - { offset: 0x566F5, size: 0x8, addend: 0x0, symName: __RINvMNtCs9f3LFPSIp77_4core6optionINtB3_6OptionRNtNtCsATtFUPiRFW_3syn4data7VariantE7or_elseNCNvXsw_NtBN_10punctuatedINtB1y_11PrivateIterBJ_NtNtBN_5token5CommaENtNtNtNtB5_4iter6traits8iterator8Iterator4nexts_0ECsaQ2CmD7W1Vs_15zerocopy_derive, symObjAddr: 0x714, symBinAddr: 0x11798, symSize: 0xA8 }
  - { offset: 0x5677E, size: 0x8, addend: 0x0, symName: __RINvMNtCs9f3LFPSIp77_4core6optionINtB3_6OptionRNtNtCsATtFUPiRFW_3syn4data7VariantE7or_elseNCNvXsx_NtBN_10punctuatedINtB1y_11PrivateIterBJ_NtNtBN_5token5CommaENtNtNtNtB5_4iter6traits12double_ended19DoubleEndedIterator9next_back0ECsaQ2CmD7W1Vs_15zerocopy_derive, symObjAddr: 0x7BC, symBinAddr: 0x11840, symSize: 0xA8 }
  - { offset: 0x5681B, size: 0x8, addend: 0x0, symName: __RINvMNtCs9f3LFPSIp77_4core6optionINtB3_6OptionRNtNtCsATtFUPiRFW_3syn8generics11WhereClauseE3mapINtNtBN_10punctuated4IterNtBL_14WherePredicateENCINvCsaQ2CmD7W1Vs_15zerocopy_derive10impl_blockNtNtBN_6derive10DataStructEs1_0EB2l_, symObjAddr: 0x864, symBinAddr: 0x118E8, symSize: 0x58 }
  - { offset: 0x56886, size: 0x8, addend: 0x0, symName: __RINvMNtCs9f3LFPSIp77_4core6optionINtB3_6OptionRNtNtCsATtFUPiRFW_3syn8generics11WhereClauseE3mapINtNtBN_10punctuated4IterNtBL_14WherePredicateENCINvCsaQ2CmD7W1Vs_15zerocopy_derive10impl_blockNtNtBN_6derive8DataEnumEs1_0EB2l_, symObjAddr: 0x8BC, symBinAddr: 0x11940, symSize: 0x58 }
  - { offset: 0x568F1, size: 0x8, addend: 0x0, symName: __RINvMNtCs9f3LFPSIp77_4core6optionINtB3_6OptionRNtNtCsATtFUPiRFW_3syn8generics11WhereClauseE3mapINtNtBN_10punctuated4IterNtBL_14WherePredicateENCINvCsaQ2CmD7W1Vs_15zerocopy_derive10impl_blockNtNtBN_6derive9DataUnionEs1_0EB2l_, symObjAddr: 0x914, symBinAddr: 0x11998, symSize: 0x58 }
  - { offset: 0x56976, size: 0x8, addend: 0x0, symName: __RINvMNtCs9f3LFPSIp77_4core6optionINtB3_6OptionRNtNtCsATtFUPiRFW_3syn8generics14WherePredicateE7or_elseNCNvXs_NtNtNtB5_4iter8adapters5chainINtB1J_5ChainIB2d_IB2d_INtNtB1L_7flatten7FlattenINtB3_8IntoIterINtNtBN_10punctuated4IterBJ_EEEINtNtNtB5_5slice4iter4IterBJ_EEINtB3_4IterBJ_EEB4d_ENtNtNtB1N_6traits8iterator8Iterator4next0ECsaQ2CmD7W1Vs_15zerocopy_derive, symObjAddr: 0x96C, symBinAddr: 0x119F0, symSize: 0xA8 }
  - { offset: 0x569D8, size: 0x8, addend: 0x0, symName: __RINvMNtCs9f3LFPSIp77_4core6optionINtB3_6OptionRNtNtCsATtFUPiRFW_3syn8generics14WherePredicateE7or_elseNCNvXs_NtNtNtB5_4iter8adapters5chainINtB1J_5ChainIB2d_INtNtB1L_7flatten7FlattenINtB3_8IntoIterINtNtBN_10punctuated4IterBJ_EEEINtNtNtB5_5slice4iter4IterBJ_EEINtB3_4IterBJ_EENtNtNtB1N_6traits8iterator8Iterator4next0ECsaQ2CmD7W1Vs_15zerocopy_derive, symObjAddr: 0xA14, symBinAddr: 0x11A98, symSize: 0xA8 }
  - { offset: 0x56A54, size: 0x8, addend: 0x0, symName: __RINvMNtCs9f3LFPSIp77_4core6optionINtB3_6OptionRNtNtCsATtFUPiRFW_3syn8generics14WherePredicateE7or_elseNCNvXs_NtNtNtB5_4iter8adapters5chainINtB1J_5ChainINtNtB1L_7flatten7FlattenINtB3_8IntoIterINtNtBN_10punctuated4IterBJ_EEEINtNtNtB5_5slice4iter4IterBJ_EENtNtNtB1N_6traits8iterator8Iterator4next0ECsaQ2CmD7W1Vs_15zerocopy_derive, symObjAddr: 0xABC, symBinAddr: 0x11B40, symSize: 0xA8 }
  - { offset: 0x56AC3, size: 0x8, addend: 0x0, symName: __RINvMNtCs9f3LFPSIp77_4core6optionINtB3_6OptionRNtNtCsATtFUPiRFW_3syn8generics14WherePredicateE7or_elseNCNvXsw_NtBN_10punctuatedINtB1K_11PrivateIterBJ_NtNtBN_5token5CommaENtNtNtNtB5_4iter6traits8iterator8Iterator4nexts_0ECsaQ2CmD7W1Vs_15zerocopy_derive, symObjAddr: 0xB64, symBinAddr: 0x11BE8, symSize: 0xA8 }
  - { offset: 0x56B4C, size: 0x8, addend: 0x0, symName: __RINvMNtCs9f3LFPSIp77_4core6optionINtB3_6OptionRNtNtCsATtFUPiRFW_3syn8generics14WherePredicateE7or_elseNCNvXsx_NtBN_10punctuatedINtB1K_11PrivateIterBJ_NtNtBN_5token5CommaENtNtNtNtB5_4iter6traits12double_ended19DoubleEndedIterator9next_back0ECsaQ2CmD7W1Vs_15zerocopy_derive, symObjAddr: 0xC0C, symBinAddr: 0x11C90, symSize: 0xA8 }
  - { offset: 0x56BAE, size: 0x8, addend: 0x0, symName: __RINvMNtCs9f3LFPSIp77_4core6optionINtB3_6OptionRTNtNtCsATtFUPiRFW_3syn4data7VariantNtNtBO_5token5CommaEE3mapRBK_NCNCNvXsx_NtBO_10punctuatedINtB1V_11PrivateIterBK_B1i_ENtNtNtNtB5_4iter6traits12double_ended19DoubleEndedIterator9next_back00ECsaQ2CmD7W1Vs_15zerocopy_derive, symObjAddr: 0xCB4, symBinAddr: 0x11D38, symSize: 0x50 }
  - { offset: 0x56C19, size: 0x8, addend: 0x0, symName: __RINvMNtCs9f3LFPSIp77_4core6optionINtB3_6OptionRTNtNtCsATtFUPiRFW_3syn4data7VariantNtNtBO_5token5CommaEE3mapRBK_NCNvXsw_NtBO_10punctuatedINtB1T_11PrivateIterBK_B1i_ENtNtNtNtB5_4iter6traits8iterator8Iterator4next0ECsaQ2CmD7W1Vs_15zerocopy_derive, symObjAddr: 0xD04, symBinAddr: 0x11D88, symSize: 0x50 }
  - { offset: 0x56C84, size: 0x8, addend: 0x0, symName: __RINvMNtCs9f3LFPSIp77_4core6optionINtB3_6OptionRTNtNtCsATtFUPiRFW_3syn8generics14WherePredicateNtNtBO_5token5CommaEE3mapRBK_NCNCNvXsx_NtBO_10punctuatedINtB27_11PrivateIterBK_B1u_ENtNtNtNtB5_4iter6traits12double_ended19DoubleEndedIterator9next_back00ECsaQ2CmD7W1Vs_15zerocopy_derive, symObjAddr: 0xD54, symBinAddr: 0x11DD8, symSize: 0x50 }
  - { offset: 0x56CEF, size: 0x8, addend: 0x0, symName: __RINvMNtCs9f3LFPSIp77_4core6optionINtB3_6OptionRTNtNtCsATtFUPiRFW_3syn8generics14WherePredicateNtNtBO_5token5CommaEE3mapRBK_NCNvXsw_NtBO_10punctuatedINtB25_11PrivateIterBK_B1u_ENtNtNtNtB5_4iter6traits8iterator8Iterator4next0ECsaQ2CmD7W1Vs_15zerocopy_derive, symObjAddr: 0xDA4, symBinAddr: 0x11E28, symSize: 0x50 }
  - { offset: 0x56D67, size: 0x8, addend: 0x0, symName: __RINvMNtCs9f3LFPSIp77_4core6optionINtB3_6OptionRyE3mapNtCs475r2uZUTuc_11proc_macro211TokenStreamNCNvCsaQ2CmD7W1Vs_15zerocopy_derive19derive_known_layouts0_0EB1z_, symObjAddr: 0xDF4, symBinAddr: 0x11E78, symSize: 0x6C }
  - { offset: 0x56DD2, size: 0x8, addend: 0x0, symName: __RINvMNtCs9f3LFPSIp77_4core6optionINtB3_6OptionyE3mapNtCs475r2uZUTuc_11proc_macro211TokenStreamNCNvCsaQ2CmD7W1Vs_15zerocopy_derive19derive_known_layouts2_0EB1y_, symObjAddr: 0xE60, symBinAddr: 0x11EE4, symSize: 0x68 }
  - { offset: 0x56F65, size: 0x8, addend: 0x0, symName: __RINvMs0_NtCs9f3LFPSIp77_4core3fmtNtB6_9Arguments6new_v1Kj3_Kj2_ECsaQ2CmD7W1Vs_15zerocopy_derive, symObjAddr: 0xEC8, symBinAddr: 0x11F4C, symSize: 0x54 }
  - { offset: 0x572A3, size: 0x8, addend: 0x0, symName: __RINvMs3_NtNtCsjLJ1XWNSM6u_10proc_macro6bridge6bufferNtB6_6Buffer17extend_from_arrayKj4_ECsaQ2CmD7W1Vs_15zerocopy_derive, symObjAddr: 0xF1C, symBinAddr: 0x11FA0, symSize: 0x210 }
  - { offset: 0x57915, size: 0x8, addend: 0x0, symName: __RINvMs3_NtNtCsjLJ1XWNSM6u_10proc_macro6bridge6bufferNtB6_6Buffer17extend_from_arrayKj8_ECsaQ2CmD7W1Vs_15zerocopy_derive, symObjAddr: 0x112C, symBinAddr: 0x121B0, symSize: 0x210 }
  - { offset: 0x58133, size: 0x8, addend: 0x0, symName: __RNvMNtCs9f3LFPSIp77_4core6optionINtB2_6OptionINtNtCsdze8u8oDPro_5alloc5boxed3BoxNtNtCsATtFUPiRFW_3syn4attr4MetaEE4takeCsaQ2CmD7W1Vs_15zerocopy_derive, symObjAddr: 0x27D4, symBinAddr: 0x13858, symSize: 0x2C }
  - { offset: 0x58208, size: 0x8, addend: 0x0, symName: __RNvMNtCs9f3LFPSIp77_4core6optionINtB2_6OptionINtNtCsdze8u8oDPro_5alloc5boxed3BoxNtNtCsATtFUPiRFW_3syn4attr4MetaEE7is_noneCsaQ2CmD7W1Vs_15zerocopy_derive, symObjAddr: 0x2800, symBinAddr: 0x13884, symSize: 0x4C }
  - { offset: 0x58252, size: 0x8, addend: 0x0, symName: __RNvMNtCs9f3LFPSIp77_4core6optionINtB2_6OptionINtNtCsdze8u8oDPro_5alloc5boxed3BoxNtNtCsATtFUPiRFW_3syn4attr4MetaEE7is_someCsaQ2CmD7W1Vs_15zerocopy_derive, symObjAddr: 0x284C, symBinAddr: 0x138D0, symSize: 0x48 }
  - { offset: 0x5827E, size: 0x8, addend: 0x0, symName: __RNvMNtCs9f3LFPSIp77_4core6optionINtB2_6OptionNtCs475r2uZUTuc_11proc_macro211TokenStreamE9unwrap_orCsaQ2CmD7W1Vs_15zerocopy_derive, symObjAddr: 0x2894, symBinAddr: 0x13918, symSize: 0x8C }
  - { offset: 0x58311, size: 0x8, addend: 0x0, symName: __RNvMNtCs9f3LFPSIp77_4core6optionINtB2_6OptionNtNtCsATtFUPiRFW_3syn8generics14WherePredicateE4iterCsaQ2CmD7W1Vs_15zerocopy_derive, symObjAddr: 0x2920, symBinAddr: 0x139A4, symSize: 0x4C }
  - { offset: 0x5838B, size: 0x8, addend: 0x0, symName: __RNvMNtCs9f3LFPSIp77_4core6optionINtB2_6OptionTNtNtCsATtFUPiRFW_3syn5token2EqNtNtBM_4expr4ExprEE6as_refCsaQ2CmD7W1Vs_15zerocopy_derive, symObjAddr: 0x296C, symBinAddr: 0x139F0, symSize: 0x4C }
  - { offset: 0x583F1, size: 0x8, addend: 0x0, symName: __RNvMNtCs9f3LFPSIp77_4core6optionINtB2_6OptionTNtNtCsATtFUPiRFW_3syn5token2EqNtNtBM_4expr4ExprEE7is_noneCsaQ2CmD7W1Vs_15zerocopy_derive, symObjAddr: 0x29B8, symBinAddr: 0x13A3C, symSize: 0x4C }
  - { offset: 0x585BB, size: 0x8, addend: 0x0, symName: __RNvMNtCsdze8u8oDPro_5alloc5allocNtB2_6Global10alloc_implCsaQ2CmD7W1Vs_15zerocopy_derive, symObjAddr: 0x2A04, symBinAddr: 0x13A88, symSize: 0x1BC }
  - { offset: 0x589D5, size: 0x8, addend: 0x0, symName: __RNvMNtNtNtCs9f3LFPSIp77_4core5slice4sort6stableINtB2_14AlignedStorageTNtNtCsATtFUPiRFW_3syn4attr4MetaNtNtCsaQ2CmD7W1Vs_15zerocopy_derive4repr10StructReprEKj1000_E19as_uninit_slice_mutB1F_, symObjAddr: 0x2BC0, symBinAddr: 0x13C44, symSize: 0x7C }
  - { offset: 0x58ABD, size: 0x8, addend: 0x0, symName: __RNvMNtNtNtCs9f3LFPSIp77_4core5slice4sort6stableINtB2_14AlignedStorageTNtNtCsATtFUPiRFW_3syn4attr4MetaNtNtCsaQ2CmD7W1Vs_15zerocopy_derive4repr8EnumReprEKj1000_E19as_uninit_slice_mutB1F_, symObjAddr: 0x2C3C, symBinAddr: 0x13CC0, symSize: 0x7C }
  - { offset: 0x58D9F, size: 0x8, addend: 0x0, symName: __RNvMs3_NtNtCsjLJ1XWNSM6u_10proc_macro6bridge6bufferNtB5_6Buffer17extend_from_sliceCsaQ2CmD7W1Vs_15zerocopy_derive, symObjAddr: 0x2CB8, symBinAddr: 0x13D3C, symSize: 0x208 }
  - { offset: 0x59409, size: 0x8, addend: 0x0, symName: __RNvMs3_NtNtCsjLJ1XWNSM6u_10proc_macro6bridge6bufferNtB5_6Buffer4pushCsaQ2CmD7W1Vs_15zerocopy_derive, symObjAddr: 0x2EC0, symBinAddr: 0x13F44, symSize: 0x1E0 }
  - { offset: 0x5981D, size: 0x8, addend: 0x0, symName: __RNvMs7_NtCs9f3LFPSIp77_4core3fmtNtB5_9Formatter9write_fmtCsaQ2CmD7W1Vs_15zerocopy_derive, symObjAddr: 0x30A0, symBinAddr: 0x14124, symSize: 0x1AC }
  - { offset: 0x59A2B, size: 0x8, addend: 0x0, symName: __RNvXNtCs62MdaZFMefA_5quote9to_tokensRNtCs475r2uZUTuc_11proc_macro211TokenStreamNtB2_8ToTokens9to_tokensCsaQ2CmD7W1Vs_15zerocopy_derive, symObjAddr: 0x3800, symBinAddr: 0x14884, symSize: 0x40 }
  - { offset: 0x59A6A, size: 0x8, addend: 0x0, symName: __RNvXNtCs62MdaZFMefA_5quote9to_tokensRNtCs475r2uZUTuc_11proc_macro25IdentNtB2_8ToTokens9to_tokensCsaQ2CmD7W1Vs_15zerocopy_derive, symObjAddr: 0x3840, symBinAddr: 0x148C4, symSize: 0x40 }
  - { offset: 0x59AA9, size: 0x8, addend: 0x0, symName: __RNvXNtCs62MdaZFMefA_5quote9to_tokensRRNtNtCsATtFUPiRFW_3syn2ty4TypeNtB2_8ToTokens9to_tokensCsaQ2CmD7W1Vs_15zerocopy_derive, symObjAddr: 0x3880, symBinAddr: 0x14904, symSize: 0x40 }
  - { offset: 0x59AEE, size: 0x8, addend: 0x0, symName: __RNvXs3_NtCs62MdaZFMefA_5quote9to_tokensINtNtCs9f3LFPSIp77_4core6option6OptionNtCs475r2uZUTuc_11proc_macro211TokenStreamENtB5_8ToTokens9to_tokensCsaQ2CmD7W1Vs_15zerocopy_derive, symObjAddr: 0x3B58, symBinAddr: 0x14BDC, symSize: 0x88 }
  - { offset: 0x59B50, size: 0x8, addend: 0x0, symName: __RNvYRNtCs475r2uZUTuc_11proc_macro211TokenStreamNtNtCs62MdaZFMefA_5quote9to_tokens8ToTokens15to_token_streamCsaQ2CmD7W1Vs_15zerocopy_derive, symObjAddr: 0x4FB8, symBinAddr: 0x1603C, symSize: 0x8C }
  - { offset: 0x59B9A, size: 0x8, addend: 0x0, symName: __RNvYRNtCs475r2uZUTuc_11proc_macro211TokenStreamNtNtCs62MdaZFMefA_5quote9to_tokens8ToTokens17into_token_streamCsaQ2CmD7W1Vs_15zerocopy_derive, symObjAddr: 0x5044, symBinAddr: 0x160C8, symSize: 0x54 }
  - { offset: 0x59BE0, size: 0x8, addend: 0x0, symName: __RNvXs2_NtNtCs62MdaZFMefA_5quote9___private3extSRNtNtCsATtFUPiRFW_3syn2ty4TypeNtB5_16RepAsIteratorExt15quote_into_iterCsaQ2CmD7W1Vs_15zerocopy_derive, symObjAddr: 0x3AE4, symBinAddr: 0x14B68, symSize: 0x38 }
  - { offset: 0x59C1C, size: 0x8, addend: 0x0, symName: __RNvXs4_NtCs62MdaZFMefA_5quote9___privateINtB5_9RepInterpNtCs475r2uZUTuc_11proc_macro211TokenStreamENtNtB7_9to_tokens8ToTokens9to_tokensCsaQ2CmD7W1Vs_15zerocopy_derive, symObjAddr: 0x3BE0, symBinAddr: 0x14C64, symSize: 0x3C }
  - { offset: 0x59C5B, size: 0x8, addend: 0x0, symName: __RNvXs4_NtCs62MdaZFMefA_5quote9___privateINtB5_9RepInterpRNtNtCsATtFUPiRFW_3syn8generics14WherePredicateENtNtB7_9to_tokens8ToTokens9to_tokensCsaQ2CmD7W1Vs_15zerocopy_derive, symObjAddr: 0x3C1C, symBinAddr: 0x14CA0, symSize: 0x3C }
  - { offset: 0x59C9A, size: 0x8, addend: 0x0, symName: __RNvXs4_NtCs62MdaZFMefA_5quote9___privateINtB5_9RepInterpRRNtNtCsATtFUPiRFW_3syn2ty4TypeENtNtB7_9to_tokens8ToTokens9to_tokensCsaQ2CmD7W1Vs_15zerocopy_derive, symObjAddr: 0x3C58, symBinAddr: 0x14CDC, symSize: 0x3C }
  - { offset: 0x5A795, size: 0x8, addend: 0x0, symName: __RINvMNtCs9f3LFPSIp77_4core6resultINtB3_6ResultjNtNtNtB5_3num5error13ParseIntErrorE7map_errNtNtCsATtFUPiRFW_3syn5error5ErrorNCINvMs3_NtB1u_3litNtB26_6LitInt12base10_parsejE0ECsaQ2CmD7W1Vs_15zerocopy_derive, symObjAddr: 0x0, symBinAddr: 0x1611C, symSize: 0x84 }
  - { offset: 0x5A95D, size: 0x8, addend: 0x0, symName: __RNCNvXs1_NtNtNtCs27l1GJC5rMQ_3std2io5error14repr_bitpackedNtB7_4ReprNtNtNtCs9f3LFPSIp77_4core3ops4drop4Drop4drop0CsaQ2CmD7W1Vs_15zerocopy_derive, symObjAddr: 0x3E3C, symBinAddr: 0x19F30, symSize: 0x34 }
  - { offset: 0x5AA12, size: 0x8, addend: 0x0, symName: __RNvXs1_NtNtNtCs27l1GJC5rMQ_3std2io5error14repr_bitpackedNtB5_4ReprNtNtNtCs9f3LFPSIp77_4core3ops4drop4Drop4dropCsaQ2CmD7W1Vs_15zerocopy_derive, symObjAddr: 0x5E3C, symBinAddr: 0x1BF30, symSize: 0x38 }
  - { offset: 0x5AA3B, size: 0x8, addend: 0x0, symName: __RINvNtNtNtCs27l1GJC5rMQ_3std2io5error14repr_bitpacked11decode_reprINtNtCsdze8u8oDPro_5alloc5boxed3BoxNtB4_6CustomENCNvXs1_B2_NtB2_4ReprNtNtNtCs9f3LFPSIp77_4core3ops4drop4Drop4drop0ECsaQ2CmD7W1Vs_15zerocopy_derive, symObjAddr: 0x2BC4, symBinAddr: 0x18CE0, symSize: 0x234 }
  - { offset: 0x5AD04, size: 0x8, addend: 0x0, symName: __RNvNtNtNtCs27l1GJC5rMQ_3std2io5error14repr_bitpacked14kind_from_primCsaQ2CmD7W1Vs_15zerocopy_derive, symObjAddr: 0x48AC, symBinAddr: 0x1A9A0, symSize: 0x608 }
  - { offset: 0x5B7E4, size: 0x8, addend: 0x0, symName: __RINvNtCs9f3LFPSIp77_4core3cmp6max_byNtNtCsaQ2CmD7W1Vs_15zerocopy_derive4repr10StructReprNvYBy_NtB2_3Ord3cmpEBC_, symObjAddr: 0x534, symBinAddr: 0x16650, symSize: 0xD8 }
  - { offset: 0x5B842, size: 0x8, addend: 0x0, symName: __RINvNtCs9f3LFPSIp77_4core3cmp6max_byNtNtCsaQ2CmD7W1Vs_15zerocopy_derive4repr4ReprNvYBy_NtB2_3Ord3cmpEBC_, symObjAddr: 0x60C, symBinAddr: 0x16728, symSize: 0xD8 }
  - { offset: 0x5B8A0, size: 0x8, addend: 0x0, symName: __RINvNtCs9f3LFPSIp77_4core3cmp6max_byNtNtCsaQ2CmD7W1Vs_15zerocopy_derive4repr8EnumReprNvYBy_NtB2_3Ord3cmpEBC_, symObjAddr: 0x6E4, symBinAddr: 0x16800, symSize: 0xD8 }
  - { offset: 0x5B8FE, size: 0x8, addend: 0x0, symName: __RINvNtCs9f3LFPSIp77_4core3cmp6min_byNtNtCsaQ2CmD7W1Vs_15zerocopy_derive4repr10StructReprNvYBy_NtB2_3Ord3cmpEBC_, symObjAddr: 0x7BC, symBinAddr: 0x168D8, symSize: 0xE0 }
  - { offset: 0x5B95C, size: 0x8, addend: 0x0, symName: __RINvNtCs9f3LFPSIp77_4core3cmp6min_byNtNtCsaQ2CmD7W1Vs_15zerocopy_derive4repr4ReprNvYBy_NtB2_3Ord3cmpEBC_, symObjAddr: 0x89C, symBinAddr: 0x169B8, symSize: 0xE0 }
  - { offset: 0x5B9BA, size: 0x8, addend: 0x0, symName: __RINvNtCs9f3LFPSIp77_4core3cmp6min_byNtNtCsaQ2CmD7W1Vs_15zerocopy_derive4repr8EnumReprNvYBy_NtB2_3Ord3cmpEBC_, symObjAddr: 0x97C, symBinAddr: 0x16A98, symSize: 0xE0 }
  - { offset: 0x5C31B, size: 0x8, addend: 0x0, symName: __RINvNtCs9f3LFPSIp77_4core3ptr13drop_in_placeDNtNtB4_5error5ErrorNtNtB4_6marker4SendNtB12_4SyncEL_ECsaQ2CmD7W1Vs_15zerocopy_derive, symObjAddr: 0xA5C, symBinAddr: 0x16B78, symSize: 0x48 }
  - { offset: 0x5C34A, size: 0x8, addend: 0x0, symName: __RINvNtCs9f3LFPSIp77_4core3ptr13drop_in_placeINtNtB4_4cell10UnsafeCellNtNtNtCsjLJ1XWNSM6u_10proc_macro6bridge6client6BridgeEECsaQ2CmD7W1Vs_15zerocopy_derive, symObjAddr: 0xAA4, symBinAddr: 0x16BC0, symSize: 0x24 }
  - { offset: 0x5C379, size: 0x8, addend: 0x0, symName: __RINvNtCs9f3LFPSIp77_4core3ptr13drop_in_placeINtNtB4_4cell7RefCellNtNtNtCsjLJ1XWNSM6u_10proc_macro6bridge6client6BridgeEECsaQ2CmD7W1Vs_15zerocopy_derive, symObjAddr: 0xAC8, symBinAddr: 0x16BE4, symSize: 0x24 }
  - { offset: 0x5C3A8, size: 0x8, addend: 0x0, symName: __RINvNtCs9f3LFPSIp77_4core3ptr13drop_in_placeINtNtB4_6option4ItemINtNtCsATtFUPiRFW_3syn10punctuated4IterNtNtB15_8generics14WherePredicateEEECsaQ2CmD7W1Vs_15zerocopy_derive, symObjAddr: 0xAEC, symBinAddr: 0x16C08, symSize: 0x24 }
  - { offset: 0x5C3D7, size: 0x8, addend: 0x0, symName: __RINvNtCs9f3LFPSIp77_4core3ptr13drop_in_placeINtNtB4_6option4ItemNtNtCsATtFUPiRFW_3syn4attr4MetaEECsaQ2CmD7W1Vs_15zerocopy_derive, symObjAddr: 0xB10, symBinAddr: 0x16C2C, symSize: 0x24 }
  - { offset: 0x5C406, size: 0x8, addend: 0x0, symName: __RINvNtCs9f3LFPSIp77_4core3ptr13drop_in_placeINtNtB4_6option4ItemNtNtCsATtFUPiRFW_3syn8generics12GenericParamEECsaQ2CmD7W1Vs_15zerocopy_derive, symObjAddr: 0xB34, symBinAddr: 0x16C50, symSize: 0x24 }
  - { offset: 0x5C435, size: 0x8, addend: 0x0, symName: __RINvNtCs9f3LFPSIp77_4core3ptr13drop_in_placeINtNtB4_6option6OptionINtBJ_8IntoIterINtNtCsATtFUPiRFW_3syn10punctuated4IterNtNtB1m_8generics14WherePredicateEEEECsaQ2CmD7W1Vs_15zerocopy_derive, symObjAddr: 0xB58, symBinAddr: 0x16C74, symSize: 0x40 }
  - { offset: 0x5C464, size: 0x8, addend: 0x0, symName: __RINvNtCs9f3LFPSIp77_4core3ptr13drop_in_placeINtNtB4_6option6OptionINtNtCsATtFUPiRFW_3syn10punctuated4IterNtNtB17_4data5FieldEEECsaQ2CmD7W1Vs_15zerocopy_derive, symObjAddr: 0xB98, symBinAddr: 0x16CB4, symSize: 0x44 }
  - { offset: 0x5C493, size: 0x8, addend: 0x0, symName: __RINvNtCs9f3LFPSIp77_4core3ptr13drop_in_placeINtNtB4_6option6OptionINtNtCsATtFUPiRFW_3syn10punctuated4IterNtNtB17_8generics14WherePredicateEEECsaQ2CmD7W1Vs_15zerocopy_derive, symObjAddr: 0xBDC, symBinAddr: 0x16CF8, symSize: 0x44 }
  - { offset: 0x5C4C2, size: 0x8, addend: 0x0, symName: __RINvNtCs9f3LFPSIp77_4core3ptr13drop_in_placeINtNtB4_6option6OptionINtNtCsdze8u8oDPro_5alloc3vec3VecTNtNtCsATtFUPiRFW_3syn4attr4MetaNtNtCsaQ2CmD7W1Vs_15zerocopy_derive4repr4ReprEEEEB29_, symObjAddr: 0xC20, symBinAddr: 0x16D3C, symSize: 0x48 }
  - { offset: 0x5C4F1, size: 0x8, addend: 0x0, symName: __RINvNtCs9f3LFPSIp77_4core3ptr13drop_in_placeINtNtB4_6option6OptionINtNtCsdze8u8oDPro_5alloc5boxed3BoxNtNtCsATtFUPiRFW_3syn4attr4MetaEEECsaQ2CmD7W1Vs_15zerocopy_derive, symObjAddr: 0xC68, symBinAddr: 0x16D84, symSize: 0x44 }
  - { offset: 0x5C520, size: 0x8, addend: 0x0, symName: __RINvNtCs9f3LFPSIp77_4core3ptr13drop_in_placeINtNtB4_6option6OptionINtNtNtNtB4_4iter8adapters3map3MapINtNtCsATtFUPiRFW_3syn10punctuated4IterNtNtB1F_4data7VariantENCNvXs0_NtCsaQ2CmD7W1Vs_15zerocopy_derive3extNtNtB1F_6derive8DataEnumNtB2H_7DataExt11field_types0EEEB2J_, symObjAddr: 0xCAC, symBinAddr: 0x16DC8, symSize: 0x44 }
  - { offset: 0x5C54F, size: 0x8, addend: 0x0, symName: __RINvNtCs9f3LFPSIp77_4core3ptr13drop_in_placeINtNtB4_6option6OptionINtNtNtNtB4_4iter8adapters5chain5ChainIB13_INtNtB17_7flatten7FlattenINtBJ_8IntoIterINtNtCsATtFUPiRFW_3syn10punctuated4IterNtNtB2s_8generics14WherePredicateEEEINtNtNtB4_5slice4iter4IterB30_EEINtBJ_4IterB30_EEEECsaQ2CmD7W1Vs_15zerocopy_derive, symObjAddr: 0xCF0, symBinAddr: 0x16E0C, symSize: 0x44 }
  - { offset: 0x5C57E, size: 0x8, addend: 0x0, symName: __RINvNtCs9f3LFPSIp77_4core3ptr13drop_in_placeINtNtB4_6option6OptionINtNtNtNtB4_4iter8adapters5chain5ChainINtNtB17_7flatten7FlattenINtBJ_8IntoIterINtNtCsATtFUPiRFW_3syn10punctuated4IterNtNtB2n_8generics14WherePredicateEEEINtNtNtB4_5slice4iter4IterB2V_EEEECsaQ2CmD7W1Vs_15zerocopy_derive, symObjAddr: 0xD34, symBinAddr: 0x16E50, symSize: 0x44 }
  - { offset: 0x5C5AD, size: 0x8, addend: 0x0, symName: __RINvNtCs9f3LFPSIp77_4core3ptr13drop_in_placeINtNtB4_6option6OptionINtNtNtNtB4_4iter8adapters7flatten7FlattenINtBJ_8IntoIterINtNtCsATtFUPiRFW_3syn10punctuated4IterNtNtB22_8generics14WherePredicateEEEEECsaQ2CmD7W1Vs_15zerocopy_derive, symObjAddr: 0xD78, symBinAddr: 0x16E94, symSize: 0x44 }
  - { offset: 0x5C5DC, size: 0x8, addend: 0x0, symName: __RINvNtCs9f3LFPSIp77_4core3ptr13drop_in_placeINtNtB4_6option6OptionNtNtCsATtFUPiRFW_3syn4attr4MetaEECsaQ2CmD7W1Vs_15zerocopy_derive, symObjAddr: 0xDBC, symBinAddr: 0x16ED8, symSize: 0x44 }
  - { offset: 0x5C60B, size: 0x8, addend: 0x0, symName: __RINvNtCs9f3LFPSIp77_4core3ptr13drop_in_placeINtNtB4_6option6OptionNtNtCsATtFUPiRFW_3syn8generics12GenericParamEECsaQ2CmD7W1Vs_15zerocopy_derive, symObjAddr: 0xE00, symBinAddr: 0x16F1C, symSize: 0x44 }
  - { offset: 0x5C63A, size: 0x8, addend: 0x0, symName: __RINvNtCs9f3LFPSIp77_4core3ptr13drop_in_placeINtNtB4_6option6OptionNtNtCsATtFUPiRFW_3syn8generics14WherePredicateEECsaQ2CmD7W1Vs_15zerocopy_derive, symObjAddr: 0xE44, symBinAddr: 0x16F60, symSize: 0x44 }
  - { offset: 0x5C669, size: 0x8, addend: 0x0, symName: __RINvNtCs9f3LFPSIp77_4core3ptr13drop_in_placeINtNtB4_6option8IntoIterINtNtCsATtFUPiRFW_3syn10punctuated4IterNtNtB19_8generics14WherePredicateEEECsaQ2CmD7W1Vs_15zerocopy_derive, symObjAddr: 0xE88, symBinAddr: 0x16FA4, symSize: 0x24 }
  - { offset: 0x5C698, size: 0x8, addend: 0x0, symName: __RINvNtCs9f3LFPSIp77_4core3ptr13drop_in_placeINtNtB4_6option8IntoIterNtNtCsATtFUPiRFW_3syn4attr4MetaEECsaQ2CmD7W1Vs_15zerocopy_derive, symObjAddr: 0xEAC, symBinAddr: 0x16FC8, symSize: 0x24 }
  - { offset: 0x5C6C7, size: 0x8, addend: 0x0, symName: __RINvNtCs9f3LFPSIp77_4core3ptr13drop_in_placeINtNtB4_6option8IntoIterNtNtCsATtFUPiRFW_3syn8generics12GenericParamEECsaQ2CmD7W1Vs_15zerocopy_derive, symObjAddr: 0xED0, symBinAddr: 0x16FEC, symSize: 0x24 }
  - { offset: 0x5C6F6, size: 0x8, addend: 0x0, symName: __RINvNtCs9f3LFPSIp77_4core3ptr13drop_in_placeINtNtB4_6result6ResultINtNtCsATtFUPiRFW_3syn10punctuated10PunctuatedNtNtB17_4attr4MetaNtNtB17_5token5CommaENtNtB17_5error5ErrorEECsaQ2CmD7W1Vs_15zerocopy_derive, symObjAddr: 0xEF4, symBinAddr: 0x17010, symSize: 0x5C }
  - { offset: 0x5C725, size: 0x8, addend: 0x0, symName: __RINvNtCs9f3LFPSIp77_4core3ptr13drop_in_placeINtNtB4_6result6ResultjNtNtCsATtFUPiRFW_3syn5error5ErrorEECsaQ2CmD7W1Vs_15zerocopy_derive, symObjAddr: 0xF50, symBinAddr: 0x1706C, symSize: 0x48 }
  - { offset: 0x5C754, size: 0x8, addend: 0x0, symName: __RINvNtCs9f3LFPSIp77_4core3ptr13drop_in_placeINtNtCs62MdaZFMefA_5quote9___private9RepInterpNtCs475r2uZUTuc_11proc_macro211TokenStreamEECsaQ2CmD7W1Vs_15zerocopy_derive, symObjAddr: 0xF98, symBinAddr: 0x170B4, symSize: 0x24 }
  - { offset: 0x5C783, size: 0x8, addend: 0x0, symName: __RINvNtCs9f3LFPSIp77_4core3ptr13drop_in_placeINtNtCsATtFUPiRFW_3syn10punctuated10PunctuatedNtNtBL_4attr4MetaNtNtBL_5token5CommaEECsaQ2CmD7W1Vs_15zerocopy_derive, symObjAddr: 0xFBC, symBinAddr: 0x170D8, symSize: 0x60 }
  - { offset: 0x5C7B2, size: 0x8, addend: 0x0, symName: __RINvNtCs9f3LFPSIp77_4core3ptr13drop_in_placeINtNtCsATtFUPiRFW_3syn10punctuated11PrivateIterNtNtBL_4data7VariantNtNtBL_5token5CommaEECsaQ2CmD7W1Vs_15zerocopy_derive, symObjAddr: 0x101C, symBinAddr: 0x17138, symSize: 0x10 }
  - { offset: 0x5C7E1, size: 0x8, addend: 0x0, symName: __RINvNtCs9f3LFPSIp77_4core3ptr13drop_in_placeINtNtCsATtFUPiRFW_3syn10punctuated11PrivateIterNtNtBL_8generics14WherePredicateNtNtBL_5token5CommaEECsaQ2CmD7W1Vs_15zerocopy_derive, symObjAddr: 0x102C, symBinAddr: 0x17148, symSize: 0x10 }
  - { offset: 0x5C810, size: 0x8, addend: 0x0, symName: __RINvNtCs9f3LFPSIp77_4core3ptr13drop_in_placeINtNtCsATtFUPiRFW_3syn10punctuated4IterNtNtBL_4data7VariantEECsaQ2CmD7W1Vs_15zerocopy_derive, symObjAddr: 0x103C, symBinAddr: 0x17158, symSize: 0x24 }
  - { offset: 0x5C83F, size: 0x8, addend: 0x0, symName: __RINvNtCs9f3LFPSIp77_4core3ptr13drop_in_placeINtNtCsATtFUPiRFW_3syn10punctuated4IterNtNtBL_8generics14WherePredicateEECsaQ2CmD7W1Vs_15zerocopy_derive, symObjAddr: 0x1060, symBinAddr: 0x1717C, symSize: 0x24 }
  - { offset: 0x5C86E, size: 0x8, addend: 0x0, symName: __RINvNtCs9f3LFPSIp77_4core3ptr13drop_in_placeINtNtCsATtFUPiRFW_3syn10punctuated8IntoIterNtNtBL_4attr4MetaEECsaQ2CmD7W1Vs_15zerocopy_derive, symObjAddr: 0x1084, symBinAddr: 0x171A0, symSize: 0x24 }
  - { offset: 0x5C89D, size: 0x8, addend: 0x0, symName: __RINvNtCs9f3LFPSIp77_4core3ptr13drop_in_placeINtNtCsATtFUPiRFW_3syn10punctuated8IntoIterNtNtBL_8generics12GenericParamEECsaQ2CmD7W1Vs_15zerocopy_derive, symObjAddr: 0x10A8, symBinAddr: 0x171C4, symSize: 0x24 }
  - { offset: 0x5C8CC, size: 0x8, addend: 0x0, symName: __RINvNtCs9f3LFPSIp77_4core3ptr13drop_in_placeINtNtCsdze8u8oDPro_5alloc3vec3VecNtNtCsATtFUPiRFW_3syn4attr4MetaEECsaQ2CmD7W1Vs_15zerocopy_derive, symObjAddr: 0x10CC, symBinAddr: 0x171E8, symSize: 0x5C }
  - { offset: 0x5C8FB, size: 0x8, addend: 0x0, symName: __RINvNtCs9f3LFPSIp77_4core3ptr13drop_in_placeINtNtCsdze8u8oDPro_5alloc3vec3VecNtNtCsATtFUPiRFW_3syn5error5ErrorEECsaQ2CmD7W1Vs_15zerocopy_derive, symObjAddr: 0x1128, symBinAddr: 0x17244, symSize: 0x5C }
  - { offset: 0x5C92A, size: 0x8, addend: 0x0, symName: __RINvNtCs9f3LFPSIp77_4core3ptr13drop_in_placeINtNtCsdze8u8oDPro_5alloc3vec3VecNtNtCsATtFUPiRFW_3syn8generics12GenericParamEECsaQ2CmD7W1Vs_15zerocopy_derive, symObjAddr: 0x1184, symBinAddr: 0x172A0, symSize: 0x5C }
  - { offset: 0x5C959, size: 0x8, addend: 0x0, symName: __RINvNtCs9f3LFPSIp77_4core3ptr13drop_in_placeINtNtCsdze8u8oDPro_5alloc3vec3VecNtNtCsATtFUPiRFW_3syn8generics14WherePredicateEECsaQ2CmD7W1Vs_15zerocopy_derive, symObjAddr: 0x11E0, symBinAddr: 0x172FC, symSize: 0x5C }
  - { offset: 0x5C988, size: 0x8, addend: 0x0, symName: __RINvNtCs9f3LFPSIp77_4core3ptr13drop_in_placeINtNtCsdze8u8oDPro_5alloc3vec3VecNtNtCsaQ2CmD7W1Vs_15zerocopy_derive4repr10StructReprEEB1h_, symObjAddr: 0x123C, symBinAddr: 0x17358, symSize: 0x5C }
  - { offset: 0x5C9B7, size: 0x8, addend: 0x0, symName: __RINvNtCs9f3LFPSIp77_4core3ptr13drop_in_placeINtNtCsdze8u8oDPro_5alloc3vec3VecNtNtCsaQ2CmD7W1Vs_15zerocopy_derive4repr8EnumReprEEB1h_, symObjAddr: 0x1298, symBinAddr: 0x173B4, symSize: 0x5C }
  - { offset: 0x5C9E6, size: 0x8, addend: 0x0, symName: __RINvNtCs9f3LFPSIp77_4core3ptr13drop_in_placeINtNtCsdze8u8oDPro_5alloc3vec3VecRNtNtCsATtFUPiRFW_3syn2ty4TypeEECsaQ2CmD7W1Vs_15zerocopy_derive, symObjAddr: 0x12F4, symBinAddr: 0x17410, symSize: 0x5C }
  - { offset: 0x5CA15, size: 0x8, addend: 0x0, symName: __RINvNtCs9f3LFPSIp77_4core3ptr13drop_in_placeINtNtCsdze8u8oDPro_5alloc3vec3VecTNtNtCsATtFUPiRFW_3syn4attr4MetaNtNtB1i_5token5CommaEEECsaQ2CmD7W1Vs_15zerocopy_derive, symObjAddr: 0x1350, symBinAddr: 0x1746C, symSize: 0x5C }
  - { offset: 0x5CA44, size: 0x8, addend: 0x0, symName: __RINvNtCs9f3LFPSIp77_4core3ptr13drop_in_placeINtNtCsdze8u8oDPro_5alloc3vec3VecTNtNtCsATtFUPiRFW_3syn4attr4MetaNtNtCsaQ2CmD7W1Vs_15zerocopy_derive4repr10StructReprEEEB1N_, symObjAddr: 0x13AC, symBinAddr: 0x174C8, symSize: 0x5C }
  - { offset: 0x5CA73, size: 0x8, addend: 0x0, symName: __RINvNtCs9f3LFPSIp77_4core3ptr13drop_in_placeINtNtCsdze8u8oDPro_5alloc3vec3VecTNtNtCsATtFUPiRFW_3syn4attr4MetaNtNtCsaQ2CmD7W1Vs_15zerocopy_derive4repr4ReprEEEB1N_, symObjAddr: 0x1408, symBinAddr: 0x17524, symSize: 0x5C }
  - { offset: 0x5CAA2, size: 0x8, addend: 0x0, symName: __RINvNtCs9f3LFPSIp77_4core3ptr13drop_in_placeINtNtCsdze8u8oDPro_5alloc3vec3VecTNtNtCsATtFUPiRFW_3syn4attr4MetaNtNtCsaQ2CmD7W1Vs_15zerocopy_derive4repr8EnumReprEEEB1N_, symObjAddr: 0x1464, symBinAddr: 0x17580, symSize: 0x5C }
  - { offset: 0x5CAD1, size: 0x8, addend: 0x0, symName: __RINvNtCs9f3LFPSIp77_4core3ptr13drop_in_placeINtNtCsdze8u8oDPro_5alloc5boxed3BoxDNtNtB4_5error5ErrorNtNtB4_6marker4SendNtB1B_4SyncEL_EECsaQ2CmD7W1Vs_15zerocopy_derive, symObjAddr: 0x14C0, symBinAddr: 0x175DC, symSize: 0x80 }
  - { offset: 0x5CB00, size: 0x8, addend: 0x0, symName: __RINvNtCs9f3LFPSIp77_4core3ptr13drop_in_placeINtNtCsdze8u8oDPro_5alloc5boxed3BoxINtNtCsATtFUPiRFW_3syn5drops6NoDropDINtNtB1k_10punctuated9IterTraitNtNtB1k_4data7VariantEp4ItemRB2k_EL_EEECsaQ2CmD7W1Vs_15zerocopy_derive, symObjAddr: 0x1540, symBinAddr: 0x1765C, symSize: 0x2C }
  - { offset: 0x5CB2F, size: 0x8, addend: 0x0, symName: __RINvNtCs9f3LFPSIp77_4core3ptr13drop_in_placeINtNtCsdze8u8oDPro_5alloc5boxed3BoxINtNtCsATtFUPiRFW_3syn5drops6NoDropDINtNtB1k_10punctuated9IterTraitNtNtB1k_8generics14WherePredicateEp4ItemRB2k_EL_EEECsaQ2CmD7W1Vs_15zerocopy_derive, symObjAddr: 0x156C, symBinAddr: 0x17688, symSize: 0x2C }
  - { offset: 0x5CB5E, size: 0x8, addend: 0x0, symName: __RINvNtCs9f3LFPSIp77_4core3ptr13drop_in_placeINtNtCsdze8u8oDPro_5alloc5boxed3BoxNtNtCsATtFUPiRFW_3syn4attr4MetaEECsaQ2CmD7W1Vs_15zerocopy_derive, symObjAddr: 0x1598, symBinAddr: 0x176B4, symSize: 0x60 }
  - { offset: 0x5CB8D, size: 0x8, addend: 0x0, symName: __RINvNtCs9f3LFPSIp77_4core3ptr13drop_in_placeINtNtCsdze8u8oDPro_5alloc5boxed3BoxNtNtNtCs27l1GJC5rMQ_3std2io5error6CustomEECsaQ2CmD7W1Vs_15zerocopy_derive, symObjAddr: 0x15F8, symBinAddr: 0x17714, symSize: 0x60 }
  - { offset: 0x5CBBC, size: 0x8, addend: 0x0, symName: __RINvNtCs9f3LFPSIp77_4core3ptr13drop_in_placeINtNtCsdze8u8oDPro_5alloc7raw_vec6RawVecNtNtCsATtFUPiRFW_3syn4attr4MetaEECsaQ2CmD7W1Vs_15zerocopy_derive, symObjAddr: 0x1658, symBinAddr: 0x17774, symSize: 0x24 }
  - { offset: 0x5CBEB, size: 0x8, addend: 0x0, symName: __RINvNtCs9f3LFPSIp77_4core3ptr13drop_in_placeINtNtCsdze8u8oDPro_5alloc7raw_vec6RawVecNtNtCsATtFUPiRFW_3syn5error5ErrorEECsaQ2CmD7W1Vs_15zerocopy_derive, symObjAddr: 0x167C, symBinAddr: 0x17798, symSize: 0x24 }
  - { offset: 0x5CC1A, size: 0x8, addend: 0x0, symName: __RINvNtCs9f3LFPSIp77_4core3ptr13drop_in_placeINtNtCsdze8u8oDPro_5alloc7raw_vec6RawVecNtNtCsATtFUPiRFW_3syn8generics12GenericParamEECsaQ2CmD7W1Vs_15zerocopy_derive, symObjAddr: 0x16A0, symBinAddr: 0x177BC, symSize: 0x24 }
  - { offset: 0x5CC49, size: 0x8, addend: 0x0, symName: __RINvNtCs9f3LFPSIp77_4core3ptr13drop_in_placeINtNtCsdze8u8oDPro_5alloc7raw_vec6RawVecNtNtCsATtFUPiRFW_3syn8generics14WherePredicateEECsaQ2CmD7W1Vs_15zerocopy_derive, symObjAddr: 0x16C4, symBinAddr: 0x177E0, symSize: 0x24 }
  - { offset: 0x5CC78, size: 0x8, addend: 0x0, symName: __RINvNtCs9f3LFPSIp77_4core3ptr13drop_in_placeINtNtCsdze8u8oDPro_5alloc7raw_vec6RawVecNtNtCsaQ2CmD7W1Vs_15zerocopy_derive4repr10StructReprEEB1o_, symObjAddr: 0x16E8, symBinAddr: 0x17804, symSize: 0x24 }
  - { offset: 0x5CCA7, size: 0x8, addend: 0x0, symName: __RINvNtCs9f3LFPSIp77_4core3ptr13drop_in_placeINtNtCsdze8u8oDPro_5alloc7raw_vec6RawVecNtNtCsaQ2CmD7W1Vs_15zerocopy_derive4repr8EnumReprEEB1o_, symObjAddr: 0x170C, symBinAddr: 0x17828, symSize: 0x24 }
  - { offset: 0x5CCD6, size: 0x8, addend: 0x0, symName: __RINvNtCs9f3LFPSIp77_4core3ptr13drop_in_placeINtNtCsdze8u8oDPro_5alloc7raw_vec6RawVecRNtNtCsATtFUPiRFW_3syn2ty4TypeEECsaQ2CmD7W1Vs_15zerocopy_derive, symObjAddr: 0x1730, symBinAddr: 0x1784C, symSize: 0x24 }
  - { offset: 0x5CD05, size: 0x8, addend: 0x0, symName: __RINvNtCs9f3LFPSIp77_4core3ptr13drop_in_placeINtNtCsdze8u8oDPro_5alloc7raw_vec6RawVecTNtNtCsATtFUPiRFW_3syn4attr4MetaNtNtB1p_5token5CommaEEECsaQ2CmD7W1Vs_15zerocopy_derive, symObjAddr: 0x1754, symBinAddr: 0x17870, symSize: 0x24 }
  - { offset: 0x5CD34, size: 0x8, addend: 0x0, symName: __RINvNtCs9f3LFPSIp77_4core3ptr13drop_in_placeINtNtCsdze8u8oDPro_5alloc7raw_vec6RawVecTNtNtCsATtFUPiRFW_3syn4attr4MetaNtNtCsaQ2CmD7W1Vs_15zerocopy_derive4repr10StructReprEEEB1U_, symObjAddr: 0x1778, symBinAddr: 0x17894, symSize: 0x24 }
  - { offset: 0x5CD63, size: 0x8, addend: 0x0, symName: __RINvNtCs9f3LFPSIp77_4core3ptr13drop_in_placeINtNtCsdze8u8oDPro_5alloc7raw_vec6RawVecTNtNtCsATtFUPiRFW_3syn4attr4MetaNtNtCsaQ2CmD7W1Vs_15zerocopy_derive4repr4ReprEEEB1U_, symObjAddr: 0x179C, symBinAddr: 0x178B8, symSize: 0x24 }
  - { offset: 0x5CD92, size: 0x8, addend: 0x0, symName: __RINvNtCs9f3LFPSIp77_4core3ptr13drop_in_placeINtNtCsdze8u8oDPro_5alloc7raw_vec6RawVecTNtNtCsATtFUPiRFW_3syn4attr4MetaNtNtCsaQ2CmD7W1Vs_15zerocopy_derive4repr8EnumReprEEEB1U_, symObjAddr: 0x17C0, symBinAddr: 0x178DC, symSize: 0x24 }
  - { offset: 0x5CDC1, size: 0x8, addend: 0x0, symName: __RINvNtCs9f3LFPSIp77_4core3ptr13drop_in_placeINtNtNtB4_5array4iter8IntoIterjKj2_EECsaQ2CmD7W1Vs_15zerocopy_derive, symObjAddr: 0x17E4, symBinAddr: 0x17900, symSize: 0x24 }
  - { offset: 0x5CDF0, size: 0x8, addend: 0x0, symName: __RINvNtCs9f3LFPSIp77_4core3ptr13drop_in_placeINtNtNtCs27l1GJC5rMQ_3std2io5error9ErrorDataINtNtCsdze8u8oDPro_5alloc5boxed3BoxNtBJ_6CustomEEECsaQ2CmD7W1Vs_15zerocopy_derive, symObjAddr: 0x1808, symBinAddr: 0x17924, symSize: 0x48 }
  - { offset: 0x5CE1F, size: 0x8, addend: 0x0, symName: __RINvNtCs9f3LFPSIp77_4core3ptr13drop_in_placeINtNtNtCsdze8u8oDPro_5alloc3vec9into_iter8IntoIterNtNtCsATtFUPiRFW_3syn4attr4MetaEECsaQ2CmD7W1Vs_15zerocopy_derive, symObjAddr: 0x1850, symBinAddr: 0x1796C, symSize: 0x24 }
  - { offset: 0x5CE4E, size: 0x8, addend: 0x0, symName: __RINvNtCs9f3LFPSIp77_4core3ptr13drop_in_placeINtNtNtCsdze8u8oDPro_5alloc3vec9into_iter8IntoIterNtNtCsATtFUPiRFW_3syn8generics12GenericParamEECsaQ2CmD7W1Vs_15zerocopy_derive, symObjAddr: 0x1874, symBinAddr: 0x17990, symSize: 0x24 }
  - { offset: 0x5CE7D, size: 0x8, addend: 0x0, symName: __RINvNtCs9f3LFPSIp77_4core3ptr13drop_in_placeINtNtNtCsdze8u8oDPro_5alloc3vec9into_iter8IntoIterTNtNtCsATtFUPiRFW_3syn4attr4MetaNtNtB1z_5token5CommaEEECsaQ2CmD7W1Vs_15zerocopy_derive, symObjAddr: 0x1898, symBinAddr: 0x179B4, symSize: 0x24 }
  - { offset: 0x5CEAC, size: 0x8, addend: 0x0, symName: __RINvNtCs9f3LFPSIp77_4core3ptr13drop_in_placeINtNtNtCsdze8u8oDPro_5alloc3vec9into_iter8IntoIterTNtNtCsATtFUPiRFW_3syn4attr4MetaNtNtCsaQ2CmD7W1Vs_15zerocopy_derive4repr10StructReprEEEB24_, symObjAddr: 0x18BC, symBinAddr: 0x179D8, symSize: 0x24 }
  - { offset: 0x5CEDB, size: 0x8, addend: 0x0, symName: __RINvNtCs9f3LFPSIp77_4core3ptr13drop_in_placeINtNtNtCsdze8u8oDPro_5alloc3vec9into_iter8IntoIterTNtNtCsATtFUPiRFW_3syn4attr4MetaNtNtCsaQ2CmD7W1Vs_15zerocopy_derive4repr8EnumReprEEEB24_, symObjAddr: 0x18E0, symBinAddr: 0x179FC, symSize: 0x24 }
  - { offset: 0x5CF0A, size: 0x8, addend: 0x0, symName: __RINvNtCs9f3LFPSIp77_4core3ptr13drop_in_placeINtNtNtCsdze8u8oDPro_5alloc3vec9into_iter8IntoIterTNtNtCsATtFUPiRFW_3syn8generics12GenericParamNtNtB1z_5token5CommaEEECsaQ2CmD7W1Vs_15zerocopy_derive, symObjAddr: 0x1904, symBinAddr: 0x17A20, symSize: 0x24 }
  - { offset: 0x5CF39, size: 0x8, addend: 0x0, symName: __RINvNtCs9f3LFPSIp77_4core3ptr13drop_in_placeINtNtNtNtB4_4iter8adapters10filter_map9FilterMapINtNtCsATtFUPiRFW_3syn10punctuated4IterNtNtB1x_4data7VariantENCNvCsaQ2CmD7W1Vs_15zerocopy_derive23derive_from_zeroes_enum0EEB2v_, symObjAddr: 0x1928, symBinAddr: 0x17A44, symSize: 0x24 }
  - { offset: 0x5CF68, size: 0x8, addend: 0x0, symName: __RINvNtCs9f3LFPSIp77_4core3ptr13drop_in_placeINtNtNtNtB4_4iter8adapters3map3MapINtNtBL_7flatten7FlatMapINtNtCsATtFUPiRFW_3syn10punctuated4IterNtNtB1H_4data7VariantERNtB2h_6FieldsNCNvXs0_NtCsaQ2CmD7W1Vs_15zerocopy_derive3extNtNtB1H_6derive8DataEnumNtB2X_7DataExt11field_types0ENCB2R_s_0EEB2Z_, symObjAddr: 0x194C, symBinAddr: 0x17A68, symSize: 0x24 }
  - { offset: 0x5CF97, size: 0x8, addend: 0x0, symName: __RINvNtCs9f3LFPSIp77_4core3ptr13drop_in_placeINtNtNtNtB4_4iter8adapters3map3MapINtNtCsATtFUPiRFW_3syn10punctuated4IterNtNtB1j_4data5FieldENCNvXs1_NtCsaQ2CmD7W1Vs_15zerocopy_derive3extNtNtB1j_6derive9DataUnionNtB2j_7DataExt11field_types0EEB2l_, symObjAddr: 0x1970, symBinAddr: 0x17A8C, symSize: 0x24 }
  - { offset: 0x5CFC6, size: 0x8, addend: 0x0, symName: __RINvNtCs9f3LFPSIp77_4core3ptr13drop_in_placeINtNtNtNtB4_4iter8adapters3map3MapINtNtCsATtFUPiRFW_3syn10punctuated4IterNtNtB1j_4data5FieldENCNvXs_NtCsaQ2CmD7W1Vs_15zerocopy_derive3extNtNtB1j_6derive10DataStructNtB2i_7DataExt11field_types0EEB2k_, symObjAddr: 0x1994, symBinAddr: 0x17AB0, symSize: 0x24 }
  - { offset: 0x5CFF5, size: 0x8, addend: 0x0, symName: __RINvNtCs9f3LFPSIp77_4core3ptr13drop_in_placeINtNtNtNtB4_4iter8adapters3map3MapINtNtCsATtFUPiRFW_3syn10punctuated4IterNtNtB1j_4data7VariantENCNvXs0_NtCsaQ2CmD7W1Vs_15zerocopy_derive3extNtNtB1j_6derive8DataEnumNtB2l_7DataExt11field_types0EEB2n_, symObjAddr: 0x19B8, symBinAddr: 0x17AD4, symSize: 0x24 }
  - { offset: 0x5D024, size: 0x8, addend: 0x0, symName: __RINvNtCs9f3LFPSIp77_4core3ptr13drop_in_placeINtNtNtNtB4_4iter8adapters3map3MapINtNtCsATtFUPiRFW_3syn10punctuated4IterNtNtB1j_8generics12GenericParamENCINvCsaQ2CmD7W1Vs_15zerocopy_derive10impl_blockNtNtB1j_6derive10DataStructEs3_0EEB2s_, symObjAddr: 0x19DC, symBinAddr: 0x17AF8, symSize: 0x24 }
  - { offset: 0x5D053, size: 0x8, addend: 0x0, symName: __RINvNtCs9f3LFPSIp77_4core3ptr13drop_in_placeINtNtNtNtB4_4iter8adapters3map3MapINtNtCsATtFUPiRFW_3syn10punctuated4IterNtNtB1j_8generics12GenericParamENCINvCsaQ2CmD7W1Vs_15zerocopy_derive10impl_blockNtNtB1j_6derive8DataEnumEs3_0EEB2s_, symObjAddr: 0x1A00, symBinAddr: 0x17B1C, symSize: 0x24 }
  - { offset: 0x5D082, size: 0x8, addend: 0x0, symName: __RINvNtCs9f3LFPSIp77_4core3ptr13drop_in_placeINtNtNtNtB4_4iter8adapters3map3MapINtNtCsATtFUPiRFW_3syn10punctuated4IterNtNtB1j_8generics12GenericParamENCINvCsaQ2CmD7W1Vs_15zerocopy_derive10impl_blockNtNtB1j_6derive9DataUnionEs3_0EEB2s_, symObjAddr: 0x1A24, symBinAddr: 0x17B40, symSize: 0x24 }
  - { offset: 0x5D0B1, size: 0x8, addend: 0x0, symName: __RINvNtCs9f3LFPSIp77_4core3ptr13drop_in_placeINtNtNtNtB4_4iter8adapters3map3MapINtNtCsATtFUPiRFW_3syn10punctuated8IntoIterNtNtB1j_8generics12GenericParamENCINvCsaQ2CmD7W1Vs_15zerocopy_derive10impl_blockNtNtB1j_6derive10DataStructEs2_0EEB2w_, symObjAddr: 0x1A48, symBinAddr: 0x17B64, symSize: 0x24 }
  - { offset: 0x5D0E0, size: 0x8, addend: 0x0, symName: __RINvNtCs9f3LFPSIp77_4core3ptr13drop_in_placeINtNtNtNtB4_4iter8adapters3map3MapINtNtCsATtFUPiRFW_3syn10punctuated8IntoIterNtNtB1j_8generics12GenericParamENCINvCsaQ2CmD7W1Vs_15zerocopy_derive10impl_blockNtNtB1j_6derive8DataEnumEs2_0EEB2w_, symObjAddr: 0x1A6C, symBinAddr: 0x17B88, symSize: 0x24 }
  - { offset: 0x5D10F, size: 0x8, addend: 0x0, symName: __RINvNtCs9f3LFPSIp77_4core3ptr13drop_in_placeINtNtNtNtB4_4iter8adapters3map3MapINtNtCsATtFUPiRFW_3syn10punctuated8IntoIterNtNtB1j_8generics12GenericParamENCINvCsaQ2CmD7W1Vs_15zerocopy_derive10impl_blockNtNtB1j_6derive9DataUnionEs2_0EEB2w_, symObjAddr: 0x1A90, symBinAddr: 0x17BAC, symSize: 0x24 }
  - { offset: 0x5D13E, size: 0x8, addend: 0x0, symName: __RINvNtCs9f3LFPSIp77_4core3ptr13drop_in_placeINtNtNtNtB4_4iter8adapters3map3MapINtNtNtCsdze8u8oDPro_5alloc3vec9into_iter8IntoIterTNtNtCsATtFUPiRFW_3syn4attr4MetaNtNtB27_5token5CommaEENCNvXs8_NtB27_10punctuatedINtB32_10PunctuatedB23_B2y_ENtNtNtBN_6traits7collect12IntoIterator9into_iter0EECsaQ2CmD7W1Vs_15zerocopy_derive, symObjAddr: 0x1AB4, symBinAddr: 0x17BD0, symSize: 0x24 }
  - { offset: 0x5D16D, size: 0x8, addend: 0x0, symName: __RINvNtCs9f3LFPSIp77_4core3ptr13drop_in_placeINtNtNtNtB4_4iter8adapters3map3MapINtNtNtCsdze8u8oDPro_5alloc3vec9into_iter8IntoIterTNtNtCsATtFUPiRFW_3syn8generics12GenericParamNtNtB27_5token5CommaEENCNvXs8_NtB27_10punctuatedINtB3f_10PunctuatedB23_B2L_ENtNtNtBN_6traits7collect12IntoIterator9into_iter0EECsaQ2CmD7W1Vs_15zerocopy_derive, symObjAddr: 0x1AD8, symBinAddr: 0x17BF4, symSize: 0x24 }
  - { offset: 0x5D19C, size: 0x8, addend: 0x0, symName: __RINvNtCs9f3LFPSIp77_4core3ptr13drop_in_placeINtNtNtNtB4_4iter8adapters4fuse4FuseINtNtB4_6option8IntoIterINtNtCsATtFUPiRFW_3syn10punctuated4IterNtNtB1J_8generics14WherePredicateEEEECsaQ2CmD7W1Vs_15zerocopy_derive, symObjAddr: 0x1AFC, symBinAddr: 0x17C18, symSize: 0x24 }
  - { offset: 0x5D1CB, size: 0x8, addend: 0x0, symName: __RINvNtCs9f3LFPSIp77_4core3ptr13drop_in_placeINtNtNtNtB4_4iter8adapters4fuse4FuseINtNtBL_3map3MapINtNtCsATtFUPiRFW_3syn10punctuated4IterNtNtB1B_4data7VariantENCNvXs0_NtCsaQ2CmD7W1Vs_15zerocopy_derive3extNtNtB1B_6derive8DataEnumNtB2D_7DataExt11field_types0EEEB2F_, symObjAddr: 0x1B20, symBinAddr: 0x17C3C, symSize: 0x24 }
  - { offset: 0x5D1FA, size: 0x8, addend: 0x0, symName: __RINvNtCs9f3LFPSIp77_4core3ptr13drop_in_placeINtNtNtNtB4_4iter8adapters5chain5ChainIBH_IBH_INtNtBL_7flatten7FlattenINtNtB4_6option8IntoIterINtNtCsATtFUPiRFW_3syn10punctuated4IterNtNtB2h_8generics14WherePredicateEEEINtNtNtB4_5slice4iter4IterB2P_EEINtB1R_4IterB2P_EEB3V_EECsaQ2CmD7W1Vs_15zerocopy_derive, symObjAddr: 0x1B44, symBinAddr: 0x17C60, symSize: 0x24 }
  - { offset: 0x5D229, size: 0x8, addend: 0x0, symName: __RINvNtCs9f3LFPSIp77_4core3ptr13drop_in_placeINtNtNtNtB4_4iter8adapters5chain5ChainIBH_INtNtBL_7flatten7FlattenINtNtB4_6option8IntoIterINtNtCsATtFUPiRFW_3syn10punctuated4IterNtNtB2d_8generics14WherePredicateEEEINtNtNtB4_5slice4iter4IterB2L_EEINtB1N_4IterB2L_EEECsaQ2CmD7W1Vs_15zerocopy_derive, symObjAddr: 0x1B68, symBinAddr: 0x17C84, symSize: 0x24 }
  - { offset: 0x5D258, size: 0x8, addend: 0x0, symName: __RINvNtCs9f3LFPSIp77_4core3ptr13drop_in_placeINtNtNtNtB4_4iter8adapters5chain5ChainINtNtBL_7flatten7FlattenINtNtB4_6option8IntoIterINtNtCsATtFUPiRFW_3syn10punctuated4IterNtNtB29_8generics14WherePredicateEEEINtNtNtB4_5slice4iter4IterB2H_EEECsaQ2CmD7W1Vs_15zerocopy_derive, symObjAddr: 0x1B8C, symBinAddr: 0x17CA8, symSize: 0x24 }
  - { offset: 0x5D287, size: 0x8, addend: 0x0, symName: __RINvNtCs9f3LFPSIp77_4core3ptr13drop_in_placeINtNtNtNtB4_4iter8adapters7flatten13FlattenCompatINtNtB4_6option8IntoIterINtNtCsATtFUPiRFW_3syn10punctuated4IterNtNtB1W_8generics14WherePredicateEEB1R_EECsaQ2CmD7W1Vs_15zerocopy_derive, symObjAddr: 0x1BB0, symBinAddr: 0x17CCC, symSize: 0x90 }
  - { offset: 0x5D2B6, size: 0x8, addend: 0x0, symName: __RINvNtCs9f3LFPSIp77_4core3ptr13drop_in_placeINtNtNtNtB4_4iter8adapters7flatten13FlattenCompatINtNtBL_3map3MapIB1u_IB1u_INtNtNtB4_5slice4iter4IterNtNtCsATtFUPiRFW_3syn5error5ErrorENvMB2l_B2j_16to_compile_errorENCINvXs7_Cs475r2uZUTuc_11proc_macro2NtB3u_11TokenStreamINtNtNtBN_6traits7collect12FromIteratorB3V_E9from_iterB1O_E0ENCINvXs6_NtB3u_3impNtB5m_11TokenStreamIB4f_B5w_E9from_iterB1J_Es_0EINtNtB3u_5rcvec13RcVecIntoIterNtB3u_9TokenTreeEEECsaQ2CmD7W1Vs_15zerocopy_derive, symObjAddr: 0x1C40, symBinAddr: 0x17D5C, symSize: 0x60 }
  - { offset: 0x5D2E5, size: 0x8, addend: 0x0, symName: __RINvNtCs9f3LFPSIp77_4core3ptr13drop_in_placeINtNtNtNtB4_4iter8adapters7flatten13FlattenCompatINtNtBL_3map3MapINtNtCsATtFUPiRFW_3syn10punctuated4IterNtNtB1O_4data7VariantENCNvXs0_NtCsaQ2CmD7W1Vs_15zerocopy_derive3extNtNtB1O_6derive8DataEnumNtB2Q_7DataExt11field_types0EIB1K_NtB2o_5FieldEEEB2S_, symObjAddr: 0x1CA0, symBinAddr: 0x17DBC, symSize: 0x90 }
  - { offset: 0x5D314, size: 0x8, addend: 0x0, symName: __RINvNtCs9f3LFPSIp77_4core3ptr13drop_in_placeINtNtNtNtB4_4iter8adapters7flatten7FlatMapINtNtCsATtFUPiRFW_3syn10punctuated4IterNtNtB1r_4data7VariantERNtB21_6FieldsNCNvXs0_NtCsaQ2CmD7W1Vs_15zerocopy_derive3extNtNtB1r_6derive8DataEnumNtB2H_7DataExt11field_types0EEB2J_, symObjAddr: 0x1D30, symBinAddr: 0x17E4C, symSize: 0x24 }
  - { offset: 0x5D343, size: 0x8, addend: 0x0, symName: __RINvNtCs9f3LFPSIp77_4core3ptr13drop_in_placeINtNtNtNtB4_4iter8adapters7flatten7FlattenINtNtB4_6option8IntoIterINtNtCsATtFUPiRFW_3syn10punctuated4IterNtNtB1P_8generics14WherePredicateEEEECsaQ2CmD7W1Vs_15zerocopy_derive, symObjAddr: 0x1D54, symBinAddr: 0x17E70, symSize: 0x24 }
  - { offset: 0x5D372, size: 0x8, addend: 0x0, symName: __RINvNtCs9f3LFPSIp77_4core3ptr13drop_in_placeINtNtNtNtB4_4iter8adapters7flatten7FlattenINtNtBL_3map3MapIB1n_IB1n_INtNtNtB4_5slice4iter4IterNtNtCsATtFUPiRFW_3syn5error5ErrorENvMB2e_B2c_16to_compile_errorENCINvXs7_Cs475r2uZUTuc_11proc_macro2NtB3n_11TokenStreamINtNtNtBN_6traits7collect12FromIteratorB3O_E9from_iterB1H_E0ENCINvXs6_NtB3n_3impNtB5f_11TokenStreamIB48_B5p_E9from_iterB1C_Es_0EEECsaQ2CmD7W1Vs_15zerocopy_derive, symObjAddr: 0x1D78, symBinAddr: 0x17E94, symSize: 0x24 }
  - { offset: 0x5D3A1, size: 0x8, addend: 0x0, symName: __RINvNtCs9f3LFPSIp77_4core3ptr13drop_in_placeINtNtNtNtNtB4_5slice4sort6shared9smallsort10CopyOnDropTNtNtCsATtFUPiRFW_3syn4attr4MetaNtNtCsaQ2CmD7W1Vs_15zerocopy_derive4repr10StructReprEEEB28_, symObjAddr: 0x1D9C, symBinAddr: 0x17EB8, symSize: 0x24 }
  - { offset: 0x5D3D0, size: 0x8, addend: 0x0, symName: __RINvNtCs9f3LFPSIp77_4core3ptr13drop_in_placeINtNtNtNtNtB4_5slice4sort6shared9smallsort10CopyOnDropTNtNtCsATtFUPiRFW_3syn4attr4MetaNtNtCsaQ2CmD7W1Vs_15zerocopy_derive4repr8EnumReprEEEB28_, symObjAddr: 0x1DC0, symBinAddr: 0x17EDC, symSize: 0x24 }
  - { offset: 0x5D3FF, size: 0x8, addend: 0x0, symName: __RINvNtCs9f3LFPSIp77_4core3ptr13drop_in_placeINtNtNtNtNtB4_5slice4sort6stable5merge10MergeStateTNtNtCsATtFUPiRFW_3syn4attr4MetaNtNtCsaQ2CmD7W1Vs_15zerocopy_derive4repr10StructReprEEEB24_, symObjAddr: 0x1DE4, symBinAddr: 0x17F00, symSize: 0x24 }
  - { offset: 0x5D42E, size: 0x8, addend: 0x0, symName: __RINvNtCs9f3LFPSIp77_4core3ptr13drop_in_placeINtNtNtNtNtB4_5slice4sort6stable5merge10MergeStateTNtNtCsATtFUPiRFW_3syn4attr4MetaNtNtCsaQ2CmD7W1Vs_15zerocopy_derive4repr8EnumReprEEEB24_, symObjAddr: 0x1E08, symBinAddr: 0x17F24, symSize: 0x24 }
  - { offset: 0x5D45D, size: 0x8, addend: 0x0, symName: __RINvNtCs9f3LFPSIp77_4core3ptr13drop_in_placeINtNvXsd_NtNtCsdze8u8oDPro_5alloc3vec9into_iterINtBP_8IntoIterppENtNtNtB4_3ops4drop4Drop4drop9DropGuardNtNtCsATtFUPiRFW_3syn4attr4MetaNtNtBT_5alloc6GlobalEECsaQ2CmD7W1Vs_15zerocopy_derive, symObjAddr: 0x1E2C, symBinAddr: 0x17F48, symSize: 0x24 }
  - { offset: 0x5D48C, size: 0x8, addend: 0x0, symName: __RINvNtCs9f3LFPSIp77_4core3ptr13drop_in_placeINtNvXsd_NtNtCsdze8u8oDPro_5alloc3vec9into_iterINtBP_8IntoIterppENtNtNtB4_3ops4drop4Drop4drop9DropGuardNtNtCsATtFUPiRFW_3syn8generics12GenericParamNtNtBT_5alloc6GlobalEECsaQ2CmD7W1Vs_15zerocopy_derive, symObjAddr: 0x1E50, symBinAddr: 0x17F6C, symSize: 0x24 }
  - { offset: 0x5D4BB, size: 0x8, addend: 0x0, symName: __RINvNtCs9f3LFPSIp77_4core3ptr13drop_in_placeINtNvXsd_NtNtCsdze8u8oDPro_5alloc3vec9into_iterINtBP_8IntoIterppENtNtNtB4_3ops4drop4Drop4drop9DropGuardTNtNtCsATtFUPiRFW_3syn4attr4MetaNtNtB2q_5token5CommaENtNtBT_5alloc6GlobalEECsaQ2CmD7W1Vs_15zerocopy_derive, symObjAddr: 0x1E74, symBinAddr: 0x17F90, symSize: 0x24 }
  - { offset: 0x5D4EA, size: 0x8, addend: 0x0, symName: __RINvNtCs9f3LFPSIp77_4core3ptr13drop_in_placeINtNvXsd_NtNtCsdze8u8oDPro_5alloc3vec9into_iterINtBP_8IntoIterppENtNtNtB4_3ops4drop4Drop4drop9DropGuardTNtNtCsATtFUPiRFW_3syn4attr4MetaNtNtCsaQ2CmD7W1Vs_15zerocopy_derive4repr10StructReprENtNtBT_5alloc6GlobalEEB2V_, symObjAddr: 0x1E98, symBinAddr: 0x17FB4, symSize: 0x24 }
  - { offset: 0x5D519, size: 0x8, addend: 0x0, symName: __RINvNtCs9f3LFPSIp77_4core3ptr13drop_in_placeINtNvXsd_NtNtCsdze8u8oDPro_5alloc3vec9into_iterINtBP_8IntoIterppENtNtNtB4_3ops4drop4Drop4drop9DropGuardTNtNtCsATtFUPiRFW_3syn4attr4MetaNtNtCsaQ2CmD7W1Vs_15zerocopy_derive4repr8EnumReprENtNtBT_5alloc6GlobalEEB2V_, symObjAddr: 0x1EBC, symBinAddr: 0x17FD8, symSize: 0x24 }
  - { offset: 0x5D548, size: 0x8, addend: 0x0, symName: __RINvNtCs9f3LFPSIp77_4core3ptr13drop_in_placeINtNvXsd_NtNtCsdze8u8oDPro_5alloc3vec9into_iterINtBP_8IntoIterppENtNtNtB4_3ops4drop4Drop4drop9DropGuardTNtNtCsATtFUPiRFW_3syn8generics12GenericParamNtNtB2q_5token5CommaENtNtBT_5alloc6GlobalEECsaQ2CmD7W1Vs_15zerocopy_derive, symObjAddr: 0x1EE0, symBinAddr: 0x17FFC, symSize: 0x24 }
  - { offset: 0x5D577, size: 0x8, addend: 0x0, symName: __RINvNtCs9f3LFPSIp77_4core3ptr13drop_in_placeNCINvMsi_NtCsdze8u8oDPro_5alloc3vecINtBP_3VecNtNtCsATtFUPiRFW_3syn4attr4MetaE14extend_trustedINtNtB4_6option8IntoIterB1p_EE0ECsaQ2CmD7W1Vs_15zerocopy_derive, symObjAddr: 0x1F04, symBinAddr: 0x18020, symSize: 0x24 }
  - { offset: 0x5D5A6, size: 0x8, addend: 0x0, symName: __RINvNtCs9f3LFPSIp77_4core3ptr13drop_in_placeNCINvMsi_NtCsdze8u8oDPro_5alloc3vecINtBP_3VecNtNtCsATtFUPiRFW_3syn4attr4MetaE14extend_trustedINtNtNtNtB4_4iter8adapters3map3MapINtNtBP_9into_iter8IntoIterTB1p_NtNtB1t_5token5CommaEENCNvXs8_NtB1t_10punctuatedINtB3J_10PunctuatedB1p_B3f_ENtNtNtB2i_6traits7collect12IntoIterator9into_iter0EE0ECsaQ2CmD7W1Vs_15zerocopy_derive, symObjAddr: 0x1F28, symBinAddr: 0x18044, symSize: 0x24 }
  - { offset: 0x5D5D5, size: 0x8, addend: 0x0, symName: __RINvNtCs9f3LFPSIp77_4core3ptr13drop_in_placeNCINvMsi_NtCsdze8u8oDPro_5alloc3vecINtBP_3VecNtNtCsATtFUPiRFW_3syn8generics12GenericParamE14extend_trustedINtNtB4_6option8IntoIterB1p_EE0ECsaQ2CmD7W1Vs_15zerocopy_derive, symObjAddr: 0x1F4C, symBinAddr: 0x18068, symSize: 0x24 }
  - { offset: 0x5D604, size: 0x8, addend: 0x0, symName: __RINvNtCs9f3LFPSIp77_4core3ptr13drop_in_placeNCINvMsi_NtCsdze8u8oDPro_5alloc3vecINtBP_3VecNtNtCsATtFUPiRFW_3syn8generics12GenericParamE14extend_trustedINtNtNtNtB4_4iter8adapters3map3MapINtNtBP_9into_iter8IntoIterTB1p_NtNtB1t_5token5CommaEENCNvXs8_NtB1t_10punctuatedINtB3W_10PunctuatedB1p_B3s_ENtNtNtB2v_6traits7collect12IntoIterator9into_iter0EE0ECsaQ2CmD7W1Vs_15zerocopy_derive, symObjAddr: 0x1F70, symBinAddr: 0x1808C, symSize: 0x24 }
  - { offset: 0x5D633, size: 0x8, addend: 0x0, symName: __RINvNtCs9f3LFPSIp77_4core3ptr13drop_in_placeNCINvMsi_NtCsdze8u8oDPro_5alloc3vecINtBP_3VecNtNtCsATtFUPiRFW_3syn8generics14WherePredicateE14extend_trustedINtNtNtNtB4_4iter8adapters3map3MapINtNtNtB4_5slice4iter4IterRNtNtB1t_2ty4TypeENCINvCsaQ2CmD7W1Vs_15zerocopy_derive10impl_blockNtNtB1t_6derive10DataStructE0EE0EB3L_, symObjAddr: 0x1F94, symBinAddr: 0x180B0, symSize: 0x24 }
  - { offset: 0x5D662, size: 0x8, addend: 0x0, symName: __RINvNtCs9f3LFPSIp77_4core3ptr13drop_in_placeNCINvMsi_NtCsdze8u8oDPro_5alloc3vecINtBP_3VecNtNtCsATtFUPiRFW_3syn8generics14WherePredicateE14extend_trustedINtNtNtNtB4_4iter8adapters3map3MapINtNtNtB4_5slice4iter4IterRNtNtB1t_2ty4TypeENCINvCsaQ2CmD7W1Vs_15zerocopy_derive10impl_blockNtNtB1t_6derive8DataEnumE0EE0EB3L_, symObjAddr: 0x1FB8, symBinAddr: 0x180D4, symSize: 0x24 }
  - { offset: 0x5D691, size: 0x8, addend: 0x0, symName: __RINvNtCs9f3LFPSIp77_4core3ptr13drop_in_placeNCINvMsi_NtCsdze8u8oDPro_5alloc3vecINtBP_3VecNtNtCsATtFUPiRFW_3syn8generics14WherePredicateE14extend_trustedINtNtNtNtB4_4iter8adapters3map3MapINtNtNtB4_5slice4iter4IterRNtNtB1t_2ty4TypeENCINvCsaQ2CmD7W1Vs_15zerocopy_derive10impl_blockNtNtB1t_6derive9DataUnionE0EE0EB3L_, symObjAddr: 0x1FDC, symBinAddr: 0x180F8, symSize: 0x24 }
  - { offset: 0x5D6C0, size: 0x8, addend: 0x0, symName: __RINvNtCs9f3LFPSIp77_4core3ptr13drop_in_placeNCINvNtNtNtB4_4iter8adapters3map8map_foldRRNtNtCsATtFUPiRFW_3syn2ty4TypeNtNtB1r_8generics14WherePredicateuNCINvCsaQ2CmD7W1Vs_15zerocopy_derive10impl_blockNtNtB1r_6derive10DataStructE0NCINvNvNtNtNtBP_6traits8iterator8Iterator8for_each4callB1Q_NCINvMsi_NtCsdze8u8oDPro_5alloc3vecINtB4J_3VecB1Q_E14extend_trustedINtBL_3MapINtNtNtB4_5slice4iter4IterB1m_EB2o_EE0E0E0EB2t_, symObjAddr: 0x2000, symBinAddr: 0x1811C, symSize: 0x24 }
  - { offset: 0x5D6EF, size: 0x8, addend: 0x0, symName: __RINvNtCs9f3LFPSIp77_4core3ptr13drop_in_placeNCINvNtNtNtB4_4iter8adapters3map8map_foldRRNtNtCsATtFUPiRFW_3syn2ty4TypeNtNtB1r_8generics14WherePredicateuNCINvCsaQ2CmD7W1Vs_15zerocopy_derive10impl_blockNtNtB1r_6derive8DataEnumE0NCINvNvNtNtNtBP_6traits8iterator8Iterator8for_each4callB1Q_NCINvMsi_NtCsdze8u8oDPro_5alloc3vecINtB4G_3VecB1Q_E14extend_trustedINtBL_3MapINtNtNtB4_5slice4iter4IterB1m_EB2o_EE0E0E0EB2t_, symObjAddr: 0x2024, symBinAddr: 0x18140, symSize: 0x24 }
  - { offset: 0x5D71E, size: 0x8, addend: 0x0, symName: __RINvNtCs9f3LFPSIp77_4core3ptr13drop_in_placeNCINvNtNtNtB4_4iter8adapters3map8map_foldRRNtNtCsATtFUPiRFW_3syn2ty4TypeNtNtB1r_8generics14WherePredicateuNCINvCsaQ2CmD7W1Vs_15zerocopy_derive10impl_blockNtNtB1r_6derive9DataUnionE0NCINvNvNtNtNtBP_6traits8iterator8Iterator8for_each4callB1Q_NCINvMsi_NtCsdze8u8oDPro_5alloc3vecINtB4H_3VecB1Q_E14extend_trustedINtBL_3MapINtNtNtB4_5slice4iter4IterB1m_EB2o_EE0E0E0EB2t_, symObjAddr: 0x2048, symBinAddr: 0x18164, symSize: 0x24 }
  - { offset: 0x5D74D, size: 0x8, addend: 0x0, symName: __RINvNtCs9f3LFPSIp77_4core3ptr13drop_in_placeNCINvNtNtNtB4_4iter8adapters3map8map_foldTNtNtCsATtFUPiRFW_3syn4attr4MetaNtNtB1q_5token5CommaEB1m_uNCNvXs8_NtB1q_10punctuatedINtB2p_10PunctuatedB1m_B1R_ENtNtNtBP_6traits7collect12IntoIterator9into_iter0NCINvNvNtNtB3d_8iterator8Iterator8for_each4callB1m_NCINvMsi_NtCsdze8u8oDPro_5alloc3vecINtB4U_3VecB1m_E14extend_trustedINtBL_3MapINtNtB4U_9into_iter8IntoIterB1l_EB2h_EE0E0E0ECsaQ2CmD7W1Vs_15zerocopy_derive, symObjAddr: 0x206C, symBinAddr: 0x18188, symSize: 0x24 }
  - { offset: 0x5D77C, size: 0x8, addend: 0x0, symName: __RINvNtCs9f3LFPSIp77_4core3ptr13drop_in_placeNCINvNtNtNtB4_4iter8adapters3map8map_foldTNtNtCsATtFUPiRFW_3syn8generics12GenericParamNtNtB1q_5token5CommaEB1m_uNCNvXs8_NtB1q_10punctuatedINtB2C_10PunctuatedB1m_B24_ENtNtNtBP_6traits7collect12IntoIterator9into_iter0NCINvNvNtNtB3q_8iterator8Iterator8for_each4callB1m_NCINvMsi_NtCsdze8u8oDPro_5alloc3vecINtB57_3VecB1m_E14extend_trustedINtBL_3MapINtNtB57_9into_iter8IntoIterB1l_EB2u_EE0E0E0ECsaQ2CmD7W1Vs_15zerocopy_derive, symObjAddr: 0x2090, symBinAddr: 0x181AC, symSize: 0x24 }
  - { offset: 0x5D7AB, size: 0x8, addend: 0x0, symName: __RINvNtCs9f3LFPSIp77_4core3ptr13drop_in_placeNCINvNvNtNtNtNtB4_4iter6traits8iterator8Iterator8for_each4callNtNtCsATtFUPiRFW_3syn4attr4MetaNCINvMsi_NtCsdze8u8oDPro_5alloc3vecINtB2k_3VecB1G_E14extend_trustedINtNtB4_6option8IntoIterB1G_EE0E0ECsaQ2CmD7W1Vs_15zerocopy_derive, symObjAddr: 0x20B4, symBinAddr: 0x181D0, symSize: 0x24 }
  - { offset: 0x5D7DA, size: 0x8, addend: 0x0, symName: __RINvNtCs9f3LFPSIp77_4core3ptr13drop_in_placeNCINvNvNtNtNtNtB4_4iter6traits8iterator8Iterator8for_each4callNtNtCsATtFUPiRFW_3syn4attr4MetaNCINvMsi_NtCsdze8u8oDPro_5alloc3vecINtB2k_3VecB1G_E14extend_trustedINtNtNtBT_8adapters3map3MapINtNtB2k_9into_iter8IntoIterTB1G_NtNtB1K_5token5CommaEENCNvXs8_NtB1K_10punctuatedINtB4I_10PunctuatedB1G_B4e_ENtNtBR_7collect12IntoIterator9into_iter0EE0E0ECsaQ2CmD7W1Vs_15zerocopy_derive, symObjAddr: 0x20D8, symBinAddr: 0x181F4, symSize: 0x24 }
  - { offset: 0x5D809, size: 0x8, addend: 0x0, symName: __RINvNtCs9f3LFPSIp77_4core3ptr13drop_in_placeNCINvNvNtNtNtNtB4_4iter6traits8iterator8Iterator8for_each4callNtNtCsATtFUPiRFW_3syn8generics12GenericParamNCINvMsi_NtCsdze8u8oDPro_5alloc3vecINtB2x_3VecB1G_E14extend_trustedINtNtB4_6option8IntoIterB1G_EE0E0ECsaQ2CmD7W1Vs_15zerocopy_derive, symObjAddr: 0x20FC, symBinAddr: 0x18218, symSize: 0x24 }
  - { offset: 0x5D838, size: 0x8, addend: 0x0, symName: __RINvNtCs9f3LFPSIp77_4core3ptr13drop_in_placeNCINvNvNtNtNtNtB4_4iter6traits8iterator8Iterator8for_each4callNtNtCsATtFUPiRFW_3syn8generics12GenericParamNCINvMsi_NtCsdze8u8oDPro_5alloc3vecINtB2x_3VecB1G_E14extend_trustedINtNtNtBT_8adapters3map3MapINtNtB2x_9into_iter8IntoIterTB1G_NtNtB1K_5token5CommaEENCNvXs8_NtB1K_10punctuatedINtB4V_10PunctuatedB1G_B4r_ENtNtBR_7collect12IntoIterator9into_iter0EE0E0ECsaQ2CmD7W1Vs_15zerocopy_derive, symObjAddr: 0x2120, symBinAddr: 0x1823C, symSize: 0x24 }
  - { offset: 0x5D867, size: 0x8, addend: 0x0, symName: __RINvNtCs9f3LFPSIp77_4core3ptr13drop_in_placeNCINvNvNtNtNtNtB4_4iter6traits8iterator8Iterator8for_each4callNtNtCsATtFUPiRFW_3syn8generics14WherePredicateNCINvMsi_NtCsdze8u8oDPro_5alloc3vecINtB2z_3VecB1G_E14extend_trustedINtNtNtBT_8adapters3map3MapINtNtNtB4_5slice4iter4IterRNtNtB1K_2ty4TypeENCINvCsaQ2CmD7W1Vs_15zerocopy_derive10impl_blockNtNtB1K_6derive10DataStructE0EE0E0EB4J_, symObjAddr: 0x2144, symBinAddr: 0x18260, symSize: 0x24 }
  - { offset: 0x5D896, size: 0x8, addend: 0x0, symName: __RINvNtCs9f3LFPSIp77_4core3ptr13drop_in_placeNCINvNvNtNtNtNtB4_4iter6traits8iterator8Iterator8for_each4callNtNtCsATtFUPiRFW_3syn8generics14WherePredicateNCINvMsi_NtCsdze8u8oDPro_5alloc3vecINtB2z_3VecB1G_E14extend_trustedINtNtNtBT_8adapters3map3MapINtNtNtB4_5slice4iter4IterRNtNtB1K_2ty4TypeENCINvCsaQ2CmD7W1Vs_15zerocopy_derive10impl_blockNtNtB1K_6derive8DataEnumE0EE0E0EB4J_, symObjAddr: 0x2168, symBinAddr: 0x18284, symSize: 0x24 }
  - { offset: 0x5D8C5, size: 0x8, addend: 0x0, symName: __RINvNtCs9f3LFPSIp77_4core3ptr13drop_in_placeNCINvNvNtNtNtNtB4_4iter6traits8iterator8Iterator8for_each4callNtNtCsATtFUPiRFW_3syn8generics14WherePredicateNCINvMsi_NtCsdze8u8oDPro_5alloc3vecINtB2z_3VecB1G_E14extend_trustedINtNtNtBT_8adapters3map3MapINtNtNtB4_5slice4iter4IterRNtNtB1K_2ty4TypeENCINvCsaQ2CmD7W1Vs_15zerocopy_derive10impl_blockNtNtB1K_6derive9DataUnionE0EE0E0EB4J_, symObjAddr: 0x218C, symBinAddr: 0x182A8, symSize: 0x24 }
  - { offset: 0x5D8F4, size: 0x8, addend: 0x0, symName: __RINvNtCs9f3LFPSIp77_4core3ptr13drop_in_placeNCNCINvNtNtCsjLJ1XWNSM6u_10proc_macro6bridge6client10run_clientNtBN_11TokenStreamINtNtB4_6option6OptionB1H_ENCNCINvMs7_BN_INtBN_6ClientNtBR_11TokenStreamB2R_E7expand1NvCsaQ2CmD7W1Vs_15zerocopy_derive15derive_as_bytesE00E00EB3o_, symObjAddr: 0x21B0, symBinAddr: 0x182CC, symSize: 0x24 }
  - { offset: 0x5D923, size: 0x8, addend: 0x0, symName: __RINvNtCs9f3LFPSIp77_4core3ptr13drop_in_placeNCNCINvNtNtCsjLJ1XWNSM6u_10proc_macro6bridge6client10run_clientNtBN_11TokenStreamINtNtB4_6option6OptionB1H_ENCNCINvMs7_BN_INtBN_6ClientNtBR_11TokenStreamB2R_E7expand1NvCsaQ2CmD7W1Vs_15zerocopy_derive16derive_unalignedE00E00EB3o_, symObjAddr: 0x21D4, symBinAddr: 0x182F0, symSize: 0x24 }
  - { offset: 0x5D952, size: 0x8, addend: 0x0, symName: __RINvNtCs9f3LFPSIp77_4core3ptr13drop_in_placeNCNCINvNtNtCsjLJ1XWNSM6u_10proc_macro6bridge6client10run_clientNtBN_11TokenStreamINtNtB4_6option6OptionB1H_ENCNCINvMs7_BN_INtBN_6ClientNtBR_11TokenStreamB2R_E7expand1NvCsaQ2CmD7W1Vs_15zerocopy_derive17derive_from_bytesE00E00EB3o_, symObjAddr: 0x21F8, symBinAddr: 0x18314, symSize: 0x24 }
  - { offset: 0x5D981, size: 0x8, addend: 0x0, symName: __RINvNtCs9f3LFPSIp77_4core3ptr13drop_in_placeNCNCINvNtNtCsjLJ1XWNSM6u_10proc_macro6bridge6client10run_clientNtBN_11TokenStreamINtNtB4_6option6OptionB1H_ENCNCINvMs7_BN_INtBN_6ClientNtBR_11TokenStreamB2R_E7expand1NvCsaQ2CmD7W1Vs_15zerocopy_derive18derive_from_zeroesE00E00EB3o_, symObjAddr: 0x221C, symBinAddr: 0x18338, symSize: 0x24 }
  - { offset: 0x5D9B0, size: 0x8, addend: 0x0, symName: __RINvNtCs9f3LFPSIp77_4core3ptr13drop_in_placeNCNCINvNtNtCsjLJ1XWNSM6u_10proc_macro6bridge6client10run_clientNtBN_11TokenStreamINtNtB4_6option6OptionB1H_ENCNCINvMs7_BN_INtBN_6ClientNtBR_11TokenStreamB2R_E7expand1NvCsaQ2CmD7W1Vs_15zerocopy_derive19derive_known_layoutE00E00EB3o_, symObjAddr: 0x2240, symBinAddr: 0x1835C, symSize: 0x24 }
  - { offset: 0x5D9DF, size: 0x8, addend: 0x0, symName: __RINvNtCs9f3LFPSIp77_4core3ptr13drop_in_placeNtNtNtCs27l1GJC5rMQ_3std2io5error5ErrorECsaQ2CmD7W1Vs_15zerocopy_derive, symObjAddr: 0x2264, symBinAddr: 0x18380, symSize: 0x24 }
  - { offset: 0x5DA0E, size: 0x8, addend: 0x0, symName: __RINvNtCs9f3LFPSIp77_4core3ptr13drop_in_placeNtNtNtCs27l1GJC5rMQ_3std2io5error6CustomECsaQ2CmD7W1Vs_15zerocopy_derive, symObjAddr: 0x2288, symBinAddr: 0x183A4, symSize: 0x24 }
  - { offset: 0x5DA3D, size: 0x8, addend: 0x0, symName: __RINvNtCs9f3LFPSIp77_4core3ptr13drop_in_placeNtNtNtCs27l1GJC5rMQ_3std6thread5local11AccessErrorECsaQ2CmD7W1Vs_15zerocopy_derive, symObjAddr: 0x22AC, symBinAddr: 0x183C8, symSize: 0x10 }
  - { offset: 0x5DA6C, size: 0x8, addend: 0x0, symName: __RINvNtCs9f3LFPSIp77_4core3ptr13drop_in_placeNtNtNtCsjLJ1XWNSM6u_10proc_macro6bridge3rpc12PanicMessageECsaQ2CmD7W1Vs_15zerocopy_derive, symObjAddr: 0x22BC, symBinAddr: 0x183D8, symSize: 0x50 }
  - { offset: 0x5DA9B, size: 0x8, addend: 0x0, symName: __RINvNtCs9f3LFPSIp77_4core3ptr13drop_in_placeNtNtNtCsjLJ1XWNSM6u_10proc_macro6bridge6buffer6BufferECsaQ2CmD7W1Vs_15zerocopy_derive, symObjAddr: 0x230C, symBinAddr: 0x18428, symSize: 0x24 }
  - { offset: 0x5DACA, size: 0x8, addend: 0x0, symName: __RINvNtCs9f3LFPSIp77_4core3ptr13drop_in_placeNtNtNtCsjLJ1XWNSM6u_10proc_macro6bridge6client6BridgeECsaQ2CmD7W1Vs_15zerocopy_derive, symObjAddr: 0x2330, symBinAddr: 0x1844C, symSize: 0x24 }
  - { offset: 0x5DAF9, size: 0x8, addend: 0x0, symName: __RINvNtCs9f3LFPSIp77_4core3ptr13drop_in_placeNtNtNtNtCs27l1GJC5rMQ_3std2io5error14repr_bitpacked4ReprECsaQ2CmD7W1Vs_15zerocopy_derive, symObjAddr: 0x2354, symBinAddr: 0x18470, symSize: 0x24 }
  - { offset: 0x5DB28, size: 0x8, addend: 0x0, symName: __RINvNtCs9f3LFPSIp77_4core3ptr13drop_in_placeNtNvNtNtNtCsjLJ1XWNSM6u_10proc_macro6bridge6client5state3set13RestoreOnDropECsaQ2CmD7W1Vs_15zerocopy_derive, symObjAddr: 0x2378, symBinAddr: 0x18494, symSize: 0x24 }
  - { offset: 0x5DB57, size: 0x8, addend: 0x0, symName: __RINvNtCs9f3LFPSIp77_4core3ptr13drop_in_placeRyECsaQ2CmD7W1Vs_15zerocopy_derive, symObjAddr: 0x239C, symBinAddr: 0x184B8, symSize: 0x10 }
  - { offset: 0x5DB86, size: 0x8, addend: 0x0, symName: __RINvNtCs9f3LFPSIp77_4core3ptr13drop_in_placeSNtNtCsATtFUPiRFW_3syn4attr4MetaECsaQ2CmD7W1Vs_15zerocopy_derive, symObjAddr: 0x23AC, symBinAddr: 0x184C8, symSize: 0xC4 }
  - { offset: 0x5DBB5, size: 0x8, addend: 0x0, symName: __RINvNtCs9f3LFPSIp77_4core3ptr13drop_in_placeSNtNtCsATtFUPiRFW_3syn5error5ErrorECsaQ2CmD7W1Vs_15zerocopy_derive, symObjAddr: 0x2470, symBinAddr: 0x1858C, symSize: 0xC4 }
  - { offset: 0x5DBE4, size: 0x8, addend: 0x0, symName: __RINvNtCs9f3LFPSIp77_4core3ptr13drop_in_placeSNtNtCsATtFUPiRFW_3syn8generics12GenericParamECsaQ2CmD7W1Vs_15zerocopy_derive, symObjAddr: 0x2534, symBinAddr: 0x18650, symSize: 0xC4 }
  - { offset: 0x5DC13, size: 0x8, addend: 0x0, symName: __RINvNtCs9f3LFPSIp77_4core3ptr13drop_in_placeSNtNtCsATtFUPiRFW_3syn8generics14WherePredicateECsaQ2CmD7W1Vs_15zerocopy_derive, symObjAddr: 0x25F8, symBinAddr: 0x18714, symSize: 0xC4 }
  - { offset: 0x5DC42, size: 0x8, addend: 0x0, symName: __RINvNtCs9f3LFPSIp77_4core3ptr13drop_in_placeSTNtNtCsATtFUPiRFW_3syn4attr4MetaNtNtBM_5token5CommaEECsaQ2CmD7W1Vs_15zerocopy_derive, symObjAddr: 0x26BC, symBinAddr: 0x187D8, symSize: 0xC4 }
  - { offset: 0x5DC71, size: 0x8, addend: 0x0, symName: __RINvNtCs9f3LFPSIp77_4core3ptr13drop_in_placeSTNtNtCsATtFUPiRFW_3syn4attr4MetaNtNtCsaQ2CmD7W1Vs_15zerocopy_derive4repr10StructReprEEB1h_, symObjAddr: 0x2780, symBinAddr: 0x1889C, symSize: 0xC4 }
  - { offset: 0x5DCA0, size: 0x8, addend: 0x0, symName: __RINvNtCs9f3LFPSIp77_4core3ptr13drop_in_placeSTNtNtCsATtFUPiRFW_3syn4attr4MetaNtNtCsaQ2CmD7W1Vs_15zerocopy_derive4repr4ReprEEB1h_, symObjAddr: 0x2844, symBinAddr: 0x18960, symSize: 0xC4 }
  - { offset: 0x5DCCF, size: 0x8, addend: 0x0, symName: __RINvNtCs9f3LFPSIp77_4core3ptr13drop_in_placeSTNtNtCsATtFUPiRFW_3syn4attr4MetaNtNtCsaQ2CmD7W1Vs_15zerocopy_derive4repr8EnumReprEEB1h_, symObjAddr: 0x2908, symBinAddr: 0x18A24, symSize: 0xC4 }
  - { offset: 0x5DCFE, size: 0x8, addend: 0x0, symName: __RINvNtCs9f3LFPSIp77_4core3ptr13drop_in_placeTNtNtCsATtFUPiRFW_3syn4attr4MetaNtNtBL_5token5CommaEECsaQ2CmD7W1Vs_15zerocopy_derive, symObjAddr: 0x29CC, symBinAddr: 0x18AE8, symSize: 0x24 }
  - { offset: 0x5DD2D, size: 0x8, addend: 0x0, symName: __RINvNtCs9f3LFPSIp77_4core3ptr13drop_in_placeTNtNtCsATtFUPiRFW_3syn4attr4MetaNtNtCsaQ2CmD7W1Vs_15zerocopy_derive4repr10StructReprEEB1g_, symObjAddr: 0x29F0, symBinAddr: 0x18B0C, symSize: 0x24 }
  - { offset: 0x5DD5C, size: 0x8, addend: 0x0, symName: __RINvNtCs9f3LFPSIp77_4core3ptr13drop_in_placeTNtNtCsATtFUPiRFW_3syn4attr4MetaNtNtCsaQ2CmD7W1Vs_15zerocopy_derive4repr4ReprEEB1g_, symObjAddr: 0x2A14, symBinAddr: 0x18B30, symSize: 0x24 }
  - { offset: 0x5DD8B, size: 0x8, addend: 0x0, symName: __RINvNtCs9f3LFPSIp77_4core3ptr13drop_in_placeTNtNtCsATtFUPiRFW_3syn4attr4MetaNtNtCsaQ2CmD7W1Vs_15zerocopy_derive4repr8EnumReprEEB1g_, symObjAddr: 0x2A38, symBinAddr: 0x18B54, symSize: 0x24 }
  - { offset: 0x5E897, size: 0x8, addend: 0x0, symName: __RNvXso_NtCs9f3LFPSIp77_4core6resultINtB5_6ResultINtNtCsATtFUPiRFW_3syn10punctuated10PunctuatedNtNtBP_4attr4MetaNtNtBP_5token5CommaENtNtBP_5error5ErrorENtNtNtB7_3ops9try_trait3Try6branchCsaQ2CmD7W1Vs_15zerocopy_derive, symObjAddr: 0x6820, symBinAddr: 0x1C914, symSize: 0xA0 }
  - { offset: 0x5E914, size: 0x8, addend: 0x0, symName: __RNvXso_NtCs9f3LFPSIp77_4core6resultINtB5_6ResultINtNtCsdze8u8oDPro_5alloc3vec3VecTNtNtCsATtFUPiRFW_3syn4attr4MetaNtNtCsaQ2CmD7W1Vs_15zerocopy_derive4repr10StructReprEEIBL_NtNtB1m_5error5ErrorEENtNtNtB7_3ops9try_trait3Try6branchB1R_, symObjAddr: 0x68C0, symBinAddr: 0x1C9B4, symSize: 0x94 }
  - { offset: 0x5E991, size: 0x8, addend: 0x0, symName: __RNvXso_NtCs9f3LFPSIp77_4core6resultINtB5_6ResultINtNtCsdze8u8oDPro_5alloc3vec3VecTNtNtCsATtFUPiRFW_3syn4attr4MetaNtNtCsaQ2CmD7W1Vs_15zerocopy_derive4repr8EnumReprEEIBL_NtNtB1m_5error5ErrorEENtNtNtB7_3ops9try_trait3Try6branchB1R_, symObjAddr: 0x6954, symBinAddr: 0x1CA48, symSize: 0x94 }
  - { offset: 0x5EA0E, size: 0x8, addend: 0x0, symName: __RNvXso_NtCs9f3LFPSIp77_4core6resultINtB5_6ResultNtNtCsATtFUPiRFW_3syn6derive11DeriveInputNtNtBO_5error5ErrorENtNtNtB7_3ops9try_trait3Try6branchCsaQ2CmD7W1Vs_15zerocopy_derive, symObjAddr: 0x69E8, symBinAddr: 0x1CADC, symSize: 0xB4 }
  - { offset: 0x5EA8C, size: 0x8, addend: 0x0, symName: __RNvXso_NtCs9f3LFPSIp77_4core6resultINtB5_6ResultNtNtCsaQ2CmD7W1Vs_15zerocopy_derive4repr4ReprNtNtCsATtFUPiRFW_3syn5error5ErrorENtNtNtB7_3ops9try_trait3Try6branchBO_, symObjAddr: 0x6A9C, symBinAddr: 0x1CB90, symSize: 0x94 }
  - { offset: 0x5EB0A, size: 0x8, addend: 0x0, symName: __RNvXso_NtCs9f3LFPSIp77_4core6resultINtB5_6ResultRNtCs475r2uZUTuc_11proc_macro25IdentNtNtCsATtFUPiRFW_3syn5error5ErrorENtNtNtB7_3ops9try_trait3Try6branchCsaQ2CmD7W1Vs_15zerocopy_derive, symObjAddr: 0x6B30, symBinAddr: 0x1CC24, symSize: 0x88 }
  - { offset: 0x5EB88, size: 0x8, addend: 0x0, symName: __RNvXso_NtCs9f3LFPSIp77_4core6resultINtB5_6ResultyNtNtCsATtFUPiRFW_3syn5error5ErrorENtNtNtB7_3ops9try_trait3Try6branchCsaQ2CmD7W1Vs_15zerocopy_derive, symObjAddr: 0x6BB8, symBinAddr: 0x1CCAC, symSize: 0x88 }
  - { offset: 0x5EC0C, size: 0x8, addend: 0x0, symName: __RNvXsp_NtCs9f3LFPSIp77_4core6resultINtB5_6ResultINtNtCsATtFUPiRFW_3syn10punctuated10PunctuatedNtNtBP_4attr4MetaNtNtBP_5token5CommaENtNtBP_5error5ErrorEINtNtNtB7_3ops9try_trait12FromResidualIBy_NtNtB7_7convert10InfallibleB25_EE13from_residualCsaQ2CmD7W1Vs_15zerocopy_derive, symObjAddr: 0x6C40, symBinAddr: 0x1CD34, symSize: 0x48 }
  - { offset: 0x5EC91, size: 0x8, addend: 0x0, symName: __RNvXsp_NtCs9f3LFPSIp77_4core6resultINtB5_6ResultINtNtCsdze8u8oDPro_5alloc3vec3VecNtNtCsaQ2CmD7W1Vs_15zerocopy_derive4repr10StructReprEIBL_NtNtCsATtFUPiRFW_3syn5error5ErrorEEINtNtNtB7_3ops9try_trait12FromResidualIBy_NtNtB7_7convert10InfallibleB28_EE13from_residualB1l_, symObjAddr: 0x6C88, symBinAddr: 0x1CD7C, symSize: 0x48 }
  - { offset: 0x5ED16, size: 0x8, addend: 0x0, symName: __RNvXsp_NtCs9f3LFPSIp77_4core6resultINtB5_6ResultINtNtCsdze8u8oDPro_5alloc3vec3VecNtNtCsaQ2CmD7W1Vs_15zerocopy_derive4repr8EnumReprEIBL_NtNtCsATtFUPiRFW_3syn5error5ErrorEEINtNtNtB7_3ops9try_trait12FromResidualIBy_NtNtB7_7convert10InfallibleB25_EE13from_residualB1l_, symObjAddr: 0x6CD0, symBinAddr: 0x1CDC4, symSize: 0x48 }
  - { offset: 0x5ED9B, size: 0x8, addend: 0x0, symName: __RNvXsp_NtCs9f3LFPSIp77_4core6resultINtB5_6ResultNtNtCsATtFUPiRFW_3syn3lit6LitIntNtNtBO_5error5ErrorEINtNtNtB7_3ops9try_trait12FromResidualIBy_NtNtB7_7convert10InfallibleB1g_EE13from_residualCsaQ2CmD7W1Vs_15zerocopy_derive, symObjAddr: 0x6D18, symBinAddr: 0x1CE0C, symSize: 0x40 }
  - { offset: 0x5EE20, size: 0x8, addend: 0x0, symName: __RNvXsp_NtCs9f3LFPSIp77_4core6resultINtB5_6ResultNtNtCsaQ2CmD7W1Vs_15zerocopy_derive4repr10StructReprNtNtCsATtFUPiRFW_3syn5error5ErrorEINtNtNtB7_3ops9try_trait12FromResidualIBy_NtNtB7_7convert10InfallibleB1A_EE13from_residualBO_, symObjAddr: 0x6D58, symBinAddr: 0x1CE4C, symSize: 0x40 }
  - { offset: 0x5EEA5, size: 0x8, addend: 0x0, symName: __RNvXsp_NtCs9f3LFPSIp77_4core6resultINtB5_6ResultNtNtCsaQ2CmD7W1Vs_15zerocopy_derive4repr4ReprNtNtCsATtFUPiRFW_3syn5error5ErrorEINtNtNtB7_3ops9try_trait12FromResidualIBy_NtNtB7_7convert10InfallibleB1t_EE13from_residualBO_, symObjAddr: 0x6D98, symBinAddr: 0x1CE8C, symSize: 0x40 }
  - { offset: 0x5EF2A, size: 0x8, addend: 0x0, symName: __RNvXsp_NtCs9f3LFPSIp77_4core6resultINtB5_6ResultNtNtCsaQ2CmD7W1Vs_15zerocopy_derive4repr8EnumReprNtNtCsATtFUPiRFW_3syn5error5ErrorEINtNtNtB7_3ops9try_trait12FromResidualIBy_NtNtB7_7convert10InfallibleB1x_EE13from_residualBO_, symObjAddr: 0x6DD8, symBinAddr: 0x1CECC, symSize: 0x40 }
  - { offset: 0x62902, size: 0x8, addend: 0x0, symName: __RNvXsC_NtNtNtCs9f3LFPSIp77_4core4iter8adapters7flattenRNtNtCsATtFUPiRFW_3syn4data6FieldsNtB5_21ConstSizeIntoIterator4sizeCsaQ2CmD7W1Vs_15zerocopy_derive, symObjAddr: 0x60AC, symBinAddr: 0x1C1A0, symSize: 0x18 }
  - { offset: 0x62A9B, size: 0x8, addend: 0x0, symName: __RINvXs0_NtNtNtCs9f3LFPSIp77_4core4iter8adapters3mapINtB6_3MapIBO_IBO_INtNtNtBc_5slice4iter4IterNtNtCsATtFUPiRFW_3syn5error5ErrorENvMB1x_B1v_16to_compile_errorENCINvXs7_Cs475r2uZUTuc_11proc_macro2NtB2G_11TokenStreamINtNtNtBa_6traits7collect12FromIteratorB37_E9from_iterB11_E0ENCINvXs6_NtB2G_3impNtB4y_11TokenStreamIB3r_B4I_E9from_iterBX_E0ENtNtB3v_8iterator8Iterator4folduNCINvNvB5r_8for_each4callNtCsjLJ1XWNSM6u_10proc_macro11TokenStreamNCINvXsk_B6o_B6m_INtB3t_6ExtendB6m_E6extendBN_E0E0ECsaQ2CmD7W1Vs_15zerocopy_derive, symObjAddr: 0x2E50, symBinAddr: 0x18F44, symSize: 0x34 }
  - { offset: 0x62B0C, size: 0x8, addend: 0x0, symName: __RINvXs0_NtNtNtCs9f3LFPSIp77_4core4iter8adapters3mapINtB6_3MapIBO_INtNtNtBc_5slice4iter4IterNtNtCsATtFUPiRFW_3syn5error5ErrorENvMB1t_B1r_16to_compile_errorENCINvXs7_Cs475r2uZUTuc_11proc_macro2NtB2C_11TokenStreamINtNtNtBa_6traits7collect12FromIteratorB33_E9from_iterBX_E0ENtNtB3r_8iterator8Iterator4folduNCINvB6_8map_foldNtNtB2C_3imp11TokenStreamNtCsjLJ1XWNSM6u_10proc_macro11TokenStreamuNCINvXs6_B59_B57_IB3n_B57_E9from_iterBN_E0NCINvNvB4k_8for_each4callB5w_NCINvXsk_B5y_B5w_INtB3p_6ExtendB5w_E6extendIBO_BN_B6c_EE0E0E0ECsaQ2CmD7W1Vs_15zerocopy_derive, symObjAddr: 0x2E84, symBinAddr: 0x18F78, symSize: 0x34 }
  - { offset: 0x62B7D, size: 0x8, addend: 0x0, symName: __RINvXs0_NtNtNtCs9f3LFPSIp77_4core4iter8adapters3mapINtB6_3MapINtNtNtBc_5slice4iter4IterNtNtCsATtFUPiRFW_3syn5error5ErrorENvMB1p_B1n_16to_compile_errorENtNtNtBa_6traits8iterator8Iterator4folduNCINvB6_8map_foldNtCs475r2uZUTuc_11proc_macro211TokenStreamNtNtB3m_3imp11TokenStreamuNCINvXs7_B3m_B3k_INtNtB2t_7collect12FromIteratorB3k_E9from_iterBN_E0NCIB36_B40_NtCsjLJ1XWNSM6u_10proc_macro11TokenStreamuNCINvXs6_B42_B40_IB4I_B40_E9from_iterIBO_BN_B4q_EE0NCINvNvB2p_8for_each4callB5H_NCINvXsk_B5J_B5H_INtB4K_6ExtendB5H_E6extendIBO_B6Y_B6n_EE0E0E0E0ECsaQ2CmD7W1Vs_15zerocopy_derive, symObjAddr: 0x2EB8, symBinAddr: 0x18FAC, symSize: 0x34 }
  - { offset: 0x62BEE, size: 0x8, addend: 0x0, symName: __RINvXs0_NtNtNtCs9f3LFPSIp77_4core4iter8adapters3mapINtB6_3MapINtNtNtBc_5slice4iter4IterRNtNtCsATtFUPiRFW_3syn2ty4TypeENCINvCsaQ2CmD7W1Vs_15zerocopy_derive10impl_blockNtNtB1s_6derive10DataStructE0ENtNtNtBa_6traits8iterator8Iterator4folduNCINvNvB38_8for_each4callNtNtB1s_8generics14WherePredicateNCINvMsi_NtCsdze8u8oDPro_5alloc3vecINtB4R_3VecB4b_E14extend_trustedBN_E0E0EB1X_, symObjAddr: 0x2EEC, symBinAddr: 0x18FE0, symSize: 0x4C }
  - { offset: 0x62C87, size: 0x8, addend: 0x0, symName: __RINvXs0_NtNtNtCs9f3LFPSIp77_4core4iter8adapters3mapINtB6_3MapINtNtNtBc_5slice4iter4IterRNtNtCsATtFUPiRFW_3syn2ty4TypeENCINvCsaQ2CmD7W1Vs_15zerocopy_derive10impl_blockNtNtB1s_6derive8DataEnumE0ENtNtNtBa_6traits8iterator8Iterator4folduNCINvNvB35_8for_each4callNtNtB1s_8generics14WherePredicateNCINvMsi_NtCsdze8u8oDPro_5alloc3vecINtB4O_3VecB48_E14extend_trustedBN_E0E0EB1X_, symObjAddr: 0x2F38, symBinAddr: 0x1902C, symSize: 0x4C }
  - { offset: 0x62D20, size: 0x8, addend: 0x0, symName: __RINvXs0_NtNtNtCs9f3LFPSIp77_4core4iter8adapters3mapINtB6_3MapINtNtNtBc_5slice4iter4IterRNtNtCsATtFUPiRFW_3syn2ty4TypeENCINvCsaQ2CmD7W1Vs_15zerocopy_derive10impl_blockNtNtB1s_6derive9DataUnionE0ENtNtNtBa_6traits8iterator8Iterator4folduNCINvNvB36_8for_each4callNtNtB1s_8generics14WherePredicateNCINvMsi_NtCsdze8u8oDPro_5alloc3vecINtB4P_3VecB49_E14extend_trustedBN_E0E0EB1X_, symObjAddr: 0x2F84, symBinAddr: 0x19078, symSize: 0x4C }
  - { offset: 0x62DB9, size: 0x8, addend: 0x0, symName: __RINvXs0_NtNtNtCs9f3LFPSIp77_4core4iter8adapters3mapINtB6_3MapINtNtNtCsdze8u8oDPro_5alloc3vec9into_iter8IntoIterTNtNtCsATtFUPiRFW_3syn4attr4MetaNtNtB1Q_5token5CommaEENCNvXs8_NtB1Q_10punctuatedINtB2L_10PunctuatedB1M_B2h_ENtNtNtBa_6traits7collect12IntoIterator9into_iter0ENtNtB3z_8iterator8Iterator4folduNCINvNvB4j_8for_each4callB1M_NCINvMsi_B12_INtB12_3VecB1M_E14extend_trustedBN_E0E0ECsaQ2CmD7W1Vs_15zerocopy_derive, symObjAddr: 0x2FD0, symBinAddr: 0x190C4, symSize: 0x4C }
  - { offset: 0x62E52, size: 0x8, addend: 0x0, symName: __RINvXs0_NtNtNtCs9f3LFPSIp77_4core4iter8adapters3mapINtB6_3MapINtNtNtCsdze8u8oDPro_5alloc3vec9into_iter8IntoIterTNtNtCsATtFUPiRFW_3syn8generics12GenericParamNtNtB1Q_5token5CommaEENCNvXs8_NtB1Q_10punctuatedINtB2Y_10PunctuatedB1M_B2u_ENtNtNtBa_6traits7collect12IntoIterator9into_iter0ENtNtB3M_8iterator8Iterator4folduNCINvNvB4w_8for_each4callB1M_NCINvMsi_B12_INtB12_3VecB1M_E14extend_trustedBN_E0E0ECsaQ2CmD7W1Vs_15zerocopy_derive, symObjAddr: 0x301C, symBinAddr: 0x19110, symSize: 0x4C }
  - { offset: 0x62EEB, size: 0x8, addend: 0x0, symName: __RNvXs0_NtNtNtCs9f3LFPSIp77_4core4iter8adapters3mapINtB5_3MapIBN_IBN_INtNtNtBb_5slice4iter4IterNtNtCsATtFUPiRFW_3syn5error5ErrorENvMB1w_B1u_16to_compile_errorENCINvXs7_Cs475r2uZUTuc_11proc_macro2NtB2F_11TokenStreamINtNtNtB9_6traits7collect12FromIteratorB36_E9from_iterB10_E0ENCINvXs6_NtB2F_3impNtB4x_11TokenStreamIB3q_B4H_E9from_iterBW_E0ENtNtB3u_8iterator8Iterator9size_hintCsaQ2CmD7W1Vs_15zerocopy_derive, symObjAddr: 0x5454, symBinAddr: 0x1B548, symSize: 0x24 }
  - { offset: 0x62F32, size: 0x8, addend: 0x0, symName: __RNvXs0_NtNtNtCs9f3LFPSIp77_4core4iter8adapters3mapINtB5_3MapIBN_IBN_INtNtNtBb_5slice4iter4IterNtNtCsATtFUPiRFW_3syn5error5ErrorENvMB1w_B1u_16to_compile_errorENCINvXs7_Cs475r2uZUTuc_11proc_macro2NtB2F_11TokenStreamINtNtNtB9_6traits7collect12FromIteratorB36_E9from_iterB10_E0ENCINvXs6_NtB2F_3impNtB4x_11TokenStreamIB3q_B4H_E9from_iterBW_Es_0ENtNtB3u_8iterator8Iterator4nextCsaQ2CmD7W1Vs_15zerocopy_derive, symObjAddr: 0x5478, symBinAddr: 0x1B56C, symSize: 0x90 }
  - { offset: 0x62FA4, size: 0x8, addend: 0x0, symName: __RNvXs0_NtNtNtCs9f3LFPSIp77_4core4iter8adapters3mapINtB5_3MapIBN_IBN_INtNtNtBb_5slice4iter4IterNtNtCsATtFUPiRFW_3syn5error5ErrorENvMB1w_B1u_16to_compile_errorENCINvXs7_Cs475r2uZUTuc_11proc_macro2NtB2F_11TokenStreamINtNtNtB9_6traits7collect12FromIteratorB36_E9from_iterB10_E0ENCINvXs6_NtB2F_3impNtB4x_11TokenStreamIB3q_B4H_E9from_iterBW_Es_0ENtNtB3u_8iterator8Iterator9size_hintCsaQ2CmD7W1Vs_15zerocopy_derive, symObjAddr: 0x5508, symBinAddr: 0x1B5FC, symSize: 0x24 }
  - { offset: 0x62FEB, size: 0x8, addend: 0x0, symName: __RNvXs0_NtNtNtCs9f3LFPSIp77_4core4iter8adapters3mapINtB5_3MapIBN_INtNtNtBb_5slice4iter4IterNtNtCsATtFUPiRFW_3syn5error5ErrorENvMB1s_B1q_16to_compile_errorENCINvXs7_Cs475r2uZUTuc_11proc_macro2NtB2B_11TokenStreamINtNtNtB9_6traits7collect12FromIteratorB32_E9from_iterBW_E0ENtNtB3q_8iterator8Iterator4nextCsaQ2CmD7W1Vs_15zerocopy_derive, symObjAddr: 0x552C, symBinAddr: 0x1B620, symSize: 0xAC }
  - { offset: 0x6305D, size: 0x8, addend: 0x0, symName: __RNvXs0_NtNtNtCs9f3LFPSIp77_4core4iter8adapters3mapINtB5_3MapIBN_INtNtNtBb_5slice4iter4IterNtNtCsATtFUPiRFW_3syn5error5ErrorENvMB1s_B1q_16to_compile_errorENCINvXs7_Cs475r2uZUTuc_11proc_macro2NtB2B_11TokenStreamINtNtNtB9_6traits7collect12FromIteratorB32_E9from_iterBW_E0ENtNtB3q_8iterator8Iterator9size_hintCsaQ2CmD7W1Vs_15zerocopy_derive, symObjAddr: 0x55D8, symBinAddr: 0x1B6CC, symSize: 0x24 }
  - { offset: 0x630A4, size: 0x8, addend: 0x0, symName: __RNvXs0_NtNtNtCs9f3LFPSIp77_4core4iter8adapters3mapINtB5_3MapINtNtB7_7flatten7FlatMapINtNtCsATtFUPiRFW_3syn10punctuated4IterNtNtB1p_4data7VariantERNtB1Z_6FieldsNCNvXs0_NtCsaQ2CmD7W1Vs_15zerocopy_derive3extNtNtB1p_6derive8DataEnumNtB2F_7DataExt11field_types0ENCB2z_s_0ENtNtNtB9_6traits8iterator8Iterator4nextB2H_, symObjAddr: 0x55FC, symBinAddr: 0x1B6F0, symSize: 0x74 }
  - { offset: 0x6311E, size: 0x8, addend: 0x0, symName: __RNvXs0_NtNtNtCs9f3LFPSIp77_4core4iter8adapters3mapINtB5_3MapINtNtB7_7flatten7FlatMapINtNtCsATtFUPiRFW_3syn10punctuated4IterNtNtB1p_4data7VariantERNtB1Z_6FieldsNCNvXs0_NtCsaQ2CmD7W1Vs_15zerocopy_derive3extNtNtB1p_6derive8DataEnumNtB2F_7DataExt11field_types0ENCB2z_s_0ENtNtNtB9_6traits8iterator8Iterator9size_hintB2H_, symObjAddr: 0x5670, symBinAddr: 0x1B764, symSize: 0x24 }
  - { offset: 0x63165, size: 0x8, addend: 0x0, symName: __RNvXs0_NtNtNtCs9f3LFPSIp77_4core4iter8adapters3mapINtB5_3MapINtNtCsATtFUPiRFW_3syn10punctuated4IterNtNtB11_4data5FieldENCNvXs1_NtCsaQ2CmD7W1Vs_15zerocopy_derive3extNtNtB11_6derive9DataUnionNtB21_7DataExt11field_types0ENtNtNtB9_6traits8iterator8Iterator4nextB23_, symObjAddr: 0x5694, symBinAddr: 0x1B788, symSize: 0x74 }
  - { offset: 0x631DF, size: 0x8, addend: 0x0, symName: __RNvXs0_NtNtNtCs9f3LFPSIp77_4core4iter8adapters3mapINtB5_3MapINtNtCsATtFUPiRFW_3syn10punctuated4IterNtNtB11_4data5FieldENCNvXs1_NtCsaQ2CmD7W1Vs_15zerocopy_derive3extNtNtB11_6derive9DataUnionNtB21_7DataExt11field_types0ENtNtNtB9_6traits8iterator8Iterator9size_hintB23_, symObjAddr: 0x5708, symBinAddr: 0x1B7FC, symSize: 0x24 }
  - { offset: 0x63226, size: 0x8, addend: 0x0, symName: __RNvXs0_NtNtNtCs9f3LFPSIp77_4core4iter8adapters3mapINtB5_3MapINtNtCsATtFUPiRFW_3syn10punctuated4IterNtNtB11_4data5FieldENCNvXs_NtCsaQ2CmD7W1Vs_15zerocopy_derive3extNtNtB11_6derive10DataStructNtB20_7DataExt11field_types0ENtNtNtB9_6traits8iterator8Iterator4nextB22_, symObjAddr: 0x572C, symBinAddr: 0x1B820, symSize: 0x74 }
  - { offset: 0x632A0, size: 0x8, addend: 0x0, symName: __RNvXs0_NtNtNtCs9f3LFPSIp77_4core4iter8adapters3mapINtB5_3MapINtNtCsATtFUPiRFW_3syn10punctuated4IterNtNtB11_4data5FieldENCNvXs_NtCsaQ2CmD7W1Vs_15zerocopy_derive3extNtNtB11_6derive10DataStructNtB20_7DataExt11field_types0ENtNtNtB9_6traits8iterator8Iterator9size_hintB22_, symObjAddr: 0x57A0, symBinAddr: 0x1B894, symSize: 0x24 }
  - { offset: 0x632E7, size: 0x8, addend: 0x0, symName: __RNvXs0_NtNtNtCs9f3LFPSIp77_4core4iter8adapters3mapINtB5_3MapINtNtCsATtFUPiRFW_3syn10punctuated4IterNtNtB11_4data7VariantENCNvXs0_NtCsaQ2CmD7W1Vs_15zerocopy_derive3extNtNtB11_6derive8DataEnumNtB23_7DataExt11field_types0ENtNtNtB9_6traits8iterator8Iterator4nextB25_, symObjAddr: 0x57C4, symBinAddr: 0x1B8B8, symSize: 0x74 }
  - { offset: 0x63361, size: 0x8, addend: 0x0, symName: __RNvXs0_NtNtNtCs9f3LFPSIp77_4core4iter8adapters3mapINtB5_3MapINtNtCsATtFUPiRFW_3syn10punctuated4IterNtNtB11_4data7VariantENCNvXs0_NtCsaQ2CmD7W1Vs_15zerocopy_derive3extNtNtB11_6derive8DataEnumNtB23_7DataExt11field_types0ENtNtNtB9_6traits8iterator8Iterator9size_hintB25_, symObjAddr: 0x5838, symBinAddr: 0x1B92C, symSize: 0x24 }
  - { offset: 0x633A8, size: 0x8, addend: 0x0, symName: __RNvXs0_NtNtNtCs9f3LFPSIp77_4core4iter8adapters3mapINtB5_3MapINtNtCsATtFUPiRFW_3syn10punctuated4IterNtNtB11_8generics12GenericParamENCINvCsaQ2CmD7W1Vs_15zerocopy_derive10impl_blockNtNtB11_6derive10DataStructEs3_0ENtNtNtB9_6traits8iterator8Iterator4nextB2a_, symObjAddr: 0x585C, symBinAddr: 0x1B950, symSize: 0x90 }
  - { offset: 0x63422, size: 0x8, addend: 0x0, symName: __RNvXs0_NtNtNtCs9f3LFPSIp77_4core4iter8adapters3mapINtB5_3MapINtNtCsATtFUPiRFW_3syn10punctuated4IterNtNtB11_8generics12GenericParamENCINvCsaQ2CmD7W1Vs_15zerocopy_derive10impl_blockNtNtB11_6derive8DataEnumEs3_0ENtNtNtB9_6traits8iterator8Iterator4nextB2a_, symObjAddr: 0x58EC, symBinAddr: 0x1B9E0, symSize: 0x90 }
  - { offset: 0x6349C, size: 0x8, addend: 0x0, symName: __RNvXs0_NtNtNtCs9f3LFPSIp77_4core4iter8adapters3mapINtB5_3MapINtNtCsATtFUPiRFW_3syn10punctuated4IterNtNtB11_8generics12GenericParamENCINvCsaQ2CmD7W1Vs_15zerocopy_derive10impl_blockNtNtB11_6derive9DataUnionEs3_0ENtNtNtB9_6traits8iterator8Iterator4nextB2a_, symObjAddr: 0x597C, symBinAddr: 0x1BA70, symSize: 0x90 }
  - { offset: 0x63516, size: 0x8, addend: 0x0, symName: __RNvXs0_NtNtNtCs9f3LFPSIp77_4core4iter8adapters3mapINtB5_3MapINtNtCsATtFUPiRFW_3syn10punctuated8IntoIterNtNtB11_8generics12GenericParamENCINvCsaQ2CmD7W1Vs_15zerocopy_derive10impl_blockNtNtB11_6derive10DataStructEs2_0ENtNtNtB9_6traits8iterator8Iterator4nextB2e_, symObjAddr: 0x5A0C, symBinAddr: 0x1BB00, symSize: 0xC4 }
  - { offset: 0x63589, size: 0x8, addend: 0x0, symName: __RNvXs0_NtNtNtCs9f3LFPSIp77_4core4iter8adapters3mapINtB5_3MapINtNtCsATtFUPiRFW_3syn10punctuated8IntoIterNtNtB11_8generics12GenericParamENCINvCsaQ2CmD7W1Vs_15zerocopy_derive10impl_blockNtNtB11_6derive8DataEnumEs2_0ENtNtNtB9_6traits8iterator8Iterator4nextB2e_, symObjAddr: 0x5AD0, symBinAddr: 0x1BBC4, symSize: 0xC4 }
  - { offset: 0x635FC, size: 0x8, addend: 0x0, symName: __RNvXs0_NtNtNtCs9f3LFPSIp77_4core4iter8adapters3mapINtB5_3MapINtNtCsATtFUPiRFW_3syn10punctuated8IntoIterNtNtB11_8generics12GenericParamENCINvCsaQ2CmD7W1Vs_15zerocopy_derive10impl_blockNtNtB11_6derive9DataUnionEs2_0ENtNtNtB9_6traits8iterator8Iterator4nextB2e_, symObjAddr: 0x5B94, symBinAddr: 0x1BC88, symSize: 0xC4 }
  - { offset: 0x6366F, size: 0x8, addend: 0x0, symName: __RNvXs0_NtNtNtCs9f3LFPSIp77_4core4iter8adapters3mapINtB5_3MapINtNtNtBb_5slice4iter4IterNtNtCsATtFUPiRFW_3syn5error5ErrorENvMB1o_B1m_16to_compile_errorENtNtNtB9_6traits8iterator8Iterator4nextCsaQ2CmD7W1Vs_15zerocopy_derive, symObjAddr: 0x5C58, symBinAddr: 0x1BD4C, symSize: 0x90 }
  - { offset: 0x636E9, size: 0x8, addend: 0x0, symName: __RNvXs0_NtNtNtCs9f3LFPSIp77_4core4iter8adapters3mapINtB5_3MapINtNtNtBb_5slice4iter4IterNtNtCsATtFUPiRFW_3syn5error5ErrorENvMB1o_B1m_16to_compile_errorENtNtNtB9_6traits8iterator8Iterator9size_hintCsaQ2CmD7W1Vs_15zerocopy_derive, symObjAddr: 0x5CE8, symBinAddr: 0x1BDDC, symSize: 0x24 }
  - { offset: 0x63730, size: 0x8, addend: 0x0, symName: __RNvXs0_NtNtNtCs9f3LFPSIp77_4core4iter8adapters3mapINtB5_3MapINtNtNtBb_5slice4iter4IterRNtNtCsATtFUPiRFW_3syn2ty4TypeENCINvCsaQ2CmD7W1Vs_15zerocopy_derive10impl_blockNtNtB1r_6derive10DataStructE0ENtNtNtB9_6traits8iterator8Iterator9size_hintB1W_, symObjAddr: 0x5D0C, symBinAddr: 0x1BE00, symSize: 0x24 }
  - { offset: 0x63777, size: 0x8, addend: 0x0, symName: __RNvXs0_NtNtNtCs9f3LFPSIp77_4core4iter8adapters3mapINtB5_3MapINtNtNtBb_5slice4iter4IterRNtNtCsATtFUPiRFW_3syn2ty4TypeENCINvCsaQ2CmD7W1Vs_15zerocopy_derive10impl_blockNtNtB1r_6derive8DataEnumE0ENtNtNtB9_6traits8iterator8Iterator9size_hintB1W_, symObjAddr: 0x5D30, symBinAddr: 0x1BE24, symSize: 0x24 }
  - { offset: 0x637BE, size: 0x8, addend: 0x0, symName: __RNvXs0_NtNtNtCs9f3LFPSIp77_4core4iter8adapters3mapINtB5_3MapINtNtNtBb_5slice4iter4IterRNtNtCsATtFUPiRFW_3syn2ty4TypeENCINvCsaQ2CmD7W1Vs_15zerocopy_derive10impl_blockNtNtB1r_6derive9DataUnionE0ENtNtNtB9_6traits8iterator8Iterator9size_hintB1W_, symObjAddr: 0x5D54, symBinAddr: 0x1BE48, symSize: 0x24 }
  - { offset: 0x63805, size: 0x8, addend: 0x0, symName: __RNvXs0_NtNtNtCs9f3LFPSIp77_4core4iter8adapters3mapINtB5_3MapINtNtNtCsdze8u8oDPro_5alloc3vec9into_iter8IntoIterTNtNtCsATtFUPiRFW_3syn4attr4MetaNtNtB1P_5token5CommaEENCNvXs8_NtB1P_10punctuatedINtB2K_10PunctuatedB1L_B2g_ENtNtNtB9_6traits7collect12IntoIterator9into_iter0ENtNtB3y_8iterator8Iterator9size_hintCsaQ2CmD7W1Vs_15zerocopy_derive, symObjAddr: 0x5D78, symBinAddr: 0x1BE6C, symSize: 0x24 }
  - { offset: 0x6384C, size: 0x8, addend: 0x0, symName: __RNvXs0_NtNtNtCs9f3LFPSIp77_4core4iter8adapters3mapINtB5_3MapINtNtNtCsdze8u8oDPro_5alloc3vec9into_iter8IntoIterTNtNtCsATtFUPiRFW_3syn8generics12GenericParamNtNtB1P_5token5CommaEENCNvXs8_NtB1P_10punctuatedINtB2X_10PunctuatedB1L_B2t_ENtNtNtB9_6traits7collect12IntoIterator9into_iter0ENtNtB3L_8iterator8Iterator9size_hintCsaQ2CmD7W1Vs_15zerocopy_derive, symObjAddr: 0x5D9C, symBinAddr: 0x1BE90, symSize: 0x24 }
  - { offset: 0x63983, size: 0x8, addend: 0x0, symName: __RNCINvNtNtNtCs9f3LFPSIp77_4core4iter8adapters3map8map_foldNtCs475r2uZUTuc_11proc_macro211TokenStreamNtNtBW_3imp11TokenStreamuNCINvXs7_BW_BU_INtNtNtB8_6traits7collect12FromIteratorBU_E9from_iterINtB4_3MapINtNtNtBa_5slice4iter4IterNtNtCsATtFUPiRFW_3syn5error5ErrorENvMB3H_B3F_16to_compile_errorEE0NCIB2_B1A_NtCsjLJ1XWNSM6u_10proc_macro11TokenStreamuNCINvXs6_B1C_B1A_IB2f_B1A_E9from_iterIB36_B35_B1Z_EE0NCINvNvNtNtB2j_8iterator8Iterator8for_each4callB4T_NCINvXsk_B4V_B4T_INtB2h_6ExtendB4T_E6extendIB36_B6a_B5z_EE0E0E0E0CsaQ2CmD7W1Vs_15zerocopy_derive, symObjAddr: 0x371C, symBinAddr: 0x19810, symSize: 0x9C }
  - { offset: 0x63A08, size: 0x8, addend: 0x0, symName: __RNCINvNtNtNtCs9f3LFPSIp77_4core4iter8adapters3map8map_foldNtNtCs475r2uZUTuc_11proc_macro23imp11TokenStreamNtCsjLJ1XWNSM6u_10proc_macro11TokenStreamuNCINvXs6_BW_BU_INtNtNtB8_6traits7collect12FromIteratorBU_E9from_iterINtB4_3MapIB3t_INtNtNtBa_5slice4iter4IterNtNtCsATtFUPiRFW_3syn5error5ErrorENvMB49_B47_16to_compile_errorENCINvXs7_BY_NtBY_11TokenStreamIB2C_B5l_E9from_iterB3C_E0EE0NCINvNvNtNtB2G_8iterator8Iterator8for_each4callB1G_NCINvXsk_B1I_B1G_INtB2E_6ExtendB1G_E6extendIB3t_B3s_B2m_EE0E0E0CsaQ2CmD7W1Vs_15zerocopy_derive, symObjAddr: 0x37B8, symBinAddr: 0x198AC, symSize: 0x8C }
  - { offset: 0x63A8D, size: 0x8, addend: 0x0, symName: __RNCINvNtNtNtCs9f3LFPSIp77_4core4iter8adapters3map8map_foldRNtNtCsATtFUPiRFW_3syn5error5ErrorNtCs475r2uZUTuc_11proc_macro211TokenStreamuNvMBX_BV_16to_compile_errorNCIB2_B1s_NtNtB1u_3imp11TokenStreamuNCINvXs7_B1u_B1s_INtNtNtB8_6traits7collect12FromIteratorB1s_E9from_iterINtB4_3MapINtNtNtBa_5slice4iter4IterBV_EB29_EE0NCIB2_B2K_NtCsjLJ1XWNSM6u_10proc_macro11TokenStreamuNCINvXs6_B2M_B2K_IB3s_B2K_E9from_iterIB4k_B4j_B3a_EE0NCINvNvNtNtB3w_8iterator8Iterator8for_each4callB5e_NCINvXsk_B5g_B5e_INtB3u_6ExtendB5e_E6extendIB4k_B6v_B5U_EE0E0E0E0E0CsaQ2CmD7W1Vs_15zerocopy_derive, symObjAddr: 0x3844, symBinAddr: 0x19938, symSize: 0x8C }
  - { offset: 0x63B11, size: 0x8, addend: 0x0, symName: __RNCINvNtNtNtCs9f3LFPSIp77_4core4iter8adapters3map8map_foldRRNtNtCsATtFUPiRFW_3syn2ty4TypeNtNtB10_8generics14WherePredicateuNCINvCsaQ2CmD7W1Vs_15zerocopy_derive10impl_blockNtNtB10_6derive10DataStructE0NCINvNvNtNtNtB8_6traits8iterator8Iterator8for_each4callB1p_NCINvMsi_NtCsdze8u8oDPro_5alloc3vecINtB4i_3VecB1p_E14extend_trustedINtB4_3MapINtNtNtBa_5slice4iter4IterBV_EB1X_EE0E0E0B22_, symObjAddr: 0x38D0, symBinAddr: 0x199C4, symSize: 0x9C }
  - { offset: 0x63B96, size: 0x8, addend: 0x0, symName: __RNCINvNtNtNtCs9f3LFPSIp77_4core4iter8adapters3map8map_foldRRNtNtCsATtFUPiRFW_3syn2ty4TypeNtNtB10_8generics14WherePredicateuNCINvCsaQ2CmD7W1Vs_15zerocopy_derive10impl_blockNtNtB10_6derive8DataEnumE0NCINvNvNtNtNtB8_6traits8iterator8Iterator8for_each4callB1p_NCINvMsi_NtCsdze8u8oDPro_5alloc3vecINtB4f_3VecB1p_E14extend_trustedINtB4_3MapINtNtNtBa_5slice4iter4IterBV_EB1X_EE0E0E0B22_, symObjAddr: 0x396C, symBinAddr: 0x19A60, symSize: 0x9C }
  - { offset: 0x63C1B, size: 0x8, addend: 0x0, symName: __RNCINvNtNtNtCs9f3LFPSIp77_4core4iter8adapters3map8map_foldRRNtNtCsATtFUPiRFW_3syn2ty4TypeNtNtB10_8generics14WherePredicateuNCINvCsaQ2CmD7W1Vs_15zerocopy_derive10impl_blockNtNtB10_6derive9DataUnionE0NCINvNvNtNtNtB8_6traits8iterator8Iterator8for_each4callB1p_NCINvMsi_NtCsdze8u8oDPro_5alloc3vecINtB4g_3VecB1p_E14extend_trustedINtB4_3MapINtNtNtBa_5slice4iter4IterBV_EB1X_EE0E0E0B22_, symObjAddr: 0x3A08, symBinAddr: 0x19AFC, symSize: 0x9C }
  - { offset: 0x63CA0, size: 0x8, addend: 0x0, symName: __RNCINvNtNtNtCs9f3LFPSIp77_4core4iter8adapters3map8map_foldTNtNtCsATtFUPiRFW_3syn4attr4MetaNtNtBZ_5token5CommaEBV_uNCNvXs8_NtBZ_10punctuatedINtB1W_10PunctuatedBV_B1q_ENtNtNtB8_6traits7collect12IntoIterator9into_iter0NCINvNvNtNtB2I_8iterator8Iterator8for_each4callBV_NCINvMsi_NtCsdze8u8oDPro_5alloc3vecINtB4o_3VecBV_E14extend_trustedINtB4_3MapINtNtB4o_9into_iter8IntoIterBU_EB1O_EE0E0E0CsaQ2CmD7W1Vs_15zerocopy_derive, symObjAddr: 0x3AA4, symBinAddr: 0x19B98, symSize: 0xB0 }
  - { offset: 0x63D25, size: 0x8, addend: 0x0, symName: __RNCINvNtNtNtCs9f3LFPSIp77_4core4iter8adapters3map8map_foldTNtNtCsATtFUPiRFW_3syn8generics12GenericParamNtNtBZ_5token5CommaEBV_uNCNvXs8_NtBZ_10punctuatedINtB29_10PunctuatedBV_B1D_ENtNtNtB8_6traits7collect12IntoIterator9into_iter0NCINvNvNtNtB2V_8iterator8Iterator8for_each4callBV_NCINvMsi_NtCsdze8u8oDPro_5alloc3vecINtB4B_3VecBV_E14extend_trustedINtB4_3MapINtNtB4B_9into_iter8IntoIterBU_EB21_EE0E0E0CsaQ2CmD7W1Vs_15zerocopy_derive, symObjAddr: 0x3B54, symBinAddr: 0x19C48, symSize: 0xB4 }
  - { offset: 0x642F0, size: 0x8, addend: 0x0, symName: __RINvXs0_NtNtNtCs9f3LFPSIp77_4core4iter8adapters10filter_mapINtB6_9FilterMapINtNtCsATtFUPiRFW_3syn10punctuated4IterNtNtB1g_4data7VariantENCNvCsaQ2CmD7W1Vs_15zerocopy_derive23derive_from_zeroes_enum0ENtNtNtBa_6traits8iterator8Iterator8try_folduNCINvNvB3a_3any5checkRTNtNtB1g_5token2EqNtNtB1g_4expr4ExprENCB2c_s_0E0INtNtNtBc_3ops12control_flow11ControlFlowuEEB2e_, symObjAddr: 0x2E20, symBinAddr: 0x18F14, symSize: 0x30 }
  - { offset: 0x64374, size: 0x8, addend: 0x0, symName: __RNCINvNtNtNtCs9f3LFPSIp77_4core4iter8adapters10filter_map19filter_map_try_foldRNtNtCsATtFUPiRFW_3syn4data7VariantRTNtNtB1j_5token2EqNtNtB1j_4expr4ExprEuINtNtNtBa_3ops12control_flow11ControlFlowuENCNvCsaQ2CmD7W1Vs_15zerocopy_derive23derive_from_zeroes_enum0NCINvNvNtNtNtB8_6traits8iterator8Iterator3any5checkB1N_NCB39_s_0E0E0B3b_, symObjAddr: 0x3644, symBinAddr: 0x19738, symSize: 0xD8 }
  - { offset: 0x64459, size: 0x8, addend: 0x0, symName: __RINvXs1_NtNtNtCs9f3LFPSIp77_4core4iter8adapters6filterINtB6_6FilterINtNtNtCsdze8u8oDPro_5alloc3vec9into_iter8IntoIterTNtNtCsATtFUPiRFW_3syn4attr4MetaNtNtCsaQ2CmD7W1Vs_15zerocopy_derive4repr10StructReprEENCNvMB2p_INtB2p_6ConfigB2n_E14validate_reprss0_0ENtNtNtBa_6traits8iterator8Iterator4folduNCINvNvB42_8for_each4callB1R_NCB3h_s1_0E0EB2r_, symObjAddr: 0x3068, symBinAddr: 0x1915C, symSize: 0x44 }
  - { offset: 0x644C2, size: 0x8, addend: 0x0, symName: __RINvXs1_NtNtNtCs9f3LFPSIp77_4core4iter8adapters6filterINtB6_6FilterINtNtNtCsdze8u8oDPro_5alloc3vec9into_iter8IntoIterTNtNtCsATtFUPiRFW_3syn4attr4MetaNtNtCsaQ2CmD7W1Vs_15zerocopy_derive4repr8EnumReprEENCNvMB2p_INtB2p_6ConfigB2n_E14validate_reprss0_0ENtNtNtBa_6traits8iterator8Iterator4folduNCINvNvB3Z_8for_each4callB1R_NCB3e_s1_0E0EB2r_, symObjAddr: 0x30AC, symBinAddr: 0x191A0, symSize: 0x44 }
  - { offset: 0x64531, size: 0x8, addend: 0x0, symName: __RNCINvNtNtNtCs9f3LFPSIp77_4core4iter8adapters6filter11filter_foldTNtNtCsATtFUPiRFW_3syn4attr4MetaNtNtCsaQ2CmD7W1Vs_15zerocopy_derive4repr10StructReprEuNCNvMB1z_INtB1z_6ConfigB1x_E14validate_reprss0_0NCINvNvNtNtNtB8_6traits8iterator8Iterator8for_each4callB11_NCB2r_s1_0E0E0B1B_, symObjAddr: 0x3C08, symBinAddr: 0x19CFC, symSize: 0x104 }
  - { offset: 0x645AD, size: 0x8, addend: 0x0, symName: __RNCINvNtNtNtCs9f3LFPSIp77_4core4iter8adapters6filter11filter_foldTNtNtCsATtFUPiRFW_3syn4attr4MetaNtNtCsaQ2CmD7W1Vs_15zerocopy_derive4repr8EnumReprEuNCNvMB1z_INtB1z_6ConfigB1x_E14validate_reprss0_0NCINvNvNtNtNtB8_6traits8iterator8Iterator8for_each4callB11_NCB2o_s1_0E0E0B1B_, symObjAddr: 0x3D0C, symBinAddr: 0x19E00, symSize: 0x104 }
  - { offset: 0x648FA, size: 0x8, addend: 0x0, symName: __RINvYINtNtNtNtCs9f3LFPSIp77_4core4iter8adapters10filter_map9FilterMapINtNtCsATtFUPiRFW_3syn10punctuated4IterNtNtB1a_4data7VariantENCNvCsaQ2CmD7W1Vs_15zerocopy_derive23derive_from_zeroes_enum0ENtNtNtBa_6traits8iterator8Iterator3anyNCB26_s_0EB28_, symObjAddr: 0x31FC, symBinAddr: 0x192F0, symSize: 0x3C }
  - { offset: 0x64949, size: 0x8, addend: 0x0, symName: __RINvYINtNtNtNtCs9f3LFPSIp77_4core4iter8adapters3map3MapIB4_IB4_INtNtNtBc_5slice4iter4IterNtNtCsATtFUPiRFW_3syn5error5ErrorENvMB1r_B1p_16to_compile_errorENCINvXs7_Cs475r2uZUTuc_11proc_macro2NtB2A_11TokenStreamINtNtNtBa_6traits7collect12FromIteratorB31_E9from_iterBV_E0ENCINvXs6_NtB2A_3impNtB4r_11TokenStreamIB3l_B4B_E9from_iterBR_E0ENtNtB3p_8iterator8Iterator8for_eachNCINvXsk_CsjLJ1XWNSM6u_10proc_macroNtB62_11TokenStreamINtB3n_6ExtendB6s_E6extendB3_E0ECsaQ2CmD7W1Vs_15zerocopy_derive, symObjAddr: 0x3238, symBinAddr: 0x1932C, symSize: 0x34 }
  - { offset: 0x64994, size: 0x8, addend: 0x0, symName: __RINvYINtNtNtNtCs9f3LFPSIp77_4core4iter8adapters3map3MapIB4_INtNtNtBc_5slice4iter4IterNtNtCsATtFUPiRFW_3syn5error5ErrorENvMB1n_B1l_16to_compile_errorENCINvXs7_Cs475r2uZUTuc_11proc_macro2NtB2w_11TokenStreamINtNtNtBa_6traits7collect12FromIteratorB2X_E9from_iterBR_E0ENtNtB3l_8iterator8Iterator3mapNtCsjLJ1XWNSM6u_10proc_macro11TokenStreamNCINvXs6_NtB2w_3impNtB5w_11TokenStreamIB3h_B5G_E9from_iterB3_E0ECsaQ2CmD7W1Vs_15zerocopy_derive, symObjAddr: 0x326C, symBinAddr: 0x19360, symSize: 0x1C }
  - { offset: 0x649EC, size: 0x8, addend: 0x0, symName: __RINvYINtNtNtNtCs9f3LFPSIp77_4core4iter8adapters3map3MapIB4_INtNtNtBc_5slice4iter4IterNtNtCsATtFUPiRFW_3syn5error5ErrorENvMB1n_B1l_16to_compile_errorENCINvXs7_Cs475r2uZUTuc_11proc_macro2NtB2w_11TokenStreamINtNtNtBa_6traits7collect12FromIteratorB2X_E9from_iterBR_E0ENtNtB3l_8iterator8Iterator3mapNtNtB2w_8fallback11TokenStreamNCINvXs6_NtB2w_3impNtB5l_11TokenStreamIB3h_B5v_E9from_iterB3_Es_0ECsaQ2CmD7W1Vs_15zerocopy_derive, symObjAddr: 0x3288, symBinAddr: 0x1937C, symSize: 0x1C }
  - { offset: 0x64A44, size: 0x8, addend: 0x0, symName: __RINvYINtNtNtNtCs9f3LFPSIp77_4core4iter8adapters3map3MapIB4_INtNtNtBc_5slice4iter4IterNtNtCsATtFUPiRFW_3syn5error5ErrorENvMB1n_B1l_16to_compile_errorENCINvXs7_Cs475r2uZUTuc_11proc_macro2NtB2w_11TokenStreamINtNtNtBa_6traits7collect12FromIteratorB2X_E9from_iterBR_E0ENtNtB3l_8iterator8Iterator7collectNtNtB2w_3imp11TokenStreamECsaQ2CmD7W1Vs_15zerocopy_derive, symObjAddr: 0x32A4, symBinAddr: 0x19398, symSize: 0x2C }
  - { offset: 0x64A84, size: 0x8, addend: 0x0, symName: __RINvYINtNtNtNtCs9f3LFPSIp77_4core4iter8adapters3map3MapINtNtB8_7flatten7FlatMapINtNtCsATtFUPiRFW_3syn10punctuated4IterNtNtB1k_4data7VariantERNtB1U_6FieldsNCNvXs0_NtCsaQ2CmD7W1Vs_15zerocopy_derive3extNtNtB1k_6derive8DataEnumNtB2A_7DataExt11field_types0ENCB2u_s_0ENtNtNtBa_6traits8iterator8Iterator7collectINtNtCsdze8u8oDPro_5alloc3vec3VecRNtNtB1k_2ty4TypeEEB2C_, symObjAddr: 0x32D0, symBinAddr: 0x193C4, symSize: 0x14 }
  - { offset: 0x64AC5, size: 0x8, addend: 0x0, symName: __RINvYINtNtNtNtCs9f3LFPSIp77_4core4iter8adapters3map3MapINtNtCsATtFUPiRFW_3syn10punctuated4IterNtNtBW_4data5FieldENCNvXs1_NtCsaQ2CmD7W1Vs_15zerocopy_derive3extNtNtBW_6derive9DataUnionNtB1V_7DataExt11field_types0ENtNtNtBa_6traits8iterator8Iterator7collectINtNtCsdze8u8oDPro_5alloc3vec3VecRNtNtBW_2ty4TypeEEB1X_, symObjAddr: 0x32E4, symBinAddr: 0x193D8, symSize: 0x2C }
  - { offset: 0x64B05, size: 0x8, addend: 0x0, symName: __RINvYINtNtNtNtCs9f3LFPSIp77_4core4iter8adapters3map3MapINtNtCsATtFUPiRFW_3syn10punctuated4IterNtNtBW_4data5FieldENCNvXs_NtCsaQ2CmD7W1Vs_15zerocopy_derive3extNtNtBW_6derive10DataStructNtB1U_7DataExt11field_types0ENtNtNtBa_6traits8iterator8Iterator7collectINtNtCsdze8u8oDPro_5alloc3vec3VecRNtNtBW_2ty4TypeEEB1W_, symObjAddr: 0x3310, symBinAddr: 0x19404, symSize: 0x2C }
  - { offset: 0x64B45, size: 0x8, addend: 0x0, symName: __RINvYINtNtNtNtCs9f3LFPSIp77_4core4iter8adapters3map3MapINtNtNtBc_5slice4iter4IterNtNtCsATtFUPiRFW_3syn5error5ErrorENvMB1j_B1h_16to_compile_errorENtNtNtBa_6traits8iterator8Iterator3mapNtNtCs475r2uZUTuc_11proc_macro23imp11TokenStreamNCINvXs7_B2Z_NtB2Z_11TokenStreamINtNtB2n_7collect12FromIteratorB3U_E9from_iterB3_E0ECsaQ2CmD7W1Vs_15zerocopy_derive, symObjAddr: 0x333C, symBinAddr: 0x19430, symSize: 0x1C }
  - { offset: 0x64B9D, size: 0x8, addend: 0x0, symName: __RINvYINtNtNtNtCs9f3LFPSIp77_4core4iter8adapters3map3MapINtNtNtBc_5slice4iter4IterNtNtCsATtFUPiRFW_3syn5error5ErrorENvMB1j_B1h_16to_compile_errorENtNtNtBa_6traits8iterator8Iterator7collectNtCs475r2uZUTuc_11proc_macro211TokenStreamECsaQ2CmD7W1Vs_15zerocopy_derive, symObjAddr: 0x3358, symBinAddr: 0x1944C, symSize: 0x2C }
  - { offset: 0x64BDD, size: 0x8, addend: 0x0, symName: __RINvYINtNtNtNtCs9f3LFPSIp77_4core4iter8adapters3map3MapINtNtNtBc_5slice4iter4IterRNtNtCsATtFUPiRFW_3syn2ty4TypeENCINvCsaQ2CmD7W1Vs_15zerocopy_derive10impl_blockNtNtB1m_6derive10DataStructE0ENtNtNtBa_6traits8iterator8Iterator7collectINtNtCsdze8u8oDPro_5alloc3vec3VecNtNtB1m_8generics14WherePredicateEEB1R_, symObjAddr: 0x3384, symBinAddr: 0x19478, symSize: 0x14 }
  - { offset: 0x64C1E, size: 0x8, addend: 0x0, symName: __RINvYINtNtNtNtCs9f3LFPSIp77_4core4iter8adapters3map3MapINtNtNtBc_5slice4iter4IterRNtNtCsATtFUPiRFW_3syn2ty4TypeENCINvCsaQ2CmD7W1Vs_15zerocopy_derive10impl_blockNtNtB1m_6derive10DataStructE0ENtNtNtBa_6traits8iterator8Iterator8for_eachNCINvMsi_NtCsdze8u8oDPro_5alloc3vecINtB3S_3VecNtNtB1m_8generics14WherePredicateE14extend_trustedB3_E0EB1R_, symObjAddr: 0x3398, symBinAddr: 0x1948C, symSize: 0x34 }
  - { offset: 0x64C8A, size: 0x8, addend: 0x0, symName: __RINvYINtNtNtNtCs9f3LFPSIp77_4core4iter8adapters3map3MapINtNtNtBc_5slice4iter4IterRNtNtCsATtFUPiRFW_3syn2ty4TypeENCINvCsaQ2CmD7W1Vs_15zerocopy_derive10impl_blockNtNtB1m_6derive8DataEnumE0ENtNtNtBa_6traits8iterator8Iterator7collectINtNtCsdze8u8oDPro_5alloc3vec3VecNtNtB1m_8generics14WherePredicateEEB1R_, symObjAddr: 0x33CC, symBinAddr: 0x194C0, symSize: 0x14 }
  - { offset: 0x64CCB, size: 0x8, addend: 0x0, symName: __RINvYINtNtNtNtCs9f3LFPSIp77_4core4iter8adapters3map3MapINtNtNtBc_5slice4iter4IterRNtNtCsATtFUPiRFW_3syn2ty4TypeENCINvCsaQ2CmD7W1Vs_15zerocopy_derive10impl_blockNtNtB1m_6derive8DataEnumE0ENtNtNtBa_6traits8iterator8Iterator8for_eachNCINvMsi_NtCsdze8u8oDPro_5alloc3vecINtB3P_3VecNtNtB1m_8generics14WherePredicateE14extend_trustedB3_E0EB1R_, symObjAddr: 0x33E0, symBinAddr: 0x194D4, symSize: 0x34 }
  - { offset: 0x64D37, size: 0x8, addend: 0x0, symName: __RINvYINtNtNtNtCs9f3LFPSIp77_4core4iter8adapters3map3MapINtNtNtBc_5slice4iter4IterRNtNtCsATtFUPiRFW_3syn2ty4TypeENCINvCsaQ2CmD7W1Vs_15zerocopy_derive10impl_blockNtNtB1m_6derive9DataUnionE0ENtNtNtBa_6traits8iterator8Iterator7collectINtNtCsdze8u8oDPro_5alloc3vec3VecNtNtB1m_8generics14WherePredicateEEB1R_, symObjAddr: 0x3414, symBinAddr: 0x19508, symSize: 0x14 }
  - { offset: 0x64D78, size: 0x8, addend: 0x0, symName: __RINvYINtNtNtNtCs9f3LFPSIp77_4core4iter8adapters3map3MapINtNtNtBc_5slice4iter4IterRNtNtCsATtFUPiRFW_3syn2ty4TypeENCINvCsaQ2CmD7W1Vs_15zerocopy_derive10impl_blockNtNtB1m_6derive9DataUnionE0ENtNtNtBa_6traits8iterator8Iterator8for_eachNCINvMsi_NtCsdze8u8oDPro_5alloc3vecINtB3Q_3VecNtNtB1m_8generics14WherePredicateE14extend_trustedB3_E0EB1R_, symObjAddr: 0x3428, symBinAddr: 0x1951C, symSize: 0x34 }
  - { offset: 0x64DE4, size: 0x8, addend: 0x0, symName: __RINvYINtNtNtNtCs9f3LFPSIp77_4core4iter8adapters3map3MapINtNtNtCsdze8u8oDPro_5alloc3vec9into_iter8IntoIterTNtNtCsATtFUPiRFW_3syn4attr4MetaNtNtB1K_5token5CommaEENCNvXs8_NtB1K_10punctuatedINtB2F_10PunctuatedB1G_B2b_ENtNtNtBa_6traits7collect12IntoIterator9into_iter0ENtNtB3t_8iterator8Iterator8for_eachNCINvMsi_BW_INtBW_3VecB1G_E14extend_trustedB3_E0ECsaQ2CmD7W1Vs_15zerocopy_derive, symObjAddr: 0x345C, symBinAddr: 0x19550, symSize: 0x34 }
  - { offset: 0x64E50, size: 0x8, addend: 0x0, symName: __RINvYINtNtNtNtCs9f3LFPSIp77_4core4iter8adapters3map3MapINtNtNtCsdze8u8oDPro_5alloc3vec9into_iter8IntoIterTNtNtCsATtFUPiRFW_3syn8generics12GenericParamNtNtB1K_5token5CommaEENCNvXs8_NtB1K_10punctuatedINtB2S_10PunctuatedB1G_B2o_ENtNtNtBa_6traits7collect12IntoIterator9into_iter0ENtNtB3G_8iterator8Iterator8for_eachNCINvMsi_BW_INtBW_3VecB1G_E14extend_trustedB3_E0ECsaQ2CmD7W1Vs_15zerocopy_derive, symObjAddr: 0x3490, symBinAddr: 0x19584, symSize: 0x34 }
  - { offset: 0x64EBC, size: 0x8, addend: 0x0, symName: __RINvYINtNtNtNtCs9f3LFPSIp77_4core4iter8adapters6filter6FilterINtNtNtCsdze8u8oDPro_5alloc3vec9into_iter8IntoIterTNtNtCsATtFUPiRFW_3syn4attr4MetaNtNtCsaQ2CmD7W1Vs_15zerocopy_derive4repr10StructReprEENCNvMB2j_INtB2j_6ConfigB2h_E14validate_reprss0_0ENtNtNtBa_6traits8iterator8Iterator8for_eachNCB3b_s1_0EB2l_, symObjAddr: 0x34C4, symBinAddr: 0x195B8, symSize: 0x2C }
  - { offset: 0x64F08, size: 0x8, addend: 0x0, symName: __RINvYINtNtNtNtCs9f3LFPSIp77_4core4iter8adapters6filter6FilterINtNtNtCsdze8u8oDPro_5alloc3vec9into_iter8IntoIterTNtNtCsATtFUPiRFW_3syn4attr4MetaNtNtCsaQ2CmD7W1Vs_15zerocopy_derive4repr8EnumReprEENCNvMB2j_INtB2j_6ConfigB2h_E14validate_reprss0_0ENtNtNtBa_6traits8iterator8Iterator8for_eachNCB38_s1_0EB2l_, symObjAddr: 0x34F0, symBinAddr: 0x195E4, symSize: 0x2C }
  - { offset: 0x64F54, size: 0x8, addend: 0x0, symName: __RNvYINtNtNtNtCs9f3LFPSIp77_4core4iter8adapters3map3MapIB3_IB3_INtNtNtBb_5slice4iter4IterNtNtCsATtFUPiRFW_3syn5error5ErrorENvMB1q_B1o_16to_compile_errorENCINvXs7_Cs475r2uZUTuc_11proc_macro2NtB2z_11TokenStreamINtNtNtB9_6traits7collect12FromIteratorB30_E9from_iterBU_E0ENCINvXs6_NtB2z_3impNtB4q_11TokenStreamIB3k_B4A_E9from_iterBQ_Es_0ENtNtB3o_8iterator8Iterator4fuseCsaQ2CmD7W1Vs_15zerocopy_derive, symObjAddr: 0x6E18, symBinAddr: 0x1CF0C, symSize: 0x2C }
  - { offset: 0x64FA9, size: 0x8, addend: 0x0, symName: __RNvYINtNtNtNtCs9f3LFPSIp77_4core4iter8adapters3map3MapIB3_IB3_INtNtNtBb_5slice4iter4IterNtNtCsATtFUPiRFW_3syn5error5ErrorENvMB1q_B1o_16to_compile_errorENCINvXs7_Cs475r2uZUTuc_11proc_macro2NtB2z_11TokenStreamINtNtNtB9_6traits7collect12FromIteratorB30_E9from_iterBU_E0ENCINvXs6_NtB2z_3impNtB4q_11TokenStreamIB3k_B4A_E9from_iterBQ_Es_0ENtNtB3o_8iterator8Iterator7flattenCsaQ2CmD7W1Vs_15zerocopy_derive, symObjAddr: 0x6E44, symBinAddr: 0x1CF38, symSize: 0x78 }
  - { offset: 0x65047, size: 0x8, addend: 0x0, symName: __RNvXs_NtNtNtCs9f3LFPSIp77_4core4iter6traits7collectINtNtNtB8_8adapters3map3MapIBO_IBO_INtNtNtBa_5slice4iter4IterNtNtCsATtFUPiRFW_3syn5error5ErrorENvMB1O_B1M_16to_compile_errorENCINvXs7_Cs475r2uZUTuc_11proc_macro2NtB2X_11TokenStreamINtB4_12FromIteratorB3o_E9from_iterB1i_E0ENCINvXs6_NtB2X_3impNtB4w_11TokenStreamIB3I_B4G_E9from_iterB1e_E0ENtB4_12IntoIterator9into_iterCsaQ2CmD7W1Vs_15zerocopy_derive, symObjAddr: 0x635C, symBinAddr: 0x1C450, symSize: 0x1C }
  - { offset: 0x6507E, size: 0x8, addend: 0x0, symName: __RNvXs_NtNtNtCs9f3LFPSIp77_4core4iter6traits7collectINtNtNtB8_8adapters3map3MapIBO_IBO_INtNtNtBa_5slice4iter4IterNtNtCsATtFUPiRFW_3syn5error5ErrorENvMB1O_B1M_16to_compile_errorENCINvXs7_Cs475r2uZUTuc_11proc_macro2NtB2X_11TokenStreamINtB4_12FromIteratorB3o_E9from_iterB1i_E0ENCINvXs6_NtB2X_3impNtB4w_11TokenStreamIB3I_B4G_E9from_iterB1e_Es_0ENtB4_12IntoIterator9into_iterCsaQ2CmD7W1Vs_15zerocopy_derive, symObjAddr: 0x6378, symBinAddr: 0x1C46C, symSize: 0x1C }
  - { offset: 0x650B5, size: 0x8, addend: 0x0, symName: __RNvXs_NtNtNtCs9f3LFPSIp77_4core4iter6traits7collectINtNtNtB8_8adapters3map3MapIBO_INtNtNtBa_5slice4iter4IterNtNtCsATtFUPiRFW_3syn5error5ErrorENvMB1K_B1I_16to_compile_errorENCINvXs7_Cs475r2uZUTuc_11proc_macro2NtB2T_11TokenStreamINtB4_12FromIteratorB3k_E9from_iterB1e_E0ENtB4_12IntoIterator9into_iterCsaQ2CmD7W1Vs_15zerocopy_derive, symObjAddr: 0x6394, symBinAddr: 0x1C488, symSize: 0x1C }
  - { offset: 0x650EC, size: 0x8, addend: 0x0, symName: __RNvXs_NtNtNtCs9f3LFPSIp77_4core4iter6traits7collectINtNtNtB8_8adapters3map3MapINtNtBS_7flatten7FlatMapINtNtCsATtFUPiRFW_3syn10punctuated4IterNtNtB1H_4data7VariantERNtB2h_6FieldsNCNvXs0_NtCsaQ2CmD7W1Vs_15zerocopy_derive3extNtNtB1H_6derive8DataEnumNtB2X_7DataExt11field_types0ENCB2R_s_0ENtB4_12IntoIterator9into_iterB2Z_, symObjAddr: 0x63B0, symBinAddr: 0x1C4A4, symSize: 0x30 }
  - { offset: 0x65124, size: 0x8, addend: 0x0, symName: __RNvXs_NtNtNtCs9f3LFPSIp77_4core4iter6traits7collectINtNtNtB8_8adapters3map3MapINtNtCsATtFUPiRFW_3syn10punctuated4IterNtNtB1j_4data5FieldENCNvXs1_NtCsaQ2CmD7W1Vs_15zerocopy_derive3extNtNtB1j_6derive9DataUnionNtB2j_7DataExt11field_types0ENtB4_12IntoIterator9into_iterB2l_, symObjAddr: 0x63E0, symBinAddr: 0x1C4D4, symSize: 0x1C }
  - { offset: 0x6515B, size: 0x8, addend: 0x0, symName: __RNvXs_NtNtNtCs9f3LFPSIp77_4core4iter6traits7collectINtNtNtB8_8adapters3map3MapINtNtCsATtFUPiRFW_3syn10punctuated4IterNtNtB1j_4data5FieldENCNvXs_NtCsaQ2CmD7W1Vs_15zerocopy_derive3extNtNtB1j_6derive10DataStructNtB2i_7DataExt11field_types0ENtB4_12IntoIterator9into_iterB2k_, symObjAddr: 0x63FC, symBinAddr: 0x1C4F0, symSize: 0x1C }
  - { offset: 0x65192, size: 0x8, addend: 0x0, symName: __RNvXs_NtNtNtCs9f3LFPSIp77_4core4iter6traits7collectINtNtNtB8_8adapters3map3MapINtNtNtBa_5slice4iter4IterNtNtCsATtFUPiRFW_3syn5error5ErrorENvMB1G_B1E_16to_compile_errorENtB4_12IntoIterator9into_iterCsaQ2CmD7W1Vs_15zerocopy_derive, symObjAddr: 0x6418, symBinAddr: 0x1C50C, symSize: 0x1C }
  - { offset: 0x651C9, size: 0x8, addend: 0x0, symName: __RNvXs_NtNtNtCs9f3LFPSIp77_4core4iter6traits7collectINtNtNtB8_8adapters3map3MapINtNtNtBa_5slice4iter4IterRNtNtCsATtFUPiRFW_3syn2ty4TypeENCINvCsaQ2CmD7W1Vs_15zerocopy_derive10impl_blockNtNtB1J_6derive10DataStructE0ENtB4_12IntoIterator9into_iterB2e_, symObjAddr: 0x6434, symBinAddr: 0x1C528, symSize: 0x18 }
  - { offset: 0x65200, size: 0x8, addend: 0x0, symName: __RNvXs_NtNtNtCs9f3LFPSIp77_4core4iter6traits7collectINtNtNtB8_8adapters3map3MapINtNtNtBa_5slice4iter4IterRNtNtCsATtFUPiRFW_3syn2ty4TypeENCINvCsaQ2CmD7W1Vs_15zerocopy_derive10impl_blockNtNtB1J_6derive8DataEnumE0ENtB4_12IntoIterator9into_iterB2e_, symObjAddr: 0x644C, symBinAddr: 0x1C540, symSize: 0x18 }
  - { offset: 0x65237, size: 0x8, addend: 0x0, symName: __RNvXs_NtNtNtCs9f3LFPSIp77_4core4iter6traits7collectINtNtNtB8_8adapters3map3MapINtNtNtBa_5slice4iter4IterRNtNtCsATtFUPiRFW_3syn2ty4TypeENCINvCsaQ2CmD7W1Vs_15zerocopy_derive10impl_blockNtNtB1J_6derive9DataUnionE0ENtB4_12IntoIterator9into_iterB2e_, symObjAddr: 0x6464, symBinAddr: 0x1C558, symSize: 0x18 }
  - { offset: 0x6526E, size: 0x8, addend: 0x0, symName: __RNvXs_NtNtNtCs9f3LFPSIp77_4core4iter6traits7collectINtNtNtB8_8adapters3map3MapINtNtNtCsdze8u8oDPro_5alloc3vec9into_iter8IntoIterTNtNtCsATtFUPiRFW_3syn4attr4MetaNtNtB27_5token5CommaEENCNvXs8_NtB27_10punctuatedINtB32_10PunctuatedB23_B2y_ENtB4_12IntoIterator9into_iter0EB3M_9into_iterCsaQ2CmD7W1Vs_15zerocopy_derive, symObjAddr: 0x647C, symBinAddr: 0x1C570, symSize: 0x14 }
  - { offset: 0x652A5, size: 0x8, addend: 0x0, symName: __RNvXs_NtNtNtCs9f3LFPSIp77_4core4iter6traits7collectINtNtNtB8_8adapters3map3MapINtNtNtCsdze8u8oDPro_5alloc3vec9into_iter8IntoIterTNtNtCsATtFUPiRFW_3syn8generics12GenericParamNtNtB27_5token5CommaEENCNvXs8_NtB27_10punctuatedINtB3f_10PunctuatedB23_B2L_ENtB4_12IntoIterator9into_iter0EB3Z_9into_iterCsaQ2CmD7W1Vs_15zerocopy_derive, symObjAddr: 0x6490, symBinAddr: 0x1C584, symSize: 0x14 }
  - { offset: 0x654D6, size: 0x8, addend: 0x0, symName: __RNvMNtCs9f3LFPSIp77_4core5sliceSNtNtCsATtFUPiRFW_3syn4attr4Meta4iterCsaQ2CmD7W1Vs_15zerocopy_derive, symObjAddr: 0x3E70, symBinAddr: 0x19F64, symSize: 0x28 }
  - { offset: 0x6550D, size: 0x8, addend: 0x0, symName: __RNvMNtCs9f3LFPSIp77_4core5sliceSNtNtCsATtFUPiRFW_3syn8generics14WherePredicate4iterCsaQ2CmD7W1Vs_15zerocopy_derive, symObjAddr: 0x3E98, symBinAddr: 0x19F8C, symSize: 0x28 }
  - { offset: 0x6556B, size: 0x8, addend: 0x0, symName: __RNvMNtCs9f3LFPSIp77_4core5sliceSTNtNtCsATtFUPiRFW_3syn4attr4MetaNtNtCsaQ2CmD7W1Vs_15zerocopy_derive4repr10StructReprE22split_at_mut_uncheckedB14_, symObjAddr: 0x3EC0, symBinAddr: 0x19FB4, symSize: 0xF8 }
  - { offset: 0x656CD, size: 0x8, addend: 0x0, symName: __RNvMNtCs9f3LFPSIp77_4core5sliceSTNtNtCsATtFUPiRFW_3syn4attr4MetaNtNtCsaQ2CmD7W1Vs_15zerocopy_derive4repr10StructReprE4iterB14_, symObjAddr: 0x3FB8, symBinAddr: 0x1A0AC, symSize: 0x28 }
  - { offset: 0x65770, size: 0x8, addend: 0x0, symName: __RNvMNtCs9f3LFPSIp77_4core5sliceSTNtNtCsATtFUPiRFW_3syn4attr4MetaNtNtCsaQ2CmD7W1Vs_15zerocopy_derive4repr10StructReprE7reverseB14_, symObjAddr: 0x3FE0, symBinAddr: 0x1A0D4, symSize: 0x10C }
  - { offset: 0x65931, size: 0x8, addend: 0x0, symName: __RNvMNtCs9f3LFPSIp77_4core5sliceSTNtNtCsATtFUPiRFW_3syn4attr4MetaNtNtCsaQ2CmD7W1Vs_15zerocopy_derive4repr4ReprE4iterB14_, symObjAddr: 0x40EC, symBinAddr: 0x1A1E0, symSize: 0x28 }
  - { offset: 0x6598F, size: 0x8, addend: 0x0, symName: __RNvMNtCs9f3LFPSIp77_4core5sliceSTNtNtCsATtFUPiRFW_3syn4attr4MetaNtNtCsaQ2CmD7W1Vs_15zerocopy_derive4repr8EnumReprE22split_at_mut_uncheckedB14_, symObjAddr: 0x4114, symBinAddr: 0x1A208, symSize: 0xF8 }
  - { offset: 0x65AF1, size: 0x8, addend: 0x0, symName: __RNvMNtCs9f3LFPSIp77_4core5sliceSTNtNtCsATtFUPiRFW_3syn4attr4MetaNtNtCsaQ2CmD7W1Vs_15zerocopy_derive4repr8EnumReprE4iterB14_, symObjAddr: 0x420C, symBinAddr: 0x1A300, symSize: 0x28 }
  - { offset: 0x65B94, size: 0x8, addend: 0x0, symName: __RNvMNtCs9f3LFPSIp77_4core5sliceSTNtNtCsATtFUPiRFW_3syn4attr4MetaNtNtCsaQ2CmD7W1Vs_15zerocopy_derive4repr8EnumReprE7reverseB14_, symObjAddr: 0x4234, symBinAddr: 0x1A328, symSize: 0x10C }
  - { offset: 0x65E20, size: 0x8, addend: 0x0, symName: __RNvNvNtNtCs9f3LFPSIp77_4core5slice3raw14from_raw_parts18precondition_checkCsaQ2CmD7W1Vs_15zerocopy_derive, symObjAddr: 0x50A0, symBinAddr: 0x1B194, symSize: 0x164 }
  - { offset: 0x65F7A, size: 0x8, addend: 0x0, symName: __RNvNvNtNtCs9f3LFPSIp77_4core5slice3raw18from_raw_parts_mut18precondition_checkCsaQ2CmD7W1Vs_15zerocopy_derive, symObjAddr: 0x5204, symBinAddr: 0x1B2F8, symSize: 0x164 }
  - { offset: 0x660E4, size: 0x8, addend: 0x0, symName: __RNvXs0_NtNtNtNtCs9f3LFPSIp77_4core5slice4sort6stable9quicksortTNtNtCsATtFUPiRFW_3syn4attr4MetaNtNtCsaQ2CmD7W1Vs_15zerocopy_derive4repr10StructReprENtB5_8IsFreeze9is_freezeB1y_, symObjAddr: 0x5DC0, symBinAddr: 0x1BEB4, symSize: 0xC }
  - { offset: 0x6610B, size: 0x8, addend: 0x0, symName: __RNvXs0_NtNtNtNtCs9f3LFPSIp77_4core5slice4sort6stable9quicksortTNtNtCsATtFUPiRFW_3syn4attr4MetaNtNtCsaQ2CmD7W1Vs_15zerocopy_derive4repr8EnumReprENtB5_8IsFreeze9is_freezeB1y_, symObjAddr: 0x5DCC, symBinAddr: 0x1BEC0, symSize: 0xC }
  - { offset: 0x66358, size: 0x8, addend: 0x0, symName: __RINvNtCs9f3LFPSIp77_4core10intrinsics10typed_swapTNtNtCsATtFUPiRFW_3syn4attr4MetaNtNtCsaQ2CmD7W1Vs_15zerocopy_derive4repr10StructReprEEB1l_, symObjAddr: 0x4BC, symBinAddr: 0x165D8, symSize: 0x3C }
  - { offset: 0x6639A, size: 0x8, addend: 0x0, symName: __RINvNtCs9f3LFPSIp77_4core10intrinsics10typed_swapTNtNtCsATtFUPiRFW_3syn4attr4MetaNtNtCsaQ2CmD7W1Vs_15zerocopy_derive4repr8EnumReprEEB1l_, symObjAddr: 0x4F8, symBinAddr: 0x16614, symSize: 0x3C }
  - { offset: 0x663DC, size: 0x8, addend: 0x0, symName: __RNvNtCs9f3LFPSIp77_4core10intrinsics6likelyCsaQ2CmD7W1Vs_15zerocopy_derive, symObjAddr: 0x488C, symBinAddr: 0x1A980, symSize: 0x10 }
  - { offset: 0x6640A, size: 0x8, addend: 0x0, symName: __RNvNtCs9f3LFPSIp77_4core10intrinsics8unlikelyCsaQ2CmD7W1Vs_15zerocopy_derive, symObjAddr: 0x489C, symBinAddr: 0x1A990, symSize: 0x10 }
  - { offset: 0x6643D, size: 0x8, addend: 0x0, symName: __RNvNvNtCs9f3LFPSIp77_4core10intrinsics19copy_nonoverlapping18precondition_checkCsaQ2CmD7W1Vs_15zerocopy_derive, symObjAddr: 0x4EB4, symBinAddr: 0x1AFA8, symSize: 0x1EC }
  - { offset: 0x6668F, size: 0x8, addend: 0x0, symName: __RINvNtCs9f3LFPSIp77_4core9panicking13panic_displayNtNtCsATtFUPiRFW_3syn5error5ErrorECsaQ2CmD7W1Vs_15zerocopy_derive, symObjAddr: 0x2A5C, symBinAddr: 0x18B78, symSize: 0x98 }
  - { offset: 0x667F5, size: 0x8, addend: 0x0, symName: __RNvYNCNkNvNtNtNtCsjLJ1XWNSM6u_10proc_macro6bridge6client5state12BRIDGE_STATE0s_0INtNtNtCs9f3LFPSIp77_4core3ops8function6FnOnceTINtNtB1n_6option6OptionQIB22_INtNtB1n_4cell4CellPuEEEEE9call_onceCsaQ2CmD7W1Vs_15zerocopy_derive, symObjAddr: 0x6FAC, symBinAddr: 0x1D0A0, symSize: 0x4C }
  - { offset: 0x66839, size: 0x8, addend: 0x0, symName: __RNvYNvMNtCsATtFUPiRFW_3syn10punctuatedINtB5_10PunctuatedNtNtB7_4attr4MetaNtNtB7_5token5CommaE16parse_terminatedINtNtNtCs9f3LFPSIp77_4core3ops8function6FnOnceTRNtNtB7_5parse11ParseBufferEE9call_onceCsaQ2CmD7W1Vs_15zerocopy_derive, symObjAddr: 0x70C0, symBinAddr: 0x1D1B4, symSize: 0x24 }
  - { offset: 0x6687D, size: 0x8, addend: 0x0, symName: __RNvYNvYINtNtCsATtFUPiRFW_3syn10punctuated4IterNtNtBa_4data5FieldENtNtNtNtCs9f3LFPSIp77_4core4iter6traits8iterator8Iterator4nextINtNtNtB19_3ops8function6FnOnceTQB5_EE9call_onceCsaQ2CmD7W1Vs_15zerocopy_derive, symObjAddr: 0x710C, symBinAddr: 0x1D200, symSize: 0x24 }
  - { offset: 0x668C1, size: 0x8, addend: 0x0, symName: __RNvYNvYINtNtCsATtFUPiRFW_3syn10punctuated4IterNtNtBa_4data5FieldENtNtNtNtCs9f3LFPSIp77_4core4iter6traits8iterator8Iterator9size_hintINtNtNtB19_3ops8function6FnOnceTRB5_EE9call_onceCsaQ2CmD7W1Vs_15zerocopy_derive, symObjAddr: 0x7130, symBinAddr: 0x1D224, symSize: 0x24 }
  - { offset: 0x66905, size: 0x8, addend: 0x0, symName: __RNvYNvYINtNtCsATtFUPiRFW_3syn10punctuated4IterNtNtBa_8generics14WherePredicateENtNtNtNtCs9f3LFPSIp77_4core4iter6traits8iterator8Iterator4nextINtNtNtB1n_3ops8function6FnOnceTQB5_EE9call_onceCsaQ2CmD7W1Vs_15zerocopy_derive, symObjAddr: 0x7154, symBinAddr: 0x1D248, symSize: 0x24 }
  - { offset: 0x66949, size: 0x8, addend: 0x0, symName: __RNvYNvYINtNtNtNtCs9f3LFPSIp77_4core4iter8adapters3map3MapINtNtCsATtFUPiRFW_3syn10punctuated4IterNtNtBY_4data7VariantENCNvXs0_NtCsaQ2CmD7W1Vs_15zerocopy_derive3extNtNtBY_6derive8DataEnumNtB1Z_7DataExt11field_types0ENtNtNtBc_6traits8iterator8Iterator4nextINtNtNtBe_3ops8function6FnOnceTQB5_EE9call_onceB21_, symObjAddr: 0x7178, symBinAddr: 0x1D26C, symSize: 0x24 }
  - { offset: 0x6698D, size: 0x8, addend: 0x0, symName: __RNvYNvYINtNtNtNtCs9f3LFPSIp77_4core4iter8adapters5chain5ChainIB6_INtNtBa_7flatten7FlattenINtNtBe_6option8IntoIterINtNtCsATtFUPiRFW_3syn10punctuated4IterNtNtB1S_8generics14WherePredicateEEEINtNtNtBe_5slice4iter4IterB2q_EEINtB1s_4IterB2q_EENtNtNtBc_6traits8iterator8Iterator4nextINtNtNtBe_3ops8function6FnOnceTQB5_EE9call_onceCsaQ2CmD7W1Vs_15zerocopy_derive, symObjAddr: 0x719C, symBinAddr: 0x1D290, symSize: 0x24 }
  - { offset: 0x669D1, size: 0x8, addend: 0x0, symName: __RNvYNvYINtNtNtNtCs9f3LFPSIp77_4core4iter8adapters5chain5ChainINtNtBa_7flatten7FlattenINtNtBe_6option8IntoIterINtNtCsATtFUPiRFW_3syn10punctuated4IterNtNtB1O_8generics14WherePredicateEEEINtNtNtBe_5slice4iter4IterB2m_EENtNtNtBc_6traits8iterator8Iterator4nextINtNtNtBe_3ops8function6FnOnceTQB5_EE9call_onceCsaQ2CmD7W1Vs_15zerocopy_derive, symObjAddr: 0x71C0, symBinAddr: 0x1D2B4, symSize: 0x24 }
  - { offset: 0x66A15, size: 0x8, addend: 0x0, symName: __RNvYNvYINtNtNtNtCs9f3LFPSIp77_4core4iter8adapters7flatten7FlattenINtNtBe_6option8IntoIterINtNtCsATtFUPiRFW_3syn10punctuated4IterNtNtB1u_8generics14WherePredicateEEENtNtNtBc_6traits8iterator8Iterator4nextINtNtNtBe_3ops8function6FnOnceTQB5_EE9call_onceCsaQ2CmD7W1Vs_15zerocopy_derive, symObjAddr: 0x71E4, symBinAddr: 0x1D2D8, symSize: 0x24 }
  - { offset: 0x66A59, size: 0x8, addend: 0x0, symName: __RNvYNvYNtNtCsATtFUPiRFW_3syn3lit6LitIntNtNtB9_5parse5Parse5parseINtNtNtCs9f3LFPSIp77_4core3ops8function6FnOnceTRNtBD_11ParseBufferEE9call_onceCsaQ2CmD7W1Vs_15zerocopy_derive, symObjAddr: 0x7208, symBinAddr: 0x1D2FC, symSize: 0x24 }
  - { offset: 0x66A9D, size: 0x8, addend: 0x0, symName: __RNvYNvYNtNtCsATtFUPiRFW_3syn6derive11DeriveInputNtNtB9_5parse5Parse5parseINtNtNtCs9f3LFPSIp77_4core3ops8function6FnOnceTRNtBM_11ParseBufferEE9call_onceCsaQ2CmD7W1Vs_15zerocopy_derive, symObjAddr: 0x722C, symBinAddr: 0x1D320, symSize: 0x24 }
  - { offset: 0x66AE1, size: 0x8, addend: 0x0, symName: __RNvYNvYNtNtCsATtFUPiRFW_3syn8generics14WherePredicateNtNtB9_11parse_quote10ParseQuote5parseINtNtNtCs9f3LFPSIp77_4core3ops8function6FnOnceTRNtNtB9_5parse11ParseBufferEE9call_onceCsaQ2CmD7W1Vs_15zerocopy_derive, symObjAddr: 0x7250, symBinAddr: 0x1D344, symSize: 0x24 }
  - { offset: 0x66B25, size: 0x8, addend: 0x0, symName: __RNvYNvYNtNtCsaQ2CmD7W1Vs_15zerocopy_derive4repr10StructReprNtNtCs9f3LFPSIp77_4core3cmp3Ord3cmpINtNtNtBZ_3ops8function6FnOnceTRB5_B1Z_EE9call_onceB9_, symObjAddr: 0x7274, symBinAddr: 0x1D368, symSize: 0x2C }
  - { offset: 0x66B69, size: 0x8, addend: 0x0, symName: __RNvYNvYNtNtCsaQ2CmD7W1Vs_15zerocopy_derive4repr4ReprNtNtCs9f3LFPSIp77_4core3cmp3Ord3cmpINtNtNtBS_3ops8function6FnOnceTRB5_B1S_EE9call_onceB9_, symObjAddr: 0x72A0, symBinAddr: 0x1D394, symSize: 0x2C }
  - { offset: 0x66BAD, size: 0x8, addend: 0x0, symName: __RNvYNvYNtNtCsaQ2CmD7W1Vs_15zerocopy_derive4repr8EnumReprNtNtCs9f3LFPSIp77_4core3cmp3Ord3cmpINtNtNtBW_3ops8function6FnOnceTRB5_B1W_EE9call_onceB9_, symObjAddr: 0x72CC, symBinAddr: 0x1D3C0, symSize: 0x2C }
  - { offset: 0x66BF1, size: 0x8, addend: 0x0, symName: __RNvYNvYNtNtNtCsjLJ1XWNSM6u_10proc_macro6bridge3rpc12PanicMessageINtNtCs9f3LFPSIp77_4core7convert4FromINtNtCsdze8u8oDPro_5alloc5boxed3BoxDNtNtB15_3any3AnyNtNtB15_6marker4SendEL_EE4fromINtNtNtB15_3ops8function6FnOnceTB1B_EE9call_onceCsaQ2CmD7W1Vs_15zerocopy_derive, symObjAddr: 0x72F8, symBinAddr: 0x1D3EC, symSize: 0x2C }
  - { offset: 0x66C3B, size: 0x8, addend: 0x0, symName: __RNvYNvCsaQ2CmD7W1Vs_15zerocopy_derive15derive_as_bytesINtNtNtCs9f3LFPSIp77_4core3ops8function2FnTNtCsjLJ1XWNSM6u_10proc_macro11TokenStreamEE4callB4_, symObjAddr: 0x6FF8, symBinAddr: 0x1D0EC, symSize: 0x28 }
  - { offset: 0x66C7F, size: 0x8, addend: 0x0, symName: __RNvYNvCsaQ2CmD7W1Vs_15zerocopy_derive16derive_unalignedINtNtNtCs9f3LFPSIp77_4core3ops8function2FnTNtCsjLJ1XWNSM6u_10proc_macro11TokenStreamEE4callB4_, symObjAddr: 0x7020, symBinAddr: 0x1D114, symSize: 0x28 }
  - { offset: 0x66CC3, size: 0x8, addend: 0x0, symName: __RNvYNvCsaQ2CmD7W1Vs_15zerocopy_derive17derive_from_bytesINtNtNtCs9f3LFPSIp77_4core3ops8function2FnTNtCsjLJ1XWNSM6u_10proc_macro11TokenStreamEE4callB4_, symObjAddr: 0x7048, symBinAddr: 0x1D13C, symSize: 0x28 }
  - { offset: 0x66D07, size: 0x8, addend: 0x0, symName: __RNvYNvCsaQ2CmD7W1Vs_15zerocopy_derive18derive_from_zeroesINtNtNtCs9f3LFPSIp77_4core3ops8function2FnTNtCsjLJ1XWNSM6u_10proc_macro11TokenStreamEE4callB4_, symObjAddr: 0x7070, symBinAddr: 0x1D164, symSize: 0x28 }
  - { offset: 0x66D4B, size: 0x8, addend: 0x0, symName: __RNvYNvCsaQ2CmD7W1Vs_15zerocopy_derive19derive_known_layoutINtNtNtCs9f3LFPSIp77_4core3ops8function2FnTNtCsjLJ1XWNSM6u_10proc_macro11TokenStreamEE4callB4_, symObjAddr: 0x7098, symBinAddr: 0x1D18C, symSize: 0x28 }
  - { offset: 0x66D95, size: 0x8, addend: 0x0, symName: __RNvYNvMNtCsATtFUPiRFW_3syn5errorNtB5_5Error16to_compile_errorINtNtNtCs9f3LFPSIp77_4core3ops8function5FnMutTRBu_EE8call_mutCsaQ2CmD7W1Vs_15zerocopy_derive, symObjAddr: 0x70E4, symBinAddr: 0x1D1D8, symSize: 0x28 }
  - { offset: 0x673A2, size: 0x8, addend: 0x0, symName: __RNvXs_NtNtCs9f3LFPSIp77_4core3str6traitseNtNtB8_3cmp9PartialEq2eqCsaQ2CmD7W1Vs_15zerocopy_derive, symObjAddr: 0x62F8, symBinAddr: 0x1C3EC, symSize: 0x64 }
  - { offset: 0x67AB7, size: 0x8, addend: 0x0, symName: __RNvXsV_NtCsjLJ1XWNSM6u_10proc_macro6bridgeINtNtCs9f3LFPSIp77_4core6result6ResultINtNtBJ_6option6OptionNtNtB5_6client11TokenStreamEuEINtNtB5_3rpc6EncodeuE6encodeCsaQ2CmD7W1Vs_15zerocopy_derive, symObjAddr: 0x60C4, symBinAddr: 0x1C1B8, symSize: 0x108 }
  - { offset: 0x67B78, size: 0x8, addend: 0x0, symName: __RNvXsV_NtCsjLJ1XWNSM6u_10proc_macro6bridgeINtNtCs9f3LFPSIp77_4core6result6ResultuNtNtB5_3rpc12PanicMessageEINtB1j_6EncodeuE6encodeCsaQ2CmD7W1Vs_15zerocopy_derive, symObjAddr: 0x61CC, symBinAddr: 0x1C2C0, symSize: 0x12C }
  - { offset: 0x67DCF, size: 0x8, addend: 0x0, symName: __RINvXsk_CsjLJ1XWNSM6u_10proc_macroNtB6_11TokenStreamINtNtNtNtCs9f3LFPSIp77_4core4iter6traits7collect6ExtendBw_E6extendINtNtNtBV_8adapters3map3MapIB1T_IB1T_INtNtNtBX_5slice4iter4IterNtNtCsATtFUPiRFW_3syn5error5ErrorENvMB2V_B2T_16to_compile_errorENCINvXs7_Cs475r2uZUTuc_11proc_macro2NtB44_11TokenStreamINtBR_12FromIteratorB4v_E9from_iterB2o_E0ENCINvXs6_NtB44_3impNtB5D_11TokenStreamIB4P_B5N_E9from_iterB2j_E0EECsaQ2CmD7W1Vs_15zerocopy_derive, symObjAddr: 0x30F0, symBinAddr: 0x191E4, symSize: 0x10C }
  - { offset: 0x67E42, size: 0x8, addend: 0x0, symName: __RNCINvXsk_CsjLJ1XWNSM6u_10proc_macroNtB8_11TokenStreamINtNtNtNtCs9f3LFPSIp77_4core4iter6traits7collect6ExtendBy_E6extendINtNtNtBX_8adapters3map3MapIB1V_IB1V_INtNtNtBZ_5slice4iter4IterNtNtCsATtFUPiRFW_3syn5error5ErrorENvMB2X_B2V_16to_compile_errorENCINvXs7_Cs475r2uZUTuc_11proc_macro2NtB46_11TokenStreamINtBT_12FromIteratorB4x_E9from_iterB2q_E0ENCINvXs6_NtB46_3impNtB5F_11TokenStreamIB4R_B5P_E9from_iterB2l_E0EE0CsaQ2CmD7W1Vs_15zerocopy_derive, symObjAddr: 0x3E10, symBinAddr: 0x19F04, symSize: 0x2C }
  - { offset: 0x67EA1, size: 0x8, addend: 0x0, symName: __RNvXs10_CsjLJ1XWNSM6u_10proc_macroNtB6_11TokenStreamNtNtCs9f3LFPSIp77_4core5clone5Clone5cloneCsaQ2CmD7W1Vs_15zerocopy_derive, symObjAddr: 0x5DD8, symBinAddr: 0x1BECC, symSize: 0x64 }
  - { offset: 0x6859B, size: 0x8, addend: 0x0, symName: __RNCINvMs3_NtCsATtFUPiRFW_3syn3litNtB8_6LitInt12base10_parsejE0CsaQ2CmD7W1Vs_15zerocopy_derive, symObjAddr: 0x351C, symBinAddr: 0x19610, symSize: 0x94 }
  - { offset: 0x685E3, size: 0x8, addend: 0x0, symName: __RNCINvMs3_NtCsATtFUPiRFW_3syn3litNtB8_6LitInt12base10_parseyE0CsaQ2CmD7W1Vs_15zerocopy_derive, symObjAddr: 0x35B0, symBinAddr: 0x196A4, symSize: 0x94 }
  - { offset: 0x6D50E, size: 0x8, addend: 0x0, symName: __RNvXsh_NtCsATtFUPiRFW_3syn5parseNvYNtNtB7_8generics14WherePredicateNtNtB7_11parse_quote10ParseQuote5parseNtB5_6Parser6parse2CsaQ2CmD7W1Vs_15zerocopy_derive, symObjAddr: 0x64A4, symBinAddr: 0x1C598, symSize: 0x37C }
  - { offset: 0x6D747, size: 0x8, addend: 0x0, symName: __RINvNtCsATtFUPiRFW_3syn11parse_quote5parseNtNtB4_8generics14WherePredicateECsaQ2CmD7W1Vs_15zerocopy_derive, symObjAddr: 0x2AF4, symBinAddr: 0x18C10, symSize: 0xD0 }
  - { offset: 0x6D7AB, size: 0x8, addend: 0x0, symName: __RINvNvNtCsATtFUPiRFW_3syn11parse_quote5parse18panic_cold_displayNtNtB6_5error5ErrorECsaQ2CmD7W1Vs_15zerocopy_derive, symObjAddr: 0x2DF8, symBinAddr: 0x2A5C50, symSize: 0x28 }
  - { offset: 0x6D7E2, size: 0x8, addend: 0x0, symName: __RNvXNtCsATtFUPiRFW_3syn11parse_quoteNtNtB4_8generics14WherePredicateNtB2_10ParseQuote5parseCsaQ2CmD7W1Vs_15zerocopy_derive, symObjAddr: 0x53A8, symBinAddr: 0x1B49C, symSize: 0x34 }
  - { offset: 0x6D823, size: 0x8, addend: 0x0, symName: __RNvXNtCsATtFUPiRFW_3syn7spannedNtNtB4_4attr4MetaNtB2_7Spanned4spanCsaQ2CmD7W1Vs_15zerocopy_derive, symObjAddr: 0x53DC, symBinAddr: 0x1B4D0, symSize: 0x34 }
  - { offset: 0x6F18B, size: 0x8, addend: 0x0, symName: __RNvXs2_NtCsdze8u8oDPro_5alloc7raw_vecINtB5_6RawVecNtNtCsATtFUPiRFW_3syn4attr4MetaENtNtNtCs9f3LFPSIp77_4core3ops4drop4Drop4dropCsaQ2CmD7W1Vs_15zerocopy_derive, symObjAddr: 0x5E74, symBinAddr: 0x1BF68, symSize: 0x34 }
  - { offset: 0x6F1C7, size: 0x8, addend: 0x0, symName: __RNvXs2_NtCsdze8u8oDPro_5alloc7raw_vecINtB5_6RawVecNtNtCsATtFUPiRFW_3syn5error5ErrorENtNtNtCs9f3LFPSIp77_4core3ops4drop4Drop4dropCsaQ2CmD7W1Vs_15zerocopy_derive, symObjAddr: 0x5EA8, symBinAddr: 0x1BF9C, symSize: 0x34 }
  - { offset: 0x6F203, size: 0x8, addend: 0x0, symName: __RNvXs2_NtCsdze8u8oDPro_5alloc7raw_vecINtB5_6RawVecNtNtCsATtFUPiRFW_3syn8generics12GenericParamENtNtNtCs9f3LFPSIp77_4core3ops4drop4Drop4dropCsaQ2CmD7W1Vs_15zerocopy_derive, symObjAddr: 0x5EDC, symBinAddr: 0x1BFD0, symSize: 0x34 }
  - { offset: 0x6F23F, size: 0x8, addend: 0x0, symName: __RNvXs2_NtCsdze8u8oDPro_5alloc7raw_vecINtB5_6RawVecNtNtCsATtFUPiRFW_3syn8generics14WherePredicateENtNtNtCs9f3LFPSIp77_4core3ops4drop4Drop4dropCsaQ2CmD7W1Vs_15zerocopy_derive, symObjAddr: 0x5F10, symBinAddr: 0x1C004, symSize: 0x34 }
  - { offset: 0x6F27B, size: 0x8, addend: 0x0, symName: __RNvXs2_NtCsdze8u8oDPro_5alloc7raw_vecINtB5_6RawVecNtNtCsaQ2CmD7W1Vs_15zerocopy_derive4repr10StructReprENtNtNtCs9f3LFPSIp77_4core3ops4drop4Drop4dropBQ_, symObjAddr: 0x5F44, symBinAddr: 0x1C038, symSize: 0x34 }
  - { offset: 0x6F2B7, size: 0x8, addend: 0x0, symName: __RNvXs2_NtCsdze8u8oDPro_5alloc7raw_vecINtB5_6RawVecNtNtCsaQ2CmD7W1Vs_15zerocopy_derive4repr8EnumReprENtNtNtCs9f3LFPSIp77_4core3ops4drop4Drop4dropBQ_, symObjAddr: 0x5F78, symBinAddr: 0x1C06C, symSize: 0x34 }
  - { offset: 0x6F2F3, size: 0x8, addend: 0x0, symName: __RNvXs2_NtCsdze8u8oDPro_5alloc7raw_vecINtB5_6RawVecRNtNtCsATtFUPiRFW_3syn2ty4TypeENtNtNtCs9f3LFPSIp77_4core3ops4drop4Drop4dropCsaQ2CmD7W1Vs_15zerocopy_derive, symObjAddr: 0x5FAC, symBinAddr: 0x1C0A0, symSize: 0x30 }
  - { offset: 0x6F32F, size: 0x8, addend: 0x0, symName: __RNvXs2_NtCsdze8u8oDPro_5alloc7raw_vecINtB5_6RawVecTNtNtCsATtFUPiRFW_3syn4attr4MetaNtNtBR_5token5CommaEENtNtNtCs9f3LFPSIp77_4core3ops4drop4Drop4dropCsaQ2CmD7W1Vs_15zerocopy_derive, symObjAddr: 0x5FDC, symBinAddr: 0x1C0D0, symSize: 0x34 }
  - { offset: 0x6F36B, size: 0x8, addend: 0x0, symName: __RNvXs2_NtCsdze8u8oDPro_5alloc7raw_vecINtB5_6RawVecTNtNtCsATtFUPiRFW_3syn4attr4MetaNtNtCsaQ2CmD7W1Vs_15zerocopy_derive4repr10StructReprEENtNtNtCs9f3LFPSIp77_4core3ops4drop4Drop4dropB1m_, symObjAddr: 0x6010, symBinAddr: 0x1C104, symSize: 0x34 }
  - { offset: 0x6F3A7, size: 0x8, addend: 0x0, symName: __RNvXs2_NtCsdze8u8oDPro_5alloc7raw_vecINtB5_6RawVecTNtNtCsATtFUPiRFW_3syn4attr4MetaNtNtCsaQ2CmD7W1Vs_15zerocopy_derive4repr4ReprEENtNtNtCs9f3LFPSIp77_4core3ops4drop4Drop4dropB1m_, symObjAddr: 0x6044, symBinAddr: 0x1C138, symSize: 0x34 }
  - { offset: 0x6F3E3, size: 0x8, addend: 0x0, symName: __RNvXs2_NtCsdze8u8oDPro_5alloc7raw_vecINtB5_6RawVecTNtNtCsATtFUPiRFW_3syn4attr4MetaNtNtCsaQ2CmD7W1Vs_15zerocopy_derive4repr8EnumReprEENtNtNtCs9f3LFPSIp77_4core3ops4drop4Drop4dropB1m_, symObjAddr: 0x6078, symBinAddr: 0x1C16C, symSize: 0x34 }
  - { offset: 0x6F4F7, size: 0x8, addend: 0x0, symName: __RINvMNtCsdze8u8oDPro_5alloc5sliceSNtNtCsATtFUPiRFW_3syn8generics14WherePredicate8into_vecNtNtB5_5alloc6GlobalECsaQ2CmD7W1Vs_15zerocopy_derive, symObjAddr: 0x108, symBinAddr: 0x16224, symSize: 0x28 }
  - { offset: 0x6F537, size: 0x8, addend: 0x0, symName: __RINvMNtCsdze8u8oDPro_5alloc5sliceSTNtNtCsATtFUPiRFW_3syn4attr4MetaNtNtCsaQ2CmD7W1Vs_15zerocopy_derive4repr10StructReprE7sort_byNCNvMB14_INtB14_6ConfigB12_E14validate_reprs0EB16_, symObjAddr: 0x130, symBinAddr: 0x1624C, symSize: 0x48 }
  - { offset: 0x6F582, size: 0x8, addend: 0x0, symName: __RINvMNtCsdze8u8oDPro_5alloc5sliceSTNtNtCsATtFUPiRFW_3syn4attr4MetaNtNtCsaQ2CmD7W1Vs_15zerocopy_derive4repr8EnumReprE7sort_byNCNvMB14_INtB14_6ConfigB12_E14validate_reprs0EB16_, symObjAddr: 0x178, symBinAddr: 0x16294, symSize: 0x48 }
  - { offset: 0x6F729, size: 0x8, addend: 0x0, symName: __RINvMNtCs9f3LFPSIp77_4core6resultINtB3_6ResultjNtNtNtB5_3num5error13ParseIntErrorE7map_errNtNtCsATtFUPiRFW_3syn5error5ErrorNCINvMs3_NtB1u_3litNtB26_6LitInt12base10_parsejE0ECsaQ2CmD7W1Vs_15zerocopy_derive, symObjAddr: 0x0, symBinAddr: 0x1611C, symSize: 0x84 }
  - { offset: 0x6F7BB, size: 0x8, addend: 0x0, symName: __RINvMNtCs9f3LFPSIp77_4core6resultINtB3_6ResultyNtNtNtB5_3num5error13ParseIntErrorE7map_errNtNtCsATtFUPiRFW_3syn5error5ErrorNCINvMs3_NtB1u_3litNtB26_6LitInt12base10_parseyE0ECsaQ2CmD7W1Vs_15zerocopy_derive, symObjAddr: 0x84, symBinAddr: 0x161A0, symSize: 0x84 }
  - { offset: 0x6F8C1, size: 0x8, addend: 0x0, symName: __RINvMs0_NtCs475r2uZUTuc_11proc_macro25rcvecINtB6_8RcVecMutNtB8_9TokenTreeE6extendINtNtNtNtCs9f3LFPSIp77_4core4iter8adapters7flatten7FlattenINtNtB1m_3map3MapIB2e_IB2e_INtNtNtB1q_5slice4iter4IterNtNtCsATtFUPiRFW_3syn5error5ErrorENvMB37_B35_16to_compile_errorENCINvXs7_B8_NtB8_11TokenStreamINtNtNtB1o_6traits7collect12FromIteratorB4j_E9from_iterB2z_E0ENCINvXs6_NtB8_3impNtB5K_11TokenStreamIB4C_B5T_E9from_iterB2u_Es_0EEECsaQ2CmD7W1Vs_15zerocopy_derive, symObjAddr: 0x1C0, symBinAddr: 0x162DC, symSize: 0x38 }
  - { offset: 0x6FDCD, size: 0x8, addend: 0x0, symName: __RINvMs0_NtCsATtFUPiRFW_3syn4attrNtB6_8MetaList10parse_argsNtNtB8_3lit6LitIntECsaQ2CmD7W1Vs_15zerocopy_derive, symObjAddr: 0x1F8, symBinAddr: 0x16314, symSize: 0x34 }
  - { offset: 0x6FE77, size: 0x8, addend: 0x0, symName: __RINvMs0_NtCsATtFUPiRFW_3syn4attrNtB6_8MetaList15parse_args_withNvMNtB8_10punctuatedINtB12_10PunctuatedNtB6_4MetaNtNtB8_5token5CommaE16parse_terminatedECsaQ2CmD7W1Vs_15zerocopy_derive, symObjAddr: 0x22C, symBinAddr: 0x16348, symSize: 0xF0 }
  - { offset: 0x6FEDF, size: 0x8, addend: 0x0, symName: __RINvMs0_NtCsATtFUPiRFW_3syn4attrNtB6_8MetaList15parse_args_withNvYNtNtB8_3lit6LitIntNtNtB8_5parse5Parse5parseECsaQ2CmD7W1Vs_15zerocopy_derive, symObjAddr: 0x31C, symBinAddr: 0x16438, symSize: 0xF0 }
  - { offset: 0x6FF2F, size: 0x8, addend: 0x0, symName: __RINvMs3_NtCsATtFUPiRFW_3syn3litNtB6_6LitInt12base10_parsejECsaQ2CmD7W1Vs_15zerocopy_derive, symObjAddr: 0x40C, symBinAddr: 0x16528, symSize: 0x58 }
  - { offset: 0x6FF5B, size: 0x8, addend: 0x0, symName: __RINvMs3_NtCsATtFUPiRFW_3syn3litNtB6_6LitInt12base10_parseyECsaQ2CmD7W1Vs_15zerocopy_derive, symObjAddr: 0x464, symBinAddr: 0x16580, symSize: 0x58 }
  - { offset: 0x708A2, size: 0x8, addend: 0x0, symName: __RNvMNtCs9f3LFPSIp77_4core6resultINtB2_6ResultPuNtNtNtCs27l1GJC5rMQ_3std6thread5local11AccessErrorE6expectCsaQ2CmD7W1Vs_15zerocopy_derive, symObjAddr: 0x4340, symBinAddr: 0x1A434, symSize: 0x84 }
  - { offset: 0x70903, size: 0x8, addend: 0x0, symName: __RNvMNtCs9f3LFPSIp77_4core6resultINtB2_6ResultjNtNtCsATtFUPiRFW_3syn5error5ErrorE2okCsaQ2CmD7W1Vs_15zerocopy_derive, symObjAddr: 0x43C4, symBinAddr: 0x1A4B8, symSize: 0x88 }
  - { offset: 0x709A9, size: 0x8, addend: 0x0, symName: __RNvMs1_NtCsdze8u8oDPro_5alloc7raw_vecINtB5_6RawVecNtNtCsATtFUPiRFW_3syn4attr4MetaE8grow_oneCsaQ2CmD7W1Vs_15zerocopy_derive, symObjAddr: 0x444C, symBinAddr: 0x1A540, symSize: 0x88 }
  - { offset: 0x70A57, size: 0x8, addend: 0x0, symName: __RNvMs1_NtCsdze8u8oDPro_5alloc7raw_vecINtB5_6RawVecNtNtCsATtFUPiRFW_3syn5error5ErrorE8grow_oneCsaQ2CmD7W1Vs_15zerocopy_derive, symObjAddr: 0x44D4, symBinAddr: 0x1A5C8, symSize: 0x88 }
  - { offset: 0x70B05, size: 0x8, addend: 0x0, symName: __RNvMs1_NtCsdze8u8oDPro_5alloc7raw_vecINtB5_6RawVecNtNtCsaQ2CmD7W1Vs_15zerocopy_derive4repr10StructReprE8grow_oneBQ_, symObjAddr: 0x455C, symBinAddr: 0x1A650, symSize: 0x88 }
  - { offset: 0x70BB3, size: 0x8, addend: 0x0, symName: __RNvMs1_NtCsdze8u8oDPro_5alloc7raw_vecINtB5_6RawVecNtNtCsaQ2CmD7W1Vs_15zerocopy_derive4repr8EnumReprE8grow_oneBQ_, symObjAddr: 0x45E4, symBinAddr: 0x1A6D8, symSize: 0x88 }
  - { offset: 0x70C61, size: 0x8, addend: 0x0, symName: __RNvMs1_NtCsdze8u8oDPro_5alloc7raw_vecINtB5_6RawVecTNtNtCsATtFUPiRFW_3syn4attr4MetaNtNtBR_5token5CommaEE8grow_oneCsaQ2CmD7W1Vs_15zerocopy_derive, symObjAddr: 0x466C, symBinAddr: 0x1A760, symSize: 0x88 }
  - { offset: 0x70D0F, size: 0x8, addend: 0x0, symName: __RNvMs1_NtCsdze8u8oDPro_5alloc7raw_vecINtB5_6RawVecTNtNtCsATtFUPiRFW_3syn4attr4MetaNtNtCsaQ2CmD7W1Vs_15zerocopy_derive4repr10StructReprEE8grow_oneB1m_, symObjAddr: 0x46F4, symBinAddr: 0x1A7E8, symSize: 0x88 }
  - { offset: 0x70DDB, size: 0x8, addend: 0x0, symName: __RNvMs1_NtCsdze8u8oDPro_5alloc7raw_vecINtB5_6RawVecTNtNtCsATtFUPiRFW_3syn4attr4MetaNtNtCsaQ2CmD7W1Vs_15zerocopy_derive4repr4ReprEE8grow_oneB1m_, symObjAddr: 0x477C, symBinAddr: 0x1A870, symSize: 0x88 }
  - { offset: 0x70E89, size: 0x8, addend: 0x0, symName: __RNvMs1_NtCsdze8u8oDPro_5alloc7raw_vecINtB5_6RawVecTNtNtCsATtFUPiRFW_3syn4attr4MetaNtNtCsaQ2CmD7W1Vs_15zerocopy_derive4repr8EnumReprEE8grow_oneB1m_, symObjAddr: 0x4804, symBinAddr: 0x1A8F8, symSize: 0x88 }
  - { offset: 0x70F3D, size: 0x8, addend: 0x0, symName: __RNvXNtCs62MdaZFMefA_5quote9to_tokensRNtNtCsATtFUPiRFW_3syn4attr4MetaNtB2_8ToTokens9to_tokensCsaQ2CmD7W1Vs_15zerocopy_derive, symObjAddr: 0x5368, symBinAddr: 0x1B45C, symSize: 0x40 }
  - { offset: 0x70F82, size: 0x8, addend: 0x0, symName: __RNvYRNtNtCsATtFUPiRFW_3syn4attr4MetaNtNtCs62MdaZFMefA_5quote9to_tokens8ToTokens15to_token_streamCsaQ2CmD7W1Vs_15zerocopy_derive, symObjAddr: 0x7324, symBinAddr: 0x1D418, symSize: 0x8C }
  - { offset: 0x70FCC, size: 0x8, addend: 0x0, symName: __RNvYRNtNtCsATtFUPiRFW_3syn4attr4MetaNtNtCs62MdaZFMefA_5quote9to_tokens8ToTokens17into_token_streamCsaQ2CmD7W1Vs_15zerocopy_derive, symObjAddr: 0x73B0, symBinAddr: 0x1D4A4, symSize: 0x54 }
  - { offset: 0x7100D, size: 0x8, addend: 0x0, symName: __RNvXs0_NtCs62MdaZFMefA_5quote7spannedNtNtCsATtFUPiRFW_3syn4attr4MetaNtB5_7Spanned6___spanCsaQ2CmD7W1Vs_15zerocopy_derive, symObjAddr: 0x5410, symBinAddr: 0x1B504, symSize: 0x44 }
  - { offset: 0x71053, size: 0x8, addend: 0x0, symName: __RNvYINtNtNtNtCs9f3LFPSIp77_4core4iter8adapters3map3MapINtNtCsATtFUPiRFW_3syn10punctuated4IterNtNtBV_8generics12GenericParamENCINvCsaQ2CmD7W1Vs_15zerocopy_derive10impl_blockNtNtBV_6derive10DataStructEs3_0ENtNtNtCs62MdaZFMefA_5quote9___private3ext14RepIteratorExt15quote_into_iterB23_, symObjAddr: 0x6EBC, symBinAddr: 0x1CFB0, symSize: 0x2C }
  - { offset: 0x71088, size: 0x8, addend: 0x0, symName: __RNvYINtNtNtNtCs9f3LFPSIp77_4core4iter8adapters3map3MapINtNtCsATtFUPiRFW_3syn10punctuated4IterNtNtBV_8generics12GenericParamENCINvCsaQ2CmD7W1Vs_15zerocopy_derive10impl_blockNtNtBV_6derive8DataEnumEs3_0ENtNtNtCs62MdaZFMefA_5quote9___private3ext14RepIteratorExt15quote_into_iterB23_, symObjAddr: 0x6EE8, symBinAddr: 0x1CFDC, symSize: 0x2C }
  - { offset: 0x710BD, size: 0x8, addend: 0x0, symName: __RNvYINtNtNtNtCs9f3LFPSIp77_4core4iter8adapters3map3MapINtNtCsATtFUPiRFW_3syn10punctuated4IterNtNtBV_8generics12GenericParamENCINvCsaQ2CmD7W1Vs_15zerocopy_derive10impl_blockNtNtBV_6derive9DataUnionEs3_0ENtNtNtCs62MdaZFMefA_5quote9___private3ext14RepIteratorExt15quote_into_iterB23_, symObjAddr: 0x6F14, symBinAddr: 0x1D008, symSize: 0x2C }
  - { offset: 0x710F2, size: 0x8, addend: 0x0, symName: __RNvYINtNtNtNtCs9f3LFPSIp77_4core4iter8adapters3map3MapINtNtCsATtFUPiRFW_3syn10punctuated8IntoIterNtNtBV_8generics12GenericParamENCINvCsaQ2CmD7W1Vs_15zerocopy_derive10impl_blockNtNtBV_6derive10DataStructEs2_0ENtNtNtCs62MdaZFMefA_5quote9___private3ext14RepIteratorExt15quote_into_iterB27_, symObjAddr: 0x6F40, symBinAddr: 0x1D034, symSize: 0x24 }
  - { offset: 0x71127, size: 0x8, addend: 0x0, symName: __RNvYINtNtNtNtCs9f3LFPSIp77_4core4iter8adapters3map3MapINtNtCsATtFUPiRFW_3syn10punctuated8IntoIterNtNtBV_8generics12GenericParamENCINvCsaQ2CmD7W1Vs_15zerocopy_derive10impl_blockNtNtBV_6derive8DataEnumEs2_0ENtNtNtCs62MdaZFMefA_5quote9___private3ext14RepIteratorExt15quote_into_iterB27_, symObjAddr: 0x6F64, symBinAddr: 0x1D058, symSize: 0x24 }
  - { offset: 0x7115C, size: 0x8, addend: 0x0, symName: __RNvYINtNtNtNtCs9f3LFPSIp77_4core4iter8adapters3map3MapINtNtCsATtFUPiRFW_3syn10punctuated8IntoIterNtNtBV_8generics12GenericParamENCINvCsaQ2CmD7W1Vs_15zerocopy_derive10impl_blockNtNtBV_6derive9DataUnionEs2_0ENtNtNtCs62MdaZFMefA_5quote9___private3ext14RepIteratorExt15quote_into_iterB27_, symObjAddr: 0x6F88, symBinAddr: 0x1D07C, symSize: 0x24 }
  - { offset: 0x7291B, size: 0x8, addend: 0x0, symName: __RINvMNtNtNtNtCs9f3LFPSIp77_4core5slice4sort6stable5mergeINtB3_10MergeStateTNtNtCsATtFUPiRFW_3syn4attr4MetaNtNtCsaQ2CmD7W1Vs_15zerocopy_derive4repr10StructReprEE10merge_downNCINvMNtCsdze8u8oDPro_5alloc5sliceSB1a_7sort_byNCNvMB1I_INtB1I_6ConfigB1G_E14validate_reprs0E0EB1K_, symObjAddr: 0x0, symBinAddr: 0x1D4F8, symSize: 0x1DC }
  - { offset: 0x72C64, size: 0x8, addend: 0x0, symName: __RNCINvNtNtCsjLJ1XWNSM6u_10proc_macro6bridge6client10run_clientNtB4_11TokenStreamINtNtCs9f3LFPSIp77_4core6option6OptionBY_ENCNCINvMs7_B4_INtB4_6ClientNtB8_11TokenStreamB2n_E7expand1NvCsaQ2CmD7W1Vs_15zerocopy_derive15derive_as_bytesE00E0B2U_, symObjAddr: 0x2738, symBinAddr: 0x1FC30, symSize: 0x3DC }
  - { offset: 0x731BE, size: 0x8, addend: 0x0, symName: __RNCINvNtNtCsjLJ1XWNSM6u_10proc_macro6bridge6client10run_clientNtB4_11TokenStreamINtNtCs9f3LFPSIp77_4core6option6OptionBY_ENCNCINvMs7_B4_INtB4_6ClientNtB8_11TokenStreamB2n_E7expand1NvCsaQ2CmD7W1Vs_15zerocopy_derive16derive_unalignedE00E0B2U_, symObjAddr: 0x2B14, symBinAddr: 0x2000C, symSize: 0x3DC }
  - { offset: 0x73718, size: 0x8, addend: 0x0, symName: __RNCINvNtNtCsjLJ1XWNSM6u_10proc_macro6bridge6client10run_clientNtB4_11TokenStreamINtNtCs9f3LFPSIp77_4core6option6OptionBY_ENCNCINvMs7_B4_INtB4_6ClientNtB8_11TokenStreamB2n_E7expand1NvCsaQ2CmD7W1Vs_15zerocopy_derive17derive_from_bytesE00E0B2U_, symObjAddr: 0x2EF0, symBinAddr: 0x203E8, symSize: 0x3DC }
  - { offset: 0x73C72, size: 0x8, addend: 0x0, symName: __RNCINvNtNtCsjLJ1XWNSM6u_10proc_macro6bridge6client10run_clientNtB4_11TokenStreamINtNtCs9f3LFPSIp77_4core6option6OptionBY_ENCNCINvMs7_B4_INtB4_6ClientNtB8_11TokenStreamB2n_E7expand1NvCsaQ2CmD7W1Vs_15zerocopy_derive18derive_from_zeroesE00E0B2U_, symObjAddr: 0x32CC, symBinAddr: 0x207C4, symSize: 0x3DC }
  - { offset: 0x741CC, size: 0x8, addend: 0x0, symName: __RNCINvNtNtCsjLJ1XWNSM6u_10proc_macro6bridge6client10run_clientNtB4_11TokenStreamINtNtCs9f3LFPSIp77_4core6option6OptionBY_ENCNCINvMs7_B4_INtB4_6ClientNtB8_11TokenStreamB2n_E7expand1NvCsaQ2CmD7W1Vs_15zerocopy_derive19derive_known_layoutE00E0B2U_, symObjAddr: 0x36A8, symBinAddr: 0x20BA0, symSize: 0x3DC }
  - { offset: 0x7472B, size: 0x8, addend: 0x0, symName: __RNCNCINvNtNtCsjLJ1XWNSM6u_10proc_macro6bridge6client10run_clientNtB6_11TokenStreamINtNtCs9f3LFPSIp77_4core6option6OptionB10_ENCNCINvMs7_B6_INtB6_6ClientNtBa_11TokenStreamB2q_E7expand1NvCsaQ2CmD7W1Vs_15zerocopy_derive15derive_as_bytesE00E00B2X_, symObjAddr: 0x3B74, symBinAddr: 0x2106C, symSize: 0x28 }
  - { offset: 0x74784, size: 0x8, addend: 0x0, symName: __RNCNCINvNtNtCsjLJ1XWNSM6u_10proc_macro6bridge6client10run_clientNtB6_11TokenStreamINtNtCs9f3LFPSIp77_4core6option6OptionB10_ENCNCINvMs7_B6_INtB6_6ClientNtBa_11TokenStreamB2q_E7expand1NvCsaQ2CmD7W1Vs_15zerocopy_derive16derive_unalignedE00E00B2X_, symObjAddr: 0x3B9C, symBinAddr: 0x21094, symSize: 0x28 }
  - { offset: 0x747DD, size: 0x8, addend: 0x0, symName: __RNCNCINvNtNtCsjLJ1XWNSM6u_10proc_macro6bridge6client10run_clientNtB6_11TokenStreamINtNtCs9f3LFPSIp77_4core6option6OptionB10_ENCNCINvMs7_B6_INtB6_6ClientNtBa_11TokenStreamB2q_E7expand1NvCsaQ2CmD7W1Vs_15zerocopy_derive17derive_from_bytesE00E00B2X_, symObjAddr: 0x3BC4, symBinAddr: 0x210BC, symSize: 0x28 }
  - { offset: 0x74836, size: 0x8, addend: 0x0, symName: __RNCNCINvNtNtCsjLJ1XWNSM6u_10proc_macro6bridge6client10run_clientNtB6_11TokenStreamINtNtCs9f3LFPSIp77_4core6option6OptionB10_ENCNCINvMs7_B6_INtB6_6ClientNtBa_11TokenStreamB2q_E7expand1NvCsaQ2CmD7W1Vs_15zerocopy_derive18derive_from_zeroesE00E00B2X_, symObjAddr: 0x3BEC, symBinAddr: 0x210E4, symSize: 0x28 }
  - { offset: 0x7488F, size: 0x8, addend: 0x0, symName: __RNCNCINvNtNtCsjLJ1XWNSM6u_10proc_macro6bridge6client10run_clientNtB6_11TokenStreamINtNtCs9f3LFPSIp77_4core6option6OptionB10_ENCNCINvMs7_B6_INtB6_6ClientNtBa_11TokenStreamB2q_E7expand1NvCsaQ2CmD7W1Vs_15zerocopy_derive19derive_known_layoutE00E00B2X_, symObjAddr: 0x3C14, symBinAddr: 0x2110C, symSize: 0x28 }
  - { offset: 0x74958, size: 0x8, addend: 0x0, symName: __RNCNCINvMs7_NtNtCsjLJ1XWNSM6u_10proc_macro6bridge6clientINtBa_6ClientNtBe_11TokenStreamB15_E7expand1NvCsaQ2CmD7W1Vs_15zerocopy_derive15derive_as_bytesE00B1C_, symObjAddr: 0x3A84, symBinAddr: 0x20F7C, symSize: 0x30 }
  - { offset: 0x7499F, size: 0x8, addend: 0x0, symName: __RNCNCINvMs7_NtNtCsjLJ1XWNSM6u_10proc_macro6bridge6clientINtBa_6ClientNtBe_11TokenStreamB15_E7expand1NvCsaQ2CmD7W1Vs_15zerocopy_derive16derive_unalignedE00B1C_, symObjAddr: 0x3AB4, symBinAddr: 0x20FAC, symSize: 0x30 }
  - { offset: 0x749E6, size: 0x8, addend: 0x0, symName: __RNCNCINvMs7_NtNtCsjLJ1XWNSM6u_10proc_macro6bridge6clientINtBa_6ClientNtBe_11TokenStreamB15_E7expand1NvCsaQ2CmD7W1Vs_15zerocopy_derive17derive_from_bytesE00B1C_, symObjAddr: 0x3AE4, symBinAddr: 0x20FDC, symSize: 0x30 }
  - { offset: 0x74A2D, size: 0x8, addend: 0x0, symName: __RNCNCINvMs7_NtNtCsjLJ1XWNSM6u_10proc_macro6bridge6clientINtBa_6ClientNtBe_11TokenStreamB15_E7expand1NvCsaQ2CmD7W1Vs_15zerocopy_derive18derive_from_zeroesE00B1C_, symObjAddr: 0x3B14, symBinAddr: 0x2100C, symSize: 0x30 }
  - { offset: 0x74A74, size: 0x8, addend: 0x0, symName: __RNCNCINvMs7_NtNtCsjLJ1XWNSM6u_10proc_macro6bridge6clientINtBa_6ClientNtBe_11TokenStreamB15_E7expand1NvCsaQ2CmD7W1Vs_15zerocopy_derive19derive_known_layoutE00B1C_, symObjAddr: 0x3B44, symBinAddr: 0x2103C, symSize: 0x30 }
  - { offset: 0x74ABC, size: 0x8, addend: 0x0, symName: __RNCINvMs7_NtNtCsjLJ1XWNSM6u_10proc_macro6bridge6clientINtB8_6ClientNtBc_11TokenStreamB13_E7expand1NvCsaQ2CmD7W1Vs_15zerocopy_derive15derive_as_bytesE0B1A_, symObjAddr: 0x2648, symBinAddr: 0x1FB40, symSize: 0x30 }
  - { offset: 0x74B04, size: 0x8, addend: 0x0, symName: __RNCINvMs7_NtNtCsjLJ1XWNSM6u_10proc_macro6bridge6clientINtB8_6ClientNtBc_11TokenStreamB13_E7expand1NvCsaQ2CmD7W1Vs_15zerocopy_derive16derive_unalignedE0B1A_, symObjAddr: 0x2678, symBinAddr: 0x1FB70, symSize: 0x30 }
  - { offset: 0x74B4C, size: 0x8, addend: 0x0, symName: __RNCINvMs7_NtNtCsjLJ1XWNSM6u_10proc_macro6bridge6clientINtB8_6ClientNtBc_11TokenStreamB13_E7expand1NvCsaQ2CmD7W1Vs_15zerocopy_derive17derive_from_bytesE0B1A_, symObjAddr: 0x26A8, symBinAddr: 0x1FBA0, symSize: 0x30 }
  - { offset: 0x74B94, size: 0x8, addend: 0x0, symName: __RNCINvMs7_NtNtCsjLJ1XWNSM6u_10proc_macro6bridge6clientINtB8_6ClientNtBc_11TokenStreamB13_E7expand1NvCsaQ2CmD7W1Vs_15zerocopy_derive18derive_from_zeroesE0B1A_, symObjAddr: 0x26D8, symBinAddr: 0x1FBD0, symSize: 0x30 }
  - { offset: 0x74BDC, size: 0x8, addend: 0x0, symName: __RNCINvMs7_NtNtCsjLJ1XWNSM6u_10proc_macro6bridge6clientINtB8_6ClientNtBc_11TokenStreamB13_E7expand1NvCsaQ2CmD7W1Vs_15zerocopy_derive19derive_known_layoutE0B1A_, symObjAddr: 0x2708, symBinAddr: 0x1FC00, symSize: 0x30 }
  - { offset: 0x74C85, size: 0x8, addend: 0x0, symName: __RINvNtNtCsjLJ1XWNSM6u_10proc_macro6bridge6client10run_clientNtB2_11TokenStreamINtNtCs9f3LFPSIp77_4core6option6OptionBW_ENCNCINvMs7_B2_INtB2_6ClientNtB6_11TokenStreamB2l_E7expand1NvCsaQ2CmD7W1Vs_15zerocopy_derive15derive_as_bytesE00EB2S_, symObjAddr: 0xB38, symBinAddr: 0x1E030, symSize: 0x21C }
  - { offset: 0x74E44, size: 0x8, addend: 0x0, symName: __RINvNtNtCsjLJ1XWNSM6u_10proc_macro6bridge6client10run_clientNtB2_11TokenStreamINtNtCs9f3LFPSIp77_4core6option6OptionBW_ENCNCINvMs7_B2_INtB2_6ClientNtB6_11TokenStreamB2l_E7expand1NvCsaQ2CmD7W1Vs_15zerocopy_derive16derive_unalignedE00EB2S_, symObjAddr: 0xD54, symBinAddr: 0x1E24C, symSize: 0x21C }
  - { offset: 0x75003, size: 0x8, addend: 0x0, symName: __RINvNtNtCsjLJ1XWNSM6u_10proc_macro6bridge6client10run_clientNtB2_11TokenStreamINtNtCs9f3LFPSIp77_4core6option6OptionBW_ENCNCINvMs7_B2_INtB2_6ClientNtB6_11TokenStreamB2l_E7expand1NvCsaQ2CmD7W1Vs_15zerocopy_derive17derive_from_bytesE00EB2S_, symObjAddr: 0xF70, symBinAddr: 0x1E468, symSize: 0x21C }
  - { offset: 0x751C2, size: 0x8, addend: 0x0, symName: __RINvNtNtCsjLJ1XWNSM6u_10proc_macro6bridge6client10run_clientNtB2_11TokenStreamINtNtCs9f3LFPSIp77_4core6option6OptionBW_ENCNCINvMs7_B2_INtB2_6ClientNtB6_11TokenStreamB2l_E7expand1NvCsaQ2CmD7W1Vs_15zerocopy_derive18derive_from_zeroesE00EB2S_, symObjAddr: 0x118C, symBinAddr: 0x1E684, symSize: 0x21C }
  - { offset: 0x75381, size: 0x8, addend: 0x0, symName: __RINvNtNtCsjLJ1XWNSM6u_10proc_macro6bridge6client10run_clientNtB2_11TokenStreamINtNtCs9f3LFPSIp77_4core6option6OptionBW_ENCNCINvMs7_B2_INtB2_6ClientNtB6_11TokenStreamB2l_E7expand1NvCsaQ2CmD7W1Vs_15zerocopy_derive19derive_known_layoutE00EB2S_, symObjAddr: 0x13A8, symBinAddr: 0x1E8A0, symSize: 0x21C }
  - { offset: 0x755BA, size: 0x8, addend: 0x0, symName: __RNvXsh_NtNtCsjLJ1XWNSM6u_10proc_macro6bridge6clientNtB5_11TokenStreamINtNtB7_3rpc6EncodeuE6encodeCsaQ2CmD7W1Vs_15zerocopy_derive, symObjAddr: 0x49E0, symBinAddr: 0x21ED8, symSize: 0x50 }
  - { offset: 0x756D4, size: 0x8, addend: 0x0, symName: __RNvXsk_NtNtCsjLJ1XWNSM6u_10proc_macro6bridge6clientNtB5_11TokenStreamINtNtB7_3rpc9DecodeMutuE6decodeCsaQ2CmD7W1Vs_15zerocopy_derive, symObjAddr: 0x4A30, symBinAddr: 0x21F28, symSize: 0x2C }
  - { offset: 0x7571D, size: 0x8, addend: 0x0, symName: __RNvXsr_NtNtCsjLJ1XWNSM6u_10proc_macro6bridge6clientNtB5_4SpanINtNtB7_3rpc9DecodeMutuE6decodeCsaQ2CmD7W1Vs_15zerocopy_derive, symObjAddr: 0x4A5C, symBinAddr: 0x21F54, symSize: 0x2C }
  - { offset: 0x75DA6, size: 0x8, addend: 0x0, symName: __RNvXs7_NtNtCsjLJ1XWNSM6u_10proc_macro6bridge3rpcINtNtNtCs9f3LFPSIp77_4core3num7nonzero7NonZeromEINtB5_9DecodeMutuE6decodeCsaQ2CmD7W1Vs_15zerocopy_derive, symObjAddr: 0x3FF0, symBinAddr: 0x214E8, symSize: 0x5C }
  - { offset: 0x75E29, size: 0x8, addend: 0x0, symName: __RNvXs9_NtNtCsjLJ1XWNSM6u_10proc_macro6bridge3rpcTINtB7_11ExpnGlobalsNtNtB7_6client4SpanENtB16_11TokenStreamEINtB5_9DecodeMutuE6decodeCsaQ2CmD7W1Vs_15zerocopy_derive, symObjAddr: 0x404C, symBinAddr: 0x21544, symSize: 0x84 }
  - { offset: 0x75EF9, size: 0x8, addend: 0x0, symName: __RINvNvNtNtCsjLJ1XWNSM6u_10proc_macro6bridge14selfless_reify31reify_to_extern_c_fn_hrt_bridge7wrapperNtNtB6_6buffer6BufferNCINvMs7_NtB6_6clientINtB24_6ClientNtB8_11TokenStreamB2u_E7expand1NvCsaQ2CmD7W1Vs_15zerocopy_derive15derive_as_bytesE0EB31_, symObjAddr: 0x23FC, symBinAddr: 0x1F8F4, symSize: 0x4C }
  - { offset: 0x75F54, size: 0x8, addend: 0x0, symName: __RINvNvNtNtCsjLJ1XWNSM6u_10proc_macro6bridge14selfless_reify31reify_to_extern_c_fn_hrt_bridge7wrapperNtNtB6_6buffer6BufferNCINvMs7_NtB6_6clientINtB24_6ClientNtB8_11TokenStreamB2u_E7expand1NvCsaQ2CmD7W1Vs_15zerocopy_derive16derive_unalignedE0EB31_, symObjAddr: 0x2448, symBinAddr: 0x1F940, symSize: 0x4C }
  - { offset: 0x75FAF, size: 0x8, addend: 0x0, symName: __RINvNvNtNtCsjLJ1XWNSM6u_10proc_macro6bridge14selfless_reify31reify_to_extern_c_fn_hrt_bridge7wrapperNtNtB6_6buffer6BufferNCINvMs7_NtB6_6clientINtB24_6ClientNtB8_11TokenStreamB2u_E7expand1NvCsaQ2CmD7W1Vs_15zerocopy_derive17derive_from_bytesE0EB31_, symObjAddr: 0x2494, symBinAddr: 0x1F98C, symSize: 0x4C }
  - { offset: 0x7600A, size: 0x8, addend: 0x0, symName: __RINvNvNtNtCsjLJ1XWNSM6u_10proc_macro6bridge14selfless_reify31reify_to_extern_c_fn_hrt_bridge7wrapperNtNtB6_6buffer6BufferNCINvMs7_NtB6_6clientINtB24_6ClientNtB8_11TokenStreamB2u_E7expand1NvCsaQ2CmD7W1Vs_15zerocopy_derive18derive_from_zeroesE0EB31_, symObjAddr: 0x24E0, symBinAddr: 0x1F9D8, symSize: 0x4C }
  - { offset: 0x76065, size: 0x8, addend: 0x0, symName: __RINvNvNtNtCsjLJ1XWNSM6u_10proc_macro6bridge14selfless_reify31reify_to_extern_c_fn_hrt_bridge7wrapperNtNtB6_6buffer6BufferNCINvMs7_NtB6_6clientINtB24_6ClientNtB8_11TokenStreamB2u_E7expand1NvCsaQ2CmD7W1Vs_15zerocopy_derive19derive_known_layoutE0EB31_, symObjAddr: 0x252C, symBinAddr: 0x1FA24, symSize: 0x4C }
  - { offset: 0x760FD, size: 0x8, addend: 0x0, symName: __RNvXs1J_NtCsjLJ1XWNSM6u_10proc_macro6bridgeINtB6_11ExpnGlobalsNtNtB6_6client4SpanEINtNtB6_3rpc9DecodeMutuE6decodeCsaQ2CmD7W1Vs_15zerocopy_derive, symObjAddr: 0x3F40, symBinAddr: 0x21438, symSize: 0xB0 }
  - { offset: 0x7939C, size: 0x8, addend: 0x0, symName: __RNvNvMsc_NtNtCs9f3LFPSIp77_4core3num7nonzeroINtB7_7NonZeropE13new_unchecked18precondition_checkCsaQ2CmD7W1Vs_15zerocopy_derive, symObjAddr: 0x3DB4, symBinAddr: 0x212AC, symSize: 0x1C }
  - { offset: 0x79CF2, size: 0x8, addend: 0x0, symName: __RINvNtNtNtNtCs9f3LFPSIp77_4core5slice4sort6stable5merge5mergeTNtNtCsATtFUPiRFW_3syn4attr4MetaNtNtCsaQ2CmD7W1Vs_15zerocopy_derive4repr10StructReprENCINvMNtCsdze8u8oDPro_5alloc5sliceSBX_7sort_byNCNvMB1v_INtB1v_6ConfigB1t_E14validate_reprs0E0EB1x_, symObjAddr: 0x1DB4, symBinAddr: 0x1F2AC, symSize: 0x324 }
  - { offset: 0x79F7E, size: 0x8, addend: 0x0, symName: __RINvNtNtNtNtCs9f3LFPSIp77_4core5slice4sort6stable5merge5mergeTNtNtCsATtFUPiRFW_3syn4attr4MetaNtNtCsaQ2CmD7W1Vs_15zerocopy_derive4repr8EnumReprENCINvMNtCsdze8u8oDPro_5alloc5sliceSBX_7sort_byNCNvMB1v_INtB1v_6ConfigB1t_E14validate_reprs0E0EB1x_, symObjAddr: 0x20D8, symBinAddr: 0x1F5D0, symSize: 0x324 }
  - { offset: 0x7A20F, size: 0x8, addend: 0x0, symName: __RNvXs_NtNtNtNtCs9f3LFPSIp77_4core5slice4sort6stable5mergeINtB4_10MergeStateTNtNtCsATtFUPiRFW_3syn4attr4MetaNtNtCsaQ2CmD7W1Vs_15zerocopy_derive4repr10StructReprEENtNtNtBc_3ops4drop4Drop4dropB1L_, symObjAddr: 0x410C, symBinAddr: 0x21604, symSize: 0xE4 }
  - { offset: 0x7A301, size: 0x8, addend: 0x0, symName: __RNvXs_NtNtNtNtCs9f3LFPSIp77_4core5slice4sort6stable5mergeINtB4_10MergeStateTNtNtCsATtFUPiRFW_3syn4attr4MetaNtNtCsaQ2CmD7W1Vs_15zerocopy_derive4repr8EnumReprEENtNtNtBc_3ops4drop4Drop4dropB1L_, symObjAddr: 0x41F0, symBinAddr: 0x216E8, symSize: 0xE4 }
  - { offset: 0x7A50E, size: 0x8, addend: 0x0, symName: __RINvNtNtNtNtCs9f3LFPSIp77_4core5slice4sort6shared5pivot11median3_recTNtNtCsATtFUPiRFW_3syn4attr4MetaNtNtCsaQ2CmD7W1Vs_15zerocopy_derive4repr10StructReprENCINvMNtCsdze8u8oDPro_5alloc5sliceSB14_7sort_byNCNvMB1C_INtB1C_6ConfigB1A_E14validate_reprs0E0EB1E_, symObjAddr: 0x15C4, symBinAddr: 0x1EABC, symSize: 0x1F4 }
  - { offset: 0x7A77E, size: 0x8, addend: 0x0, symName: __RINvNtNtNtNtCs9f3LFPSIp77_4core5slice4sort6shared5pivot11median3_recTNtNtCsATtFUPiRFW_3syn4attr4MetaNtNtCsaQ2CmD7W1Vs_15zerocopy_derive4repr8EnumReprENCINvMNtCsdze8u8oDPro_5alloc5sliceSB14_7sort_byNCNvMB1C_INtB1C_6ConfigB1A_E14validate_reprs0E0EB1E_, symObjAddr: 0x17B8, symBinAddr: 0x1ECB0, symSize: 0x1F4 }
  - { offset: 0x7A978, size: 0x8, addend: 0x0, symName: __RINvNtNtNtNtCs9f3LFPSIp77_4core5slice4sort6shared5pivot12choose_pivotTNtNtCsATtFUPiRFW_3syn4attr4MetaNtNtCsaQ2CmD7W1Vs_15zerocopy_derive4repr10StructReprENCINvMNtCsdze8u8oDPro_5alloc5sliceSB15_7sort_byNCNvMB1D_INtB1D_6ConfigB1B_E14validate_reprs0E0EB1F_, symObjAddr: 0x19AC, symBinAddr: 0x1EEA4, symSize: 0x204 }
  - { offset: 0x7ABC3, size: 0x8, addend: 0x0, symName: __RINvNtNtNtNtCs9f3LFPSIp77_4core5slice4sort6shared5pivot12choose_pivotTNtNtCsATtFUPiRFW_3syn4attr4MetaNtNtCsaQ2CmD7W1Vs_15zerocopy_derive4repr8EnumReprENCINvMNtCsdze8u8oDPro_5alloc5sliceSB15_7sort_byNCNvMB1D_INtB1D_6ConfigB1B_E14validate_reprs0E0EB1F_, symObjAddr: 0x1BB0, symBinAddr: 0x1F0A8, symSize: 0x204 }
  - { offset: 0x7AFB8, size: 0x8, addend: 0x0, symName: __RNCNvXsd_NtNtCs9f3LFPSIp77_4core5slice3cmpNtNtCsaQ2CmD7W1Vs_15zerocopy_derive4repr10StructReprNtB7_13SliceContains14slice_contains0BI_, symObjAddr: 0x3C80, symBinAddr: 0x21178, symSize: 0x38 }
  - { offset: 0x7AFFE, size: 0x8, addend: 0x0, symName: __RNCNvXsd_NtNtCs9f3LFPSIp77_4core5slice3cmpRSNtNtCsaQ2CmD7W1Vs_15zerocopy_derive4repr10StructReprNtB7_13SliceContains14slice_contains0BK_, symObjAddr: 0x3CB8, symBinAddr: 0x211B0, symSize: 0x38 }
  - { offset: 0x7B044, size: 0x8, addend: 0x0, symName: __RNCNvXsd_NtNtCs9f3LFPSIp77_4core5slice3cmpRSNtNtCsaQ2CmD7W1Vs_15zerocopy_derive4repr8EnumReprNtB7_13SliceContains14slice_contains0BK_, symObjAddr: 0x3CF0, symBinAddr: 0x211E8, symSize: 0x38 }
  - { offset: 0x80E6F, size: 0x8, addend: 0x0, symName: __RINvNtCsATtFUPiRFW_3syn5parse12parse_scopedNvMNtB4_10punctuatedINtBI_10PunctuatedNtNtB4_4attr4MetaNtNtB4_5token5CommaE16parse_terminatedECsaQ2CmD7W1Vs_15zerocopy_derive, symObjAddr: 0x7D8, symBinAddr: 0x1DCD0, symSize: 0x30 }
  - { offset: 0x80EC5, size: 0x8, addend: 0x0, symName: __RINvNtCsATtFUPiRFW_3syn5parse12parse_scopedNvYNtNtB4_3lit6LitIntNtB2_5Parse5parseECsaQ2CmD7W1Vs_15zerocopy_derive, symObjAddr: 0x808, symBinAddr: 0x1DD00, symSize: 0x30 }
  - { offset: 0x80F20, size: 0x8, addend: 0x0, symName: __RNvXsh_NtCsATtFUPiRFW_3syn5parseNvYNtNtB7_3lit6LitIntNtB5_5Parse5parseNtB5_6Parser14___parse_scopedCsaQ2CmD7W1Vs_15zerocopy_derive, symObjAddr: 0x42D4, symBinAddr: 0x217CC, symSize: 0x3A0 }
  - { offset: 0x8106A, size: 0x8, addend: 0x0, symName: __RNvXsh_NtCsATtFUPiRFW_3syn5parseNvYNtNtB7_6derive11DeriveInputNtB5_5Parse5parseNtB5_6Parser6parse2CsaQ2CmD7W1Vs_15zerocopy_derive, symObjAddr: 0x4674, symBinAddr: 0x21B6C, symSize: 0x36C }
  - { offset: 0x8117E, size: 0x8, addend: 0x0, symName: __RNvYNvYNtNtCsATtFUPiRFW_3syn6derive11DeriveInputNtNtB9_5parse5Parse5parseNtBM_6Parser5parseCsaQ2CmD7W1Vs_15zerocopy_derive, symObjAddr: 0x4A88, symBinAddr: 0x21F80, symSize: 0x88 }
  - { offset: 0x8138C, size: 0x8, addend: 0x0, symName: __RNvXs0_NtCsATtFUPiRFW_3syn5dropsINtB5_6NoDropDINtNtB7_10punctuated9IterTraitNtNtB7_4data7VariantEp4ItemRB1c_EL_ENtNtNtCs9f3LFPSIp77_4core3ops5deref8DerefMut9deref_mutCsaQ2CmD7W1Vs_15zerocopy_derive, symObjAddr: 0x3EC8, symBinAddr: 0x213C0, symSize: 0x3C }
  - { offset: 0x813C1, size: 0x8, addend: 0x0, symName: __RNvXs0_NtCsATtFUPiRFW_3syn5dropsINtB5_6NoDropDINtNtB7_10punctuated9IterTraitNtNtB7_8generics14WherePredicateEp4ItemRB1c_EL_ENtNtNtCs9f3LFPSIp77_4core3ops5deref8DerefMut9deref_mutCsaQ2CmD7W1Vs_15zerocopy_derive, symObjAddr: 0x3F04, symBinAddr: 0x213FC, symSize: 0x3C }
  - { offset: 0x813FC, size: 0x8, addend: 0x0, symName: __RNvXs_NtCsATtFUPiRFW_3syn5dropsINtB4_6NoDropDINtNtB6_10punctuated9IterTraitNtNtB6_4data7VariantEp4ItemRB1b_EL_ENtNtNtCs9f3LFPSIp77_4core3ops5deref5Deref5derefCsaQ2CmD7W1Vs_15zerocopy_derive, symObjAddr: 0x40D0, symBinAddr: 0x215C8, symSize: 0x3C }
  - { offset: 0x81479, size: 0x8, addend: 0x0, symName: __RNvXNtCsATtFUPiRFW_3syn7spannedNtNtB4_6derive11DeriveInputNtB2_7Spanned4spanCsaQ2CmD7W1Vs_15zerocopy_derive, symObjAddr: 0x3E50, symBinAddr: 0x21348, symSize: 0x34 }
  - { offset: 0x82A48, size: 0x8, addend: 0x0, symName: __RNCINvMNtCsdze8u8oDPro_5alloc5sliceSTNtNtCsATtFUPiRFW_3syn4attr4MetaNtNtCsaQ2CmD7W1Vs_15zerocopy_derive4repr10StructReprE7sort_byNCNvMB16_INtB16_6ConfigB14_E14validate_reprs0E0B18_, symObjAddr: 0x2578, symBinAddr: 0x1FA70, symSize: 0x68 }
  - { offset: 0x82AE2, size: 0x8, addend: 0x0, symName: __RNCINvMNtCsdze8u8oDPro_5alloc5sliceSTNtNtCsATtFUPiRFW_3syn4attr4MetaNtNtCsaQ2CmD7W1Vs_15zerocopy_derive4repr8EnumReprE7sort_byNCNvMB16_INtB16_6ConfigB14_E14validate_reprs0E0B18_, symObjAddr: 0x25E0, symBinAddr: 0x1FAD8, symSize: 0x68 }
  - { offset: 0x82B7E, size: 0x8, addend: 0x0, symName: __RINvNtCsdze8u8oDPro_5alloc5slice11stable_sortTNtNtCsATtFUPiRFW_3syn4attr4MetaNtNtCsaQ2CmD7W1Vs_15zerocopy_derive4repr10StructReprENCINvMB2_SBH_7sort_byNCNvMB1f_INtB1f_6ConfigB1d_E14validate_reprs0E0EB1h_, symObjAddr: 0x838, symBinAddr: 0x1DD30, symSize: 0xC8 }
  - { offset: 0x82BF5, size: 0x8, addend: 0x0, symName: __RINvNtCsdze8u8oDPro_5alloc5slice11stable_sortTNtNtCsATtFUPiRFW_3syn4attr4MetaNtNtCsaQ2CmD7W1Vs_15zerocopy_derive4repr8EnumReprENCINvMB2_SBH_7sort_byNCNvMB1f_INtB1f_6ConfigB1d_E14validate_reprs0E0EB1h_, symObjAddr: 0x900, symBinAddr: 0x1DDF8, symSize: 0xC8 }
  - { offset: 0x82C71, size: 0x8, addend: 0x0, symName: __RINvNtNtCsdze8u8oDPro_5alloc5slice4hack8into_vecNtNtCsATtFUPiRFW_3syn5error5ErrorNtNtB6_5alloc6GlobalECsaQ2CmD7W1Vs_15zerocopy_derive, symObjAddr: 0x9C8, symBinAddr: 0x1DEC0, symSize: 0xB8 }
  - { offset: 0x82E9D, size: 0x8, addend: 0x0, symName: __RINvNtNtCsdze8u8oDPro_5alloc5slice4hack8into_vecNtNtCsATtFUPiRFW_3syn8generics14WherePredicateNtNtB6_5alloc6GlobalECsaQ2CmD7W1Vs_15zerocopy_derive, symObjAddr: 0xA80, symBinAddr: 0x1DF78, symSize: 0xB8 }
  - { offset: 0x838A7, size: 0x8, addend: 0x0, symName: __RNvXNtCsaQ2CmD7W1Vs_15zerocopy_derive3extNtNtCsATtFUPiRFW_3syn6derive4DataNtB2_7DataExt11field_types, symObjAddr: 0x4BF0, symBinAddr: 0x220E8, symSize: 0xE4 }
  - { offset: 0x83928, size: 0x8, addend: 0x0, symName: __RNvXs_NtCsaQ2CmD7W1Vs_15zerocopy_derive3extNtNtCsATtFUPiRFW_3syn6derive10DataStructNtB4_7DataExt11field_types, symObjAddr: 0x4CD4, symBinAddr: 0x221CC, symSize: 0x44 }
  - { offset: 0x8395A, size: 0x8, addend: 0x0, symName: __RNvXs0_NtCsaQ2CmD7W1Vs_15zerocopy_derive3extNtNtCsATtFUPiRFW_3syn6derive8DataEnumNtB5_7DataExt11field_types, symObjAddr: 0x4D18, symBinAddr: 0x22210, symSize: 0x60 }
  - { offset: 0x8398C, size: 0x8, addend: 0x0, symName: __RNvXs1_NtCsaQ2CmD7W1Vs_15zerocopy_derive3extNtNtCsATtFUPiRFW_3syn6derive9DataUnionNtB5_7DataExt11field_types, symObjAddr: 0x4D78, symBinAddr: 0x22270, symSize: 0x44 }
  - { offset: 0x839BE, size: 0x8, addend: 0x0, symName: __RNvXs2_NtCsaQ2CmD7W1Vs_15zerocopy_derive3extNtNtCsATtFUPiRFW_3syn6derive8DataEnumNtB5_7EnumExt9is_c_like, symObjAddr: 0x4DBC, symBinAddr: 0x222B4, symSize: 0x80 }
  - { offset: 0x83A2E, size: 0x8, addend: 0x0, symName: __RINvMNtNtNtNtCs9f3LFPSIp77_4core5slice4sort6stable5mergeINtB3_10MergeStateTNtNtCsATtFUPiRFW_3syn4attr4MetaNtNtCsaQ2CmD7W1Vs_15zerocopy_derive4repr10StructReprEE10merge_downNCINvMNtCsdze8u8oDPro_5alloc5sliceSB1a_7sort_byNCNvMB1I_INtB1I_6ConfigB1G_E14validate_reprs0E0EB1K_, symObjAddr: 0x0, symBinAddr: 0x1D4F8, symSize: 0x1DC }
  - { offset: 0x83BC3, size: 0x8, addend: 0x0, symName: __RINvMNtNtNtNtCs9f3LFPSIp77_4core5slice4sort6stable5mergeINtB3_10MergeStateTNtNtCsATtFUPiRFW_3syn4attr4MetaNtNtCsaQ2CmD7W1Vs_15zerocopy_derive4repr10StructReprEE8merge_upNCINvMNtCsdze8u8oDPro_5alloc5sliceSB1a_7sort_byNCNvMB1I_INtB1I_6ConfigB1G_E14validate_reprs0E0EB1K_, symObjAddr: 0x1DC, symBinAddr: 0x1D6D4, symSize: 0x19C }
  - { offset: 0x83D67, size: 0x8, addend: 0x0, symName: __RINvMNtNtNtNtCs9f3LFPSIp77_4core5slice4sort6stable5mergeINtB3_10MergeStateTNtNtCsATtFUPiRFW_3syn4attr4MetaNtNtCsaQ2CmD7W1Vs_15zerocopy_derive4repr8EnumReprEE10merge_downNCINvMNtCsdze8u8oDPro_5alloc5sliceSB1a_7sort_byNCNvMB1I_INtB1I_6ConfigB1G_E14validate_reprs0E0EB1K_, symObjAddr: 0x378, symBinAddr: 0x1D870, symSize: 0x1DC }
  - { offset: 0x83EFC, size: 0x8, addend: 0x0, symName: __RINvMNtNtNtNtCs9f3LFPSIp77_4core5slice4sort6stable5mergeINtB3_10MergeStateTNtNtCsATtFUPiRFW_3syn4attr4MetaNtNtCsaQ2CmD7W1Vs_15zerocopy_derive4repr8EnumReprEE8merge_upNCINvMNtCsdze8u8oDPro_5alloc5sliceSB1a_7sort_byNCNvMB1I_INtB1I_6ConfigB1G_E14validate_reprs0E0EB1K_, symObjAddr: 0x554, symBinAddr: 0x1DA4C, symSize: 0x19C }
  - { offset: 0x840F0, size: 0x8, addend: 0x0, symName: __RNCNvMs3_NtNtCs27l1GJC5rMQ_3std6thread5localINtB7_8LocalKeyINtNtCs9f3LFPSIp77_4core4cell4CellPuEE7replace0CsaQ2CmD7W1Vs_15zerocopy_derive, symObjAddr: 0x3C3C, symBinAddr: 0x21134, symSize: 0x44 }
  - { offset: 0x84636, size: 0x8, addend: 0x0, symName: __RINvMs2_NtNtCs27l1GJC5rMQ_3std6thread5localINtB6_8LocalKeyINtNtCs9f3LFPSIp77_4core4cell4CellPuEE8try_withNCNvMs3_B6_BF_7replace0B1s_ECsaQ2CmD7W1Vs_15zerocopy_derive, symObjAddr: 0x6F0, symBinAddr: 0x1DBE8, symSize: 0xE8 }
  - { offset: 0x860D1, size: 0x8, addend: 0x0, symName: __RNvMNtCsATtFUPiRFW_3syn5dropsINtB2_6NoDropINtNtB4_10punctuated11PrivateIterNtNtB4_4data7VariantNtNtB4_5token5CommaEE3newCsaQ2CmD7W1Vs_15zerocopy_derive, symObjAddr: 0x3D28, symBinAddr: 0x21220, symSize: 0x40 }
  - { offset: 0x8615B, size: 0x8, addend: 0x0, symName: __RNvMNtCsATtFUPiRFW_3syn5dropsINtB2_6NoDropINtNtB4_10punctuated11PrivateIterNtNtB4_8generics14WherePredicateNtNtB4_5token5CommaEE3newCsaQ2CmD7W1Vs_15zerocopy_derive, symObjAddr: 0x3D68, symBinAddr: 0x21260, symSize: 0x40 }
  - { offset: 0x861B0, size: 0x8, addend: 0x0, symName: __RNvMsa_NtNtCsjLJ1XWNSM6u_10proc_macro6bridge6clientNtB5_14HandleCounters3getCsaQ2CmD7W1Vs_15zerocopy_derive, symObjAddr: 0x3DA8, symBinAddr: 0x212A0, symSize: 0xC }
  - { offset: 0x861D2, size: 0x8, addend: 0x0, symName: __RNvXNtCs62MdaZFMefA_5quote9to_tokensRNtNtCsATtFUPiRFW_3syn6derive11DeriveInputNtB2_8ToTokens9to_tokensCsaQ2CmD7W1Vs_15zerocopy_derive, symObjAddr: 0x3DD0, symBinAddr: 0x212C8, symSize: 0x40 }
  - { offset: 0x86211, size: 0x8, addend: 0x0, symName: __RNvXNtCs62MdaZFMefA_5quote9to_tokensRyNtB2_8ToTokens9to_tokensCsaQ2CmD7W1Vs_15zerocopy_derive, symObjAddr: 0x3E10, symBinAddr: 0x21308, symSize: 0x40 }
  - { offset: 0x86256, size: 0x8, addend: 0x0, symName: __RNvYRNtNtCsATtFUPiRFW_3syn6derive11DeriveInputNtNtCs62MdaZFMefA_5quote9to_tokens8ToTokens15to_token_streamCsaQ2CmD7W1Vs_15zerocopy_derive, symObjAddr: 0x4B10, symBinAddr: 0x22008, symSize: 0x8C }
  - { offset: 0x862A0, size: 0x8, addend: 0x0, symName: __RNvYRNtNtCsATtFUPiRFW_3syn6derive11DeriveInputNtNtCs62MdaZFMefA_5quote9to_tokens8ToTokens17into_token_streamCsaQ2CmD7W1Vs_15zerocopy_derive, symObjAddr: 0x4B9C, symBinAddr: 0x22094, symSize: 0x54 }
  - { offset: 0x862E1, size: 0x8, addend: 0x0, symName: __RNvXs0_NtCs62MdaZFMefA_5quote7spannedNtNtCsATtFUPiRFW_3syn6derive11DeriveInputNtB5_7Spanned6___spanCsaQ2CmD7W1Vs_15zerocopy_derive, symObjAddr: 0x3E84, symBinAddr: 0x2137C, symSize: 0x44 }
  - { offset: 0x866CB, size: 0x8, addend: 0x0, symName: __RNvXs2_NtNtNtCs9f3LFPSIp77_4core3ops8function5implsQNCINvCsaQ2CmD7W1Vs_15zerocopy_derive10impl_blockNtNtCsATtFUPiRFW_3syn6derive10DataStructEs2_0INtB7_6FnOnceTNtNtB1E_8generics12GenericParamEE9call_onceBT_, symObjAddr: 0x0, symBinAddr: 0x22388, symSize: 0x54 }
  - { offset: 0x866ED, size: 0x8, addend: 0x0, symName: ___rustc_proc_macro_decls_7e40ca8b1bf88d30__, symObjAddr: 0xB7E8, symBinAddr: 0x3C8E68, symSize: 0x0 }
  - { offset: 0x86787, size: 0x8, addend: 0x0, symName: __RNvCsaQ2CmD7W1Vs_15zerocopy_derive19derive_known_layout, symObjAddr: 0x210, symBinAddr: 0x22598, symSize: 0x241C }
  - { offset: 0x86BAB, size: 0x8, addend: 0x0, symName: __RNCNvCsaQ2CmD7W1Vs_15zerocopy_derive19derive_known_layout0B3_, symObjAddr: 0x262C, symBinAddr: 0x249B4, symSize: 0x4C }
  - { offset: 0x86C01, size: 0x8, addend: 0x0, symName: __RNCNvCsaQ2CmD7W1Vs_15zerocopy_derive19derive_known_layouts_0B3_, symObjAddr: 0x2678, symBinAddr: 0x24A00, symSize: 0x84 }
  - { offset: 0x86C6C, size: 0x8, addend: 0x0, symName: __RNCNvCsaQ2CmD7W1Vs_15zerocopy_derive19derive_known_layouts0_0B3_, symObjAddr: 0x26FC, symBinAddr: 0x24A84, symSize: 0x154 }
  - { offset: 0x86CCC, size: 0x8, addend: 0x0, symName: __RNCNvCsaQ2CmD7W1Vs_15zerocopy_derive19derive_known_layouts1_0B3_, symObjAddr: 0x2850, symBinAddr: 0x24BD8, symSize: 0xC4 }
  - { offset: 0x86D41, size: 0x8, addend: 0x0, symName: __RNCNvCsaQ2CmD7W1Vs_15zerocopy_derive19derive_known_layouts2_0B3_, symObjAddr: 0x2914, symBinAddr: 0x24C9C, symSize: 0x154 }
  - { offset: 0x86DC5, size: 0x8, addend: 0x0, symName: __RNvCsaQ2CmD7W1Vs_15zerocopy_derive18derive_from_zeroes, symObjAddr: 0x2A68, symBinAddr: 0x24DF0, symSize: 0x248 }
  - { offset: 0x86E79, size: 0x8, addend: 0x0, symName: __RNvCsaQ2CmD7W1Vs_15zerocopy_derive17derive_from_bytes, symObjAddr: 0x2CB0, symBinAddr: 0x25038, symSize: 0x248 }
  - { offset: 0x86F35, size: 0x8, addend: 0x0, symName: __RNvCsaQ2CmD7W1Vs_15zerocopy_derive15derive_as_bytes, symObjAddr: 0x2EF8, symBinAddr: 0x25280, symSize: 0x248 }
  - { offset: 0x86FF1, size: 0x8, addend: 0x0, symName: __RNvCsaQ2CmD7W1Vs_15zerocopy_derive16derive_unaligned, symObjAddr: 0x3140, symBinAddr: 0x254C8, symSize: 0x248 }
  - { offset: 0x870AD, size: 0x8, addend: 0x0, symName: __RNvCsaQ2CmD7W1Vs_15zerocopy_derive25derive_from_zeroes_struct, symObjAddr: 0x3388, symBinAddr: 0x25710, symSize: 0x70 }
  - { offset: 0x870EA, size: 0x8, addend: 0x0, symName: __RNvCsaQ2CmD7W1Vs_15zerocopy_derive23derive_from_zeroes_enum, symObjAddr: 0x33F8, symBinAddr: 0x25780, symSize: 0x2A4 }
  - { offset: 0x87156, size: 0x8, addend: 0x0, symName: __RNCNvCsaQ2CmD7W1Vs_15zerocopy_derive23derive_from_zeroes_enum0B3_, symObjAddr: 0x369C, symBinAddr: 0x25A24, symSize: 0x38 }
  - { offset: 0x8718F, size: 0x8, addend: 0x0, symName: __RNCNvCsaQ2CmD7W1Vs_15zerocopy_derive23derive_from_zeroes_enums_0B3_, symObjAddr: 0x36D4, symBinAddr: 0x25A5C, symSize: 0x114 }
  - { offset: 0x871F0, size: 0x8, addend: 0x0, symName: __RNCNvCsaQ2CmD7W1Vs_15zerocopy_derive23derive_from_zeroes_enums0_0B3_, symObjAddr: 0x37E8, symBinAddr: 0x25B70, symSize: 0x34 }
  - { offset: 0x8723F, size: 0x8, addend: 0x0, symName: __RNvCsaQ2CmD7W1Vs_15zerocopy_derive24derive_from_zeroes_union, symObjAddr: 0x381C, symBinAddr: 0x25BA4, symSize: 0x70 }
  - { offset: 0x8727C, size: 0x8, addend: 0x0, symName: __RNvCsaQ2CmD7W1Vs_15zerocopy_derive24derive_from_bytes_struct, symObjAddr: 0x388C, symBinAddr: 0x25C14, symSize: 0x70 }
  - { offset: 0x87602, size: 0x8, addend: 0x0, symName: __RNvCsaQ2CmD7W1Vs_15zerocopy_derive22derive_from_bytes_enum, symObjAddr: 0x38FC, symBinAddr: 0x25C84, symSize: 0x474 }
  - { offset: 0x87786, size: 0x8, addend: 0x0, symName: __RNvCsaQ2CmD7W1Vs_15zerocopy_derive23derive_from_bytes_union, symObjAddr: 0x3D70, symBinAddr: 0x260F8, symSize: 0x70 }
  - { offset: 0x877C3, size: 0x8, addend: 0x0, symName: __RNvCsaQ2CmD7W1Vs_15zerocopy_derive22derive_as_bytes_struct, symObjAddr: 0x3DE0, symBinAddr: 0x26168, symSize: 0x344 }
  - { offset: 0x87893, size: 0x8, addend: 0x0, symName: __RNvCsaQ2CmD7W1Vs_15zerocopy_derive20derive_as_bytes_enum, symObjAddr: 0x4124, symBinAddr: 0x264AC, symSize: 0x1CC }
  - { offset: 0x87904, size: 0x8, addend: 0x0, symName: __RNvCsaQ2CmD7W1Vs_15zerocopy_derive21derive_as_bytes_union, symObjAddr: 0x42F0, symBinAddr: 0x26678, symSize: 0x1D4 }
  - { offset: 0x87975, size: 0x8, addend: 0x0, symName: __RNvCsaQ2CmD7W1Vs_15zerocopy_derive23derive_unaligned_struct, symObjAddr: 0x44C4, symBinAddr: 0x2684C, symSize: 0x1A8 }
  - { offset: 0x87A1A, size: 0x8, addend: 0x0, symName: __RNvCsaQ2CmD7W1Vs_15zerocopy_derive21derive_unaligned_enum, symObjAddr: 0x466C, symBinAddr: 0x269F4, symSize: 0x1D0 }
  - { offset: 0x87A8B, size: 0x8, addend: 0x0, symName: __RNvCsaQ2CmD7W1Vs_15zerocopy_derive22derive_unaligned_union, symObjAddr: 0x483C, symBinAddr: 0x26BC4, symSize: 0x1A8 }
  - { offset: 0x87B35, size: 0x8, addend: 0x0, symName: __RNvXs0_CsaQ2CmD7W1Vs_15zerocopy_deriveNtB5_20RequireBoundedFieldsINtNtCs9f3LFPSIp77_4core7convert4FrombE4from, symObjAddr: 0x4BB0, symBinAddr: 0x26F38, symSize: 0x54 }
  - { offset: 0x87B64, size: 0x8, addend: 0x0, symName: __RINvCsaQ2CmD7W1Vs_15zerocopy_derive10impl_blockNtNtCsATtFUPiRFW_3syn6derive10DataStructEB2_, symObjAddr: 0x4C04, symBinAddr: 0x26F8C, symSize: 0xF50 }
  - { offset: 0x87F27, size: 0x8, addend: 0x0, symName: __RINvCsaQ2CmD7W1Vs_15zerocopy_derive10impl_blockNtNtCsATtFUPiRFW_3syn6derive8DataEnumEB2_, symObjAddr: 0x5B54, symBinAddr: 0x27EDC, symSize: 0xF50 }
  - { offset: 0x882EA, size: 0x8, addend: 0x0, symName: __RINvCsaQ2CmD7W1Vs_15zerocopy_derive10impl_blockNtNtCsATtFUPiRFW_3syn6derive9DataUnionEB2_, symObjAddr: 0x6AA4, symBinAddr: 0x28E2C, symSize: 0xF50 }
  - { offset: 0x886B2, size: 0x8, addend: 0x0, symName: __RNCINvCsaQ2CmD7W1Vs_15zerocopy_derive10impl_blockNtNtCsATtFUPiRFW_3syn6derive10DataStructE0B4_, symObjAddr: 0x79F4, symBinAddr: 0x29D7C, symSize: 0xFC }
  - { offset: 0x88711, size: 0x8, addend: 0x0, symName: __RNCINvCsaQ2CmD7W1Vs_15zerocopy_derive10impl_blockNtNtCsATtFUPiRFW_3syn6derive8DataEnumE0B4_, symObjAddr: 0x7AF0, symBinAddr: 0x29E78, symSize: 0xFC }
  - { offset: 0x88770, size: 0x8, addend: 0x0, symName: __RNCINvCsaQ2CmD7W1Vs_15zerocopy_derive10impl_blockNtNtCsATtFUPiRFW_3syn6derive9DataUnionE0B4_, symObjAddr: 0x7BEC, symBinAddr: 0x29F74, symSize: 0xFC }
  - { offset: 0x887CF, size: 0x8, addend: 0x0, symName: __RNCINvCsaQ2CmD7W1Vs_15zerocopy_derive10impl_blockNtNtCsATtFUPiRFW_3syn6derive10DataStructEs_0B4_, symObjAddr: 0x7CE8, symBinAddr: 0x2A070, symSize: 0x48 }
  - { offset: 0x88817, size: 0x8, addend: 0x0, symName: __RNCINvCsaQ2CmD7W1Vs_15zerocopy_derive10impl_blockNtNtCsATtFUPiRFW_3syn6derive8DataEnumEs_0B4_, symObjAddr: 0x7D30, symBinAddr: 0x2A0B8, symSize: 0x48 }
  - { offset: 0x8885F, size: 0x8, addend: 0x0, symName: __RNCINvCsaQ2CmD7W1Vs_15zerocopy_derive10impl_blockNtNtCsATtFUPiRFW_3syn6derive9DataUnionEs_0B4_, symObjAddr: 0x7D78, symBinAddr: 0x2A100, symSize: 0x48 }
  - { offset: 0x888A7, size: 0x8, addend: 0x0, symName: __RNCINvCsaQ2CmD7W1Vs_15zerocopy_derive10impl_blockNtNtCsATtFUPiRFW_3syn6derive10DataStructEs0_0B4_, symObjAddr: 0x7DC0, symBinAddr: 0x2A148, symSize: 0x488 }
  - { offset: 0x88A13, size: 0x8, addend: 0x0, symName: __RNCINvCsaQ2CmD7W1Vs_15zerocopy_derive10impl_blockNtNtCsATtFUPiRFW_3syn6derive8DataEnumEs0_0B4_, symObjAddr: 0x8248, symBinAddr: 0x2A5D0, symSize: 0x488 }
  - { offset: 0x88B7F, size: 0x8, addend: 0x0, symName: __RNCINvCsaQ2CmD7W1Vs_15zerocopy_derive10impl_blockNtNtCsATtFUPiRFW_3syn6derive9DataUnionEs0_0B4_, symObjAddr: 0x86D0, symBinAddr: 0x2AA58, symSize: 0x488 }
  - { offset: 0x88CEB, size: 0x8, addend: 0x0, symName: __RNCINvCsaQ2CmD7W1Vs_15zerocopy_derive10impl_blockNtNtCsATtFUPiRFW_3syn6derive10DataStructEs1_0B4_, symObjAddr: 0x8B58, symBinAddr: 0x2AEE0, symSize: 0x34 }
  - { offset: 0x88D2D, size: 0x8, addend: 0x0, symName: __RNCINvCsaQ2CmD7W1Vs_15zerocopy_derive10impl_blockNtNtCsATtFUPiRFW_3syn6derive8DataEnumEs1_0B4_, symObjAddr: 0x8B8C, symBinAddr: 0x2AF14, symSize: 0x34 }
  - { offset: 0x88D6F, size: 0x8, addend: 0x0, symName: __RNCINvCsaQ2CmD7W1Vs_15zerocopy_derive10impl_blockNtNtCsATtFUPiRFW_3syn6derive9DataUnionEs1_0B4_, symObjAddr: 0x8BC0, symBinAddr: 0x2AF48, symSize: 0x34 }
  - { offset: 0x88DB1, size: 0x8, addend: 0x0, symName: __RNCINvCsaQ2CmD7W1Vs_15zerocopy_derive10impl_blockNtNtCsATtFUPiRFW_3syn6derive10DataStructEs2_0B4_, symObjAddr: 0x8BF4, symBinAddr: 0x2AF7C, symSize: 0x1E4 }
  - { offset: 0x88E37, size: 0x8, addend: 0x0, symName: __RNCINvCsaQ2CmD7W1Vs_15zerocopy_derive10impl_blockNtNtCsATtFUPiRFW_3syn6derive8DataEnumEs2_0B4_, symObjAddr: 0x8DD8, symBinAddr: 0x2B160, symSize: 0x1E4 }
  - { offset: 0x88EBD, size: 0x8, addend: 0x0, symName: __RNCINvCsaQ2CmD7W1Vs_15zerocopy_derive10impl_blockNtNtCsATtFUPiRFW_3syn6derive9DataUnionEs2_0B4_, symObjAddr: 0x8FBC, symBinAddr: 0x2B344, symSize: 0x1E4 }
  - { offset: 0x88F43, size: 0x8, addend: 0x0, symName: __RNCINvCsaQ2CmD7W1Vs_15zerocopy_derive10impl_blockNtNtCsATtFUPiRFW_3syn6derive10DataStructEs3_0B4_, symObjAddr: 0x91A0, symBinAddr: 0x2B528, symSize: 0x244 }
  - { offset: 0x89069, size: 0x8, addend: 0x0, symName: __RNCINvCsaQ2CmD7W1Vs_15zerocopy_derive10impl_blockNtNtCsATtFUPiRFW_3syn6derive8DataEnumEs3_0B4_, symObjAddr: 0x93E4, symBinAddr: 0x2B76C, symSize: 0x244 }
  - { offset: 0x8918F, size: 0x8, addend: 0x0, symName: __RNCINvCsaQ2CmD7W1Vs_15zerocopy_derive10impl_blockNtNtCsATtFUPiRFW_3syn6derive9DataUnionEs3_0B4_, symObjAddr: 0x9628, symBinAddr: 0x2B9B0, symSize: 0x244 }
  - { offset: 0x8932E, size: 0x8, addend: 0x0, symName: __RNvCsaQ2CmD7W1Vs_15zerocopy_derive16print_all_errors, symObjAddr: 0x986C, symBinAddr: 0x2BBF4, symSize: 0xB4 }
  - { offset: 0x89362, size: 0x8, addend: 0x0, symName: __RNvXs2_CsaQ2CmD7W1Vs_15zerocopy_deriveNtB5_5TraitNtNtCs9f3LFPSIp77_4core3fmt5Debug3fmtB5_, symObjAddr: 0x9920, symBinAddr: 0x2BCA8, symSize: 0xF4 }
  - { offset: 0x893A5, size: 0x8, addend: 0x0, symName: __RNvXs3_CsaQ2CmD7W1Vs_15zerocopy_deriveNtB5_5TraitNtNtCs9f3LFPSIp77_4core3cmp2Eq27assert_receiver_is_total_eqB5_, symObjAddr: 0x9A14, symBinAddr: 0x2BD9C, symSize: 0x10 }
  - { offset: 0x893D5, size: 0x8, addend: 0x0, symName: __RNvXs5_CsaQ2CmD7W1Vs_15zerocopy_deriveNtB5_5TraitNtNtCs9f3LFPSIp77_4core3cmp9PartialEq2eqB5_, symObjAddr: 0x9A24, symBinAddr: 0x2BDAC, symSize: 0x34 }
  - { offset: 0x89454, size: 0x8, addend: 0x0, symName: __RNvXs6_CsaQ2CmD7W1Vs_15zerocopy_deriveNtB5_20RequireBoundedFieldsNtNtCs9f3LFPSIp77_4core3fmt5Debug3fmtB5_, symObjAddr: 0x9A58, symBinAddr: 0x2BDE0, symSize: 0xA4 }
  - { offset: 0x89497, size: 0x8, addend: 0x0, symName: __RNvXs7_CsaQ2CmD7W1Vs_15zerocopy_deriveNtB5_20RequireBoundedFieldsNtNtCs9f3LFPSIp77_4core3cmp2Eq27assert_receiver_is_total_eqB5_, symObjAddr: 0x9AFC, symBinAddr: 0x2BE84, symSize: 0x10 }
  - { offset: 0x894C7, size: 0x8, addend: 0x0, symName: __RNvXs9_CsaQ2CmD7W1Vs_15zerocopy_deriveNtB5_20RequireBoundedFieldsNtNtCs9f3LFPSIp77_4core3cmp9PartialEq2eqB5_, symObjAddr: 0x9B0C, symBinAddr: 0x2BE94, symSize: 0x34 }
  - { offset: 0x8C34C, size: 0x8, addend: 0x0, symName: __RNvXsP_NtCs9f3LFPSIp77_4core3fmtRNtCsaQ2CmD7W1Vs_15zerocopy_derive5TraitNtB5_5Debug3fmtBx_, symObjAddr: 0x180, symBinAddr: 0x22508, symSize: 0x30 }
  - { offset: 0x8C401, size: 0x8, addend: 0x0, symName: __RNvXs2_NtNtNtCs9f3LFPSIp77_4core3ops8function5implsQNCINvCsaQ2CmD7W1Vs_15zerocopy_derive10impl_blockNtNtCsATtFUPiRFW_3syn6derive10DataStructEs2_0INtB7_6FnOnceTNtNtB1E_8generics12GenericParamEE9call_onceBT_, symObjAddr: 0x0, symBinAddr: 0x22388, symSize: 0x54 }
  - { offset: 0x8C450, size: 0x8, addend: 0x0, symName: __RNvXs2_NtNtNtCs9f3LFPSIp77_4core3ops8function5implsQNCINvCsaQ2CmD7W1Vs_15zerocopy_derive10impl_blockNtNtCsATtFUPiRFW_3syn6derive10DataStructEs3_0INtB7_6FnOnceTRNtNtB1E_8generics12GenericParamEE9call_onceBT_, symObjAddr: 0x54, symBinAddr: 0x223DC, symSize: 0x2C }
  - { offset: 0x8C49F, size: 0x8, addend: 0x0, symName: __RNvXs2_NtNtNtCs9f3LFPSIp77_4core3ops8function5implsQNCINvCsaQ2CmD7W1Vs_15zerocopy_derive10impl_blockNtNtCsATtFUPiRFW_3syn6derive8DataEnumEs2_0INtB7_6FnOnceTNtNtB1E_8generics12GenericParamEE9call_onceBT_, symObjAddr: 0x80, symBinAddr: 0x22408, symSize: 0x54 }
  - { offset: 0x8C4EE, size: 0x8, addend: 0x0, symName: __RNvXs2_NtNtNtCs9f3LFPSIp77_4core3ops8function5implsQNCINvCsaQ2CmD7W1Vs_15zerocopy_derive10impl_blockNtNtCsATtFUPiRFW_3syn6derive8DataEnumEs3_0INtB7_6FnOnceTRNtNtB1E_8generics12GenericParamEE9call_onceBT_, symObjAddr: 0xD4, symBinAddr: 0x2245C, symSize: 0x2C }
  - { offset: 0x8C53D, size: 0x8, addend: 0x0, symName: __RNvXs2_NtNtNtCs9f3LFPSIp77_4core3ops8function5implsQNCINvCsaQ2CmD7W1Vs_15zerocopy_derive10impl_blockNtNtCsATtFUPiRFW_3syn6derive9DataUnionEs2_0INtB7_6FnOnceTNtNtB1E_8generics12GenericParamEE9call_onceBT_, symObjAddr: 0x100, symBinAddr: 0x22488, symSize: 0x54 }
  - { offset: 0x8C58C, size: 0x8, addend: 0x0, symName: __RNvXs2_NtNtNtCs9f3LFPSIp77_4core3ops8function5implsQNCINvCsaQ2CmD7W1Vs_15zerocopy_derive10impl_blockNtNtCsATtFUPiRFW_3syn6derive9DataUnionEs3_0INtB7_6FnOnceTRNtNtB1E_8generics12GenericParamEE9call_onceBT_, symObjAddr: 0x154, symBinAddr: 0x224DC, symSize: 0x2C }
  - { offset: 0x8C5E9, size: 0x8, addend: 0x0, symName: __RNvYNtCsaQ2CmD7W1Vs_15zerocopy_derive20RequireBoundedFieldsNtNtCs9f3LFPSIp77_4core3cmp9PartialEq2neB4_, symObjAddr: 0x1B0, symBinAddr: 0x22538, symSize: 0x30 }
  - { offset: 0x8C638, size: 0x8, addend: 0x0, symName: __RNvYNtCsaQ2CmD7W1Vs_15zerocopy_derive5TraitNtNtCs9f3LFPSIp77_4core3cmp9PartialEq2neB4_, symObjAddr: 0x1E0, symBinAddr: 0x22568, symSize: 0x30 }
  - { offset: 0x8E44F, size: 0x8, addend: 0x0, symName: __RNvMCsaQ2CmD7W1Vs_15zerocopy_deriveNtB2_12PaddingCheck21validator_macro_ident, symObjAddr: 0x49E4, symBinAddr: 0x26D6C, symSize: 0xB4 }
  - { offset: 0x8E515, size: 0x8, addend: 0x0, symName: __RNvMs_CsaQ2CmD7W1Vs_15zerocopy_deriveNtB4_5Trait5ident, symObjAddr: 0x4A98, symBinAddr: 0x26E20, symSize: 0x118 }
  - { offset: 0x93CAB, size: 0x8, addend: 0x0, symName: __RINvXs2U_NtNtCs9f3LFPSIp77_4core5slice4iterINtB7_4IterNtNtCsATtFUPiRFW_3syn5error5ErrorENtNtNtNtBb_4iter6traits8iterator8Iterator4folduNCINvNtNtB1u_8adapters3map8map_foldRBQ_NtCs475r2uZUTuc_11proc_macro211TokenStreamuNvMBS_BQ_16to_compile_errorNCIB2c_B2M_NtNtB2O_3imp11TokenStreamuNCINvXs7_B2O_B2M_INtNtB1s_7collect12FromIteratorB2M_E9from_iterINtB2e_3MapBF_B3t_EE0NCIB2c_B45_NtCsjLJ1XWNSM6u_10proc_macro11TokenStreamuNCINvXs6_B47_B45_IB4N_B45_E9from_iterIB5x_B5w_B4v_EE0NCINvNvB1o_8for_each4callB62_NCINvXsk_B64_B62_INtB4P_6ExtendB62_E6extendIB5x_B7j_B6I_EE0E0E0E0E0ECsaQ2CmD7W1Vs_15zerocopy_derive, symObjAddr: 0x0, symBinAddr: 0x2BEC8, symSize: 0x1D4 }
  - { offset: 0x95F38, size: 0x8, addend: 0x0, symName: __RINvXs2U_NtNtCs9f3LFPSIp77_4core5slice4iterINtB7_4IterNtNtCsATtFUPiRFW_3syn5error5ErrorENtNtNtNtBb_4iter6traits8iterator8Iterator4folduNCINvNtNtB1u_8adapters3map8map_foldRBQ_NtCs475r2uZUTuc_11proc_macro211TokenStreamuNvMBS_BQ_16to_compile_errorNCIB2c_B2M_NtNtB2O_3imp11TokenStreamuNCINvXs7_B2O_B2M_INtNtB1s_7collect12FromIteratorB2M_E9from_iterINtB2e_3MapBF_B3t_EE0NCIB2c_B45_NtCsjLJ1XWNSM6u_10proc_macro11TokenStreamuNCINvXs6_B47_B45_IB4N_B45_E9from_iterIB5x_B5w_B4v_EE0NCINvNvB1o_8for_each4callB62_NCINvXsk_B64_B62_INtB4P_6ExtendB62_E6extendIB5x_B7j_B6I_EE0E0E0E0E0ECsaQ2CmD7W1Vs_15zerocopy_derive, symObjAddr: 0x0, symBinAddr: 0x2BEC8, symSize: 0x1D4 }
  - { offset: 0x96119, size: 0x8, addend: 0x0, symName: __RINvXs2U_NtNtCs9f3LFPSIp77_4core5slice4iterINtB7_4IterNtNtCsaQ2CmD7W1Vs_15zerocopy_derive4repr10StructReprENtNtNtNtBb_4iter6traits8iterator8Iterator3anyNCNvXsd_NtB9_3cmpBQ_NtB2y_13SliceContains14slice_contains0EBU_, symObjAddr: 0x1D4, symBinAddr: 0x2C09C, symSize: 0xB4 }
  - { offset: 0x9617E, size: 0x8, addend: 0x0, symName: __RINvXs2U_NtNtCs9f3LFPSIp77_4core5slice4iterINtB7_4IterRNtNtCsATtFUPiRFW_3syn2ty4TypeENtNtNtNtBb_4iter6traits8iterator8Iterator4folduNCINvNtNtB1r_8adapters3map8map_foldRBQ_NtNtBV_8generics14WherePredicateuNCINvCsaQ2CmD7W1Vs_15zerocopy_derive10impl_blockNtNtBV_6derive10DataStructE0NCINvNvB1l_8for_each4callB2J_NCINvMsi_NtCsdze8u8oDPro_5alloc3vecINtB56_3VecB2J_E14extend_trustedINtB2b_3MapBF_B3g_EE0E0E0EB3l_, symObjAddr: 0x288, symBinAddr: 0x2C150, symSize: 0x1F8 }
  - { offset: 0x96360, size: 0x8, addend: 0x0, symName: __RINvXs2U_NtNtCs9f3LFPSIp77_4core5slice4iterINtB7_4IterRNtNtCsATtFUPiRFW_3syn2ty4TypeENtNtNtNtBb_4iter6traits8iterator8Iterator4folduNCINvNtNtB1r_8adapters3map8map_foldRBQ_NtNtBV_8generics14WherePredicateuNCINvCsaQ2CmD7W1Vs_15zerocopy_derive10impl_blockNtNtBV_6derive8DataEnumE0NCINvNvB1l_8for_each4callB2J_NCINvMsi_NtCsdze8u8oDPro_5alloc3vecINtB53_3VecB2J_E14extend_trustedINtB2b_3MapBF_B3g_EE0E0E0EB3l_, symObjAddr: 0x480, symBinAddr: 0x2C348, symSize: 0x1F8 }
  - { offset: 0x96542, size: 0x8, addend: 0x0, symName: __RINvXs2U_NtNtCs9f3LFPSIp77_4core5slice4iterINtB7_4IterRNtNtCsATtFUPiRFW_3syn2ty4TypeENtNtNtNtBb_4iter6traits8iterator8Iterator4folduNCINvNtNtB1r_8adapters3map8map_foldRBQ_NtNtBV_8generics14WherePredicateuNCINvCsaQ2CmD7W1Vs_15zerocopy_derive10impl_blockNtNtBV_6derive9DataUnionE0NCINvNvB1l_8for_each4callB2J_NCINvMsi_NtCsdze8u8oDPro_5alloc3vecINtB54_3VecB2J_E14extend_trustedINtB2b_3MapBF_B3g_EE0E0E0EB3l_, symObjAddr: 0x678, symBinAddr: 0x2C540, symSize: 0x1F8 }
  - { offset: 0x96724, size: 0x8, addend: 0x0, symName: __RINvXs2U_NtNtCs9f3LFPSIp77_4core5slice4iterINtB7_4IterRSNtNtCsaQ2CmD7W1Vs_15zerocopy_derive4repr10StructReprENtNtNtNtBb_4iter6traits8iterator8Iterator3anyNCNvXsd_NtB9_3cmpBQ_NtB2A_13SliceContains14slice_contains0EBW_, symObjAddr: 0x870, symBinAddr: 0x2C738, symSize: 0xB4 }
  - { offset: 0x96789, size: 0x8, addend: 0x0, symName: __RINvXs2U_NtNtCs9f3LFPSIp77_4core5slice4iterINtB7_4IterRSNtNtCsaQ2CmD7W1Vs_15zerocopy_derive4repr8EnumReprENtNtNtNtBb_4iter6traits8iterator8Iterator3anyNCNvXsd_NtB9_3cmpBQ_NtB2x_13SliceContains14slice_contains0EBW_, symObjAddr: 0x924, symBinAddr: 0x2C7EC, symSize: 0xB4 }
  - { offset: 0x967EE, size: 0x8, addend: 0x0, symName: __RINvXs2U_NtNtCs9f3LFPSIp77_4core5slice4iterINtB7_4IterTNtNtCsATtFUPiRFW_3syn4attr4MetaNtNtCsaQ2CmD7W1Vs_15zerocopy_derive4repr10StructReprEENtNtNtNtBb_4iter6traits8iterator8Iterator4findNCNvMB1o_INtB1o_6ConfigB1m_E14validate_reprss_0EB1q_, symObjAddr: 0x9D8, symBinAddr: 0x2C8A0, symSize: 0xB0 }
  - { offset: 0x96853, size: 0x8, addend: 0x0, symName: __RINvXs2U_NtNtCs9f3LFPSIp77_4core5slice4iterINtB7_4IterTNtNtCsATtFUPiRFW_3syn4attr4MetaNtNtCsaQ2CmD7W1Vs_15zerocopy_derive4repr4ReprEENtNtNtNtBb_4iter6traits8iterator8Iterator3anyNCNvB1q_19derive_known_layout0EB1q_, symObjAddr: 0xA88, symBinAddr: 0x2C950, symSize: 0xB0 }
  - { offset: 0x968B8, size: 0x8, addend: 0x0, symName: __RINvXs2U_NtNtCs9f3LFPSIp77_4core5slice4iterINtB7_4IterTNtNtCsATtFUPiRFW_3syn4attr4MetaNtNtCsaQ2CmD7W1Vs_15zerocopy_derive4repr4ReprEENtNtNtNtBb_4iter6traits8iterator8Iterator8find_mapRyNCNvB1q_19derive_known_layouts_0EB1q_, symObjAddr: 0xB38, symBinAddr: 0x2CA00, symSize: 0xC8 }
  - { offset: 0x9693C, size: 0x8, addend: 0x0, symName: __RINvXs2U_NtNtCs9f3LFPSIp77_4core5slice4iterINtB7_4IterTNtNtCsATtFUPiRFW_3syn4attr4MetaNtNtCsaQ2CmD7W1Vs_15zerocopy_derive4repr4ReprEENtNtNtNtBb_4iter6traits8iterator8Iterator8find_mapyNCNvB1q_19derive_known_layouts1_0EB1q_, symObjAddr: 0xC00, symBinAddr: 0x2CAC8, symSize: 0xD8 }
  - { offset: 0x969C0, size: 0x8, addend: 0x0, symName: __RINvXs2U_NtNtCs9f3LFPSIp77_4core5slice4iterINtB7_4IterTNtNtCsATtFUPiRFW_3syn4attr4MetaNtNtCsaQ2CmD7W1Vs_15zerocopy_derive4repr8EnumReprEENtNtNtNtBb_4iter6traits8iterator8Iterator4findNCNvMB1o_INtB1o_6ConfigB1m_E14validate_reprss_0EB1q_, symObjAddr: 0xCD8, symBinAddr: 0x2CBA0, symSize: 0xB0 }
  - { offset: 0x96A25, size: 0x8, addend: 0x0, symName: __RNvXs2U_NtNtCs9f3LFPSIp77_4core5slice4iterINtB6_4IterNtNtCsATtFUPiRFW_3syn4attr4MetaENtNtNtNtBa_4iter6traits8iterator8Iterator3nthCsaQ2CmD7W1Vs_15zerocopy_derive, symObjAddr: 0x138C, symBinAddr: 0x2D254, symSize: 0x17C }
  - { offset: 0x96C8B, size: 0x8, addend: 0x0, symName: __RNvXs2U_NtNtCs9f3LFPSIp77_4core5slice4iterINtB6_4IterNtNtCsATtFUPiRFW_3syn4attr4MetaENtNtNtNtBa_4iter6traits8iterator8Iterator4nextCsaQ2CmD7W1Vs_15zerocopy_derive, symObjAddr: 0x1508, symBinAddr: 0x2D3D0, symSize: 0xCC }
  - { offset: 0x96DEC, size: 0x8, addend: 0x0, symName: __RNvXs2U_NtNtCs9f3LFPSIp77_4core5slice4iterINtB6_4IterNtNtCsATtFUPiRFW_3syn5error5ErrorENtNtNtNtBa_4iter6traits8iterator8Iterator4nextCsaQ2CmD7W1Vs_15zerocopy_derive, symObjAddr: 0x15D4, symBinAddr: 0x2D49C, symSize: 0xCC }
  - { offset: 0x96F4D, size: 0x8, addend: 0x0, symName: __RNvXs2U_NtNtCs9f3LFPSIp77_4core5slice4iterINtB6_4IterNtNtCsATtFUPiRFW_3syn5error5ErrorENtNtNtNtBa_4iter6traits8iterator8Iterator9size_hintCsaQ2CmD7W1Vs_15zerocopy_derive, symObjAddr: 0x16A0, symBinAddr: 0x2D568, symSize: 0xC0 }
  - { offset: 0x97032, size: 0x8, addend: 0x0, symName: __RNvXs2U_NtNtCs9f3LFPSIp77_4core5slice4iterINtB6_4IterNtNtCsATtFUPiRFW_3syn8generics14WherePredicateENtNtNtNtBa_4iter6traits8iterator8Iterator4nextCsaQ2CmD7W1Vs_15zerocopy_derive, symObjAddr: 0x1760, symBinAddr: 0x2D628, symSize: 0xCC }
  - { offset: 0x97193, size: 0x8, addend: 0x0, symName: __RNvXs2U_NtNtCs9f3LFPSIp77_4core5slice4iterINtB6_4IterNtNtCsaQ2CmD7W1Vs_15zerocopy_derive4repr10StructReprENtNtNtNtBa_4iter6traits8iterator8Iterator4nextBT_, symObjAddr: 0x182C, symBinAddr: 0x2D6F4, symSize: 0xCC }
  - { offset: 0x972F4, size: 0x8, addend: 0x0, symName: __RNvXs2U_NtNtCs9f3LFPSIp77_4core5slice4iterINtB6_4IterRNtNtCsATtFUPiRFW_3syn2ty4TypeENtNtNtNtBa_4iter6traits8iterator8Iterator4nextCsaQ2CmD7W1Vs_15zerocopy_derive, symObjAddr: 0x18F8, symBinAddr: 0x2D7C0, symSize: 0xCC }
  - { offset: 0x97455, size: 0x8, addend: 0x0, symName: __RNvXs2U_NtNtCs9f3LFPSIp77_4core5slice4iterINtB6_4IterRNtNtCsATtFUPiRFW_3syn2ty4TypeENtNtNtNtBa_4iter6traits8iterator8Iterator9size_hintCsaQ2CmD7W1Vs_15zerocopy_derive, symObjAddr: 0x19C4, symBinAddr: 0x2D88C, symSize: 0xC0 }
  - { offset: 0x9753A, size: 0x8, addend: 0x0, symName: __RNvXs2U_NtNtCs9f3LFPSIp77_4core5slice4iterINtB6_4IterRSNtNtCsaQ2CmD7W1Vs_15zerocopy_derive4repr10StructReprENtNtNtNtBa_4iter6traits8iterator8Iterator4nextBV_, symObjAddr: 0x1A84, symBinAddr: 0x2D94C, symSize: 0xCC }
  - { offset: 0x9769B, size: 0x8, addend: 0x0, symName: __RNvXs2U_NtNtCs9f3LFPSIp77_4core5slice4iterINtB6_4IterRSNtNtCsaQ2CmD7W1Vs_15zerocopy_derive4repr8EnumReprENtNtNtNtBa_4iter6traits8iterator8Iterator4nextBV_, symObjAddr: 0x1B50, symBinAddr: 0x2DA18, symSize: 0xCC }
  - { offset: 0x977FC, size: 0x8, addend: 0x0, symName: __RNvXs2U_NtNtCs9f3LFPSIp77_4core5slice4iterINtB6_4IterTNtNtCsATtFUPiRFW_3syn4attr4MetaNtNtCsaQ2CmD7W1Vs_15zerocopy_derive4repr10StructReprEENtNtNtNtBa_4iter6traits8iterator8Iterator4nextB1p_, symObjAddr: 0x1C1C, symBinAddr: 0x2DAE4, symSize: 0xCC }
  - { offset: 0x9795D, size: 0x8, addend: 0x0, symName: __RNvXs2U_NtNtCs9f3LFPSIp77_4core5slice4iterINtB6_4IterTNtNtCsATtFUPiRFW_3syn4attr4MetaNtNtCsaQ2CmD7W1Vs_15zerocopy_derive4repr4ReprEENtNtNtNtBa_4iter6traits8iterator8Iterator4nextB1p_, symObjAddr: 0x1CE8, symBinAddr: 0x2DBB0, symSize: 0xCC }
  - { offset: 0x97ABE, size: 0x8, addend: 0x0, symName: __RNvXs2U_NtNtCs9f3LFPSIp77_4core5slice4iterINtB6_4IterTNtNtCsATtFUPiRFW_3syn4attr4MetaNtNtCsaQ2CmD7W1Vs_15zerocopy_derive4repr8EnumReprEENtNtNtNtBa_4iter6traits8iterator8Iterator4nextB1p_, symObjAddr: 0x1DB4, symBinAddr: 0x2DC7C, symSize: 0xCC }
  - { offset: 0x9829B, size: 0x8, addend: 0x0, symName: __RNvXs2V_NtNtCs9f3LFPSIp77_4core5slice4iterINtB6_4IterTNtNtCsATtFUPiRFW_3syn4data7VariantNtNtBU_5token5CommaEENtNtNtNtBa_4iter6traits12double_ended19DoubleEndedIterator9next_backCsaQ2CmD7W1Vs_15zerocopy_derive, symObjAddr: 0x1E80, symBinAddr: 0x2DD48, symSize: 0x114 }
  - { offset: 0x98421, size: 0x8, addend: 0x0, symName: __RNvXs2V_NtNtCs9f3LFPSIp77_4core5slice4iterINtB6_4IterTNtNtCsATtFUPiRFW_3syn8generics14WherePredicateNtNtBU_5token5CommaEENtNtNtNtBa_4iter6traits12double_ended19DoubleEndedIterator9next_backCsaQ2CmD7W1Vs_15zerocopy_derive, symObjAddr: 0x1F94, symBinAddr: 0x2DE5C, symSize: 0x114 }
  - { offset: 0x98624, size: 0x8, addend: 0x0, symName: __RNvXs5_NtNtCs9f3LFPSIp77_4core5slice4iterINtB5_4IterTNtNtCsATtFUPiRFW_3syn4data7VariantNtNtBT_5token5CommaEENtNtB9_5clone5Clone5cloneCsaQ2CmD7W1Vs_15zerocopy_derive, symObjAddr: 0x20A8, symBinAddr: 0x2DF70, symSize: 0x20 }
  - { offset: 0x98659, size: 0x8, addend: 0x0, symName: __RNvXs5_NtNtCs9f3LFPSIp77_4core5slice4iterINtB5_4IterTNtNtCsATtFUPiRFW_3syn8generics14WherePredicateNtNtBT_5token5CommaEENtNtB9_5clone5Clone5cloneCsaQ2CmD7W1Vs_15zerocopy_derive, symObjAddr: 0x20C8, symBinAddr: 0x2DF90, symSize: 0x20 }
  - { offset: 0x9A82F, size: 0x8, addend: 0x0, symName: __RINvYINtNtNtCs9f3LFPSIp77_4core5slice4iter4IterNtNtCsATtFUPiRFW_3syn4attr4MetaENtNtNtNtBa_4iter6traits8iterator8Iterator8try_foldNtCs475r2uZUTuc_11proc_macro24SpanNCNvMNtCsaQ2CmD7W1Vs_15zerocopy_derive4reprINtB2G_6ConfigNtB2G_10StructReprE14validate_reprss2_0INtNtBa_6option6OptionB23_EEB2I_, symObjAddr: 0xD88, symBinAddr: 0x2CC50, symSize: 0x17C }
  - { offset: 0x9A8E9, size: 0x8, addend: 0x0, symName: __RINvYINtNtNtCs9f3LFPSIp77_4core5slice4iter4IterNtNtCsATtFUPiRFW_3syn4attr4MetaENtNtNtNtBa_4iter6traits8iterator8Iterator8try_foldNtCs475r2uZUTuc_11proc_macro24SpanNCNvMNtCsaQ2CmD7W1Vs_15zerocopy_derive4reprINtB2G_6ConfigNtB2G_8EnumReprE14validate_reprss2_0INtNtBa_6option6OptionB23_EEB2I_, symObjAddr: 0xF04, symBinAddr: 0x2CDCC, symSize: 0x17C }
  - { offset: 0x9A9A3, size: 0x8, addend: 0x0, symName: __RINvYINtNtNtCs9f3LFPSIp77_4core5slice4iter4IterNtNtCsATtFUPiRFW_3syn5error5ErrorENtNtNtNtBa_4iter6traits8iterator8Iterator3mapNtCs475r2uZUTuc_11proc_macro211TokenStreamNvMBL_BJ_16to_compile_errorECsaQ2CmD7W1Vs_15zerocopy_derive, symObjAddr: 0x1080, symBinAddr: 0x2CF48, symSize: 0x1C }
  - { offset: 0x9A9FB, size: 0x8, addend: 0x0, symName: __RINvYINtNtNtCs9f3LFPSIp77_4core5slice4iter4IterRNtNtCsATtFUPiRFW_3syn2ty4TypeENtNtNtNtBa_4iter6traits8iterator8Iterator3mapNtNtBO_8generics14WherePredicateNCINvCsaQ2CmD7W1Vs_15zerocopy_derive10impl_blockNtNtBO_6derive10DataStructE0EB2y_, symObjAddr: 0x109C, symBinAddr: 0x2CF64, symSize: 0x30 }
  - { offset: 0x9AA79, size: 0x8, addend: 0x0, symName: __RINvYINtNtNtCs9f3LFPSIp77_4core5slice4iter4IterRNtNtCsATtFUPiRFW_3syn2ty4TypeENtNtNtNtBa_4iter6traits8iterator8Iterator3mapNtNtBO_8generics14WherePredicateNCINvCsaQ2CmD7W1Vs_15zerocopy_derive10impl_blockNtNtBO_6derive8DataEnumE0EB2y_, symObjAddr: 0x10CC, symBinAddr: 0x2CF94, symSize: 0x30 }
  - { offset: 0x9AAF7, size: 0x8, addend: 0x0, symName: __RINvYINtNtNtCs9f3LFPSIp77_4core5slice4iter4IterRNtNtCsATtFUPiRFW_3syn2ty4TypeENtNtNtNtBa_4iter6traits8iterator8Iterator3mapNtNtBO_8generics14WherePredicateNCINvCsaQ2CmD7W1Vs_15zerocopy_derive10impl_blockNtNtBO_6derive9DataUnionE0EB2y_, symObjAddr: 0x10FC, symBinAddr: 0x2CFC4, symSize: 0x30 }
  - { offset: 0x9AB75, size: 0x8, addend: 0x0, symName: __RNvYINtNtNtCs9f3LFPSIp77_4core5slice4iter4IterNtNtCsATtFUPiRFW_3syn4attr4MetaENtNtNtNtB9_4iter6traits8iterator8Iterator4skipCsaQ2CmD7W1Vs_15zerocopy_derive, symObjAddr: 0x2104, symBinAddr: 0x2DFCC, symSize: 0x2C }
  - { offset: 0x9AC45, size: 0x8, addend: 0x0, symName: __RNvXs_NtNtNtCs9f3LFPSIp77_4core4iter6traits7collectINtNtNtBa_5slice4iter4IterNtNtCsATtFUPiRFW_3syn8generics14WherePredicateENtB4_12IntoIterator9into_iterCsaQ2CmD7W1Vs_15zerocopy_derive, symObjAddr: 0x20E8, symBinAddr: 0x2DFB0, symSize: 0x1C }
  - { offset: 0xA163C, size: 0x8, addend: 0x0, symName: __RNvMs4_NtNtCs9f3LFPSIp77_4core5slice4iterINtB5_4IterNtNtCsATtFUPiRFW_3syn4attr4MetaE3newCsaQ2CmD7W1Vs_15zerocopy_derive, symObjAddr: 0x112C, symBinAddr: 0x2CFF4, symSize: 0x58 }
  - { offset: 0xA17D0, size: 0x8, addend: 0x0, symName: __RNvMs4_NtNtCs9f3LFPSIp77_4core5slice4iterINtB5_4IterNtNtCsATtFUPiRFW_3syn5error5ErrorE3newCsaQ2CmD7W1Vs_15zerocopy_derive, symObjAddr: 0x1184, symBinAddr: 0x2D04C, symSize: 0x58 }
  - { offset: 0xA197E, size: 0x8, addend: 0x0, symName: __RNvMs4_NtNtCs9f3LFPSIp77_4core5slice4iterINtB5_4IterNtNtCsATtFUPiRFW_3syn8generics14WherePredicateE3newCsaQ2CmD7W1Vs_15zerocopy_derive, symObjAddr: 0x11DC, symBinAddr: 0x2D0A4, symSize: 0x58 }
  - { offset: 0xA1B05, size: 0x8, addend: 0x0, symName: __RNvMs4_NtNtCs9f3LFPSIp77_4core5slice4iterINtB5_4IterRNtNtCsATtFUPiRFW_3syn2ty4TypeE3newCsaQ2CmD7W1Vs_15zerocopy_derive, symObjAddr: 0x1234, symBinAddr: 0x2D0FC, symSize: 0x50 }
  - { offset: 0xA1CD1, size: 0x8, addend: 0x0, symName: __RNvMs4_NtNtCs9f3LFPSIp77_4core5slice4iterINtB5_4IterTNtNtCsATtFUPiRFW_3syn4attr4MetaNtNtCsaQ2CmD7W1Vs_15zerocopy_derive4repr10StructReprEE3newB1o_, symObjAddr: 0x1284, symBinAddr: 0x2D14C, symSize: 0x58 }
  - { offset: 0xA1E9D, size: 0x8, addend: 0x0, symName: __RNvMs4_NtNtCs9f3LFPSIp77_4core5slice4iterINtB5_4IterTNtNtCsATtFUPiRFW_3syn4attr4MetaNtNtCsaQ2CmD7W1Vs_15zerocopy_derive4repr4ReprEE3newB1o_, symObjAddr: 0x12DC, symBinAddr: 0x2D1A4, symSize: 0x58 }
  - { offset: 0xA2069, size: 0x8, addend: 0x0, symName: __RNvMs4_NtNtCs9f3LFPSIp77_4core5slice4iterINtB5_4IterTNtNtCsATtFUPiRFW_3syn4attr4MetaNtNtCsaQ2CmD7W1Vs_15zerocopy_derive4repr8EnumReprEE3newB1o_, symObjAddr: 0x1334, symBinAddr: 0x2D1FC, symSize: 0x58 }
  - { offset: 0xA2F4E, size: 0x8, addend: 0x0, symName: __RNvYINtNtNtCs9f3LFPSIp77_4core5slice4iter4IterRNtNtCsATtFUPiRFW_3syn2ty4TypeENtNtNtCs62MdaZFMefA_5quote9___private3ext14RepIteratorExt15quote_into_iterCsaQ2CmD7W1Vs_15zerocopy_derive, symObjAddr: 0x2130, symBinAddr: 0x2DFF8, symSize: 0x2C }
  - { offset: 0xA305C, size: 0x8, addend: 0x0, symName: __RNvMNtCs9f3LFPSIp77_4core5sliceSNtNtCsaQ2CmD7W1Vs_15zerocopy_derive4repr10StructRepr8containsBy_, symObjAddr: 0x0, symBinAddr: 0x2E024, symSize: 0x48 }
  - { offset: 0xA325D, size: 0x8, addend: 0x0, symName: __RNvXsP_NtCs9f3LFPSIp77_4core3fmtRNtNtCsaQ2CmD7W1Vs_15zerocopy_derive4repr10StructReprNtB5_5Debug3fmtBz_, symObjAddr: 0x4D4, symBinAddr: 0x2E4F8, symSize: 0x30 }
  - { offset: 0xA32A3, size: 0x8, addend: 0x0, symName: __RNvXsP_NtCs9f3LFPSIp77_4core3fmtRNtNtCsaQ2CmD7W1Vs_15zerocopy_derive4repr8EnumReprNtB5_5Debug3fmtBz_, symObjAddr: 0x504, symBinAddr: 0x2E528, symSize: 0x30 }
  - { offset: 0xA33CB, size: 0x8, addend: 0x0, symName: __RNvXs7_NtNtCs9f3LFPSIp77_4core3cmp5implsRNtNtCsaQ2CmD7W1Vs_15zerocopy_derive4repr4ReprNtB7_9PartialEq2eqBH_, symObjAddr: 0x418, symBinAddr: 0x2E43C, symSize: 0x34 }
  - { offset: 0xA341A, size: 0x8, addend: 0x0, symName: __RNvXs7_NtNtCs9f3LFPSIp77_4core3cmp5implsRSNtNtCsaQ2CmD7W1Vs_15zerocopy_derive4repr10StructReprNtB7_9PartialEq2eqBI_, symObjAddr: 0x44C, symBinAddr: 0x2E470, symSize: 0x44 }
  - { offset: 0xA3469, size: 0x8, addend: 0x0, symName: __RNvXs7_NtNtCs9f3LFPSIp77_4core3cmp5implsRSNtNtCsaQ2CmD7W1Vs_15zerocopy_derive4repr8EnumReprNtB7_9PartialEq2eqBI_, symObjAddr: 0x490, symBinAddr: 0x2E4B4, symSize: 0x44 }
  - { offset: 0xA34BF, size: 0x8, addend: 0x0, symName: __RNvYNtNtCsaQ2CmD7W1Vs_15zerocopy_derive4repr10StructReprNtNtCs9f3LFPSIp77_4core3cmp10PartialOrd2geB6_, symObjAddr: 0x69C, symBinAddr: 0x2E6C0, symSize: 0x78 }
  - { offset: 0xA350E, size: 0x8, addend: 0x0, symName: __RNvYNtNtCsaQ2CmD7W1Vs_15zerocopy_derive4repr10StructReprNtNtCs9f3LFPSIp77_4core3cmp10PartialOrd2gtB6_, symObjAddr: 0x714, symBinAddr: 0x2E738, symSize: 0x6C }
  - { offset: 0xA355D, size: 0x8, addend: 0x0, symName: __RNvYNtNtCsaQ2CmD7W1Vs_15zerocopy_derive4repr10StructReprNtNtCs9f3LFPSIp77_4core3cmp10PartialOrd2leB6_, symObjAddr: 0x780, symBinAddr: 0x2E7A4, symSize: 0x7C }
  - { offset: 0xA35AC, size: 0x8, addend: 0x0, symName: __RNvYNtNtCsaQ2CmD7W1Vs_15zerocopy_derive4repr10StructReprNtNtCs9f3LFPSIp77_4core3cmp10PartialOrd2ltB6_, symObjAddr: 0x7FC, symBinAddr: 0x2E820, symSize: 0x6C }
  - { offset: 0xA35FB, size: 0x8, addend: 0x0, symName: __RNvYNtNtCsaQ2CmD7W1Vs_15zerocopy_derive4repr4ReprNtNtCs9f3LFPSIp77_4core3cmp10PartialOrd2geB6_, symObjAddr: 0xAB0, symBinAddr: 0x2EAD4, symSize: 0x78 }
  - { offset: 0xA364A, size: 0x8, addend: 0x0, symName: __RNvYNtNtCsaQ2CmD7W1Vs_15zerocopy_derive4repr4ReprNtNtCs9f3LFPSIp77_4core3cmp10PartialOrd2gtB6_, symObjAddr: 0xB28, symBinAddr: 0x2EB4C, symSize: 0x6C }
  - { offset: 0xA3699, size: 0x8, addend: 0x0, symName: __RNvYNtNtCsaQ2CmD7W1Vs_15zerocopy_derive4repr4ReprNtNtCs9f3LFPSIp77_4core3cmp10PartialOrd2leB6_, symObjAddr: 0xB94, symBinAddr: 0x2EBB8, symSize: 0x7C }
  - { offset: 0xA36E8, size: 0x8, addend: 0x0, symName: __RNvYNtNtCsaQ2CmD7W1Vs_15zerocopy_derive4repr4ReprNtNtCs9f3LFPSIp77_4core3cmp10PartialOrd2ltB6_, symObjAddr: 0xC10, symBinAddr: 0x2EC34, symSize: 0x6C }
  - { offset: 0xA3737, size: 0x8, addend: 0x0, symName: __RNvYNtNtCsaQ2CmD7W1Vs_15zerocopy_derive4repr8EnumReprNtNtCs9f3LFPSIp77_4core3cmp10PartialOrd2geB6_, symObjAddr: 0xEC4, symBinAddr: 0x2EEE8, symSize: 0x78 }
  - { offset: 0xA3786, size: 0x8, addend: 0x0, symName: __RNvYNtNtCsaQ2CmD7W1Vs_15zerocopy_derive4repr8EnumReprNtNtCs9f3LFPSIp77_4core3cmp10PartialOrd2gtB6_, symObjAddr: 0xF3C, symBinAddr: 0x2EF60, symSize: 0x6C }
  - { offset: 0xA37D5, size: 0x8, addend: 0x0, symName: __RNvYNtNtCsaQ2CmD7W1Vs_15zerocopy_derive4repr8EnumReprNtNtCs9f3LFPSIp77_4core3cmp10PartialOrd2leB6_, symObjAddr: 0xFA8, symBinAddr: 0x2EFCC, symSize: 0x7C }
  - { offset: 0xA3824, size: 0x8, addend: 0x0, symName: __RNvYNtNtCsaQ2CmD7W1Vs_15zerocopy_derive4repr8EnumReprNtNtCs9f3LFPSIp77_4core3cmp10PartialOrd2ltB6_, symObjAddr: 0x1024, symBinAddr: 0x2F048, symSize: 0x6C }
  - { offset: 0xA3879, size: 0x8, addend: 0x0, symName: __RNvYNtNtCsaQ2CmD7W1Vs_15zerocopy_derive4repr10StructReprNtNtCs9f3LFPSIp77_4core3cmp3Ord3maxB6_, symObjAddr: 0x868, symBinAddr: 0x2E88C, symSize: 0x2C }
  - { offset: 0xA38BF, size: 0x8, addend: 0x0, symName: __RNvYNtNtCsaQ2CmD7W1Vs_15zerocopy_derive4repr10StructReprNtNtCs9f3LFPSIp77_4core3cmp3Ord3minB6_, symObjAddr: 0x894, symBinAddr: 0x2E8B8, symSize: 0x2C }
  - { offset: 0xA3905, size: 0x8, addend: 0x0, symName: __RNvYNtNtCsaQ2CmD7W1Vs_15zerocopy_derive4repr10StructReprNtNtCs9f3LFPSIp77_4core3cmp3Ord5clampB6_, symObjAddr: 0x8C0, symBinAddr: 0x2E8E4, symSize: 0x16C }
  - { offset: 0xA395A, size: 0x8, addend: 0x0, symName: __RNvYNtNtCsaQ2CmD7W1Vs_15zerocopy_derive4repr4ReprNtNtCs9f3LFPSIp77_4core3cmp3Ord3maxB6_, symObjAddr: 0xC7C, symBinAddr: 0x2ECA0, symSize: 0x2C }
  - { offset: 0xA39A0, size: 0x8, addend: 0x0, symName: __RNvYNtNtCsaQ2CmD7W1Vs_15zerocopy_derive4repr4ReprNtNtCs9f3LFPSIp77_4core3cmp3Ord3minB6_, symObjAddr: 0xCA8, symBinAddr: 0x2ECCC, symSize: 0x2C }
  - { offset: 0xA39E6, size: 0x8, addend: 0x0, symName: __RNvYNtNtCsaQ2CmD7W1Vs_15zerocopy_derive4repr4ReprNtNtCs9f3LFPSIp77_4core3cmp3Ord5clampB6_, symObjAddr: 0xCD4, symBinAddr: 0x2ECF8, symSize: 0x16C }
  - { offset: 0xA3A3B, size: 0x8, addend: 0x0, symName: __RNvYNtNtCsaQ2CmD7W1Vs_15zerocopy_derive4repr8EnumReprNtNtCs9f3LFPSIp77_4core3cmp3Ord3maxB6_, symObjAddr: 0x1090, symBinAddr: 0x2F0B4, symSize: 0x2C }
  - { offset: 0xA3A81, size: 0x8, addend: 0x0, symName: __RNvYNtNtCsaQ2CmD7W1Vs_15zerocopy_derive4repr8EnumReprNtNtCs9f3LFPSIp77_4core3cmp3Ord3minB6_, symObjAddr: 0x10BC, symBinAddr: 0x2F0E0, symSize: 0x2C }
  - { offset: 0xA3AC7, size: 0x8, addend: 0x0, symName: __RNvYNtNtCsaQ2CmD7W1Vs_15zerocopy_derive4repr8EnumReprNtNtCs9f3LFPSIp77_4core3cmp3Ord5clampB6_, symObjAddr: 0x10E8, symBinAddr: 0x2F10C, symSize: 0x16C }
  - { offset: 0xA3B22, size: 0x8, addend: 0x0, symName: __RNvYNtNtCsaQ2CmD7W1Vs_15zerocopy_derive4repr10StructReprNtNtCs9f3LFPSIp77_4core3cmp9PartialEq2neB6_, symObjAddr: 0xA2C, symBinAddr: 0x2EA50, symSize: 0x30 }
  - { offset: 0xA3B71, size: 0x8, addend: 0x0, symName: __RNvYNtNtCsaQ2CmD7W1Vs_15zerocopy_derive4repr4ReprNtNtCs9f3LFPSIp77_4core3cmp9PartialEq2neB6_, symObjAddr: 0xE40, symBinAddr: 0x2EE64, symSize: 0x30 }
  - { offset: 0xA3BC0, size: 0x8, addend: 0x0, symName: __RNvYNtNtCsaQ2CmD7W1Vs_15zerocopy_derive4repr8EnumReprNtNtCs9f3LFPSIp77_4core3cmp9PartialEq2neB6_, symObjAddr: 0x1254, symBinAddr: 0x2F278, symSize: 0x30 }
  - { offset: 0xA3C1B, size: 0x8, addend: 0x0, symName: __RNvMNtCs9f3LFPSIp77_4core5sliceSNtNtCsaQ2CmD7W1Vs_15zerocopy_derive4repr10StructRepr8containsBy_, symObjAddr: 0x0, symBinAddr: 0x2E024, symSize: 0x48 }
  - { offset: 0xA3C61, size: 0x8, addend: 0x0, symName: __RNvMNtCs9f3LFPSIp77_4core5sliceSRSNtNtCsaQ2CmD7W1Vs_15zerocopy_derive4repr10StructRepr8containsBA_, symObjAddr: 0x48, symBinAddr: 0x2E06C, symSize: 0x48 }
  - { offset: 0xA3CA7, size: 0x8, addend: 0x0, symName: __RNvMNtCs9f3LFPSIp77_4core5sliceSRSNtNtCsaQ2CmD7W1Vs_15zerocopy_derive4repr8EnumRepr8containsBA_, symObjAddr: 0x90, symBinAddr: 0x2E0B4, symSize: 0x48 }
  - { offset: 0xA3D6D, size: 0x8, addend: 0x0, symName: __RNvXNtNtCs9f3LFPSIp77_4core5slice3cmpSNtNtCsaQ2CmD7W1Vs_15zerocopy_derive4repr10StructReprNtNtB6_3cmp9PartialEq2eqBE_, symObjAddr: 0xD8, symBinAddr: 0x2E0FC, symSize: 0x34 }
  - { offset: 0xA3DB9, size: 0x8, addend: 0x0, symName: __RNvXNtNtCs9f3LFPSIp77_4core5slice3cmpSNtNtCsaQ2CmD7W1Vs_15zerocopy_derive4repr8EnumReprNtNtB6_3cmp9PartialEq2eqBE_, symObjAddr: 0x10C, symBinAddr: 0x2E130, symSize: 0x34 }
  - { offset: 0xA3E0B, size: 0x8, addend: 0x0, symName: __RNvXs2_NtNtCs9f3LFPSIp77_4core5slice3cmpSNtNtCsaQ2CmD7W1Vs_15zerocopy_derive4repr10StructReprINtB5_14SlicePartialEqBD_E5equalBH_, symObjAddr: 0x140, symBinAddr: 0x2E164, symSize: 0x16C }
  - { offset: 0xA3EEB, size: 0x8, addend: 0x0, symName: __RNvXs2_NtNtCs9f3LFPSIp77_4core5slice3cmpSNtNtCsaQ2CmD7W1Vs_15zerocopy_derive4repr8EnumReprINtB5_14SlicePartialEqBD_E5equalBH_, symObjAddr: 0x2AC, symBinAddr: 0x2E2D0, symSize: 0x16C }
  - { offset: 0xA3FD1, size: 0x8, addend: 0x0, symName: __RNvXsd_NtNtCs9f3LFPSIp77_4core5slice3cmpNtNtCsaQ2CmD7W1Vs_15zerocopy_derive4repr10StructReprNtB5_13SliceContains14slice_containsBG_, symObjAddr: 0x534, symBinAddr: 0x2E558, symSize: 0x78 }
  - { offset: 0xA410D, size: 0x8, addend: 0x0, symName: __RNvXsd_NtNtCs9f3LFPSIp77_4core5slice3cmpRSNtNtCsaQ2CmD7W1Vs_15zerocopy_derive4repr10StructReprNtB5_13SliceContains14slice_containsBI_, symObjAddr: 0x5AC, symBinAddr: 0x2E5D0, symSize: 0x78 }
  - { offset: 0xA4249, size: 0x8, addend: 0x0, symName: __RNvXsd_NtNtCs9f3LFPSIp77_4core5slice3cmpRSNtNtCsaQ2CmD7W1Vs_15zerocopy_derive4repr8EnumReprNtB5_13SliceContains14slice_containsBI_, symObjAddr: 0x624, symBinAddr: 0x2E648, symSize: 0x78 }
  - { offset: 0xA6AA3, size: 0x8, addend: 0x0, symName: __RNvYNtNtCsaQ2CmD7W1Vs_15zerocopy_derive4repr10StructReprNtNtCs9f3LFPSIp77_4core5clone5Clone10clone_fromB6_, symObjAddr: 0xA5C, symBinAddr: 0x2EA80, symSize: 0x54 }
  - { offset: 0xA6AE2, size: 0x8, addend: 0x0, symName: __RNvYNtNtCsaQ2CmD7W1Vs_15zerocopy_derive4repr4ReprNtNtCs9f3LFPSIp77_4core5clone5Clone10clone_fromB6_, symObjAddr: 0xE70, symBinAddr: 0x2EE94, symSize: 0x54 }
  - { offset: 0xA6B21, size: 0x8, addend: 0x0, symName: __RNvYNtNtCsaQ2CmD7W1Vs_15zerocopy_derive4repr8EnumReprNtNtCs9f3LFPSIp77_4core5clone5Clone10clone_fromB6_, symObjAddr: 0x1284, symBinAddr: 0x2F2A8, symSize: 0x54 }
  - { offset: 0xA7E45, size: 0x8, addend: 0x0, symName: __RNCNvMNtCsaQ2CmD7W1Vs_15zerocopy_derive4reprINtB4_6ConfigNtB4_10StructReprE14validate_reprs0B6_, symObjAddr: 0x24B8, symBinAddr: 0x304DC, symSize: 0x68 }
  - { offset: 0xA7EAF, size: 0x8, addend: 0x0, symName: __RNCNvMNtCsaQ2CmD7W1Vs_15zerocopy_derive4reprINtB4_6ConfigNtB4_8EnumReprE14validate_reprs0B6_, symObjAddr: 0x2520, symBinAddr: 0x30544, symSize: 0x68 }
  - { offset: 0xA7F19, size: 0x8, addend: 0x0, symName: __RNCNvMNtCsaQ2CmD7W1Vs_15zerocopy_derive4reprINtB4_6ConfigNtB4_10StructReprE14validate_reprss_0B6_, symObjAddr: 0x2588, symBinAddr: 0x305AC, symSize: 0x44 }
  - { offset: 0xA7F69, size: 0x8, addend: 0x0, symName: __RNCNvMNtCsaQ2CmD7W1Vs_15zerocopy_derive4reprINtB4_6ConfigNtB4_8EnumReprE14validate_reprss_0B6_, symObjAddr: 0x25CC, symBinAddr: 0x305F0, symSize: 0x44 }
  - { offset: 0xA7FB9, size: 0x8, addend: 0x0, symName: __RNCNvMNtCsaQ2CmD7W1Vs_15zerocopy_derive4reprINtB4_6ConfigNtB4_10StructReprE14validate_reprss0_0B6_, symObjAddr: 0x2610, symBinAddr: 0x30634, symSize: 0x44 }
  - { offset: 0xA8009, size: 0x8, addend: 0x0, symName: __RNCNvMNtCsaQ2CmD7W1Vs_15zerocopy_derive4reprINtB4_6ConfigNtB4_8EnumReprE14validate_reprss0_0B6_, symObjAddr: 0x2654, symBinAddr: 0x30678, symSize: 0x44 }
  - { offset: 0xA8059, size: 0x8, addend: 0x0, symName: __RNCNvMNtCsaQ2CmD7W1Vs_15zerocopy_derive4reprINtB4_6ConfigNtB4_10StructReprE14validate_reprss1_0B6_, symObjAddr: 0x2698, symBinAddr: 0x306BC, symSize: 0xD4 }
  - { offset: 0xA80CF, size: 0x8, addend: 0x0, symName: __RNCNvMNtCsaQ2CmD7W1Vs_15zerocopy_derive4reprINtB4_6ConfigNtB4_8EnumReprE14validate_reprss1_0B6_, symObjAddr: 0x276C, symBinAddr: 0x30790, symSize: 0xD4 }
  - { offset: 0xA8145, size: 0x8, addend: 0x0, symName: __RNCNvMNtCsaQ2CmD7W1Vs_15zerocopy_derive4reprINtB4_6ConfigNtB4_10StructReprE14validate_reprss2_0B6_, symObjAddr: 0x2840, symBinAddr: 0x30864, symSize: 0x58 }
  - { offset: 0xA8192, size: 0x8, addend: 0x0, symName: __RNCNvMNtCsaQ2CmD7W1Vs_15zerocopy_derive4reprINtB4_6ConfigNtB4_8EnumReprE14validate_reprss2_0B6_, symObjAddr: 0x2898, symBinAddr: 0x308BC, symSize: 0x58 }
  - { offset: 0xA81DF, size: 0x8, addend: 0x0, symName: __RNCNvMNtCsaQ2CmD7W1Vs_15zerocopy_derive4reprINtB4_6ConfigNtB4_10StructReprE14validate_reprss3_0B6_, symObjAddr: 0x4E74, symBinAddr: 0x32E98, symSize: 0x38 }
  - { offset: 0xA8216, size: 0x8, addend: 0x0, symName: __RNCNvMNtCsaQ2CmD7W1Vs_15zerocopy_derive4reprINtB4_6ConfigNtB4_8EnumReprE14validate_reprss3_0B6_, symObjAddr: 0x4EAC, symBinAddr: 0x32ED0, symSize: 0x38 }
  - { offset: 0xA824D, size: 0x8, addend: 0x0, symName: __RNCNvMNtCsaQ2CmD7W1Vs_15zerocopy_derive4reprINtB4_6ConfigNtB4_10StructReprE14validate_reprss4_0B6_, symObjAddr: 0x4EE4, symBinAddr: 0x32F08, symSize: 0x38 }
  - { offset: 0xA8284, size: 0x8, addend: 0x0, symName: __RNCNvMNtCsaQ2CmD7W1Vs_15zerocopy_derive4reprINtB4_6ConfigNtB4_8EnumReprE14validate_reprss4_0B6_, symObjAddr: 0x4F1C, symBinAddr: 0x32F40, symSize: 0x38 }
  - { offset: 0xA848E, size: 0x8, addend: 0x0, symName: __RNCNvMs_NtCsaQ2CmD7W1Vs_15zerocopy_derive4reprNtB6_4Repr9from_meta0B8_, symObjAddr: 0x35F4, symBinAddr: 0x31618, symSize: 0x48 }
  - { offset: 0xA84C3, size: 0x8, addend: 0x0, symName: __RNvXs0_NtCsaQ2CmD7W1Vs_15zerocopy_derive4reprNtB5_4ReprNtB5_8KindRepr8is_align, symObjAddr: 0x363C, symBinAddr: 0x31660, symSize: 0x28 }
  - { offset: 0xA84EF, size: 0x8, addend: 0x0, symName: __RNvXs0_NtCsaQ2CmD7W1Vs_15zerocopy_derive4reprNtB5_4ReprNtB5_8KindRepr15is_align_gt_one, symObjAddr: 0x3664, symBinAddr: 0x31688, symSize: 0x28 }
  - { offset: 0xA851B, size: 0x8, addend: 0x0, symName: __RNvXs0_NtCsaQ2CmD7W1Vs_15zerocopy_derive4reprNtB5_4ReprNtB5_8KindRepr5parse, symObjAddr: 0x368C, symBinAddr: 0x316B0, symSize: 0x34 }
  - { offset: 0xA854D, size: 0x8, addend: 0x0, symName: __RNvXs1_NtCsaQ2CmD7W1Vs_15zerocopy_derive4reprNtB5_4ReprNtNtCs9f3LFPSIp77_4core3fmt7Display3fmt, symObjAddr: 0x36C0, symBinAddr: 0x316E4, symSize: 0x4B8 }
  - { offset: 0xA86E3, size: 0x8, addend: 0x0, symName: __RINvNtCsaQ2CmD7W1Vs_15zerocopy_derive4repr5reprsNtB2_10StructReprEB4_, symObjAddr: 0x3B78, symBinAddr: 0x31B9C, symSize: 0x654 }
  - { offset: 0xA881D, size: 0x8, addend: 0x0, symName: __RINvNtCsaQ2CmD7W1Vs_15zerocopy_derive4repr5reprsNtB2_4ReprEB4_, symObjAddr: 0x41CC, symBinAddr: 0x321F0, symSize: 0x654 }
  - { offset: 0xA8957, size: 0x8, addend: 0x0, symName: __RINvNtCsaQ2CmD7W1Vs_15zerocopy_derive4repr5reprsNtB2_8EnumReprEB4_, symObjAddr: 0x4820, symBinAddr: 0x32844, symSize: 0x654 }
  - { offset: 0xA8A96, size: 0x8, addend: 0x0, symName: __RNvXs2_NtCsaQ2CmD7W1Vs_15zerocopy_derive4reprNtB5_10StructReprNtB5_8KindRepr8is_align, symObjAddr: 0x4F54, symBinAddr: 0x32F78, symSize: 0x98 }
  - { offset: 0xA8AC2, size: 0x8, addend: 0x0, symName: __RNvXs2_NtCsaQ2CmD7W1Vs_15zerocopy_derive4reprNtB5_10StructReprNtB5_8KindRepr15is_align_gt_one, symObjAddr: 0x4FEC, symBinAddr: 0x33010, symSize: 0x8C }
  - { offset: 0xA8B0B, size: 0x8, addend: 0x0, symName: __RNvXs2_NtCsaQ2CmD7W1Vs_15zerocopy_derive4reprNtB5_10StructReprNtB5_8KindRepr5parse, symObjAddr: 0x5078, symBinAddr: 0x3309C, symSize: 0x294 }
  - { offset: 0xA8B95, size: 0x8, addend: 0x0, symName: __RNvXs3_NtCsaQ2CmD7W1Vs_15zerocopy_derive4reprNtB5_10StructReprNtNtCs9f3LFPSIp77_4core3cmp10PartialOrd11partial_cmp, symObjAddr: 0x530C, symBinAddr: 0x33330, symSize: 0x44 }
  - { offset: 0xA8BD5, size: 0x8, addend: 0x0, symName: __RNvXs4_NtCsaQ2CmD7W1Vs_15zerocopy_derive4reprNtB5_10StructReprNtNtCs9f3LFPSIp77_4core3cmp3Ord3cmp, symObjAddr: 0x5350, symBinAddr: 0x33374, symSize: 0x1A8 }
  - { offset: 0xA8D13, size: 0x8, addend: 0x0, symName: __RNvXs5_NtCsaQ2CmD7W1Vs_15zerocopy_derive4reprNtB5_10StructReprNtNtCs9f3LFPSIp77_4core3fmt7Display3fmt, symObjAddr: 0x54F8, symBinAddr: 0x3351C, symSize: 0x140 }
  - { offset: 0xA8D8D, size: 0x8, addend: 0x0, symName: __RNvXs7_NtCsaQ2CmD7W1Vs_15zerocopy_derive4reprNtB5_10StructReprNtNtCs9f3LFPSIp77_4core5clone5Clone5cloneB7_, symObjAddr: 0x5638, symBinAddr: 0x3365C, symSize: 0x20 }
  - { offset: 0xA8DBF, size: 0x8, addend: 0x0, symName: __RNvXs8_NtCsaQ2CmD7W1Vs_15zerocopy_derive4reprNtB5_10StructReprNtNtCs9f3LFPSIp77_4core3fmt5Debug3fmtB7_, symObjAddr: 0x5658, symBinAddr: 0x3367C, symSize: 0x148 }
  - { offset: 0xA8E39, size: 0x8, addend: 0x0, symName: __RNvXs9_NtCsaQ2CmD7W1Vs_15zerocopy_derive4reprNtB5_10StructReprNtNtCs9f3LFPSIp77_4core3cmp2Eq27assert_receiver_is_total_eqB7_, symObjAddr: 0x57A0, symBinAddr: 0x337C4, symSize: 0x10 }
  - { offset: 0xA8E67, size: 0x8, addend: 0x0, symName: __RNvXsb_NtCsaQ2CmD7W1Vs_15zerocopy_derive4reprNtB5_10StructReprNtNtCs9f3LFPSIp77_4core3cmp9PartialEq2eqB7_, symObjAddr: 0x57B0, symBinAddr: 0x337D4, symSize: 0x120 }
  - { offset: 0xA8F29, size: 0x8, addend: 0x0, symName: __RNvXsc_NtCsaQ2CmD7W1Vs_15zerocopy_derive4reprNtB5_8EnumReprNtB5_8KindRepr8is_align, symObjAddr: 0x58D0, symBinAddr: 0x338F4, symSize: 0x64 }
  - { offset: 0xA8F55, size: 0x8, addend: 0x0, symName: __RNvXsc_NtCsaQ2CmD7W1Vs_15zerocopy_derive4reprNtB5_8EnumReprNtB5_8KindRepr15is_align_gt_one, symObjAddr: 0x5934, symBinAddr: 0x33958, symSize: 0x8C }
  - { offset: 0xA8F9E, size: 0x8, addend: 0x0, symName: __RNvXsc_NtCsaQ2CmD7W1Vs_15zerocopy_derive4reprNtB5_8EnumReprNtB5_8KindRepr5parse, symObjAddr: 0x59C0, symBinAddr: 0x339E4, symSize: 0x498 }
  - { offset: 0xA900B, size: 0x8, addend: 0x0, symName: __RNvXsd_NtCsaQ2CmD7W1Vs_15zerocopy_derive4reprNtB5_8EnumReprNtNtCs9f3LFPSIp77_4core3cmp10PartialOrd11partial_cmp, symObjAddr: 0x5E58, symBinAddr: 0x33E7C, symSize: 0x44 }
  - { offset: 0xA904B, size: 0x8, addend: 0x0, symName: __RNvXse_NtCsaQ2CmD7W1Vs_15zerocopy_derive4reprNtB5_8EnumReprNtNtCs9f3LFPSIp77_4core3cmp3Ord3cmp, symObjAddr: 0x5E9C, symBinAddr: 0x33EC0, symSize: 0x1A8 }
  - { offset: 0xA9189, size: 0x8, addend: 0x0, symName: __RNvXsf_NtCsaQ2CmD7W1Vs_15zerocopy_derive4reprNtB5_8EnumReprNtNtCs9f3LFPSIp77_4core3fmt7Display3fmt, symObjAddr: 0x6044, symBinAddr: 0x34068, symSize: 0x274 }
  - { offset: 0xA91E6, size: 0x8, addend: 0x0, symName: __RNvXsh_NtCsaQ2CmD7W1Vs_15zerocopy_derive4reprNtB5_8EnumReprNtNtCs9f3LFPSIp77_4core5clone5Clone5cloneB7_, symObjAddr: 0x62B8, symBinAddr: 0x342DC, symSize: 0x20 }
  - { offset: 0xA9218, size: 0x8, addend: 0x0, symName: __RNvXsi_NtCsaQ2CmD7W1Vs_15zerocopy_derive4reprNtB5_8EnumReprNtNtCs9f3LFPSIp77_4core3fmt5Debug3fmtB7_, symObjAddr: 0x62D8, symBinAddr: 0x342FC, symSize: 0x280 }
  - { offset: 0xA9275, size: 0x8, addend: 0x0, symName: __RNvXsj_NtCsaQ2CmD7W1Vs_15zerocopy_derive4reprNtB5_8EnumReprNtNtCs9f3LFPSIp77_4core3cmp2Eq27assert_receiver_is_total_eqB7_, symObjAddr: 0x6558, symBinAddr: 0x3457C, symSize: 0x10 }
  - { offset: 0xA92A3, size: 0x8, addend: 0x0, symName: __RNvXsl_NtCsaQ2CmD7W1Vs_15zerocopy_derive4reprNtB5_8EnumReprNtNtCs9f3LFPSIp77_4core3cmp9PartialEq2eqB7_, symObjAddr: 0x6568, symBinAddr: 0x3458C, symSize: 0xCC }
  - { offset: 0xA9339, size: 0x8, addend: 0x0, symName: __RNvXsn_NtCsaQ2CmD7W1Vs_15zerocopy_derive4reprNtB5_4ReprNtNtCs9f3LFPSIp77_4core5clone5Clone5cloneB7_, symObjAddr: 0x6634, symBinAddr: 0x34658, symSize: 0x20 }
  - { offset: 0xA936B, size: 0x8, addend: 0x0, symName: __RNvXso_NtCsaQ2CmD7W1Vs_15zerocopy_derive4reprNtB5_4ReprNtNtCs9f3LFPSIp77_4core3cmp2Eq27assert_receiver_is_total_eqB7_, symObjAddr: 0x6654, symBinAddr: 0x34678, symSize: 0x10 }
  - { offset: 0xA9399, size: 0x8, addend: 0x0, symName: __RNvXsq_NtCsaQ2CmD7W1Vs_15zerocopy_derive4reprNtB5_4ReprNtNtCs9f3LFPSIp77_4core3cmp9PartialEq2eqB7_, symObjAddr: 0x6664, symBinAddr: 0x34688, symSize: 0x120 }
  - { offset: 0xA945B, size: 0x8, addend: 0x0, symName: __RNvXsr_NtCsaQ2CmD7W1Vs_15zerocopy_derive4reprNtB5_4ReprNtNtCs9f3LFPSIp77_4core3cmp3Ord3cmpB7_, symObjAddr: 0x6784, symBinAddr: 0x347A8, symSize: 0x12C }
  - { offset: 0xA9539, size: 0x8, addend: 0x0, symName: __RNvXss_NtCsaQ2CmD7W1Vs_15zerocopy_derive4reprNtB5_4ReprNtNtCs9f3LFPSIp77_4core3cmp10PartialOrd11partial_cmpB7_, symObjAddr: 0x68B0, symBinAddr: 0x348D4, symSize: 0x100 }
  - { offset: 0xAFD5E, size: 0x8, addend: 0x0, symName: __RNvMNtCsaQ2CmD7W1Vs_15zerocopy_derive4reprINtB2_6ConfigNtB2_10StructReprE14validate_reprsB4_, symObjAddr: 0x12D8, symBinAddr: 0x2F2FC, symSize: 0x8F0 }
  - { offset: 0xAFE60, size: 0x8, addend: 0x0, symName: __RNvMNtCsaQ2CmD7W1Vs_15zerocopy_derive4reprINtB2_6ConfigNtB2_8EnumReprE14validate_reprsB4_, symObjAddr: 0x1BC8, symBinAddr: 0x2FBEC, symSize: 0x8F0 }
  - { offset: 0xAFF99, size: 0x8, addend: 0x0, symName: __RNvMs_NtCsaQ2CmD7W1Vs_15zerocopy_derive4reprNtB4_4Repr9from_meta, symObjAddr: 0x28F0, symBinAddr: 0x30914, symSize: 0xD04 }
  - { offset: 0xB0586, size: 0x8, addend: 0x0, symName: __RINvNtNtNtNtCs9f3LFPSIp77_4core5slice4sort6shared9smallsort11insert_tailTNtNtCsATtFUPiRFW_3syn4attr4MetaNtNtCsaQ2CmD7W1Vs_15zerocopy_derive4repr10StructReprENCINvMNtCsdze8u8oDPro_5alloc5sliceSB18_7sort_byNCNvMB1G_INtB1G_6ConfigB1E_E14validate_reprs0E0EB1I_, symObjAddr: 0x0, symBinAddr: 0x349D4, symSize: 0x1D8 }
  - { offset: 0xB390C, size: 0x8, addend: 0x0, symName: __RINvNtNtNtNtCs9f3LFPSIp77_4core5slice4sort6shared9smallsort11insert_tailTNtNtCsATtFUPiRFW_3syn4attr4MetaNtNtCsaQ2CmD7W1Vs_15zerocopy_derive4repr10StructReprENCINvMNtCsdze8u8oDPro_5alloc5sliceSB18_7sort_byNCNvMB1G_INtB1G_6ConfigB1E_E14validate_reprs0E0EB1I_, symObjAddr: 0x0, symBinAddr: 0x349D4, symSize: 0x1D8 }
  - { offset: 0xB3A71, size: 0x8, addend: 0x0, symName: __RINvNtNtNtNtCs9f3LFPSIp77_4core5slice4sort6shared9smallsort11insert_tailTNtNtCsATtFUPiRFW_3syn4attr4MetaNtNtCsaQ2CmD7W1Vs_15zerocopy_derive4repr8EnumReprENCINvMNtCsdze8u8oDPro_5alloc5sliceSB18_7sort_byNCNvMB1G_INtB1G_6ConfigB1E_E14validate_reprs0E0EB1I_, symObjAddr: 0x1D8, symBinAddr: 0x34BAC, symSize: 0x1D8 }
  - { offset: 0xB3C5A, size: 0x8, addend: 0x0, symName: __RINvNtNtNtNtCs9f3LFPSIp77_4core5slice4sort6shared9smallsort12sort4_stableTNtNtCsATtFUPiRFW_3syn4attr4MetaNtNtCsaQ2CmD7W1Vs_15zerocopy_derive4repr10StructReprENCINvMNtCsdze8u8oDPro_5alloc5sliceSB19_7sort_byNCNvMB1H_INtB1H_6ConfigB1F_E14validate_reprs0E0EB1J_, symObjAddr: 0x3B0, symBinAddr: 0x34D84, symSize: 0x47C }
  - { offset: 0xB4141, size: 0x8, addend: 0x0, symName: __RINvNtNtNtNtCs9f3LFPSIp77_4core5slice4sort6shared9smallsort12sort4_stableTNtNtCsATtFUPiRFW_3syn4attr4MetaNtNtCsaQ2CmD7W1Vs_15zerocopy_derive4repr8EnumReprENCINvMNtCsdze8u8oDPro_5alloc5sliceSB19_7sort_byNCNvMB1H_INtB1H_6ConfigB1F_E14validate_reprs0E0EB1J_, symObjAddr: 0x82C, symBinAddr: 0x35200, symSize: 0x47C }
  - { offset: 0xB470A, size: 0x8, addend: 0x0, symName: __RINvNtNtNtNtCs9f3LFPSIp77_4core5slice4sort6shared9smallsort19bidirectional_mergeTNtNtCsATtFUPiRFW_3syn4attr4MetaNtNtCsaQ2CmD7W1Vs_15zerocopy_derive4repr10StructReprENCINvMNtCsdze8u8oDPro_5alloc5sliceSB1g_7sort_byNCNvMB1O_INtB1O_6ConfigB1M_E14validate_reprs0E0EB1Q_, symObjAddr: 0xCA8, symBinAddr: 0x3567C, symSize: 0x584 }
  - { offset: 0xB4E99, size: 0x8, addend: 0x0, symName: __RINvNtNtNtNtCs9f3LFPSIp77_4core5slice4sort6shared9smallsort19bidirectional_mergeTNtNtCsATtFUPiRFW_3syn4attr4MetaNtNtCsaQ2CmD7W1Vs_15zerocopy_derive4repr8EnumReprENCINvMNtCsdze8u8oDPro_5alloc5sliceSB1g_7sort_byNCNvMB1O_INtB1O_6ConfigB1M_E14validate_reprs0E0EB1Q_, symObjAddr: 0x122C, symBinAddr: 0x35C00, symSize: 0x584 }
  - { offset: 0xB5546, size: 0x8, addend: 0x0, symName: __RINvNtNtNtNtCs9f3LFPSIp77_4core5slice4sort6shared9smallsort25insertion_sort_shift_leftTNtNtCsATtFUPiRFW_3syn4attr4MetaNtNtCsaQ2CmD7W1Vs_15zerocopy_derive4repr10StructReprENCINvMNtCsdze8u8oDPro_5alloc5sliceSB1m_7sort_byNCNvMB1U_INtB1U_6ConfigB1S_E14validate_reprs0E0EB1W_, symObjAddr: 0x17B0, symBinAddr: 0x36184, symSize: 0xD0 }
  - { offset: 0xB5680, size: 0x8, addend: 0x0, symName: __RINvNtNtNtNtCs9f3LFPSIp77_4core5slice4sort6shared9smallsort25insertion_sort_shift_leftTNtNtCsATtFUPiRFW_3syn4attr4MetaNtNtCsaQ2CmD7W1Vs_15zerocopy_derive4repr8EnumReprENCINvMNtCsdze8u8oDPro_5alloc5sliceSB1m_7sort_byNCNvMB1U_INtB1U_6ConfigB1S_E14validate_reprs0E0EB1W_, symObjAddr: 0x1880, symBinAddr: 0x36254, symSize: 0xD0 }
  - { offset: 0xB57BA, size: 0x8, addend: 0x0, symName: __RINvNtNtNtNtCs9f3LFPSIp77_4core5slice4sort6shared9smallsort31small_sort_general_with_scratchTNtNtCsATtFUPiRFW_3syn4attr4MetaNtNtCsaQ2CmD7W1Vs_15zerocopy_derive4repr10StructReprENCINvMNtCsdze8u8oDPro_5alloc5sliceSB1s_7sort_byNCNvMB20_INtB20_6ConfigB1Y_E14validate_reprs0E0EB22_, symObjAddr: 0x1950, symBinAddr: 0x36324, symSize: 0x4B0 }
  - { offset: 0xB5BB1, size: 0x8, addend: 0x0, symName: __RINvNtNtNtNtCs9f3LFPSIp77_4core5slice4sort6shared9smallsort31small_sort_general_with_scratchTNtNtCsATtFUPiRFW_3syn4attr4MetaNtNtCsaQ2CmD7W1Vs_15zerocopy_derive4repr8EnumReprENCINvMNtCsdze8u8oDPro_5alloc5sliceSB1s_7sort_byNCNvMB20_INtB20_6ConfigB1Y_E14validate_reprs0E0EB22_, symObjAddr: 0x1E00, symBinAddr: 0x367D4, symSize: 0x4B0 }
  - { offset: 0xB5FAD, size: 0x8, addend: 0x0, symName: __RNvXs5_NtNtNtNtCs9f3LFPSIp77_4core5slice4sort6shared9smallsortINtB5_10CopyOnDropTNtNtCsATtFUPiRFW_3syn4attr4MetaNtNtCsaQ2CmD7W1Vs_15zerocopy_derive4repr10StructReprEENtNtNtBd_3ops4drop4Drop4dropB1Q_, symObjAddr: 0x22B0, symBinAddr: 0x36C84, symSize: 0x84 }
  - { offset: 0xB600E, size: 0x8, addend: 0x0, symName: __RNvXs5_NtNtNtNtCs9f3LFPSIp77_4core5slice4sort6shared9smallsortINtB5_10CopyOnDropTNtNtCsATtFUPiRFW_3syn4attr4MetaNtNtCsaQ2CmD7W1Vs_15zerocopy_derive4repr8EnumReprEENtNtNtBd_3ops4drop4Drop4dropB1Q_, symObjAddr: 0x2334, symBinAddr: 0x36D08, symSize: 0x84 }
  - { offset: 0xBC7FA, size: 0x8, addend: 0x0, symName: __RINvXs3_NtNtCsdze8u8oDPro_5alloc3vec9into_iterINtB6_8IntoIterTNtNtCsATtFUPiRFW_3syn4attr4MetaNtNtB12_5token5CommaEENtNtNtNtCs9f3LFPSIp77_4core4iter6traits8iterator8Iterator4folduNCINvNtNtB1V_8adapters3map8map_foldBX_BY_uNCNvXs8_NtB12_10punctuatedINtB3E_10PunctuatedBY_B1t_ENtNtB1T_7collect12IntoIterator9into_iter0NCINvNvB1P_8for_each4callBY_NCINvMsi_B8_INtB8_3VecBY_E14extend_trustedINtB2V_3MapBI_B3w_EE0E0E0ECsaQ2CmD7W1Vs_15zerocopy_derive, symObjAddr: 0x0, symBinAddr: 0x36D8C, symSize: 0x15C }
  - { offset: 0xC0546, size: 0x8, addend: 0x0, symName: __RINvYINtNtNtCsdze8u8oDPro_5alloc3vec9into_iter8IntoIterTNtNtCsATtFUPiRFW_3syn4attr4MetaNtNtBW_5token5CommaEENtNtNtNtCs9f3LFPSIp77_4core4iter6traits8iterator8Iterator3mapBS_NCNvXs8_NtBW_10punctuatedINtB2S_10PunctuatedBS_B1n_ENtNtB1M_7collect12IntoIterator9into_iter0ECsaQ2CmD7W1Vs_15zerocopy_derive, symObjAddr: 0x53C, symBinAddr: 0x372C8, symSize: 0x1C }
  - { offset: 0xC05C4, size: 0x8, addend: 0x0, symName: __RINvYINtNtNtCsdze8u8oDPro_5alloc3vec9into_iter8IntoIterTNtNtCsATtFUPiRFW_3syn4attr4MetaNtNtCsaQ2CmD7W1Vs_15zerocopy_derive4repr10StructReprEENtNtNtNtCs9f3LFPSIp77_4core4iter6traits8iterator8Iterator6filterNCNvMB1p_INtB1p_6ConfigB1n_E14validate_reprss0_0EB1r_, symObjAddr: 0x558, symBinAddr: 0x372E4, symSize: 0x1C }
  - { offset: 0xC0639, size: 0x8, addend: 0x0, symName: __RINvYINtNtNtCsdze8u8oDPro_5alloc3vec9into_iter8IntoIterTNtNtCsATtFUPiRFW_3syn4attr4MetaNtNtCsaQ2CmD7W1Vs_15zerocopy_derive4repr8EnumReprEENtNtNtNtCs9f3LFPSIp77_4core4iter6traits8iterator8Iterator6filterNCNvMB1p_INtB1p_6ConfigB1n_E14validate_reprss0_0EB1r_, symObjAddr: 0x574, symBinAddr: 0x37300, symSize: 0x1C }
  - { offset: 0xC06AE, size: 0x8, addend: 0x0, symName: __RINvYINtNtNtCsdze8u8oDPro_5alloc3vec9into_iter8IntoIterTNtNtCsATtFUPiRFW_3syn8generics12GenericParamNtNtBW_5token5CommaEENtNtNtNtCs9f3LFPSIp77_4core4iter6traits8iterator8Iterator3mapBS_NCNvXs8_NtBW_10punctuatedINtB35_10PunctuatedBS_B1A_ENtNtB1Z_7collect12IntoIterator9into_iter0ECsaQ2CmD7W1Vs_15zerocopy_derive, symObjAddr: 0x590, symBinAddr: 0x3731C, symSize: 0x1C }
  - { offset: 0xC0874, size: 0x8, addend: 0x0, symName: __RNvYINtNtNtCsdze8u8oDPro_5alloc3vec9into_iter8IntoIterNtNtCsATtFUPiRFW_3syn4attr4MetaENtNtNtNtCs9f3LFPSIp77_4core4iter6traits10exact_size17ExactSizeIterator3lenCsaQ2CmD7W1Vs_15zerocopy_derive, symObjAddr: 0x12A4, symBinAddr: 0x38030, symSize: 0xC4 }
  - { offset: 0xC0966, size: 0x8, addend: 0x0, symName: __RNvYINtNtNtCsdze8u8oDPro_5alloc3vec9into_iter8IntoIterNtNtCsATtFUPiRFW_3syn8generics12GenericParamENtNtNtNtCs9f3LFPSIp77_4core4iter6traits10exact_size17ExactSizeIterator3lenCsaQ2CmD7W1Vs_15zerocopy_derive, symObjAddr: 0x1368, symBinAddr: 0x380F4, symSize: 0xC4 }
  - { offset: 0xC0A58, size: 0x8, addend: 0x0, symName: __RNvYINtNtNtCsdze8u8oDPro_5alloc3vec9into_iter8IntoIterTNtNtCsATtFUPiRFW_3syn4attr4MetaNtNtBV_5token5CommaEENtNtNtNtCs9f3LFPSIp77_4core4iter6traits10exact_size17ExactSizeIterator3lenCsaQ2CmD7W1Vs_15zerocopy_derive, symObjAddr: 0x142C, symBinAddr: 0x381B8, symSize: 0xC4 }
  - { offset: 0xC0B4A, size: 0x8, addend: 0x0, symName: __RNvYINtNtNtCsdze8u8oDPro_5alloc3vec9into_iter8IntoIterTNtNtCsATtFUPiRFW_3syn4attr4MetaNtNtCsaQ2CmD7W1Vs_15zerocopy_derive4repr10StructReprEENtNtNtNtCs9f3LFPSIp77_4core4iter6traits10exact_size17ExactSizeIterator3lenB1q_, symObjAddr: 0x14F0, symBinAddr: 0x3827C, symSize: 0xC4 }
  - { offset: 0xC0C3C, size: 0x8, addend: 0x0, symName: __RNvYINtNtNtCsdze8u8oDPro_5alloc3vec9into_iter8IntoIterTNtNtCsATtFUPiRFW_3syn4attr4MetaNtNtCsaQ2CmD7W1Vs_15zerocopy_derive4repr8EnumReprEENtNtNtNtCs9f3LFPSIp77_4core4iter6traits10exact_size17ExactSizeIterator3lenB1q_, symObjAddr: 0x15B4, symBinAddr: 0x38340, symSize: 0xC4 }
  - { offset: 0xC0D2E, size: 0x8, addend: 0x0, symName: __RNvYINtNtNtCsdze8u8oDPro_5alloc3vec9into_iter8IntoIterTNtNtCsATtFUPiRFW_3syn8generics12GenericParamNtNtBV_5token5CommaEENtNtNtNtCs9f3LFPSIp77_4core4iter6traits10exact_size17ExactSizeIterator3lenCsaQ2CmD7W1Vs_15zerocopy_derive, symObjAddr: 0x1678, symBinAddr: 0x38404, symSize: 0xC4 }
  - { offset: 0xC6237, size: 0x8, addend: 0x0, symName: __RINvXs3_NtNtCsdze8u8oDPro_5alloc3vec9into_iterINtB6_8IntoIterTNtNtCsATtFUPiRFW_3syn4attr4MetaNtNtB12_5token5CommaEENtNtNtNtCs9f3LFPSIp77_4core4iter6traits8iterator8Iterator4folduNCINvNtNtB1V_8adapters3map8map_foldBX_BY_uNCNvXs8_NtB12_10punctuatedINtB3E_10PunctuatedBY_B1t_ENtNtB1T_7collect12IntoIterator9into_iter0NCINvNvB1P_8for_each4callBY_NCINvMsi_B8_INtB8_3VecBY_E14extend_trustedINtB2V_3MapBI_B3w_EE0E0E0ECsaQ2CmD7W1Vs_15zerocopy_derive, symObjAddr: 0x0, symBinAddr: 0x36D8C, symSize: 0x15C }
  - { offset: 0xC6444, size: 0x8, addend: 0x0, symName: __RINvXs3_NtNtCsdze8u8oDPro_5alloc3vec9into_iterINtB6_8IntoIterTNtNtCsATtFUPiRFW_3syn4attr4MetaNtNtCsaQ2CmD7W1Vs_15zerocopy_derive4repr10StructReprEENtNtNtNtCs9f3LFPSIp77_4core4iter6traits8iterator8Iterator4folduNCINvNtNtB2r_8adapters6filter11filter_foldBX_uNCNvMB1v_INtB1v_6ConfigB1t_E14validate_reprss0_0NCINvNvB2l_8for_each4callBX_NCB48_s1_0E0E0EB1x_, symObjAddr: 0x15C, symBinAddr: 0x36EE8, symSize: 0x140 }
  - { offset: 0xC6650, size: 0x8, addend: 0x0, symName: __RINvXs3_NtNtCsdze8u8oDPro_5alloc3vec9into_iterINtB6_8IntoIterTNtNtCsATtFUPiRFW_3syn4attr4MetaNtNtCsaQ2CmD7W1Vs_15zerocopy_derive4repr8EnumReprEENtNtNtNtCs9f3LFPSIp77_4core4iter6traits8iterator8Iterator4folduNCINvNtNtB2o_8adapters6filter11filter_foldBX_uNCNvMB1v_INtB1v_6ConfigB1t_E14validate_reprss0_0NCINvNvB2i_8for_each4callBX_NCB45_s1_0E0E0EB1x_, symObjAddr: 0x29C, symBinAddr: 0x37028, symSize: 0x140 }
  - { offset: 0xC685C, size: 0x8, addend: 0x0, symName: __RINvXs3_NtNtCsdze8u8oDPro_5alloc3vec9into_iterINtB6_8IntoIterTNtNtCsATtFUPiRFW_3syn8generics12GenericParamNtNtB12_5token5CommaEENtNtNtNtCs9f3LFPSIp77_4core4iter6traits8iterator8Iterator4folduNCINvNtNtB28_8adapters3map8map_foldBX_BY_uNCNvXs8_NtB12_10punctuatedINtB3R_10PunctuatedBY_B1G_ENtNtB26_7collect12IntoIterator9into_iter0NCINvNvB22_8for_each4callBY_NCINvMsi_B8_INtB8_3VecBY_E14extend_trustedINtB38_3MapBI_B3J_EE0E0E0ECsaQ2CmD7W1Vs_15zerocopy_derive, symObjAddr: 0x3DC, symBinAddr: 0x37168, symSize: 0x160 }
  - { offset: 0xC6A69, size: 0x8, addend: 0x0, symName: __RNvXs3_NtNtCsdze8u8oDPro_5alloc3vec9into_iterINtB5_8IntoIterNtNtCsATtFUPiRFW_3syn4attr4MetaENtNtNtNtCs9f3LFPSIp77_4core4iter6traits8iterator8Iterator4nextCsaQ2CmD7W1Vs_15zerocopy_derive, symObjAddr: 0x8DC, symBinAddr: 0x37668, symSize: 0xF4 }
  - { offset: 0xC6C19, size: 0x8, addend: 0x0, symName: __RNvXs3_NtNtCsdze8u8oDPro_5alloc3vec9into_iterINtB5_8IntoIterNtNtCsATtFUPiRFW_3syn4attr4MetaENtNtNtNtCs9f3LFPSIp77_4core4iter6traits8iterator8Iterator9size_hintCsaQ2CmD7W1Vs_15zerocopy_derive, symObjAddr: 0x9D0, symBinAddr: 0x3775C, symSize: 0xB8 }
  - { offset: 0xC6CEA, size: 0x8, addend: 0x0, symName: __RNvXs3_NtNtCsdze8u8oDPro_5alloc3vec9into_iterINtB5_8IntoIterNtNtCsATtFUPiRFW_3syn8generics12GenericParamENtNtNtNtCs9f3LFPSIp77_4core4iter6traits8iterator8Iterator4nextCsaQ2CmD7W1Vs_15zerocopy_derive, symObjAddr: 0xA88, symBinAddr: 0x37814, symSize: 0xF4 }
  - { offset: 0xC6E9A, size: 0x8, addend: 0x0, symName: __RNvXs3_NtNtCsdze8u8oDPro_5alloc3vec9into_iterINtB5_8IntoIterNtNtCsATtFUPiRFW_3syn8generics12GenericParamENtNtNtNtCs9f3LFPSIp77_4core4iter6traits8iterator8Iterator9size_hintCsaQ2CmD7W1Vs_15zerocopy_derive, symObjAddr: 0xB7C, symBinAddr: 0x37908, symSize: 0xB8 }
  - { offset: 0xC6F6B, size: 0x8, addend: 0x0, symName: __RNvXs3_NtNtCsdze8u8oDPro_5alloc3vec9into_iterINtB5_8IntoIterTNtNtCsATtFUPiRFW_3syn4attr4MetaNtNtB11_5token5CommaEENtNtNtNtCs9f3LFPSIp77_4core4iter6traits8iterator8Iterator9size_hintCsaQ2CmD7W1Vs_15zerocopy_derive, symObjAddr: 0xC34, symBinAddr: 0x379C0, symSize: 0xB8 }
  - { offset: 0xC703C, size: 0x8, addend: 0x0, symName: __RNvXs3_NtNtCsdze8u8oDPro_5alloc3vec9into_iterINtB5_8IntoIterTNtNtCsATtFUPiRFW_3syn4attr4MetaNtNtCsaQ2CmD7W1Vs_15zerocopy_derive4repr10StructReprEENtNtNtNtCs9f3LFPSIp77_4core4iter6traits8iterator8Iterator9size_hintB1w_, symObjAddr: 0xCEC, symBinAddr: 0x37A78, symSize: 0xB8 }
  - { offset: 0xC710D, size: 0x8, addend: 0x0, symName: __RNvXs3_NtNtCsdze8u8oDPro_5alloc3vec9into_iterINtB5_8IntoIterTNtNtCsATtFUPiRFW_3syn4attr4MetaNtNtCsaQ2CmD7W1Vs_15zerocopy_derive4repr8EnumReprEENtNtNtNtCs9f3LFPSIp77_4core4iter6traits8iterator8Iterator9size_hintB1w_, symObjAddr: 0xDA4, symBinAddr: 0x37B30, symSize: 0xB8 }
  - { offset: 0xC71DE, size: 0x8, addend: 0x0, symName: __RNvXs3_NtNtCsdze8u8oDPro_5alloc3vec9into_iterINtB5_8IntoIterTNtNtCsATtFUPiRFW_3syn8generics12GenericParamNtNtB11_5token5CommaEENtNtNtNtCs9f3LFPSIp77_4core4iter6traits8iterator8Iterator9size_hintCsaQ2CmD7W1Vs_15zerocopy_derive, symObjAddr: 0xE5C, symBinAddr: 0x37BE8, symSize: 0xB8 }
  - { offset: 0xC74E7, size: 0x8, addend: 0x0, symName: __RNvXNvXsd_NtNtCsdze8u8oDPro_5alloc3vec9into_iterINtB8_8IntoIterppENtNtNtCs9f3LFPSIp77_4core3ops4drop4Drop4dropINtB2_9DropGuardNtNtCsATtFUPiRFW_3syn4attr4MetaNtNtBc_5alloc6GlobalEB12_4dropCsaQ2CmD7W1Vs_15zerocopy_derive, symObjAddr: 0x5AC, symBinAddr: 0x37338, symSize: 0x88 }
  - { offset: 0xC75F4, size: 0x8, addend: 0x0, symName: __RNvXNvXsd_NtNtCsdze8u8oDPro_5alloc3vec9into_iterINtB8_8IntoIterppENtNtNtCs9f3LFPSIp77_4core3ops4drop4Drop4dropINtB2_9DropGuardNtNtCsATtFUPiRFW_3syn8generics12GenericParamNtNtBc_5alloc6GlobalEB12_4dropCsaQ2CmD7W1Vs_15zerocopy_derive, symObjAddr: 0x634, symBinAddr: 0x373C0, symSize: 0x88 }
  - { offset: 0xC7701, size: 0x8, addend: 0x0, symName: __RNvXNvXsd_NtNtCsdze8u8oDPro_5alloc3vec9into_iterINtB8_8IntoIterppENtNtNtCs9f3LFPSIp77_4core3ops4drop4Drop4dropINtB2_9DropGuardTNtNtCsATtFUPiRFW_3syn4attr4MetaNtNtB25_5token5CommaENtNtBc_5alloc6GlobalEB12_4dropCsaQ2CmD7W1Vs_15zerocopy_derive, symObjAddr: 0x6BC, symBinAddr: 0x37448, symSize: 0x88 }
  - { offset: 0xC780E, size: 0x8, addend: 0x0, symName: __RNvXNvXsd_NtNtCsdze8u8oDPro_5alloc3vec9into_iterINtB8_8IntoIterppENtNtNtCs9f3LFPSIp77_4core3ops4drop4Drop4dropINtB2_9DropGuardTNtNtCsATtFUPiRFW_3syn4attr4MetaNtNtCsaQ2CmD7W1Vs_15zerocopy_derive4repr10StructReprENtNtBc_5alloc6GlobalEB12_4dropB2A_, symObjAddr: 0x744, symBinAddr: 0x374D0, symSize: 0x88 }
  - { offset: 0xC791B, size: 0x8, addend: 0x0, symName: __RNvXNvXsd_NtNtCsdze8u8oDPro_5alloc3vec9into_iterINtB8_8IntoIterppENtNtNtCs9f3LFPSIp77_4core3ops4drop4Drop4dropINtB2_9DropGuardTNtNtCsATtFUPiRFW_3syn4attr4MetaNtNtCsaQ2CmD7W1Vs_15zerocopy_derive4repr8EnumReprENtNtBc_5alloc6GlobalEB12_4dropB2A_, symObjAddr: 0x7CC, symBinAddr: 0x37558, symSize: 0x88 }
  - { offset: 0xC7A28, size: 0x8, addend: 0x0, symName: __RNvXNvXsd_NtNtCsdze8u8oDPro_5alloc3vec9into_iterINtB8_8IntoIterppENtNtNtCs9f3LFPSIp77_4core3ops4drop4Drop4dropINtB2_9DropGuardTNtNtCsATtFUPiRFW_3syn8generics12GenericParamNtNtB25_5token5CommaENtNtBc_5alloc6GlobalEB12_4dropCsaQ2CmD7W1Vs_15zerocopy_derive, symObjAddr: 0x854, symBinAddr: 0x375E0, symSize: 0x88 }
  - { offset: 0xC7C21, size: 0x8, addend: 0x0, symName: __RNvXsd_NtNtCsdze8u8oDPro_5alloc3vec9into_iterINtB5_8IntoIterNtNtCsATtFUPiRFW_3syn4attr4MetaENtNtNtCs9f3LFPSIp77_4core3ops4drop4Drop4dropCsaQ2CmD7W1Vs_15zerocopy_derive, symObjAddr: 0xF14, symBinAddr: 0x37CA0, symSize: 0x98 }
  - { offset: 0xC7CBB, size: 0x8, addend: 0x0, symName: __RNvXsd_NtNtCsdze8u8oDPro_5alloc3vec9into_iterINtB5_8IntoIterNtNtCsATtFUPiRFW_3syn8generics12GenericParamENtNtNtCs9f3LFPSIp77_4core3ops4drop4Drop4dropCsaQ2CmD7W1Vs_15zerocopy_derive, symObjAddr: 0xFAC, symBinAddr: 0x37D38, symSize: 0x98 }
  - { offset: 0xC7D55, size: 0x8, addend: 0x0, symName: __RNvXsd_NtNtCsdze8u8oDPro_5alloc3vec9into_iterINtB5_8IntoIterTNtNtCsATtFUPiRFW_3syn4attr4MetaNtNtB11_5token5CommaEENtNtNtCs9f3LFPSIp77_4core3ops4drop4Drop4dropCsaQ2CmD7W1Vs_15zerocopy_derive, symObjAddr: 0x1044, symBinAddr: 0x37DD0, symSize: 0x98 }
  - { offset: 0xC7DEF, size: 0x8, addend: 0x0, symName: __RNvXsd_NtNtCsdze8u8oDPro_5alloc3vec9into_iterINtB5_8IntoIterTNtNtCsATtFUPiRFW_3syn4attr4MetaNtNtCsaQ2CmD7W1Vs_15zerocopy_derive4repr10StructReprEENtNtNtCs9f3LFPSIp77_4core3ops4drop4Drop4dropB1w_, symObjAddr: 0x10DC, symBinAddr: 0x37E68, symSize: 0x98 }
  - { offset: 0xC7E89, size: 0x8, addend: 0x0, symName: __RNvXsd_NtNtCsdze8u8oDPro_5alloc3vec9into_iterINtB5_8IntoIterTNtNtCsATtFUPiRFW_3syn4attr4MetaNtNtCsaQ2CmD7W1Vs_15zerocopy_derive4repr8EnumReprEENtNtNtCs9f3LFPSIp77_4core3ops4drop4Drop4dropB1w_, symObjAddr: 0x1174, symBinAddr: 0x37F00, symSize: 0x98 }
  - { offset: 0xC7F23, size: 0x8, addend: 0x0, symName: __RNvXsd_NtNtCsdze8u8oDPro_5alloc3vec9into_iterINtB5_8IntoIterTNtNtCsATtFUPiRFW_3syn8generics12GenericParamNtNtB11_5token5CommaEENtNtNtCs9f3LFPSIp77_4core3ops4drop4Drop4dropCsaQ2CmD7W1Vs_15zerocopy_derive, symObjAddr: 0x120C, symBinAddr: 0x37F98, symSize: 0x98 }
  - { offset: 0xCA008, size: 0x8, addend: 0x0, symName: __RINvMs_NtCsdze8u8oDPro_5alloc3vecINtB5_3VecReE10retain_mutNCNvMNtCsATtFUPiRFW_3syn9lookaheadNtBZ_10Lookahead15error0EB11_, symObjAddr: 0x0, symBinAddr: 0x384DC, symSize: 0xE4 }
  - { offset: 0xCAD7A, size: 0x8, addend: 0x0, symName: __RNvXsP_NtCs9f3LFPSIp77_4core3fmtRINtNtCsdze8u8oDPro_5alloc3vec3VecNtNtCsATtFUPiRFW_3syn4item4ItemENtB5_5Debug3fmtB16_, symObjAddr: 0x9934, symBinAddr: 0x41E10, symSize: 0x30 }
  - { offset: 0xCADC0, size: 0x8, addend: 0x0, symName: __RNvXsP_NtCs9f3LFPSIp77_4core3fmtRINtNtCsdze8u8oDPro_5alloc3vec3VechENtB5_5Debug3fmtCsATtFUPiRFW_3syn, symObjAddr: 0x9964, symBinAddr: 0x41E40, symSize: 0x30 }
  - { offset: 0xD8E15, size: 0x8, addend: 0x0, symName: __RNvXs1_NtCs9f3LFPSIp77_4core7convertINtNtCsdze8u8oDPro_5alloc3vec3VechEINtB5_4IntoBy_E4intoCsATtFUPiRFW_3syn, symObjAddr: 0x82EC, symBinAddr: 0x407C8, symSize: 0x18 }
  - { offset: 0xD9057, size: 0x8, addend: 0x0, symName: __RINvNvMs_NtCsdze8u8oDPro_5alloc3vecINtB7_3VecppE10retain_mut12process_loopNCNvMNtCsATtFUPiRFW_3syn9lookaheadNtB1f_10Lookahead15error0ReNtNtB9_5alloc6GlobalKb0_EB1h_, symObjAddr: 0xCE0, symBinAddr: 0x391BC, symSize: 0xE4 }
  - { offset: 0xD9209, size: 0x8, addend: 0x0, symName: __RINvNvMs_NtCsdze8u8oDPro_5alloc3vecINtB7_3VecppE10retain_mut12process_loopNCNvMNtCsATtFUPiRFW_3syn9lookaheadNtB1f_10Lookahead15error0ReNtNtB9_5alloc6GlobalKb1_EB1h_, symObjAddr: 0xDC4, symBinAddr: 0x392A0, symSize: 0x1B0 }
  - { offset: 0xD94C2, size: 0x8, addend: 0x0, symName: __RNvXNvMs_NtCsdze8u8oDPro_5alloc3vecINtB7_3VecppE10retain_mutINtB2_15BackshiftOnDropReNtNtB9_5alloc6GlobalENtNtNtCs9f3LFPSIp77_4core3ops4drop4Drop4dropCsATtFUPiRFW_3syn, symObjAddr: 0x7F00, symBinAddr: 0x403DC, symSize: 0x134 }
  - { offset: 0xDC6A3, size: 0x8, addend: 0x0, symName: __RINvXsd_NtCsdze8u8oDPro_5alloc3vecINtB6_3VecNtCs475r2uZUTuc_11proc_macro29TokenTreeEINtNtNtNtCs9f3LFPSIp77_4core4iter6traits7collect12FromIteratorBG_E9from_iterNtNtBI_12token_stream8IntoIterECsATtFUPiRFW_3syn, symObjAddr: 0xF74, symBinAddr: 0x39450, symSize: 0x34 }
  - { offset: 0xDC6EA, size: 0x8, addend: 0x0, symName: __RINvXsh_NtCsdze8u8oDPro_5alloc3vecINtB6_3VecNtCs475r2uZUTuc_11proc_macro29TokenTreeEINtNtNtNtCs9f3LFPSIp77_4core4iter6traits7collect6ExtendBG_E6extendINtNtNtB1r_8adapters7flatten7FlattenINtNtB2t_3map3MapIB2Z_IB2Z_INtNtNtB1t_5slice4iter4IterNtNtCsATtFUPiRFW_3syn5error12ErrorMessageENvMs_B3S_B3Q_16to_compile_errorENCINvXs7_BI_NtBI_11TokenStreamINtB1n_12FromIteratorB5e_E9from_iterB3k_E0ENCINvXs6_NtBI_3impNtB6m_11TokenStreamIB5x_B6v_E9from_iterB3f_Es_0EEEB3U_, symObjAddr: 0xFA8, symBinAddr: 0x39484, symSize: 0x40 }
  - { offset: 0xDC73F, size: 0x8, addend: 0x0, symName: __RINvXsh_NtCsdze8u8oDPro_5alloc3vecINtB6_3VecNtNtCsATtFUPiRFW_3syn4attr9AttributeEINtNtNtNtCs9f3LFPSIp77_4core4iter6traits7collect6ExtendBG_E6extendBw_EBK_, symObjAddr: 0xFE8, symBinAddr: 0x394C4, symSize: 0x40 }
  - { offset: 0xDC794, size: 0x8, addend: 0x0, symName: __RINvXsh_NtCsdze8u8oDPro_5alloc3vecINtB6_3VecNtNtCsATtFUPiRFW_3syn4data5FieldEINtNtNtNtCs9f3LFPSIp77_4core4iter6traits7collect6ExtendBG_E6extendINtNtB1m_6option6OptionBG_EEBK_, symObjAddr: 0x1028, symBinAddr: 0x39504, symSize: 0x48 }
  - { offset: 0xDC7E9, size: 0x8, addend: 0x0, symName: __RINvXsh_NtCsdze8u8oDPro_5alloc3vecINtB6_3VecNtNtCsATtFUPiRFW_3syn4data5FieldEINtNtNtNtCs9f3LFPSIp77_4core4iter6traits7collect6ExtendBG_E6extendINtNtNtB1k_8adapters3map3MapINtNtB6_9into_iter8IntoIterTBG_NtNtBK_5token5CommaEENCNvXs8_NtBK_10punctuatedINtB3H_10PunctuatedBG_B3e_ENtB1g_12IntoIterator9into_iter0EEBK_, symObjAddr: 0x1070, symBinAddr: 0x3954C, symSize: 0x40 }
  - { offset: 0xDC83E, size: 0x8, addend: 0x0, symName: __RINvXsh_NtCsdze8u8oDPro_5alloc3vecINtB6_3VecNtNtCsATtFUPiRFW_3syn4data5FieldEINtNtNtNtCs9f3LFPSIp77_4core4iter6traits7collect6ExtendBG_E6extendINtNtNtB1k_8adapters3map3MapINtNtB6_9into_iter8IntoIterTBG_uEENCNvXs8_NtBK_10punctuatedINtB3p_10PunctuatedBG_uENtB1g_12IntoIterator9into_iter0EEBK_, symObjAddr: 0x10B0, symBinAddr: 0x3958C, symSize: 0x40 }
  - { offset: 0xDC893, size: 0x8, addend: 0x0, symName: __RINvXsh_NtCsdze8u8oDPro_5alloc3vecINtB6_3VecNtNtCsATtFUPiRFW_3syn5error12ErrorMessageEINtNtNtNtCs9f3LFPSIp77_4core4iter6traits7collect6ExtendBG_E6extendBw_EBK_, symObjAddr: 0x10F0, symBinAddr: 0x395CC, symSize: 0x40 }
  - { offset: 0xDC8E8, size: 0x8, addend: 0x0, symName: __RINvXsh_NtCsdze8u8oDPro_5alloc3vecINtB6_3VecNtNtCsATtFUPiRFW_3syn8generics14TypeParamBoundEINtNtNtNtCs9f3LFPSIp77_4core4iter6traits7collect6ExtendBG_E6extendINtNtB1A_6option6OptionBG_EEBK_, symObjAddr: 0x1130, symBinAddr: 0x3960C, symSize: 0x40 }
  - { offset: 0xDC93D, size: 0x8, addend: 0x0, symName: __RINvXsh_NtCsdze8u8oDPro_5alloc3vecINtB6_3VecNtNtCsATtFUPiRFW_3syn8generics14TypeParamBoundEINtNtNtNtCs9f3LFPSIp77_4core4iter6traits7collect6ExtendBG_E6extendINtNtNtB1y_8adapters3map3MapINtNtB6_9into_iter8IntoIterTBG_NtNtBK_5token4PlusEENCNvXs8_NtBK_10punctuatedINtB3U_10PunctuatedBG_B3s_ENtB1u_12IntoIterator9into_iter0EEBK_, symObjAddr: 0x1170, symBinAddr: 0x3964C, symSize: 0x40 }
  - { offset: 0xDC99D, size: 0x8, addend: 0x0, symName: __RNCINvMsi_NtCsdze8u8oDPro_5alloc3vecINtB8_3VecNtNtCsATtFUPiRFW_3syn4data5FieldE14extend_trustedINtNtCs9f3LFPSIp77_4core6option8IntoIterBI_EE0BM_, symObjAddr: 0x11B0, symBinAddr: 0x3968C, symSize: 0x78 }
  - { offset: 0xDCA90, size: 0x8, addend: 0x0, symName: __RNCINvMsi_NtCsdze8u8oDPro_5alloc3vecINtB8_3VecNtNtCsATtFUPiRFW_3syn4data5FieldE14extend_trustedINtNtNtNtCs9f3LFPSIp77_4core4iter8adapters3map3MapINtNtB8_9into_iter8IntoIterTBI_NtNtBM_5token5CommaEENCNvXs8_NtBM_10punctuatedINtB3h_10PunctuatedBI_B2O_ENtNtNtB1C_6traits7collect12IntoIterator9into_iter0EE0BM_, symObjAddr: 0x1228, symBinAddr: 0x39704, symSize: 0x78 }
  - { offset: 0xDCB83, size: 0x8, addend: 0x0, symName: __RNCINvMsi_NtCsdze8u8oDPro_5alloc3vecINtB8_3VecNtNtCsATtFUPiRFW_3syn4data5FieldE14extend_trustedINtNtNtNtCs9f3LFPSIp77_4core4iter8adapters3map3MapINtNtB8_9into_iter8IntoIterTBI_uEENCNvXs8_NtBM_10punctuatedINtB2Z_10PunctuatedBI_uENtNtNtB1C_6traits7collect12IntoIterator9into_iter0EE0BM_, symObjAddr: 0x12A0, symBinAddr: 0x3977C, symSize: 0x78 }
  - { offset: 0xDCC76, size: 0x8, addend: 0x0, symName: __RNCINvMsi_NtCsdze8u8oDPro_5alloc3vecINtB8_3VecNtNtCsATtFUPiRFW_3syn8generics14TypeParamBoundE14extend_trustedINtNtCs9f3LFPSIp77_4core6option8IntoIterBI_EE0BM_, symObjAddr: 0x1318, symBinAddr: 0x397F4, symSize: 0x78 }
  - { offset: 0xDCD69, size: 0x8, addend: 0x0, symName: __RNCINvMsi_NtCsdze8u8oDPro_5alloc3vecINtB8_3VecNtNtCsATtFUPiRFW_3syn8generics14TypeParamBoundE14extend_trustedINtNtNtNtCs9f3LFPSIp77_4core4iter8adapters3map3MapINtNtB8_9into_iter8IntoIterTBI_NtNtBM_5token4PlusEENCNvXs8_NtBM_10punctuatedINtB3u_10PunctuatedBI_B32_ENtNtNtB1Q_6traits7collect12IntoIterator9into_iter0EE0BM_, symObjAddr: 0x1390, symBinAddr: 0x3986C, symSize: 0x78 }
  - { offset: 0xDD342, size: 0x8, addend: 0x0, symName: __RNvXNtNtCsdze8u8oDPro_5alloc3vec10partial_eqINtB4_3VecNtNtCsATtFUPiRFW_3syn4attr9AttributeENtNtCs9f3LFPSIp77_4core3cmp9PartialEq2eqBU_, symObjAddr: 0x7034, symBinAddr: 0x3F510, symSize: 0x7C }
  - { offset: 0xDD3C5, size: 0x8, addend: 0x0, symName: __RNvXNtNtCsdze8u8oDPro_5alloc3vec10partial_eqINtB4_3VecNtNtCsATtFUPiRFW_3syn4expr3ArmENtNtCs9f3LFPSIp77_4core3cmp9PartialEq2eqBU_, symObjAddr: 0x70B0, symBinAddr: 0x3F58C, symSize: 0x7C }
  - { offset: 0xDD448, size: 0x8, addend: 0x0, symName: __RNvXNtNtCsdze8u8oDPro_5alloc3vec10partial_eqINtB4_3VecNtNtCsATtFUPiRFW_3syn4item11ForeignItemENtNtCs9f3LFPSIp77_4core3cmp9PartialEq2eqBU_, symObjAddr: 0x712C, symBinAddr: 0x3F608, symSize: 0x7C }
  - { offset: 0xDD4CB, size: 0x8, addend: 0x0, symName: __RNvXNtNtCsdze8u8oDPro_5alloc3vec10partial_eqINtB4_3VecNtNtCsATtFUPiRFW_3syn4item4ItemENtNtCs9f3LFPSIp77_4core3cmp9PartialEq2eqBU_, symObjAddr: 0x71A8, symBinAddr: 0x3F684, symSize: 0x7C }
  - { offset: 0xDD54E, size: 0x8, addend: 0x0, symName: __RNvXNtNtCsdze8u8oDPro_5alloc3vec10partial_eqINtB4_3VecNtNtCsATtFUPiRFW_3syn4item8ImplItemENtNtCs9f3LFPSIp77_4core3cmp9PartialEq2eqBU_, symObjAddr: 0x7224, symBinAddr: 0x3F700, symSize: 0x7C }
  - { offset: 0xDD5D1, size: 0x8, addend: 0x0, symName: __RNvXNtNtCsdze8u8oDPro_5alloc3vec10partial_eqINtB4_3VecNtNtCsATtFUPiRFW_3syn4item9TraitItemENtNtCs9f3LFPSIp77_4core3cmp9PartialEq2eqBU_, symObjAddr: 0x72A0, symBinAddr: 0x3F77C, symSize: 0x7C }
  - { offset: 0xDD654, size: 0x8, addend: 0x0, symName: __RNvXNtNtCsdze8u8oDPro_5alloc3vec10partial_eqINtB4_3VecNtNtCsATtFUPiRFW_3syn4stmt4StmtENtNtCs9f3LFPSIp77_4core3cmp9PartialEq2eqBU_, symObjAddr: 0x731C, symBinAddr: 0x3F7F8, symSize: 0x7C }
  - { offset: 0xDD6D7, size: 0x8, addend: 0x0, symName: __RNvXNtNtCsdze8u8oDPro_5alloc3vec10partial_eqINtB4_3VecTNtNtCsATtFUPiRFW_3syn2ty4TypeNtNtBV_5token5CommaEENtNtCs9f3LFPSIp77_4core3cmp9PartialEq2eqBV_, symObjAddr: 0x7398, symBinAddr: 0x3F874, symSize: 0x7C }
  - { offset: 0xDD75A, size: 0x8, addend: 0x0, symName: __RNvXNtNtCsdze8u8oDPro_5alloc3vec10partial_eqINtB4_3VecTNtNtCsATtFUPiRFW_3syn2ty9BareFnArgNtNtBV_5token5CommaEENtNtCs9f3LFPSIp77_4core3cmp9PartialEq2eqBV_, symObjAddr: 0x7414, symBinAddr: 0x3F8F0, symSize: 0x7C }
  - { offset: 0xDD7DD, size: 0x8, addend: 0x0, symName: __RNvXNtNtCsdze8u8oDPro_5alloc3vec10partial_eqINtB4_3VecTNtNtCsATtFUPiRFW_3syn3pat3PatNtNtBV_5token2OrEENtNtCs9f3LFPSIp77_4core3cmp9PartialEq2eqBV_, symObjAddr: 0x7490, symBinAddr: 0x3F96C, symSize: 0x7C }
  - { offset: 0xDD860, size: 0x8, addend: 0x0, symName: __RNvXNtNtCsdze8u8oDPro_5alloc3vec10partial_eqINtB4_3VecTNtNtCsATtFUPiRFW_3syn3pat3PatNtNtBV_5token5CommaEENtNtCs9f3LFPSIp77_4core3cmp9PartialEq2eqBV_, symObjAddr: 0x750C, symBinAddr: 0x3F9E8, symSize: 0x7C }
  - { offset: 0xDD8E3, size: 0x8, addend: 0x0, symName: __RNvXNtNtCsdze8u8oDPro_5alloc3vec10partial_eqINtB4_3VecTNtNtCsATtFUPiRFW_3syn3pat8FieldPatNtNtBV_5token5CommaEENtNtCs9f3LFPSIp77_4core3cmp9PartialEq2eqBV_, symObjAddr: 0x7588, symBinAddr: 0x3FA64, symSize: 0x7C }
  - { offset: 0xDD966, size: 0x8, addend: 0x0, symName: __RNvXNtNtCsdze8u8oDPro_5alloc3vec10partial_eqINtB4_3VecTNtNtCsATtFUPiRFW_3syn4data5FieldNtNtBV_5token5CommaEENtNtCs9f3LFPSIp77_4core3cmp9PartialEq2eqBV_, symObjAddr: 0x7604, symBinAddr: 0x3FAE0, symSize: 0x7C }
  - { offset: 0xDD9E9, size: 0x8, addend: 0x0, symName: __RNvXNtNtCsdze8u8oDPro_5alloc3vec10partial_eqINtB4_3VecTNtNtCsATtFUPiRFW_3syn4data7VariantNtNtBV_5token5CommaEENtNtCs9f3LFPSIp77_4core3cmp9PartialEq2eqBV_, symObjAddr: 0x7680, symBinAddr: 0x3FB5C, symSize: 0x7C }
  - { offset: 0xDDA6C, size: 0x8, addend: 0x0, symName: __RNvXNtNtCsdze8u8oDPro_5alloc3vec10partial_eqINtB4_3VecTNtNtCsATtFUPiRFW_3syn4expr10FieldValueNtNtBV_5token5CommaEENtNtCs9f3LFPSIp77_4core3cmp9PartialEq2eqBV_, symObjAddr: 0x76FC, symBinAddr: 0x3FBD8, symSize: 0x7C }
  - { offset: 0xDDAEF, size: 0x8, addend: 0x0, symName: __RNvXNtNtCsdze8u8oDPro_5alloc3vec10partial_eqINtB4_3VecTNtNtCsATtFUPiRFW_3syn4expr4ExprNtNtBV_5token5CommaEENtNtCs9f3LFPSIp77_4core3cmp9PartialEq2eqBV_, symObjAddr: 0x7778, symBinAddr: 0x3FC54, symSize: 0x7C }
  - { offset: 0xDDB72, size: 0x8, addend: 0x0, symName: __RNvXNtNtCsdze8u8oDPro_5alloc3vec10partial_eqINtB4_3VecTNtNtCsATtFUPiRFW_3syn4item5FnArgNtNtBV_5token5CommaEENtNtCs9f3LFPSIp77_4core3cmp9PartialEq2eqBV_, symObjAddr: 0x77F4, symBinAddr: 0x3FCD0, symSize: 0x7C }
  - { offset: 0xDDBF5, size: 0x8, addend: 0x0, symName: __RNvXNtNtCsdze8u8oDPro_5alloc3vec10partial_eqINtB4_3VecTNtNtCsATtFUPiRFW_3syn4item7UseTreeNtNtBV_5token5CommaEENtNtCs9f3LFPSIp77_4core3cmp9PartialEq2eqBV_, symObjAddr: 0x7870, symBinAddr: 0x3FD4C, symSize: 0x7C }
  - { offset: 0xDDC78, size: 0x8, addend: 0x0, symName: __RNvXNtNtCsdze8u8oDPro_5alloc3vec10partial_eqINtB4_3VecTNtNtCsATtFUPiRFW_3syn4path11PathSegmentNtNtBV_5token7PathSepEENtNtCs9f3LFPSIp77_4core3cmp9PartialEq2eqBV_, symObjAddr: 0x78EC, symBinAddr: 0x3FDC8, symSize: 0x7C }
  - { offset: 0xDDCFB, size: 0x8, addend: 0x0, symName: __RNvXNtNtCsdze8u8oDPro_5alloc3vec10partial_eqINtB4_3VecTNtNtCsATtFUPiRFW_3syn4path15GenericArgumentNtNtBV_5token5CommaEENtNtCs9f3LFPSIp77_4core3cmp9PartialEq2eqBV_, symObjAddr: 0x7968, symBinAddr: 0x3FE44, symSize: 0x7C }
  - { offset: 0xDDD7E, size: 0x8, addend: 0x0, symName: __RNvXNtNtCsdze8u8oDPro_5alloc3vec10partial_eqINtB4_3VecTNtNtCsATtFUPiRFW_3syn8generics12GenericParamNtNtBV_5token5CommaEENtNtCs9f3LFPSIp77_4core3cmp9PartialEq2eqBV_, symObjAddr: 0x79E4, symBinAddr: 0x3FEC0, symSize: 0x7C }
  - { offset: 0xDDE01, size: 0x8, addend: 0x0, symName: __RNvXNtNtCsdze8u8oDPro_5alloc3vec10partial_eqINtB4_3VecTNtNtCsATtFUPiRFW_3syn8generics13CapturedParamNtNtBV_5token5CommaEENtNtCs9f3LFPSIp77_4core3cmp9PartialEq2eqBV_, symObjAddr: 0x7A60, symBinAddr: 0x3FF3C, symSize: 0x7C }
  - { offset: 0xDDE84, size: 0x8, addend: 0x0, symName: __RNvXNtNtCsdze8u8oDPro_5alloc3vec10partial_eqINtB4_3VecTNtNtCsATtFUPiRFW_3syn8generics14TypeParamBoundNtNtBV_5token4PlusEENtNtCs9f3LFPSIp77_4core3cmp9PartialEq2eqBV_, symObjAddr: 0x7ADC, symBinAddr: 0x3FFB8, symSize: 0x7C }
  - { offset: 0xDDF07, size: 0x8, addend: 0x0, symName: __RNvXNtNtCsdze8u8oDPro_5alloc3vec10partial_eqINtB4_3VecTNtNtCsATtFUPiRFW_3syn8generics14WherePredicateNtNtBV_5token5CommaEENtNtCs9f3LFPSIp77_4core3cmp9PartialEq2eqBV_, symObjAddr: 0x7B58, symBinAddr: 0x40034, symSize: 0x7C }
  - { offset: 0xDDF8A, size: 0x8, addend: 0x0, symName: __RNvXNtNtCsdze8u8oDPro_5alloc3vec10partial_eqINtB4_3VecTNtNtCsATtFUPiRFW_3syn8lifetime8LifetimeNtNtBV_5token4PlusEENtNtCs9f3LFPSIp77_4core3cmp9PartialEq2eqBV_, symObjAddr: 0x7BD4, symBinAddr: 0x400B0, symSize: 0x7C }
  - { offset: 0xDE019, size: 0x8, addend: 0x0, symName: __RNvXNtNtCsdze8u8oDPro_5alloc3vec11spec_extendINtB4_3VecNtCs475r2uZUTuc_11proc_macro29TokenTreeEINtB2_10SpecExtendBR_INtNtNtNtCs9f3LFPSIp77_4core4iter8adapters7flatten7FlattenINtNtB1V_3map3MapIB2N_IB2N_INtNtNtB1Z_5slice4iter4IterNtNtCsATtFUPiRFW_3syn5error12ErrorMessageENvMs_B3G_B3E_16to_compile_errorENCINvXs7_BT_NtBT_11TokenStreamINtNtNtB1X_6traits7collect12FromIteratorB52_E9from_iterB38_E0ENCINvXs6_NtBT_3impNtB6t_11TokenStreamIB5l_B6C_E9from_iterB33_Es_0EEE11spec_extendB3I_, symObjAddr: 0x7C50, symBinAddr: 0x4012C, symSize: 0x24 }
  - { offset: 0xDE06B, size: 0x8, addend: 0x0, symName: __RNvXNtNtCsdze8u8oDPro_5alloc3vec11spec_extendINtB4_3VecNtCs475r2uZUTuc_11proc_macro29TokenTreeEINtB2_10SpecExtendBR_NtNtBT_12token_stream8IntoIterE11spec_extendCsATtFUPiRFW_3syn, symObjAddr: 0x7C74, symBinAddr: 0x40150, symSize: 0x24 }
  - { offset: 0xDE0C3, size: 0x8, addend: 0x0, symName: __RNvXs0_NtNtCsdze8u8oDPro_5alloc3vec11spec_extendINtB7_3VecNtNtCsATtFUPiRFW_3syn4attr9AttributeEINtB5_10SpecExtendBU_INtNtB7_9into_iter8IntoIterBU_EE11spec_extendBY_, symObjAddr: 0x81C4, symBinAddr: 0x406A0, symSize: 0x94 }
  - { offset: 0xDE129, size: 0x8, addend: 0x0, symName: __RNvXs0_NtNtCsdze8u8oDPro_5alloc3vec11spec_extendINtB7_3VecNtNtCsATtFUPiRFW_3syn5error12ErrorMessageEINtB5_10SpecExtendBU_INtNtB7_9into_iter8IntoIterBU_EE11spec_extendBY_, symObjAddr: 0x8258, symBinAddr: 0x40734, symSize: 0x94 }
  - { offset: 0xDE195, size: 0x8, addend: 0x0, symName: __RNvXs2_NtNtCsdze8u8oDPro_5alloc3vec11spec_extendINtB7_3VechEINtB5_10SpecExtendRhINtNtNtCs9f3LFPSIp77_4core5slice4iter4IterhEE11spec_extendCsATtFUPiRFW_3syn, symObjAddr: 0x8304, symBinAddr: 0x407E0, symSize: 0xA8 }
  - { offset: 0xDE354, size: 0x8, addend: 0x0, symName: __RNvXs_NtNtCsdze8u8oDPro_5alloc3vec11spec_extendINtB6_3VecNtNtCsATtFUPiRFW_3syn4data5FieldEINtB4_10SpecExtendBT_INtNtCs9f3LFPSIp77_4core6option8IntoIterBT_EE11spec_extendBX_, symObjAddr: 0x99AC, symBinAddr: 0x41E88, symSize: 0x24 }
  - { offset: 0xDE3A6, size: 0x8, addend: 0x0, symName: __RNvXs_NtNtCsdze8u8oDPro_5alloc3vec11spec_extendINtB6_3VecNtNtCsATtFUPiRFW_3syn4data5FieldEINtB4_10SpecExtendBT_INtNtNtNtCs9f3LFPSIp77_4core4iter8adapters3map3MapINtNtB6_9into_iter8IntoIterTBT_NtNtBX_5token5CommaEENCNvXs8_NtBX_10punctuatedINtB3x_10PunctuatedBT_B34_ENtNtNtB1S_6traits7collect12IntoIterator9into_iter0EE11spec_extendBX_, symObjAddr: 0x99D0, symBinAddr: 0x41EAC, symSize: 0x24 }
  - { offset: 0xDE3F8, size: 0x8, addend: 0x0, symName: __RNvXs_NtNtCsdze8u8oDPro_5alloc3vec11spec_extendINtB6_3VecNtNtCsATtFUPiRFW_3syn4data5FieldEINtB4_10SpecExtendBT_INtNtNtNtCs9f3LFPSIp77_4core4iter8adapters3map3MapINtNtB6_9into_iter8IntoIterTBT_uEENCNvXs8_NtBX_10punctuatedINtB3f_10PunctuatedBT_uENtNtNtB1S_6traits7collect12IntoIterator9into_iter0EE11spec_extendBX_, symObjAddr: 0x99F4, symBinAddr: 0x41ED0, symSize: 0x24 }
  - { offset: 0xDE44A, size: 0x8, addend: 0x0, symName: __RNvXs_NtNtCsdze8u8oDPro_5alloc3vec11spec_extendINtB6_3VecNtNtCsATtFUPiRFW_3syn8generics14TypeParamBoundEINtB4_10SpecExtendBT_INtNtCs9f3LFPSIp77_4core6option8IntoIterBT_EE11spec_extendBX_, symObjAddr: 0x9A18, symBinAddr: 0x41EF4, symSize: 0x24 }
  - { offset: 0xDE49C, size: 0x8, addend: 0x0, symName: __RNvXs_NtNtCsdze8u8oDPro_5alloc3vec11spec_extendINtB6_3VecNtNtCsATtFUPiRFW_3syn8generics14TypeParamBoundEINtB4_10SpecExtendBT_INtNtNtNtCs9f3LFPSIp77_4core4iter8adapters3map3MapINtNtB6_9into_iter8IntoIterTBT_NtNtBX_5token4PlusEENCNvXs8_NtBX_10punctuatedINtB3K_10PunctuatedBT_B3i_ENtNtNtB26_6traits7collect12IntoIterator9into_iter0EE11spec_extendBX_, symObjAddr: 0x9A3C, symBinAddr: 0x41F18, symSize: 0x24 }
  - { offset: 0xDE4FA, size: 0x8, addend: 0x0, symName: __RNvXNtNtCsdze8u8oDPro_5alloc3vec14spec_from_iterINtB4_3VecNtCs475r2uZUTuc_11proc_macro29TokenTreeEINtB2_12SpecFromIterBU_NtNtBW_12token_stream8IntoIterE9from_iterCsATtFUPiRFW_3syn, symObjAddr: 0x7C98, symBinAddr: 0x40174, symSize: 0x14 }
  - { offset: 0xDE545, size: 0x8, addend: 0x0, symName: __RNvXNtNtCsdze8u8oDPro_5alloc3vec21spec_from_iter_nestedINtB4_3VecNtCs475r2uZUTuc_11proc_macro29TokenTreeEINtB2_18SpecFromIterNestedB11_NtNtB13_12token_stream8IntoIterE9from_iterCsATtFUPiRFW_3syn, symObjAddr: 0x7CAC, symBinAddr: 0x40188, symSize: 0x254 }
  - { offset: 0xDE88E, size: 0x8, addend: 0x0, symName: __RNvXs6_NtCsdze8u8oDPro_5alloc3vecINtB5_3VecNtNtCsATtFUPiRFW_3syn4attr9AttributeENtNtNtCs9f3LFPSIp77_4core3ops5deref5Deref5derefBJ_, symObjAddr: 0x83AC, symBinAddr: 0x40888, symSize: 0x24 }
  - { offset: 0xDE8CE, size: 0x8, addend: 0x0, symName: __RNvXs6_NtCsdze8u8oDPro_5alloc3vecINtB5_3VecNtNtCsATtFUPiRFW_3syn4expr3ArmENtNtNtCs9f3LFPSIp77_4core3ops5deref5Deref5derefBJ_, symObjAddr: 0x83D0, symBinAddr: 0x408AC, symSize: 0x24 }
  - { offset: 0xDE90E, size: 0x8, addend: 0x0, symName: __RNvXs6_NtCsdze8u8oDPro_5alloc3vecINtB5_3VecNtNtCsATtFUPiRFW_3syn5error12ErrorMessageENtNtNtCs9f3LFPSIp77_4core3ops5deref5Deref5derefBJ_, symObjAddr: 0x83F4, symBinAddr: 0x408D0, symSize: 0x24 }
  - { offset: 0xDE94E, size: 0x8, addend: 0x0, symName: __RNvXs6_NtCsdze8u8oDPro_5alloc3vecINtB5_3VecReENtNtNtCs9f3LFPSIp77_4core3ops5deref5Deref5derefCsATtFUPiRFW_3syn, symObjAddr: 0x8418, symBinAddr: 0x408F4, symSize: 0x24 }
  - { offset: 0xDE98E, size: 0x8, addend: 0x0, symName: __RNvXs6_NtCsdze8u8oDPro_5alloc3vecINtB5_3VecTNtNtCsATtFUPiRFW_3syn2ty4TypeNtNtBK_5token5CommaEENtNtNtCs9f3LFPSIp77_4core3ops5deref5Deref5derefBK_, symObjAddr: 0x843C, symBinAddr: 0x40918, symSize: 0x24 }
  - { offset: 0xDE9CE, size: 0x8, addend: 0x0, symName: __RNvXs6_NtCsdze8u8oDPro_5alloc3vecINtB5_3VecTNtNtCsATtFUPiRFW_3syn2ty9BareFnArgNtNtBK_5token5CommaEENtNtNtCs9f3LFPSIp77_4core3ops5deref5Deref5derefBK_, symObjAddr: 0x8460, symBinAddr: 0x4093C, symSize: 0x24 }
  - { offset: 0xDEA0E, size: 0x8, addend: 0x0, symName: __RNvXs6_NtCsdze8u8oDPro_5alloc3vecINtB5_3VecTNtNtCsATtFUPiRFW_3syn3pat3PatNtNtBK_5token2OrEENtNtNtCs9f3LFPSIp77_4core3ops5deref5Deref5derefBK_, symObjAddr: 0x8484, symBinAddr: 0x40960, symSize: 0x24 }
  - { offset: 0xDEA4E, size: 0x8, addend: 0x0, symName: __RNvXs6_NtCsdze8u8oDPro_5alloc3vecINtB5_3VecTNtNtCsATtFUPiRFW_3syn3pat3PatNtNtBK_5token5CommaEENtNtNtCs9f3LFPSIp77_4core3ops5deref5Deref5derefBK_, symObjAddr: 0x84A8, symBinAddr: 0x40984, symSize: 0x24 }
  - { offset: 0xDEA8E, size: 0x8, addend: 0x0, symName: __RNvXs6_NtCsdze8u8oDPro_5alloc3vecINtB5_3VecTNtNtCsATtFUPiRFW_3syn3pat8FieldPatNtNtBK_5token5CommaEENtNtNtCs9f3LFPSIp77_4core3ops5deref5Deref5derefBK_, symObjAddr: 0x84CC, symBinAddr: 0x409A8, symSize: 0x24 }
  - { offset: 0xDEACE, size: 0x8, addend: 0x0, symName: __RNvXs6_NtCsdze8u8oDPro_5alloc3vecINtB5_3VecTNtNtCsATtFUPiRFW_3syn4data5FieldNtNtBK_5token5CommaEENtNtNtCs9f3LFPSIp77_4core3ops5deref5Deref5derefBK_, symObjAddr: 0x84F0, symBinAddr: 0x409CC, symSize: 0x24 }
  - { offset: 0xDEB0E, size: 0x8, addend: 0x0, symName: __RNvXs6_NtCsdze8u8oDPro_5alloc3vecINtB5_3VecTNtNtCsATtFUPiRFW_3syn4data7VariantNtNtBK_5token5CommaEENtNtNtCs9f3LFPSIp77_4core3ops5deref5Deref5derefBK_, symObjAddr: 0x8514, symBinAddr: 0x409F0, symSize: 0x24 }
  - { offset: 0xDEB4E, size: 0x8, addend: 0x0, symName: __RNvXs6_NtCsdze8u8oDPro_5alloc3vecINtB5_3VecTNtNtCsATtFUPiRFW_3syn4expr10FieldValueNtNtBK_5token5CommaEENtNtNtCs9f3LFPSIp77_4core3ops5deref5Deref5derefBK_, symObjAddr: 0x8538, symBinAddr: 0x40A14, symSize: 0x24 }
  - { offset: 0xDEB8E, size: 0x8, addend: 0x0, symName: __RNvXs6_NtCsdze8u8oDPro_5alloc3vecINtB5_3VecTNtNtCsATtFUPiRFW_3syn4expr4ExprNtNtBK_5token5CommaEENtNtNtCs9f3LFPSIp77_4core3ops5deref5Deref5derefBK_, symObjAddr: 0x855C, symBinAddr: 0x40A38, symSize: 0x24 }
  - { offset: 0xDEBCE, size: 0x8, addend: 0x0, symName: __RNvXs6_NtCsdze8u8oDPro_5alloc3vecINtB5_3VecTNtNtCsATtFUPiRFW_3syn4item5FnArgNtNtBK_5token5CommaEENtNtNtCs9f3LFPSIp77_4core3ops5deref5Deref5derefBK_, symObjAddr: 0x8580, symBinAddr: 0x40A5C, symSize: 0x24 }
  - { offset: 0xDEC0E, size: 0x8, addend: 0x0, symName: __RNvXs6_NtCsdze8u8oDPro_5alloc3vecINtB5_3VecTNtNtCsATtFUPiRFW_3syn4item7UseTreeNtNtBK_5token5CommaEENtNtNtCs9f3LFPSIp77_4core3ops5deref5Deref5derefBK_, symObjAddr: 0x85A4, symBinAddr: 0x40A80, symSize: 0x24 }
  - { offset: 0xDEC4E, size: 0x8, addend: 0x0, symName: __RNvXs6_NtCsdze8u8oDPro_5alloc3vecINtB5_3VecTNtNtCsATtFUPiRFW_3syn4path11PathSegmentNtNtBK_5token7PathSepEENtNtNtCs9f3LFPSIp77_4core3ops5deref5Deref5derefBK_, symObjAddr: 0x85C8, symBinAddr: 0x40AA4, symSize: 0x24 }
  - { offset: 0xDEC8E, size: 0x8, addend: 0x0, symName: __RNvXs6_NtCsdze8u8oDPro_5alloc3vecINtB5_3VecTNtNtCsATtFUPiRFW_3syn4path15GenericArgumentNtNtBK_5token5CommaEENtNtNtCs9f3LFPSIp77_4core3ops5deref5Deref5derefBK_, symObjAddr: 0x85EC, symBinAddr: 0x40AC8, symSize: 0x24 }
  - { offset: 0xDECCE, size: 0x8, addend: 0x0, symName: __RNvXs6_NtCsdze8u8oDPro_5alloc3vecINtB5_3VecTNtNtCsATtFUPiRFW_3syn8generics12GenericParamNtNtBK_5token5CommaEENtNtNtCs9f3LFPSIp77_4core3ops5deref5Deref5derefBK_, symObjAddr: 0x8610, symBinAddr: 0x40AEC, symSize: 0x24 }
  - { offset: 0xDED0E, size: 0x8, addend: 0x0, symName: __RNvXs6_NtCsdze8u8oDPro_5alloc3vecINtB5_3VecTNtNtCsATtFUPiRFW_3syn8generics13CapturedParamNtNtBK_5token5CommaEENtNtNtCs9f3LFPSIp77_4core3ops5deref5Deref5derefBK_, symObjAddr: 0x8634, symBinAddr: 0x40B10, symSize: 0x24 }
  - { offset: 0xDED4E, size: 0x8, addend: 0x0, symName: __RNvXs6_NtCsdze8u8oDPro_5alloc3vecINtB5_3VecTNtNtCsATtFUPiRFW_3syn8generics14TypeParamBoundNtNtBK_5token4PlusEENtNtNtCs9f3LFPSIp77_4core3ops5deref5Deref5derefBK_, symObjAddr: 0x8658, symBinAddr: 0x40B34, symSize: 0x24 }
  - { offset: 0xDED8E, size: 0x8, addend: 0x0, symName: __RNvXs6_NtCsdze8u8oDPro_5alloc3vecINtB5_3VecTNtNtCsATtFUPiRFW_3syn8generics14WherePredicateNtNtBK_5token5CommaEENtNtNtCs9f3LFPSIp77_4core3ops5deref5Deref5derefBK_, symObjAddr: 0x867C, symBinAddr: 0x40B58, symSize: 0x24 }
  - { offset: 0xDEDCE, size: 0x8, addend: 0x0, symName: __RNvXs6_NtCsdze8u8oDPro_5alloc3vecINtB5_3VecTNtNtCsATtFUPiRFW_3syn8lifetime8LifetimeNtNtBK_5token4PlusEENtNtNtCs9f3LFPSIp77_4core3ops5deref5Deref5derefBK_, symObjAddr: 0x86A0, symBinAddr: 0x40B7C, symSize: 0x24 }
  - { offset: 0xDEE0E, size: 0x8, addend: 0x0, symName: __RNvXs6_NtCsdze8u8oDPro_5alloc3vecINtB5_3VechENtNtNtCs9f3LFPSIp77_4core3ops5deref5Deref5derefCsATtFUPiRFW_3syn, symObjAddr: 0x86C4, symBinAddr: 0x40BA0, symSize: 0x24 }
  - { offset: 0xDFF34, size: 0x8, addend: 0x0, symName: __RNvXs7_NtCsdze8u8oDPro_5alloc3vecINtB5_3VecTNtNtCsATtFUPiRFW_3syn4data5FieldNtNtBK_5token5CommaEENtNtNtCs9f3LFPSIp77_4core3ops5deref8DerefMut9deref_mutBK_, symObjAddr: 0x86E8, symBinAddr: 0x40BC4, symSize: 0x24 }
  - { offset: 0xDFF74, size: 0x8, addend: 0x0, symName: __RNvXs7_NtCsdze8u8oDPro_5alloc3vecINtB5_3VecTNtNtCsATtFUPiRFW_3syn4path11PathSegmentNtNtBK_5token7PathSepEENtNtNtCs9f3LFPSIp77_4core3ops5deref8DerefMut9deref_mutBK_, symObjAddr: 0x870C, symBinAddr: 0x40BE8, symSize: 0x24 }
  - { offset: 0xDFFB4, size: 0x8, addend: 0x0, symName: __RNvXs7_NtCsdze8u8oDPro_5alloc3vecINtB5_3VecTNtNtCsATtFUPiRFW_3syn8generics12GenericParamNtNtBK_5token5CommaEENtNtNtCs9f3LFPSIp77_4core3ops5deref8DerefMut9deref_mutBK_, symObjAddr: 0x8730, symBinAddr: 0x40C0C, symSize: 0x24 }
  - { offset: 0xE008A, size: 0x8, addend: 0x0, symName: __RNvXs9_NtCsdze8u8oDPro_5alloc3vecINtB5_3VecNtNtCsATtFUPiRFW_3syn4attr9AttributeENtNtCs9f3LFPSIp77_4core5clone5Clone5cloneBJ_, symObjAddr: 0x8754, symBinAddr: 0x40C30, symSize: 0xB0 }
  - { offset: 0xE02EE, size: 0x8, addend: 0x0, symName: __RNvXs9_NtCsdze8u8oDPro_5alloc3vecINtB5_3VecNtNtCsATtFUPiRFW_3syn4expr3ArmENtNtCs9f3LFPSIp77_4core5clone5Clone5cloneBJ_, symObjAddr: 0x8804, symBinAddr: 0x40CE0, symSize: 0xB0 }
  - { offset: 0xE0552, size: 0x8, addend: 0x0, symName: __RNvXs9_NtCsdze8u8oDPro_5alloc3vecINtB5_3VecNtNtCsATtFUPiRFW_3syn4item11ForeignItemENtNtCs9f3LFPSIp77_4core5clone5Clone5cloneBJ_, symObjAddr: 0x88B4, symBinAddr: 0x40D90, symSize: 0xB0 }
  - { offset: 0xE07B6, size: 0x8, addend: 0x0, symName: __RNvXs9_NtCsdze8u8oDPro_5alloc3vecINtB5_3VecNtNtCsATtFUPiRFW_3syn4item4ItemENtNtCs9f3LFPSIp77_4core5clone5Clone5cloneBJ_, symObjAddr: 0x8964, symBinAddr: 0x40E40, symSize: 0xB0 }
  - { offset: 0xE0A1A, size: 0x8, addend: 0x0, symName: __RNvXs9_NtCsdze8u8oDPro_5alloc3vecINtB5_3VecNtNtCsATtFUPiRFW_3syn4item8ImplItemENtNtCs9f3LFPSIp77_4core5clone5Clone5cloneBJ_, symObjAddr: 0x8A14, symBinAddr: 0x40EF0, symSize: 0xB0 }
  - { offset: 0xE0C7E, size: 0x8, addend: 0x0, symName: __RNvXs9_NtCsdze8u8oDPro_5alloc3vecINtB5_3VecNtNtCsATtFUPiRFW_3syn4item9TraitItemENtNtCs9f3LFPSIp77_4core5clone5Clone5cloneBJ_, symObjAddr: 0x8AC4, symBinAddr: 0x40FA0, symSize: 0xB0 }
  - { offset: 0xE0EE2, size: 0x8, addend: 0x0, symName: __RNvXs9_NtCsdze8u8oDPro_5alloc3vecINtB5_3VecNtNtCsATtFUPiRFW_3syn4stmt4StmtENtNtCs9f3LFPSIp77_4core5clone5Clone5cloneBJ_, symObjAddr: 0x8B74, symBinAddr: 0x41050, symSize: 0xB0 }
  - { offset: 0xE1146, size: 0x8, addend: 0x0, symName: __RNvXs9_NtCsdze8u8oDPro_5alloc3vecINtB5_3VecNtNtCsATtFUPiRFW_3syn5error12ErrorMessageENtNtCs9f3LFPSIp77_4core5clone5Clone5cloneBJ_, symObjAddr: 0x8C24, symBinAddr: 0x41100, symSize: 0xB0 }
  - { offset: 0xE13AA, size: 0x8, addend: 0x0, symName: __RNvXs9_NtCsdze8u8oDPro_5alloc3vecINtB5_3VecTNtNtCsATtFUPiRFW_3syn2ty4TypeNtNtBK_5token5CommaEENtNtCs9f3LFPSIp77_4core5clone5Clone5cloneBK_, symObjAddr: 0x8CD4, symBinAddr: 0x411B0, symSize: 0xB0 }
  - { offset: 0xE160E, size: 0x8, addend: 0x0, symName: __RNvXs9_NtCsdze8u8oDPro_5alloc3vecINtB5_3VecTNtNtCsATtFUPiRFW_3syn2ty9BareFnArgNtNtBK_5token5CommaEENtNtCs9f3LFPSIp77_4core5clone5Clone5cloneBK_, symObjAddr: 0x8D84, symBinAddr: 0x41260, symSize: 0xB0 }
  - { offset: 0xE1872, size: 0x8, addend: 0x0, symName: __RNvXs9_NtCsdze8u8oDPro_5alloc3vecINtB5_3VecTNtNtCsATtFUPiRFW_3syn3pat3PatNtNtBK_5token2OrEENtNtCs9f3LFPSIp77_4core5clone5Clone5cloneBK_, symObjAddr: 0x8E34, symBinAddr: 0x41310, symSize: 0xB0 }
  - { offset: 0xE1AD6, size: 0x8, addend: 0x0, symName: __RNvXs9_NtCsdze8u8oDPro_5alloc3vecINtB5_3VecTNtNtCsATtFUPiRFW_3syn3pat3PatNtNtBK_5token5CommaEENtNtCs9f3LFPSIp77_4core5clone5Clone5cloneBK_, symObjAddr: 0x8EE4, symBinAddr: 0x413C0, symSize: 0xB0 }
  - { offset: 0xE1D3A, size: 0x8, addend: 0x0, symName: __RNvXs9_NtCsdze8u8oDPro_5alloc3vecINtB5_3VecTNtNtCsATtFUPiRFW_3syn3pat8FieldPatNtNtBK_5token5CommaEENtNtCs9f3LFPSIp77_4core5clone5Clone5cloneBK_, symObjAddr: 0x8F94, symBinAddr: 0x41470, symSize: 0xB0 }
  - { offset: 0xE1F9E, size: 0x8, addend: 0x0, symName: __RNvXs9_NtCsdze8u8oDPro_5alloc3vecINtB5_3VecTNtNtCsATtFUPiRFW_3syn4data5FieldNtNtBK_5token5CommaEENtNtCs9f3LFPSIp77_4core5clone5Clone5cloneBK_, symObjAddr: 0x9044, symBinAddr: 0x41520, symSize: 0xB0 }
  - { offset: 0xE2202, size: 0x8, addend: 0x0, symName: __RNvXs9_NtCsdze8u8oDPro_5alloc3vecINtB5_3VecTNtNtCsATtFUPiRFW_3syn4data7VariantNtNtBK_5token5CommaEENtNtCs9f3LFPSIp77_4core5clone5Clone5cloneBK_, symObjAddr: 0x90F4, symBinAddr: 0x415D0, symSize: 0xB0 }
  - { offset: 0xE2466, size: 0x8, addend: 0x0, symName: __RNvXs9_NtCsdze8u8oDPro_5alloc3vecINtB5_3VecTNtNtCsATtFUPiRFW_3syn4expr10FieldValueNtNtBK_5token5CommaEENtNtCs9f3LFPSIp77_4core5clone5Clone5cloneBK_, symObjAddr: 0x91A4, symBinAddr: 0x41680, symSize: 0xB0 }
  - { offset: 0xE26CA, size: 0x8, addend: 0x0, symName: __RNvXs9_NtCsdze8u8oDPro_5alloc3vecINtB5_3VecTNtNtCsATtFUPiRFW_3syn4expr4ExprNtNtBK_5token5CommaEENtNtCs9f3LFPSIp77_4core5clone5Clone5cloneBK_, symObjAddr: 0x9254, symBinAddr: 0x41730, symSize: 0xB0 }
  - { offset: 0xE292E, size: 0x8, addend: 0x0, symName: __RNvXs9_NtCsdze8u8oDPro_5alloc3vecINtB5_3VecTNtNtCsATtFUPiRFW_3syn4item5FnArgNtNtBK_5token5CommaEENtNtCs9f3LFPSIp77_4core5clone5Clone5cloneBK_, symObjAddr: 0x9304, symBinAddr: 0x417E0, symSize: 0xB0 }
  - { offset: 0xE2B92, size: 0x8, addend: 0x0, symName: __RNvXs9_NtCsdze8u8oDPro_5alloc3vecINtB5_3VecTNtNtCsATtFUPiRFW_3syn4item7UseTreeNtNtBK_5token5CommaEENtNtCs9f3LFPSIp77_4core5clone5Clone5cloneBK_, symObjAddr: 0x93B4, symBinAddr: 0x41890, symSize: 0xB0 }
  - { offset: 0xE2DF6, size: 0x8, addend: 0x0, symName: __RNvXs9_NtCsdze8u8oDPro_5alloc3vecINtB5_3VecTNtNtCsATtFUPiRFW_3syn4path11PathSegmentNtNtBK_5token7PathSepEENtNtCs9f3LFPSIp77_4core5clone5Clone5cloneBK_, symObjAddr: 0x9464, symBinAddr: 0x41940, symSize: 0xB0 }
  - { offset: 0xE305A, size: 0x8, addend: 0x0, symName: __RNvXs9_NtCsdze8u8oDPro_5alloc3vecINtB5_3VecTNtNtCsATtFUPiRFW_3syn4path15GenericArgumentNtNtBK_5token5CommaEENtNtCs9f3LFPSIp77_4core5clone5Clone5cloneBK_, symObjAddr: 0x9514, symBinAddr: 0x419F0, symSize: 0xB0 }
  - { offset: 0xE32BE, size: 0x8, addend: 0x0, symName: __RNvXs9_NtCsdze8u8oDPro_5alloc3vecINtB5_3VecTNtNtCsATtFUPiRFW_3syn8generics12GenericParamNtNtBK_5token5CommaEENtNtCs9f3LFPSIp77_4core5clone5Clone5cloneBK_, symObjAddr: 0x95C4, symBinAddr: 0x41AA0, symSize: 0xB0 }
  - { offset: 0xE3522, size: 0x8, addend: 0x0, symName: __RNvXs9_NtCsdze8u8oDPro_5alloc3vecINtB5_3VecTNtNtCsATtFUPiRFW_3syn8generics13CapturedParamNtNtBK_5token5CommaEENtNtCs9f3LFPSIp77_4core5clone5Clone5cloneBK_, symObjAddr: 0x9674, symBinAddr: 0x41B50, symSize: 0xB0 }
  - { offset: 0xE3786, size: 0x8, addend: 0x0, symName: __RNvXs9_NtCsdze8u8oDPro_5alloc3vecINtB5_3VecTNtNtCsATtFUPiRFW_3syn8generics14TypeParamBoundNtNtBK_5token4PlusEENtNtCs9f3LFPSIp77_4core5clone5Clone5cloneBK_, symObjAddr: 0x9724, symBinAddr: 0x41C00, symSize: 0xB0 }
  - { offset: 0xE39EA, size: 0x8, addend: 0x0, symName: __RNvXs9_NtCsdze8u8oDPro_5alloc3vecINtB5_3VecTNtNtCsATtFUPiRFW_3syn8generics14WherePredicateNtNtBK_5token5CommaEENtNtCs9f3LFPSIp77_4core5clone5Clone5cloneBK_, symObjAddr: 0x97D4, symBinAddr: 0x41CB0, symSize: 0xB0 }
  - { offset: 0xE3C4E, size: 0x8, addend: 0x0, symName: __RNvXs9_NtCsdze8u8oDPro_5alloc3vecINtB5_3VecTNtNtCsATtFUPiRFW_3syn8lifetime8LifetimeNtNtBK_5token4PlusEENtNtCs9f3LFPSIp77_4core5clone5Clone5cloneBK_, symObjAddr: 0x9884, symBinAddr: 0x41D60, symSize: 0xB0 }
  - { offset: 0xE3EB8, size: 0x8, addend: 0x0, symName: __RNvXsb_NtCsdze8u8oDPro_5alloc3vecINtB5_3VecNtNtCsATtFUPiRFW_3syn4attr9AttributeEINtNtNtCs9f3LFPSIp77_4core3ops5index5IndexNtNtB1l_5range9RangeFullE5indexBJ_, symObjAddr: 0x9A60, symBinAddr: 0x41F3C, symSize: 0x90 }
  - { offset: 0xE4096, size: 0x8, addend: 0x0, symName: __RNvXsb_NtCsdze8u8oDPro_5alloc3vecINtB5_3VecNtNtCsATtFUPiRFW_3syn4expr3ArmEINtNtNtCs9f3LFPSIp77_4core3ops5index5IndexNtNtB1f_5range9RangeFullE5indexBJ_, symObjAddr: 0x9AF0, symBinAddr: 0x41FCC, symSize: 0x90 }
  - { offset: 0xE4274, size: 0x8, addend: 0x0, symName: __RNvXsb_NtCsdze8u8oDPro_5alloc3vecINtB5_3VecNtNtCsATtFUPiRFW_3syn4item11ForeignItemEINtNtNtCs9f3LFPSIp77_4core3ops5index5IndexNtNtB1o_5range9RangeFullE5indexBJ_, symObjAddr: 0x9B80, symBinAddr: 0x4205C, symSize: 0x90 }
  - { offset: 0xE4452, size: 0x8, addend: 0x0, symName: __RNvXsb_NtCsdze8u8oDPro_5alloc3vecINtB5_3VecNtNtCsATtFUPiRFW_3syn4item4ItemEINtNtNtCs9f3LFPSIp77_4core3ops5index5IndexNtNtB1g_5range9RangeFullE5indexBJ_, symObjAddr: 0x9C10, symBinAddr: 0x420EC, symSize: 0x90 }
  - { offset: 0xE4630, size: 0x8, addend: 0x0, symName: __RNvXsb_NtCsdze8u8oDPro_5alloc3vecINtB5_3VecNtNtCsATtFUPiRFW_3syn4item8ImplItemEINtNtNtCs9f3LFPSIp77_4core3ops5index5IndexNtNtB1k_5range9RangeFullE5indexBJ_, symObjAddr: 0x9CA0, symBinAddr: 0x4217C, symSize: 0x90 }
  - { offset: 0xE480E, size: 0x8, addend: 0x0, symName: __RNvXsb_NtCsdze8u8oDPro_5alloc3vecINtB5_3VecNtNtCsATtFUPiRFW_3syn4item9TraitItemEINtNtNtCs9f3LFPSIp77_4core3ops5index5IndexNtNtB1l_5range9RangeFullE5indexBJ_, symObjAddr: 0x9D30, symBinAddr: 0x4220C, symSize: 0x90 }
  - { offset: 0xE49EC, size: 0x8, addend: 0x0, symName: __RNvXsb_NtCsdze8u8oDPro_5alloc3vecINtB5_3VecNtNtCsATtFUPiRFW_3syn4stmt4StmtEINtNtNtCs9f3LFPSIp77_4core3ops5index5IndexNtNtB1g_5range9RangeFullE5indexBJ_, symObjAddr: 0x9DC0, symBinAddr: 0x4229C, symSize: 0x90 }
  - { offset: 0xE4BCA, size: 0x8, addend: 0x0, symName: __RNvXsb_NtCsdze8u8oDPro_5alloc3vecINtB5_3VecNtNtCsATtFUPiRFW_3syn5error12ErrorMessageEINtNtNtCs9f3LFPSIp77_4core3ops5index5IndexjE5indexBJ_, symObjAddr: 0x9E50, symBinAddr: 0x4232C, symSize: 0x9C }
  - { offset: 0xE4DA8, size: 0x8, addend: 0x0, symName: __RNvXsb_NtCsdze8u8oDPro_5alloc3vecINtB5_3VecReEINtNtNtCs9f3LFPSIp77_4core3ops5index5IndexjE5indexCsATtFUPiRFW_3syn, symObjAddr: 0x9EEC, symBinAddr: 0x423C8, symSize: 0x9C }
  - { offset: 0xE4F86, size: 0x8, addend: 0x0, symName: __RNvXsb_NtCsdze8u8oDPro_5alloc3vecINtB5_3VecTNtNtCsATtFUPiRFW_3syn2ty4TypeNtNtBK_5token5CommaEEINtNtNtCs9f3LFPSIp77_4core3ops5index5IndexNtNtB1z_5range9RangeFullE5indexBK_, symObjAddr: 0x9F88, symBinAddr: 0x42464, symSize: 0x90 }
  - { offset: 0xE5164, size: 0x8, addend: 0x0, symName: __RNvXsb_NtCsdze8u8oDPro_5alloc3vecINtB5_3VecTNtNtCsATtFUPiRFW_3syn2ty9BareFnArgNtNtBK_5token5CommaEEINtNtNtCs9f3LFPSIp77_4core3ops5index5IndexNtNtB1E_5range9RangeFullE5indexBK_, symObjAddr: 0xA018, symBinAddr: 0x424F4, symSize: 0x90 }
  - { offset: 0xE5342, size: 0x8, addend: 0x0, symName: __RNvXsb_NtCsdze8u8oDPro_5alloc3vecINtB5_3VecTNtNtCsATtFUPiRFW_3syn3pat3PatNtNtBK_5token2OrEEINtNtNtCs9f3LFPSIp77_4core3ops5index5IndexNtNtB1w_5range9RangeFullE5indexBK_, symObjAddr: 0xA0A8, symBinAddr: 0x42584, symSize: 0x90 }
  - { offset: 0xE5520, size: 0x8, addend: 0x0, symName: __RNvXsb_NtCsdze8u8oDPro_5alloc3vecINtB5_3VecTNtNtCsATtFUPiRFW_3syn3pat3PatNtNtBK_5token5CommaEEINtNtNtCs9f3LFPSIp77_4core3ops5index5IndexNtNtB1z_5range9RangeFullE5indexBK_, symObjAddr: 0xA138, symBinAddr: 0x42614, symSize: 0x90 }
  - { offset: 0xE56FE, size: 0x8, addend: 0x0, symName: __RNvXsb_NtCsdze8u8oDPro_5alloc3vecINtB5_3VecTNtNtCsATtFUPiRFW_3syn3pat3PatNtNtBK_5token5CommaEEINtNtNtCs9f3LFPSIp77_4core3ops5index5IndexjE5indexBK_, symObjAddr: 0xA1C8, symBinAddr: 0x426A4, symSize: 0x9C }
  - { offset: 0xE58DC, size: 0x8, addend: 0x0, symName: __RNvXsb_NtCsdze8u8oDPro_5alloc3vecINtB5_3VecTNtNtCsATtFUPiRFW_3syn3pat8FieldPatNtNtBK_5token5CommaEEINtNtNtCs9f3LFPSIp77_4core3ops5index5IndexNtNtB1E_5range9RangeFullE5indexBK_, symObjAddr: 0xA264, symBinAddr: 0x42740, symSize: 0x90 }
  - { offset: 0xE5ABA, size: 0x8, addend: 0x0, symName: __RNvXsb_NtCsdze8u8oDPro_5alloc3vecINtB5_3VecTNtNtCsATtFUPiRFW_3syn4data5FieldNtNtBK_5token5CommaEEINtNtNtCs9f3LFPSIp77_4core3ops5index5IndexNtNtB1C_5range9RangeFullE5indexBK_, symObjAddr: 0xA2F4, symBinAddr: 0x427D0, symSize: 0x90 }
  - { offset: 0xE5C98, size: 0x8, addend: 0x0, symName: __RNvXsb_NtCsdze8u8oDPro_5alloc3vecINtB5_3VecTNtNtCsATtFUPiRFW_3syn4data7VariantNtNtBK_5token5CommaEEINtNtNtCs9f3LFPSIp77_4core3ops5index5IndexNtNtB1E_5range9RangeFullE5indexBK_, symObjAddr: 0xA384, symBinAddr: 0x42860, symSize: 0x90 }
  - { offset: 0xE5E76, size: 0x8, addend: 0x0, symName: __RNvXsb_NtCsdze8u8oDPro_5alloc3vecINtB5_3VecTNtNtCsATtFUPiRFW_3syn4expr10FieldValueNtNtBK_5token5CommaEEINtNtNtCs9f3LFPSIp77_4core3ops5index5IndexNtNtB1I_5range9RangeFullE5indexBK_, symObjAddr: 0xA414, symBinAddr: 0x428F0, symSize: 0x90 }
  - { offset: 0xE6054, size: 0x8, addend: 0x0, symName: __RNvXsb_NtCsdze8u8oDPro_5alloc3vecINtB5_3VecTNtNtCsATtFUPiRFW_3syn4expr4ExprNtNtBK_5token5CommaEEINtNtNtCs9f3LFPSIp77_4core3ops5index5IndexNtNtB1B_5range9RangeFullE5indexBK_, symObjAddr: 0xA4A4, symBinAddr: 0x42980, symSize: 0x90 }
  - { offset: 0xE6232, size: 0x8, addend: 0x0, symName: __RNvXsb_NtCsdze8u8oDPro_5alloc3vecINtB5_3VecTNtNtCsATtFUPiRFW_3syn4item5FnArgNtNtBK_5token5CommaEEINtNtNtCs9f3LFPSIp77_4core3ops5index5IndexNtNtB1C_5range9RangeFullE5indexBK_, symObjAddr: 0xA534, symBinAddr: 0x42A10, symSize: 0x90 }
  - { offset: 0xE6410, size: 0x8, addend: 0x0, symName: __RNvXsb_NtCsdze8u8oDPro_5alloc3vecINtB5_3VecTNtNtCsATtFUPiRFW_3syn4item7UseTreeNtNtBK_5token5CommaEEINtNtNtCs9f3LFPSIp77_4core3ops5index5IndexNtNtB1E_5range9RangeFullE5indexBK_, symObjAddr: 0xA5C4, symBinAddr: 0x42AA0, symSize: 0x90 }
  - { offset: 0xE65EE, size: 0x8, addend: 0x0, symName: __RNvXsb_NtCsdze8u8oDPro_5alloc3vecINtB5_3VecTNtNtCsATtFUPiRFW_3syn4path11PathSegmentNtNtBK_5token7PathSepEEINtNtNtCs9f3LFPSIp77_4core3ops5index5IndexNtNtB1L_5range9RangeFullE5indexBK_, symObjAddr: 0xA654, symBinAddr: 0x42B30, symSize: 0x90 }
  - { offset: 0xE67CC, size: 0x8, addend: 0x0, symName: __RNvXsb_NtCsdze8u8oDPro_5alloc3vecINtB5_3VecTNtNtCsATtFUPiRFW_3syn4path11PathSegmentNtNtBK_5token7PathSepEEINtNtNtCs9f3LFPSIp77_4core3ops5index5IndexjE5indexBK_, symObjAddr: 0xA6E4, symBinAddr: 0x42BC0, symSize: 0x9C }
  - { offset: 0xE69AA, size: 0x8, addend: 0x0, symName: __RNvXsb_NtCsdze8u8oDPro_5alloc3vecINtB5_3VecTNtNtCsATtFUPiRFW_3syn4path15GenericArgumentNtNtBK_5token5CommaEEINtNtNtCs9f3LFPSIp77_4core3ops5index5IndexNtNtB1N_5range9RangeFullE5indexBK_, symObjAddr: 0xA780, symBinAddr: 0x42C5C, symSize: 0x90 }
  - { offset: 0xE6B88, size: 0x8, addend: 0x0, symName: __RNvXsb_NtCsdze8u8oDPro_5alloc3vecINtB5_3VecTNtNtCsATtFUPiRFW_3syn8generics12GenericParamNtNtBK_5token5CommaEEINtNtNtCs9f3LFPSIp77_4core3ops5index5IndexNtNtB1O_5range9RangeFullE5indexBK_, symObjAddr: 0xA810, symBinAddr: 0x42CEC, symSize: 0x90 }
  - { offset: 0xE6D66, size: 0x8, addend: 0x0, symName: __RNvXsb_NtCsdze8u8oDPro_5alloc3vecINtB5_3VecTNtNtCsATtFUPiRFW_3syn8generics13CapturedParamNtNtBK_5token5CommaEEINtNtNtCs9f3LFPSIp77_4core3ops5index5IndexNtNtB1P_5range9RangeFullE5indexBK_, symObjAddr: 0xA8A0, symBinAddr: 0x42D7C, symSize: 0x90 }
  - { offset: 0xE6F44, size: 0x8, addend: 0x0, symName: __RNvXsb_NtCsdze8u8oDPro_5alloc3vecINtB5_3VecTNtNtCsATtFUPiRFW_3syn8generics14TypeParamBoundNtNtBK_5token4PlusEEINtNtNtCs9f3LFPSIp77_4core3ops5index5IndexNtNtB1P_5range9RangeFullE5indexBK_, symObjAddr: 0xA930, symBinAddr: 0x42E0C, symSize: 0x90 }
  - { offset: 0xE7122, size: 0x8, addend: 0x0, symName: __RNvXsb_NtCsdze8u8oDPro_5alloc3vecINtB5_3VecTNtNtCsATtFUPiRFW_3syn8generics14WherePredicateNtNtBK_5token5CommaEEINtNtNtCs9f3LFPSIp77_4core3ops5index5IndexNtNtB1Q_5range9RangeFullE5indexBK_, symObjAddr: 0xA9C0, symBinAddr: 0x42E9C, symSize: 0x90 }
  - { offset: 0xE7300, size: 0x8, addend: 0x0, symName: __RNvXsb_NtCsdze8u8oDPro_5alloc3vecINtB5_3VecTNtNtCsATtFUPiRFW_3syn8lifetime8LifetimeNtNtBK_5token4PlusEEINtNtNtCs9f3LFPSIp77_4core3ops5index5IndexNtNtB1I_5range9RangeFullE5indexBK_, symObjAddr: 0xAA50, symBinAddr: 0x42F2C, symSize: 0x90 }
  - { offset: 0xE74DE, size: 0x8, addend: 0x0, symName: __RNvXsb_NtCsdze8u8oDPro_5alloc3vecINtB5_3VechEINtNtNtCs9f3LFPSIp77_4core3ops5index5IndexINtNtBM_5range9RangeFromjEE5indexCsATtFUPiRFW_3syn, symObjAddr: 0xAAE0, symBinAddr: 0x42FBC, symSize: 0x98 }
  - { offset: 0xE76BC, size: 0x8, addend: 0x0, symName: __RNvXsb_NtCsdze8u8oDPro_5alloc3vecINtB5_3VechEINtNtNtCs9f3LFPSIp77_4core3ops5index5IndexjE5indexCsATtFUPiRFW_3syn, symObjAddr: 0xAB78, symBinAddr: 0x43054, symSize: 0x98 }
  - { offset: 0xE78A0, size: 0x8, addend: 0x0, symName: __RNvXsc_NtCsdze8u8oDPro_5alloc3vecINtB5_3VecNtNtCsATtFUPiRFW_3syn6buffer5EntryEINtNtNtCs9f3LFPSIp77_4core3ops5index8IndexMutjE9index_mutBJ_, symObjAddr: 0xAC10, symBinAddr: 0x430EC, symSize: 0x9C }
  - { offset: 0xE7A51, size: 0x8, addend: 0x0, symName: __RNvXsc_NtCsdze8u8oDPro_5alloc3vecINtB5_3VechEINtNtNtCs9f3LFPSIp77_4core3ops5index8IndexMutjE9index_mutCsATtFUPiRFW_3syn, symObjAddr: 0xACAC, symBinAddr: 0x43188, symSize: 0x98 }
  - { offset: 0xE7C08, size: 0x8, addend: 0x0, symName: __RNvXse_NtCsdze8u8oDPro_5alloc3vecINtB5_3VecNtNtCsATtFUPiRFW_3syn4attr9AttributeENtNtNtNtCs9f3LFPSIp77_4core4iter6traits7collect12IntoIterator9into_iterBJ_, symObjAddr: 0xAD44, symBinAddr: 0x43220, symSize: 0xF8 }
  - { offset: 0xE7ED7, size: 0x8, addend: 0x0, symName: __RNvXse_NtCsdze8u8oDPro_5alloc3vecINtB5_3VecNtNtCsATtFUPiRFW_3syn4data5FieldENtNtNtNtCs9f3LFPSIp77_4core4iter6traits7collect12IntoIterator9into_iterBJ_, symObjAddr: 0xAE3C, symBinAddr: 0x43318, symSize: 0x100 }
  - { offset: 0xE81A6, size: 0x8, addend: 0x0, symName: __RNvXse_NtCsdze8u8oDPro_5alloc3vecINtB5_3VecNtNtCsATtFUPiRFW_3syn5error12ErrorMessageENtNtNtNtCs9f3LFPSIp77_4core4iter6traits7collect12IntoIterator9into_iterBJ_, symObjAddr: 0xAF3C, symBinAddr: 0x43418, symSize: 0x100 }
  - { offset: 0xE8475, size: 0x8, addend: 0x0, symName: __RNvXse_NtCsdze8u8oDPro_5alloc3vecINtB5_3VecNtNtCsATtFUPiRFW_3syn8generics14TypeParamBoundENtNtNtNtCs9f3LFPSIp77_4core4iter6traits7collect12IntoIterator9into_iterBJ_, symObjAddr: 0xB03C, symBinAddr: 0x43518, symSize: 0x100 }
  - { offset: 0xE8744, size: 0x8, addend: 0x0, symName: __RNvXse_NtCsdze8u8oDPro_5alloc3vecINtB5_3VecTNtNtCsATtFUPiRFW_3syn4data5FieldNtNtBK_5token5CommaEENtNtNtNtCs9f3LFPSIp77_4core4iter6traits7collect12IntoIterator9into_iterBK_, symObjAddr: 0xB13C, symBinAddr: 0x43618, symSize: 0x100 }
  - { offset: 0xE8A13, size: 0x8, addend: 0x0, symName: __RNvXse_NtCsdze8u8oDPro_5alloc3vecINtB5_3VecTNtNtCsATtFUPiRFW_3syn4data5FielduEENtNtNtNtCs9f3LFPSIp77_4core4iter6traits7collect12IntoIterator9into_iterBK_, symObjAddr: 0xB23C, symBinAddr: 0x43718, symSize: 0x100 }
  - { offset: 0xE8CE2, size: 0x8, addend: 0x0, symName: __RNvXse_NtCsdze8u8oDPro_5alloc3vecINtB5_3VecTNtNtCsATtFUPiRFW_3syn4path11PathSegmentNtNtBK_5token7PathSepEENtNtNtNtCs9f3LFPSIp77_4core4iter6traits7collect12IntoIterator9into_iterBK_, symObjAddr: 0xB33C, symBinAddr: 0x43818, symSize: 0x100 }
  - { offset: 0xE8FB1, size: 0x8, addend: 0x0, symName: __RNvXse_NtCsdze8u8oDPro_5alloc3vecINtB5_3VecTNtNtCsATtFUPiRFW_3syn8generics14TypeParamBoundNtNtBK_5token4PlusEENtNtNtNtCs9f3LFPSIp77_4core4iter6traits7collect12IntoIterator9into_iterBK_, symObjAddr: 0xB43C, symBinAddr: 0x43918, symSize: 0xF8 }
  - { offset: 0xE9286, size: 0x8, addend: 0x0, symName: __RNvXsf_NtCsdze8u8oDPro_5alloc3vecRINtB5_3VecNtNtCsATtFUPiRFW_3syn4attr9AttributeENtNtNtNtCs9f3LFPSIp77_4core4iter6traits7collect12IntoIterator9into_iterBK_, symObjAddr: 0xB534, symBinAddr: 0x43A10, symSize: 0xB0 }
  - { offset: 0xE9506, size: 0x8, addend: 0x0, symName: __RNvXsf_NtCsdze8u8oDPro_5alloc3vecRINtB5_3VecNtNtCsATtFUPiRFW_3syn4item11ForeignItemENtNtNtNtCs9f3LFPSIp77_4core4iter6traits7collect12IntoIterator9into_iterBK_, symObjAddr: 0xB5E4, symBinAddr: 0x43AC0, symSize: 0xB8 }
  - { offset: 0xE9786, size: 0x8, addend: 0x0, symName: __RNvXsf_NtCsdze8u8oDPro_5alloc3vecRINtB5_3VecNtNtCsATtFUPiRFW_3syn4item4ItemENtNtNtNtCs9f3LFPSIp77_4core4iter6traits7collect12IntoIterator9into_iterBK_, symObjAddr: 0xB69C, symBinAddr: 0x43B78, symSize: 0xB8 }
  - { offset: 0xE9A06, size: 0x8, addend: 0x0, symName: __RNvXsf_NtCsdze8u8oDPro_5alloc3vecRINtB5_3VecNtNtCsATtFUPiRFW_3syn4item8ImplItemENtNtNtNtCs9f3LFPSIp77_4core4iter6traits7collect12IntoIterator9into_iterBK_, symObjAddr: 0xB754, symBinAddr: 0x43C30, symSize: 0xB8 }
  - { offset: 0xE9C86, size: 0x8, addend: 0x0, symName: __RNvXsf_NtCsdze8u8oDPro_5alloc3vecRINtB5_3VecNtNtCsATtFUPiRFW_3syn4item9TraitItemENtNtNtNtCs9f3LFPSIp77_4core4iter6traits7collect12IntoIterator9into_iterBK_, symObjAddr: 0xB80C, symBinAddr: 0x43CE8, symSize: 0xB8 }
  - { offset: 0xE9F06, size: 0x8, addend: 0x0, symName: __RNvXsf_NtCsdze8u8oDPro_5alloc3vecRINtB5_3VecNtNtCsATtFUPiRFW_3syn4stmt4StmtENtNtNtNtCs9f3LFPSIp77_4core4iter6traits7collect12IntoIterator9into_iterBK_, symObjAddr: 0xB8C4, symBinAddr: 0x43DA0, symSize: 0xB8 }
  - { offset: 0xEA186, size: 0x8, addend: 0x0, symName: __RNvXsf_NtCsdze8u8oDPro_5alloc3vecRINtB5_3VecTNtNtCsATtFUPiRFW_3syn2ty4TypeNtNtBL_5token5CommaEENtNtNtNtCs9f3LFPSIp77_4core4iter6traits7collect12IntoIterator9into_iterBL_, symObjAddr: 0xB97C, symBinAddr: 0x43E58, symSize: 0xB8 }
  - { offset: 0xEA406, size: 0x8, addend: 0x0, symName: __RNvXsf_NtCsdze8u8oDPro_5alloc3vecRINtB5_3VecTNtNtCsATtFUPiRFW_3syn2ty9BareFnArgNtNtBL_5token5CommaEENtNtNtNtCs9f3LFPSIp77_4core4iter6traits7collect12IntoIterator9into_iterBL_, symObjAddr: 0xBA34, symBinAddr: 0x43F10, symSize: 0xB8 }
  - { offset: 0xEA686, size: 0x8, addend: 0x0, symName: __RNvXsf_NtCsdze8u8oDPro_5alloc3vecRINtB5_3VecTNtNtCsATtFUPiRFW_3syn3pat3PatNtNtBL_5token2OrEENtNtNtNtCs9f3LFPSIp77_4core4iter6traits7collect12IntoIterator9into_iterBL_, symObjAddr: 0xBAEC, symBinAddr: 0x43FC8, symSize: 0xB8 }
  - { offset: 0xEA906, size: 0x8, addend: 0x0, symName: __RNvXsf_NtCsdze8u8oDPro_5alloc3vecRINtB5_3VecTNtNtCsATtFUPiRFW_3syn3pat3PatNtNtBL_5token5CommaEENtNtNtNtCs9f3LFPSIp77_4core4iter6traits7collect12IntoIterator9into_iterBL_, symObjAddr: 0xBBA4, symBinAddr: 0x44080, symSize: 0xB8 }
  - { offset: 0xEAB86, size: 0x8, addend: 0x0, symName: __RNvXsf_NtCsdze8u8oDPro_5alloc3vecRINtB5_3VecTNtNtCsATtFUPiRFW_3syn3pat8FieldPatNtNtBL_5token5CommaEENtNtNtNtCs9f3LFPSIp77_4core4iter6traits7collect12IntoIterator9into_iterBL_, symObjAddr: 0xBC5C, symBinAddr: 0x44138, symSize: 0xB8 }
  - { offset: 0xEAE06, size: 0x8, addend: 0x0, symName: __RNvXsf_NtCsdze8u8oDPro_5alloc3vecRINtB5_3VecTNtNtCsATtFUPiRFW_3syn4data5FieldNtNtBL_5token5CommaEENtNtNtNtCs9f3LFPSIp77_4core4iter6traits7collect12IntoIterator9into_iterBL_, symObjAddr: 0xBD14, symBinAddr: 0x441F0, symSize: 0xB8 }
  - { offset: 0xEB086, size: 0x8, addend: 0x0, symName: __RNvXsf_NtCsdze8u8oDPro_5alloc3vecRINtB5_3VecTNtNtCsATtFUPiRFW_3syn4data7VariantNtNtBL_5token5CommaEENtNtNtNtCs9f3LFPSIp77_4core4iter6traits7collect12IntoIterator9into_iterBL_, symObjAddr: 0xBDCC, symBinAddr: 0x442A8, symSize: 0xB8 }
  - { offset: 0xEB306, size: 0x8, addend: 0x0, symName: __RNvXsf_NtCsdze8u8oDPro_5alloc3vecRINtB5_3VecTNtNtCsATtFUPiRFW_3syn4expr10FieldValueNtNtBL_5token5CommaEENtNtNtNtCs9f3LFPSIp77_4core4iter6traits7collect12IntoIterator9into_iterBL_, symObjAddr: 0xBE84, symBinAddr: 0x44360, symSize: 0xB8 }
  - { offset: 0xEB586, size: 0x8, addend: 0x0, symName: __RNvXsf_NtCsdze8u8oDPro_5alloc3vecRINtB5_3VecTNtNtCsATtFUPiRFW_3syn4expr4ExprNtNtBL_5token5CommaEENtNtNtNtCs9f3LFPSIp77_4core4iter6traits7collect12IntoIterator9into_iterBL_, symObjAddr: 0xBF3C, symBinAddr: 0x44418, symSize: 0xB8 }
  - { offset: 0xEB806, size: 0x8, addend: 0x0, symName: __RNvXsf_NtCsdze8u8oDPro_5alloc3vecRINtB5_3VecTNtNtCsATtFUPiRFW_3syn4item5FnArgNtNtBL_5token5CommaEENtNtNtNtCs9f3LFPSIp77_4core4iter6traits7collect12IntoIterator9into_iterBL_, symObjAddr: 0xBFF4, symBinAddr: 0x444D0, symSize: 0xB8 }
  - { offset: 0xEBA86, size: 0x8, addend: 0x0, symName: __RNvXsf_NtCsdze8u8oDPro_5alloc3vecRINtB5_3VecTNtNtCsATtFUPiRFW_3syn4item7UseTreeNtNtBL_5token5CommaEENtNtNtNtCs9f3LFPSIp77_4core4iter6traits7collect12IntoIterator9into_iterBL_, symObjAddr: 0xC0AC, symBinAddr: 0x44588, symSize: 0xB8 }
  - { offset: 0xEBD06, size: 0x8, addend: 0x0, symName: __RNvXsf_NtCsdze8u8oDPro_5alloc3vecRINtB5_3VecTNtNtCsATtFUPiRFW_3syn4path11PathSegmentNtNtBL_5token7PathSepEENtNtNtNtCs9f3LFPSIp77_4core4iter6traits7collect12IntoIterator9into_iterBL_, symObjAddr: 0xC164, symBinAddr: 0x44640, symSize: 0xB8 }
  - { offset: 0xEBF86, size: 0x8, addend: 0x0, symName: __RNvXsf_NtCsdze8u8oDPro_5alloc3vecRINtB5_3VecTNtNtCsATtFUPiRFW_3syn4path15GenericArgumentNtNtBL_5token5CommaEENtNtNtNtCs9f3LFPSIp77_4core4iter6traits7collect12IntoIterator9into_iterBL_, symObjAddr: 0xC21C, symBinAddr: 0x446F8, symSize: 0xB8 }
  - { offset: 0xEC206, size: 0x8, addend: 0x0, symName: __RNvXsf_NtCsdze8u8oDPro_5alloc3vecRINtB5_3VecTNtNtCsATtFUPiRFW_3syn8generics12GenericParamNtNtBL_5token5CommaEENtNtNtNtCs9f3LFPSIp77_4core4iter6traits7collect12IntoIterator9into_iterBL_, symObjAddr: 0xC2D4, symBinAddr: 0x447B0, symSize: 0xB8 }
  - { offset: 0xEC486, size: 0x8, addend: 0x0, symName: __RNvXsf_NtCsdze8u8oDPro_5alloc3vecRINtB5_3VecTNtNtCsATtFUPiRFW_3syn8generics13CapturedParamNtNtBL_5token5CommaEENtNtNtNtCs9f3LFPSIp77_4core4iter6traits7collect12IntoIterator9into_iterBL_, symObjAddr: 0xC38C, symBinAddr: 0x44868, symSize: 0xB8 }
  - { offset: 0xEC706, size: 0x8, addend: 0x0, symName: __RNvXsf_NtCsdze8u8oDPro_5alloc3vecRINtB5_3VecTNtNtCsATtFUPiRFW_3syn8generics14TypeParamBoundNtNtBL_5token4PlusEENtNtNtNtCs9f3LFPSIp77_4core4iter6traits7collect12IntoIterator9into_iterBL_, symObjAddr: 0xC444, symBinAddr: 0x44920, symSize: 0xB0 }
  - { offset: 0xEC986, size: 0x8, addend: 0x0, symName: __RNvXsf_NtCsdze8u8oDPro_5alloc3vecRINtB5_3VecTNtNtCsATtFUPiRFW_3syn8generics14WherePredicateNtNtBL_5token5CommaEENtNtNtNtCs9f3LFPSIp77_4core4iter6traits7collect12IntoIterator9into_iterBL_, symObjAddr: 0xC4F4, symBinAddr: 0x449D0, symSize: 0xB8 }
  - { offset: 0xECC06, size: 0x8, addend: 0x0, symName: __RNvXsf_NtCsdze8u8oDPro_5alloc3vecRINtB5_3VecTNtNtCsATtFUPiRFW_3syn8lifetime8LifetimeNtNtBL_5token4PlusEENtNtNtNtCs9f3LFPSIp77_4core4iter6traits7collect12IntoIterator9into_iterBL_, symObjAddr: 0xC5AC, symBinAddr: 0x44A88, symSize: 0xB8 }
  - { offset: 0xECE8C, size: 0x8, addend: 0x0, symName: __RNvXsg_NtCsdze8u8oDPro_5alloc3vecQINtB5_3VechENtNtNtNtCs9f3LFPSIp77_4core4iter6traits7collect12IntoIterator9into_iterCsATtFUPiRFW_3syn, symObjAddr: 0xC664, symBinAddr: 0x44B40, symSize: 0xB0 }
  - { offset: 0xED100, size: 0x8, addend: 0x0, symName: __RNvXsn_NtCsdze8u8oDPro_5alloc3vecINtB5_3VecNtNtCsATtFUPiRFW_3syn4attr9AttributeENtNtNtCs9f3LFPSIp77_4core3ops4drop4Drop4dropBJ_, symObjAddr: 0xC714, symBinAddr: 0x44BF0, symSize: 0x50 }
  - { offset: 0xED20D, size: 0x8, addend: 0x0, symName: __RNvXsn_NtCsdze8u8oDPro_5alloc3vecINtB5_3VecNtNtCsATtFUPiRFW_3syn4data5FieldENtNtNtCs9f3LFPSIp77_4core3ops4drop4Drop4dropBJ_, symObjAddr: 0xC764, symBinAddr: 0x44C40, symSize: 0x50 }
  - { offset: 0xED31A, size: 0x8, addend: 0x0, symName: __RNvXsn_NtCsdze8u8oDPro_5alloc3vecINtB5_3VecNtNtCsATtFUPiRFW_3syn4expr3ArmENtNtNtCs9f3LFPSIp77_4core3ops4drop4Drop4dropBJ_, symObjAddr: 0xC7B4, symBinAddr: 0x44C90, symSize: 0x50 }
  - { offset: 0xED427, size: 0x8, addend: 0x0, symName: __RNvXsn_NtCsdze8u8oDPro_5alloc3vecINtB5_3VecNtNtCsATtFUPiRFW_3syn4expr6ExprIfENtNtNtCs9f3LFPSIp77_4core3ops4drop4Drop4dropBJ_, symObjAddr: 0xC804, symBinAddr: 0x44CE0, symSize: 0x50 }
  - { offset: 0xED534, size: 0x8, addend: 0x0, symName: __RNvXsn_NtCsdze8u8oDPro_5alloc3vecINtB5_3VecNtNtCsATtFUPiRFW_3syn4item11ForeignItemENtNtNtCs9f3LFPSIp77_4core3ops4drop4Drop4dropBJ_, symObjAddr: 0xC854, symBinAddr: 0x44D30, symSize: 0x50 }
  - { offset: 0xED641, size: 0x8, addend: 0x0, symName: __RNvXsn_NtCsdze8u8oDPro_5alloc3vecINtB5_3VecNtNtCsATtFUPiRFW_3syn4item4ItemENtNtNtCs9f3LFPSIp77_4core3ops4drop4Drop4dropBJ_, symObjAddr: 0xC8A4, symBinAddr: 0x44D80, symSize: 0x50 }
  - { offset: 0xED74E, size: 0x8, addend: 0x0, symName: __RNvXsn_NtCsdze8u8oDPro_5alloc3vecINtB5_3VecNtNtCsATtFUPiRFW_3syn4item8ImplItemENtNtNtCs9f3LFPSIp77_4core3ops4drop4Drop4dropBJ_, symObjAddr: 0xC8F4, symBinAddr: 0x44DD0, symSize: 0x50 }
  - { offset: 0xED85B, size: 0x8, addend: 0x0, symName: __RNvXsn_NtCsdze8u8oDPro_5alloc3vecINtB5_3VecNtNtCsATtFUPiRFW_3syn4item9TraitItemENtNtNtCs9f3LFPSIp77_4core3ops4drop4Drop4dropBJ_, symObjAddr: 0xC944, symBinAddr: 0x44E20, symSize: 0x50 }
  - { offset: 0xED968, size: 0x8, addend: 0x0, symName: __RNvXsn_NtCsdze8u8oDPro_5alloc3vecINtB5_3VecNtNtCsATtFUPiRFW_3syn4stmt4StmtENtNtNtCs9f3LFPSIp77_4core3ops4drop4Drop4dropBJ_, symObjAddr: 0xC994, symBinAddr: 0x44E70, symSize: 0x50 }
  - { offset: 0xEDA75, size: 0x8, addend: 0x0, symName: __RNvXsn_NtCsdze8u8oDPro_5alloc3vecINtB5_3VecNtNtCsATtFUPiRFW_3syn5error12ErrorMessageENtNtNtCs9f3LFPSIp77_4core3ops4drop4Drop4dropBJ_, symObjAddr: 0xC9E4, symBinAddr: 0x44EC0, symSize: 0x50 }
  - { offset: 0xEDB82, size: 0x8, addend: 0x0, symName: __RNvXsn_NtCsdze8u8oDPro_5alloc3vecINtB5_3VecNtNtCsATtFUPiRFW_3syn6buffer5EntryENtNtNtCs9f3LFPSIp77_4core3ops4drop4Drop4dropBJ_, symObjAddr: 0xCA34, symBinAddr: 0x44F10, symSize: 0x50 }
  - { offset: 0xEDC8F, size: 0x8, addend: 0x0, symName: __RNvXsn_NtCsdze8u8oDPro_5alloc3vecINtB5_3VecNtNtCsATtFUPiRFW_3syn8generics14TypeParamBoundENtNtNtCs9f3LFPSIp77_4core3ops4drop4Drop4dropBJ_, symObjAddr: 0xCA84, symBinAddr: 0x44F60, symSize: 0x50 }
  - { offset: 0xEDD9C, size: 0x8, addend: 0x0, symName: __RNvXsn_NtCsdze8u8oDPro_5alloc3vecINtB5_3VecReENtNtNtCs9f3LFPSIp77_4core3ops4drop4Drop4dropCsATtFUPiRFW_3syn, symObjAddr: 0xCAD4, symBinAddr: 0x44FB0, symSize: 0x3C }
  - { offset: 0xEDEA9, size: 0x8, addend: 0x0, symName: __RNvXsn_NtCsdze8u8oDPro_5alloc3vecINtB5_3VecTNtNtCsATtFUPiRFW_3syn2ty4TypeNtNtBK_5token5CommaEENtNtNtCs9f3LFPSIp77_4core3ops4drop4Drop4dropBK_, symObjAddr: 0xCB10, symBinAddr: 0x44FEC, symSize: 0x50 }
  - { offset: 0xEDFB6, size: 0x8, addend: 0x0, symName: __RNvXsn_NtCsdze8u8oDPro_5alloc3vecINtB5_3VecTNtNtCsATtFUPiRFW_3syn2ty9BareFnArgNtNtBK_5token5CommaEENtNtNtCs9f3LFPSIp77_4core3ops4drop4Drop4dropBK_, symObjAddr: 0xCB60, symBinAddr: 0x4503C, symSize: 0x50 }
  - { offset: 0xEE0C3, size: 0x8, addend: 0x0, symName: __RNvXsn_NtCsdze8u8oDPro_5alloc3vecINtB5_3VecTNtNtCsATtFUPiRFW_3syn3pat3PatNtNtBK_5token2OrEENtNtNtCs9f3LFPSIp77_4core3ops4drop4Drop4dropBK_, symObjAddr: 0xCBB0, symBinAddr: 0x4508C, symSize: 0x50 }
  - { offset: 0xEE1D0, size: 0x8, addend: 0x0, symName: __RNvXsn_NtCsdze8u8oDPro_5alloc3vecINtB5_3VecTNtNtCsATtFUPiRFW_3syn3pat3PatNtNtBK_5token5CommaEENtNtNtCs9f3LFPSIp77_4core3ops4drop4Drop4dropBK_, symObjAddr: 0xCC00, symBinAddr: 0x450DC, symSize: 0x50 }
  - { offset: 0xEE2DD, size: 0x8, addend: 0x0, symName: __RNvXsn_NtCsdze8u8oDPro_5alloc3vecINtB5_3VecTNtNtCsATtFUPiRFW_3syn3pat8FieldPatNtNtBK_5token5CommaEENtNtNtCs9f3LFPSIp77_4core3ops4drop4Drop4dropBK_, symObjAddr: 0xCC50, symBinAddr: 0x4512C, symSize: 0x50 }
  - { offset: 0xEE3EA, size: 0x8, addend: 0x0, symName: __RNvXsn_NtCsdze8u8oDPro_5alloc3vecINtB5_3VecTNtNtCsATtFUPiRFW_3syn4data5FieldNtNtBK_5token5CommaEENtNtNtCs9f3LFPSIp77_4core3ops4drop4Drop4dropBK_, symObjAddr: 0xCCA0, symBinAddr: 0x4517C, symSize: 0x50 }
  - { offset: 0xEE4F7, size: 0x8, addend: 0x0, symName: __RNvXsn_NtCsdze8u8oDPro_5alloc3vecINtB5_3VecTNtNtCsATtFUPiRFW_3syn4data5FielduEENtNtNtCs9f3LFPSIp77_4core3ops4drop4Drop4dropBK_, symObjAddr: 0xCCF0, symBinAddr: 0x451CC, symSize: 0x50 }
  - { offset: 0xEE604, size: 0x8, addend: 0x0, symName: __RNvXsn_NtCsdze8u8oDPro_5alloc3vecINtB5_3VecTNtNtCsATtFUPiRFW_3syn4data7VariantNtNtBK_5token5CommaEENtNtNtCs9f3LFPSIp77_4core3ops4drop4Drop4dropBK_, symObjAddr: 0xCD40, symBinAddr: 0x4521C, symSize: 0x50 }
  - { offset: 0xEE711, size: 0x8, addend: 0x0, symName: __RNvXsn_NtCsdze8u8oDPro_5alloc3vecINtB5_3VecTNtNtCsATtFUPiRFW_3syn4expr10FieldValueNtNtBK_5token5CommaEENtNtNtCs9f3LFPSIp77_4core3ops4drop4Drop4dropBK_, symObjAddr: 0xCD90, symBinAddr: 0x4526C, symSize: 0x50 }
  - { offset: 0xEE81E, size: 0x8, addend: 0x0, symName: __RNvXsn_NtCsdze8u8oDPro_5alloc3vecINtB5_3VecTNtNtCsATtFUPiRFW_3syn4expr4ExprNtNtBK_5token5CommaEENtNtNtCs9f3LFPSIp77_4core3ops4drop4Drop4dropBK_, symObjAddr: 0xCDE0, symBinAddr: 0x452BC, symSize: 0x50 }
  - { offset: 0xEE92B, size: 0x8, addend: 0x0, symName: __RNvXsn_NtCsdze8u8oDPro_5alloc3vecINtB5_3VecTNtNtCsATtFUPiRFW_3syn4item5FnArgNtNtBK_5token5CommaEENtNtNtCs9f3LFPSIp77_4core3ops4drop4Drop4dropBK_, symObjAddr: 0xCE30, symBinAddr: 0x4530C, symSize: 0x50 }
  - { offset: 0xEEA38, size: 0x8, addend: 0x0, symName: __RNvXsn_NtCsdze8u8oDPro_5alloc3vecINtB5_3VecTNtNtCsATtFUPiRFW_3syn4item7UseTreeNtNtBK_5token5CommaEENtNtNtCs9f3LFPSIp77_4core3ops4drop4Drop4dropBK_, symObjAddr: 0xCE80, symBinAddr: 0x4535C, symSize: 0x50 }
  - { offset: 0xEEB45, size: 0x8, addend: 0x0, symName: __RNvXsn_NtCsdze8u8oDPro_5alloc3vecINtB5_3VecTNtNtCsATtFUPiRFW_3syn4path11PathSegmentNtNtBK_5token7PathSepEENtNtNtCs9f3LFPSIp77_4core3ops4drop4Drop4dropBK_, symObjAddr: 0xCED0, symBinAddr: 0x453AC, symSize: 0x50 }
  - { offset: 0xEEC52, size: 0x8, addend: 0x0, symName: __RNvXsn_NtCsdze8u8oDPro_5alloc3vecINtB5_3VecTNtNtCsATtFUPiRFW_3syn4path15GenericArgumentNtNtBK_5token5CommaEENtNtNtCs9f3LFPSIp77_4core3ops4drop4Drop4dropBK_, symObjAddr: 0xCF20, symBinAddr: 0x453FC, symSize: 0x50 }
  - { offset: 0xEED5F, size: 0x8, addend: 0x0, symName: __RNvXsn_NtCsdze8u8oDPro_5alloc3vecINtB5_3VecTNtNtCsATtFUPiRFW_3syn8generics12GenericParamNtNtBK_5token5CommaEENtNtNtCs9f3LFPSIp77_4core3ops4drop4Drop4dropBK_, symObjAddr: 0xCF70, symBinAddr: 0x4544C, symSize: 0x50 }
  - { offset: 0xEEE6C, size: 0x8, addend: 0x0, symName: __RNvXsn_NtCsdze8u8oDPro_5alloc3vecINtB5_3VecTNtNtCsATtFUPiRFW_3syn8generics13CapturedParamNtNtBK_5token5CommaEENtNtNtCs9f3LFPSIp77_4core3ops4drop4Drop4dropBK_, symObjAddr: 0xCFC0, symBinAddr: 0x4549C, symSize: 0x50 }
  - { offset: 0xEEF79, size: 0x8, addend: 0x0, symName: __RNvXsn_NtCsdze8u8oDPro_5alloc3vecINtB5_3VecTNtNtCsATtFUPiRFW_3syn8generics14TypeParamBoundNtNtBK_5token4PlusEENtNtNtCs9f3LFPSIp77_4core3ops4drop4Drop4dropBK_, symObjAddr: 0xD010, symBinAddr: 0x454EC, symSize: 0x50 }
  - { offset: 0xEF086, size: 0x8, addend: 0x0, symName: __RNvXsn_NtCsdze8u8oDPro_5alloc3vecINtB5_3VecTNtNtCsATtFUPiRFW_3syn8generics14WherePredicateNtNtBK_5token5CommaEENtNtNtCs9f3LFPSIp77_4core3ops4drop4Drop4dropBK_, symObjAddr: 0xD060, symBinAddr: 0x4553C, symSize: 0x50 }
  - { offset: 0xEF193, size: 0x8, addend: 0x0, symName: __RNvXsn_NtCsdze8u8oDPro_5alloc3vecINtB5_3VecTNtNtCsATtFUPiRFW_3syn8lifetime8LifetimeNtNtBK_5token4PlusEENtNtNtCs9f3LFPSIp77_4core3ops4drop4Drop4dropBK_, symObjAddr: 0xD0B0, symBinAddr: 0x4558C, symSize: 0x50 }
  - { offset: 0xEF2A6, size: 0x8, addend: 0x0, symName: __RNvXsp_NtCsdze8u8oDPro_5alloc3vecINtB5_3VecNtNtCsATtFUPiRFW_3syn4attr9AttributeENtNtCs9f3LFPSIp77_4core3fmt5Debug3fmtBJ_, symObjAddr: 0xD100, symBinAddr: 0x455DC, symSize: 0x8C }
  - { offset: 0xEF40A, size: 0x8, addend: 0x0, symName: __RNvXsp_NtCsdze8u8oDPro_5alloc3vecINtB5_3VecNtNtCsATtFUPiRFW_3syn4expr3ArmENtNtCs9f3LFPSIp77_4core3fmt5Debug3fmtBJ_, symObjAddr: 0xD18C, symBinAddr: 0x45668, symSize: 0x8C }
  - { offset: 0xEF56E, size: 0x8, addend: 0x0, symName: __RNvXsp_NtCsdze8u8oDPro_5alloc3vecINtB5_3VecNtNtCsATtFUPiRFW_3syn4item11ForeignItemENtNtCs9f3LFPSIp77_4core3fmt5Debug3fmtBJ_, symObjAddr: 0xD218, symBinAddr: 0x456F4, symSize: 0x8C }
  - { offset: 0xEF6D2, size: 0x8, addend: 0x0, symName: __RNvXsp_NtCsdze8u8oDPro_5alloc3vecINtB5_3VecNtNtCsATtFUPiRFW_3syn4item4ItemENtNtCs9f3LFPSIp77_4core3fmt5Debug3fmtBJ_, symObjAddr: 0xD2A4, symBinAddr: 0x45780, symSize: 0x8C }
  - { offset: 0xEF836, size: 0x8, addend: 0x0, symName: __RNvXsp_NtCsdze8u8oDPro_5alloc3vecINtB5_3VecNtNtCsATtFUPiRFW_3syn4item8ImplItemENtNtCs9f3LFPSIp77_4core3fmt5Debug3fmtBJ_, symObjAddr: 0xD330, symBinAddr: 0x4580C, symSize: 0x8C }
  - { offset: 0xEF99A, size: 0x8, addend: 0x0, symName: __RNvXsp_NtCsdze8u8oDPro_5alloc3vecINtB5_3VecNtNtCsATtFUPiRFW_3syn4item9TraitItemENtNtCs9f3LFPSIp77_4core3fmt5Debug3fmtBJ_, symObjAddr: 0xD3BC, symBinAddr: 0x45898, symSize: 0x8C }
  - { offset: 0xEFAFE, size: 0x8, addend: 0x0, symName: __RNvXsp_NtCsdze8u8oDPro_5alloc3vecINtB5_3VecNtNtCsATtFUPiRFW_3syn4stmt4StmtENtNtCs9f3LFPSIp77_4core3fmt5Debug3fmtBJ_, symObjAddr: 0xD448, symBinAddr: 0x45924, symSize: 0x8C }
  - { offset: 0xEFC62, size: 0x8, addend: 0x0, symName: __RNvXsp_NtCsdze8u8oDPro_5alloc3vecINtB5_3VecNtNtCsATtFUPiRFW_3syn5error12ErrorMessageENtNtCs9f3LFPSIp77_4core3fmt5Debug3fmtBJ_, symObjAddr: 0xD4D4, symBinAddr: 0x459B0, symSize: 0x8C }
  - { offset: 0xEFDC6, size: 0x8, addend: 0x0, symName: __RNvXsp_NtCsdze8u8oDPro_5alloc3vecINtB5_3VechENtNtCs9f3LFPSIp77_4core3fmt5Debug3fmtCsATtFUPiRFW_3syn, symObjAddr: 0xD560, symBinAddr: 0x45A3C, symSize: 0x88 }
  - { offset: 0xF2D87, size: 0x8, addend: 0x0, symName: __RNvXsS_NtCsdze8u8oDPro_5alloc6stringINtNtB7_3vec3VechEINtNtCs9f3LFPSIp77_4core7convert4FromNtB5_6StringE4fromCsATtFUPiRFW_3syn, symObjAddr: 0x9994, symBinAddr: 0x41E70, symSize: 0x18 }
  - { offset: 0xF2FC6, size: 0x8, addend: 0x0, symName: __RNvXNvMs_NtNtCsdze8u8oDPro_5alloc3ffi5c_strNtB7_7CString3newINtNtBb_3vec3VechENtB2_11SpecNewImpl13spec_new_implCsATtFUPiRFW_3syn, symObjAddr: 0x8034, symBinAddr: 0x40510, symSize: 0x190 }
  - { offset: 0xF8C55, size: 0x8, addend: 0x0, symName: __RNvXs0_NtCsATtFUPiRFW_3syn11parse_quoteINtNtCsdze8u8oDPro_5alloc3vec3VecNtNtB7_4attr9AttributeENtB5_10ParseQuote5parse, symObjAddr: 0xD5E8, symBinAddr: 0x45AC4, symSize: 0x1C4 }
  - { offset: 0xF8CBA, size: 0x8, addend: 0x0, symName: __RNvXs5_NtCsATtFUPiRFW_3syn11parse_quoteINtNtCsdze8u8oDPro_5alloc3vec3VecNtNtB7_4stmt4StmtENtB5_10ParseQuote5parse, symObjAddr: 0xD7AC, symBinAddr: 0x45C88, symSize: 0x34 }
  - { offset: 0xF8CEC, size: 0x8, addend: 0x0, symName: __RNvXs6_NtCsATtFUPiRFW_3syn11parse_quoteINtNtCsdze8u8oDPro_5alloc3vec3VecNtNtB7_4expr3ArmENtB5_10ParseQuote5parse, symObjAddr: 0xD7E0, symBinAddr: 0x45CBC, symSize: 0x34 }
  - { offset: 0xF8E67, size: 0x8, addend: 0x0, symName: __RINvMs_NtCsdze8u8oDPro_5alloc3vecINtB5_3VecReE10retain_mutNCNvMNtCsATtFUPiRFW_3syn9lookaheadNtBZ_10Lookahead15error0EB11_, symObjAddr: 0x0, symBinAddr: 0x384DC, symSize: 0xE4 }
  - { offset: 0xF919E, size: 0x8, addend: 0x0, symName: __RINvMsi_NtCsdze8u8oDPro_5alloc3vecINtB6_3VecNtCs475r2uZUTuc_11proc_macro29TokenTreeE16extend_desugaredINtNtNtNtCs9f3LFPSIp77_4core4iter8adapters7flatten7FlattenINtNtB1H_3map3MapIB2z_IB2z_INtNtNtB1L_5slice4iter4IterNtNtCsATtFUPiRFW_3syn5error12ErrorMessageENvMs_B3s_B3q_16to_compile_errorENCINvXs7_BI_NtBI_11TokenStreamINtNtNtB1J_6traits7collect12FromIteratorB4O_E9from_iterB2U_E0ENCINvXs6_NtBI_3impNtB6f_11TokenStreamIB57_B6o_E9from_iterB2P_Es_0EEEB3u_, symObjAddr: 0xE4, symBinAddr: 0x385C0, symSize: 0x1E0 }
  - { offset: 0xF95EB, size: 0x8, addend: 0x0, symName: __RINvMsi_NtCsdze8u8oDPro_5alloc3vecINtB6_3VecNtCs475r2uZUTuc_11proc_macro29TokenTreeE16extend_desugaredNtNtBI_12token_stream8IntoIterECsATtFUPiRFW_3syn, symObjAddr: 0x2C4, symBinAddr: 0x387A0, symSize: 0x1E0 }
  - { offset: 0xF9FE8, size: 0x8, addend: 0x0, symName: __RINvMsi_NtCsdze8u8oDPro_5alloc3vecINtB6_3VecNtNtCsATtFUPiRFW_3syn4data5FieldE14extend_trustedINtNtCs9f3LFPSIp77_4core6option8IntoIterBG_EEBK_, symObjAddr: 0x4A4, symBinAddr: 0x38980, symSize: 0x1B4 }
  - { offset: 0xFA36B, size: 0x8, addend: 0x0, symName: __RINvMsi_NtCsdze8u8oDPro_5alloc3vecINtB6_3VecNtNtCsATtFUPiRFW_3syn4data5FieldE14extend_trustedINtNtNtNtCs9f3LFPSIp77_4core4iter8adapters3map3MapINtNtB6_9into_iter8IntoIterTBG_NtNtBK_5token5CommaEENCNvXs8_NtBK_10punctuatedINtB3f_10PunctuatedBG_B2M_ENtNtNtB1A_6traits7collect12IntoIterator9into_iter0EEBK_, symObjAddr: 0x658, symBinAddr: 0x38B34, symSize: 0x19C }
  - { offset: 0xFA70E, size: 0x8, addend: 0x0, symName: __RINvMsi_NtCsdze8u8oDPro_5alloc3vecINtB6_3VecNtNtCsATtFUPiRFW_3syn4data5FieldE14extend_trustedINtNtNtNtCs9f3LFPSIp77_4core4iter8adapters3map3MapINtNtB6_9into_iter8IntoIterTBG_uEENCNvXs8_NtBK_10punctuatedINtB2X_10PunctuatedBG_uENtNtNtB1A_6traits7collect12IntoIterator9into_iter0EEBK_, symObjAddr: 0x7F4, symBinAddr: 0x38CD0, symSize: 0x19C }
  - { offset: 0xFAAB8, size: 0x8, addend: 0x0, symName: __RINvMsi_NtCsdze8u8oDPro_5alloc3vecINtB6_3VecNtNtCsATtFUPiRFW_3syn8generics14TypeParamBoundE14extend_trustedINtNtCs9f3LFPSIp77_4core6option8IntoIterBG_EEBK_, symObjAddr: 0x990, symBinAddr: 0x38E6C, symSize: 0x1B4 }
  - { offset: 0xFAE3B, size: 0x8, addend: 0x0, symName: __RINvMsi_NtCsdze8u8oDPro_5alloc3vecINtB6_3VecNtNtCsATtFUPiRFW_3syn8generics14TypeParamBoundE14extend_trustedINtNtNtNtCs9f3LFPSIp77_4core4iter8adapters3map3MapINtNtB6_9into_iter8IntoIterTBG_NtNtBK_5token4PlusEENCNvXs8_NtBK_10punctuatedINtB3s_10PunctuatedBG_B30_ENtNtNtB1O_6traits7collect12IntoIterator9into_iter0EEBK_, symObjAddr: 0xB44, symBinAddr: 0x39020, symSize: 0x19C }
  - { offset: 0xFB40E, size: 0x8, addend: 0x0, symName: __RNvMNtCsdze8u8oDPro_5alloc3vecINtB2_3VecNtNtCsATtFUPiRFW_3syn4attr9AttributeE3newBG_, symObjAddr: 0x1408, symBinAddr: 0x398E4, symSize: 0x28 }
  - { offset: 0xFB4F7, size: 0x8, addend: 0x0, symName: __RNvMNtCsdze8u8oDPro_5alloc3vecINtB2_3VecNtNtCsATtFUPiRFW_3syn4data5FieldE13with_capacityBG_, symObjAddr: 0x1430, symBinAddr: 0x3990C, symSize: 0x44 }
  - { offset: 0xFB5DA, size: 0x8, addend: 0x0, symName: __RNvMNtCsdze8u8oDPro_5alloc3vecINtB2_3VecNtNtCsATtFUPiRFW_3syn4expr3ArmE3newBG_, symObjAddr: 0x1474, symBinAddr: 0x39950, symSize: 0x28 }
  - { offset: 0xFB6CE, size: 0x8, addend: 0x0, symName: __RNvMNtCsdze8u8oDPro_5alloc3vecINtB2_3VecNtNtCsATtFUPiRFW_3syn4expr6ExprIfE3newBG_, symObjAddr: 0x149C, symBinAddr: 0x39978, symSize: 0x28 }
  - { offset: 0xFB7C2, size: 0x8, addend: 0x0, symName: __RNvMNtCsdze8u8oDPro_5alloc3vecINtB2_3VecNtNtCsATtFUPiRFW_3syn4item11ForeignItemE3newBG_, symObjAddr: 0x14C4, symBinAddr: 0x399A0, symSize: 0x28 }
  - { offset: 0xFB8B6, size: 0x8, addend: 0x0, symName: __RNvMNtCsdze8u8oDPro_5alloc3vecINtB2_3VecNtNtCsATtFUPiRFW_3syn4item4ItemE3newBG_, symObjAddr: 0x14EC, symBinAddr: 0x399C8, symSize: 0x28 }
  - { offset: 0xFB9AA, size: 0x8, addend: 0x0, symName: __RNvMNtCsdze8u8oDPro_5alloc3vecINtB2_3VecNtNtCsATtFUPiRFW_3syn4item8ImplItemE3newBG_, symObjAddr: 0x1514, symBinAddr: 0x399F0, symSize: 0x28 }
  - { offset: 0xFBA9E, size: 0x8, addend: 0x0, symName: __RNvMNtCsdze8u8oDPro_5alloc3vecINtB2_3VecNtNtCsATtFUPiRFW_3syn4item9TraitItemE3newBG_, symObjAddr: 0x153C, symBinAddr: 0x39A18, symSize: 0x28 }
  - { offset: 0xFBB92, size: 0x8, addend: 0x0, symName: __RNvMNtCsdze8u8oDPro_5alloc3vecINtB2_3VecNtNtCsATtFUPiRFW_3syn4stmt4StmtE3newBG_, symObjAddr: 0x1564, symBinAddr: 0x39A40, symSize: 0x28 }
  - { offset: 0xFBC86, size: 0x8, addend: 0x0, symName: __RNvMNtCsdze8u8oDPro_5alloc3vecINtB2_3VecNtNtCsATtFUPiRFW_3syn6buffer5EntryE3newBG_, symObjAddr: 0x158C, symBinAddr: 0x39A68, symSize: 0x28 }
  - { offset: 0xFBD6F, size: 0x8, addend: 0x0, symName: __RNvMNtCsdze8u8oDPro_5alloc3vecINtB2_3VecNtNtCsATtFUPiRFW_3syn8generics14TypeParamBoundE13with_capacityBG_, symObjAddr: 0x15B4, symBinAddr: 0x39A90, symSize: 0x44 }
  - { offset: 0xFBE52, size: 0x8, addend: 0x0, symName: __RNvMNtCsdze8u8oDPro_5alloc3vecINtB2_3VecReE3newCsATtFUPiRFW_3syn, symObjAddr: 0x15F8, symBinAddr: 0x39AD4, symSize: 0x28 }
  - { offset: 0xFBF46, size: 0x8, addend: 0x0, symName: __RNvMNtCsdze8u8oDPro_5alloc3vecINtB2_3VecTNtNtCsATtFUPiRFW_3syn2ty4TypeNtNtBH_5token5CommaEE3newBH_, symObjAddr: 0x1620, symBinAddr: 0x39AFC, symSize: 0x28 }
  - { offset: 0xFC03A, size: 0x8, addend: 0x0, symName: __RNvMNtCsdze8u8oDPro_5alloc3vecINtB2_3VecTNtNtCsATtFUPiRFW_3syn2ty9BareFnArgNtNtBH_5token5CommaEE3newBH_, symObjAddr: 0x1648, symBinAddr: 0x39B24, symSize: 0x28 }
  - { offset: 0xFC12E, size: 0x8, addend: 0x0, symName: __RNvMNtCsdze8u8oDPro_5alloc3vecINtB2_3VecTNtNtCsATtFUPiRFW_3syn3pat3PatNtNtBH_5token2OrEE3newBH_, symObjAddr: 0x1670, symBinAddr: 0x39B4C, symSize: 0x28 }
  - { offset: 0xFC222, size: 0x8, addend: 0x0, symName: __RNvMNtCsdze8u8oDPro_5alloc3vecINtB2_3VecTNtNtCsATtFUPiRFW_3syn3pat3PatNtNtBH_5token5CommaEE3newBH_, symObjAddr: 0x1698, symBinAddr: 0x39B74, symSize: 0x28 }
  - { offset: 0xFC316, size: 0x8, addend: 0x0, symName: __RNvMNtCsdze8u8oDPro_5alloc3vecINtB2_3VecTNtNtCsATtFUPiRFW_3syn3pat8FieldPatNtNtBH_5token5CommaEE3newBH_, symObjAddr: 0x16C0, symBinAddr: 0x39B9C, symSize: 0x28 }
  - { offset: 0xFC40A, size: 0x8, addend: 0x0, symName: __RNvMNtCsdze8u8oDPro_5alloc3vecINtB2_3VecTNtNtCsATtFUPiRFW_3syn4data5FieldNtNtBH_5token5CommaEE3newBH_, symObjAddr: 0x16E8, symBinAddr: 0x39BC4, symSize: 0x28 }
  - { offset: 0xFC4FE, size: 0x8, addend: 0x0, symName: __RNvMNtCsdze8u8oDPro_5alloc3vecINtB2_3VecTNtNtCsATtFUPiRFW_3syn4data5FielduEE3newBH_, symObjAddr: 0x1710, symBinAddr: 0x39BEC, symSize: 0x28 }
  - { offset: 0xFC5F2, size: 0x8, addend: 0x0, symName: __RNvMNtCsdze8u8oDPro_5alloc3vecINtB2_3VecTNtNtCsATtFUPiRFW_3syn4data7VariantNtNtBH_5token5CommaEE3newBH_, symObjAddr: 0x1738, symBinAddr: 0x39C14, symSize: 0x28 }
  - { offset: 0xFC6E6, size: 0x8, addend: 0x0, symName: __RNvMNtCsdze8u8oDPro_5alloc3vecINtB2_3VecTNtNtCsATtFUPiRFW_3syn4expr10FieldValueNtNtBH_5token5CommaEE3newBH_, symObjAddr: 0x1760, symBinAddr: 0x39C3C, symSize: 0x28 }
  - { offset: 0xFC7DA, size: 0x8, addend: 0x0, symName: __RNvMNtCsdze8u8oDPro_5alloc3vecINtB2_3VecTNtNtCsATtFUPiRFW_3syn4expr4ExprNtNtBH_5token5CommaEE3newBH_, symObjAddr: 0x1788, symBinAddr: 0x39C64, symSize: 0x28 }
  - { offset: 0xFC8CE, size: 0x8, addend: 0x0, symName: __RNvMNtCsdze8u8oDPro_5alloc3vecINtB2_3VecTNtNtCsATtFUPiRFW_3syn4item5FnArgNtNtBH_5token5CommaEE3newBH_, symObjAddr: 0x17B0, symBinAddr: 0x39C8C, symSize: 0x28 }
  - { offset: 0xFC9C2, size: 0x8, addend: 0x0, symName: __RNvMNtCsdze8u8oDPro_5alloc3vecINtB2_3VecTNtNtCsATtFUPiRFW_3syn4item7UseTreeNtNtBH_5token5CommaEE3newBH_, symObjAddr: 0x17D8, symBinAddr: 0x39CB4, symSize: 0x28 }
  - { offset: 0xFCAB6, size: 0x8, addend: 0x0, symName: __RNvMNtCsdze8u8oDPro_5alloc3vecINtB2_3VecTNtNtCsATtFUPiRFW_3syn4path11PathSegmentNtNtBH_5token7PathSepEE3newBH_, symObjAddr: 0x1800, symBinAddr: 0x39CDC, symSize: 0x28 }
  - { offset: 0xFCBAA, size: 0x8, addend: 0x0, symName: __RNvMNtCsdze8u8oDPro_5alloc3vecINtB2_3VecTNtNtCsATtFUPiRFW_3syn4path15GenericArgumentNtNtBH_5token5CommaEE3newBH_, symObjAddr: 0x1828, symBinAddr: 0x39D04, symSize: 0x28 }
  - { offset: 0xFCC9E, size: 0x8, addend: 0x0, symName: __RNvMNtCsdze8u8oDPro_5alloc3vecINtB2_3VecTNtNtCsATtFUPiRFW_3syn8generics12GenericParamNtNtBH_5token5CommaEE3newBH_, symObjAddr: 0x1850, symBinAddr: 0x39D2C, symSize: 0x28 }
  - { offset: 0xFCD92, size: 0x8, addend: 0x0, symName: __RNvMNtCsdze8u8oDPro_5alloc3vecINtB2_3VecTNtNtCsATtFUPiRFW_3syn8generics13CapturedParamNtNtBH_5token5CommaEE3newBH_, symObjAddr: 0x1878, symBinAddr: 0x39D54, symSize: 0x28 }
  - { offset: 0xFCE86, size: 0x8, addend: 0x0, symName: __RNvMNtCsdze8u8oDPro_5alloc3vecINtB2_3VecTNtNtCsATtFUPiRFW_3syn8generics14TypeParamBoundNtNtBH_5token4PlusEE3newBH_, symObjAddr: 0x18A0, symBinAddr: 0x39D7C, symSize: 0x28 }
  - { offset: 0xFCF7A, size: 0x8, addend: 0x0, symName: __RNvMNtCsdze8u8oDPro_5alloc3vecINtB2_3VecTNtNtCsATtFUPiRFW_3syn8generics14WherePredicateNtNtBH_5token5CommaEE3newBH_, symObjAddr: 0x18C8, symBinAddr: 0x39DA4, symSize: 0x28 }
  - { offset: 0xFD06E, size: 0x8, addend: 0x0, symName: __RNvMNtCsdze8u8oDPro_5alloc3vecINtB2_3VecTNtNtCsATtFUPiRFW_3syn8lifetime8LifetimeNtNtBH_5token4PlusEE3newBH_, symObjAddr: 0x18F0, symBinAddr: 0x39DCC, symSize: 0x28 }
  - { offset: 0xFD162, size: 0x8, addend: 0x0, symName: __RNvMNtCsdze8u8oDPro_5alloc3vecINtB2_3VechE3newCsATtFUPiRFW_3syn, symObjAddr: 0x1918, symBinAddr: 0x39DF4, symSize: 0x28 }
  - { offset: 0xFD2D4, size: 0x8, addend: 0x0, symName: __RNvMs0_NtCsdze8u8oDPro_5alloc3vecINtB5_3VechE17extend_from_sliceCsATtFUPiRFW_3syn, symObjAddr: 0x1940, symBinAddr: 0x39E1C, symSize: 0x6C }
  - { offset: 0xFD444, size: 0x8, addend: 0x0, symName: __RNvMs0_NtCsdze8u8oDPro_5alloc3vecINtB5_3VechE6resizeCsATtFUPiRFW_3syn, symObjAddr: 0x19AC, symBinAddr: 0x39E88, symSize: 0xB4 }
  - { offset: 0xFD649, size: 0x8, addend: 0x0, symName: __RNvMs2_NtCsdze8u8oDPro_5alloc3vecINtB5_3VechE11extend_withCsATtFUPiRFW_3syn, symObjAddr: 0x1A60, symBinAddr: 0x39F3C, symSize: 0x240 }
  - { offset: 0xFDAD6, size: 0x8, addend: 0x0, symName: __RNvMs_NtCsdze8u8oDPro_5alloc3vecINtB4_3VecNtNtCsATtFUPiRFW_3syn4attr9AttributeE15append_elementsBI_, symObjAddr: 0x1CA0, symBinAddr: 0x3A17C, symSize: 0xEC }
  - { offset: 0xFDE06, size: 0x8, addend: 0x0, symName: __RNvMs_NtCsdze8u8oDPro_5alloc3vecINtB4_3VecNtNtCsATtFUPiRFW_3syn4attr9AttributeE18spare_capacity_mutBI_, symObjAddr: 0x1D8C, symBinAddr: 0x3A268, symSize: 0xDC }
  - { offset: 0xFE0EC, size: 0x8, addend: 0x0, symName: __RNvMs_NtCsdze8u8oDPro_5alloc3vecINtB4_3VecNtNtCsATtFUPiRFW_3syn4attr9AttributeE4pushBI_, symObjAddr: 0x1E68, symBinAddr: 0x3A344, symSize: 0x124 }
  - { offset: 0xFE435, size: 0x8, addend: 0x0, symName: __RNvMs_NtCsdze8u8oDPro_5alloc3vecINtB4_3VecNtNtCsATtFUPiRFW_3syn4attr9AttributeE6appendBI_, symObjAddr: 0x1F8C, symBinAddr: 0x3A468, symSize: 0x9C }
  - { offset: 0xFE6AC, size: 0x8, addend: 0x0, symName: __RNvMs_NtCsdze8u8oDPro_5alloc3vecINtB4_3VecNtNtCsATtFUPiRFW_3syn4attr9AttributeE7reserveBI_, symObjAddr: 0x2028, symBinAddr: 0x3A504, symSize: 0xC4 }
  - { offset: 0xFE8D6, size: 0x8, addend: 0x0, symName: __RNvMs_NtCsdze8u8oDPro_5alloc3vecINtB4_3VecNtNtCsATtFUPiRFW_3syn4attr9AttributeE8as_sliceBI_, symObjAddr: 0x20EC, symBinAddr: 0x3A5C8, symSize: 0x7C }
  - { offset: 0xFEA09, size: 0x8, addend: 0x0, symName: __RNvMs_NtCsdze8u8oDPro_5alloc3vecINtB4_3VecNtNtCsATtFUPiRFW_3syn4attr9AttributeE8is_emptyBI_, symObjAddr: 0x2168, symBinAddr: 0x3A644, symSize: 0x20 }
  - { offset: 0xFEB60, size: 0x8, addend: 0x0, symName: __RNvMs_NtCsdze8u8oDPro_5alloc3vecINtB4_3VecNtNtCsATtFUPiRFW_3syn4data5FieldE7reserveBI_, symObjAddr: 0x2188, symBinAddr: 0x3A664, symSize: 0xC4 }
  - { offset: 0xFEE5B, size: 0x8, addend: 0x0, symName: __RNvMs_NtCsdze8u8oDPro_5alloc3vecINtB4_3VecNtNtCsATtFUPiRFW_3syn4expr3ArmE18spare_capacity_mutBI_, symObjAddr: 0x224C, symBinAddr: 0x3A728, symSize: 0xE0 }
  - { offset: 0xFF007, size: 0x8, addend: 0x0, symName: __RNvMs_NtCsdze8u8oDPro_5alloc3vecINtB4_3VecNtNtCsATtFUPiRFW_3syn4expr3ArmE3lenBI_, symObjAddr: 0x232C, symBinAddr: 0x3A808, symSize: 0x18 }
  - { offset: 0xFF183, size: 0x8, addend: 0x0, symName: __RNvMs_NtCsdze8u8oDPro_5alloc3vecINtB4_3VecNtNtCsATtFUPiRFW_3syn4expr3ArmE4pushBI_, symObjAddr: 0x2344, symBinAddr: 0x3A820, symSize: 0x12C }
  - { offset: 0xFF47F, size: 0x8, addend: 0x0, symName: __RNvMs_NtCsdze8u8oDPro_5alloc3vecINtB4_3VecNtNtCsATtFUPiRFW_3syn4expr3ArmE8as_sliceBI_, symObjAddr: 0x2470, symBinAddr: 0x3A94C, symSize: 0x7C }
  - { offset: 0xFF743, size: 0x8, addend: 0x0, symName: __RNvMs_NtCsdze8u8oDPro_5alloc3vecINtB4_3VecNtNtCsATtFUPiRFW_3syn4expr6ExprIfE3popBI_, symObjAddr: 0x24EC, symBinAddr: 0x3A9C8, symSize: 0x11C }
  - { offset: 0xFFA5A, size: 0x8, addend: 0x0, symName: __RNvMs_NtCsdze8u8oDPro_5alloc3vecINtB4_3VecNtNtCsATtFUPiRFW_3syn4expr6ExprIfE4pushBI_, symObjAddr: 0x2608, symBinAddr: 0x3AAE4, symSize: 0x12C }
  - { offset: 0xFFDFF, size: 0x8, addend: 0x0, symName: __RNvMs_NtCsdze8u8oDPro_5alloc3vecINtB4_3VecNtNtCsATtFUPiRFW_3syn4item11ForeignItemE18spare_capacity_mutBI_, symObjAddr: 0x2734, symBinAddr: 0x3AC10, symSize: 0xE0 }
  - { offset: 0x1000E5, size: 0x8, addend: 0x0, symName: __RNvMs_NtCsdze8u8oDPro_5alloc3vecINtB4_3VecNtNtCsATtFUPiRFW_3syn4item11ForeignItemE4pushBI_, symObjAddr: 0x2814, symBinAddr: 0x3ACF0, symSize: 0x12C }
  - { offset: 0x10048A, size: 0x8, addend: 0x0, symName: __RNvMs_NtCsdze8u8oDPro_5alloc3vecINtB4_3VecNtNtCsATtFUPiRFW_3syn4item4ItemE18spare_capacity_mutBI_, symObjAddr: 0x2940, symBinAddr: 0x3AE1C, symSize: 0xE0 }
  - { offset: 0x100770, size: 0x8, addend: 0x0, symName: __RNvMs_NtCsdze8u8oDPro_5alloc3vecINtB4_3VecNtNtCsATtFUPiRFW_3syn4item4ItemE4pushBI_, symObjAddr: 0x2A20, symBinAddr: 0x3AEFC, symSize: 0x12C }
  - { offset: 0x100B15, size: 0x8, addend: 0x0, symName: __RNvMs_NtCsdze8u8oDPro_5alloc3vecINtB4_3VecNtNtCsATtFUPiRFW_3syn4item8ImplItemE18spare_capacity_mutBI_, symObjAddr: 0x2B4C, symBinAddr: 0x3B028, symSize: 0xE0 }
  - { offset: 0x100DFB, size: 0x8, addend: 0x0, symName: __RNvMs_NtCsdze8u8oDPro_5alloc3vecINtB4_3VecNtNtCsATtFUPiRFW_3syn4item8ImplItemE4pushBI_, symObjAddr: 0x2C2C, symBinAddr: 0x3B108, symSize: 0x12C }
  - { offset: 0x1011A0, size: 0x8, addend: 0x0, symName: __RNvMs_NtCsdze8u8oDPro_5alloc3vecINtB4_3VecNtNtCsATtFUPiRFW_3syn4item9TraitItemE18spare_capacity_mutBI_, symObjAddr: 0x2D58, symBinAddr: 0x3B234, symSize: 0xE0 }
  - { offset: 0x101486, size: 0x8, addend: 0x0, symName: __RNvMs_NtCsdze8u8oDPro_5alloc3vecINtB4_3VecNtNtCsATtFUPiRFW_3syn4item9TraitItemE4pushBI_, symObjAddr: 0x2E38, symBinAddr: 0x3B314, symSize: 0x12C }
  - { offset: 0x10182B, size: 0x8, addend: 0x0, symName: __RNvMs_NtCsdze8u8oDPro_5alloc3vecINtB4_3VecNtNtCsATtFUPiRFW_3syn4stmt4StmtE18spare_capacity_mutBI_, symObjAddr: 0x2F64, symBinAddr: 0x3B440, symSize: 0xE0 }
  - { offset: 0x101B11, size: 0x8, addend: 0x0, symName: __RNvMs_NtCsdze8u8oDPro_5alloc3vecINtB4_3VecNtNtCsATtFUPiRFW_3syn4stmt4StmtE4pushBI_, symObjAddr: 0x3044, symBinAddr: 0x3B520, symSize: 0x12C }
  - { offset: 0x101E81, size: 0x8, addend: 0x0, symName: __RNvMs_NtCsdze8u8oDPro_5alloc3vecINtB4_3VecNtNtCsATtFUPiRFW_3syn5error12ErrorMessageE15append_elementsBI_, symObjAddr: 0x3170, symBinAddr: 0x3B64C, symSize: 0xF4 }
  - { offset: 0x1021B1, size: 0x8, addend: 0x0, symName: __RNvMs_NtCsdze8u8oDPro_5alloc3vecINtB4_3VecNtNtCsATtFUPiRFW_3syn5error12ErrorMessageE18spare_capacity_mutBI_, symObjAddr: 0x3264, symBinAddr: 0x3B740, symSize: 0xE0 }
  - { offset: 0x102350, size: 0x8, addend: 0x0, symName: __RNvMs_NtCsdze8u8oDPro_5alloc3vecINtB4_3VecNtNtCsATtFUPiRFW_3syn5error12ErrorMessageE3lenBI_, symObjAddr: 0x3344, symBinAddr: 0x3B820, symSize: 0x18 }
  - { offset: 0x102489, size: 0x8, addend: 0x0, symName: __RNvMs_NtCsdze8u8oDPro_5alloc3vecINtB4_3VecNtNtCsATtFUPiRFW_3syn5error12ErrorMessageE7reserveBI_, symObjAddr: 0x335C, symBinAddr: 0x3B838, symSize: 0xC4 }
  - { offset: 0x1026D1, size: 0x8, addend: 0x0, symName: __RNvMs_NtCsdze8u8oDPro_5alloc3vecINtB4_3VecNtNtCsATtFUPiRFW_3syn5error12ErrorMessageE8as_sliceBI_, symObjAddr: 0x3420, symBinAddr: 0x3B8FC, symSize: 0x7C }
  - { offset: 0x102A4C, size: 0x8, addend: 0x0, symName: __RNvMs_NtCsdze8u8oDPro_5alloc3vecINtB4_3VecNtNtCsATtFUPiRFW_3syn6buffer5EntryE16into_boxed_sliceBI_, symObjAddr: 0x349C, symBinAddr: 0x3B978, symSize: 0x1BC }
  - { offset: 0x102D07, size: 0x8, addend: 0x0, symName: __RNvMs_NtCsdze8u8oDPro_5alloc3vecINtB4_3VecNtNtCsATtFUPiRFW_3syn6buffer5EntryE3lenBI_, symObjAddr: 0x3658, symBinAddr: 0x3BB34, symSize: 0x18 }
  - { offset: 0x102E90, size: 0x8, addend: 0x0, symName: __RNvMs_NtCsdze8u8oDPro_5alloc3vecINtB4_3VecNtNtCsATtFUPiRFW_3syn6buffer5EntryE4pushBI_, symObjAddr: 0x3670, symBinAddr: 0x3BB4C, symSize: 0x10C }
  - { offset: 0x10318A, size: 0x8, addend: 0x0, symName: __RNvMs_NtCsdze8u8oDPro_5alloc3vecINtB4_3VecNtNtCsATtFUPiRFW_3syn8generics14TypeParamBoundE7reserveBI_, symObjAddr: 0x377C, symBinAddr: 0x3BC58, symSize: 0xC4 }
  - { offset: 0x1032D6, size: 0x8, addend: 0x0, symName: __RNvMs_NtCsdze8u8oDPro_5alloc3vecINtB4_3VecReE3lenCsATtFUPiRFW_3syn, symObjAddr: 0x3840, symBinAddr: 0x3BD1C, symSize: 0x18 }
  - { offset: 0x103452, size: 0x8, addend: 0x0, symName: __RNvMs_NtCsdze8u8oDPro_5alloc3vecINtB4_3VecReE4pushCsATtFUPiRFW_3syn, symObjAddr: 0x3858, symBinAddr: 0x3BD34, symSize: 0x100 }
  - { offset: 0x103723, size: 0x8, addend: 0x0, symName: __RNvMs_NtCsdze8u8oDPro_5alloc3vecINtB4_3VecReE8as_sliceCsATtFUPiRFW_3syn, symObjAddr: 0x3958, symBinAddr: 0x3BE34, symSize: 0x7C }
  - { offset: 0x1039E0, size: 0x8, addend: 0x0, symName: __RNvMs_NtCsdze8u8oDPro_5alloc3vecINtB4_3VecTNtNtCsATtFUPiRFW_3syn2ty4TypeNtNtBJ_5token5CommaEE18spare_capacity_mutBJ_, symObjAddr: 0x39D4, symBinAddr: 0x3BEB0, symSize: 0xE0 }
  - { offset: 0x103B8C, size: 0x8, addend: 0x0, symName: __RNvMs_NtCsdze8u8oDPro_5alloc3vecINtB4_3VecTNtNtCsATtFUPiRFW_3syn2ty4TypeNtNtBJ_5token5CommaEE3lenBJ_, symObjAddr: 0x3AB4, symBinAddr: 0x3BF90, symSize: 0x18 }
  - { offset: 0x103D08, size: 0x8, addend: 0x0, symName: __RNvMs_NtCsdze8u8oDPro_5alloc3vecINtB4_3VecTNtNtCsATtFUPiRFW_3syn2ty4TypeNtNtBJ_5token5CommaEE4pushBJ_, symObjAddr: 0x3ACC, symBinAddr: 0x3BFA8, symSize: 0x12C }
  - { offset: 0x104004, size: 0x8, addend: 0x0, symName: __RNvMs_NtCsdze8u8oDPro_5alloc3vecINtB4_3VecTNtNtCsATtFUPiRFW_3syn2ty4TypeNtNtBJ_5token5CommaEE8as_sliceBJ_, symObjAddr: 0x3BF8, symBinAddr: 0x3C0D4, symSize: 0x7C }
  - { offset: 0x1042C1, size: 0x8, addend: 0x0, symName: __RNvMs_NtCsdze8u8oDPro_5alloc3vecINtB4_3VecTNtNtCsATtFUPiRFW_3syn2ty9BareFnArgNtNtBJ_5token5CommaEE18spare_capacity_mutBJ_, symObjAddr: 0x3C74, symBinAddr: 0x3C150, symSize: 0xE0 }
  - { offset: 0x10446D, size: 0x8, addend: 0x0, symName: __RNvMs_NtCsdze8u8oDPro_5alloc3vecINtB4_3VecTNtNtCsATtFUPiRFW_3syn2ty9BareFnArgNtNtBJ_5token5CommaEE3lenBJ_, symObjAddr: 0x3D54, symBinAddr: 0x3C230, symSize: 0x18 }
  - { offset: 0x1045E9, size: 0x8, addend: 0x0, symName: __RNvMs_NtCsdze8u8oDPro_5alloc3vecINtB4_3VecTNtNtCsATtFUPiRFW_3syn2ty9BareFnArgNtNtBJ_5token5CommaEE4pushBJ_, symObjAddr: 0x3D6C, symBinAddr: 0x3C248, symSize: 0x12C }
  - { offset: 0x1048E4, size: 0x8, addend: 0x0, symName: __RNvMs_NtCsdze8u8oDPro_5alloc3vecINtB4_3VecTNtNtCsATtFUPiRFW_3syn2ty9BareFnArgNtNtBJ_5token5CommaEE8as_sliceBJ_, symObjAddr: 0x3E98, symBinAddr: 0x3C374, symSize: 0x7C }
  - { offset: 0x104BA1, size: 0x8, addend: 0x0, symName: __RNvMs_NtCsdze8u8oDPro_5alloc3vecINtB4_3VecTNtNtCsATtFUPiRFW_3syn3pat3PatNtNtBJ_5token2OrEE18spare_capacity_mutBJ_, symObjAddr: 0x3F14, symBinAddr: 0x3C3F0, symSize: 0xE0 }
  - { offset: 0x104E87, size: 0x8, addend: 0x0, symName: __RNvMs_NtCsdze8u8oDPro_5alloc3vecINtB4_3VecTNtNtCsATtFUPiRFW_3syn3pat3PatNtNtBJ_5token2OrEE4pushBJ_, symObjAddr: 0x3FF4, symBinAddr: 0x3C4D0, symSize: 0x12C }
  - { offset: 0x10518F, size: 0x8, addend: 0x0, symName: __RNvMs_NtCsdze8u8oDPro_5alloc3vecINtB4_3VecTNtNtCsATtFUPiRFW_3syn3pat3PatNtNtBJ_5token2OrEE8as_sliceBJ_, symObjAddr: 0x4120, symBinAddr: 0x3C5FC, symSize: 0x7C }
  - { offset: 0x10544C, size: 0x8, addend: 0x0, symName: __RNvMs_NtCsdze8u8oDPro_5alloc3vecINtB4_3VecTNtNtCsATtFUPiRFW_3syn3pat3PatNtNtBJ_5token5CommaEE18spare_capacity_mutBJ_, symObjAddr: 0x419C, symBinAddr: 0x3C678, symSize: 0xE0 }
  - { offset: 0x1055F8, size: 0x8, addend: 0x0, symName: __RNvMs_NtCsdze8u8oDPro_5alloc3vecINtB4_3VecTNtNtCsATtFUPiRFW_3syn3pat3PatNtNtBJ_5token5CommaEE3lenBJ_, symObjAddr: 0x427C, symBinAddr: 0x3C758, symSize: 0x18 }
  - { offset: 0x105774, size: 0x8, addend: 0x0, symName: __RNvMs_NtCsdze8u8oDPro_5alloc3vecINtB4_3VecTNtNtCsATtFUPiRFW_3syn3pat3PatNtNtBJ_5token5CommaEE4pushBJ_, symObjAddr: 0x4294, symBinAddr: 0x3C770, symSize: 0x12C }
  - { offset: 0x105A6F, size: 0x8, addend: 0x0, symName: __RNvMs_NtCsdze8u8oDPro_5alloc3vecINtB4_3VecTNtNtCsATtFUPiRFW_3syn3pat3PatNtNtBJ_5token5CommaEE8as_sliceBJ_, symObjAddr: 0x43C0, symBinAddr: 0x3C89C, symSize: 0x7C }
  - { offset: 0x105D2C, size: 0x8, addend: 0x0, symName: __RNvMs_NtCsdze8u8oDPro_5alloc3vecINtB4_3VecTNtNtCsATtFUPiRFW_3syn3pat8FieldPatNtNtBJ_5token5CommaEE18spare_capacity_mutBJ_, symObjAddr: 0x443C, symBinAddr: 0x3C918, symSize: 0xE0 }
  - { offset: 0x106012, size: 0x8, addend: 0x0, symName: __RNvMs_NtCsdze8u8oDPro_5alloc3vecINtB4_3VecTNtNtCsATtFUPiRFW_3syn3pat8FieldPatNtNtBJ_5token5CommaEE4pushBJ_, symObjAddr: 0x451C, symBinAddr: 0x3C9F8, symSize: 0x12C }
  - { offset: 0x10631B, size: 0x8, addend: 0x0, symName: __RNvMs_NtCsdze8u8oDPro_5alloc3vecINtB4_3VecTNtNtCsATtFUPiRFW_3syn3pat8FieldPatNtNtBJ_5token5CommaEE8as_sliceBJ_, symObjAddr: 0x4648, symBinAddr: 0x3CB24, symSize: 0x7C }
  - { offset: 0x106571, size: 0x8, addend: 0x0, symName: __RNvMs_NtCsdze8u8oDPro_5alloc3vecINtB4_3VecTNtNtCsATtFUPiRFW_3syn4data5FieldNtNtBJ_5token5CommaEE12as_mut_sliceBJ_, symObjAddr: 0x46C4, symBinAddr: 0x3CBA0, symSize: 0x7C }
  - { offset: 0x106818, size: 0x8, addend: 0x0, symName: __RNvMs_NtCsdze8u8oDPro_5alloc3vecINtB4_3VecTNtNtCsATtFUPiRFW_3syn4data5FieldNtNtBJ_5token5CommaEE18spare_capacity_mutBJ_, symObjAddr: 0x4740, symBinAddr: 0x3CC1C, symSize: 0xE0 }
  - { offset: 0x1069C4, size: 0x8, addend: 0x0, symName: __RNvMs_NtCsdze8u8oDPro_5alloc3vecINtB4_3VecTNtNtCsATtFUPiRFW_3syn4data5FieldNtNtBJ_5token5CommaEE3lenBJ_, symObjAddr: 0x4820, symBinAddr: 0x3CCFC, symSize: 0x18 }
  - { offset: 0x106B40, size: 0x8, addend: 0x0, symName: __RNvMs_NtCsdze8u8oDPro_5alloc3vecINtB4_3VecTNtNtCsATtFUPiRFW_3syn4data5FieldNtNtBJ_5token5CommaEE4pushBJ_, symObjAddr: 0x4838, symBinAddr: 0x3CD14, symSize: 0x12C }
  - { offset: 0x106E32, size: 0x8, addend: 0x0, symName: __RNvMs_NtCsdze8u8oDPro_5alloc3vecINtB4_3VecTNtNtCsATtFUPiRFW_3syn4data5FieldNtNtBJ_5token5CommaEE8as_sliceBJ_, symObjAddr: 0x4964, symBinAddr: 0x3CE40, symSize: 0x7C }
  - { offset: 0x106F4D, size: 0x8, addend: 0x0, symName: __RNvMs_NtCsdze8u8oDPro_5alloc3vecINtB4_3VecTNtNtCsATtFUPiRFW_3syn4data5FielduEE3lenBJ_, symObjAddr: 0x49E0, symBinAddr: 0x3CEBC, symSize: 0x18 }
  - { offset: 0x107131, size: 0x8, addend: 0x0, symName: __RNvMs_NtCsdze8u8oDPro_5alloc3vecINtB4_3VecTNtNtCsATtFUPiRFW_3syn4data7VariantNtNtBJ_5token5CommaEE18spare_capacity_mutBJ_, symObjAddr: 0x49F8, symBinAddr: 0x3CED4, symSize: 0xE0 }
  - { offset: 0x107417, size: 0x8, addend: 0x0, symName: __RNvMs_NtCsdze8u8oDPro_5alloc3vecINtB4_3VecTNtNtCsATtFUPiRFW_3syn4data7VariantNtNtBJ_5token5CommaEE4pushBJ_, symObjAddr: 0x4AD8, symBinAddr: 0x3CFB4, symSize: 0x12C }
  - { offset: 0x107720, size: 0x8, addend: 0x0, symName: __RNvMs_NtCsdze8u8oDPro_5alloc3vecINtB4_3VecTNtNtCsATtFUPiRFW_3syn4data7VariantNtNtBJ_5token5CommaEE8as_sliceBJ_, symObjAddr: 0x4C04, symBinAddr: 0x3D0E0, symSize: 0x7C }
  - { offset: 0x1079DD, size: 0x8, addend: 0x0, symName: __RNvMs_NtCsdze8u8oDPro_5alloc3vecINtB4_3VecTNtNtCsATtFUPiRFW_3syn4expr10FieldValueNtNtBJ_5token5CommaEE18spare_capacity_mutBJ_, symObjAddr: 0x4C80, symBinAddr: 0x3D15C, symSize: 0xE0 }
  - { offset: 0x107CC3, size: 0x8, addend: 0x0, symName: __RNvMs_NtCsdze8u8oDPro_5alloc3vecINtB4_3VecTNtNtCsATtFUPiRFW_3syn4expr10FieldValueNtNtBJ_5token5CommaEE4pushBJ_, symObjAddr: 0x4D60, symBinAddr: 0x3D23C, symSize: 0x12C }
  - { offset: 0x107FCB, size: 0x8, addend: 0x0, symName: __RNvMs_NtCsdze8u8oDPro_5alloc3vecINtB4_3VecTNtNtCsATtFUPiRFW_3syn4expr10FieldValueNtNtBJ_5token5CommaEE8as_sliceBJ_, symObjAddr: 0x4E8C, symBinAddr: 0x3D368, symSize: 0x7C }
  - { offset: 0x108288, size: 0x8, addend: 0x0, symName: __RNvMs_NtCsdze8u8oDPro_5alloc3vecINtB4_3VecTNtNtCsATtFUPiRFW_3syn4expr4ExprNtNtBJ_5token5CommaEE18spare_capacity_mutBJ_, symObjAddr: 0x4F08, symBinAddr: 0x3D3E4, symSize: 0xE0 }
  - { offset: 0x108434, size: 0x8, addend: 0x0, symName: __RNvMs_NtCsdze8u8oDPro_5alloc3vecINtB4_3VecTNtNtCsATtFUPiRFW_3syn4expr4ExprNtNtBJ_5token5CommaEE3lenBJ_, symObjAddr: 0x4FE8, symBinAddr: 0x3D4C4, symSize: 0x18 }
  - { offset: 0x1085B0, size: 0x8, addend: 0x0, symName: __RNvMs_NtCsdze8u8oDPro_5alloc3vecINtB4_3VecTNtNtCsATtFUPiRFW_3syn4expr4ExprNtNtBJ_5token5CommaEE4pushBJ_, symObjAddr: 0x5000, symBinAddr: 0x3D4DC, symSize: 0x12C }
  - { offset: 0x1088AC, size: 0x8, addend: 0x0, symName: __RNvMs_NtCsdze8u8oDPro_5alloc3vecINtB4_3VecTNtNtCsATtFUPiRFW_3syn4expr4ExprNtNtBJ_5token5CommaEE8as_sliceBJ_, symObjAddr: 0x512C, symBinAddr: 0x3D608, symSize: 0x7C }
  - { offset: 0x108B69, size: 0x8, addend: 0x0, symName: __RNvMs_NtCsdze8u8oDPro_5alloc3vecINtB4_3VecTNtNtCsATtFUPiRFW_3syn4item5FnArgNtNtBJ_5token5CommaEE18spare_capacity_mutBJ_, symObjAddr: 0x51A8, symBinAddr: 0x3D684, symSize: 0xE0 }
  - { offset: 0x108D15, size: 0x8, addend: 0x0, symName: __RNvMs_NtCsdze8u8oDPro_5alloc3vecINtB4_3VecTNtNtCsATtFUPiRFW_3syn4item5FnArgNtNtBJ_5token5CommaEE3lenBJ_, symObjAddr: 0x5288, symBinAddr: 0x3D764, symSize: 0x18 }
  - { offset: 0x108E91, size: 0x8, addend: 0x0, symName: __RNvMs_NtCsdze8u8oDPro_5alloc3vecINtB4_3VecTNtNtCsATtFUPiRFW_3syn4item5FnArgNtNtBJ_5token5CommaEE4pushBJ_, symObjAddr: 0x52A0, symBinAddr: 0x3D77C, symSize: 0x12C }
  - { offset: 0x10918D, size: 0x8, addend: 0x0, symName: __RNvMs_NtCsdze8u8oDPro_5alloc3vecINtB4_3VecTNtNtCsATtFUPiRFW_3syn4item5FnArgNtNtBJ_5token5CommaEE8as_sliceBJ_, symObjAddr: 0x53CC, symBinAddr: 0x3D8A8, symSize: 0x7C }
  - { offset: 0x10944A, size: 0x8, addend: 0x0, symName: __RNvMs_NtCsdze8u8oDPro_5alloc3vecINtB4_3VecTNtNtCsATtFUPiRFW_3syn4item7UseTreeNtNtBJ_5token5CommaEE18spare_capacity_mutBJ_, symObjAddr: 0x5448, symBinAddr: 0x3D924, symSize: 0xE0 }
  - { offset: 0x109730, size: 0x8, addend: 0x0, symName: __RNvMs_NtCsdze8u8oDPro_5alloc3vecINtB4_3VecTNtNtCsATtFUPiRFW_3syn4item7UseTreeNtNtBJ_5token5CommaEE4pushBJ_, symObjAddr: 0x5528, symBinAddr: 0x3DA04, symSize: 0x12C }
  - { offset: 0x109A39, size: 0x8, addend: 0x0, symName: __RNvMs_NtCsdze8u8oDPro_5alloc3vecINtB4_3VecTNtNtCsATtFUPiRFW_3syn4item7UseTreeNtNtBJ_5token5CommaEE8as_sliceBJ_, symObjAddr: 0x5654, symBinAddr: 0x3DB30, symSize: 0x7C }
  - { offset: 0x109C9C, size: 0x8, addend: 0x0, symName: __RNvMs_NtCsdze8u8oDPro_5alloc3vecINtB4_3VecTNtNtCsATtFUPiRFW_3syn4path11PathSegmentNtNtBJ_5token7PathSepEE12as_mut_sliceBJ_, symObjAddr: 0x56D0, symBinAddr: 0x3DBAC, symSize: 0x7C }
  - { offset: 0x109F43, size: 0x8, addend: 0x0, symName: __RNvMs_NtCsdze8u8oDPro_5alloc3vecINtB4_3VecTNtNtCsATtFUPiRFW_3syn4path11PathSegmentNtNtBJ_5token7PathSepEE18spare_capacity_mutBJ_, symObjAddr: 0x574C, symBinAddr: 0x3DC28, symSize: 0xE0 }
  - { offset: 0x10A0EF, size: 0x8, addend: 0x0, symName: __RNvMs_NtCsdze8u8oDPro_5alloc3vecINtB4_3VecTNtNtCsATtFUPiRFW_3syn4path11PathSegmentNtNtBJ_5token7PathSepEE3lenBJ_, symObjAddr: 0x582C, symBinAddr: 0x3DD08, symSize: 0x18 }
  - { offset: 0x10A299, size: 0x8, addend: 0x0, symName: __RNvMs_NtCsdze8u8oDPro_5alloc3vecINtB4_3VecTNtNtCsATtFUPiRFW_3syn4path11PathSegmentNtNtBJ_5token7PathSepEE3popBJ_, symObjAddr: 0x5844, symBinAddr: 0x3DD20, symSize: 0x120 }
  - { offset: 0x10A5B0, size: 0x8, addend: 0x0, symName: __RNvMs_NtCsdze8u8oDPro_5alloc3vecINtB4_3VecTNtNtCsATtFUPiRFW_3syn4path11PathSegmentNtNtBJ_5token7PathSepEE4pushBJ_, symObjAddr: 0x5964, symBinAddr: 0x3DE40, symSize: 0x12C }
  - { offset: 0x10A8A2, size: 0x8, addend: 0x0, symName: __RNvMs_NtCsdze8u8oDPro_5alloc3vecINtB4_3VecTNtNtCsATtFUPiRFW_3syn4path11PathSegmentNtNtBJ_5token7PathSepEE8as_sliceBJ_, symObjAddr: 0x5A90, symBinAddr: 0x3DF6C, symSize: 0x7C }
  - { offset: 0x10AB5F, size: 0x8, addend: 0x0, symName: __RNvMs_NtCsdze8u8oDPro_5alloc3vecINtB4_3VecTNtNtCsATtFUPiRFW_3syn4path15GenericArgumentNtNtBJ_5token5CommaEE18spare_capacity_mutBJ_, symObjAddr: 0x5B0C, symBinAddr: 0x3DFE8, symSize: 0xE0 }
  - { offset: 0x10AD0B, size: 0x8, addend: 0x0, symName: __RNvMs_NtCsdze8u8oDPro_5alloc3vecINtB4_3VecTNtNtCsATtFUPiRFW_3syn4path15GenericArgumentNtNtBJ_5token5CommaEE3lenBJ_, symObjAddr: 0x5BEC, symBinAddr: 0x3E0C8, symSize: 0x18 }
  - { offset: 0x10AE87, size: 0x8, addend: 0x0, symName: __RNvMs_NtCsdze8u8oDPro_5alloc3vecINtB4_3VecTNtNtCsATtFUPiRFW_3syn4path15GenericArgumentNtNtBJ_5token5CommaEE4pushBJ_, symObjAddr: 0x5C04, symBinAddr: 0x3E0E0, symSize: 0x12C }
  - { offset: 0x10B182, size: 0x8, addend: 0x0, symName: __RNvMs_NtCsdze8u8oDPro_5alloc3vecINtB4_3VecTNtNtCsATtFUPiRFW_3syn4path15GenericArgumentNtNtBJ_5token5CommaEE8as_sliceBJ_, symObjAddr: 0x5D30, symBinAddr: 0x3E20C, symSize: 0x7C }
  - { offset: 0x10B3E5, size: 0x8, addend: 0x0, symName: __RNvMs_NtCsdze8u8oDPro_5alloc3vecINtB4_3VecTNtNtCsATtFUPiRFW_3syn8generics12GenericParamNtNtBJ_5token5CommaEE12as_mut_sliceBJ_, symObjAddr: 0x5DAC, symBinAddr: 0x3E288, symSize: 0x7C }
  - { offset: 0x10B68C, size: 0x8, addend: 0x0, symName: __RNvMs_NtCsdze8u8oDPro_5alloc3vecINtB4_3VecTNtNtCsATtFUPiRFW_3syn8generics12GenericParamNtNtBJ_5token5CommaEE18spare_capacity_mutBJ_, symObjAddr: 0x5E28, symBinAddr: 0x3E304, symSize: 0xE0 }
  - { offset: 0x10B838, size: 0x8, addend: 0x0, symName: __RNvMs_NtCsdze8u8oDPro_5alloc3vecINtB4_3VecTNtNtCsATtFUPiRFW_3syn8generics12GenericParamNtNtBJ_5token5CommaEE3lenBJ_, symObjAddr: 0x5F08, symBinAddr: 0x3E3E4, symSize: 0x18 }
  - { offset: 0x10B9B4, size: 0x8, addend: 0x0, symName: __RNvMs_NtCsdze8u8oDPro_5alloc3vecINtB4_3VecTNtNtCsATtFUPiRFW_3syn8generics12GenericParamNtNtBJ_5token5CommaEE4pushBJ_, symObjAddr: 0x5F20, symBinAddr: 0x3E3FC, symSize: 0x12C }
  - { offset: 0x10BCA7, size: 0x8, addend: 0x0, symName: __RNvMs_NtCsdze8u8oDPro_5alloc3vecINtB4_3VecTNtNtCsATtFUPiRFW_3syn8generics12GenericParamNtNtBJ_5token5CommaEE8as_sliceBJ_, symObjAddr: 0x604C, symBinAddr: 0x3E528, symSize: 0x7C }
  - { offset: 0x10BF64, size: 0x8, addend: 0x0, symName: __RNvMs_NtCsdze8u8oDPro_5alloc3vecINtB4_3VecTNtNtCsATtFUPiRFW_3syn8generics13CapturedParamNtNtBJ_5token5CommaEE18spare_capacity_mutBJ_, symObjAddr: 0x60C8, symBinAddr: 0x3E5A4, symSize: 0xE0 }
  - { offset: 0x10C24A, size: 0x8, addend: 0x0, symName: __RNvMs_NtCsdze8u8oDPro_5alloc3vecINtB4_3VecTNtNtCsATtFUPiRFW_3syn8generics13CapturedParamNtNtBJ_5token5CommaEE4pushBJ_, symObjAddr: 0x61A8, symBinAddr: 0x3E684, symSize: 0x124 }
  - { offset: 0x10C552, size: 0x8, addend: 0x0, symName: __RNvMs_NtCsdze8u8oDPro_5alloc3vecINtB4_3VecTNtNtCsATtFUPiRFW_3syn8generics13CapturedParamNtNtBJ_5token5CommaEE8as_sliceBJ_, symObjAddr: 0x62CC, symBinAddr: 0x3E7A8, symSize: 0x7C }
  - { offset: 0x10C802, size: 0x8, addend: 0x0, symName: __RNvMs_NtCsdze8u8oDPro_5alloc3vecINtB4_3VecTNtNtCsATtFUPiRFW_3syn8generics14TypeParamBoundNtNtBJ_5token4PlusEE18spare_capacity_mutBJ_, symObjAddr: 0x6348, symBinAddr: 0x3E824, symSize: 0xDC }
  - { offset: 0x10C9AE, size: 0x8, addend: 0x0, symName: __RNvMs_NtCsdze8u8oDPro_5alloc3vecINtB4_3VecTNtNtCsATtFUPiRFW_3syn8generics14TypeParamBoundNtNtBJ_5token4PlusEE3lenBJ_, symObjAddr: 0x6424, symBinAddr: 0x3E900, symSize: 0x18 }
  - { offset: 0x10CB2A, size: 0x8, addend: 0x0, symName: __RNvMs_NtCsdze8u8oDPro_5alloc3vecINtB4_3VecTNtNtCsATtFUPiRFW_3syn8generics14TypeParamBoundNtNtBJ_5token4PlusEE4pushBJ_, symObjAddr: 0x643C, symBinAddr: 0x3E918, symSize: 0x124 }
  - { offset: 0x10CE25, size: 0x8, addend: 0x0, symName: __RNvMs_NtCsdze8u8oDPro_5alloc3vecINtB4_3VecTNtNtCsATtFUPiRFW_3syn8generics14TypeParamBoundNtNtBJ_5token4PlusEE8as_sliceBJ_, symObjAddr: 0x6560, symBinAddr: 0x3EA3C, symSize: 0x7C }
  - { offset: 0x10D0E2, size: 0x8, addend: 0x0, symName: __RNvMs_NtCsdze8u8oDPro_5alloc3vecINtB4_3VecTNtNtCsATtFUPiRFW_3syn8generics14WherePredicateNtNtBJ_5token5CommaEE18spare_capacity_mutBJ_, symObjAddr: 0x65DC, symBinAddr: 0x3EAB8, symSize: 0xE0 }
  - { offset: 0x10D28E, size: 0x8, addend: 0x0, symName: __RNvMs_NtCsdze8u8oDPro_5alloc3vecINtB4_3VecTNtNtCsATtFUPiRFW_3syn8generics14WherePredicateNtNtBJ_5token5CommaEE3lenBJ_, symObjAddr: 0x66BC, symBinAddr: 0x3EB98, symSize: 0x18 }
  - { offset: 0x10D40A, size: 0x8, addend: 0x0, symName: __RNvMs_NtCsdze8u8oDPro_5alloc3vecINtB4_3VecTNtNtCsATtFUPiRFW_3syn8generics14WherePredicateNtNtBJ_5token5CommaEE4pushBJ_, symObjAddr: 0x66D4, symBinAddr: 0x3EBB0, symSize: 0x12C }
  - { offset: 0x10D705, size: 0x8, addend: 0x0, symName: __RNvMs_NtCsdze8u8oDPro_5alloc3vecINtB4_3VecTNtNtCsATtFUPiRFW_3syn8generics14WherePredicateNtNtBJ_5token5CommaEE8as_sliceBJ_, symObjAddr: 0x6800, symBinAddr: 0x3ECDC, symSize: 0x7C }
  - { offset: 0x10D9C2, size: 0x8, addend: 0x0, symName: __RNvMs_NtCsdze8u8oDPro_5alloc3vecINtB4_3VecTNtNtCsATtFUPiRFW_3syn8lifetime8LifetimeNtNtBJ_5token4PlusEE18spare_capacity_mutBJ_, symObjAddr: 0x687C, symBinAddr: 0x3ED58, symSize: 0xE0 }
  - { offset: 0x10DB6E, size: 0x8, addend: 0x0, symName: __RNvMs_NtCsdze8u8oDPro_5alloc3vecINtB4_3VecTNtNtCsATtFUPiRFW_3syn8lifetime8LifetimeNtNtBJ_5token4PlusEE3lenBJ_, symObjAddr: 0x695C, symBinAddr: 0x3EE38, symSize: 0x18 }
  - { offset: 0x10DCEA, size: 0x8, addend: 0x0, symName: __RNvMs_NtCsdze8u8oDPro_5alloc3vecINtB4_3VecTNtNtCsATtFUPiRFW_3syn8lifetime8LifetimeNtNtBJ_5token4PlusEE4pushBJ_, symObjAddr: 0x6974, symBinAddr: 0x3EE50, symSize: 0x124 }
  - { offset: 0x10DFE6, size: 0x8, addend: 0x0, symName: __RNvMs_NtCsdze8u8oDPro_5alloc3vecINtB4_3VecTNtNtCsATtFUPiRFW_3syn8lifetime8LifetimeNtNtBJ_5token4PlusEE8as_sliceBJ_, symObjAddr: 0x6A98, symBinAddr: 0x3EF74, symSize: 0x7C }
  - { offset: 0x10E313, size: 0x8, addend: 0x0, symName: __RNvMs_NtCsdze8u8oDPro_5alloc3vecINtB4_3VechE16into_boxed_sliceCsATtFUPiRFW_3syn, symObjAddr: 0x6B14, symBinAddr: 0x3EFF0, symSize: 0x1B8 }
  - { offset: 0x10E740, size: 0x8, addend: 0x0, symName: __RNvMs_NtCsdze8u8oDPro_5alloc3vecINtB4_3VechE18spare_capacity_mutCsATtFUPiRFW_3syn, symObjAddr: 0x6CCC, symBinAddr: 0x3F1A8, symSize: 0xD4 }
  - { offset: 0x10E8DF, size: 0x8, addend: 0x0, symName: __RNvMs_NtCsdze8u8oDPro_5alloc3vecINtB4_3VechE3lenCsATtFUPiRFW_3syn, symObjAddr: 0x6DA0, symBinAddr: 0x3F27C, symSize: 0x18 }
  - { offset: 0x10E9F2, size: 0x8, addend: 0x0, symName: __RNvMs_NtCsdze8u8oDPro_5alloc3vecINtB4_3VechE8as_sliceCsATtFUPiRFW_3syn, symObjAddr: 0x6DB8, symBinAddr: 0x3F294, symSize: 0x78 }
  - { offset: 0x10EBFA, size: 0x8, addend: 0x0, symName: __RNvMs_NtCsdze8u8oDPro_5alloc3vecINtB4_3VechE8truncateCsATtFUPiRFW_3syn, symObjAddr: 0x6E30, symBinAddr: 0x3F30C, symSize: 0x80 }
  - { offset: 0x10F00C, size: 0x8, addend: 0x0, symName: __RNvMs_NtCsdze8u8oDPro_5alloc3vecINtB4_3VechE9split_offCsATtFUPiRFW_3syn, symObjAddr: 0x6EB0, symBinAddr: 0x3F38C, symSize: 0x184 }
  - { offset: 0x119DC1, size: 0x8, addend: 0x0, symName: __RINvXNtNtCsdze8u8oDPro_5alloc5slice4hackNtNtCsATtFUPiRFW_3syn4item11ForeignItemNtB3_10ConvertVec6to_vecNtNtB7_5alloc6GlobalEBG_, symObjAddr: 0x0, symBinAddr: 0x45CF0, symSize: 0x2C0 }
  - { offset: 0x11B333, size: 0x8, addend: 0x0, symName: __RNvXs_NtCsATtFUPiRFW_3syn4itemNtB4_4ItemINtNtCs9f3LFPSIp77_4core7convert4FromNtNtB6_6derive11DeriveInputE4from, symObjAddr: 0x7220, symBinAddr: 0x4CF10, symSize: 0x42C }
  - { offset: 0x11B3C2, size: 0x8, addend: 0x0, symName: __RNvXNtNtCsATtFUPiRFW_3syn4item7parsingNtB4_4ItemNtNtB6_5parse5Parse5parse, symObjAddr: 0x77C4, symBinAddr: 0x4D4B4, symSize: 0x1B4 }
  - { offset: 0x11B468, size: 0x8, addend: 0x0, symName: __RNvXs0_NtNtCsATtFUPiRFW_3syn4item7parsingNtB7_9ItemMacroNtNtB9_5parse5Parse5parse, symObjAddr: 0x7978, symBinAddr: 0x4D668, symSize: 0x640 }
  - { offset: 0x11B633, size: 0x8, addend: 0x0, symName: __RNvXs1_NtNtCsATtFUPiRFW_3syn4item7parsingNtB7_15ItemExternCrateNtNtB9_5parse5Parse5parse, symObjAddr: 0x7FB8, symBinAddr: 0x4DCA8, symSize: 0x95C }
  - { offset: 0x11B83C, size: 0x8, addend: 0x0, symName: __RNvXs2_NtNtCsATtFUPiRFW_3syn4item7parsingNtB7_7ItemUseNtNtB9_5parse5Parse5parse, symObjAddr: 0x8914, symBinAddr: 0x4E604, symSize: 0x58 }
  - { offset: 0x11B88D, size: 0x8, addend: 0x0, symName: __RNvXs3_NtNtCsATtFUPiRFW_3syn4item7parsingNtB7_7UseTreeNtNtB9_5parse5Parse5parse, symObjAddr: 0x896C, symBinAddr: 0x4E65C, symSize: 0x58 }
  - { offset: 0x11B8DE, size: 0x8, addend: 0x0, symName: __RNvXs4_NtNtCsATtFUPiRFW_3syn4item7parsingNtB7_10ItemStaticNtNtB9_5parse5Parse5parse, symObjAddr: 0x89C4, symBinAddr: 0x4E6B4, symSize: 0xAC0 }
  - { offset: 0x11BAE2, size: 0x8, addend: 0x0, symName: __RNvXs5_NtNtCsATtFUPiRFW_3syn4item7parsingNtB7_9ItemConstNtNtB9_5parse5Parse5parse, symObjAddr: 0x9484, symBinAddr: 0x4F174, symSize: 0xA64 }
  - { offset: 0x11BDB0, size: 0x8, addend: 0x0, symName: __RNvXs6_NtNtCsATtFUPiRFW_3syn4item7parsingNtB7_9SignatureNtNtB9_5parse5Parse5parse, symObjAddr: 0x9EE8, symBinAddr: 0x4FBD8, symSize: 0x60 }
  - { offset: 0x11BE01, size: 0x8, addend: 0x0, symName: __RNvXs7_NtNtCsATtFUPiRFW_3syn4item7parsingNtB7_6ItemFnNtNtB9_5parse5Parse5parse, symObjAddr: 0x9F48, symBinAddr: 0x4FC38, symSize: 0x378 }
  - { offset: 0x11BF34, size: 0x8, addend: 0x0, symName: __RNvXs8_NtNtCsATtFUPiRFW_3syn4item7parsingNtB7_5FnArgNtNtB9_5parse5Parse5parse, symObjAddr: 0xA2C0, symBinAddr: 0x4FFB0, symSize: 0x2E0 }
  - { offset: 0x11C02F, size: 0x8, addend: 0x0, symName: __RNvXs9_NtNtCsATtFUPiRFW_3syn4item7parsingNtB7_8ReceiverNtNtB9_5parse5Parse5parse, symObjAddr: 0xA5A0, symBinAddr: 0x50290, symSize: 0x98C }
  - { offset: 0x11C282, size: 0x8, addend: 0x0, symName: __RNvXsa_NtNtCsATtFUPiRFW_3syn4item7parsingNtB7_7ItemModNtNtB9_5parse5Parse5parse, symObjAddr: 0xAF2C, symBinAddr: 0x50C1C, symSize: 0xC60 }
  - { offset: 0x11C4E2, size: 0x8, addend: 0x0, symName: __RNvXsb_NtNtCsATtFUPiRFW_3syn4item7parsingNtB7_14ItemForeignModNtNtB9_5parse5Parse5parse, symObjAddr: 0xBB8C, symBinAddr: 0x5187C, symSize: 0x61C }
  - { offset: 0x11C691, size: 0x8, addend: 0x0, symName: __RNvXsc_NtNtCsATtFUPiRFW_3syn4item7parsingNtB7_11ForeignItemNtNtB9_5parse5Parse5parse, symObjAddr: 0xC1A8, symBinAddr: 0x51E98, symSize: 0x1DB8 }
  - { offset: 0x11CCF5, size: 0x8, addend: 0x0, symName: __RNvXsd_NtNtCsATtFUPiRFW_3syn4item7parsingNtB7_13ForeignItemFnNtNtB9_5parse5Parse5parse, symObjAddr: 0xDF60, symBinAddr: 0x53C50, symSize: 0x3C0 }
  - { offset: 0x11CE55, size: 0x8, addend: 0x0, symName: __RNvXse_NtNtCsATtFUPiRFW_3syn4item7parsingNtB7_17ForeignItemStaticNtNtB9_5parse5Parse5parse, symObjAddr: 0xE320, symBinAddr: 0x54010, symSize: 0x830 }
  - { offset: 0x11CFFC, size: 0x8, addend: 0x0, symName: __RNvXsf_NtNtCsATtFUPiRFW_3syn4item7parsingNtB7_15ForeignItemTypeNtNtB9_5parse5Parse5parse, symObjAddr: 0xEB50, symBinAddr: 0x54840, symSize: 0x744 }
  - { offset: 0x11D18C, size: 0x8, addend: 0x0, symName: __RNvXsg_NtNtCsATtFUPiRFW_3syn4item7parsingNtB7_16ForeignItemMacroNtNtB9_5parse5Parse5parse, symObjAddr: 0xF294, symBinAddr: 0x54F84, symSize: 0x33C }
  - { offset: 0x11D29F, size: 0x8, addend: 0x0, symName: __RNvXsh_NtNtCsATtFUPiRFW_3syn4item7parsingNtB7_8ItemTypeNtNtB9_5parse5Parse5parse, symObjAddr: 0xF5D0, symBinAddr: 0x552C0, symSize: 0x9D4 }
  - { offset: 0x11D48B, size: 0x8, addend: 0x0, symName: __RNvXsi_NtNtCsATtFUPiRFW_3syn4item7parsingNtB7_10ItemStructNtNtB9_5parse5Parse5parse, symObjAddr: 0xFFA4, symBinAddr: 0x55C94, symSize: 0x650 }
  - { offset: 0x11D686, size: 0x8, addend: 0x0, symName: __RNvXsj_NtNtCsATtFUPiRFW_3syn4item7parsingNtB7_8ItemEnumNtNtB9_5parse5Parse5parse, symObjAddr: 0x105F4, symBinAddr: 0x562E4, symSize: 0x650 }
  - { offset: 0x11D881, size: 0x8, addend: 0x0, symName: __RNvXsk_NtNtCsATtFUPiRFW_3syn4item7parsingNtB7_9ItemUnionNtNtB9_5parse5Parse5parse, symObjAddr: 0x10C44, symBinAddr: 0x56934, symSize: 0x640 }
  - { offset: 0x11DA6C, size: 0x8, addend: 0x0, symName: __RNvXsl_NtNtCsATtFUPiRFW_3syn4item7parsingNtB7_9ItemTraitNtNtB9_5parse5Parse5parse, symObjAddr: 0x11284, symBinAddr: 0x56F74, symSize: 0x640 }
  - { offset: 0x11DC70, size: 0x8, addend: 0x0, symName: __RNvXsm_NtNtCsATtFUPiRFW_3syn4item7parsingNtB7_14ItemTraitAliasNtNtB9_5parse5Parse5parse, symObjAddr: 0x118C4, symBinAddr: 0x575B4, symSize: 0x270 }
  - { offset: 0x11DD24, size: 0x8, addend: 0x0, symName: __RNvXsn_NtNtCsATtFUPiRFW_3syn4item7parsingNtB7_9TraitItemNtNtB9_5parse5Parse5parse, symObjAddr: 0x11B34, symBinAddr: 0x57824, symSize: 0x1690 }
  - { offset: 0x11E192, size: 0x8, addend: 0x0, symName: __RNvXso_NtNtCsATtFUPiRFW_3syn4item7parsingNtB7_14TraitItemConstNtNtB9_5parse5Parse5parse, symObjAddr: 0x131C4, symBinAddr: 0x58EB4, symSize: 0x88C }
  - { offset: 0x11E3D4, size: 0x8, addend: 0x0, symName: __RNvXsp_NtNtCsATtFUPiRFW_3syn4item7parsingNtB7_11TraitItemFnNtNtB9_5parse5Parse5parse, symObjAddr: 0x13A50, symBinAddr: 0x59740, symSize: 0x800 }
  - { offset: 0x11E5D4, size: 0x8, addend: 0x0, symName: __RNvXsq_NtNtCsATtFUPiRFW_3syn4item7parsingNtB7_13TraitItemTypeNtNtB9_5parse5Parse5parse, symObjAddr: 0x14250, symBinAddr: 0x59F40, symSize: 0x730 }
  - { offset: 0x11E7FA, size: 0x8, addend: 0x0, symName: __RNvXsr_NtNtCsATtFUPiRFW_3syn4item7parsingNtB7_14TraitItemMacroNtNtB9_5parse5Parse5parse, symObjAddr: 0x14980, symBinAddr: 0x5A670, symSize: 0x33C }
  - { offset: 0x11E90D, size: 0x8, addend: 0x0, symName: __RNvXss_NtNtCsATtFUPiRFW_3syn4item7parsingNtB7_8ItemImplNtNtB9_5parse5Parse5parse, symObjAddr: 0x14CBC, symBinAddr: 0x5A9AC, symSize: 0x60 }
  - { offset: 0x11E95E, size: 0x8, addend: 0x0, symName: __RNvXst_NtNtCsATtFUPiRFW_3syn4item7parsingNtB7_8ImplItemNtNtB9_5parse5Parse5parse, symObjAddr: 0x14D1C, symBinAddr: 0x5AA0C, symSize: 0x1AC8 }
  - { offset: 0x11EE77, size: 0x8, addend: 0x0, symName: __RNvXsu_NtNtCsATtFUPiRFW_3syn4item7parsingNtB7_13ImplItemConstNtNtB9_5parse5Parse5parse, symObjAddr: 0x167E4, symBinAddr: 0x5C4D4, symSize: 0x9D0 }
  - { offset: 0x11F132, size: 0x8, addend: 0x0, symName: __RNvXsv_NtNtCsATtFUPiRFW_3syn4item7parsingNtB7_10ImplItemFnNtNtB9_5parse5Parse5parse, symObjAddr: 0x171B4, symBinAddr: 0x5CEA4, symSize: 0x60 }
  - { offset: 0x11F183, size: 0x8, addend: 0x0, symName: __RNvXsw_NtNtCsATtFUPiRFW_3syn4item7parsingNtB7_12ImplItemTypeNtNtB9_5parse5Parse5parse, symObjAddr: 0x17214, symBinAddr: 0x5CF04, symSize: 0x844 }
  - { offset: 0x11F411, size: 0x8, addend: 0x0, symName: __RNvXsx_NtNtCsATtFUPiRFW_3syn4item7parsingNtB7_13ImplItemMacroNtNtB9_5parse5Parse5parse, symObjAddr: 0x17A58, symBinAddr: 0x5D748, symSize: 0x33C }
  - { offset: 0x11F524, size: 0x8, addend: 0x0, symName: __RNvXsz_NtNtCsATtFUPiRFW_3syn4item7parsingNtB7_16StaticMutabilityNtNtB9_5parse5Parse5parse, symObjAddr: 0x17D94, symBinAddr: 0x5DA84, symSize: 0xDC }
  - { offset: 0x11F5FB, size: 0x8, addend: 0x0, symName: __RNvXNtNtCsATtFUPiRFW_3syn4item8printingNtB4_15ItemExternCrateNtNtCs62MdaZFMefA_5quote9to_tokens8ToTokens9to_tokens, symObjAddr: 0x17E70, symBinAddr: 0x5DB60, symSize: 0x110 }
  - { offset: 0x11F668, size: 0x8, addend: 0x0, symName: __RNvXs_NtNtCsATtFUPiRFW_3syn4item8printingNtB6_7ItemUseNtNtCs62MdaZFMefA_5quote9to_tokens8ToTokens9to_tokens, symObjAddr: 0x17F80, symBinAddr: 0x5DC70, symSize: 0xA4 }
  - { offset: 0x11F6A7, size: 0x8, addend: 0x0, symName: __RNvXs0_NtNtCsATtFUPiRFW_3syn4item8printingNtB7_10ItemStaticNtNtCs62MdaZFMefA_5quote9to_tokens8ToTokens9to_tokens, symObjAddr: 0x18024, symBinAddr: 0x5DD14, symSize: 0xE4 }
  - { offset: 0x11F6E6, size: 0x8, addend: 0x0, symName: __RNvXs1_NtNtCsATtFUPiRFW_3syn4item8printingNtB7_9ItemConstNtNtCs62MdaZFMefA_5quote9to_tokens8ToTokens9to_tokens, symObjAddr: 0x18108, symBinAddr: 0x5DDF8, symSize: 0xD4 }
  - { offset: 0x11F725, size: 0x8, addend: 0x0, symName: __RNvXs2_NtNtCsATtFUPiRFW_3syn4item8printingNtB7_6ItemFnNtNtCs62MdaZFMefA_5quote9to_tokens8ToTokens9to_tokens, symObjAddr: 0x181DC, symBinAddr: 0x5DECC, symSize: 0x8C }
  - { offset: 0x11F764, size: 0x8, addend: 0x0, symName: __RNvXs3_NtNtCsATtFUPiRFW_3syn4item8printingNtB7_7ItemModNtNtCs62MdaZFMefA_5quote9to_tokens8ToTokens9to_tokens, symObjAddr: 0x18268, symBinAddr: 0x5DF58, symSize: 0x110 }
  - { offset: 0x11F7D1, size: 0x8, addend: 0x0, symName: __RNvXs4_NtNtCsATtFUPiRFW_3syn4item8printingNtB7_14ItemForeignModNtNtCs62MdaZFMefA_5quote9to_tokens8ToTokens9to_tokens, symObjAddr: 0x18378, symBinAddr: 0x5E068, symSize: 0x88 }
  - { offset: 0x11F810, size: 0x8, addend: 0x0, symName: __RNvXs5_NtNtCsATtFUPiRFW_3syn4item8printingNtB7_8ItemTypeNtNtCs62MdaZFMefA_5quote9to_tokens8ToTokens9to_tokens, symObjAddr: 0x18400, symBinAddr: 0x5E0F0, symSize: 0xD4 }
  - { offset: 0x11F84F, size: 0x8, addend: 0x0, symName: __RNvXs6_NtNtCsATtFUPiRFW_3syn4item8printingNtB7_8ItemEnumNtNtCs62MdaZFMefA_5quote9to_tokens8ToTokens9to_tokens, symObjAddr: 0x184D4, symBinAddr: 0x5E1C4, symSize: 0xB8 }
  - { offset: 0x11F88E, size: 0x8, addend: 0x0, symName: __RNvXs7_NtNtCsATtFUPiRFW_3syn4item8printingNtB7_10ItemStructNtNtCs62MdaZFMefA_5quote9to_tokens8ToTokens9to_tokens, symObjAddr: 0x1858C, symBinAddr: 0x5E27C, symSize: 0x188 }
  - { offset: 0x11F909, size: 0x8, addend: 0x0, symName: __RNvXs8_NtNtCsATtFUPiRFW_3syn4item8printingNtB7_9ItemUnionNtNtCs62MdaZFMefA_5quote9to_tokens8ToTokens9to_tokens, symObjAddr: 0x18714, symBinAddr: 0x5E404, symSize: 0xB4 }
  - { offset: 0x11F948, size: 0x8, addend: 0x0, symName: __RNvXs9_NtNtCsATtFUPiRFW_3syn4item8printingNtB7_9ItemTraitNtNtCs62MdaZFMefA_5quote9to_tokens8ToTokens9to_tokens, symObjAddr: 0x187C8, symBinAddr: 0x5E4B8, symSize: 0x130 }
  - { offset: 0x11F987, size: 0x8, addend: 0x0, symName: __RNvXsa_NtNtCsATtFUPiRFW_3syn4item8printingNtB7_14ItemTraitAliasNtNtCs62MdaZFMefA_5quote9to_tokens8ToTokens9to_tokens, symObjAddr: 0x188F8, symBinAddr: 0x5E5E8, symSize: 0xD4 }
  - { offset: 0x11F9C6, size: 0x8, addend: 0x0, symName: __RNvXsb_NtNtCsATtFUPiRFW_3syn4item8printingNtB7_8ItemImplNtNtCs62MdaZFMefA_5quote9to_tokens8ToTokens9to_tokens, symObjAddr: 0x189CC, symBinAddr: 0x5E6BC, symSize: 0x14C }
  - { offset: 0x11FA43, size: 0x8, addend: 0x0, symName: __RNvXsc_NtNtCsATtFUPiRFW_3syn4item8printingNtB7_9ItemMacroNtNtCs62MdaZFMefA_5quote9to_tokens8ToTokens9to_tokens, symObjAddr: 0x18B18, symBinAddr: 0x5E808, symSize: 0x148 }
  - { offset: 0x11FAD4, size: 0x8, addend: 0x0, symName: __RNvXsd_NtNtCsATtFUPiRFW_3syn4item8printingNtB7_7UsePathNtNtCs62MdaZFMefA_5quote9to_tokens8ToTokens9to_tokens, symObjAddr: 0x18C60, symBinAddr: 0x5E950, symSize: 0x60 }
  - { offset: 0x11FB13, size: 0x8, addend: 0x0, symName: __RNvXse_NtNtCsATtFUPiRFW_3syn4item8printingNtB7_7UseNameNtNtCs62MdaZFMefA_5quote9to_tokens8ToTokens9to_tokens, symObjAddr: 0x18CC0, symBinAddr: 0x5E9B0, symSize: 0x3C }
  - { offset: 0x11FB52, size: 0x8, addend: 0x0, symName: __RNvXsf_NtNtCsATtFUPiRFW_3syn4item8printingNtB7_9UseRenameNtNtCs62MdaZFMefA_5quote9to_tokens8ToTokens9to_tokens, symObjAddr: 0x18CFC, symBinAddr: 0x5E9EC, symSize: 0x60 }
  - { offset: 0x11FB91, size: 0x8, addend: 0x0, symName: __RNvXsg_NtNtCsATtFUPiRFW_3syn4item8printingNtB7_7UseGlobNtNtCs62MdaZFMefA_5quote9to_tokens8ToTokens9to_tokens, symObjAddr: 0x18D5C, symBinAddr: 0x5EA4C, symSize: 0x3C }
  - { offset: 0x11FBD0, size: 0x8, addend: 0x0, symName: __RNvXsh_NtNtCsATtFUPiRFW_3syn4item8printingNtB7_8UseGroupNtNtCs62MdaZFMefA_5quote9to_tokens8ToTokens9to_tokens, symObjAddr: 0x18D98, symBinAddr: 0x5EA88, symSize: 0x44 }
  - { offset: 0x11FC0F, size: 0x8, addend: 0x0, symName: __RNvXsi_NtNtCsATtFUPiRFW_3syn4item8printingNtB7_14TraitItemConstNtNtCs62MdaZFMefA_5quote9to_tokens8ToTokens9to_tokens, symObjAddr: 0x18DDC, symBinAddr: 0x5EACC, symSize: 0x110 }
  - { offset: 0x11FC7C, size: 0x8, addend: 0x0, symName: __RNvXsj_NtNtCsATtFUPiRFW_3syn4item8printingNtB7_11TraitItemFnNtNtCs62MdaZFMefA_5quote9to_tokens8ToTokens9to_tokens, symObjAddr: 0x18EEC, symBinAddr: 0x5EBDC, symSize: 0xD4 }
  - { offset: 0x11FCD9, size: 0x8, addend: 0x0, symName: __RNvXsk_NtNtCsATtFUPiRFW_3syn4item8printingNtB7_13TraitItemTypeNtNtCs62MdaZFMefA_5quote9to_tokens8ToTokens9to_tokens, symObjAddr: 0x18FC0, symBinAddr: 0x5ECB0, symSize: 0x168 }
  - { offset: 0x11FD46, size: 0x8, addend: 0x0, symName: __RNvXsl_NtNtCsATtFUPiRFW_3syn4item8printingNtB7_14TraitItemMacroNtNtCs62MdaZFMefA_5quote9to_tokens8ToTokens9to_tokens, symObjAddr: 0x19128, symBinAddr: 0x5EE18, symSize: 0x74 }
  - { offset: 0x11FD85, size: 0x8, addend: 0x0, symName: __RNvXsm_NtNtCsATtFUPiRFW_3syn4item8printingNtB7_13ImplItemConstNtNtCs62MdaZFMefA_5quote9to_tokens8ToTokens9to_tokens, symObjAddr: 0x1919C, symBinAddr: 0x5EE8C, symSize: 0xE4 }
  - { offset: 0x11FDC4, size: 0x8, addend: 0x0, symName: __RNvXsn_NtNtCsATtFUPiRFW_3syn4item8printingNtB7_10ImplItemFnNtNtCs62MdaZFMefA_5quote9to_tokens8ToTokens9to_tokens, symObjAddr: 0x19280, symBinAddr: 0x5EF70, symSize: 0x98 }
  - { offset: 0x11FE03, size: 0x8, addend: 0x0, symName: __RNvXso_NtNtCsATtFUPiRFW_3syn4item8printingNtB7_12ImplItemTypeNtNtCs62MdaZFMefA_5quote9to_tokens8ToTokens9to_tokens, symObjAddr: 0x19318, symBinAddr: 0x5F008, symSize: 0xE4 }
  - { offset: 0x11FE42, size: 0x8, addend: 0x0, symName: __RNvXsp_NtNtCsATtFUPiRFW_3syn4item8printingNtB7_13ImplItemMacroNtNtCs62MdaZFMefA_5quote9to_tokens8ToTokens9to_tokens, symObjAddr: 0x193FC, symBinAddr: 0x5F0EC, symSize: 0x74 }
  - { offset: 0x11FE81, size: 0x8, addend: 0x0, symName: __RNvXsq_NtNtCsATtFUPiRFW_3syn4item8printingNtB7_13ForeignItemFnNtNtCs62MdaZFMefA_5quote9to_tokens8ToTokens9to_tokens, symObjAddr: 0x19470, symBinAddr: 0x5F160, symSize: 0x84 }
  - { offset: 0x11FEC0, size: 0x8, addend: 0x0, symName: __RNvXsr_NtNtCsATtFUPiRFW_3syn4item8printingNtB7_17ForeignItemStaticNtNtCs62MdaZFMefA_5quote9to_tokens8ToTokens9to_tokens, symObjAddr: 0x194F4, symBinAddr: 0x5F1E4, symSize: 0xC4 }
  - { offset: 0x11FEFF, size: 0x8, addend: 0x0, symName: __RNvXss_NtNtCsATtFUPiRFW_3syn4item8printingNtB7_15ForeignItemTypeNtNtCs62MdaZFMefA_5quote9to_tokens8ToTokens9to_tokens, symObjAddr: 0x195B8, symBinAddr: 0x5F2A8, symSize: 0xB4 }
  - { offset: 0x11FF3E, size: 0x8, addend: 0x0, symName: __RNvXst_NtNtCsATtFUPiRFW_3syn4item8printingNtB7_16ForeignItemMacroNtNtCs62MdaZFMefA_5quote9to_tokens8ToTokens9to_tokens, symObjAddr: 0x1966C, symBinAddr: 0x5F35C, symSize: 0x74 }
  - { offset: 0x11FF7D, size: 0x8, addend: 0x0, symName: __RNvXsu_NtNtCsATtFUPiRFW_3syn4item8printingNtB7_9SignatureNtNtCs62MdaZFMefA_5quote9to_tokens8ToTokens9to_tokens, symObjAddr: 0x196E0, symBinAddr: 0x5F3D0, symSize: 0xD4 }
  - { offset: 0x11FFBC, size: 0x8, addend: 0x0, symName: __RNvXsv_NtNtCsATtFUPiRFW_3syn4item8printingNtB7_8ReceiverNtNtCs62MdaZFMefA_5quote9to_tokens8ToTokens9to_tokens, symObjAddr: 0x197B4, symBinAddr: 0x5F4A4, symSize: 0x40C }
  - { offset: 0x1200B1, size: 0x8, addend: 0x0, symName: __RNvXsw_NtNtCsATtFUPiRFW_3syn4item8printingNtB7_8VariadicNtNtCs62MdaZFMefA_5quote9to_tokens8ToTokens9to_tokens, symObjAddr: 0x19BC0, symBinAddr: 0x5F8B0, symSize: 0xE0 }
  - { offset: 0x12011E, size: 0x8, addend: 0x0, symName: __RNvXsx_NtNtCsATtFUPiRFW_3syn4item8printingNtB7_16StaticMutabilityNtNtCs62MdaZFMefA_5quote9to_tokens8ToTokens9to_tokens, symObjAddr: 0x19CA0, symBinAddr: 0x5F990, symSize: 0x7C }
  - { offset: 0x120181, size: 0x8, addend: 0x0, symName: __RNcNtNtNtCsATtFUPiRFW_3syn4item4Item4Enum0B7_, symObjAddr: 0x19D1C, symBinAddr: 0x5FA0C, symSize: 0x3C }
  - { offset: 0x1201B0, size: 0x8, addend: 0x0, symName: __RNcNtNtNtCsATtFUPiRFW_3syn4item4Item11ExternCrate0B7_, symObjAddr: 0x19D58, symBinAddr: 0x5FA48, symSize: 0x3C }
  - { offset: 0x1201DF, size: 0x8, addend: 0x0, symName: __RNcNtNtNtCsATtFUPiRFW_3syn4item4Item2Fn0B7_, symObjAddr: 0x19D94, symBinAddr: 0x5FA84, symSize: 0x30 }
  - { offset: 0x12020E, size: 0x8, addend: 0x0, symName: __RNcNtNtNtCsATtFUPiRFW_3syn4item4Item10ForeignMod0B7_, symObjAddr: 0x19DC4, symBinAddr: 0x5FAB4, symSize: 0x3C }
  - { offset: 0x12023D, size: 0x8, addend: 0x0, symName: __RNcNtNtNtCsATtFUPiRFW_3syn4item4Item5Macro0B7_, symObjAddr: 0x19E00, symBinAddr: 0x5FAF0, symSize: 0x3C }
  - { offset: 0x12026C, size: 0x8, addend: 0x0, symName: __RNcNtNtNtCsATtFUPiRFW_3syn4item4Item3Mod0B7_, symObjAddr: 0x19E3C, symBinAddr: 0x5FB2C, symSize: 0x3C }
  - { offset: 0x12029B, size: 0x8, addend: 0x0, symName: __RNcNtNtNtCsATtFUPiRFW_3syn4item4Item6Struct0B7_, symObjAddr: 0x19E78, symBinAddr: 0x5FB68, symSize: 0x3C }
  - { offset: 0x1202CA, size: 0x8, addend: 0x0, symName: __RNcNtNtNtCsATtFUPiRFW_3syn4item4Item5Trait0B7_, symObjAddr: 0x19EB4, symBinAddr: 0x5FBA4, symSize: 0x3C }
  - { offset: 0x1202F9, size: 0x8, addend: 0x0, symName: __RNcNtNtNtCsATtFUPiRFW_3syn4item4Item10TraitAlias0B7_, symObjAddr: 0x19EF0, symBinAddr: 0x5FBE0, symSize: 0x3C }
  - { offset: 0x120328, size: 0x8, addend: 0x0, symName: __RNcNtNtNtCsATtFUPiRFW_3syn4item4Item5Union0B7_, symObjAddr: 0x19F2C, symBinAddr: 0x5FC1C, symSize: 0x3C }
  - { offset: 0x120358, size: 0x8, addend: 0x0, symName: __RNvXs5_NtCsATtFUPiRFW_3syn4itemNtB5_4ItemINtNtCs9f3LFPSIp77_4core7convert4FromNtB5_9ItemConstE4from, symObjAddr: 0x19F68, symBinAddr: 0x5FC58, symSize: 0x4C }
  - { offset: 0x12038B, size: 0x8, addend: 0x0, symName: __RNvXs6_NtCsATtFUPiRFW_3syn4itemNtB5_4ItemINtNtCs9f3LFPSIp77_4core7convert4FromNtB5_8ItemEnumE4from, symObjAddr: 0x19FB4, symBinAddr: 0x5FCA4, symSize: 0x4C }
  - { offset: 0x1203BE, size: 0x8, addend: 0x0, symName: __RNvXs7_NtCsATtFUPiRFW_3syn4itemNtB5_4ItemINtNtCs9f3LFPSIp77_4core7convert4FromNtB5_15ItemExternCrateE4from, symObjAddr: 0x1A000, symBinAddr: 0x5FCF0, symSize: 0x4C }
  - { offset: 0x1203F1, size: 0x8, addend: 0x0, symName: __RNvXs8_NtCsATtFUPiRFW_3syn4itemNtB5_4ItemINtNtCs9f3LFPSIp77_4core7convert4FromNtB5_6ItemFnE4from, symObjAddr: 0x1A04C, symBinAddr: 0x5FD3C, symSize: 0x40 }
  - { offset: 0x120424, size: 0x8, addend: 0x0, symName: __RNvXs9_NtCsATtFUPiRFW_3syn4itemNtB5_4ItemINtNtCs9f3LFPSIp77_4core7convert4FromNtB5_14ItemForeignModE4from, symObjAddr: 0x1A08C, symBinAddr: 0x5FD7C, symSize: 0x4C }
  - { offset: 0x120457, size: 0x8, addend: 0x0, symName: __RNvXsa_NtCsATtFUPiRFW_3syn4itemNtB5_4ItemINtNtCs9f3LFPSIp77_4core7convert4FromNtB5_8ItemImplE4from, symObjAddr: 0x1A0D8, symBinAddr: 0x5FDC8, symSize: 0x4C }
  - { offset: 0x12048A, size: 0x8, addend: 0x0, symName: __RNvXsb_NtCsATtFUPiRFW_3syn4itemNtB5_4ItemINtNtCs9f3LFPSIp77_4core7convert4FromNtB5_9ItemMacroE4from, symObjAddr: 0x1A124, symBinAddr: 0x5FE14, symSize: 0x4C }
  - { offset: 0x1204BD, size: 0x8, addend: 0x0, symName: __RNvXsc_NtCsATtFUPiRFW_3syn4itemNtB5_4ItemINtNtCs9f3LFPSIp77_4core7convert4FromNtB5_7ItemModE4from, symObjAddr: 0x1A170, symBinAddr: 0x5FE60, symSize: 0x4C }
  - { offset: 0x1204F0, size: 0x8, addend: 0x0, symName: __RNvXsd_NtCsATtFUPiRFW_3syn4itemNtB5_4ItemINtNtCs9f3LFPSIp77_4core7convert4FromNtB5_10ItemStaticE4from, symObjAddr: 0x1A1BC, symBinAddr: 0x5FEAC, symSize: 0x4C }
  - { offset: 0x120523, size: 0x8, addend: 0x0, symName: __RNvXse_NtCsATtFUPiRFW_3syn4itemNtB5_4ItemINtNtCs9f3LFPSIp77_4core7convert4FromNtB5_10ItemStructE4from, symObjAddr: 0x1A208, symBinAddr: 0x5FEF8, symSize: 0x4C }
  - { offset: 0x120556, size: 0x8, addend: 0x0, symName: __RNvXsf_NtCsATtFUPiRFW_3syn4itemNtB5_4ItemINtNtCs9f3LFPSIp77_4core7convert4FromNtB5_9ItemTraitE4from, symObjAddr: 0x1A254, symBinAddr: 0x5FF44, symSize: 0x4C }
  - { offset: 0x120589, size: 0x8, addend: 0x0, symName: __RNvXsg_NtCsATtFUPiRFW_3syn4itemNtB5_4ItemINtNtCs9f3LFPSIp77_4core7convert4FromNtB5_14ItemTraitAliasE4from, symObjAddr: 0x1A2A0, symBinAddr: 0x5FF90, symSize: 0x4C }
  - { offset: 0x1205BC, size: 0x8, addend: 0x0, symName: __RNvXsh_NtCsATtFUPiRFW_3syn4itemNtB5_4ItemINtNtCs9f3LFPSIp77_4core7convert4FromNtB5_8ItemTypeE4from, symObjAddr: 0x1A2EC, symBinAddr: 0x5FFDC, symSize: 0x4C }
  - { offset: 0x1205EF, size: 0x8, addend: 0x0, symName: __RNvXsi_NtCsATtFUPiRFW_3syn4itemNtB5_4ItemINtNtCs9f3LFPSIp77_4core7convert4FromNtB5_9ItemUnionE4from, symObjAddr: 0x1A338, symBinAddr: 0x60028, symSize: 0x4C }
  - { offset: 0x120622, size: 0x8, addend: 0x0, symName: __RNvXsj_NtCsATtFUPiRFW_3syn4itemNtB5_4ItemINtNtCs9f3LFPSIp77_4core7convert4FromNtB5_7ItemUseE4from, symObjAddr: 0x1A384, symBinAddr: 0x60074, symSize: 0x4C }
  - { offset: 0x120655, size: 0x8, addend: 0x0, symName: __RNvXsk_NtCsATtFUPiRFW_3syn4itemNtB5_4ItemNtNtCs62MdaZFMefA_5quote9to_tokens8ToTokens9to_tokens, symObjAddr: 0x1A3D0, symBinAddr: 0x600C0, symSize: 0x35C }
  - { offset: 0x12085F, size: 0x8, addend: 0x0, symName: __RNvXsl_NtCsATtFUPiRFW_3syn4itemNtB5_7UseTreeINtNtCs9f3LFPSIp77_4core7convert4FromNtB5_7UsePathE4from, symObjAddr: 0x1A72C, symBinAddr: 0x6041C, symSize: 0x48 }
  - { offset: 0x120892, size: 0x8, addend: 0x0, symName: __RNvXsm_NtCsATtFUPiRFW_3syn4itemNtB5_7UseTreeINtNtCs9f3LFPSIp77_4core7convert4FromNtB5_7UseNameE4from, symObjAddr: 0x1A774, symBinAddr: 0x60464, symSize: 0x30 }
  - { offset: 0x1208C4, size: 0x8, addend: 0x0, symName: __RNvXsn_NtCsATtFUPiRFW_3syn4itemNtB5_7UseTreeINtNtCs9f3LFPSIp77_4core7convert4FromNtB5_9UseRenameE4from, symObjAddr: 0x1A7A4, symBinAddr: 0x60494, symSize: 0x4C }
  - { offset: 0x1208F7, size: 0x8, addend: 0x0, symName: __RNvXso_NtCsATtFUPiRFW_3syn4itemNtB5_7UseTreeINtNtCs9f3LFPSIp77_4core7convert4FromNtB5_7UseGlobE4from, symObjAddr: 0x1A7F0, symBinAddr: 0x604E0, symSize: 0x3C }
  - { offset: 0x120929, size: 0x8, addend: 0x0, symName: __RNvXsp_NtCsATtFUPiRFW_3syn4itemNtB5_7UseTreeINtNtCs9f3LFPSIp77_4core7convert4FromNtB5_8UseGroupE4from, symObjAddr: 0x1A82C, symBinAddr: 0x6051C, symSize: 0x4C }
  - { offset: 0x12095C, size: 0x8, addend: 0x0, symName: __RNvXsq_NtCsATtFUPiRFW_3syn4itemNtB5_7UseTreeNtNtCs62MdaZFMefA_5quote9to_tokens8ToTokens9to_tokens, symObjAddr: 0x1A878, symBinAddr: 0x60568, symSize: 0x15C }
  - { offset: 0x120A26, size: 0x8, addend: 0x0, symName: __RNcNtNtNtCsATtFUPiRFW_3syn4item11ForeignItem5Macro0B7_, symObjAddr: 0x1A9D4, symBinAddr: 0x606C4, symSize: 0x3C }
  - { offset: 0x120A58, size: 0x8, addend: 0x0, symName: __RNvXsr_NtCsATtFUPiRFW_3syn4itemNtB5_11ForeignItemINtNtCs9f3LFPSIp77_4core7convert4FromNtB5_13ForeignItemFnE4from, symObjAddr: 0x1AA10, symBinAddr: 0x60700, symSize: 0x40 }
  - { offset: 0x120A8B, size: 0x8, addend: 0x0, symName: __RNvXss_NtCsATtFUPiRFW_3syn4itemNtB5_11ForeignItemINtNtCs9f3LFPSIp77_4core7convert4FromNtB5_17ForeignItemStaticE4from, symObjAddr: 0x1AA50, symBinAddr: 0x60740, symSize: 0x4C }
  - { offset: 0x120ABE, size: 0x8, addend: 0x0, symName: __RNvXst_NtCsATtFUPiRFW_3syn4itemNtB5_11ForeignItemINtNtCs9f3LFPSIp77_4core7convert4FromNtB5_15ForeignItemTypeE4from, symObjAddr: 0x1AA9C, symBinAddr: 0x6078C, symSize: 0x4C }
  - { offset: 0x120AF1, size: 0x8, addend: 0x0, symName: __RNvXsu_NtCsATtFUPiRFW_3syn4itemNtB5_11ForeignItemINtNtCs9f3LFPSIp77_4core7convert4FromNtB5_16ForeignItemMacroE4from, symObjAddr: 0x1AAE8, symBinAddr: 0x607D8, symSize: 0x4C }
  - { offset: 0x120B24, size: 0x8, addend: 0x0, symName: __RNvXsv_NtCsATtFUPiRFW_3syn4itemNtB5_11ForeignItemNtNtCs62MdaZFMefA_5quote9to_tokens8ToTokens9to_tokens, symObjAddr: 0x1AB34, symBinAddr: 0x60824, symSize: 0x168 }
  - { offset: 0x120BEE, size: 0x8, addend: 0x0, symName: __RNcNtNtNtCsATtFUPiRFW_3syn4item9TraitItem2Fn0B7_, symObjAddr: 0x1AC9C, symBinAddr: 0x6098C, symSize: 0x3C }
  - { offset: 0x120C1F, size: 0x8, addend: 0x0, symName: __RNcNtNtNtCsATtFUPiRFW_3syn4item9TraitItem5Macro0B7_, symObjAddr: 0x1ACD8, symBinAddr: 0x609C8, symSize: 0x3C }
  - { offset: 0x120C51, size: 0x8, addend: 0x0, symName: __RNvXsw_NtCsATtFUPiRFW_3syn4itemNtB5_9TraitItemINtNtCs9f3LFPSIp77_4core7convert4FromNtB5_14TraitItemConstE4from, symObjAddr: 0x1AD14, symBinAddr: 0x60A04, symSize: 0x40 }
  - { offset: 0x120C84, size: 0x8, addend: 0x0, symName: __RNvXsx_NtCsATtFUPiRFW_3syn4itemNtB5_9TraitItemINtNtCs9f3LFPSIp77_4core7convert4FromNtB5_11TraitItemFnE4from, symObjAddr: 0x1AD54, symBinAddr: 0x60A44, symSize: 0x4C }
  - { offset: 0x120CB7, size: 0x8, addend: 0x0, symName: __RNvXsy_NtCsATtFUPiRFW_3syn4itemNtB5_9TraitItemINtNtCs9f3LFPSIp77_4core7convert4FromNtB5_13TraitItemTypeE4from, symObjAddr: 0x1ADA0, symBinAddr: 0x60A90, symSize: 0x4C }
  - { offset: 0x120CEA, size: 0x8, addend: 0x0, symName: __RNvXsz_NtCsATtFUPiRFW_3syn4itemNtB5_9TraitItemINtNtCs9f3LFPSIp77_4core7convert4FromNtB5_14TraitItemMacroE4from, symObjAddr: 0x1ADEC, symBinAddr: 0x60ADC, symSize: 0x4C }
  - { offset: 0x120D1D, size: 0x8, addend: 0x0, symName: __RNvXsA_NtCsATtFUPiRFW_3syn4itemNtB5_9TraitItemNtNtCs62MdaZFMefA_5quote9to_tokens8ToTokens9to_tokens, symObjAddr: 0x1AE38, symBinAddr: 0x60B28, symSize: 0x168 }
  - { offset: 0x120DE7, size: 0x8, addend: 0x0, symName: __RNcNtNtNtCsATtFUPiRFW_3syn4item8ImplItem5Macro0B7_, symObjAddr: 0x1AFA0, symBinAddr: 0x60C90, symSize: 0x3C }
  - { offset: 0x120E19, size: 0x8, addend: 0x0, symName: __RNvXsB_NtCsATtFUPiRFW_3syn4itemNtB5_8ImplItemINtNtCs9f3LFPSIp77_4core7convert4FromNtB5_13ImplItemConstE4from, symObjAddr: 0x1AFDC, symBinAddr: 0x60CCC, symSize: 0x40 }
  - { offset: 0x120E4C, size: 0x8, addend: 0x0, symName: __RNvXsC_NtCsATtFUPiRFW_3syn4itemNtB5_8ImplItemINtNtCs9f3LFPSIp77_4core7convert4FromNtB5_10ImplItemFnE4from, symObjAddr: 0x1B01C, symBinAddr: 0x60D0C, symSize: 0x4C }
  - { offset: 0x120E7F, size: 0x8, addend: 0x0, symName: __RNvXsD_NtCsATtFUPiRFW_3syn4itemNtB5_8ImplItemINtNtCs9f3LFPSIp77_4core7convert4FromNtB5_12ImplItemTypeE4from, symObjAddr: 0x1B068, symBinAddr: 0x60D58, symSize: 0x4C }
  - { offset: 0x120EB2, size: 0x8, addend: 0x0, symName: __RNvXsE_NtCsATtFUPiRFW_3syn4itemNtB5_8ImplItemINtNtCs9f3LFPSIp77_4core7convert4FromNtB5_13ImplItemMacroE4from, symObjAddr: 0x1B0B4, symBinAddr: 0x60DA4, symSize: 0x4C }
  - { offset: 0x120EE5, size: 0x8, addend: 0x0, symName: __RNvXsF_NtCsATtFUPiRFW_3syn4itemNtB5_8ImplItemNtNtCs62MdaZFMefA_5quote9to_tokens8ToTokens9to_tokens, symObjAddr: 0x1B100, symBinAddr: 0x60DF0, symSize: 0x168 }
  - { offset: 0x120FAA, size: 0x8, addend: 0x0, symName: __RNvXsG_NtCsATtFUPiRFW_3syn4itemNtB5_5FnArgINtNtCs9f3LFPSIp77_4core7convert4FromNtB5_8ReceiverE4from, symObjAddr: 0x1B268, symBinAddr: 0x60F58, symSize: 0x40 }
  - { offset: 0x120FDD, size: 0x8, addend: 0x0, symName: __RNvXsH_NtCsATtFUPiRFW_3syn4itemNtB5_5FnArgINtNtCs9f3LFPSIp77_4core7convert4FromNtNtB7_3pat7PatTypeE4from, symObjAddr: 0x1B2A8, symBinAddr: 0x60F98, symSize: 0x4C }
  - { offset: 0x121010, size: 0x8, addend: 0x0, symName: __RNvXsI_NtCsATtFUPiRFW_3syn4itemNtB5_5FnArgNtNtCs62MdaZFMefA_5quote9to_tokens8ToTokens9to_tokens, symObjAddr: 0x1B2F4, symBinAddr: 0x60FE4, symSize: 0xA0 }
  - { offset: 0x121083, size: 0x8, addend: 0x0, symName: __RNcNtNtNtCsATtFUPiRFW_3syn4item16StaticMutability3Mut0B7_, symObjAddr: 0x1B394, symBinAddr: 0x61084, symSize: 0x20 }
  - { offset: 0x124B31, size: 0x8, addend: 0x0, symName: __RNvXs16_NtNtCsATtFUPiRFW_3syn3gen5cloneNtNtBa_4item5FnArgNtNtCs9f3LFPSIp77_4core5clone5Clone5clone, symObjAddr: 0x1B3B4, symBinAddr: 0x610A4, symSize: 0xDC }
  - { offset: 0x124B99, size: 0x8, addend: 0x0, symName: __RNvXs17_NtNtCsATtFUPiRFW_3syn3gen5cloneNtNtBa_4item11ForeignItemNtNtCs9f3LFPSIp77_4core5clone5Clone5clone, symObjAddr: 0x1B490, symBinAddr: 0x61180, symSize: 0x224 }
  - { offset: 0x124C5B, size: 0x8, addend: 0x0, symName: __RNvXs18_NtNtCsATtFUPiRFW_3syn3gen5cloneNtNtBa_4item13ForeignItemFnNtNtCs9f3LFPSIp77_4core5clone5Clone5clone, symObjAddr: 0x1B6B4, symBinAddr: 0x613A4, symSize: 0x134 }
  - { offset: 0x124C8F, size: 0x8, addend: 0x0, symName: __RNvXs19_NtNtCsATtFUPiRFW_3syn3gen5cloneNtNtBa_4item16ForeignItemMacroNtNtCs9f3LFPSIp77_4core5clone5Clone5clone, symObjAddr: 0x1B7E8, symBinAddr: 0x614D8, symSize: 0xEC }
  - { offset: 0x124CC3, size: 0x8, addend: 0x0, symName: __RNvXs1a_NtNtCsATtFUPiRFW_3syn3gen5cloneNtNtBa_4item17ForeignItemStaticNtNtCs9f3LFPSIp77_4core5clone5Clone5clone, symObjAddr: 0x1B8D4, symBinAddr: 0x615C4, symSize: 0x1D4 }
  - { offset: 0x124CF7, size: 0x8, addend: 0x0, symName: __RNvXs1b_NtNtCsATtFUPiRFW_3syn3gen5cloneNtNtBa_4item15ForeignItemTypeNtNtCs9f3LFPSIp77_4core5clone5Clone5clone, symObjAddr: 0x1BAA8, symBinAddr: 0x61798, symSize: 0x190 }
  - { offset: 0x124D2B, size: 0x8, addend: 0x0, symName: __RNvXs1f_NtNtCsATtFUPiRFW_3syn3gen5cloneNtNtBa_4item8ImplItemNtNtCs9f3LFPSIp77_4core5clone5Clone5clone, symObjAddr: 0x1BC38, symBinAddr: 0x61928, symSize: 0x21C }
  - { offset: 0x124DED, size: 0x8, addend: 0x0, symName: __RNvXs1g_NtNtCsATtFUPiRFW_3syn3gen5cloneNtNtBa_4item13ImplItemConstNtNtCs9f3LFPSIp77_4core5clone5Clone5clone, symObjAddr: 0x1BE54, symBinAddr: 0x61B44, symSize: 0x2A4 }
  - { offset: 0x124E21, size: 0x8, addend: 0x0, symName: __RNvXs1h_NtNtCsATtFUPiRFW_3syn3gen5cloneNtNtBa_4item10ImplItemFnNtNtCs9f3LFPSIp77_4core5clone5Clone5clone, symObjAddr: 0x1C0F8, symBinAddr: 0x61DE8, symSize: 0x158 }
  - { offset: 0x124E55, size: 0x8, addend: 0x0, symName: __RNvXs1i_NtNtCsATtFUPiRFW_3syn3gen5cloneNtNtBa_4item13ImplItemMacroNtNtCs9f3LFPSIp77_4core5clone5Clone5clone, symObjAddr: 0x1C250, symBinAddr: 0x61F40, symSize: 0xEC }
  - { offset: 0x124E89, size: 0x8, addend: 0x0, symName: __RNvXs1j_NtNtCsATtFUPiRFW_3syn3gen5cloneNtNtBa_4item12ImplItemTypeNtNtCs9f3LFPSIp77_4core5clone5Clone5clone, symObjAddr: 0x1C33C, symBinAddr: 0x6202C, symSize: 0x230 }
  - { offset: 0x124EBD, size: 0x8, addend: 0x0, symName: __RNvXs1k_NtNtCsATtFUPiRFW_3syn3gen5cloneNtNtBa_4item15ImplRestrictionNtNtCs9f3LFPSIp77_4core5clone5Clone5clone, symObjAddr: 0x1C56C, symBinAddr: 0x6225C, symSize: 0xC }
  - { offset: 0x124EED, size: 0x8, addend: 0x0, symName: __RNvXs1m_NtNtCsATtFUPiRFW_3syn3gen5cloneNtNtBa_4item4ItemNtNtCs9f3LFPSIp77_4core5clone5Clone5clone, symObjAddr: 0x1C578, symBinAddr: 0x62268, symSize: 0x5C8 }
  - { offset: 0x125104, size: 0x8, addend: 0x0, symName: __RNvXs1n_NtNtCsATtFUPiRFW_3syn3gen5cloneNtNtBa_4item9ItemConstNtNtCs9f3LFPSIp77_4core5clone5Clone5clone, symObjAddr: 0x1CB40, symBinAddr: 0x62830, symSize: 0x268 }
  - { offset: 0x125138, size: 0x8, addend: 0x0, symName: __RNvXs1o_NtNtCsATtFUPiRFW_3syn3gen5cloneNtNtBa_4item8ItemEnumNtNtCs9f3LFPSIp77_4core5clone5Clone5clone, symObjAddr: 0x1CDA8, symBinAddr: 0x62A98, symSize: 0x1B8 }
  - { offset: 0x12516C, size: 0x8, addend: 0x0, symName: __RNvXs1p_NtNtCsATtFUPiRFW_3syn3gen5cloneNtNtBa_4item15ItemExternCrateNtNtCs9f3LFPSIp77_4core5clone5Clone5clone, symObjAddr: 0x1CF60, symBinAddr: 0x62C50, symSize: 0x19C }
  - { offset: 0x1251A0, size: 0x8, addend: 0x0, symName: __RNvXs1q_NtNtCsATtFUPiRFW_3syn3gen5cloneNtNtBa_4item6ItemFnNtNtCs9f3LFPSIp77_4core5clone5Clone5clone, symObjAddr: 0x1D0FC, symBinAddr: 0x62DEC, symSize: 0x124 }
  - { offset: 0x1251D4, size: 0x8, addend: 0x0, symName: __RNvXs1r_NtNtCsATtFUPiRFW_3syn3gen5cloneNtNtBa_4item14ItemForeignModNtNtCs9f3LFPSIp77_4core5clone5Clone5clone, symObjAddr: 0x1D220, symBinAddr: 0x62F10, symSize: 0x13C }
  - { offset: 0x125208, size: 0x8, addend: 0x0, symName: __RNvXs1s_NtNtCsATtFUPiRFW_3syn3gen5cloneNtNtBa_4item8ItemImplNtNtCs9f3LFPSIp77_4core5clone5Clone5clone, symObjAddr: 0x1D35C, symBinAddr: 0x6304C, symSize: 0x210 }
  - { offset: 0x12523C, size: 0x8, addend: 0x0, symName: __RNvXs1t_NtNtCsATtFUPiRFW_3syn3gen5cloneNtNtBa_4item9ItemMacroNtNtCs9f3LFPSIp77_4core5clone5Clone5clone, symObjAddr: 0x1D56C, symBinAddr: 0x6325C, symSize: 0x12C }
  - { offset: 0x125270, size: 0x8, addend: 0x0, symName: __RNvXs1u_NtNtCsATtFUPiRFW_3syn3gen5cloneNtNtBa_4item7ItemModNtNtCs9f3LFPSIp77_4core5clone5Clone5clone, symObjAddr: 0x1D698, symBinAddr: 0x63388, symSize: 0x1B0 }
  - { offset: 0x1252A4, size: 0x8, addend: 0x0, symName: __RNvXs1v_NtNtCsATtFUPiRFW_3syn3gen5cloneNtNtBa_4item10ItemStaticNtNtCs9f3LFPSIp77_4core5clone5Clone5clone, symObjAddr: 0x1D848, symBinAddr: 0x63538, symSize: 0x240 }
  - { offset: 0x1252D8, size: 0x8, addend: 0x0, symName: __RNvXs1w_NtNtCsATtFUPiRFW_3syn3gen5cloneNtNtBa_4item10ItemStructNtNtCs9f3LFPSIp77_4core5clone5Clone5clone, symObjAddr: 0x1DA88, symBinAddr: 0x63778, symSize: 0x1D4 }
  - { offset: 0x12530C, size: 0x8, addend: 0x0, symName: __RNvXs1x_NtNtCsATtFUPiRFW_3syn3gen5cloneNtNtBa_4item9ItemTraitNtNtCs9f3LFPSIp77_4core5clone5Clone5clone, symObjAddr: 0x1DC5C, symBinAddr: 0x6394C, symSize: 0x278 }
  - { offset: 0x125340, size: 0x8, addend: 0x0, symName: __RNvXs1y_NtNtCsATtFUPiRFW_3syn3gen5cloneNtNtBa_4item14ItemTraitAliasNtNtCs9f3LFPSIp77_4core5clone5Clone5clone, symObjAddr: 0x1DED4, symBinAddr: 0x63BC4, symSize: 0x1FC }
  - { offset: 0x125374, size: 0x8, addend: 0x0, symName: __RNvXs1z_NtNtCsATtFUPiRFW_3syn3gen5cloneNtNtBa_4item8ItemTypeNtNtCs9f3LFPSIp77_4core5clone5Clone5clone, symObjAddr: 0x1E0D0, symBinAddr: 0x63DC0, symSize: 0x1FC }
  - { offset: 0x1253A8, size: 0x8, addend: 0x0, symName: __RNvXs1A_NtNtCsATtFUPiRFW_3syn3gen5cloneNtNtBa_4item9ItemUnionNtNtCs9f3LFPSIp77_4core5clone5Clone5clone, symObjAddr: 0x1E2CC, symBinAddr: 0x63FBC, symSize: 0x18C }
  - { offset: 0x1253DC, size: 0x8, addend: 0x0, symName: __RNvXs1B_NtNtCsATtFUPiRFW_3syn3gen5cloneNtNtBa_4item7ItemUseNtNtCs9f3LFPSIp77_4core5clone5Clone5clone, symObjAddr: 0x1E458, symBinAddr: 0x64148, symSize: 0x16C }
  - { offset: 0x125410, size: 0x8, addend: 0x0, symName: __RNvXs2b_NtNtCsATtFUPiRFW_3syn3gen5cloneNtNtBa_4item8ReceiverNtNtCs9f3LFPSIp77_4core5clone5Clone5clone, symObjAddr: 0x1E5C4, symBinAddr: 0x642B4, symSize: 0x14C }
  - { offset: 0x125444, size: 0x8, addend: 0x0, symName: __RNvXs2d_NtNtCsATtFUPiRFW_3syn3gen5cloneNtNtBa_4item9SignatureNtNtCs9f3LFPSIp77_4core5clone5Clone5clone, symObjAddr: 0x1E710, symBinAddr: 0x64400, symSize: 0x278 }
  - { offset: 0x125478, size: 0x8, addend: 0x0, symName: __RNvXs2e_NtNtCsATtFUPiRFW_3syn3gen5cloneNtNtBa_4item16StaticMutabilityNtNtCs9f3LFPSIp77_4core5clone5Clone5clone, symObjAddr: 0x1E988, symBinAddr: 0x64678, symSize: 0x88 }
  - { offset: 0x1254CA, size: 0x8, addend: 0x0, symName: __RNvXs2k_NtNtCsATtFUPiRFW_3syn3gen5cloneNtNtBa_4item9TraitItemNtNtCs9f3LFPSIp77_4core5clone5Clone5clone, symObjAddr: 0x1EA10, symBinAddr: 0x64700, symSize: 0x21C }
  - { offset: 0x12558C, size: 0x8, addend: 0x0, symName: __RNvXs2l_NtNtCsATtFUPiRFW_3syn3gen5cloneNtNtBa_4item14TraitItemConstNtNtCs9f3LFPSIp77_4core5clone5Clone5clone, symObjAddr: 0x1EC2C, symBinAddr: 0x6491C, symSize: 0x210 }
  - { offset: 0x1255C0, size: 0x8, addend: 0x0, symName: __RNvXs2m_NtNtCsATtFUPiRFW_3syn3gen5cloneNtNtBa_4item11TraitItemFnNtNtCs9f3LFPSIp77_4core5clone5Clone5clone, symObjAddr: 0x1EE3C, symBinAddr: 0x64B2C, symSize: 0x138 }
  - { offset: 0x1255F4, size: 0x8, addend: 0x0, symName: __RNvXs2n_NtNtCsATtFUPiRFW_3syn3gen5cloneNtNtBa_4item14TraitItemMacroNtNtCs9f3LFPSIp77_4core5clone5Clone5clone, symObjAddr: 0x1EF74, symBinAddr: 0x64C64, symSize: 0xEC }
  - { offset: 0x125628, size: 0x8, addend: 0x0, symName: __RNvXs2o_NtNtCsATtFUPiRFW_3syn3gen5cloneNtNtBa_4item13TraitItemTypeNtNtCs9f3LFPSIp77_4core5clone5Clone5clone, symObjAddr: 0x1F060, symBinAddr: 0x64D50, symSize: 0x204 }
  - { offset: 0x12565C, size: 0x8, addend: 0x0, symName: __RNvXs2I_NtNtCsATtFUPiRFW_3syn3gen5cloneNtNtBa_4item7UseGlobNtNtCs9f3LFPSIp77_4core5clone5Clone5clone, symObjAddr: 0x1F264, symBinAddr: 0x64F54, symSize: 0x4C }
  - { offset: 0x125690, size: 0x8, addend: 0x0, symName: __RNvXs2J_NtNtCsATtFUPiRFW_3syn3gen5cloneNtNtBa_4item8UseGroupNtNtCs9f3LFPSIp77_4core5clone5Clone5clone, symObjAddr: 0x1F2B0, symBinAddr: 0x64FA0, symSize: 0x70 }
  - { offset: 0x1256C4, size: 0x8, addend: 0x0, symName: __RNvXs2K_NtNtCsATtFUPiRFW_3syn3gen5cloneNtNtBa_4item7UseNameNtNtCs9f3LFPSIp77_4core5clone5Clone5clone, symObjAddr: 0x1F320, symBinAddr: 0x65010, symSize: 0x50 }
  - { offset: 0x1256F8, size: 0x8, addend: 0x0, symName: __RNvXs2L_NtNtCsATtFUPiRFW_3syn3gen5cloneNtNtBa_4item7UsePathNtNtCs9f3LFPSIp77_4core5clone5Clone5clone, symObjAddr: 0x1F370, symBinAddr: 0x65060, symSize: 0xC0 }
  - { offset: 0x12572C, size: 0x8, addend: 0x0, symName: __RNvXs2M_NtNtCsATtFUPiRFW_3syn3gen5cloneNtNtBa_4item9UseRenameNtNtCs9f3LFPSIp77_4core5clone5Clone5clone, symObjAddr: 0x1F430, symBinAddr: 0x65120, symSize: 0xB8 }
  - { offset: 0x125760, size: 0x8, addend: 0x0, symName: __RNvXs2N_NtNtCsATtFUPiRFW_3syn3gen5cloneNtNtBa_4item7UseTreeNtNtCs9f3LFPSIp77_4core5clone5Clone5clone, symObjAddr: 0x1F4E8, symBinAddr: 0x651D8, symSize: 0x20C }
  - { offset: 0x125823, size: 0x8, addend: 0x0, symName: __RNvXs2O_NtNtCsATtFUPiRFW_3syn3gen5cloneNtNtBa_4item8VariadicNtNtCs9f3LFPSIp77_4core5clone5Clone5clone, symObjAddr: 0x1F6F4, symBinAddr: 0x653E4, symSize: 0x100 }
  - { offset: 0x12585D, size: 0x8, addend: 0x0, symName: __RNvXs1N_NtNtCsATtFUPiRFW_3syn3gen5debugNtNtBa_4item5FnArgNtNtCs9f3LFPSIp77_4core3fmt5Debug3fmt, symObjAddr: 0x1F7F4, symBinAddr: 0x654E4, symSize: 0x184 }
  - { offset: 0x12592D, size: 0x8, addend: 0x0, symName: __RNvXs1O_NtNtCsATtFUPiRFW_3syn3gen5debugNtNtBa_4item11ForeignItemNtNtCs9f3LFPSIp77_4core3fmt5Debug3fmt, symObjAddr: 0x1F978, symBinAddr: 0x65668, symSize: 0x268 }
  - { offset: 0x125A39, size: 0x8, addend: 0x0, symName: __RNvXs1P_NtNtCsATtFUPiRFW_3syn3gen5debugNtNtBa_4item13ForeignItemFnNtNtCs9f3LFPSIp77_4core3fmt5Debug3fmt, symObjAddr: 0x1FBE0, symBinAddr: 0x658D0, symSize: 0x4C }
  - { offset: 0x125A7C, size: 0x8, addend: 0x0, symName: __RNvXs1R_NtNtCsATtFUPiRFW_3syn3gen5debugNtNtBa_4item16ForeignItemMacroNtNtCs9f3LFPSIp77_4core3fmt5Debug3fmt, symObjAddr: 0x1FD30, symBinAddr: 0x65A20, symSize: 0x4C }
  - { offset: 0x125ABF, size: 0x8, addend: 0x0, symName: __RNvXs1T_NtNtCsATtFUPiRFW_3syn3gen5debugNtNtBa_4item17ForeignItemStaticNtNtCs9f3LFPSIp77_4core3fmt5Debug3fmt, symObjAddr: 0x1FE58, symBinAddr: 0x65B48, symSize: 0x4C }
  - { offset: 0x125B02, size: 0x8, addend: 0x0, symName: __RNvXs1V_NtNtCsATtFUPiRFW_3syn3gen5debugNtNtBa_4item15ForeignItemTypeNtNtCs9f3LFPSIp77_4core3fmt5Debug3fmt, symObjAddr: 0x20048, symBinAddr: 0x65D38, symSize: 0x4C }
  - { offset: 0x125B45, size: 0x8, addend: 0x0, symName: __RNvXs20_NtNtCsATtFUPiRFW_3syn3gen5debugNtNtBa_4item8ImplItemNtNtCs9f3LFPSIp77_4core3fmt5Debug3fmt, symObjAddr: 0x201E8, symBinAddr: 0x65ED8, symSize: 0x268 }
  - { offset: 0x125C51, size: 0x8, addend: 0x0, symName: __RNvXs21_NtNtCsATtFUPiRFW_3syn3gen5debugNtNtBa_4item13ImplItemConstNtNtCs9f3LFPSIp77_4core3fmt5Debug3fmt, symObjAddr: 0x20450, symBinAddr: 0x66140, symSize: 0x4C }
