---
triple:          'arm64-apple-darwin'
binary-path:     '/Users/teddy/code/zero_to_production/newsletter_server/target/debug/deps/libdisplaydoc-b70ac2ab47a82ff3.dylib'
relocations:
  - { offset: 0x1E, size: 0x8, addend: 0x0, symName: __RINvMNtCs9f3LFPSIp77_4core6resultINtB3_6ResultNtCs475r2uZUTuc_11proc_macro211TokenStreamNtNtCsATtFUPiRFW_3syn5error5ErrorE14unwrap_or_elseNCNvCsiLWJ3muoyUj_10displaydoc12derive_error0EB2g_, symObjAddr: 0x0, symBinAddr: 0xE14, symSize: 0x9C }
  - { offset: 0x6378, size: 0x8, addend: 0x0, symName: __RINvXsd_NtCsdze8u8oDPro_5alloc3vecINtB6_3VecINtNtCs9f3LFPSIp77_4core6option6OptionNtNtCsiLWJ3muoyUj_10displaydoc4attr14VariantDisplayEEINtNtNtNtBL_4iter6traits7collect12FromIteratorBG_E9from_iterINtNtB2g_8adapters12GenericShuntINtNtB3a_3map3MapINtNtCsATtFUPiRFW_3syn10punctuated4IterNtNtB3Z_4data7VariantENCNvNtB1m_6expand9impl_enum0EINtNtBL_6result6ResultNtNtBL_7convert10InfallibleNtNtB3Z_5error5ErrorEEEB1m_, symObjAddr: 0x2254, symBinAddr: 0x3068, symSize: 0x34 }
  - { offset: 0x63B9, size: 0x8, addend: 0x0, symName: __RINvXsd_NtCsdze8u8oDPro_5alloc3vecINtB6_3VecNtCs475r2uZUTuc_11proc_macro211TokenStreamEINtNtNtNtCs9f3LFPSIp77_4core4iter6traits7collect12FromIteratorBG_E9from_iterINtNtB1u_8adapters12GenericShuntINtNtB2E_3map3MapINtNtB2E_3zip3ZipINtNtCsATtFUPiRFW_3syn10punctuated4IterNtNtB3K_4data7VariantEINtNtB6_9into_iter8IntoIterINtNtB1w_6option6OptionNtNtCsiLWJ3muoyUj_10displaydoc4attr14VariantDisplayEEENCNvNtB5w_6expand9impl_enums_0EINtNtB1w_6result6ResultNtNtB1w_7convert10InfallibleNtNtB3K_5error5ErrorEEEB5w_, symObjAddr: 0x2288, symBinAddr: 0x309C, symSize: 0x34 }
  - { offset: 0x63FA, size: 0x8, addend: 0x0, symName: __RINvXsd_NtCsdze8u8oDPro_5alloc3vecINtB6_3VecNtNtCsATtFUPiRFW_3syn8generics10TraitBoundEINtNtNtNtCs9f3LFPSIp77_4core4iter6traits7collect12FromIteratorBG_E9from_iterINtNtNtB1u_8adapters6cloned6ClonedINtNtB2G_7flatten7FlatMapINtNtBK_10punctuated4IterNtBI_14TypeParamBoundEINtNtB1w_6option6OptionRBG_ENCNCNvNtCsiLWJ3muoyUj_10displaydoc6expand37extract_trait_constraints_from_source00EEEB4T_, symObjAddr: 0x22BC, symBinAddr: 0x30D0, symSize: 0x34 }
  - { offset: 0x643B, size: 0x8, addend: 0x0, symName: __RINvXsd_NtCsdze8u8oDPro_5alloc3vecINtB6_3VecRNtNtCsATtFUPiRFW_3syn8generics9TypeParamEINtNtNtNtCs9f3LFPSIp77_4core4iter6traits7collect12FromIteratorBG_E9from_iterNtBJ_10TypeParamsECsiLWJ3muoyUj_10displaydoc, symObjAddr: 0x22F0, symBinAddr: 0x3104, symSize: 0x38 }
  - { offset: 0x647B, size: 0x8, addend: 0x0, symName: __RINvXsd_NtCsdze8u8oDPro_5alloc3vecINtB6_3VecReEINtNtNtNtCs9f3LFPSIp77_4core4iter6traits7collect12FromIteratorBG_E9from_iterINtNtNtBQ_8adapters3map3MapNtNtNtBS_3str4iter5LinesNCNvMs0_NtCsiLWJ3muoyUj_10displaydoc4attrNtB2U_11AttrsHelper7displays0_0EEB2W_, symObjAddr: 0x2328, symBinAddr: 0x313C, symSize: 0x34 }
  - { offset: 0x64C7, size: 0x8, addend: 0x0, symName: __RNvXNtNtCsdze8u8oDPro_5alloc3vec11spec_extendINtB4_3VecINtNtCs9f3LFPSIp77_4core6option6OptionNtNtCsiLWJ3muoyUj_10displaydoc4attr14VariantDisplayEEINtB2_10SpecExtendBR_INtNtNtBW_4iter8adapters12GenericShuntINtNtB2I_3map3MapINtNtCsATtFUPiRFW_3syn10punctuated4IterNtNtB3D_4data7VariantENCNvNtB1x_6expand9impl_enum0EINtNtBW_6result6ResultNtNtBW_7convert10InfallibleNtNtB3D_5error5ErrorEEE11spec_extendB1x_, symObjAddr: 0x3BF8, symBinAddr: 0x4A0C, symSize: 0x24 }
  - { offset: 0x6519, size: 0x8, addend: 0x0, symName: __RNvXNtNtCsdze8u8oDPro_5alloc3vec11spec_extendINtB4_3VecNtCs475r2uZUTuc_11proc_macro211TokenStreamEINtB2_10SpecExtendBR_INtNtNtCs9f3LFPSIp77_4core4iter8adapters12GenericShuntINtNtB1W_3map3MapINtNtB1W_3zip3ZipINtNtCsATtFUPiRFW_3syn10punctuated4IterNtNtB3o_4data7VariantEINtNtB4_9into_iter8IntoIterINtNtB20_6option6OptionNtNtCsiLWJ3muoyUj_10displaydoc4attr14VariantDisplayEEENCNvNtB5a_6expand9impl_enums_0EINtNtB20_6result6ResultNtNtB20_7convert10InfallibleNtNtB3o_5error5ErrorEEE11spec_extendB5a_, symObjAddr: 0x3C1C, symBinAddr: 0x4A30, symSize: 0x24 }
  - { offset: 0x656B, size: 0x8, addend: 0x0, symName: __RNvXNtNtCsdze8u8oDPro_5alloc3vec11spec_extendINtB4_3VecNtNtCsATtFUPiRFW_3syn8generics10TraitBoundEINtB2_10SpecExtendBR_INtNtNtNtCs9f3LFPSIp77_4core4iter8adapters6cloned6ClonedINtNtB1Y_7flatten7FlatMapINtNtBV_10punctuated4IterNtBT_14TypeParamBoundEINtNtB22_6option6OptionRBR_ENCNCNvNtCsiLWJ3muoyUj_10displaydoc6expand37extract_trait_constraints_from_source00EEE11spec_extendB4x_, symObjAddr: 0x3C40, symBinAddr: 0x4A54, symSize: 0x24 }
  - { offset: 0x65BD, size: 0x8, addend: 0x0, symName: __RNvXNtNtCsdze8u8oDPro_5alloc3vec11spec_extendINtB4_3VecRNtNtCsATtFUPiRFW_3syn8generics9TypeParamEINtB2_10SpecExtendBR_NtBU_10TypeParamsE11spec_extendCsiLWJ3muoyUj_10displaydoc, symObjAddr: 0x3C64, symBinAddr: 0x4A78, symSize: 0x34 }
  - { offset: 0x660E, size: 0x8, addend: 0x0, symName: __RNvXNtNtCsdze8u8oDPro_5alloc3vec11spec_extendINtB4_3VecReEINtB2_10SpecExtendBR_INtNtNtNtCs9f3LFPSIp77_4core4iter8adapters3map3MapNtNtNtB1o_3str4iter5LinesNCNvMs0_NtCsiLWJ3muoyUj_10displaydoc4attrNtB2A_11AttrsHelper7displays0_0EE11spec_extendB2C_, symObjAddr: 0x3C98, symBinAddr: 0x4AAC, symSize: 0x24 }
  - { offset: 0x666C, size: 0x8, addend: 0x0, symName: __RNvXNtNtCsdze8u8oDPro_5alloc3vec14spec_from_iterINtB4_3VecINtNtCs9f3LFPSIp77_4core6option6OptionNtNtCsiLWJ3muoyUj_10displaydoc4attr14VariantDisplayEEINtB2_12SpecFromIterBU_INtNtNtBZ_4iter8adapters12GenericShuntINtNtB2N_3map3MapINtNtCsATtFUPiRFW_3syn10punctuated4IterNtNtB3I_4data7VariantENCNvNtB1A_6expand9impl_enum0EINtNtBZ_6result6ResultNtNtBZ_7convert10InfallibleNtNtB3I_5error5ErrorEEE9from_iterB1A_, symObjAddr: 0x3CBC, symBinAddr: 0x4AD0, symSize: 0x14 }
  - { offset: 0x66AB, size: 0x8, addend: 0x0, symName: __RNvXNtNtCsdze8u8oDPro_5alloc3vec14spec_from_iterINtB4_3VecNtCs475r2uZUTuc_11proc_macro211TokenStreamEINtB2_12SpecFromIterBU_INtNtNtCs9f3LFPSIp77_4core4iter8adapters12GenericShuntINtNtB21_3map3MapINtNtB21_3zip3ZipINtNtCsATtFUPiRFW_3syn10punctuated4IterNtNtB3t_4data7VariantEINtNtB4_9into_iter8IntoIterINtNtB25_6option6OptionNtNtCsiLWJ3muoyUj_10displaydoc4attr14VariantDisplayEEENCNvNtB5f_6expand9impl_enums_0EINtNtB25_6result6ResultNtNtB25_7convert10InfallibleNtNtB3t_5error5ErrorEEE9from_iterB5f_, symObjAddr: 0x3CD0, symBinAddr: 0x4AE4, symSize: 0x14 }
  - { offset: 0x66EA, size: 0x8, addend: 0x0, symName: __RNvXNtNtCsdze8u8oDPro_5alloc3vec14spec_from_iterINtB4_3VecNtNtCsATtFUPiRFW_3syn8generics10TraitBoundEINtB2_12SpecFromIterBU_INtNtNtNtCs9f3LFPSIp77_4core4iter8adapters6cloned6ClonedINtNtB23_7flatten7FlatMapINtNtBY_10punctuated4IterNtBW_14TypeParamBoundEINtNtB27_6option6OptionRBU_ENCNCNvNtCsiLWJ3muoyUj_10displaydoc6expand37extract_trait_constraints_from_source00EEE9from_iterB4C_, symObjAddr: 0x3CE4, symBinAddr: 0x4AF8, symSize: 0x14 }
  - { offset: 0x6729, size: 0x8, addend: 0x0, symName: __RNvXNtNtCsdze8u8oDPro_5alloc3vec14spec_from_iterINtB4_3VecRNtNtCsATtFUPiRFW_3syn8generics9TypeParamEINtB2_12SpecFromIterBU_NtBX_10TypeParamsE9from_iterCsiLWJ3muoyUj_10displaydoc, symObjAddr: 0x3CF8, symBinAddr: 0x4B0C, symSize: 0x2C }
  - { offset: 0x6767, size: 0x8, addend: 0x0, symName: __RNvXNtNtCsdze8u8oDPro_5alloc3vec14spec_from_iterINtB4_3VecReEINtB2_12SpecFromIterBU_INtNtNtNtCs9f3LFPSIp77_4core4iter8adapters3map3MapNtNtNtB1t_3str4iter5LinesNCNvMs0_NtCsiLWJ3muoyUj_10displaydoc4attrNtB2F_11AttrsHelper7displays0_0EE9from_iterB2H_, symObjAddr: 0x3D24, symBinAddr: 0x4B38, symSize: 0x14 }
  - { offset: 0x67B2, size: 0x8, addend: 0x0, symName: __RNvXNtNtCsdze8u8oDPro_5alloc3vec21spec_from_iter_nestedINtB4_3VecINtNtCs9f3LFPSIp77_4core6option6OptionNtNtCsiLWJ3muoyUj_10displaydoc4attr14VariantDisplayEEINtB2_18SpecFromIterNestedB11_INtNtNtB16_4iter8adapters12GenericShuntINtNtB31_3map3MapINtNtCsATtFUPiRFW_3syn10punctuated4IterNtNtB3X_4data7VariantENCNvNtB1H_6expand9impl_enum0EINtNtB16_6result6ResultNtNtB16_7convert10InfallibleNtNtB3X_5error5ErrorEEE9from_iterB1H_, symObjAddr: 0x3D38, symBinAddr: 0x4B4C, symSize: 0x26C }
  - { offset: 0x6AC4, size: 0x8, addend: 0x0, symName: __RNvXNtNtCsdze8u8oDPro_5alloc3vec21spec_from_iter_nestedINtB4_3VecNtCs475r2uZUTuc_11proc_macro211TokenStreamEINtB2_18SpecFromIterNestedB11_INtNtNtCs9f3LFPSIp77_4core4iter8adapters12GenericShuntINtNtB2f_3map3MapINtNtB2f_3zip3ZipINtNtCsATtFUPiRFW_3syn10punctuated4IterNtNtB3H_4data7VariantEINtNtB4_9into_iter8IntoIterINtNtB2j_6option6OptionNtNtCsiLWJ3muoyUj_10displaydoc4attr14VariantDisplayEEENCNvNtB5t_6expand9impl_enums_0EINtNtB2j_6result6ResultNtNtB2j_7convert10InfallibleNtNtB3H_5error5ErrorEEE9from_iterB5t_, symObjAddr: 0x3FA4, symBinAddr: 0x4DB8, symSize: 0x258 }
  - { offset: 0x6DD6, size: 0x8, addend: 0x0, symName: __RNvXNtNtCsdze8u8oDPro_5alloc3vec21spec_from_iter_nestedINtB4_3VecNtNtCsATtFUPiRFW_3syn8generics10TraitBoundEINtB2_18SpecFromIterNestedB11_INtNtNtNtCs9f3LFPSIp77_4core4iter8adapters6cloned6ClonedINtNtB2h_7flatten7FlatMapINtNtB15_10punctuated4IterNtB13_14TypeParamBoundEINtNtB2l_6option6OptionRB11_ENCNCNvNtCsiLWJ3muoyUj_10displaydoc6expand37extract_trait_constraints_from_source00EEE9from_iterB4T_, symObjAddr: 0x41FC, symBinAddr: 0x5010, symSize: 0x268 }
  - { offset: 0x70E8, size: 0x8, addend: 0x0, symName: __RNvXNtNtCsdze8u8oDPro_5alloc3vec21spec_from_iter_nestedINtB4_3VecRNtNtCsATtFUPiRFW_3syn8generics9TypeParamEINtB2_18SpecFromIterNestedB11_NtB14_10TypeParamsE9from_iterCsiLWJ3muoyUj_10displaydoc, symObjAddr: 0x4464, symBinAddr: 0x5278, symSize: 0x228 }
  - { offset: 0x73F9, size: 0x8, addend: 0x0, symName: __RNvXNtNtCsdze8u8oDPro_5alloc3vec21spec_from_iter_nestedINtB4_3VecReEINtB2_18SpecFromIterNestedB11_INtNtNtNtCs9f3LFPSIp77_4core4iter8adapters3map3MapNtNtNtB1H_3str4iter5LinesNCNvMs0_NtCsiLWJ3muoyUj_10displaydoc4attrNtB2T_11AttrsHelper7displays0_0EE9from_iterB2V_, symObjAddr: 0x468C, symBinAddr: 0x54A0, symSize: 0x250 }
  - { offset: 0x7714, size: 0x8, addend: 0x0, symName: __RNvXs6_NtCsdze8u8oDPro_5alloc3vecINtB5_3VecINtNtCs9f3LFPSIp77_4core6option6OptionNtNtCsiLWJ3muoyUj_10displaydoc4attr14VariantDisplayEENtNtNtBK_3ops5deref5Deref5derefB1l_, symObjAddr: 0x4CE8, symBinAddr: 0x5AFC, symSize: 0x24 }
  - { offset: 0x7754, size: 0x8, addend: 0x0, symName: __RNvXs6_NtCsdze8u8oDPro_5alloc3vecINtB5_3VecNtCs475r2uZUTuc_11proc_macro211TokenStreamENtNtNtCs9f3LFPSIp77_4core3ops5deref5Deref5derefCsiLWJ3muoyUj_10displaydoc, symObjAddr: 0x4D0C, symBinAddr: 0x5B20, symSize: 0x24 }
  - { offset: 0x7794, size: 0x8, addend: 0x0, symName: __RNvXs6_NtCsdze8u8oDPro_5alloc3vecINtB5_3VecRNtNtCsATtFUPiRFW_3syn8generics9TypeParamENtNtNtCs9f3LFPSIp77_4core3ops5deref5Deref5derefCsiLWJ3muoyUj_10displaydoc, symObjAddr: 0x4D30, symBinAddr: 0x5B44, symSize: 0x24 }
  - { offset: 0x77DA, size: 0x8, addend: 0x0, symName: __RNvXs7_NtCsdze8u8oDPro_5alloc3vecINtB5_3VecTNtNtCsATtFUPiRFW_3syn8generics14WherePredicateNtNtBK_5token5CommaEENtNtNtCs9f3LFPSIp77_4core3ops5deref8DerefMut9deref_mutCsiLWJ3muoyUj_10displaydoc, symObjAddr: 0x4D54, symBinAddr: 0x5B68, symSize: 0x24 }
  - { offset: 0x7820, size: 0x8, addend: 0x0, symName: __RNvXse_NtCsdze8u8oDPro_5alloc3vecINtB5_3VecINtNtCs9f3LFPSIp77_4core6option6OptionNtNtCsiLWJ3muoyUj_10displaydoc4attr14VariantDisplayEENtNtNtNtBK_4iter6traits7collect12IntoIterator9into_iterB1l_, symObjAddr: 0x51D8, symBinAddr: 0x5FEC, symSize: 0x100 }
  - { offset: 0x7AF5, size: 0x8, addend: 0x0, symName: __RNvXsn_NtCsdze8u8oDPro_5alloc3vecINtB5_3VecINtNtCs9f3LFPSIp77_4core6option6OptionNtNtCsiLWJ3muoyUj_10displaydoc4attr14VariantDisplayEENtNtNtBK_3ops4drop4Drop4dropB1l_, symObjAddr: 0x52D8, symBinAddr: 0x60EC, symSize: 0x50 }
  - { offset: 0x7C02, size: 0x8, addend: 0x0, symName: __RNvXsn_NtCsdze8u8oDPro_5alloc3vecINtB5_3VecNtCs475r2uZUTuc_11proc_macro211TokenStreamENtNtNtCs9f3LFPSIp77_4core3ops4drop4Drop4dropCsiLWJ3muoyUj_10displaydoc, symObjAddr: 0x5328, symBinAddr: 0x613C, symSize: 0x50 }
  - { offset: 0x7D0F, size: 0x8, addend: 0x0, symName: __RNvXsn_NtCsdze8u8oDPro_5alloc3vecINtB5_3VecNtNtCsATtFUPiRFW_3syn8generics10TraitBoundENtNtNtCs9f3LFPSIp77_4core3ops4drop4Drop4dropCsiLWJ3muoyUj_10displaydoc, symObjAddr: 0x5378, symBinAddr: 0x618C, symSize: 0x50 }
  - { offset: 0x7E1C, size: 0x8, addend: 0x0, symName: __RNvXsn_NtCsdze8u8oDPro_5alloc3vecINtB5_3VecRNtNtCsATtFUPiRFW_3syn8generics9TypeParamENtNtNtCs9f3LFPSIp77_4core3ops4drop4Drop4dropCsiLWJ3muoyUj_10displaydoc, symObjAddr: 0x53C8, symBinAddr: 0x61DC, symSize: 0x3C }
  - { offset: 0x80BD, size: 0x8, addend: 0x0, symName: __RNvNtCsdze8u8oDPro_5alloc5alloc12alloc_zeroedCsiLWJ3muoyUj_10displaydoc, symObjAddr: 0x31AC, symBinAddr: 0x3FC0, symSize: 0x80 }
  - { offset: 0x818A, size: 0x8, addend: 0x0, symName: __RNvXs_NtCsdze8u8oDPro_5alloc5allocNtB4_6GlobalNtNtCs9f3LFPSIp77_4core5alloc9Allocator10deallocateCsiLWJ3muoyUj_10displaydoc, symObjAddr: 0x50D0, symBinAddr: 0x5EE4, symSize: 0x8C }
  - { offset: 0x826E, size: 0x8, addend: 0x0, symName: __RNvXs_NtCsdze8u8oDPro_5alloc5allocNtB4_6GlobalNtNtCs9f3LFPSIp77_4core5alloc9Allocator8allocateCsiLWJ3muoyUj_10displaydoc, symObjAddr: 0x515C, symBinAddr: 0x5F70, symSize: 0x34 }
  - { offset: 0x82A9, size: 0x8, addend: 0x0, symName: __RNvNtCsdze8u8oDPro_5alloc5alloc15exchange_mallocCsiLWJ3muoyUj_10displaydoc, symObjAddr: 0x322C, symBinAddr: 0x4040, symSize: 0xA8 }
  - { offset: 0x83B8, size: 0x8, addend: 0x0, symName: __RNvNtCsdze8u8oDPro_5alloc5alloc5allocCsiLWJ3muoyUj_10displaydoc, symObjAddr: 0x32D4, symBinAddr: 0x40E8, symSize: 0x80 }
  - { offset: 0x933D, size: 0x8, addend: 0x0, symName: __RNvNtCsdze8u8oDPro_5alloc3fmt6formatCsiLWJ3muoyUj_10displaydoc, symObjAddr: 0x30D8, symBinAddr: 0x3EEC, symSize: 0xD4 }
  - { offset: 0x95C1, size: 0x8, addend: 0x0, symName: __RINvXs7_NtCs475r2uZUTuc_11proc_macro23impNtB6_11TokenStreamINtNtNtNtCs9f3LFPSIp77_4core4iter6traits7collect6ExtendNtB8_9TokenTreeE6extendNtB8_11TokenStreamECsiLWJ3muoyUj_10displaydoc, symObjAddr: 0x20E4, symBinAddr: 0x2EF8, symSize: 0x170 }
  - { offset: 0x965D, size: 0x8, addend: 0x0, symName: __RNvXsA_NtCs475r2uZUTuc_11proc_macro23impNtB5_19DeferredTokenStreamNtNtCs9f3LFPSIp77_4core5clone5Clone5cloneCsiLWJ3muoyUj_10displaydoc, symObjAddr: 0x4D78, symBinAddr: 0x5B8C, symSize: 0x88 }
  - { offset: 0x968F, size: 0x8, addend: 0x0, symName: __RNvXsF_NtCs475r2uZUTuc_11proc_macro23impNtB5_5IdentNtNtCs9f3LFPSIp77_4core5clone5Clone5cloneCsiLWJ3muoyUj_10displaydoc, symObjAddr: 0x4E00, symBinAddr: 0x5C14, symSize: 0x9C }
  - { offset: 0x96FF, size: 0x8, addend: 0x0, symName: __RNvXsz_NtCs475r2uZUTuc_11proc_macro23impNtB5_11TokenStreamNtNtCs9f3LFPSIp77_4core5clone5Clone5cloneCsiLWJ3muoyUj_10displaydoc, symObjAddr: 0x594C, symBinAddr: 0x6760, symSize: 0x98 }
  - { offset: 0x9880, size: 0x8, addend: 0x0, symName: __RNvXs1_NtCs475r2uZUTuc_11proc_macro26markerNtB5_19ProcMacroAutoTraitsNtNtCs9f3LFPSIp77_4core5clone5Clone5cloneCsiLWJ3muoyUj_10displaydoc, symObjAddr: 0x4940, symBinAddr: 0x5754, symSize: 0x10 }
  - { offset: 0xA001, size: 0x8, addend: 0x0, symName: __RNvXsV_NtCsjLJ1XWNSM6u_10proc_macro6bridgeINtNtCs9f3LFPSIp77_4core6result6ResultINtNtBJ_6option6OptionNtNtB5_6client11TokenStreamEuEINtNtB5_3rpc6EncodeuE6encodeCsiLWJ3muoyUj_10displaydoc, symObjAddr: 0x4E9C, symBinAddr: 0x5CB0, symSize: 0x108 }
  - { offset: 0xA0C2, size: 0x8, addend: 0x0, symName: __RNvXsV_NtCsjLJ1XWNSM6u_10proc_macro6bridgeINtNtCs9f3LFPSIp77_4core6result6ResultuNtNtB5_3rpc12PanicMessageEINtB1j_6EncodeuE6encodeCsiLWJ3muoyUj_10displaydoc, symObjAddr: 0x4FA4, symBinAddr: 0x5DB8, symSize: 0x12C }
  - { offset: 0xA44A, size: 0x8, addend: 0x0, symName: __RNvXs10_CsjLJ1XWNSM6u_10proc_macroNtB6_11TokenStreamNtNtCs9f3LFPSIp77_4core5clone5Clone5cloneCsiLWJ3muoyUj_10displaydoc, symObjAddr: 0x48DC, symBinAddr: 0x56F0, symSize: 0x64 }
  - { offset: 0xA4AF, size: 0x8, addend: 0x0, symName: __RNvXs1l_CsjLJ1XWNSM6u_10proc_macroNtB6_5IdentNtNtCs9f3LFPSIp77_4core5clone5Clone5cloneCsiLWJ3muoyUj_10displaydoc, symObjAddr: 0x4C70, symBinAddr: 0x5A84, symSize: 0x40 }
  - { offset: 0xBB04, size: 0x8, addend: 0x0, symName: __RINvNtCs9f3LFPSIp77_4core3ptr13drop_in_placeDNtNtB4_5error5ErrorNtNtB4_6marker4SendNtB12_4SyncEL_ECsiLWJ3muoyUj_10displaydoc, symObjAddr: 0xB70, symBinAddr: 0x1984, symSize: 0x48 }
  - { offset: 0xBB33, size: 0x8, addend: 0x0, symName: __RINvNtCs9f3LFPSIp77_4core3ptr13drop_in_placeINtNtB4_4cell10UnsafeCellNtNtNtCsjLJ1XWNSM6u_10proc_macro6bridge6client6BridgeEECsiLWJ3muoyUj_10displaydoc, symObjAddr: 0xBB8, symBinAddr: 0x19CC, symSize: 0x24 }
  - { offset: 0xBB62, size: 0x8, addend: 0x0, symName: __RINvNtCs9f3LFPSIp77_4core3ptr13drop_in_placeINtNtB4_4cell7RefCellNtNtNtCsjLJ1XWNSM6u_10proc_macro6bridge6client6BridgeEECsiLWJ3muoyUj_10displaydoc, symObjAddr: 0xBDC, symBinAddr: 0x19F0, symSize: 0x24 }
  - { offset: 0xBB91, size: 0x8, addend: 0x0, symName: __RINvNtCs9f3LFPSIp77_4core3ptr13drop_in_placeINtNtB4_6option6OptionIBH_NtNtCsiLWJ3muoyUj_10displaydoc4attr14VariantDisplayEEEB1a_, symObjAddr: 0xC00, symBinAddr: 0x1A14, symSize: 0x4C }
  - { offset: 0xBBC0, size: 0x8, addend: 0x0, symName: __RINvNtCs9f3LFPSIp77_4core3ptr13drop_in_placeINtNtB4_6option6OptionINtNtB4_6result6ResultNtNtB4_7convert10InfallibleNtNtCsATtFUPiRFW_3syn5error5ErrorEEECsiLWJ3muoyUj_10displaydoc, symObjAddr: 0xC4C, symBinAddr: 0x1A60, symSize: 0x48 }
  - { offset: 0xBBEF, size: 0x8, addend: 0x0, symName: __RINvNtCs9f3LFPSIp77_4core3ptr13drop_in_placeINtNtB4_6option6OptionINtNtCsdze8u8oDPro_5alloc3vec3VecNtNtCsATtFUPiRFW_3syn8generics10TraitBoundEEECsiLWJ3muoyUj_10displaydoc, symObjAddr: 0xC94, symBinAddr: 0x1AA8, symSize: 0x48 }
  - { offset: 0xBC1E, size: 0x8, addend: 0x0, symName: __RINvNtCs9f3LFPSIp77_4core3ptr13drop_in_placeINtNtB4_6option6OptionINtNtNtNtB4_4iter8adapters3map3MapINtNtCsATtFUPiRFW_3syn10punctuated4IterNtNtB1F_8generics14TypeParamBoundENCNCNvNtCsiLWJ3muoyUj_10displaydoc6expand37extract_trait_constraints_from_source00EEEB2T_, symObjAddr: 0xCDC, symBinAddr: 0x1AF0, symSize: 0x44 }
  - { offset: 0xBC4D, size: 0x8, addend: 0x0, symName: __RINvNtCs9f3LFPSIp77_4core3ptr13drop_in_placeINtNtB4_6option6OptionINtNtNtNtB4_4iter8adapters3map3MapINtNtCsATtFUPiRFW_3syn10punctuated7IterMutNtNtB1F_8generics14WherePredicateENCNvNtCsiLWJ3muoyUj_10displaydoc6expand39ensure_display_in_where_clause_for_type0EEEB2U_, symObjAddr: 0xD20, symBinAddr: 0x1B34, symSize: 0x44 }
  - { offset: 0xBC7C, size: 0x8, addend: 0x0, symName: __RINvNtCs9f3LFPSIp77_4core3ptr13drop_in_placeINtNtB4_6option6OptionNtNtCsATtFUPiRFW_3syn8generics10TraitBoundEECsiLWJ3muoyUj_10displaydoc, symObjAddr: 0xD64, symBinAddr: 0x1B78, symSize: 0x48 }
  - { offset: 0xBCAB, size: 0x8, addend: 0x0, symName: __RINvNtCs9f3LFPSIp77_4core3ptr13drop_in_placeINtNtB4_6option6OptionNtNtCsiLWJ3muoyUj_10displaydoc4attr14VariantDisplayEEB16_, symObjAddr: 0xDAC, symBinAddr: 0x1BC0, symSize: 0x48 }
  - { offset: 0xBCDA, size: 0x8, addend: 0x0, symName: __RINvNtCs9f3LFPSIp77_4core3ptr13drop_in_placeINtNtB4_6option6OptionNtNtCsiLWJ3muoyUj_10displaydoc4attr7DisplayEEB16_, symObjAddr: 0xDF4, symBinAddr: 0x1C08, symSize: 0x48 }
  - { offset: 0xBD09, size: 0x8, addend: 0x0, symName: __RINvNtCs9f3LFPSIp77_4core3ptr13drop_in_placeINtNtB4_6option6OptionTRNtNtCsATtFUPiRFW_3syn4data7VariantIBH_NtNtCsiLWJ3muoyUj_10displaydoc4attr14VariantDisplayEEEEB1K_, symObjAddr: 0xE3C, symBinAddr: 0x1C50, symSize: 0x4C }
  - { offset: 0xBD38, size: 0x8, addend: 0x0, symName: __RINvNtCs9f3LFPSIp77_4core3ptr13drop_in_placeINtNtB4_6result6ResultNtNtB4_7convert10InfallibleNtNtCsATtFUPiRFW_3syn5error5ErrorEECsiLWJ3muoyUj_10displaydoc, symObjAddr: 0xE88, symBinAddr: 0x1C9C, symSize: 0x30 }
  - { offset: 0xBD67, size: 0x8, addend: 0x0, symName: __RINvNtCs9f3LFPSIp77_4core3ptr13drop_in_placeINtNtCs62MdaZFMefA_5quote9___private9RepInterpNtCs475r2uZUTuc_11proc_macro25IdentEECsiLWJ3muoyUj_10displaydoc, symObjAddr: 0xEB8, symBinAddr: 0x1CCC, symSize: 0x24 }
  - { offset: 0xBD96, size: 0x8, addend: 0x0, symName: __RINvNtCs9f3LFPSIp77_4core3ptr13drop_in_placeINtNtCsATtFUPiRFW_3syn10punctuated11PrivateIterNtNtBL_4data7VariantNtNtBL_5token5CommaEECsiLWJ3muoyUj_10displaydoc, symObjAddr: 0xEDC, symBinAddr: 0x1CF0, symSize: 0x10 }
  - { offset: 0xBDC5, size: 0x8, addend: 0x0, symName: __RINvNtCs9f3LFPSIp77_4core3ptr13drop_in_placeINtNtCsATtFUPiRFW_3syn10punctuated11PrivateIterNtNtBL_8generics14WherePredicateNtNtBL_5token5CommaEECsiLWJ3muoyUj_10displaydoc, symObjAddr: 0xEEC, symBinAddr: 0x1D00, symSize: 0x10 }
  - { offset: 0xBDF4, size: 0x8, addend: 0x0, symName: __RINvNtCs9f3LFPSIp77_4core3ptr13drop_in_placeINtNtCsATtFUPiRFW_3syn10punctuated14PrivateIterMutNtNtBL_8generics14WherePredicateNtNtBL_5token5CommaEECsiLWJ3muoyUj_10displaydoc, symObjAddr: 0xEFC, symBinAddr: 0x1D10, symSize: 0x10 }
  - { offset: 0xBE23, size: 0x8, addend: 0x0, symName: __RINvNtCs9f3LFPSIp77_4core3ptr13drop_in_placeINtNtCsATtFUPiRFW_3syn10punctuated4IterNtNtBL_4data7VariantEECsiLWJ3muoyUj_10displaydoc, symObjAddr: 0xF0C, symBinAddr: 0x1D20, symSize: 0x24 }
  - { offset: 0xBE52, size: 0x8, addend: 0x0, symName: __RINvNtCs9f3LFPSIp77_4core3ptr13drop_in_placeINtNtCsATtFUPiRFW_3syn10punctuated4IterNtNtBL_8generics14WherePredicateEECsiLWJ3muoyUj_10displaydoc, symObjAddr: 0xF30, symBinAddr: 0x1D44, symSize: 0x24 }
  - { offset: 0xBE81, size: 0x8, addend: 0x0, symName: __RINvNtCs9f3LFPSIp77_4core3ptr13drop_in_placeINtNtCsATtFUPiRFW_3syn10punctuated7IterMutNtNtBL_8generics14WherePredicateEECsiLWJ3muoyUj_10displaydoc, symObjAddr: 0xF54, symBinAddr: 0x1D68, symSize: 0x24 }
  - { offset: 0xBEB0, size: 0x8, addend: 0x0, symName: __RINvNtCs9f3LFPSIp77_4core3ptr13drop_in_placeINtNtCscXJUXcj6jCz_9hashbrown10scopeguard10ScopeGuardNtNtBL_3raw13RawTableInnerNCINvMsa_B1z_B1x_14prepare_resizeNtNtCsdze8u8oDPro_5alloc5alloc6GlobalE0EECsiLWJ3muoyUj_10displaydoc, symObjAddr: 0xF78, symBinAddr: 0x1D8C, symSize: 0x24 }
  - { offset: 0xBEDF, size: 0x8, addend: 0x0, symName: __RINvNtCs9f3LFPSIp77_4core3ptr13drop_in_placeINtNtCscXJUXcj6jCz_9hashbrown10scopeguard10ScopeGuardQNtNtBL_3raw13RawTableInnerNCNvMsa_B1A_B1y_15rehash_in_place0EECsiLWJ3muoyUj_10displaydoc, symObjAddr: 0xF9C, symBinAddr: 0x1DB0, symSize: 0x24 }
  - { offset: 0xBF0E, size: 0x8, addend: 0x0, symName: __RINvNtCs9f3LFPSIp77_4core3ptr13drop_in_placeINtNtCscXJUXcj6jCz_9hashbrown3map7HashMapNtCs475r2uZUTuc_11proc_macro25IdentINtNtCsdze8u8oDPro_5alloc3vec3VecNtNtCsATtFUPiRFW_3syn8generics10TraitBoundENtNtNtCs27l1GJC5rMQ_3std4hash6random11RandomStateEECsiLWJ3muoyUj_10displaydoc, symObjAddr: 0xFC0, symBinAddr: 0x1DD4, symSize: 0x24 }
  - { offset: 0xBF3D, size: 0x8, addend: 0x0, symName: __RINvNtCs9f3LFPSIp77_4core3ptr13drop_in_placeINtNtCscXJUXcj6jCz_9hashbrown3map8IntoIterNtCs475r2uZUTuc_11proc_macro25IdentINtNtCsdze8u8oDPro_5alloc3vec3VecNtNtCsATtFUPiRFW_3syn8generics10TraitBoundEEECsiLWJ3muoyUj_10displaydoc, symObjAddr: 0xFE4, symBinAddr: 0x1DF8, symSize: 0x24 }
  - { offset: 0xBF6C, size: 0x8, addend: 0x0, symName: __RINvNtCs9f3LFPSIp77_4core3ptr13drop_in_placeINtNtCscXJUXcj6jCz_9hashbrown3raw11RawIntoIterTNtCs475r2uZUTuc_11proc_macro25IdentINtNtCsdze8u8oDPro_5alloc3vec3VecNtNtCsATtFUPiRFW_3syn8generics10TraitBoundEEEECsiLWJ3muoyUj_10displaydoc, symObjAddr: 0x1008, symBinAddr: 0x1E1C, symSize: 0x24 }
  - { offset: 0xBF9B, size: 0x8, addend: 0x0, symName: __RINvNtCs9f3LFPSIp77_4core3ptr13drop_in_placeINtNtCscXJUXcj6jCz_9hashbrown3raw8RawTableTNtCs475r2uZUTuc_11proc_macro25IdentINtNtCsdze8u8oDPro_5alloc3vec3VecNtNtCsATtFUPiRFW_3syn8generics10TraitBoundEEEECsiLWJ3muoyUj_10displaydoc, symObjAddr: 0x102C, symBinAddr: 0x1E40, symSize: 0x24 }
  - { offset: 0xBFCA, size: 0x8, addend: 0x0, symName: __RINvNtCs9f3LFPSIp77_4core3ptr13drop_in_placeINtNtCsdze8u8oDPro_5alloc3vec3VecINtNtB4_6option6OptionNtNtCsiLWJ3muoyUj_10displaydoc4attr14VariantDisplayEEEB1D_, symObjAddr: 0x1050, symBinAddr: 0x1E64, symSize: 0x5C }
  - { offset: 0xBFF9, size: 0x8, addend: 0x0, symName: __RINvNtCs9f3LFPSIp77_4core3ptr13drop_in_placeINtNtCsdze8u8oDPro_5alloc3vec3VecNtCs475r2uZUTuc_11proc_macro211TokenStreamEECsiLWJ3muoyUj_10displaydoc, symObjAddr: 0x10AC, symBinAddr: 0x1EC0, symSize: 0x5C }
  - { offset: 0xC028, size: 0x8, addend: 0x0, symName: __RINvNtCs9f3LFPSIp77_4core3ptr13drop_in_placeINtNtCsdze8u8oDPro_5alloc3vec3VecNtNtCsATtFUPiRFW_3syn8generics10TraitBoundEECsiLWJ3muoyUj_10displaydoc, symObjAddr: 0x1108, symBinAddr: 0x1F1C, symSize: 0x5C }
  - { offset: 0xC057, size: 0x8, addend: 0x0, symName: __RINvNtCs9f3LFPSIp77_4core3ptr13drop_in_placeINtNtCsdze8u8oDPro_5alloc3vec3VecRNtNtCsATtFUPiRFW_3syn8generics9TypeParamEECsiLWJ3muoyUj_10displaydoc, symObjAddr: 0x1164, symBinAddr: 0x1F78, symSize: 0x5C }
  - { offset: 0xC086, size: 0x8, addend: 0x0, symName: __RINvNtCs9f3LFPSIp77_4core3ptr13drop_in_placeINtNtCsdze8u8oDPro_5alloc5boxed3BoxDNtNtB4_5error5ErrorNtNtB4_6marker4SendNtB1B_4SyncEL_EECsiLWJ3muoyUj_10displaydoc, symObjAddr: 0x11C0, symBinAddr: 0x1FD4, symSize: 0x80 }
  - { offset: 0xC0B5, size: 0x8, addend: 0x0, symName: __RINvNtCs9f3LFPSIp77_4core3ptr13drop_in_placeINtNtCsdze8u8oDPro_5alloc5boxed3BoxINtNtCsATtFUPiRFW_3syn5drops6NoDropDINtNtB1k_10punctuated12IterMutTraitNtNtB1k_8generics14WherePredicateEp4ItemQB2o_EL_EEECsiLWJ3muoyUj_10displaydoc, symObjAddr: 0x1240, symBinAddr: 0x2054, symSize: 0x2C }
  - { offset: 0xC0E4, size: 0x8, addend: 0x0, symName: __RINvNtCs9f3LFPSIp77_4core3ptr13drop_in_placeINtNtCsdze8u8oDPro_5alloc5boxed3BoxINtNtCsATtFUPiRFW_3syn5drops6NoDropDINtNtB1k_10punctuated9IterTraitNtNtB1k_4data7VariantEp4ItemRB2k_EL_EEECsiLWJ3muoyUj_10displaydoc, symObjAddr: 0x126C, symBinAddr: 0x2080, symSize: 0x2C }
  - { offset: 0xC113, size: 0x8, addend: 0x0, symName: __RINvNtCs9f3LFPSIp77_4core3ptr13drop_in_placeINtNtCsdze8u8oDPro_5alloc5boxed3BoxINtNtCsATtFUPiRFW_3syn5drops6NoDropDINtNtB1k_10punctuated9IterTraitNtNtB1k_8generics14WherePredicateEp4ItemRB2k_EL_EEECsiLWJ3muoyUj_10displaydoc, symObjAddr: 0x1298, symBinAddr: 0x20AC, symSize: 0x2C }
  - { offset: 0xC142, size: 0x8, addend: 0x0, symName: __RINvNtCs9f3LFPSIp77_4core3ptr13drop_in_placeINtNtCsdze8u8oDPro_5alloc5boxed3BoxNtNtNtCs27l1GJC5rMQ_3std2io5error6CustomEECsiLWJ3muoyUj_10displaydoc, symObjAddr: 0x12C4, symBinAddr: 0x20D8, symSize: 0x60 }
  - { offset: 0xC171, size: 0x8, addend: 0x0, symName: __RINvNtCs9f3LFPSIp77_4core3ptr13drop_in_placeINtNtCsdze8u8oDPro_5alloc7raw_vec6RawVecINtNtB4_6option6OptionNtNtCsiLWJ3muoyUj_10displaydoc4attr14VariantDisplayEEEB1K_, symObjAddr: 0x1324, symBinAddr: 0x2138, symSize: 0x24 }
  - { offset: 0xC1A0, size: 0x8, addend: 0x0, symName: __RINvNtCs9f3LFPSIp77_4core3ptr13drop_in_placeINtNtCsdze8u8oDPro_5alloc7raw_vec6RawVecNtCs475r2uZUTuc_11proc_macro211TokenStreamEECsiLWJ3muoyUj_10displaydoc, symObjAddr: 0x1348, symBinAddr: 0x215C, symSize: 0x24 }
  - { offset: 0xC1CF, size: 0x8, addend: 0x0, symName: __RINvNtCs9f3LFPSIp77_4core3ptr13drop_in_placeINtNtCsdze8u8oDPro_5alloc7raw_vec6RawVecNtNtCsATtFUPiRFW_3syn8generics10TraitBoundEECsiLWJ3muoyUj_10displaydoc, symObjAddr: 0x136C, symBinAddr: 0x2180, symSize: 0x24 }
  - { offset: 0xC1FE, size: 0x8, addend: 0x0, symName: __RINvNtCs9f3LFPSIp77_4core3ptr13drop_in_placeINtNtCsdze8u8oDPro_5alloc7raw_vec6RawVecRNtNtCsATtFUPiRFW_3syn8generics9TypeParamEECsiLWJ3muoyUj_10displaydoc, symObjAddr: 0x1390, symBinAddr: 0x21A4, symSize: 0x24 }
  - { offset: 0xC22D, size: 0x8, addend: 0x0, symName: __RINvNtCs9f3LFPSIp77_4core3ptr13drop_in_placeINtNtNtB4_3ops12control_flow11ControlFlowINtNtB4_6option6OptionNtNtCsiLWJ3muoyUj_10displaydoc4attr14VariantDisplayEEEB1L_, symObjAddr: 0x13B4, symBinAddr: 0x21C8, symSize: 0x4C }
  - { offset: 0xC25C, size: 0x8, addend: 0x0, symName: __RINvNtCs9f3LFPSIp77_4core3ptr13drop_in_placeINtNtNtB4_3ops12control_flow11ControlFlowNtCs475r2uZUTuc_11proc_macro211TokenStreamEECsiLWJ3muoyUj_10displaydoc, symObjAddr: 0x1400, symBinAddr: 0x2214, symSize: 0x48 }
  - { offset: 0xC28B, size: 0x8, addend: 0x0, symName: __RINvNtCs9f3LFPSIp77_4core3ptr13drop_in_placeINtNtNtB4_4iter8adapters12GenericShuntINtNtBJ_3map3MapINtNtBJ_3zip3ZipINtNtCsATtFUPiRFW_3syn10punctuated4IterNtNtB1T_4data7VariantEINtNtNtCsdze8u8oDPro_5alloc3vec9into_iter8IntoIterINtNtB4_6option6OptionNtNtCsiLWJ3muoyUj_10displaydoc4attr14VariantDisplayEEENCNvNtB41_6expand9impl_enums_0EINtNtB4_6result6ResultNtNtB4_7convert10InfallibleNtNtB1T_5error5ErrorEEEB41_, symObjAddr: 0x1448, symBinAddr: 0x225C, symSize: 0x24 }
  - { offset: 0xC2BA, size: 0x8, addend: 0x0, symName: __RINvNtCs9f3LFPSIp77_4core3ptr13drop_in_placeINtNtNtB4_4iter8adapters12GenericShuntINtNtBJ_3map3MapINtNtCsATtFUPiRFW_3syn10punctuated4IterNtNtB1D_4data7VariantENCNvNtCsiLWJ3muoyUj_10displaydoc6expand9impl_enum0EINtNtB4_6result6ResultNtNtB4_7convert10InfallibleNtNtB1D_5error5ErrorEEEB2D_, symObjAddr: 0x146C, symBinAddr: 0x2280, symSize: 0x24 }
  - { offset: 0xC2E9, size: 0x8, addend: 0x0, symName: __RINvNtCs9f3LFPSIp77_4core3ptr13drop_in_placeINtNtNtCs27l1GJC5rMQ_3std2io5error9ErrorDataINtNtCsdze8u8oDPro_5alloc5boxed3BoxNtBJ_6CustomEEECsiLWJ3muoyUj_10displaydoc, symObjAddr: 0x1490, symBinAddr: 0x22A4, symSize: 0x48 }
  - { offset: 0xC318, size: 0x8, addend: 0x0, symName: __RINvNtCs9f3LFPSIp77_4core3ptr13drop_in_placeINtNtNtCsdze8u8oDPro_5alloc3vec9into_iter8IntoIterINtNtB4_6option6OptionNtNtCsiLWJ3muoyUj_10displaydoc4attr14VariantDisplayEEEB1U_, symObjAddr: 0x14D8, symBinAddr: 0x22EC, symSize: 0x24 }
  - { offset: 0xC347, size: 0x8, addend: 0x0, symName: __RINvNtCs9f3LFPSIp77_4core3ptr13drop_in_placeINtNtNtNtB4_4iter8adapters3map3MapINtNtBL_3zip3ZipINtNtCsATtFUPiRFW_3syn10punctuated4IterNtNtB1z_4data7VariantEINtNtNtCsdze8u8oDPro_5alloc3vec9into_iter8IntoIterINtNtB4_6option6OptionNtNtCsiLWJ3muoyUj_10displaydoc4attr14VariantDisplayEEENCNvNtB3H_6expand9impl_enums_0EEB3H_, symObjAddr: 0x14FC, symBinAddr: 0x2310, symSize: 0x24 }
  - { offset: 0xC376, size: 0x8, addend: 0x0, symName: __RINvNtCs9f3LFPSIp77_4core3ptr13drop_in_placeINtNtNtNtB4_4iter8adapters3map3MapINtNtCsATtFUPiRFW_3syn10punctuated4IterNtNtB1j_4data5FieldENCNCNvNtCsiLWJ3muoyUj_10displaydoc6expand11impl_struct00EEB2j_, symObjAddr: 0x1520, symBinAddr: 0x2334, symSize: 0x24 }
  - { offset: 0xC3A5, size: 0x8, addend: 0x0, symName: __RINvNtCs9f3LFPSIp77_4core3ptr13drop_in_placeINtNtNtNtB4_4iter8adapters3map3MapINtNtCsATtFUPiRFW_3syn10punctuated4IterNtNtB1j_4data5FieldENCNCNvNtCsiLWJ3muoyUj_10displaydoc6expand9impl_enums_0s_0EEB2j_, symObjAddr: 0x1544, symBinAddr: 0x2358, symSize: 0x24 }
  - { offset: 0xC3D4, size: 0x8, addend: 0x0, symName: __RINvNtCs9f3LFPSIp77_4core3ptr13drop_in_placeINtNtNtNtB4_4iter8adapters3map3MapINtNtCsATtFUPiRFW_3syn10punctuated4IterNtNtB1j_4data7VariantENCNvNtCsiLWJ3muoyUj_10displaydoc6expand9impl_enum0EEB2j_, symObjAddr: 0x1568, symBinAddr: 0x237C, symSize: 0x24 }
  - { offset: 0xC403, size: 0x8, addend: 0x0, symName: __RINvNtCs9f3LFPSIp77_4core3ptr13drop_in_placeINtNtNtNtB4_4iter8adapters3map3MapINtNtCsATtFUPiRFW_3syn10punctuated4IterNtNtB1j_8generics14TypeParamBoundENCNCNvNtCsiLWJ3muoyUj_10displaydoc6expand37extract_trait_constraints_from_source00EEB2x_, symObjAddr: 0x158C, symBinAddr: 0x23A0, symSize: 0x24 }
  - { offset: 0xC432, size: 0x8, addend: 0x0, symName: __RINvNtCs9f3LFPSIp77_4core3ptr13drop_in_placeINtNtNtNtB4_4iter8adapters3map3MapINtNtCsATtFUPiRFW_3syn10punctuated7IterMutNtNtB1j_8generics14WherePredicateENCNvNtCsiLWJ3muoyUj_10displaydoc6expand39ensure_display_in_where_clause_for_type0EEB2y_, symObjAddr: 0x15B0, symBinAddr: 0x23C4, symSize: 0x24 }
  - { offset: 0xC461, size: 0x8, addend: 0x0, symName: __RINvNtCs9f3LFPSIp77_4core3ptr13drop_in_placeINtNtNtNtB4_4iter8adapters3zip3ZipINtNtCsATtFUPiRFW_3syn10punctuated4IterNtNtB1j_4data7VariantEINtNtNtCsdze8u8oDPro_5alloc3vec9into_iter8IntoIterINtNtB4_6option6OptionNtNtCsiLWJ3muoyUj_10displaydoc4attr14VariantDisplayEEEEB3r_, symObjAddr: 0x15D4, symBinAddr: 0x23E8, symSize: 0x60 }
  - { offset: 0xC490, size: 0x8, addend: 0x0, symName: __RINvNtCs9f3LFPSIp77_4core3ptr13drop_in_placeINtNtNtNtB4_4iter8adapters4fuse4FuseINtNtBL_3map3MapINtNtCsATtFUPiRFW_3syn10punctuated4IterNtNtB1B_8generics14TypeParamBoundENCNCNvNtCsiLWJ3muoyUj_10displaydoc6expand37extract_trait_constraints_from_source00EEEB2P_, symObjAddr: 0x1634, symBinAddr: 0x2448, symSize: 0x24 }
  - { offset: 0xC4BF, size: 0x8, addend: 0x0, symName: __RINvNtCs9f3LFPSIp77_4core3ptr13drop_in_placeINtNtNtNtB4_4iter8adapters4fuse4FuseINtNtBL_3map3MapINtNtCsATtFUPiRFW_3syn10punctuated7IterMutNtNtB1B_8generics14WherePredicateENCNvNtCsiLWJ3muoyUj_10displaydoc6expand39ensure_display_in_where_clause_for_type0EEEB2Q_, symObjAddr: 0x1658, symBinAddr: 0x246C, symSize: 0x24 }
  - { offset: 0xC4EE, size: 0x8, addend: 0x0, symName: __RINvNtCs9f3LFPSIp77_4core3ptr13drop_in_placeINtNtNtNtB4_4iter8adapters6cloned6ClonedINtNtBL_7flatten7FlatMapINtNtCsATtFUPiRFW_3syn10punctuated4IterNtNtB1N_8generics14TypeParamBoundEINtNtB4_6option6OptionRNtB2n_10TraitBoundENCNCNvNtCsiLWJ3muoyUj_10displaydoc6expand37extract_trait_constraints_from_source00EEEB3H_, symObjAddr: 0x167C, symBinAddr: 0x2490, symSize: 0x24 }
  - { offset: 0xC51D, size: 0x8, addend: 0x0, symName: __RINvNtCs9f3LFPSIp77_4core3ptr13drop_in_placeINtNtNtNtB4_4iter8adapters7flatten13FlattenCompatINtNtBL_3map3MapINtNtCsATtFUPiRFW_3syn10punctuated4IterNtNtB1O_8generics14TypeParamBoundENCNCNvNtCsiLWJ3muoyUj_10displaydoc6expand37extract_trait_constraints_from_source00EINtNtB4_6option8IntoIterRNtB2o_10TraitBoundEEEB32_, symObjAddr: 0x16A0, symBinAddr: 0x24B4, symSize: 0x24 }
  - { offset: 0xC54C, size: 0x8, addend: 0x0, symName: __RINvNtCs9f3LFPSIp77_4core3ptr13drop_in_placeINtNtNtNtB4_4iter8adapters7flatten13FlattenCompatINtNtBL_3map3MapINtNtCsATtFUPiRFW_3syn10punctuated7IterMutNtNtB1O_8generics14WherePredicateENCNvNtCsiLWJ3muoyUj_10displaydoc6expand39ensure_display_in_where_clause_for_type0EINtNtB4_6option8IntoIterQNtB2r_13PredicateTypeEEEB33_, symObjAddr: 0x16C4, symBinAddr: 0x24D8, symSize: 0x24 }
  - { offset: 0xC57B, size: 0x8, addend: 0x0, symName: __RINvNtCs9f3LFPSIp77_4core3ptr13drop_in_placeINtNtNtNtB4_4iter8adapters7flatten7FlatMapINtNtCsATtFUPiRFW_3syn10punctuated4IterNtNtB1r_8generics14TypeParamBoundEINtNtB4_6option6OptionRNtB21_10TraitBoundENCNCNvNtCsiLWJ3muoyUj_10displaydoc6expand37extract_trait_constraints_from_source00EEB3l_, symObjAddr: 0x16E8, symBinAddr: 0x24FC, symSize: 0x24 }
  - { offset: 0xC5AA, size: 0x8, addend: 0x0, symName: __RINvNtCs9f3LFPSIp77_4core3ptr13drop_in_placeINtNtNtNtB4_4iter8adapters7flatten7FlatMapINtNtCsATtFUPiRFW_3syn10punctuated7IterMutNtNtB1r_8generics14WherePredicateEINtNtB4_6option6OptionQNtB24_13PredicateTypeENCNvNtCsiLWJ3muoyUj_10displaydoc6expand39ensure_display_in_where_clause_for_type0EEB3p_, symObjAddr: 0x170C, symBinAddr: 0x2520, symSize: 0x24 }
  - { offset: 0xC5D9, size: 0x8, addend: 0x0, symName: __RINvNtCs9f3LFPSIp77_4core3ptr13drop_in_placeINtNtNtNtCs27l1GJC5rMQ_3std11collections4hash3map7HashMapNtCs475r2uZUTuc_11proc_macro25IdentINtNtCsdze8u8oDPro_5alloc3vec3VecNtNtCsATtFUPiRFW_3syn8generics10TraitBoundEEECsiLWJ3muoyUj_10displaydoc, symObjAddr: 0x1730, symBinAddr: 0x2544, symSize: 0x24 }
  - { offset: 0xC608, size: 0x8, addend: 0x0, symName: __RINvNtCs9f3LFPSIp77_4core3ptr13drop_in_placeINtNtNtNtCs27l1GJC5rMQ_3std11collections4hash3map8IntoIterNtCs475r2uZUTuc_11proc_macro25IdentINtNtCsdze8u8oDPro_5alloc3vec3VecNtNtCsATtFUPiRFW_3syn8generics10TraitBoundEEECsiLWJ3muoyUj_10displaydoc, symObjAddr: 0x1754, symBinAddr: 0x2568, symSize: 0x24 }
  - { offset: 0xC637, size: 0x8, addend: 0x0, symName: __RINvNtCs9f3LFPSIp77_4core3ptr13drop_in_placeINtNvXsd_NtNtCsdze8u8oDPro_5alloc3vec9into_iterINtBP_8IntoIterppENtNtNtB4_3ops4drop4Drop4drop9DropGuardINtNtB4_6option6OptionNtNtCsiLWJ3muoyUj_10displaydoc4attr14VariantDisplayENtNtBT_5alloc6GlobalEEB2L_, symObjAddr: 0x1778, symBinAddr: 0x258C, symSize: 0x24 }
  - { offset: 0xC666, size: 0x8, addend: 0x0, symName: __RINvNtCs9f3LFPSIp77_4core3ptr13drop_in_placeNCINvMs6_NtCscXJUXcj6jCz_9hashbrown3rawINtBP_8RawTableTNtCs475r2uZUTuc_11proc_macro25IdentINtNtCsdze8u8oDPro_5alloc3vec3VecNtNtCsATtFUPiRFW_3syn8generics10TraitBoundEEE14reserve_rehashNCINvNtBR_3map11make_hasherB1z_B28_NtNtNtCs27l1GJC5rMQ_3std4hash6random11RandomStateE0E0ECsiLWJ3muoyUj_10displaydoc, symObjAddr: 0x179C, symBinAddr: 0x25B0, symSize: 0x10 }
  - { offset: 0xC695, size: 0x8, addend: 0x0, symName: __RINvNtCs9f3LFPSIp77_4core3ptr13drop_in_placeNCINvMs6_NtCscXJUXcj6jCz_9hashbrown3rawINtBP_8RawTableTNtCs475r2uZUTuc_11proc_macro25IdentINtNtCsdze8u8oDPro_5alloc3vec3VecNtNtCsATtFUPiRFW_3syn8generics10TraitBoundEEE24find_or_find_insert_slotNCINvNtBR_3map14equivalent_keyB1z_B1z_B28_E0NCINvB3T_11make_hasherB1z_B28_NtNtNtCs27l1GJC5rMQ_3std4hash6random11RandomStateE0E0ECsiLWJ3muoyUj_10displaydoc, symObjAddr: 0x17AC, symBinAddr: 0x25C0, symSize: 0x10 }
  - { offset: 0xC6C4, size: 0x8, addend: 0x0, symName: __RINvNtCs9f3LFPSIp77_4core3ptr13drop_in_placeNCNCINvNtNtCsjLJ1XWNSM6u_10proc_macro6bridge6client10run_clientNtBN_11TokenStreamINtNtB4_6option6OptionB1H_ENCNCINvMs7_BN_INtBN_6ClientNtBR_11TokenStreamB2R_E7expand1NvCsiLWJ3muoyUj_10displaydoc12derive_errorE00E00EB3o_, symObjAddr: 0x17BC, symBinAddr: 0x25D0, symSize: 0x24 }
  - { offset: 0xC6F3, size: 0x8, addend: 0x0, symName: __RINvNtCs9f3LFPSIp77_4core3ptr13drop_in_placeNCNvMs0_NtCsiLWJ3muoyUj_10displaydoc4attrNtBO_11AttrsHelper18display_with_input0EBQ_, symObjAddr: 0x17E0, symBinAddr: 0x25F4, symSize: 0x24 }
  - { offset: 0xC722, size: 0x8, addend: 0x0, symName: __RINvNtCs9f3LFPSIp77_4core3ptr13drop_in_placeNtNtCsiLWJ3muoyUj_10displaydoc4attr14VariantDisplayEBK_, symObjAddr: 0x1804, symBinAddr: 0x2618, symSize: 0x5C }
  - { offset: 0xC751, size: 0x8, addend: 0x0, symName: __RINvNtCs9f3LFPSIp77_4core3ptr13drop_in_placeNtNtCsiLWJ3muoyUj_10displaydoc4attr7DisplayEBK_, symObjAddr: 0x1860, symBinAddr: 0x2674, symSize: 0x5C }
  - { offset: 0xC780, size: 0x8, addend: 0x0, symName: __RINvNtCs9f3LFPSIp77_4core3ptr13drop_in_placeNtNtNtCs27l1GJC5rMQ_3std2io5error5ErrorECsiLWJ3muoyUj_10displaydoc, symObjAddr: 0x18BC, symBinAddr: 0x26D0, symSize: 0x24 }
  - { offset: 0xC7AF, size: 0x8, addend: 0x0, symName: __RINvNtCs9f3LFPSIp77_4core3ptr13drop_in_placeNtNtNtCs27l1GJC5rMQ_3std2io5error6CustomECsiLWJ3muoyUj_10displaydoc, symObjAddr: 0x18E0, symBinAddr: 0x26F4, symSize: 0x24 }
  - { offset: 0xC7DE, size: 0x8, addend: 0x0, symName: __RINvNtCs9f3LFPSIp77_4core3ptr13drop_in_placeNtNtNtCs27l1GJC5rMQ_3std6thread5local11AccessErrorECsiLWJ3muoyUj_10displaydoc, symObjAddr: 0x1904, symBinAddr: 0x2718, symSize: 0x10 }
  - { offset: 0xC80D, size: 0x8, addend: 0x0, symName: __RINvNtCs9f3LFPSIp77_4core3ptr13drop_in_placeNtNtNtCsjLJ1XWNSM6u_10proc_macro6bridge3rpc12PanicMessageECsiLWJ3muoyUj_10displaydoc, symObjAddr: 0x1914, symBinAddr: 0x2728, symSize: 0x50 }
  - { offset: 0xC83C, size: 0x8, addend: 0x0, symName: __RINvNtCs9f3LFPSIp77_4core3ptr13drop_in_placeNtNtNtCsjLJ1XWNSM6u_10proc_macro6bridge6buffer6BufferECsiLWJ3muoyUj_10displaydoc, symObjAddr: 0x1964, symBinAddr: 0x2778, symSize: 0x24 }
  - { offset: 0xC86B, size: 0x8, addend: 0x0, symName: __RINvNtCs9f3LFPSIp77_4core3ptr13drop_in_placeNtNtNtCsjLJ1XWNSM6u_10proc_macro6bridge6client6BridgeECsiLWJ3muoyUj_10displaydoc, symObjAddr: 0x1988, symBinAddr: 0x279C, symSize: 0x24 }
  - { offset: 0xC89A, size: 0x8, addend: 0x0, symName: __RINvNtCs9f3LFPSIp77_4core3ptr13drop_in_placeNtNtNtNtCs27l1GJC5rMQ_3std2io5error14repr_bitpacked4ReprECsiLWJ3muoyUj_10displaydoc, symObjAddr: 0x19AC, symBinAddr: 0x27C0, symSize: 0x24 }
  - { offset: 0xC8C9, size: 0x8, addend: 0x0, symName: __RINvNtCs9f3LFPSIp77_4core3ptr13drop_in_placeNtNvNtNtNtCsjLJ1XWNSM6u_10proc_macro6bridge6client5state3set13RestoreOnDropECsiLWJ3muoyUj_10displaydoc, symObjAddr: 0x19D0, symBinAddr: 0x27E4, symSize: 0x24 }
  - { offset: 0xC8F8, size: 0x8, addend: 0x0, symName: __RINvNtCs9f3LFPSIp77_4core3ptr13drop_in_placeSINtNtB4_6option6OptionNtNtCsiLWJ3muoyUj_10displaydoc4attr14VariantDisplayEEB17_, symObjAddr: 0x19F4, symBinAddr: 0x2808, symSize: 0xC4 }
  - { offset: 0xC927, size: 0x8, addend: 0x0, symName: __RINvNtCs9f3LFPSIp77_4core3ptr13drop_in_placeSNtCs475r2uZUTuc_11proc_macro211TokenStreamECsiLWJ3muoyUj_10displaydoc, symObjAddr: 0x1AB8, symBinAddr: 0x28CC, symSize: 0xB4 }
  - { offset: 0xC956, size: 0x8, addend: 0x0, symName: __RINvNtCs9f3LFPSIp77_4core3ptr13drop_in_placeSNtNtCsATtFUPiRFW_3syn8generics10TraitBoundECsiLWJ3muoyUj_10displaydoc, symObjAddr: 0x1B6C, symBinAddr: 0x2980, symSize: 0xC4 }
  - { offset: 0xC985, size: 0x8, addend: 0x0, symName: __RINvNtCs9f3LFPSIp77_4core3ptr13drop_in_placeTNtCs475r2uZUTuc_11proc_macro25IdentINtNtCsdze8u8oDPro_5alloc3vec3VecNtNtCsATtFUPiRFW_3syn8generics10TraitBoundEEECsiLWJ3muoyUj_10displaydoc, symObjAddr: 0x1C30, symBinAddr: 0x2A44, symSize: 0x60 }
  - { offset: 0xC9B4, size: 0x8, addend: 0x0, symName: __RINvNtCs9f3LFPSIp77_4core3ptr13drop_in_placeTRNtNtCsATtFUPiRFW_3syn4data7VariantINtNtB4_6option6OptionNtNtCsiLWJ3muoyUj_10displaydoc4attr14VariantDisplayEEEB1G_, symObjAddr: 0x1C90, symBinAddr: 0x2AA4, symSize: 0x24 }
  - { offset: 0xC9E3, size: 0x8, addend: 0x0, symName: __RINvNtCs9f3LFPSIp77_4core3ptr14read_unalignedNtNtNtNtB4_9core_arch10arm_shared4neon9uint8x8_tECsiLWJ3muoyUj_10displaydoc, symObjAddr: 0x1CB4, symBinAddr: 0x2AC8, symSize: 0x8C }
  - { offset: 0xCAB7, size: 0x8, addend: 0x0, symName: __RINvNtCs9f3LFPSIp77_4core3ptr15write_unalignedNtNtNtNtB4_9core_arch10arm_shared4neon9uint8x8_tECsiLWJ3muoyUj_10displaydoc, symObjAddr: 0x1D40, symBinAddr: 0x2B54, symSize: 0x70 }
  - { offset: 0xCC37, size: 0x8, addend: 0x0, symName: __RINvNtCs9f3LFPSIp77_4core3ptr19swap_nonoverlappingNtNtCscXJUXcj6jCz_9hashbrown3raw13RawTableInnerECsiLWJ3muoyUj_10displaydoc, symObjAddr: 0x1DB0, symBinAddr: 0x2BC4, symSize: 0x150 }
  - { offset: 0xD08D, size: 0x8, addend: 0x0, symName: __RINvNtCs9f3LFPSIp77_4core3ptr19swap_nonoverlappinghECsiLWJ3muoyUj_10displaydoc, symObjAddr: 0x1F00, symBinAddr: 0x2D14, symSize: 0x1E4 }
  - { offset: 0xD684, size: 0x8, addend: 0x0, symName: __RNvNvMNtNtCs9f3LFPSIp77_4core3ptr9const_ptrPp7sub_ptr18precondition_checkCsiLWJ3muoyUj_10displaydoc, symObjAddr: 0x3354, symBinAddr: 0x4168, symSize: 0x40 }
  - { offset: 0xD977, size: 0x8, addend: 0x0, symName: __RNvNvNtCs9f3LFPSIp77_4core3ptr13read_volatile18precondition_checkCsiLWJ3muoyUj_10displaydoc, symObjAddr: 0x33E4, symBinAddr: 0x41F8, symSize: 0xEC }
  - { offset: 0xDA82, size: 0x8, addend: 0x0, symName: __RNvNvNtCs9f3LFPSIp77_4core3ptr19swap_nonoverlapping18precondition_checkCsiLWJ3muoyUj_10displaydoc, symObjAddr: 0x34D0, symBinAddr: 0x42E4, symSize: 0x1F0 }
  - { offset: 0xDCCF, size: 0x8, addend: 0x0, symName: __RNvNvNtCs9f3LFPSIp77_4core3ptr7replace18precondition_checkCsiLWJ3muoyUj_10displaydoc, symObjAddr: 0x36C0, symBinAddr: 0x44D4, symSize: 0xEC }
  - { offset: 0xE41E, size: 0x8, addend: 0x0, symName: __RINvXsn_NtCs9f3LFPSIp77_4core6resultINtB6_6ResultINtNtCsdze8u8oDPro_5alloc3vec3VecINtNtB8_6option6OptionNtNtCsiLWJ3muoyUj_10displaydoc4attr14VariantDisplayEENtNtCsATtFUPiRFW_3syn5error5ErrorEINtNtNtNtB8_4iter6traits7collect12FromIteratorIBz_B1i_B2v_EE9from_iterINtNtNtB3a_8adapters3map3MapINtNtB2z_10punctuated4IterNtNtB2z_4data7VariantENCNvNtB1I_6expand9impl_enum0EEB1I_, symObjAddr: 0x235C, symBinAddr: 0x3170, symSize: 0x34 }
  - { offset: 0xE471, size: 0x8, addend: 0x0, symName: __RINvXsn_NtCs9f3LFPSIp77_4core6resultINtB6_6ResultINtNtCsdze8u8oDPro_5alloc3vec3VecNtCs475r2uZUTuc_11proc_macro211TokenStreamENtNtCsATtFUPiRFW_3syn5error5ErrorEINtNtNtNtB8_4iter6traits7collect12FromIteratorIBz_B1i_B1Z_EE9from_iterINtNtNtB2E_8adapters3map3MapINtNtB3K_3zip3ZipINtNtB23_10punctuated4IterNtNtB23_4data7VariantEINtNtBO_9into_iter8IntoIterINtNtB8_6option6OptionNtNtCsiLWJ3muoyUj_10displaydoc4attr14VariantDisplayEEENCNvNtB61_6expand9impl_enums_0EEB61_, symObjAddr: 0x2390, symBinAddr: 0x31A4, symSize: 0x34 }
  - { offset: 0xE4C9, size: 0x8, addend: 0x0, symName: __RNCINvXsn_NtCs9f3LFPSIp77_4core6resultINtB8_6ResultINtNtCsdze8u8oDPro_5alloc3vec3VecINtNtBa_6option6OptionNtNtCsiLWJ3muoyUj_10displaydoc4attr14VariantDisplayEENtNtCsATtFUPiRFW_3syn5error5ErrorEINtNtNtNtBa_4iter6traits7collect12FromIteratorIBB_B1k_B2x_EE9from_iterINtNtNtB3c_8adapters3map3MapINtNtB2B_10punctuated4IterNtNtB2B_4data7VariantENCNvNtB1K_6expand9impl_enum0EE0B1K_, symObjAddr: 0x2580, symBinAddr: 0x3394, symSize: 0x28 }
  - { offset: 0xE545, size: 0x8, addend: 0x0, symName: __RNCINvXsn_NtCs9f3LFPSIp77_4core6resultINtB8_6ResultINtNtCsdze8u8oDPro_5alloc3vec3VecNtCs475r2uZUTuc_11proc_macro211TokenStreamENtNtCsATtFUPiRFW_3syn5error5ErrorEINtNtNtNtBa_4iter6traits7collect12FromIteratorIBB_B1k_B21_EE9from_iterINtNtNtB2G_8adapters3map3MapINtNtB3M_3zip3ZipINtNtB25_10punctuated4IterNtNtB25_4data7VariantEINtNtBQ_9into_iter8IntoIterINtNtBa_6option6OptionNtNtCsiLWJ3muoyUj_10displaydoc4attr14VariantDisplayEEENCNvNtB63_6expand9impl_enums_0EE0B63_, symObjAddr: 0x25A8, symBinAddr: 0x33BC, symSize: 0x28 }
  - { offset: 0xE8B8, size: 0x8, addend: 0x0, symName: __RNvXsp_NtCs9f3LFPSIp77_4core6resultINtB5_6ResultINtNtB7_6option6OptionNtNtCsiLWJ3muoyUj_10displaydoc4attr14VariantDisplayENtNtCsATtFUPiRFW_3syn5error5ErrorEINtNtNtB7_3ops9try_trait12FromResidualIBy_NtNtB7_7convert10InfallibleB1W_EE13from_residualB1a_, symObjAddr: 0x5830, symBinAddr: 0x6644, symSize: 0x4C }
  - { offset: 0xE93D, size: 0x8, addend: 0x0, symName: __RNvXsp_NtCs9f3LFPSIp77_4core6resultINtB5_6ResultINtNtCsdze8u8oDPro_5alloc3vec3VecINtNtB7_6option6OptionNtNtCsiLWJ3muoyUj_10displaydoc4attr14VariantDisplayEENtNtCsATtFUPiRFW_3syn5error5ErrorEINtNtNtB7_3ops9try_trait12FromResidualIBy_NtNtB7_7convert10InfallibleB2u_EE13from_residualB1H_, symObjAddr: 0x587C, symBinAddr: 0x6690, symSize: 0x48 }
  - { offset: 0xE9C2, size: 0x8, addend: 0x0, symName: __RNvXsp_NtCs9f3LFPSIp77_4core6resultINtB5_6ResultINtNtCsdze8u8oDPro_5alloc3vec3VecNtCs475r2uZUTuc_11proc_macro211TokenStreamENtNtCsATtFUPiRFW_3syn5error5ErrorEINtNtNtB7_3ops9try_trait12FromResidualIBy_NtNtB7_7convert10InfallibleB1Y_EE13from_residualCsiLWJ3muoyUj_10displaydoc, symObjAddr: 0x58C4, symBinAddr: 0x66D8, symSize: 0x48 }
  - { offset: 0xEA47, size: 0x8, addend: 0x0, symName: __RNvXsp_NtCs9f3LFPSIp77_4core6resultINtB5_6ResultNtNtCsATtFUPiRFW_3syn3lit6LitStrNtNtBO_5error5ErrorEINtNtNtB7_3ops9try_trait12FromResidualIBy_NtNtB7_7convert10InfallibleB1g_EE13from_residualCsiLWJ3muoyUj_10displaydoc, symObjAddr: 0x590C, symBinAddr: 0x6720, symSize: 0x40 }
  - { offset: 0xEC11, size: 0x8, addend: 0x0, symName: __RNvXso_NtCs9f3LFPSIp77_4core6resultINtB5_6ResultINtNtB7_6option6OptionNtNtCsiLWJ3muoyUj_10displaydoc4attr14VariantDisplayENtNtCsATtFUPiRFW_3syn5error5ErrorENtNtNtB7_3ops9try_trait3Try6branchB1a_, symObjAddr: 0x5404, symBinAddr: 0x6218, symSize: 0xB8 }
  - { offset: 0xEC8E, size: 0x8, addend: 0x0, symName: __RNvXso_NtCs9f3LFPSIp77_4core6resultINtB5_6ResultINtNtB7_6option6OptionNtNtCsiLWJ3muoyUj_10displaydoc4attr7DisplayENtNtCsATtFUPiRFW_3syn5error5ErrorENtNtNtB7_3ops9try_trait3Try6branchB1a_, symObjAddr: 0x54BC, symBinAddr: 0x62D0, symSize: 0xB8 }
  - { offset: 0xED0B, size: 0x8, addend: 0x0, symName: __RNvXso_NtCs9f3LFPSIp77_4core6resultINtB5_6ResultINtNtCsdze8u8oDPro_5alloc3vec3VecINtNtB7_6option6OptionNtNtCsiLWJ3muoyUj_10displaydoc4attr14VariantDisplayEENtNtCsATtFUPiRFW_3syn5error5ErrorENtNtNtB7_3ops9try_trait3Try11from_outputB1H_, symObjAddr: 0x5574, symBinAddr: 0x6388, symSize: 0x18 }
  - { offset: 0xED4B, size: 0x8, addend: 0x0, symName: __RNvXso_NtCs9f3LFPSIp77_4core6resultINtB5_6ResultINtNtCsdze8u8oDPro_5alloc3vec3VecINtNtB7_6option6OptionNtNtCsiLWJ3muoyUj_10displaydoc4attr14VariantDisplayEENtNtCsATtFUPiRFW_3syn5error5ErrorENtNtNtB7_3ops9try_trait3Try6branchB1H_, symObjAddr: 0x558C, symBinAddr: 0x63A0, symSize: 0x94 }
  - { offset: 0xEDC8, size: 0x8, addend: 0x0, symName: __RNvXso_NtCs9f3LFPSIp77_4core6resultINtB5_6ResultINtNtCsdze8u8oDPro_5alloc3vec3VecNtCs475r2uZUTuc_11proc_macro211TokenStreamENtNtCsATtFUPiRFW_3syn5error5ErrorENtNtNtB7_3ops9try_trait3Try11from_outputCsiLWJ3muoyUj_10displaydoc, symObjAddr: 0x5620, symBinAddr: 0x6434, symSize: 0x18 }
  - { offset: 0xEE08, size: 0x8, addend: 0x0, symName: __RNvXso_NtCs9f3LFPSIp77_4core6resultINtB5_6ResultINtNtCsdze8u8oDPro_5alloc3vec3VecNtCs475r2uZUTuc_11proc_macro211TokenStreamENtNtCsATtFUPiRFW_3syn5error5ErrorENtNtNtB7_3ops9try_trait3Try6branchCsiLWJ3muoyUj_10displaydoc, symObjAddr: 0x5638, symBinAddr: 0x644C, symSize: 0x94 }
  - { offset: 0xEE85, size: 0x8, addend: 0x0, symName: __RNvXso_NtCs9f3LFPSIp77_4core6resultINtB5_6ResultNtNtCsATtFUPiRFW_3syn6derive11DeriveInputNtNtBO_5error5ErrorENtNtNtB7_3ops9try_trait3Try6branchCsiLWJ3muoyUj_10displaydoc, symObjAddr: 0x56CC, symBinAddr: 0x64E0, symSize: 0xB4 }
  - { offset: 0xEF03, size: 0x8, addend: 0x0, symName: __RNvXso_NtCs9f3LFPSIp77_4core6resultINtB5_6ResultNtNtCsiLWJ3muoyUj_10displaydoc4attr14VariantDisplayNtNtCsATtFUPiRFW_3syn5error5ErrorENtNtNtB7_3ops9try_trait3Try6branchBO_, symObjAddr: 0x5780, symBinAddr: 0x6594, symSize: 0xB0 }
  - { offset: 0x123B4, size: 0x8, addend: 0x0, symName: __RNvXs1_NtNtNtCs9f3LFPSIp77_4core4iter8adapters3zipINtB5_3ZipINtNtCsATtFUPiRFW_3syn10punctuated4IterNtNtB11_4data7VariantEINtNtNtCsdze8u8oDPro_5alloc3vec9into_iter8IntoIterINtNtBb_6option6OptionNtNtCsiLWJ3muoyUj_10displaydoc4attr14VariantDisplayEEEINtB5_7ZipImplBW_B1V_E3newB39_, symObjAddr: 0x49A8, symBinAddr: 0x57BC, symSize: 0x40 }
  - { offset: 0x12400, size: 0x8, addend: 0x0, symName: __RNvXs1_NtNtNtCs9f3LFPSIp77_4core4iter8adapters3zipINtB5_3ZipINtNtCsATtFUPiRFW_3syn10punctuated4IterNtNtB11_4data7VariantEINtNtNtCsdze8u8oDPro_5alloc3vec9into_iter8IntoIterINtNtBb_6option6OptionNtNtCsiLWJ3muoyUj_10displaydoc4attr14VariantDisplayEEEINtB5_7ZipImplBW_B1V_E4nextB39_, symObjAddr: 0x49E8, symBinAddr: 0x57FC, symSize: 0x154 }
  - { offset: 0x1255A, size: 0x8, addend: 0x0, symName: __RNvXs1_NtNtNtCs9f3LFPSIp77_4core4iter8adapters3zipINtB5_3ZipINtNtCsATtFUPiRFW_3syn10punctuated4IterNtNtB11_4data7VariantEINtNtNtCsdze8u8oDPro_5alloc3vec9into_iter8IntoIterINtNtBb_6option6OptionNtNtCsiLWJ3muoyUj_10displaydoc4attr14VariantDisplayEEEINtB5_7ZipImplBW_B1V_E9size_hintB39_, symObjAddr: 0x4B3C, symBinAddr: 0x5950, symSize: 0x134 }
  - { offset: 0x12716, size: 0x8, addend: 0x0, symName: __RNvXs_NtNtNtCs9f3LFPSIp77_4core4iter8adapters3zipINtB4_3ZipINtNtCsATtFUPiRFW_3syn10punctuated4IterNtNtB10_4data7VariantEINtNtNtCsdze8u8oDPro_5alloc3vec9into_iter8IntoIterINtNtBa_6option6OptionNtNtCsiLWJ3muoyUj_10displaydoc4attr14VariantDisplayEEENtNtNtB8_6traits8iterator8Iterator4nextB38_, symObjAddr: 0x5190, symBinAddr: 0x5FA4, symSize: 0x24 }
  - { offset: 0x12754, size: 0x8, addend: 0x0, symName: __RNvXs_NtNtNtCs9f3LFPSIp77_4core4iter8adapters3zipINtB4_3ZipINtNtCsATtFUPiRFW_3syn10punctuated4IterNtNtB10_4data7VariantEINtNtNtCsdze8u8oDPro_5alloc3vec9into_iter8IntoIterINtNtBa_6option6OptionNtNtCsiLWJ3muoyUj_10displaydoc4attr14VariantDisplayEEENtNtNtB8_6traits8iterator8Iterator9size_hintB38_, symObjAddr: 0x51B4, symBinAddr: 0x5FC8, symSize: 0x24 }
  - { offset: 0x12918, size: 0x8, addend: 0x0, symName: __RINvYINtNtNtNtCs9f3LFPSIp77_4core4iter8adapters3zip3ZipINtNtCsATtFUPiRFW_3syn10punctuated4IterNtNtBW_4data7VariantEINtNtNtCsdze8u8oDPro_5alloc3vec9into_iter8IntoIterINtNtBc_6option6OptionNtNtCsiLWJ3muoyUj_10displaydoc4attr14VariantDisplayEEENtNtNtBa_6traits8iterator8Iterator3mapINtNtBc_6result6ResultNtCs475r2uZUTuc_11proc_macro211TokenStreamNtNtBW_5error5ErrorENCNvNtB33_6expand9impl_enums_0EB33_, symObjAddr: 0x23C4, symBinAddr: 0x31D8, symSize: 0x30 }
  - { offset: 0x12997, size: 0x8, addend: 0x0, symName: __RINvYINtNtNtNtCs9f3LFPSIp77_4core4iter8adapters3zip3ZipINtNtCsATtFUPiRFW_3syn10punctuated4IterNtNtBW_4data7VariantEINtNtNtCsdze8u8oDPro_5alloc3vec9into_iter8IntoIterINtNtBc_6option6OptionNtNtCsiLWJ3muoyUj_10displaydoc4attr14VariantDisplayEEENtNtNtBa_6traits8iterator8Iterator8try_folduNCINvNtB8_3map12map_try_foldTRB1u_B2D_EINtNtBc_6result6ResultNtCs475r2uZUTuc_11proc_macro211TokenStreamNtNtBW_5error5ErrorEuINtNtNtBc_3ops12control_flow11ControlFlowIB6A_B5y_EENCNvNtB33_6expand9impl_enums_0NCINvXB8_INtB8_12GenericShuntINtB4E_3MapB3_B7p_EIB5d_NtNtBc_7convert10InfallibleB6e_EEB3R_8try_folduNCINvNvB3R_12try_for_each4callB5y_B7e_NcNtB7e_5Break0E0B7e_E0E0B6z_EB33_, symObjAddr: 0x23F4, symBinAddr: 0x3208, symSize: 0x18C }
  - { offset: 0x12CB1, size: 0x8, addend: 0x0, symName: __RNSNvYNCINvMs6_NtCscXJUXcj6jCz_9hashbrown3rawINtBd_8RawTableTNtCs475r2uZUTuc_11proc_macro25IdentINtNtCsdze8u8oDPro_5alloc3vec3VecNtNtCsATtFUPiRFW_3syn8generics10TraitBoundEEE14reserve_rehashNCINvNtBf_3map11make_hasherBX_B1w_NtNtNtCs27l1GJC5rMQ_3std4hash6random11RandomStateE0E0INtNtNtCs9f3LFPSIp77_4core3ops8function6FnOnceTQNtBd_13RawTableInnerjEE9call_once6vtableCsiLWJ3muoyUj_10displaydoc, symObjAddr: 0x25D0, symBinAddr: 0x33E4, symSize: 0x38 }
  - { offset: 0x12CF5, size: 0x8, addend: 0x0, symName: __RNSNvYNCINvMs6_NtCscXJUXcj6jCz_9hashbrown3rawINtBd_8RawTableTNtCs475r2uZUTuc_11proc_macro25IdentINtNtCsdze8u8oDPro_5alloc3vec3VecNtNtCsATtFUPiRFW_3syn8generics10TraitBoundEEE24find_or_find_insert_slotNCINvNtBf_3map14equivalent_keyBX_BX_B1w_E0NCINvB3h_11make_hasherBX_B1w_NtNtNtCs27l1GJC5rMQ_3std4hash6random11RandomStateE0E0INtNtNtCs9f3LFPSIp77_4core3ops8function6FnOnceTjEE9call_once6vtableCsiLWJ3muoyUj_10displaydoc, symObjAddr: 0x2608, symBinAddr: 0x341C, symSize: 0x38 }
  - { offset: 0x12D39, size: 0x8, addend: 0x0, symName: __RNvYNCINvMs6_NtCscXJUXcj6jCz_9hashbrown3rawINtBb_8RawTableTNtCs475r2uZUTuc_11proc_macro25IdentINtNtCsdze8u8oDPro_5alloc3vec3VecNtNtCsATtFUPiRFW_3syn8generics10TraitBoundEEE14reserve_rehashNCINvNtBd_3map11make_hasherBV_B1u_NtNtNtCs27l1GJC5rMQ_3std4hash6random11RandomStateE0E0INtNtNtCs9f3LFPSIp77_4core3ops8function6FnOnceTQNtBb_13RawTableInnerjEE9call_onceCsiLWJ3muoyUj_10displaydoc, symObjAddr: 0x59E4, symBinAddr: 0x67F8, symSize: 0x5C }
  - { offset: 0x12D7D, size: 0x8, addend: 0x0, symName: __RNvYNCINvMs6_NtCscXJUXcj6jCz_9hashbrown3rawINtBb_8RawTableTNtCs475r2uZUTuc_11proc_macro25IdentINtNtCsdze8u8oDPro_5alloc3vec3VecNtNtCsATtFUPiRFW_3syn8generics10TraitBoundEEE14reserve_rehashNCINvNtBd_3map11make_hasherBV_B1u_NtNtNtCs27l1GJC5rMQ_3std4hash6random11RandomStateE0Es_0INtNtNtCs9f3LFPSIp77_4core3ops8function6FnOnceTOhEE9call_onceCsiLWJ3muoyUj_10displaydoc, symObjAddr: 0x5A40, symBinAddr: 0x6854, symSize: 0x44 }
  - { offset: 0x12DBD, size: 0x8, addend: 0x0, symName: __RNvYNCINvMs6_NtCscXJUXcj6jCz_9hashbrown3rawINtBb_8RawTableTNtCs475r2uZUTuc_11proc_macro25IdentINtNtCsdze8u8oDPro_5alloc3vec3VecNtNtCsATtFUPiRFW_3syn8generics10TraitBoundEEE24find_or_find_insert_slotNCINvNtBd_3map14equivalent_keyBV_BV_B1u_E0NCINvB3f_11make_hasherBV_B1u_NtNtNtCs27l1GJC5rMQ_3std4hash6random11RandomStateE0E0INtNtNtCs9f3LFPSIp77_4core3ops8function6FnOnceTjEE9call_onceCsiLWJ3muoyUj_10displaydoc, symObjAddr: 0x5A84, symBinAddr: 0x6898, symSize: 0x58 }
  - { offset: 0x12E01, size: 0x8, addend: 0x0, symName: __RNvYNCNkNvNtNtNtCsjLJ1XWNSM6u_10proc_macro6bridge6client5state12BRIDGE_STATE0s_0INtNtNtCs9f3LFPSIp77_4core3ops8function6FnOnceTINtNtB1n_6option6OptionQIB22_INtNtB1n_4cell4CellPuEEEEE9call_onceCsiLWJ3muoyUj_10displaydoc, symObjAddr: 0x5ADC, symBinAddr: 0x68F0, symSize: 0x4C }
  - { offset: 0x12E45, size: 0x8, addend: 0x0, symName: __RNvYNCNkNvNvMNtNtCs27l1GJC5rMQ_3std4hash6randomNtBb_11RandomState3new4KEYS0s_0INtNtNtCs9f3LFPSIp77_4core3ops8function6FnOnceTINtNtB1l_6option6OptionQIB20_INtNtB1l_4cell4CellTyyEEEEEE9call_onceCsiLWJ3muoyUj_10displaydoc, symObjAddr: 0x5B28, symBinAddr: 0x693C, symSize: 0x4C }
  - { offset: 0x12E89, size: 0x8, addend: 0x0, symName: __RNvYNvMNtCs9f3LFPSIp77_4core6optionINtB5_6OptionINtNtB7_4cell4CellTyyEEE4takeINtNtNtB7_3ops8function6FnOnceTQBx_EE9call_onceCsiLWJ3muoyUj_10displaydoc, symObjAddr: 0x5C1C, symBinAddr: 0x6A30, symSize: 0x24 }
  - { offset: 0x12ECD, size: 0x8, addend: 0x0, symName: __RNvYNvNtCsiLWJ3muoyUj_10displaydoc6expand22new_empty_where_clauseINtNtNtCs9f3LFPSIp77_4core3ops8function6FnOnceuE9call_onceB6_, symObjAddr: 0x5C68, symBinAddr: 0x6A7C, symSize: 0x1C }
  - { offset: 0x12F11, size: 0x8, addend: 0x0, symName: __RNvYNvNvNvMNtNtCs27l1GJC5rMQ_3std4hash6randomNtB9_11RandomState3new4KEYS6___initINtNtNtCs9f3LFPSIp77_4core3ops8function6FnOnceuE9call_onceCsiLWJ3muoyUj_10displaydoc, symObjAddr: 0x5C84, symBinAddr: 0x6A98, symSize: 0x1C }
  - { offset: 0x12F55, size: 0x8, addend: 0x0, symName: __RNvYNvYINtNtCsdze8u8oDPro_5alloc5boxed3BoxNtNtCsATtFUPiRFW_3syn8generics14WherePredicateEINtNtCs9f3LFPSIp77_4core7convert5AsMutBE_E6as_mutINtNtNtB1u_3ops8function6FnOnceTQB5_EE9call_onceCsiLWJ3muoyUj_10displaydoc, symObjAddr: 0x5CA0, symBinAddr: 0x6AB4, symSize: 0x24 }
  - { offset: 0x12F99, size: 0x8, addend: 0x0, symName: __RNvYNvYINtNtNtNtCs9f3LFPSIp77_4core4iter8adapters3map3MapINtNtCsATtFUPiRFW_3syn10punctuated4IterNtNtBY_8generics14TypeParamBoundENCNCNvNtCsiLWJ3muoyUj_10displaydoc6expand37extract_trait_constraints_from_source00ENtNtNtBc_6traits8iterator8Iterator4nextINtNtNtBe_3ops8function6FnOnceTQB5_EE9call_onceB2b_, symObjAddr: 0x5CC4, symBinAddr: 0x6AD8, symSize: 0x24 }
  - { offset: 0x12FDD, size: 0x8, addend: 0x0, symName: __RNvYNvYINtNtNtNtCs9f3LFPSIp77_4core4iter8adapters3map3MapINtNtCsATtFUPiRFW_3syn10punctuated7IterMutNtNtBY_8generics14WherePredicateENCNvNtCsiLWJ3muoyUj_10displaydoc6expand39ensure_display_in_where_clause_for_type0ENtNtNtBc_6traits8iterator8Iterator4nextINtNtNtBe_3ops8function6FnOnceTQB5_EE9call_onceB2c_, symObjAddr: 0x5CE8, symBinAddr: 0x6AFC, symSize: 0x24 }
  - { offset: 0x13021, size: 0x8, addend: 0x0, symName: __RNvYNvYNtNtCsATtFUPiRFW_3syn3lit6LitStrNtNtB9_5parse5Parse5parseINtNtNtCs9f3LFPSIp77_4core3ops8function6FnOnceTRNtBD_11ParseBufferEE9call_onceCsiLWJ3muoyUj_10displaydoc, symObjAddr: 0x5D0C, symBinAddr: 0x6B20, symSize: 0x24 }
  - { offset: 0x13065, size: 0x8, addend: 0x0, symName: __RNvYNvYNtNtCsATtFUPiRFW_3syn6derive11DeriveInputNtNtB9_5parse5Parse5parseINtNtNtCs9f3LFPSIp77_4core3ops8function6FnOnceTRNtBM_11ParseBufferEE9call_onceCsiLWJ3muoyUj_10displaydoc, symObjAddr: 0x5D30, symBinAddr: 0x6B44, symSize: 0x24 }
  - { offset: 0x130A9, size: 0x8, addend: 0x0, symName: __RNvYNvYNtNtNtCsjLJ1XWNSM6u_10proc_macro6bridge3rpc12PanicMessageINtNtCs9f3LFPSIp77_4core7convert4FromINtNtCsdze8u8oDPro_5alloc5boxed3BoxDNtNtB15_3any3AnyNtNtB15_6marker4SendEL_EE4fromINtNtNtB15_3ops8function6FnOnceTB1B_EE9call_onceCsiLWJ3muoyUj_10displaydoc, symObjAddr: 0x5D54, symBinAddr: 0x6B68, symSize: 0x2C }
  - { offset: 0x130F3, size: 0x8, addend: 0x0, symName: __RNvYNcNtINtNtNtCs9f3LFPSIp77_4core3ops12control_flow11ControlFlowINtNtBd_6option6OptionNtNtCsiLWJ3muoyUj_10displaydoc4attr14VariantDisplayEE5Break0INtNtBb_8function5FnMutTB11_EE8call_mutB1r_, symObjAddr: 0x5B74, symBinAddr: 0x6988, symSize: 0x48 }
  - { offset: 0x13137, size: 0x8, addend: 0x0, symName: __RNvYNcNtINtNtNtCs9f3LFPSIp77_4core3ops12control_flow11ControlFlowNtCs475r2uZUTuc_11proc_macro211TokenStreamE5Break0INtNtBb_8function5FnMutTB11_EE8call_mutCsiLWJ3muoyUj_10displaydoc, symObjAddr: 0x5BBC, symBinAddr: 0x69D0, symSize: 0x38 }
  - { offset: 0x1317B, size: 0x8, addend: 0x0, symName: __RNvYNvMNtCs9f3LFPSIp77_4core6optionINtB5_6OptionNtNtCsiLWJ3muoyUj_10displaydoc4attr14VariantDisplayE7is_someINtNtNtB7_3ops8function5FnMutTRBx_EE8call_mutBO_, symObjAddr: 0x5C40, symBinAddr: 0x6A54, symSize: 0x28 }
  - { offset: 0x131C5, size: 0x8, addend: 0x0, symName: __RNvYNvCsiLWJ3muoyUj_10displaydoc12derive_errorINtNtNtCs9f3LFPSIp77_4core3ops8function2FnTNtCsjLJ1XWNSM6u_10proc_macro11TokenStreamEE4callB4_, symObjAddr: 0x5BF4, symBinAddr: 0x6A08, symSize: 0x28 }
  - { offset: 0x1393A, size: 0x8, addend: 0x0, symName: __RNvNvMNtNtCs9f3LFPSIp77_4core5alloc6layoutNtB4_6Layout25from_size_align_unchecked18precondition_checkCsiLWJ3muoyUj_10displaydoc, symObjAddr: 0x3394, symBinAddr: 0x41A8, symSize: 0x50 }
  - { offset: 0x13A4B, size: 0x8, addend: 0x0, symName: __RNvNvNtNtCs9f3LFPSIp77_4core5slice3raw14from_raw_parts18precondition_checkCsiLWJ3muoyUj_10displaydoc, symObjAddr: 0x3890, symBinAddr: 0x46A4, symSize: 0x164 }
  - { offset: 0x13BA5, size: 0x8, addend: 0x0, symName: __RNvNvNtNtCs9f3LFPSIp77_4core5slice3raw18from_raw_parts_mut18precondition_checkCsiLWJ3muoyUj_10displaydoc, symObjAddr: 0x39F4, symBinAddr: 0x4808, symSize: 0x164 }
  - { offset: 0x13D0A, size: 0x8, addend: 0x0, symName: __RNvNvXs0_NtNtCs9f3LFPSIp77_4core5slice5indexjINtB7_10SliceIndexSpE13get_unchecked18precondition_checkCsiLWJ3muoyUj_10displaydoc, symObjAddr: 0x3B58, symBinAddr: 0x496C, symSize: 0x40 }
  - { offset: 0x13D4C, size: 0x8, addend: 0x0, symName: __RNvNvXs2_NtNtCs9f3LFPSIp77_4core5slice5indexINtNtNtBb_3ops5range5RangejEINtB7_10SliceIndexSpE13get_unchecked18precondition_checkCsiLWJ3muoyUj_10displaydoc, symObjAddr: 0x3B98, symBinAddr: 0x49AC, symSize: 0x60 }
  - { offset: 0x13F2E, size: 0x8, addend: 0x0, symName: __RNvNvNtCs9f3LFPSIp77_4core9ub_checks17is_nonoverlapping7runtimeCsiLWJ3muoyUj_10displaydoc, symObjAddr: 0x37AC, symBinAddr: 0x45C0, symSize: 0xE4 }
  - { offset: 0x148FF, size: 0x8, addend: 0x0, symName: __RINvMNtCs9f3LFPSIp77_4core6resultINtB3_6ResultNtCs475r2uZUTuc_11proc_macro211TokenStreamNtNtCsATtFUPiRFW_3syn5error5ErrorE14unwrap_or_elseNCNvCsiLWJ3muoyUj_10displaydoc12derive_error0EB2g_, symObjAddr: 0x0, symBinAddr: 0xE14, symSize: 0x9C }
  - { offset: 0x14E5F, size: 0x8, addend: 0x0, symName: __RINvMNtCsATtFUPiRFW_3syn5errorNtB3_5Error11new_spannedRNtNtB5_4data7VariantReECsiLWJ3muoyUj_10displaydoc, symObjAddr: 0x9C, symBinAddr: 0xEB0, symSize: 0xC4 }
  - { offset: 0x14EAE, size: 0x8, addend: 0x0, symName: __RINvMNtCsATtFUPiRFW_3syn5errorNtB3_5Error11new_spannedRNtNtB5_6derive11DeriveInputReECsiLWJ3muoyUj_10displaydoc, symObjAddr: 0x160, symBinAddr: 0xF74, symSize: 0xC4 }
  - { offset: 0x15162, size: 0x8, addend: 0x0, symName: __RINvMsi_NtCsdze8u8oDPro_5alloc3vecINtB6_3VecINtNtCs9f3LFPSIp77_4core6option6OptionNtNtCsiLWJ3muoyUj_10displaydoc4attr14VariantDisplayEE16extend_desugaredINtNtNtBL_4iter8adapters12GenericShuntINtNtB2u_3map3MapINtNtCsATtFUPiRFW_3syn10punctuated4IterNtNtB3p_4data7VariantENCNvNtB1m_6expand9impl_enum0EINtNtBL_6result6ResultNtNtBL_7convert10InfallibleNtNtB3p_5error5ErrorEEEB1m_, symObjAddr: 0x224, symBinAddr: 0x1038, symSize: 0x20C }
  - { offset: 0x155E3, size: 0x8, addend: 0x0, symName: __RINvMsi_NtCsdze8u8oDPro_5alloc3vecINtB6_3VecNtCs475r2uZUTuc_11proc_macro211TokenStreamE16extend_desugaredINtNtNtCs9f3LFPSIp77_4core4iter8adapters12GenericShuntINtNtB1I_3map3MapINtNtB1I_3zip3ZipINtNtCsATtFUPiRFW_3syn10punctuated4IterNtNtB3a_4data7VariantEINtNtB6_9into_iter8IntoIterINtNtB1M_6option6OptionNtNtCsiLWJ3muoyUj_10displaydoc4attr14VariantDisplayEEENCNvNtB4W_6expand9impl_enums_0EINtNtB1M_6result6ResultNtNtB1M_7convert10InfallibleNtNtB3a_5error5ErrorEEEB4W_, symObjAddr: 0x430, symBinAddr: 0x1244, symSize: 0x1E4 }
  - { offset: 0x15A9F, size: 0x8, addend: 0x0, symName: __RINvMsi_NtCsdze8u8oDPro_5alloc3vecINtB6_3VecNtNtCsATtFUPiRFW_3syn8generics10TraitBoundE16extend_desugaredINtNtNtNtCs9f3LFPSIp77_4core4iter8adapters6cloned6ClonedINtNtB1K_7flatten7FlatMapINtNtBK_10punctuated4IterNtBI_14TypeParamBoundEINtNtB1O_6option6OptionRBG_ENCNCNvNtCsiLWJ3muoyUj_10displaydoc6expand37extract_trait_constraints_from_source00EEEB4j_, symObjAddr: 0x614, symBinAddr: 0x1428, symSize: 0x208 }
  - { offset: 0x15F5B, size: 0x8, addend: 0x0, symName: __RINvMsi_NtCsdze8u8oDPro_5alloc3vecINtB6_3VecRNtNtCsATtFUPiRFW_3syn8generics9TypeParamE16extend_desugaredNtBJ_10TypeParamsECsiLWJ3muoyUj_10displaydoc, symObjAddr: 0x81C, symBinAddr: 0x1630, symSize: 0x1AC }
  - { offset: 0x163E9, size: 0x8, addend: 0x0, symName: __RINvMsi_NtCsdze8u8oDPro_5alloc3vecINtB6_3VecReE16extend_desugaredINtNtNtNtCs9f3LFPSIp77_4core4iter8adapters3map3MapNtNtNtB1a_3str4iter5LinesNCNvMs0_NtCsiLWJ3muoyUj_10displaydoc4attrNtB2m_11AttrsHelper7displays0_0EEB2o_, symObjAddr: 0x9C8, symBinAddr: 0x17DC, symSize: 0x1A8 }
  - { offset: 0x168FA, size: 0x8, addend: 0x0, symName: __RNvXs1_NtCscXJUXcj6jCz_9hashbrown10scopeguardINtB5_10ScopeGuardNtNtB7_3raw13RawTableInnerNCINvMsa_B11_BZ_14prepare_resizeNtNtCsdze8u8oDPro_5alloc5alloc6GlobalE0ENtNtNtCs9f3LFPSIp77_4core3ops4drop4Drop4dropCsiLWJ3muoyUj_10displaydoc, symObjAddr: 0x4950, symBinAddr: 0x5764, symSize: 0x2C }
  - { offset: 0x16934, size: 0x8, addend: 0x0, symName: __RNvXs1_NtCscXJUXcj6jCz_9hashbrown10scopeguardINtB5_10ScopeGuardQNtNtB7_3raw13RawTableInnerNCNvMsa_B12_B10_15rehash_in_place0ENtNtNtCs9f3LFPSIp77_4core3ops4drop4Drop4dropCsiLWJ3muoyUj_10displaydoc, symObjAddr: 0x497C, symBinAddr: 0x5790, symSize: 0x2C }
  - { offset: 0x16B01, size: 0x8, addend: 0x0, symName: __RNvMNtCs9f3LFPSIp77_4core6resultINtB2_6ResultNtNtCsATtFUPiRFW_3syn3lit6LitStrNtNtBL_5error5ErrorE6expectCsiLWJ3muoyUj_10displaydoc, symObjAddr: 0x2640, symBinAddr: 0x3454, symSize: 0xB4 }
  - { offset: 0x16B64, size: 0x8, addend: 0x0, symName: __RNvMNtCs9f3LFPSIp77_4core6resultINtB2_6ResultNtNtNtCs27l1GJC5rMQ_3std4hash6random11RandomStateNtNtNtBN_6thread5local11AccessErrorE6expectCsiLWJ3muoyUj_10displaydoc, symObjAddr: 0x26F4, symBinAddr: 0x3508, symSize: 0x8C }
  - { offset: 0x16BC6, size: 0x8, addend: 0x0, symName: __RNvMNtCs9f3LFPSIp77_4core6resultINtB2_6ResultPuNtNtNtCs27l1GJC5rMQ_3std6thread5local11AccessErrorE6expectCsiLWJ3muoyUj_10displaydoc, symObjAddr: 0x2780, symBinAddr: 0x3594, symSize: 0x84 }
  - { offset: 0x16DA7, size: 0x8, addend: 0x0, symName: __RNvMNtCsdze8u8oDPro_5alloc5allocNtB2_6Global10alloc_implCsiLWJ3muoyUj_10displaydoc, symObjAddr: 0x2804, symBinAddr: 0x3618, symSize: 0x1BC }
  - { offset: 0x1725D, size: 0x8, addend: 0x0, symName: __RNvMs_NtCsdze8u8oDPro_5alloc3vecINtB4_3VecINtNtCs9f3LFPSIp77_4core6option6OptionNtNtCsiLWJ3muoyUj_10displaydoc4attr14VariantDisplayEE7reserveB1k_, symObjAddr: 0x29C0, symBinAddr: 0x37D4, symSize: 0xC4 }
  - { offset: 0x174AE, size: 0x8, addend: 0x0, symName: __RNvMs_NtCsdze8u8oDPro_5alloc3vecINtB4_3VecINtNtCs9f3LFPSIp77_4core6option6OptionNtNtCsiLWJ3muoyUj_10displaydoc4attr14VariantDisplayEE8as_sliceB1k_, symObjAddr: 0x2A84, symBinAddr: 0x3898, symSize: 0x7C }
  - { offset: 0x176C0, size: 0x8, addend: 0x0, symName: __RNvMs_NtCsdze8u8oDPro_5alloc3vecINtB4_3VecNtCs475r2uZUTuc_11proc_macro211TokenStreamE7reserveCsiLWJ3muoyUj_10displaydoc, symObjAddr: 0x2B00, symBinAddr: 0x3914, symSize: 0xC4 }
  - { offset: 0x17911, size: 0x8, addend: 0x0, symName: __RNvMs_NtCsdze8u8oDPro_5alloc3vecINtB4_3VecNtCs475r2uZUTuc_11proc_macro211TokenStreamE8as_sliceCsiLWJ3muoyUj_10displaydoc, symObjAddr: 0x2BC4, symBinAddr: 0x39D8, symSize: 0x7C }
  - { offset: 0x17B66, size: 0x8, addend: 0x0, symName: __RNvMs_NtCsdze8u8oDPro_5alloc3vecINtB4_3VecNtNtCsATtFUPiRFW_3syn8generics10TraitBoundE4pushCsiLWJ3muoyUj_10displaydoc, symObjAddr: 0x2C40, symBinAddr: 0x3A54, symSize: 0x12C }
  - { offset: 0x17E61, size: 0x8, addend: 0x0, symName: __RNvMs_NtCsdze8u8oDPro_5alloc3vecINtB4_3VecNtNtCsATtFUPiRFW_3syn8generics10TraitBoundE7reserveCsiLWJ3muoyUj_10displaydoc, symObjAddr: 0x2D6C, symBinAddr: 0x3B80, symSize: 0xC4 }
  - { offset: 0x17FD2, size: 0x8, addend: 0x0, symName: __RNvMs_NtCsdze8u8oDPro_5alloc3vecINtB4_3VecNtNtCsATtFUPiRFW_3syn8generics10TraitBoundE8is_emptyCsiLWJ3muoyUj_10displaydoc, symObjAddr: 0x2E30, symBinAddr: 0x3C44, symSize: 0x20 }
  - { offset: 0x18129, size: 0x8, addend: 0x0, symName: __RNvMs_NtCsdze8u8oDPro_5alloc3vecINtB4_3VecRNtNtCsATtFUPiRFW_3syn8generics9TypeParamE7reserveCsiLWJ3muoyUj_10displaydoc, symObjAddr: 0x2E50, symBinAddr: 0x3C64, symSize: 0xB8 }
  - { offset: 0x1837A, size: 0x8, addend: 0x0, symName: __RNvMs_NtCsdze8u8oDPro_5alloc3vecINtB4_3VecRNtNtCsATtFUPiRFW_3syn8generics9TypeParamE8as_sliceCsiLWJ3muoyUj_10displaydoc, symObjAddr: 0x2F08, symBinAddr: 0x3D1C, symSize: 0x78 }
  - { offset: 0x1858C, size: 0x8, addend: 0x0, symName: __RNvMs_NtCsdze8u8oDPro_5alloc3vecINtB4_3VecReE7reserveCsiLWJ3muoyUj_10displaydoc, symObjAddr: 0x2F80, symBinAddr: 0x3D94, symSize: 0xC4 }
  - { offset: 0x186E5, size: 0x8, addend: 0x0, symName: __RNvMs_NtCsdze8u8oDPro_5alloc3vecINtB4_3VecTNtNtCsATtFUPiRFW_3syn4data7VariantNtNtBJ_5token5CommaEE3lenCsiLWJ3muoyUj_10displaydoc, symObjAddr: 0x3044, symBinAddr: 0x3E58, symSize: 0x18 }
  - { offset: 0x1886F, size: 0x8, addend: 0x0, symName: __RNvMs_NtCsdze8u8oDPro_5alloc3vecINtB4_3VecTNtNtCsATtFUPiRFW_3syn8generics14WherePredicateNtNtBJ_5token5CommaEE12as_mut_sliceCsiLWJ3muoyUj_10displaydoc, symObjAddr: 0x305C, symBinAddr: 0x3E70, symSize: 0x7C }
  - { offset: 0x19748, size: 0x8, addend: 0x0, symName: __RNvXs4_NtNtCs62MdaZFMefA_5quote9___private3extINtNtCsdze8u8oDPro_5alloc3vec3VecNtCs475r2uZUTuc_11proc_macro211TokenStreamENtB5_16RepAsIteratorExt15quote_into_iterCsiLWJ3muoyUj_10displaydoc, symObjAddr: 0x4CB0, symBinAddr: 0x5AC4, symSize: 0x38 }
  - { offset: 0x1A9A2, size: 0x8, addend: 0x0, symName: __RINvMs6_NtCscXJUXcj6jCz_9hashbrown3rawINtB6_8RawTableTNtCs475r2uZUTuc_11proc_macro25IdentINtNtCsdze8u8oDPro_5alloc3vec3VecNtNtCsATtFUPiRFW_3syn8generics10TraitBoundEEE14reserve_rehashNCINvNtB8_3map11make_hasherBQ_B1p_NtNtNtCs27l1GJC5rMQ_3std4hash6random11RandomStateE0ECsiLWJ3muoyUj_10displaydoc, symObjAddr: 0x0, symBinAddr: 0x28C91C, symSize: 0x918 }
  - { offset: 0x1A9DE, size: 0x8, addend: 0x0, symName: __RNCINvMs6_NtCscXJUXcj6jCz_9hashbrown3rawINtB8_8RawTableTNtCs475r2uZUTuc_11proc_macro25IdentINtNtCsdze8u8oDPro_5alloc3vec3VecNtNtCsATtFUPiRFW_3syn8generics10TraitBoundEEE14reserve_rehashNCINvNtBa_3map11make_hasherBS_B1r_NtNtNtCs27l1GJC5rMQ_3std4hash6random11RandomStateE0E0CsiLWJ3muoyUj_10displaydoc, symObjAddr: 0x136C, symBinAddr: 0x75F4, symSize: 0xC4 }
  - { offset: 0x1ABA7, size: 0x8, addend: 0x0, symName: __RNCINvMs6_NtCscXJUXcj6jCz_9hashbrown3rawINtB8_8RawTableTNtCs475r2uZUTuc_11proc_macro25IdentINtNtCsdze8u8oDPro_5alloc3vec3VecNtNtCsATtFUPiRFW_3syn8generics10TraitBoundEEE14reserve_rehashNCINvNtBa_3map11make_hasherBS_B1r_NtNtNtCs27l1GJC5rMQ_3std4hash6random11RandomStateE0Es_0CsiLWJ3muoyUj_10displaydoc, symObjAddr: 0x1430, symBinAddr: 0x76B8, symSize: 0x30 }
  - { offset: 0x1AC04, size: 0x8, addend: 0x0, symName: __RNCINvMs6_NtCscXJUXcj6jCz_9hashbrown3rawINtB8_8RawTableTNtCs475r2uZUTuc_11proc_macro25IdentINtNtCsdze8u8oDPro_5alloc3vec3VecNtNtCsATtFUPiRFW_3syn8generics10TraitBoundEEE24find_or_find_insert_slotNCINvNtBa_3map14equivalent_keyBS_BS_B1r_E0NCINvB3c_11make_hasherBS_B1r_NtNtNtCs27l1GJC5rMQ_3std4hash6random11RandomStateE0E0CsiLWJ3muoyUj_10displaydoc, symObjAddr: 0x1460, symBinAddr: 0x76E8, symSize: 0xC8 }
  - { offset: 0x1B727, size: 0x8, addend: 0x0, symName: __RNCINvMsa_NtCscXJUXcj6jCz_9hashbrown3rawNtB8_13RawTableInner14prepare_resizeNtNtCsdze8u8oDPro_5alloc5alloc6GlobalE0CsiLWJ3muoyUj_10displaydoc, symObjAddr: 0x1528, symBinAddr: 0x77B0, symSize: 0xBC }
  - { offset: 0x1B908, size: 0x8, addend: 0x0, symName: __RNCNvMsa_NtCscXJUXcj6jCz_9hashbrown3rawNtB7_13RawTableInner15rehash_in_place0CsiLWJ3muoyUj_10displaydoc, symObjAddr: 0x15E4, symBinAddr: 0x786C, symSize: 0x260 }
  - { offset: 0x1C29E, size: 0x8, addend: 0x0, symName: __RNvNtCscXJUXcj6jCz_9hashbrown3raw19capacity_to_bucketsCsiLWJ3muoyUj_10displaydoc, symObjAddr: 0x2E34, symBinAddr: 0x90BC, symSize: 0x1A4 }
  - { offset: 0x1C462, size: 0x8, addend: 0x0, symName: __RNvXsB_NtCscXJUXcj6jCz_9hashbrown3rawINtB5_11RawIntoIterTNtCs475r2uZUTuc_11proc_macro25IdentINtNtCsdze8u8oDPro_5alloc3vec3VecNtNtCsATtFUPiRFW_3syn8generics10TraitBoundEEENtNtNtCs9f3LFPSIp77_4core3ops4drop4Drop4dropCsiLWJ3muoyUj_10displaydoc, symObjAddr: 0x2FD8, symBinAddr: 0x9260, symSize: 0x78 }
  - { offset: 0x1C4E2, size: 0x8, addend: 0x0, symName: __RNvXsD_NtCscXJUXcj6jCz_9hashbrown3rawINtB5_11RawIntoIterTNtCs475r2uZUTuc_11proc_macro25IdentINtNtCsdze8u8oDPro_5alloc3vec3VecNtNtCsATtFUPiRFW_3syn8generics10TraitBoundEEENtNtNtNtCs9f3LFPSIp77_4core4iter6traits8iterator8Iterator4nextCsiLWJ3muoyUj_10displaydoc, symObjAddr: 0x3050, symBinAddr: 0x92D8, symSize: 0x114 }
  - { offset: 0x1C683, size: 0x8, addend: 0x0, symName: __RNvXsg_NtCscXJUXcj6jCz_9hashbrown3rawINtB5_8RawTableTNtCs475r2uZUTuc_11proc_macro25IdentINtNtCsdze8u8oDPro_5alloc3vec3VecNtNtCsATtFUPiRFW_3syn8generics10TraitBoundEEENtNtNtCs9f3LFPSIp77_4core3ops4drop4Drop4dropCsiLWJ3muoyUj_10displaydoc, symObjAddr: 0x3164, symBinAddr: 0x93EC, symSize: 0x3C }
  - { offset: 0x1C6EB, size: 0x8, addend: 0x0, symName: __RNvXsh_NtCscXJUXcj6jCz_9hashbrown3rawINtB5_8RawTableTNtCs475r2uZUTuc_11proc_macro25IdentINtNtCsdze8u8oDPro_5alloc3vec3VecNtNtCsATtFUPiRFW_3syn8generics10TraitBoundEEENtNtNtNtCs9f3LFPSIp77_4core4iter6traits7collect12IntoIterator9into_iterCsiLWJ3muoyUj_10displaydoc, symObjAddr: 0x31A0, symBinAddr: 0x9428, symSize: 0x11C }
  - { offset: 0x27DF3, size: 0x8, addend: 0x0, symName: __RINvMs6_NtCscXJUXcj6jCz_9hashbrown3rawINtB6_8RawTableTNtCs475r2uZUTuc_11proc_macro25IdentINtNtCsdze8u8oDPro_5alloc3vec3VecNtNtCsATtFUPiRFW_3syn8generics10TraitBoundEEE14reserve_rehashNCINvNtB8_3map11make_hasherBQ_B1p_NtNtNtCs27l1GJC5rMQ_3std4hash6random11RandomStateE0ECsiLWJ3muoyUj_10displaydoc, symObjAddr: 0x0, symBinAddr: 0x28C91C, symSize: 0x918 }
  - { offset: 0x289E0, size: 0x8, addend: 0x0, symName: __RINvMs6_NtCscXJUXcj6jCz_9hashbrown3rawINtB6_8RawTableTNtCs475r2uZUTuc_11proc_macro25IdentINtNtCsdze8u8oDPro_5alloc3vec3VecNtNtCsATtFUPiRFW_3syn8generics10TraitBoundEEE24find_or_find_insert_slotNCINvNtB8_3map14equivalent_keyBQ_BQ_B1p_E0NCINvB3a_11make_hasherBQ_B1p_NtNtNtCs27l1GJC5rMQ_3std4hash6random11RandomStateE0ECsiLWJ3muoyUj_10displaydoc, symObjAddr: 0x918, symBinAddr: 0x6BA0, symSize: 0x140 }
  - { offset: 0x28BCE, size: 0x8, addend: 0x0, symName: __RINvMs6_NtCscXJUXcj6jCz_9hashbrown3rawINtB6_8RawTableTNtCs475r2uZUTuc_11proc_macro25IdentINtNtCsdze8u8oDPro_5alloc3vec3VecNtNtCsATtFUPiRFW_3syn8generics10TraitBoundEEE7reserveNCINvNtB8_3map11make_hasherBQ_B1p_NtNtNtCs27l1GJC5rMQ_3std4hash6random11RandomStateE0ECsiLWJ3muoyUj_10displaydoc, symObjAddr: 0xA58, symBinAddr: 0x6CE0, symSize: 0xCC }
  - { offset: 0x28DA0, size: 0x8, addend: 0x0, symName: __RINvMsa_NtCscXJUXcj6jCz_9hashbrown3rawNtB6_13RawTableInner13drop_elementsTNtCs475r2uZUTuc_11proc_macro25IdentINtNtCsdze8u8oDPro_5alloc3vec3VecNtNtCsATtFUPiRFW_3syn8generics10TraitBoundEEECsiLWJ3muoyUj_10displaydoc, symObjAddr: 0xB24, symBinAddr: 0x6DAC, symSize: 0x174 }
  - { offset: 0x29227, size: 0x8, addend: 0x0, symName: __RINvMsa_NtCscXJUXcj6jCz_9hashbrown3rawNtB6_13RawTableInner16drop_inner_tableTNtCs475r2uZUTuc_11proc_macro25IdentINtNtCsdze8u8oDPro_5alloc3vec3VecNtNtCsATtFUPiRFW_3syn8generics10TraitBoundEENtNtB1R_5alloc6GlobalECsiLWJ3muoyUj_10displaydoc, symObjAddr: 0xC98, symBinAddr: 0x6F20, symSize: 0xBC }
  - { offset: 0x29439, size: 0x8, addend: 0x0, symName: __RINvMsa_NtCscXJUXcj6jCz_9hashbrown3rawNtB6_13RawTableInner17new_uninitializedNtNtCsdze8u8oDPro_5alloc5alloc6GlobalECsiLWJ3muoyUj_10displaydoc, symObjAddr: 0xD54, symBinAddr: 0x6FDC, symSize: 0x1B0 }
  - { offset: 0x2967C, size: 0x8, addend: 0x0, symName: __RINvMsa_NtCscXJUXcj6jCz_9hashbrown3rawNtB6_13RawTableInner22fallible_with_capacityNtNtCsdze8u8oDPro_5alloc5alloc6GlobalECsiLWJ3muoyUj_10displaydoc, symObjAddr: 0xF04, symBinAddr: 0x718C, symSize: 0x2A0 }
  - { offset: 0x29ABB, size: 0x8, addend: 0x0, symName: __RINvMsi_NtCscXJUXcj6jCz_9hashbrown3rawINtB6_12RawIterRangeTNtCs475r2uZUTuc_11proc_macro25IdentINtNtCsdze8u8oDPro_5alloc3vec3VecNtNtCsATtFUPiRFW_3syn8generics10TraitBoundEEE9next_implKb0_ECsiLWJ3muoyUj_10displaydoc, symObjAddr: 0x11A4, symBinAddr: 0x742C, symSize: 0x1C8 }
  - { offset: 0x2A240, size: 0x8, addend: 0x0, symName: __RNvMs1_NtCscXJUXcj6jCz_9hashbrown3rawNtB5_11TableLayout20calculate_layout_forCsiLWJ3muoyUj_10displaydoc, symObjAddr: 0x1844, symBinAddr: 0x7ACC, symSize: 0x224 }
  - { offset: 0x2A6E8, size: 0x8, addend: 0x0, symName: __RNvMs6_NtCscXJUXcj6jCz_9hashbrown3rawINtB5_8RawTableTNtCs475r2uZUTuc_11proc_macro25IdentINtNtCsdze8u8oDPro_5alloc3vec3VecNtNtCsATtFUPiRFW_3syn8generics10TraitBoundEEE14insert_in_slotCsiLWJ3muoyUj_10displaydoc, symObjAddr: 0x1A68, symBinAddr: 0x7CF0, symSize: 0x190 }
  - { offset: 0x2AB73, size: 0x8, addend: 0x0, symName: __RNvMs6_NtCscXJUXcj6jCz_9hashbrown3rawINtB5_8RawTableTNtCs475r2uZUTuc_11proc_macro25IdentINtNtCsdze8u8oDPro_5alloc3vec3VecNtNtCsATtFUPiRFW_3syn8generics10TraitBoundEEE14into_iter_fromCsiLWJ3muoyUj_10displaydoc, symObjAddr: 0x1BF8, symBinAddr: 0x7E80, symSize: 0x90 }
  - { offset: 0x2AC5E, size: 0x8, addend: 0x0, symName: __RNvMs6_NtCscXJUXcj6jCz_9hashbrown3rawINtB5_8RawTableTNtCs475r2uZUTuc_11proc_macro25IdentINtNtCsdze8u8oDPro_5alloc3vec3VecNtNtCsATtFUPiRFW_3syn8generics10TraitBoundEEE15into_allocationCsiLWJ3muoyUj_10displaydoc, symObjAddr: 0x1C88, symBinAddr: 0x7F10, symSize: 0x13C }
  - { offset: 0x2AEAC, size: 0x8, addend: 0x0, symName: __RNvMsa_NtCscXJUXcj6jCz_9hashbrown3rawNtB5_13RawTableInner15fix_insert_slotCsiLWJ3muoyUj_10displaydoc, symObjAddr: 0x1DC4, symBinAddr: 0x804C, symSize: 0x118 }
  - { offset: 0x2B31B, size: 0x8, addend: 0x0, symName: __RNvMsa_NtCscXJUXcj6jCz_9hashbrown3rawNtB5_13RawTableInner15rehash_in_placeCsiLWJ3muoyUj_10displaydoc, symObjAddr: 0x1EDC, symBinAddr: 0x8164, symSize: 0x574 }
  - { offset: 0x2BE4A, size: 0x8, addend: 0x0, symName: __RNvMsa_NtCscXJUXcj6jCz_9hashbrown3rawNtB5_13RawTableInner16find_insert_slotCsiLWJ3muoyUj_10displaydoc, symObjAddr: 0x2450, symBinAddr: 0x86D8, symSize: 0x168 }
  - { offset: 0x2C1A2, size: 0x8, addend: 0x0, symName: __RNvMsa_NtCscXJUXcj6jCz_9hashbrown3rawNtB5_13RawTableInner23prepare_rehash_in_placeCsiLWJ3muoyUj_10displaydoc, symObjAddr: 0x25B8, symBinAddr: 0x8840, symSize: 0x25C }
  - { offset: 0x2C858, size: 0x8, addend: 0x0, symName: __RNvMsa_NtCscXJUXcj6jCz_9hashbrown3rawNtB5_13RawTableInner25find_insert_slot_in_groupCsiLWJ3muoyUj_10displaydoc, symObjAddr: 0x2814, symBinAddr: 0x8A9C, symSize: 0x184 }
  - { offset: 0x2CB61, size: 0x8, addend: 0x0, symName: __RNvMsa_NtCscXJUXcj6jCz_9hashbrown3rawNtB5_13RawTableInner30find_or_find_insert_slot_innerCsiLWJ3muoyUj_10displaydoc, symObjAddr: 0x2998, symBinAddr: 0x8C20, symSize: 0x300 }
  - { offset: 0x2CF39, size: 0x8, addend: 0x0, symName: __RNvMsi_NtCscXJUXcj6jCz_9hashbrown3rawINtB5_12RawIterRangeTNtCs475r2uZUTuc_11proc_macro25IdentINtNtCsdze8u8oDPro_5alloc3vec3VecNtNtCsATtFUPiRFW_3syn8generics10TraitBoundEEE3newCsiLWJ3muoyUj_10displaydoc, symObjAddr: 0x2C98, symBinAddr: 0x8F20, symSize: 0xA4 }
  - { offset: 0x2D146, size: 0x8, addend: 0x0, symName: __RNvMso_NtCscXJUXcj6jCz_9hashbrown3rawINtB5_7RawIterTNtCs475r2uZUTuc_11proc_macro25IdentINtNtCsdze8u8oDPro_5alloc3vec3VecNtNtCsATtFUPiRFW_3syn8generics10TraitBoundEEE13drop_elementsCsiLWJ3muoyUj_10displaydoc, symObjAddr: 0x2D3C, symBinAddr: 0x8FC4, symSize: 0xF8 }
  - { offset: 0x2D405, size: 0x8, addend: 0x0, symName: __RINvXs2U_NtNtCs9f3LFPSIp77_4core5slice4iterINtB7_4IterINtNtBb_6option6OptionNtNtCsiLWJ3muoyUj_10displaydoc4attr14VariantDisplayEENtNtNtNtBb_4iter6traits8iterator8Iterator3anyNvMBT_BQ_7is_someEB1g_, symObjAddr: 0x0, symBinAddr: 0x9544, symSize: 0xB0 }
  - { offset: 0x2E30A, size: 0x8, addend: 0x0, symName: __RINvXs2U_NtNtCs9f3LFPSIp77_4core5slice4iterINtB7_4IterINtNtBb_6option6OptionNtNtCsiLWJ3muoyUj_10displaydoc4attr14VariantDisplayEENtNtNtNtBb_4iter6traits8iterator8Iterator3anyNvMBT_BQ_7is_someEB1g_, symObjAddr: 0x0, symBinAddr: 0x9544, symSize: 0xB0 }
  - { offset: 0x2E36F, size: 0x8, addend: 0x0, symName: __RINvXs2U_NtNtCs9f3LFPSIp77_4core5slice4iterINtB7_4IterNtNtCsATtFUPiRFW_3syn4attr9AttributeENtNtNtNtBb_4iter6traits8iterator8Iterator3anyNCNvMs0_NtCsiLWJ3muoyUj_10displaydoc4attrNtB2i_11AttrsHelper3new0EB2k_, symObjAddr: 0xB0, symBinAddr: 0x95F4, symSize: 0xB0 }
  - { offset: 0x2E3D4, size: 0x8, addend: 0x0, symName: __RINvXs2U_NtNtCs9f3LFPSIp77_4core5slice4iterINtB7_4IterNtNtCsATtFUPiRFW_3syn4attr9AttributeENtNtNtNtBb_4iter6traits8iterator8Iterator3anyNCNvMs0_NtCsiLWJ3muoyUj_10displaydoc4attrNtB2i_11AttrsHelper3news_0EB2k_, symObjAddr: 0x160, symBinAddr: 0x96A4, symSize: 0xB0 }
  - { offset: 0x2E439, size: 0x8, addend: 0x0, symName: __RINvXs2U_NtNtCs9f3LFPSIp77_4core5slice4iterINtB7_4IterNtNtCsATtFUPiRFW_3syn4attr9AttributeENtNtNtNtBb_4iter6traits8iterator8Iterator4findNCNvMs0_NtCsiLWJ3muoyUj_10displaydoc4attrNtB2j_11AttrsHelper7display0EB2l_, symObjAddr: 0x210, symBinAddr: 0x9754, symSize: 0xB0 }
  - { offset: 0x2E49E, size: 0x8, addend: 0x0, symName: __RINvXs2U_NtNtCs9f3LFPSIp77_4core5slice4iterINtB7_4IterNtNtCsATtFUPiRFW_3syn4attr9AttributeENtNtNtNtBb_4iter6traits8iterator8Iterator4foldjNCINvNtNtB1x_8adapters3map8map_foldRBQ_jjNCINvNvXs1_NtB2j_6filterINtB32_6FilterppEB1r_5count8to_usizeB2L_NCNvMs0_NtCsiLWJ3muoyUj_10displaydoc4attrNtB41_11AttrsHelper7displays_0E0NCINvXsK_NtB1v_5accumjNtB5d_3Sum3sumINtB2h_3MapBF_B2R_EE0E0EB43_, symObjAddr: 0x2C0, symBinAddr: 0x9804, symSize: 0x1FC }
  - { offset: 0x2E686, size: 0x8, addend: 0x0, symName: __RINvXs2U_NtNtCs9f3LFPSIp77_4core5slice4iterINtB7_4IterRNtNtCsATtFUPiRFW_3syn8generics9TypeParamENtNtNtNtBb_4iter6traits8iterator8Iterator4folduNCINvNtNtB1C_8adapters3map8map_foldRBQ_TNtCs475r2uZUTuc_11proc_macro25IdentINtNtCsdze8u8oDPro_5alloc3vec3VecNtBT_10TraitBoundEEuNCNvNtCsiLWJ3muoyUj_10displaydoc6expand37extract_trait_constraints_from_source0NCINvNvB1w_8for_each4callB2U_NCINvXs1i_NtCscXJUXcj6jCz_9hashbrown3mapINtB6f_7HashMapB2V_B3u_NtNtNtCs27l1GJC5rMQ_3std4hash6random11RandomStateEINtNtB1A_7collect6ExtendB2U_E6extendINtB2m_3MapBF_B4l_EE0E0E0EB4r_, symObjAddr: 0x4BC, symBinAddr: 0x9A00, symSize: 0x1CC }
  - { offset: 0x2E867, size: 0x8, addend: 0x0, symName: __RNvXs2U_NtNtCs9f3LFPSIp77_4core5slice4iterINtB6_4IterINtNtBa_6option6OptionNtNtCsiLWJ3muoyUj_10displaydoc4attr14VariantDisplayEENtNtNtNtBa_4iter6traits8iterator8Iterator4nextB1f_, symObjAddr: 0x82C, symBinAddr: 0x9D70, symSize: 0xCC }
  - { offset: 0x2E9C8, size: 0x8, addend: 0x0, symName: __RNvXs2U_NtNtCs9f3LFPSIp77_4core5slice4iterINtB6_4IterNtCs475r2uZUTuc_11proc_macro211TokenStreamENtNtNtNtBa_4iter6traits8iterator8Iterator4nextCsiLWJ3muoyUj_10displaydoc, symObjAddr: 0x8F8, symBinAddr: 0x9E3C, symSize: 0xCC }
  - { offset: 0x2EB29, size: 0x8, addend: 0x0, symName: __RNvXs2U_NtNtCs9f3LFPSIp77_4core5slice4iterINtB6_4IterRNtNtCsATtFUPiRFW_3syn8generics9TypeParamENtNtNtNtBa_4iter6traits8iterator8Iterator9size_hintCsiLWJ3muoyUj_10displaydoc, symObjAddr: 0x9C4, symBinAddr: 0x9F08, symSize: 0xC0 }
  - { offset: 0x2EED9, size: 0x8, addend: 0x0, symName: __RNvXs2V_NtNtCs9f3LFPSIp77_4core5slice4iterINtB6_4IterTNtNtCsATtFUPiRFW_3syn4data7VariantNtNtBU_5token5CommaEENtNtNtNtBa_4iter6traits12double_ended19DoubleEndedIterator9next_backCsiLWJ3muoyUj_10displaydoc, symObjAddr: 0xA84, symBinAddr: 0x9FC8, symSize: 0x114 }
  - { offset: 0x2F05F, size: 0x8, addend: 0x0, symName: __RNvXs2V_NtNtCs9f3LFPSIp77_4core5slice4iterINtB6_4IterTNtNtCsATtFUPiRFW_3syn8generics14WherePredicateNtNtBU_5token5CommaEENtNtNtNtBa_4iter6traits12double_ended19DoubleEndedIterator9next_backCsiLWJ3muoyUj_10displaydoc, symObjAddr: 0xB98, symBinAddr: 0xA0DC, symSize: 0x114 }
  - { offset: 0x2F28F, size: 0x8, addend: 0x0, symName: __RNvXs32_NtNtCs9f3LFPSIp77_4core5slice4iterINtB6_7IterMutTNtNtCsATtFUPiRFW_3syn8generics14WherePredicateNtNtBX_5token5CommaEENtNtNtNtBa_4iter6traits8iterator8Iterator4nextCsiLWJ3muoyUj_10displaydoc, symObjAddr: 0xDB4, symBinAddr: 0xA2F8, symSize: 0xCC }
  - { offset: 0x2F3D8, size: 0x8, addend: 0x0, symName: __RNvXs33_NtNtCs9f3LFPSIp77_4core5slice4iterINtB6_7IterMutTNtNtCsATtFUPiRFW_3syn8generics14WherePredicateNtNtBX_5token5CommaEENtNtNtNtBa_4iter6traits12double_ended19DoubleEndedIterator9next_backCsiLWJ3muoyUj_10displaydoc, symObjAddr: 0xE80, symBinAddr: 0xA3C4, symSize: 0x110 }
  - { offset: 0x2F548, size: 0x8, addend: 0x0, symName: __RNvXs5_NtNtCs9f3LFPSIp77_4core5slice4iterINtB5_4IterTNtNtCsATtFUPiRFW_3syn4data7VariantNtNtBT_5token5CommaEENtNtB9_5clone5Clone5cloneCsiLWJ3muoyUj_10displaydoc, symObjAddr: 0xF90, symBinAddr: 0xA4D4, symSize: 0x20 }
  - { offset: 0x2F57D, size: 0x8, addend: 0x0, symName: __RNvXs5_NtNtCs9f3LFPSIp77_4core5slice4iterINtB5_4IterTNtNtCsATtFUPiRFW_3syn8generics14WherePredicateNtNtBT_5token5CommaEENtNtB9_5clone5Clone5cloneCsiLWJ3muoyUj_10displaydoc, symObjAddr: 0xFB0, symBinAddr: 0xA4F4, symSize: 0x20 }
  - { offset: 0x31D56, size: 0x8, addend: 0x0, symName: __RINvYINtNtNtCs9f3LFPSIp77_4core5slice4iter4IterNtNtCsATtFUPiRFW_3syn4attr9AttributeENtNtNtNtBa_4iter6traits8iterator8Iterator3mapjNCINvNvXs1_NtNtB1q_8adapters6filterINtB2f_6FilterppEB1k_5count8to_usizeRBJ_NCNvMs0_NtCsiLWJ3muoyUj_10displaydoc4attrNtB3p_11AttrsHelper7displays_0E0EB3r_, symObjAddr: 0x688, symBinAddr: 0x9BCC, symSize: 0x1C }
  - { offset: 0x31DAE, size: 0x8, addend: 0x0, symName: __RINvYINtNtNtCs9f3LFPSIp77_4core5slice4iter4IterNtNtCsATtFUPiRFW_3syn4attr9AttributeENtNtNtNtBa_4iter6traits8iterator8Iterator6filterNCNvMs0_NtCsiLWJ3muoyUj_10displaydoc4attrNtB2e_11AttrsHelper7displays_0EB2g_, symObjAddr: 0x6A4, symBinAddr: 0x9BE8, symSize: 0x1C }
  - { offset: 0x31DFD, size: 0x8, addend: 0x0, symName: __RINvYINtNtNtCs9f3LFPSIp77_4core5slice4iter4IterRNtNtCsATtFUPiRFW_3syn8generics9TypeParamENtNtNtNtBa_4iter6traits8iterator8Iterator3mapTNtCs475r2uZUTuc_11proc_macro25IdentINtNtCsdze8u8oDPro_5alloc3vec3VecNtBM_10TraitBoundEENCNvNtCsiLWJ3muoyUj_10displaydoc6expand37extract_trait_constraints_from_source0EB3E_, symObjAddr: 0x6C0, symBinAddr: 0x9C04, symSize: 0x1C }
  - { offset: 0x31E80, size: 0x8, addend: 0x0, symName: __RNvXs_NtNtNtCs9f3LFPSIp77_4core4iter6traits7collectINtNtNtBa_5slice4iter4IterReENtB4_12IntoIterator9into_iterCsiLWJ3muoyUj_10displaydoc, symObjAddr: 0xFD0, symBinAddr: 0xA514, symSize: 0x1C }
  - { offset: 0x32192, size: 0x8, addend: 0x0, symName: __RNvXs2_NtNtNtCs9f3LFPSIp77_4core3ops8function5implsQNCNCNvNtCsiLWJ3muoyUj_10displaydoc6expand11impl_struct00INtB7_6FnOnceTRNtNtCsATtFUPiRFW_3syn4data5FieldEE9call_onceBW_, symObjAddr: 0xCAC, symBinAddr: 0xA1F0, symSize: 0x2C }
  - { offset: 0x321E1, size: 0x8, addend: 0x0, symName: __RNvXs2_NtNtNtCs9f3LFPSIp77_4core3ops8function5implsQNCNCNvNtCsiLWJ3muoyUj_10displaydoc6expand11impl_struct0s_0INtB7_6FnOnceTjEE9call_onceBW_, symObjAddr: 0xCD8, symBinAddr: 0xA21C, symSize: 0x2C }
  - { offset: 0x32230, size: 0x8, addend: 0x0, symName: __RNvXs2_NtNtNtCs9f3LFPSIp77_4core3ops8function5implsQNCNCNvNtCsiLWJ3muoyUj_10displaydoc6expand37extract_trait_constraints_from_source00INtB7_6FnOnceTRNtNtCsATtFUPiRFW_3syn8generics14TypeParamBoundEE9call_onceBW_, symObjAddr: 0xD04, symBinAddr: 0xA248, symSize: 0x2C }
  - { offset: 0x3227F, size: 0x8, addend: 0x0, symName: __RNvXs2_NtNtNtCs9f3LFPSIp77_4core3ops8function5implsQNCNCNvNtCsiLWJ3muoyUj_10displaydoc6expand9impl_enums_0s0_0INtB7_6FnOnceTjEE9call_onceBW_, symObjAddr: 0xD30, symBinAddr: 0xA274, symSize: 0x2C }
  - { offset: 0x322CE, size: 0x8, addend: 0x0, symName: __RNvXs2_NtNtNtCs9f3LFPSIp77_4core3ops8function5implsQNCNCNvNtCsiLWJ3muoyUj_10displaydoc6expand9impl_enums_0s_0INtB7_6FnOnceTRNtNtCsATtFUPiRFW_3syn4data5FieldEE9call_onceBW_, symObjAddr: 0xD5C, symBinAddr: 0xA2A0, symSize: 0x2C }
  - { offset: 0x3231D, size: 0x8, addend: 0x0, symName: __RNvXs2_NtNtNtCs9f3LFPSIp77_4core3ops8function5implsQNCNvNtCsiLWJ3muoyUj_10displaydoc6expand39ensure_display_in_where_clause_for_type0INtB7_6FnOnceTQNtNtCsATtFUPiRFW_3syn8generics14WherePredicateEE9call_onceBU_, symObjAddr: 0xD88, symBinAddr: 0xA2CC, symSize: 0x2C }
  - { offset: 0x32F8B, size: 0x8, addend: 0x0, symName: __RNvNtCsiLWJ3muoyUj_10displaydoc6expand6derive, symObjAddr: 0xFEC, symBinAddr: 0xA530, symSize: 0x490 }
  - { offset: 0x330B0, size: 0x8, addend: 0x0, symName: __RNvNtCsiLWJ3muoyUj_10displaydoc6expand14specialization, symObjAddr: 0x147C, symBinAddr: 0xA9C0, symSize: 0x24 }
  - { offset: 0x330CD, size: 0x8, addend: 0x0, symName: __RNvNtCsiLWJ3muoyUj_10displaydoc6expand11impl_struct, symObjAddr: 0x14A0, symBinAddr: 0xA9E4, symSize: 0x294 }
  - { offset: 0x331D4, size: 0x8, addend: 0x0, symName: __RNCNvNtCsiLWJ3muoyUj_10displaydoc6expand11impl_struct0B5_, symObjAddr: 0x1734, symBinAddr: 0xAC78, symSize: 0xB60 }
  - { offset: 0x334E5, size: 0x8, addend: 0x0, symName: __RNCNCNvNtCsiLWJ3muoyUj_10displaydoc6expand11impl_struct00B7_, symObjAddr: 0x2294, symBinAddr: 0xB7D8, symSize: 0x28 }
  - { offset: 0x3351B, size: 0x8, addend: 0x0, symName: __RNCNCNvNtCsiLWJ3muoyUj_10displaydoc6expand11impl_struct0s_0B7_, symObjAddr: 0x22BC, symBinAddr: 0xB800, symSize: 0x14C }
  - { offset: 0x335F4, size: 0x8, addend: 0x0, symName: __RNvNtCsiLWJ3muoyUj_10displaydoc6expand30new_empty_where_type_predicate, symObjAddr: 0x2408, symBinAddr: 0xB94C, symSize: 0x248 }
  - { offset: 0x33636, size: 0x8, addend: 0x0, symName: __RNvNtCsiLWJ3muoyUj_10displaydoc6expand22new_empty_where_clause, symObjAddr: 0x2650, symBinAddr: 0xBB94, symSize: 0x58 }
  - { offset: 0x33653, size: 0x8, addend: 0x0, symName: __RNvNtCsiLWJ3muoyUj_10displaydoc6expand10join_paths, symObjAddr: 0x26A8, symBinAddr: 0xBBEC, symSize: 0x448 }
  - { offset: 0x336F5, size: 0x8, addend: 0x0, symName: __RNvNtCsiLWJ3muoyUj_10displaydoc6expand34append_where_clause_type_predicate, symObjAddr: 0x2AF0, symBinAddr: 0xC034, symSize: 0x12C }
  - { offset: 0x3372C, size: 0x8, addend: 0x0, symName: __RNvNtCsiLWJ3muoyUj_10displaydoc6expand40add_display_constraint_to_type_predicate, symObjAddr: 0x2C1C, symBinAddr: 0xC160, symSize: 0x1C0 }
  - { offset: 0x33780, size: 0x8, addend: 0x0, symName: __RNvNtCsiLWJ3muoyUj_10displaydoc6expand37extract_trait_constraints_from_source, symObjAddr: 0x2DDC, symBinAddr: 0xC320, symSize: 0x410 }
  - { offset: 0x338B9, size: 0x8, addend: 0x0, symName: __RNCNvNtCsiLWJ3muoyUj_10displaydoc6expand37extract_trait_constraints_from_source0B5_, symObjAddr: 0x31EC, symBinAddr: 0xC730, symSize: 0xEC }
  - { offset: 0x33909, size: 0x8, addend: 0x0, symName: __RNCNCNvNtCsiLWJ3muoyUj_10displaydoc6expand37extract_trait_constraints_from_source00B7_, symObjAddr: 0x32D8, symBinAddr: 0xC81C, symSize: 0x80 }
  - { offset: 0x33964, size: 0x8, addend: 0x0, symName: __RNCNvNtCsiLWJ3muoyUj_10displaydoc6expand37extract_trait_constraints_from_sources_0B5_, symObjAddr: 0x3358, symBinAddr: 0xC89C, symSize: 0x50 }
  - { offset: 0x339BD, size: 0x8, addend: 0x0, symName: __RNvNtCsiLWJ3muoyUj_10displaydoc6expand39ensure_display_in_where_clause_for_type, symObjAddr: 0x33A8, symBinAddr: 0xC8EC, symSize: 0x318 }
  - { offset: 0x33A85, size: 0x8, addend: 0x0, symName: __RNCNvNtCsiLWJ3muoyUj_10displaydoc6expand39ensure_display_in_where_clause_for_type0B5_, symObjAddr: 0x36C0, symBinAddr: 0xCC04, symSize: 0x78 }
  - { offset: 0x33AE4, size: 0x8, addend: 0x0, symName: __RNvNtCsiLWJ3muoyUj_10displaydoc6expand61ensure_where_clause_has_display_for_all_unconstrained_members, symObjAddr: 0x3738, symBinAddr: 0xCC7C, symSize: 0x208 }
  - { offset: 0x33B72, size: 0x8, addend: 0x0, symName: __RNvNtCsiLWJ3muoyUj_10displaydoc6expand21generate_where_clause, symObjAddr: 0x3940, symBinAddr: 0xCE84, symSize: 0x138 }
  - { offset: 0x33BDC, size: 0x8, addend: 0x0, symName: __RNvNtCsiLWJ3muoyUj_10displaydoc6expand9impl_enum, symObjAddr: 0x3A78, symBinAddr: 0xCFBC, symSize: 0xEF0 }
  - { offset: 0x33ECE, size: 0x8, addend: 0x0, symName: __RNCNvNtCsiLWJ3muoyUj_10displaydoc6expand9impl_enum0B5_, symObjAddr: 0x4968, symBinAddr: 0xDEAC, symSize: 0x84 }
  - { offset: 0x33F21, size: 0x8, addend: 0x0, symName: __RNCNvNtCsiLWJ3muoyUj_10displaydoc6expand9impl_enums_0B5_, symObjAddr: 0x49EC, symBinAddr: 0xDF30, symSize: 0x8BC }
  - { offset: 0x34242, size: 0x8, addend: 0x0, symName: __RNCNCNvNtCsiLWJ3muoyUj_10displaydoc6expand9impl_enums_00B7_, symObjAddr: 0x52A8, symBinAddr: 0xE7EC, symSize: 0x48 }
  - { offset: 0x34272, size: 0x8, addend: 0x0, symName: __RNCNCNvNtCsiLWJ3muoyUj_10displaydoc6expand9impl_enums_0s_0B7_, symObjAddr: 0x52F0, symBinAddr: 0xE834, symSize: 0x28 }
  - { offset: 0x342AB, size: 0x8, addend: 0x0, symName: __RNCNCNvNtCsiLWJ3muoyUj_10displaydoc6expand9impl_enums_0s0_0B7_, symObjAddr: 0x5318, symBinAddr: 0xE85C, symSize: 0x14C }
  - { offset: 0x3A904, size: 0x8, addend: 0x0, symName: __RNvMs4_NtNtCs9f3LFPSIp77_4core5slice4iterINtB5_4IterINtNtB9_6option6OptionNtNtCsiLWJ3muoyUj_10displaydoc4attr14VariantDisplayEE3newB1e_, symObjAddr: 0x6DC, symBinAddr: 0x9C20, symSize: 0x58 }
  - { offset: 0x3AAB2, size: 0x8, addend: 0x0, symName: __RNvMs4_NtNtCs9f3LFPSIp77_4core5slice4iterINtB5_4IterNtCs475r2uZUTuc_11proc_macro211TokenStreamE3newCsiLWJ3muoyUj_10displaydoc, symObjAddr: 0x734, symBinAddr: 0x9C78, symSize: 0x50 }
  - { offset: 0x3AC46, size: 0x8, addend: 0x0, symName: __RNvMs4_NtNtCs9f3LFPSIp77_4core5slice4iterINtB5_4IterRNtNtCsATtFUPiRFW_3syn8generics9TypeParamE3newCsiLWJ3muoyUj_10displaydoc, symObjAddr: 0x784, symBinAddr: 0x9CC8, symSize: 0x50 }
  - { offset: 0x3ADF4, size: 0x8, addend: 0x0, symName: __RNvMsa_NtNtCs9f3LFPSIp77_4core5slice4iterINtB5_7IterMutTNtNtCsATtFUPiRFW_3syn8generics14WherePredicateNtNtBW_5token5CommaEE3newCsiLWJ3muoyUj_10displaydoc, symObjAddr: 0x7D4, symBinAddr: 0x9D18, symSize: 0x58 }
  - { offset: 0x3BE06, size: 0x8, addend: 0x0, symName: __RINvXs1n_NtNtNtCs27l1GJC5rMQ_3std11collections4hash3mapINtB7_7HashMapNtCs475r2uZUTuc_11proc_macro25IdentINtNtCsdze8u8oDPro_5alloc3vec3VecNtNtCsATtFUPiRFW_3syn8generics10TraitBoundEEINtNtNtNtCs9f3LFPSIp77_4core4iter6traits7collect12FromIteratorTB15_B1E_EE9from_iterINtNtNtB30_8adapters3map3MapINtNtNtB32_5slice4iter4IterRNtB2d_9TypeParamENCNvNtCsiLWJ3muoyUj_10displaydoc6expand37extract_trait_constraints_from_source0EEB5v_, symObjAddr: 0x0, symBinAddr: 0xE9A8, symSize: 0x130 }
  - { offset: 0x3C36C, size: 0x8, addend: 0x0, symName: __RNCNCNvXsG_NtCsATtFUPiRFW_3syn10punctuatedINtB9_14PrivateIterMutNtNtBb_8generics14WherePredicateNtNtBb_5token5CommaENtNtNtNtCs9f3LFPSIp77_4core4iter6traits12double_ended19DoubleEndedIterator9next_back00CsiLWJ3muoyUj_10displaydoc, symObjAddr: 0x8F8, symBinAddr: 0xF2A0, symSize: 0x24 }
  - { offset: 0x3C3BF, size: 0x8, addend: 0x0, symName: __RNCNvXsG_NtCsATtFUPiRFW_3syn10punctuatedINtB7_14PrivateIterMutNtNtB9_8generics14WherePredicateNtNtB9_5token5CommaENtNtNtNtCs9f3LFPSIp77_4core4iter6traits12double_ended19DoubleEndedIterator9next_back0CsiLWJ3muoyUj_10displaydoc, symObjAddr: 0x9BC, symBinAddr: 0xF364, symSize: 0x38 }
  - { offset: 0x3C402, size: 0x8, addend: 0x0, symName: __RNvXsG_NtCsATtFUPiRFW_3syn10punctuatedINtB5_14PrivateIterMutNtNtB7_8generics14WherePredicateNtNtB7_5token5CommaENtNtNtNtCs9f3LFPSIp77_4core4iter6traits12double_ended19DoubleEndedIterator9next_backCsiLWJ3muoyUj_10displaydoc, symObjAddr: 0x1378, symBinAddr: 0xFD20, symSize: 0x40 }
  - { offset: 0x3C452, size: 0x8, addend: 0x0, symName: __RNCNCNvXsx_NtCsATtFUPiRFW_3syn10punctuatedINtB9_11PrivateIterNtNtBb_4data7VariantNtNtBb_5token5CommaENtNtNtNtCs9f3LFPSIp77_4core4iter6traits12double_ended19DoubleEndedIterator9next_back00CsiLWJ3muoyUj_10displaydoc, symObjAddr: 0x91C, symBinAddr: 0xF2C4, symSize: 0x24 }
  - { offset: 0x3C49D, size: 0x8, addend: 0x0, symName: __RNCNCNvXsx_NtCsATtFUPiRFW_3syn10punctuatedINtB9_11PrivateIterNtNtBb_8generics14WherePredicateNtNtBb_5token5CommaENtNtNtNtCs9f3LFPSIp77_4core4iter6traits12double_ended19DoubleEndedIterator9next_back00CsiLWJ3muoyUj_10displaydoc, symObjAddr: 0x940, symBinAddr: 0xF2E8, symSize: 0x24 }
  - { offset: 0x3C4F7, size: 0x8, addend: 0x0, symName: __RNCNvXsx_NtCsATtFUPiRFW_3syn10punctuatedINtB7_11PrivateIterNtNtB9_4data7VariantNtNtB9_5token5CommaENtNtNtNtCs9f3LFPSIp77_4core4iter6traits12double_ended19DoubleEndedIterator9next_back0CsiLWJ3muoyUj_10displaydoc, symObjAddr: 0xAA4, symBinAddr: 0xF44C, symSize: 0x38 }
  - { offset: 0x3C539, size: 0x8, addend: 0x0, symName: __RNCNvXsx_NtCsATtFUPiRFW_3syn10punctuatedINtB7_11PrivateIterNtNtB9_8generics14WherePredicateNtNtB9_5token5CommaENtNtNtNtCs9f3LFPSIp77_4core4iter6traits12double_ended19DoubleEndedIterator9next_back0CsiLWJ3muoyUj_10displaydoc, symObjAddr: 0xADC, symBinAddr: 0xF484, symSize: 0x38 }
  - { offset: 0x3C57C, size: 0x8, addend: 0x0, symName: __RNvXsx_NtCsATtFUPiRFW_3syn10punctuatedINtB5_11PrivateIterNtNtB7_4data7VariantNtNtB7_5token5CommaENtNtNtNtCs9f3LFPSIp77_4core4iter6traits12double_ended19DoubleEndedIterator9next_backCsiLWJ3muoyUj_10displaydoc, symObjAddr: 0x18C4, symBinAddr: 0x1026C, symSize: 0x40 }
  - { offset: 0x3C5BC, size: 0x8, addend: 0x0, symName: __RNvXsx_NtCsATtFUPiRFW_3syn10punctuatedINtB5_11PrivateIterNtNtB7_8generics14WherePredicateNtNtB7_5token5CommaENtNtNtNtCs9f3LFPSIp77_4core4iter6traits12double_ended19DoubleEndedIterator9next_backCsiLWJ3muoyUj_10displaydoc, symObjAddr: 0x1904, symBinAddr: 0x102AC, symSize: 0x40 }
  - { offset: 0x3C607, size: 0x8, addend: 0x0, symName: __RNCNvXsF_NtCsATtFUPiRFW_3syn10punctuatedINtB7_14PrivateIterMutNtNtB9_8generics14WherePredicateNtNtB9_5token5CommaENtNtNtNtCs9f3LFPSIp77_4core4iter6traits8iterator8Iterator4next0CsiLWJ3muoyUj_10displaydoc, symObjAddr: 0x964, symBinAddr: 0xF30C, symSize: 0x24 }
  - { offset: 0x3C652, size: 0x8, addend: 0x0, symName: __RNCNvXsF_NtCsATtFUPiRFW_3syn10punctuatedINtB7_14PrivateIterMutNtNtB9_8generics14WherePredicateNtNtB9_5token5CommaENtNtNtNtCs9f3LFPSIp77_4core4iter6traits8iterator8Iterator4nexts_0CsiLWJ3muoyUj_10displaydoc, symObjAddr: 0x988, symBinAddr: 0xF330, symSize: 0x34 }
  - { offset: 0x3C69C, size: 0x8, addend: 0x0, symName: __RNvXsF_NtCsATtFUPiRFW_3syn10punctuatedINtB5_14PrivateIterMutNtNtB7_8generics14WherePredicateNtNtB7_5token5CommaENtNtNtNtCs9f3LFPSIp77_4core4iter6traits8iterator8Iterator4nextCsiLWJ3muoyUj_10displaydoc, symObjAddr: 0x1334, symBinAddr: 0xFCDC, symSize: 0x44 }
  - { offset: 0x3C6E7, size: 0x8, addend: 0x0, symName: __RNCNvXsw_NtCsATtFUPiRFW_3syn10punctuatedINtB7_11PrivateIterNtNtB9_4data7VariantNtNtB9_5token5CommaENtNtNtNtCs9f3LFPSIp77_4core4iter6traits8iterator8Iterator4next0CsiLWJ3muoyUj_10displaydoc, symObjAddr: 0x9F4, symBinAddr: 0xF39C, symSize: 0x24 }
  - { offset: 0x3C732, size: 0x8, addend: 0x0, symName: __RNCNvXsw_NtCsATtFUPiRFW_3syn10punctuatedINtB7_11PrivateIterNtNtB9_4data7VariantNtNtB9_5token5CommaENtNtNtNtCs9f3LFPSIp77_4core4iter6traits8iterator8Iterator4nexts_0CsiLWJ3muoyUj_10displaydoc, symObjAddr: 0xA18, symBinAddr: 0xF3C0, symSize: 0x34 }
  - { offset: 0x3C774, size: 0x8, addend: 0x0, symName: __RNCNvXsw_NtCsATtFUPiRFW_3syn10punctuatedINtB7_11PrivateIterNtNtB9_8generics14WherePredicateNtNtB9_5token5CommaENtNtNtNtCs9f3LFPSIp77_4core4iter6traits8iterator8Iterator4next0CsiLWJ3muoyUj_10displaydoc, symObjAddr: 0xA4C, symBinAddr: 0xF3F4, symSize: 0x24 }
  - { offset: 0x3C7BF, size: 0x8, addend: 0x0, symName: __RNCNvXsw_NtCsATtFUPiRFW_3syn10punctuatedINtB7_11PrivateIterNtNtB9_8generics14WherePredicateNtNtB9_5token5CommaENtNtNtNtCs9f3LFPSIp77_4core4iter6traits8iterator8Iterator4nexts_0CsiLWJ3muoyUj_10displaydoc, symObjAddr: 0xA70, symBinAddr: 0xF418, symSize: 0x34 }
  - { offset: 0x3C810, size: 0x8, addend: 0x0, symName: __RNvXsw_NtCsATtFUPiRFW_3syn10punctuatedINtB5_11PrivateIterNtNtB7_4data7VariantNtNtB7_5token5CommaENtNtNtNtCs9f3LFPSIp77_4core4iter6traits8iterator8Iterator4nextCsiLWJ3muoyUj_10displaydoc, symObjAddr: 0x183C, symBinAddr: 0x101E4, symSize: 0x44 }
  - { offset: 0x3C850, size: 0x8, addend: 0x0, symName: __RNvXsw_NtCsATtFUPiRFW_3syn10punctuatedINtB5_11PrivateIterNtNtB7_8generics14WherePredicateNtNtB7_5token5CommaENtNtNtNtCs9f3LFPSIp77_4core4iter6traits8iterator8Iterator4nextCsiLWJ3muoyUj_10displaydoc, symObjAddr: 0x1880, symBinAddr: 0x10228, symSize: 0x44 }
  - { offset: 0x3C8B4, size: 0x8, addend: 0x0, symName: __RNvXsA_NtCsATtFUPiRFW_3syn10punctuatedINtB5_11PrivateIterNtNtB7_4data7VariantNtNtB7_5token5CommaEINtB5_9IterTraitBT_E9clone_boxCsiLWJ3muoyUj_10displaydoc, symObjAddr: 0x11C4, symBinAddr: 0xFB6C, symSize: 0x94 }
  - { offset: 0x3C912, size: 0x8, addend: 0x0, symName: __RNvXsA_NtCsATtFUPiRFW_3syn10punctuatedINtB5_11PrivateIterNtNtB7_8generics14WherePredicateNtNtB7_5token5CommaEINtB5_9IterTraitBT_E9clone_boxCsiLWJ3muoyUj_10displaydoc, symObjAddr: 0x1258, symBinAddr: 0xFC00, symSize: 0x94 }
  - { offset: 0x3C976, size: 0x8, addend: 0x0, symName: __RNvXsC_NtCsATtFUPiRFW_3syn10punctuatedINtB5_7IterMutNtNtB7_8generics14WherePredicateENtNtNtNtCs9f3LFPSIp77_4core4iter6traits8iterator8Iterator4nextCsiLWJ3muoyUj_10displaydoc, symObjAddr: 0x12EC, symBinAddr: 0xFC94, symSize: 0x48 }
  - { offset: 0x3C9B3, size: 0x8, addend: 0x0, symName: __RNvXsH_NtCsATtFUPiRFW_3syn10punctuatedINtB5_14PrivateIterMutNtNtB7_8generics14WherePredicateNtNtB7_5token5CommaENtNtNtNtCs9f3LFPSIp77_4core4iter6traits10exact_size17ExactSizeIterator3lenCsiLWJ3muoyUj_10displaydoc, symObjAddr: 0x13B8, symBinAddr: 0xFD60, symSize: 0xC4 }
  - { offset: 0x3CAA3, size: 0x8, addend: 0x0, symName: __RNvXst_NtCsATtFUPiRFW_3syn10punctuatedINtB5_4IterNtNtB7_4data7VariantENtNtNtNtCs9f3LFPSIp77_4core4iter6traits8iterator8Iterator4nextCsiLWJ3muoyUj_10displaydoc, symObjAddr: 0x1624, symBinAddr: 0xFFCC, symSize: 0x48 }
  - { offset: 0x3CADA, size: 0x8, addend: 0x0, symName: __RNvXst_NtCsATtFUPiRFW_3syn10punctuatedINtB5_4IterNtNtB7_4data7VariantENtNtNtNtCs9f3LFPSIp77_4core4iter6traits8iterator8Iterator9size_hintCsiLWJ3muoyUj_10displaydoc, symObjAddr: 0x166C, symBinAddr: 0x10014, symSize: 0x7C }
  - { offset: 0x3CB11, size: 0x8, addend: 0x0, symName: __RNvXst_NtCsATtFUPiRFW_3syn10punctuatedINtB5_4IterNtNtB7_8generics14TypeParamBoundENtNtNtNtCs9f3LFPSIp77_4core4iter6traits8iterator8Iterator9size_hintCsiLWJ3muoyUj_10displaydoc, symObjAddr: 0x16E8, symBinAddr: 0x10090, symSize: 0x7C }
  - { offset: 0x3CB48, size: 0x8, addend: 0x0, symName: __RNvXst_NtCsATtFUPiRFW_3syn10punctuatedINtB5_4IterNtNtB7_8generics14WherePredicateENtNtNtNtCs9f3LFPSIp77_4core4iter6traits8iterator8Iterator4nextCsiLWJ3muoyUj_10displaydoc, symObjAddr: 0x1764, symBinAddr: 0x1010C, symSize: 0x48 }
  - { offset: 0x3CB85, size: 0x8, addend: 0x0, symName: __RNvXsv_NtCsATtFUPiRFW_3syn10punctuatedINtB5_4IterNtNtB7_4data7VariantENtNtNtNtCs9f3LFPSIp77_4core4iter6traits10exact_size17ExactSizeIterator3lenCsiLWJ3muoyUj_10displaydoc, symObjAddr: 0x17AC, symBinAddr: 0x10154, symSize: 0x48 }
  - { offset: 0x3CBBC, size: 0x8, addend: 0x0, symName: __RNvXsv_NtCsATtFUPiRFW_3syn10punctuatedINtB5_4IterNtNtB7_8generics14TypeParamBoundENtNtNtNtCs9f3LFPSIp77_4core4iter6traits10exact_size17ExactSizeIterator3lenCsiLWJ3muoyUj_10displaydoc, symObjAddr: 0x17F4, symBinAddr: 0x1019C, symSize: 0x48 }
  - { offset: 0x3CBF9, size: 0x8, addend: 0x0, symName: __RNvXsy_NtCsATtFUPiRFW_3syn10punctuatedINtB5_11PrivateIterNtNtB7_4data7VariantNtNtB7_5token5CommaENtNtNtNtCs9f3LFPSIp77_4core4iter6traits10exact_size17ExactSizeIterator3lenCsiLWJ3muoyUj_10displaydoc, symObjAddr: 0x1944, symBinAddr: 0x102EC, symSize: 0xC4 }
  - { offset: 0x3CCE3, size: 0x8, addend: 0x0, symName: __RNvXsy_NtCsATtFUPiRFW_3syn10punctuatedINtB5_11PrivateIterNtNtB7_8generics14WherePredicateNtNtB7_5token5CommaENtNtNtNtCs9f3LFPSIp77_4core4iter6traits10exact_size17ExactSizeIterator3lenCsiLWJ3muoyUj_10displaydoc, symObjAddr: 0x1A08, symBinAddr: 0x103B0, symSize: 0xC4 }
  - { offset: 0x3CDD3, size: 0x8, addend: 0x0, symName: __RNvXsz_NtCsATtFUPiRFW_3syn10punctuatedINtB5_11PrivateIterNtNtB7_4data7VariantNtNtB7_5token5CommaENtNtCs9f3LFPSIp77_4core5clone5Clone5cloneCsiLWJ3muoyUj_10displaydoc, symObjAddr: 0x1ACC, symBinAddr: 0x10474, symSize: 0x68 }
  - { offset: 0x3CE13, size: 0x8, addend: 0x0, symName: __RNvXsz_NtCsATtFUPiRFW_3syn10punctuatedINtB5_11PrivateIterNtNtB7_8generics14WherePredicateNtNtB7_5token5CommaENtNtCs9f3LFPSIp77_4core5clone5Clone5cloneCsiLWJ3muoyUj_10displaydoc, symObjAddr: 0x1B34, symBinAddr: 0x104DC, symSize: 0x68 }
  - { offset: 0x42027, size: 0x8, addend: 0x0, symName: __RNvXNvXsd_NtNtCsdze8u8oDPro_5alloc3vec9into_iterINtB8_8IntoIterppENtNtNtCs9f3LFPSIp77_4core3ops4drop4Drop4dropINtB2_9DropGuardINtNtB18_6option6OptionNtNtCsiLWJ3muoyUj_10displaydoc4attr14VariantDisplayENtNtBc_5alloc6GlobalEB12_4dropB2r_, symObjAddr: 0xEC4, symBinAddr: 0xF86C, symSize: 0x88 }
  - { offset: 0x4215D, size: 0x8, addend: 0x0, symName: __RNvXsd_NtNtCsdze8u8oDPro_5alloc3vec9into_iterINtB5_8IntoIterINtNtCs9f3LFPSIp77_4core6option6OptionNtNtCsiLWJ3muoyUj_10displaydoc4attr14VariantDisplayEENtNtNtB11_3ops4drop4Drop4dropB1C_, symObjAddr: 0x158C, symBinAddr: 0xFF34, symSize: 0x98 }
  - { offset: 0x421FD, size: 0x8, addend: 0x0, symName: __RNvXs3_NtNtCsdze8u8oDPro_5alloc3vec9into_iterINtB5_8IntoIterINtNtCs9f3LFPSIp77_4core6option6OptionNtNtCsiLWJ3muoyUj_10displaydoc4attr14VariantDisplayEENtNtNtNtB11_4iter6traits8iterator8Iterator4nextB1C_, symObjAddr: 0x1014, symBinAddr: 0xF9BC, symSize: 0xF8 }
  - { offset: 0x423AD, size: 0x8, addend: 0x0, symName: __RNvXs3_NtNtCsdze8u8oDPro_5alloc3vec9into_iterINtB5_8IntoIterINtNtCs9f3LFPSIp77_4core6option6OptionNtNtCsiLWJ3muoyUj_10displaydoc4attr14VariantDisplayEENtNtNtNtB11_4iter6traits8iterator8Iterator9size_hintB1C_, symObjAddr: 0x110C, symBinAddr: 0xFAB4, symSize: 0xB8 }
  - { offset: 0x43D02, size: 0x8, addend: 0x0, symName: __RNvNvMs1_NtNtCs9f3LFPSIp77_4core3ptr8non_nullINtB7_7NonNullpE13new_unchecked18precondition_checkCsiLWJ3muoyUj_10displaydoc, symObjAddr: 0xE24, symBinAddr: 0xF7CC, symSize: 0x40 }
  - { offset: 0x4707F, size: 0x8, addend: 0x0, symName: __RNCINvNvXs1_NtNtNtCs9f3LFPSIp77_4core4iter8adapters6filterINtBa_6FilterppENtNtNtBe_6traits8iterator8Iterator5count8to_usizeRNtNtCsATtFUPiRFW_3syn4attr9AttributeNCNvMs0_NtCsiLWJ3muoyUj_10displaydoc4attrNtB2G_11AttrsHelper7displays_0E0B2I_, symObjAddr: 0x89C, symBinAddr: 0xF244, symSize: 0x5C }
  - { offset: 0x470E1, size: 0x8, addend: 0x0, symName: __RNvXs1_NtNtNtCs9f3LFPSIp77_4core4iter8adapters6filterINtB5_6FilterINtNtNtBb_5slice4iter4IterNtNtCsATtFUPiRFW_3syn4attr9AttributeENCNvMs0_NtCsiLWJ3muoyUj_10displaydoc4attrNtB2b_11AttrsHelper7displays_0ENtNtNtB9_6traits8iterator8Iterator5countB2d_, symObjAddr: 0xF4C, symBinAddr: 0xF8F4, symSize: 0x50 }
  - { offset: 0x471DE, size: 0x8, addend: 0x0, symName: __RINvYINtNtCsATtFUPiRFW_3syn10punctuated4IterNtNtB8_4data5FieldENtNtNtNtCs9f3LFPSIp77_4core4iter6traits8iterator8Iterator3mapRINtNtB17_6option6OptionNtCs475r2uZUTuc_11proc_macro25IdentENCNCNvNtCsiLWJ3muoyUj_10displaydoc6expand11impl_struct00EB34_, symObjAddr: 0x130, symBinAddr: 0xEAD8, symSize: 0x1C }
  - { offset: 0x47236, size: 0x8, addend: 0x0, symName: __RINvYINtNtCsATtFUPiRFW_3syn10punctuated4IterNtNtB8_4data5FieldENtNtNtNtCs9f3LFPSIp77_4core4iter6traits8iterator8Iterator3mapRINtNtB17_6option6OptionNtCs475r2uZUTuc_11proc_macro25IdentENCNCNvNtCsiLWJ3muoyUj_10displaydoc6expand9impl_enums_0s_0EB34_, symObjAddr: 0x14C, symBinAddr: 0xEAF4, symSize: 0x1C }
  - { offset: 0x4728E, size: 0x8, addend: 0x0, symName: __RINvYINtNtCsATtFUPiRFW_3syn10punctuated4IterNtNtB8_4data7VariantENtNtNtNtCs9f3LFPSIp77_4core4iter6traits8iterator8Iterator3mapINtNtB19_6result6ResultINtNtB19_6option6OptionNtNtCsiLWJ3muoyUj_10displaydoc4attr14VariantDisplayENtNtB8_5error5ErrorENCNvNtB2O_6expand9impl_enum0EB2O_, symObjAddr: 0x168, symBinAddr: 0xEB10, symSize: 0x3C }
  - { offset: 0x4730C, size: 0x8, addend: 0x0, symName: __RINvYINtNtCsATtFUPiRFW_3syn10punctuated4IterNtNtB8_4data7VariantENtNtNtNtCs9f3LFPSIp77_4core4iter6traits8iterator8Iterator3zipINtNtCsdze8u8oDPro_5alloc3vec3VecINtNtB19_6option6OptionNtNtCsiLWJ3muoyUj_10displaydoc4attr14VariantDisplayEEEB2Y_, symObjAddr: 0x1A4, symBinAddr: 0xEB4C, symSize: 0xA0 }
  - { offset: 0x47382, size: 0x8, addend: 0x0, symName: __RINvYINtNtCsATtFUPiRFW_3syn10punctuated4IterNtNtB8_4data7VariantENtNtNtNtCs9f3LFPSIp77_4core4iter6traits8iterator8Iterator8try_folduNCINvNtNtB17_8adapters3map12map_try_foldRBG_INtNtB19_6result6ResultINtNtB19_6option6OptionNtNtCsiLWJ3muoyUj_10displaydoc4attr14VariantDisplayENtNtB8_5error5ErrorEuINtNtNtB19_3ops12control_flow11ControlFlowIB4K_B3b_EENCNvNtB3C_6expand9impl_enum0NCINvXB2d_INtB2d_12GenericShuntINtB2b_3MapB3_B5A_EIB2P_NtNtB19_7convert10InfallibleB4o_EEB11_8try_folduNCINvNvB11_12try_for_each4callB3b_B5p_NcNtB5p_5Break0E0B5p_E0E0B4J_EB3C_, symObjAddr: 0x244, symBinAddr: 0xEBEC, symSize: 0x14C }
  - { offset: 0x4743D, size: 0x8, addend: 0x0, symName: __RINvYINtNtCsATtFUPiRFW_3syn10punctuated4IterNtNtB8_8generics14TypeParamBoundENtNtNtNtCs9f3LFPSIp77_4core4iter6traits8iterator8Iterator3mapINtNtB1l_6option6OptionRNtBI_10TraitBoundENCNCNvNtCsiLWJ3muoyUj_10displaydoc6expand37extract_trait_constraints_from_source00EB30_, symObjAddr: 0x390, symBinAddr: 0xED38, symSize: 0x1C }
  - { offset: 0x474BC, size: 0x8, addend: 0x0, symName: __RINvYINtNtCsATtFUPiRFW_3syn10punctuated4IterNtNtB8_8generics14TypeParamBoundENtNtNtNtCs9f3LFPSIp77_4core4iter6traits8iterator8Iterator8flat_mapINtNtB1l_6option6OptionRNtBI_10TraitBoundENCNCNvNtCsiLWJ3muoyUj_10displaydoc6expand37extract_trait_constraints_from_source00EB35_, symObjAddr: 0x3AC, symBinAddr: 0xED54, symSize: 0x94 }
  - { offset: 0x47593, size: 0x8, addend: 0x0, symName: __RINvYINtNtCsATtFUPiRFW_3syn10punctuated7IterMutNtNtB8_8generics14WherePredicateENtNtNtNtCs9f3LFPSIp77_4core4iter6traits8iterator8Iterator3mapINtNtB1o_6option6OptionQNtBL_13PredicateTypeENCNvNtCsiLWJ3muoyUj_10displaydoc6expand39ensure_display_in_where_clause_for_type0EB34_, symObjAddr: 0x440, symBinAddr: 0xEDE8, symSize: 0x1C }
  - { offset: 0x47612, size: 0x8, addend: 0x0, symName: __RINvYINtNtCsATtFUPiRFW_3syn10punctuated7IterMutNtNtB8_8generics14WherePredicateENtNtNtNtCs9f3LFPSIp77_4core4iter6traits8iterator8Iterator8flat_mapINtNtB1o_6option6OptionQNtBL_13PredicateTypeENCNvNtCsiLWJ3muoyUj_10displaydoc6expand39ensure_display_in_where_clause_for_type0EB39_, symObjAddr: 0x45C, symBinAddr: 0xEE04, symSize: 0x94 }
  - { offset: 0x476E9, size: 0x8, addend: 0x0, symName: __RINvYINtNtNtNtCs27l1GJC5rMQ_3std11collections4hash3map7IterMutNtCs475r2uZUTuc_11proc_macro25IdentINtNtCsdze8u8oDPro_5alloc3vec3VecNtNtCsATtFUPiRFW_3syn8generics10TraitBoundEENtNtNtNtCs9f3LFPSIp77_4core4iter6traits8iterator8Iterator4findNCNvNtCsiLWJ3muoyUj_10displaydoc6expand37extract_trait_constraints_from_sources_0EB3S_, symObjAddr: 0x4F0, symBinAddr: 0xEE98, symSize: 0x90 }
  - { offset: 0x47764, size: 0x8, addend: 0x0, symName: __RINvYINtNtNtNtCs27l1GJC5rMQ_3std11collections4hash3map7IterMutNtCs475r2uZUTuc_11proc_macro25IdentINtNtCsdze8u8oDPro_5alloc3vec3VecNtNtCsATtFUPiRFW_3syn8generics10TraitBoundEENtNtNtNtCs9f3LFPSIp77_4core4iter6traits8iterator8Iterator8try_folduNCINvNvB2M_4find5checkTRBY_QB1x_ENCNvNtCsiLWJ3muoyUj_10displaydoc6expand37extract_trait_constraints_from_sources_0E0INtNtNtB2U_3ops12control_flow11ControlFlowB4d_EEB4u_, symObjAddr: 0x580, symBinAddr: 0xEF28, symSize: 0x198 }
  - { offset: 0x4782B, size: 0x8, addend: 0x0, symName: __RNCINvNvNtNtNtNtCs9f3LFPSIp77_4core4iter6traits8iterator8Iterator12try_for_each4callINtNtBe_6option6OptionNtNtCsiLWJ3muoyUj_10displaydoc4attr14VariantDisplayEINtNtNtBe_3ops12control_flow11ControlFlowB1k_ENcNtB2w_5Break0E0B1K_, symObjAddr: 0x718, symBinAddr: 0xF0C0, symSize: 0x48 }
  - { offset: 0x47890, size: 0x8, addend: 0x0, symName: __RNCINvNvNtNtNtNtCs9f3LFPSIp77_4core4iter6traits8iterator8Iterator12try_for_each4callNtCs475r2uZUTuc_11proc_macro211TokenStreamINtNtNtBe_3ops12control_flow11ControlFlowB1k_ENcNtB20_5Break0E0CsiLWJ3muoyUj_10displaydoc, symObjAddr: 0x760, symBinAddr: 0xF108, symSize: 0x3C }
  - { offset: 0x47914, size: 0x8, addend: 0x0, symName: __RNCINvNvNtNtNtNtCs9f3LFPSIp77_4core4iter6traits8iterator8Iterator4find5checkTRNtCs475r2uZUTuc_11proc_macro25IdentQINtNtCsdze8u8oDPro_5alloc3vec3VecNtNtCsATtFUPiRFW_3syn8generics10TraitBoundEENCNvNtCsiLWJ3muoyUj_10displaydoc6expand37extract_trait_constraints_from_sources_0E0B39_, symObjAddr: 0x79C, symBinAddr: 0xF144, symSize: 0x84 }
  - { offset: 0x4798F, size: 0x8, addend: 0x0, symName: __RNCINvNvNtNtNtNtCs9f3LFPSIp77_4core4iter6traits8iterator8Iterator8for_each4callNtCs475r2uZUTuc_11proc_macro29TokenTreeNCINvXsa_NtB1h_8fallbackNtB21_11TokenStreamINtNtBa_7collect6ExtendB1f_E6extendNtB1h_11TokenStreamE0E0CsiLWJ3muoyUj_10displaydoc, symObjAddr: 0x820, symBinAddr: 0xF1C8, symSize: 0x3C }
  - { offset: 0x479E8, size: 0x8, addend: 0x0, symName: __RNCINvNvNtNtNtNtCs9f3LFPSIp77_4core4iter6traits8iterator8Iterator8for_each4callTNtCs475r2uZUTuc_11proc_macro25IdentINtNtCsdze8u8oDPro_5alloc3vec3VecNtNtCsATtFUPiRFW_3syn8generics10TraitBoundEENCINvXs1i_NtCscXJUXcj6jCz_9hashbrown3mapINtB3e_7HashMapB1g_B1P_NtNtNtCs27l1GJC5rMQ_3std4hash6random11RandomStateEINtNtBa_7collect6ExtendB1f_E6extendINtNtNtBc_8adapters3map3MapINtNtNtBe_5slice4iter4IterRNtB2o_9TypeParamENCNvNtCsiLWJ3muoyUj_10displaydoc6expand37extract_trait_constraints_from_source0EE0E0B6H_, symObjAddr: 0x85C, symBinAddr: 0xF204, symSize: 0x40 }
  - { offset: 0x47A73, size: 0x8, addend: 0x0, symName: __RNvYINtNtCsATtFUPiRFW_3syn10punctuated11PrivateIterNtNtB7_4data7VariantNtNtB7_5token5CommaENtNtNtNtCs9f3LFPSIp77_4core4iter6traits8iterator8Iterator10advance_byCsiLWJ3muoyUj_10displaydoc, symObjAddr: 0x1D64, symBinAddr: 0x1070C, symSize: 0x134 }
  - { offset: 0x47BC8, size: 0x8, addend: 0x0, symName: __RNvYINtNtCsATtFUPiRFW_3syn10punctuated11PrivateIterNtNtB7_4data7VariantNtNtB7_5token5CommaENtNtNtNtCs9f3LFPSIp77_4core4iter6traits8iterator8Iterator3nthCsiLWJ3muoyUj_10displaydoc, symObjAddr: 0x1E98, symBinAddr: 0x10840, symSize: 0x80 }
  - { offset: 0x47C9B, size: 0x8, addend: 0x0, symName: __RNvYINtNtCsATtFUPiRFW_3syn10punctuated11PrivateIterNtNtB7_4data7VariantNtNtB7_5token5CommaENtNtNtNtCs9f3LFPSIp77_4core4iter6traits8iterator8Iterator9size_hintCsiLWJ3muoyUj_10displaydoc, symObjAddr: 0x1F18, symBinAddr: 0x108C0, symSize: 0x34 }
  - { offset: 0x47CD0, size: 0x8, addend: 0x0, symName: __RNvYINtNtCsATtFUPiRFW_3syn10punctuated11PrivateIterNtNtB7_8generics14WherePredicateNtNtB7_5token5CommaENtNtNtNtCs9f3LFPSIp77_4core4iter6traits8iterator8Iterator10advance_byCsiLWJ3muoyUj_10displaydoc, symObjAddr: 0x2114, symBinAddr: 0x10ABC, symSize: 0x134 }
  - { offset: 0x47E25, size: 0x8, addend: 0x0, symName: __RNvYINtNtCsATtFUPiRFW_3syn10punctuated11PrivateIterNtNtB7_8generics14WherePredicateNtNtB7_5token5CommaENtNtNtNtCs9f3LFPSIp77_4core4iter6traits8iterator8Iterator3nthCsiLWJ3muoyUj_10displaydoc, symObjAddr: 0x2248, symBinAddr: 0x10BF0, symSize: 0x80 }
  - { offset: 0x47EF8, size: 0x8, addend: 0x0, symName: __RNvYINtNtCsATtFUPiRFW_3syn10punctuated11PrivateIterNtNtB7_8generics14WherePredicateNtNtB7_5token5CommaENtNtNtNtCs9f3LFPSIp77_4core4iter6traits8iterator8Iterator9size_hintCsiLWJ3muoyUj_10displaydoc, symObjAddr: 0x22C8, symBinAddr: 0x10C70, symSize: 0x34 }
  - { offset: 0x47F2D, size: 0x8, addend: 0x0, symName: __RNvYINtNtCsATtFUPiRFW_3syn10punctuated14PrivateIterMutNtNtB7_8generics14WherePredicateNtNtB7_5token5CommaENtNtNtNtCs9f3LFPSIp77_4core4iter6traits8iterator8Iterator10advance_byCsiLWJ3muoyUj_10displaydoc, symObjAddr: 0x24C4, symBinAddr: 0x10E6C, symSize: 0x134 }
  - { offset: 0x48082, size: 0x8, addend: 0x0, symName: __RNvYINtNtCsATtFUPiRFW_3syn10punctuated14PrivateIterMutNtNtB7_8generics14WherePredicateNtNtB7_5token5CommaENtNtNtNtCs9f3LFPSIp77_4core4iter6traits8iterator8Iterator3nthCsiLWJ3muoyUj_10displaydoc, symObjAddr: 0x25F8, symBinAddr: 0x10FA0, symSize: 0x80 }
  - { offset: 0x48155, size: 0x8, addend: 0x0, symName: __RNvYINtNtCsATtFUPiRFW_3syn10punctuated14PrivateIterMutNtNtB7_8generics14WherePredicateNtNtB7_5token5CommaENtNtNtNtCs9f3LFPSIp77_4core4iter6traits8iterator8Iterator9size_hintCsiLWJ3muoyUj_10displaydoc, symObjAddr: 0x2678, symBinAddr: 0x11020, symSize: 0x34 }
  - { offset: 0x481D4, size: 0x8, addend: 0x0, symName: __RNvXs_NtNtNtCs9f3LFPSIp77_4core4iter6traits7collectINtNtCsATtFUPiRFW_3syn10punctuated4IterNtNtBS_8generics14TypeParamBoundENtB4_12IntoIterator9into_iterCsiLWJ3muoyUj_10displaydoc, symObjAddr: 0x1524, symBinAddr: 0xFECC, symSize: 0x1C }
  - { offset: 0x4820B, size: 0x8, addend: 0x0, symName: __RNvXs_NtNtNtCs9f3LFPSIp77_4core4iter6traits7collectINtNtCsATtFUPiRFW_3syn10punctuated4IterNtNtBS_8generics14WherePredicateENtB4_12IntoIterator9into_iterCsiLWJ3muoyUj_10displaydoc, symObjAddr: 0x1540, symBinAddr: 0xFEE8, symSize: 0x1C }
  - { offset: 0x48242, size: 0x8, addend: 0x0, symName: __RNvXs_NtNtNtCs9f3LFPSIp77_4core4iter6traits7collectINtNtNtNtCs27l1GJC5rMQ_3std11collections4hash3map8IntoIterNtCs475r2uZUTuc_11proc_macro25IdentINtNtCsdze8u8oDPro_5alloc3vec3VecNtNtCsATtFUPiRFW_3syn8generics10TraitBoundEENtB4_12IntoIterator9into_iterCsiLWJ3muoyUj_10displaydoc, symObjAddr: 0x155C, symBinAddr: 0xFF04, symSize: 0x30 }
  - { offset: 0x482B1, size: 0x8, addend: 0x0, symName: __RNvYINtNtCsATtFUPiRFW_3syn10punctuated11PrivateIterNtNtB7_4data7VariantNtNtB7_5token5CommaENtNtNtNtCs9f3LFPSIp77_4core4iter6traits10exact_size17ExactSizeIterator8is_emptyCsiLWJ3muoyUj_10displaydoc, symObjAddr: 0x1B9C, symBinAddr: 0x10544, symSize: 0x2C }
  - { offset: 0x482E6, size: 0x8, addend: 0x0, symName: __RNvYINtNtCsATtFUPiRFW_3syn10punctuated11PrivateIterNtNtB7_8generics14WherePredicateNtNtB7_5token5CommaENtNtNtNtCs9f3LFPSIp77_4core4iter6traits10exact_size17ExactSizeIterator8is_emptyCsiLWJ3muoyUj_10displaydoc, symObjAddr: 0x1F4C, symBinAddr: 0x108F4, symSize: 0x2C }
  - { offset: 0x4831B, size: 0x8, addend: 0x0, symName: __RNvYINtNtCsATtFUPiRFW_3syn10punctuated14PrivateIterMutNtNtB7_8generics14WherePredicateNtNtB7_5token5CommaENtNtNtNtCs9f3LFPSIp77_4core4iter6traits10exact_size17ExactSizeIterator8is_emptyCsiLWJ3muoyUj_10displaydoc, symObjAddr: 0x22FC, symBinAddr: 0x10CA4, symSize: 0x2C }
  - { offset: 0x48350, size: 0x8, addend: 0x0, symName: __RNvYINtNtNtCsdze8u8oDPro_5alloc3vec9into_iter8IntoIterINtNtCs9f3LFPSIp77_4core6option6OptionNtNtCsiLWJ3muoyUj_10displaydoc4attr14VariantDisplayEENtNtNtNtBV_4iter6traits10exact_size17ExactSizeIterator3lenB1w_, symObjAddr: 0x26AC, symBinAddr: 0x11054, symSize: 0xC4 }
  - { offset: 0x4844E, size: 0x8, addend: 0x0, symName: __RNvYINtNtCsATtFUPiRFW_3syn10punctuated11PrivateIterNtNtB7_4data7VariantNtNtB7_5token5CommaENtNtNtNtCs9f3LFPSIp77_4core4iter6traits12double_ended19DoubleEndedIterator15advance_back_byCsiLWJ3muoyUj_10displaydoc, symObjAddr: 0x1BC8, symBinAddr: 0x10570, symSize: 0x134 }
  - { offset: 0x4859B, size: 0x8, addend: 0x0, symName: __RNvYINtNtCsATtFUPiRFW_3syn10punctuated11PrivateIterNtNtB7_4data7VariantNtNtB7_5token5CommaENtNtNtNtCs9f3LFPSIp77_4core4iter6traits12double_ended19DoubleEndedIterator8nth_backCsiLWJ3muoyUj_10displaydoc, symObjAddr: 0x1CFC, symBinAddr: 0x106A4, symSize: 0x68 }
  - { offset: 0x48619, size: 0x8, addend: 0x0, symName: __RNvYINtNtCsATtFUPiRFW_3syn10punctuated11PrivateIterNtNtB7_8generics14WherePredicateNtNtB7_5token5CommaENtNtNtNtCs9f3LFPSIp77_4core4iter6traits12double_ended19DoubleEndedIterator15advance_back_byCsiLWJ3muoyUj_10displaydoc, symObjAddr: 0x1F78, symBinAddr: 0x10920, symSize: 0x134 }
  - { offset: 0x48766, size: 0x8, addend: 0x0, symName: __RNvYINtNtCsATtFUPiRFW_3syn10punctuated11PrivateIterNtNtB7_8generics14WherePredicateNtNtB7_5token5CommaENtNtNtNtCs9f3LFPSIp77_4core4iter6traits12double_ended19DoubleEndedIterator8nth_backCsiLWJ3muoyUj_10displaydoc, symObjAddr: 0x20AC, symBinAddr: 0x10A54, symSize: 0x68 }
  - { offset: 0x487E4, size: 0x8, addend: 0x0, symName: __RNvYINtNtCsATtFUPiRFW_3syn10punctuated14PrivateIterMutNtNtB7_8generics14WherePredicateNtNtB7_5token5CommaENtNtNtNtCs9f3LFPSIp77_4core4iter6traits12double_ended19DoubleEndedIterator15advance_back_byCsiLWJ3muoyUj_10displaydoc, symObjAddr: 0x2328, symBinAddr: 0x10CD0, symSize: 0x134 }
  - { offset: 0x48931, size: 0x8, addend: 0x0, symName: __RNvYINtNtCsATtFUPiRFW_3syn10punctuated14PrivateIterMutNtNtB7_8generics14WherePredicateNtNtB7_5token5CommaENtNtNtNtCs9f3LFPSIp77_4core4iter6traits12double_ended19DoubleEndedIterator8nth_backCsiLWJ3muoyUj_10displaydoc, symObjAddr: 0x245C, symBinAddr: 0x10E04, symSize: 0x68 }
  - { offset: 0x4914B, size: 0x8, addend: 0x0, symName: __RNvXs2_NtNtNtCs9f3LFPSIp77_4core3ops8function5implsQNCNvMs0_NtCsiLWJ3muoyUj_10displaydoc4attrNtBW_11AttrsHelper7displays0_0INtB7_6FnOnceTReEE9call_onceBY_, symObjAddr: 0xFE0, symBinAddr: 0xF988, symSize: 0x34 }
  - { offset: 0x49200, size: 0x8, addend: 0x0, symName: __RNvNvXs5_NtNtCs9f3LFPSIp77_4core3str6traitsINtNtNtBb_3ops5range5RangejEINtNtNtBb_5slice5index10SliceIndexeE13get_unchecked18precondition_checkCsiLWJ3muoyUj_10displaydoc, symObjAddr: 0xE64, symBinAddr: 0xF80C, symSize: 0x60 }
  - { offset: 0x4924B, size: 0x8, addend: 0x0, symName: __RNvXs2_NtNtCs9f3LFPSIp77_4core3str6traitseINtNtNtB9_3ops5index5IndexINtNtBJ_5range16RangeToInclusivejEE5indexCsiLWJ3muoyUj_10displaydoc, symObjAddr: 0xF9C, symBinAddr: 0xF944, symSize: 0x44 }
  - { offset: 0x49692, size: 0x8, addend: 0x0, symName: __RNvYNtNtCsiLWJ3muoyUj_10displaydoc4attr7DisplayNtNtCs9f3LFPSIp77_4core5clone5Clone10clone_fromB6_, symObjAddr: 0x2950, symBinAddr: 0x112F8, symSize: 0x84 }
  - { offset: 0x4A0A6, size: 0x8, addend: 0x0, symName: __RINvXs1n_NtNtNtCs27l1GJC5rMQ_3std11collections4hash3mapINtB7_7HashMapNtCs475r2uZUTuc_11proc_macro25IdentINtNtCsdze8u8oDPro_5alloc3vec3VecNtNtCsATtFUPiRFW_3syn8generics10TraitBoundEEINtNtNtNtCs9f3LFPSIp77_4core4iter6traits7collect12FromIteratorTB15_B1E_EE9from_iterINtNtNtB30_8adapters3map3MapINtNtNtB32_5slice4iter4IterRNtB2d_9TypeParamENCNvNtCsiLWJ3muoyUj_10displaydoc6expand37extract_trait_constraints_from_source0EEB5v_, symObjAddr: 0x0, symBinAddr: 0xE9A8, symSize: 0x130 }
  - { offset: 0x4A1B3, size: 0x8, addend: 0x0, symName: __RNvXsI_NtNtNtCs27l1GJC5rMQ_3std11collections4hash3mapINtB5_7HashMapNtCs475r2uZUTuc_11proc_macro25IdentINtNtCsdze8u8oDPro_5alloc3vec3VecNtNtCsATtFUPiRFW_3syn8generics10TraitBoundEENtNtNtNtCs9f3LFPSIp77_4core4iter6traits7collect12IntoIterator9into_iterCsiLWJ3muoyUj_10displaydoc, symObjAddr: 0x147C, symBinAddr: 0xFE24, symSize: 0x58 }
  - { offset: 0x4A203, size: 0x8, addend: 0x0, symName: __RNvXsM_NtNtNtCs27l1GJC5rMQ_3std11collections4hash3mapINtB5_7IterMutNtCs475r2uZUTuc_11proc_macro25IdentINtNtCsdze8u8oDPro_5alloc3vec3VecNtNtCsATtFUPiRFW_3syn8generics10TraitBoundEENtNtNtNtCs9f3LFPSIp77_4core4iter6traits8iterator8Iterator4nextCsiLWJ3muoyUj_10displaydoc, symObjAddr: 0x14D4, symBinAddr: 0xFE7C, symSize: 0x24 }
  - { offset: 0x4A249, size: 0x8, addend: 0x0, symName: __RNvXsQ_NtNtNtCs27l1GJC5rMQ_3std11collections4hash3mapINtB5_8IntoIterNtCs475r2uZUTuc_11proc_macro25IdentINtNtCsdze8u8oDPro_5alloc3vec3VecNtNtCsATtFUPiRFW_3syn8generics10TraitBoundEENtNtNtNtCs9f3LFPSIp77_4core4iter6traits8iterator8Iterator4nextCsiLWJ3muoyUj_10displaydoc, symObjAddr: 0x14F8, symBinAddr: 0xFEA0, symSize: 0x2C }
  - { offset: 0x4A4D2, size: 0x8, addend: 0x0, symName: __RNCNvMs0_NtCsiLWJ3muoyUj_10displaydoc4attrNtB7_11AttrsHelper7display0B9_, symObjAddr: 0x3440, symBinAddr: 0x11DE8, symSize: 0x50 }
  - { offset: 0x4A508, size: 0x8, addend: 0x0, symName: __RNCNvMs0_NtCsiLWJ3muoyUj_10displaydoc4attrNtB7_11AttrsHelper7displays_0B9_, symObjAddr: 0x3490, symBinAddr: 0x11E38, symSize: 0x50 }
  - { offset: 0x4A53E, size: 0x8, addend: 0x0, symName: __RNCNvMs0_NtCsiLWJ3muoyUj_10displaydoc4attrNtB7_11AttrsHelper7displays0_0B9_, symObjAddr: 0x34E0, symBinAddr: 0x11E88, symSize: 0x54 }
  - { offset: 0x4A588, size: 0x8, addend: 0x0, symName: __RNCNvMs0_NtCsiLWJ3muoyUj_10displaydoc4attrNtB7_11AttrsHelper3new0B9_, symObjAddr: 0x2D88, symBinAddr: 0x11730, symSize: 0x54 }
  - { offset: 0x4A5BE, size: 0x8, addend: 0x0, symName: __RNCNvMs0_NtCsiLWJ3muoyUj_10displaydoc4attrNtB7_11AttrsHelper3news_0B9_, symObjAddr: 0x2DDC, symBinAddr: 0x11784, symSize: 0x54 }
  - { offset: 0x4A608, size: 0x8, addend: 0x0, symName: __RNCNvMs0_NtCsiLWJ3muoyUj_10displaydoc4attrNtB7_11AttrsHelper18display_with_input0B9_, symObjAddr: 0x3814, symBinAddr: 0x121BC, symSize: 0x78 }
  - { offset: 0x4A64C, size: 0x8, addend: 0x0, symName: __RNvXNtCsiLWJ3muoyUj_10displaydoc4attrNtB2_7DisplayNtNtCs62MdaZFMefA_5quote9to_tokens8ToTokens9to_tokens, symObjAddr: 0x29D4, symBinAddr: 0x1137C, symSize: 0x154 }
  - { offset: 0x4A6DD, size: 0x8, addend: 0x0, symName: __RNvXs_NtCsiLWJ3muoyUj_10displaydoc4attrNtB4_14VariantDisplayNtNtCs62MdaZFMefA_5quote9to_tokens8ToTokens9to_tokens, symObjAddr: 0x2B28, symBinAddr: 0x114D0, symSize: 0x1D4 }
  - { offset: 0x4A75A, size: 0x8, addend: 0x0, symName: __RNvXs1_NtCsiLWJ3muoyUj_10displaydoc4attrNtB5_7DisplayNtNtCs9f3LFPSIp77_4core5clone5Clone5cloneB7_, symObjAddr: 0x4018, symBinAddr: 0x129C0, symSize: 0x88 }
  - { offset: 0x4AA67, size: 0x8, addend: 0x0, symName: __RNvMNtCsATtFUPiRFW_3syn10punctuatedINtB2_10PunctuatedNtNtB4_4data7VariantNtNtB4_5token5CommaE4iterCsiLWJ3muoyUj_10displaydoc, symObjAddr: 0xB14, symBinAddr: 0xF4BC, symSize: 0xC8 }
  - { offset: 0x4AAB8, size: 0x8, addend: 0x0, symName: __RNvMNtCsATtFUPiRFW_3syn10punctuatedINtB2_10PunctuatedNtNtB4_4data7VariantNtNtB4_5token5CommaE8is_emptyCsiLWJ3muoyUj_10displaydoc, symObjAddr: 0xBDC, symBinAddr: 0xF584, symSize: 0x74 }
  - { offset: 0x4AB34, size: 0x8, addend: 0x0, symName: __RNvMNtCsATtFUPiRFW_3syn10punctuatedINtB2_10PunctuatedNtNtB4_8generics14WherePredicateNtNtB4_5token5CommaE4iterCsiLWJ3muoyUj_10displaydoc, symObjAddr: 0xC50, symBinAddr: 0xF5F8, symSize: 0xC8 }
  - { offset: 0x4AB9F, size: 0x8, addend: 0x0, symName: __RNvMNtCsATtFUPiRFW_3syn10punctuatedINtB2_10PunctuatedNtNtB4_8generics14WherePredicateNtNtB4_5token5CommaE8iter_mutCsiLWJ3muoyUj_10displaydoc, symObjAddr: 0xD18, symBinAddr: 0xF6C0, symSize: 0xC8 }
  - { offset: 0x4ABFD, size: 0x8, addend: 0x0, symName: __RNvMs_NtNtNtCs27l1GJC5rMQ_3std11collections4hash3mapINtB4_7HashMapNtCs475r2uZUTuc_11proc_macro25IdentINtNtCsdze8u8oDPro_5alloc3vec3VecNtNtCsATtFUPiRFW_3syn8generics10TraitBoundEE8iter_mutCsiLWJ3muoyUj_10displaydoc, symObjAddr: 0xDE0, symBinAddr: 0xF788, symSize: 0x44 }
  - { offset: 0x4B3F3, size: 0x8, addend: 0x0, symName: __RNvYNtNtCsiLWJ3muoyUj_10displaydoc4attr14VariantDisplayNtNtCs62MdaZFMefA_5quote9to_tokens8ToTokens15to_token_streamB6_, symObjAddr: 0x2770, symBinAddr: 0x11118, symSize: 0x8C }
  - { offset: 0x4B43D, size: 0x8, addend: 0x0, symName: __RNvYNtNtCsiLWJ3muoyUj_10displaydoc4attr14VariantDisplayNtNtCs62MdaZFMefA_5quote9to_tokens8ToTokens17into_token_streamB6_, symObjAddr: 0x27FC, symBinAddr: 0x111A4, symSize: 0x64 }
  - { offset: 0x4B473, size: 0x8, addend: 0x0, symName: __RNvYNtNtCsiLWJ3muoyUj_10displaydoc4attr7DisplayNtNtCs62MdaZFMefA_5quote9to_tokens8ToTokens15to_token_streamB6_, symObjAddr: 0x2860, symBinAddr: 0x11208, symSize: 0x8C }
  - { offset: 0x4B4BD, size: 0x8, addend: 0x0, symName: __RNvYNtNtCsiLWJ3muoyUj_10displaydoc4attr7DisplayNtNtCs62MdaZFMefA_5quote9to_tokens8ToTokens17into_token_streamB6_, symObjAddr: 0x28EC, symBinAddr: 0x11294, symSize: 0x64 }
  - { offset: 0x4B51D, size: 0x8, addend: 0x0, symName: __RNvMs0_NtCsiLWJ3muoyUj_10displaydoc4attrNtB5_11AttrsHelper3new, symObjAddr: 0x2CFC, symBinAddr: 0x116A4, symSize: 0x8C }
  - { offset: 0x4B55B, size: 0x8, addend: 0x0, symName: __RNvMs0_NtCsiLWJ3muoyUj_10displaydoc4attrNtB5_11AttrsHelper7display, symObjAddr: 0x2E30, symBinAddr: 0x117D8, symSize: 0x610 }
  - { offset: 0x4B68B, size: 0x8, addend: 0x0, symName: __RNvMs0_NtCsiLWJ3muoyUj_10displaydoc4attrNtB5_11AttrsHelper18display_with_input, symObjAddr: 0x3534, symBinAddr: 0x11EDC, symSize: 0x2E0 }
  - { offset: 0x4B747, size: 0x8, addend: 0x0, symName: __RNvMNtCsiLWJ3muoyUj_10displaydoc3fmtNtNtB4_4attr7Display16expand_shorthand, symObjAddr: 0x388C, symBinAddr: 0x12234, symSize: 0x78C }
  - { offset: 0x4BB14, size: 0x8, addend: 0x0, symName: __RINvMNtCs9f3LFPSIp77_4core6optionINtB3_6OptionNtNtCsATtFUPiRFW_3syn8generics11WhereClauseE14unwrap_or_elseNvNtCsiLWJ3muoyUj_10displaydoc6expand22new_empty_where_clauseEB1K_, symObjAddr: 0x0, symBinAddr: 0x12A48, symSize: 0x74 }
  - { offset: 0x4BE30, size: 0x8, addend: 0x0, symName: __RNvXs1J_NtCsjLJ1XWNSM6u_10proc_macro6bridgeINtB6_11ExpnGlobalsNtNtB6_6client4SpanEINtNtB6_3rpc9DecodeMutuE6decodeCsiLWJ3muoyUj_10displaydoc, symObjAddr: 0x2680, symBinAddr: 0x150C8, symSize: 0xB0 }
  - { offset: 0x4BE87, size: 0x8, addend: 0x0, symName: __RNvXs9_NtNtCsjLJ1XWNSM6u_10proc_macro6bridge3rpcTINtB7_11ExpnGlobalsNtNtB7_6client4SpanENtB16_11TokenStreamEINtB5_9DecodeMutuE6decodeCsiLWJ3muoyUj_10displaydoc, symObjAddr: 0x28E4, symBinAddr: 0x1532C, symSize: 0x84 }
  - { offset: 0x4BF8C, size: 0x8, addend: 0x0, symName: __RNvXsR_NtCsjLJ1XWNSM6u_10proc_macro6bridgeINtNtCs9f3LFPSIp77_4core6option6OptionNtNtB5_6client11TokenStreamEINtNtB5_3rpc6EncodeuE6encodeCsiLWJ3muoyUj_10displaydoc, symObjAddr: 0x2AE4, symBinAddr: 0x1552C, symSize: 0xCC }
  - { offset: 0x4C030, size: 0x8, addend: 0x0, symName: __RNvXsR_NtCsjLJ1XWNSM6u_10proc_macro6bridgeINtNtCs9f3LFPSIp77_4core6option6OptionReEINtNtB5_3rpc6EncodeuE6encodeCsiLWJ3muoyUj_10displaydoc, symObjAddr: 0x2BB0, symBinAddr: 0x155F8, symSize: 0xD8 }
  - { offset: 0x4C520, size: 0x8, addend: 0x0, symName: __RINvXsa_NtCs475r2uZUTuc_11proc_macro28fallbackNtB6_11TokenStreamINtNtNtNtCs9f3LFPSIp77_4core4iter6traits7collect6ExtendNtB8_9TokenTreeE6extendNtB8_11TokenStreamECsiLWJ3muoyUj_10displaydoc, symObjAddr: 0xFA0, symBinAddr: 0x139E8, symSize: 0xC0 }
  - { offset: 0x4C586, size: 0x8, addend: 0x0, symName: __RNCINvXsa_NtCs475r2uZUTuc_11proc_macro28fallbackNtB8_11TokenStreamINtNtNtNtCs9f3LFPSIp77_4core4iter6traits7collect6ExtendNtBa_9TokenTreeE6extendNtBa_11TokenStreamE0CsiLWJ3muoyUj_10displaydoc, symObjAddr: 0x1420, symBinAddr: 0x13E68, symSize: 0xAC }
  - { offset: 0x4C5D3, size: 0x8, addend: 0x0, symName: __RNvXsA_NtCs475r2uZUTuc_11proc_macro28fallbackNtB5_5IdentNtNtCs9f3LFPSIp77_4core5clone5Clone5cloneCsiLWJ3muoyUj_10displaydoc, symObjAddr: 0x2968, symBinAddr: 0x153B0, symSize: 0x94 }
  - { offset: 0x4C607, size: 0x8, addend: 0x0, symName: __RNvXss_NtCs475r2uZUTuc_11proc_macro28fallbackNtB5_11TokenStreamNtNtCs9f3LFPSIp77_4core5clone5Clone5cloneCsiLWJ3muoyUj_10displaydoc, symObjAddr: 0x364C, symBinAddr: 0x16094, symSize: 0x24 }
  - { offset: 0x4C639, size: 0x8, addend: 0x0, symName: __RNvXsu_NtCs475r2uZUTuc_11proc_macro28fallbackNtB5_4SpanNtNtCs9f3LFPSIp77_4core5clone5Clone5cloneCsiLWJ3muoyUj_10displaydoc, symObjAddr: 0x3670, symBinAddr: 0x160B8, symSize: 0x10 }
  - { offset: 0x4F7BE, size: 0x8, addend: 0x0, symName: __RNvXs5_NtCs9f3LFPSIp77_4core6optionINtB5_6OptionQNtNtCsATtFUPiRFW_3syn8generics13PredicateTypeENtNtNtNtB7_4iter6traits7collect12IntoIterator9into_iterCsiLWJ3muoyUj_10displaydoc, symObjAddr: 0x286C, symBinAddr: 0x152B4, symSize: 0x14 }
  - { offset: 0x4F7F5, size: 0x8, addend: 0x0, symName: __RNvXs5_NtCs9f3LFPSIp77_4core6optionINtB5_6OptionQNtNtCsATtFUPiRFW_3syn8generics14WherePredicateENtNtNtNtB7_4iter6traits7collect12IntoIterator9into_iterCsiLWJ3muoyUj_10displaydoc, symObjAddr: 0x2880, symBinAddr: 0x152C8, symSize: 0x14 }
  - { offset: 0x4F82C, size: 0x8, addend: 0x0, symName: __RNvXs5_NtCs9f3LFPSIp77_4core6optionINtB5_6OptionRNtNtCsATtFUPiRFW_3syn8generics10TraitBoundENtNtNtNtB7_4iter6traits7collect12IntoIterator9into_iterCsiLWJ3muoyUj_10displaydoc, symObjAddr: 0x2894, symBinAddr: 0x152DC, symSize: 0x14 }
  - { offset: 0x4F92F, size: 0x8, addend: 0x0, symName: __RNvXsO_NtCs9f3LFPSIp77_4core6optionINtB5_8IntoIterRNtNtCsATtFUPiRFW_3syn4data7VariantENtNtB7_5clone5Clone5cloneCsiLWJ3muoyUj_10displaydoc, symObjAddr: 0x2A14, symBinAddr: 0x1545C, symSize: 0x68 }
  - { offset: 0x4F9D6, size: 0x8, addend: 0x0, symName: __RNvXsO_NtCs9f3LFPSIp77_4core6optionINtB5_8IntoIterRNtNtCsATtFUPiRFW_3syn8generics14WherePredicateENtNtB7_5clone5Clone5cloneCsiLWJ3muoyUj_10displaydoc, symObjAddr: 0x2A7C, symBinAddr: 0x154C4, symSize: 0x68 }
  - { offset: 0x4FA83, size: 0x8, addend: 0x0, symName: __RNvXsc_NtCs9f3LFPSIp77_4core6optionINtB5_6OptionRNtCs475r2uZUTuc_11proc_macro25IdentENtNtB7_3cmp9PartialEq2eqCsiLWJ3muoyUj_10displaydoc, symObjAddr: 0x2E34, symBinAddr: 0x1587C, symSize: 0xB8 }
  - { offset: 0x4FD25, size: 0x8, addend: 0x0, symName: __RNvXsv_NtCs9f3LFPSIp77_4core6optionINtB5_8IntoIterQNtNtCsATtFUPiRFW_3syn8generics13PredicateTypeENtNtNtNtB7_4iter6traits8iterator8Iterator4nextCsiLWJ3muoyUj_10displaydoc, symObjAddr: 0x3680, symBinAddr: 0x160C8, symSize: 0x3C }
  - { offset: 0x4FE18, size: 0x8, addend: 0x0, symName: __RNvXsv_NtCs9f3LFPSIp77_4core6optionINtB5_8IntoIterQNtNtCsATtFUPiRFW_3syn8generics14WherePredicateENtNtNtNtB7_4iter6traits8iterator8Iterator4nextCsiLWJ3muoyUj_10displaydoc, symObjAddr: 0x36BC, symBinAddr: 0x16104, symSize: 0x3C }
  - { offset: 0x4FF0B, size: 0x8, addend: 0x0, symName: __RNvXsv_NtCs9f3LFPSIp77_4core6optionINtB5_8IntoIterQNtNtCsATtFUPiRFW_3syn8generics14WherePredicateENtNtNtNtB7_4iter6traits8iterator8Iterator9size_hintCsiLWJ3muoyUj_10displaydoc, symObjAddr: 0x36F8, symBinAddr: 0x16140, symSize: 0x5C }
  - { offset: 0x4FFC8, size: 0x8, addend: 0x0, symName: __RNvXsv_NtCs9f3LFPSIp77_4core6optionINtB5_8IntoIterRNtNtCsATtFUPiRFW_3syn4data7VariantENtNtNtNtB7_4iter6traits8iterator8Iterator9size_hintCsiLWJ3muoyUj_10displaydoc, symObjAddr: 0x3754, symBinAddr: 0x1619C, symSize: 0x5C }
  - { offset: 0x50085, size: 0x8, addend: 0x0, symName: __RNvXsv_NtCs9f3LFPSIp77_4core6optionINtB5_8IntoIterRNtNtCsATtFUPiRFW_3syn8generics10TraitBoundENtNtNtNtB7_4iter6traits8iterator8Iterator4nextCsiLWJ3muoyUj_10displaydoc, symObjAddr: 0x37B0, symBinAddr: 0x161F8, symSize: 0x3C }
  - { offset: 0x50178, size: 0x8, addend: 0x0, symName: __RNvXsv_NtCs9f3LFPSIp77_4core6optionINtB5_8IntoIterRNtNtCsATtFUPiRFW_3syn8generics14WherePredicateENtNtNtNtB7_4iter6traits8iterator8Iterator9size_hintCsiLWJ3muoyUj_10displaydoc, symObjAddr: 0x37EC, symBinAddr: 0x16234, symSize: 0x5C }
  - { offset: 0x516C6, size: 0x8, addend: 0x0, symName: __RNvMNtCs9f3LFPSIp77_4core5sliceSINtNtB4_6option6OptionNtNtCsiLWJ3muoyUj_10displaydoc4attr14VariantDisplayE4iterBU_, symObjAddr: 0x1510, symBinAddr: 0x13F58, symSize: 0x28 }
  - { offset: 0x516FD, size: 0x8, addend: 0x0, symName: __RNvMNtCs9f3LFPSIp77_4core5sliceSRe8is_emptyCsiLWJ3muoyUj_10displaydoc, symObjAddr: 0x1538, symBinAddr: 0x13F80, symSize: 0x1C }
  - { offset: 0x51780, size: 0x8, addend: 0x0, symName: __RNvMNtCs9f3LFPSIp77_4core5sliceSh15copy_from_sliceCsiLWJ3muoyUj_10displaydoc, symObjAddr: 0x1554, symBinAddr: 0x13F9C, symSize: 0xA4 }
  - { offset: 0x518A6, size: 0x8, addend: 0x0, symName: __RINvNtCs9f3LFPSIp77_4core10intrinsics10typed_swapNtNtCscXJUXcj6jCz_9hashbrown3raw13RawTableInnerECsiLWJ3muoyUj_10displaydoc, symObjAddr: 0xE40, symBinAddr: 0x13888, symSize: 0x3C }
  - { offset: 0x51923, size: 0x8, addend: 0x0, symName: __RNvNtCs9f3LFPSIp77_4core10intrinsics6likelyCsiLWJ3muoyUj_10displaydoc, symObjAddr: 0x1B80, symBinAddr: 0x145C8, symSize: 0x10 }
  - { offset: 0x51951, size: 0x8, addend: 0x0, symName: __RNvNtCs9f3LFPSIp77_4core10intrinsics8unlikelyCsiLWJ3muoyUj_10displaydoc, symObjAddr: 0x1B90, symBinAddr: 0x145D8, symSize: 0x10 }
  - { offset: 0x51984, size: 0x8, addend: 0x0, symName: __RNvNvNtCs9f3LFPSIp77_4core10intrinsics19copy_nonoverlapping18precondition_checkCsiLWJ3muoyUj_10displaydoc, symObjAddr: 0x1C38, symBinAddr: 0x14680, symSize: 0x1EC }
  - { offset: 0x51BE0, size: 0x8, addend: 0x0, symName: __RINvNtNtNtCs9f3LFPSIp77_4core9core_arch10arm_shared4neon13vget_lane_u64Kl0_ECsiLWJ3muoyUj_10displaydoc, symObjAddr: 0xEAC, symBinAddr: 0x138F4, symSize: 0x18 }
  - { offset: 0x51C5A, size: 0x8, addend: 0x0, symName: __RNvNtNtNtCs9f3LFPSIp77_4core9core_arch10arm_shared4neon9vdup_n_u8CsiLWJ3muoyUj_10displaydoc, symObjAddr: 0x1BA0, symBinAddr: 0x145E8, symSize: 0x34 }
  - { offset: 0x51CDD, size: 0x8, addend: 0x0, symName: __RNvNtNtNtCs9f3LFPSIp77_4core9core_arch7aarch644neon7vld1_u8CsiLWJ3muoyUj_10displaydoc, symObjAddr: 0x1BD4, symBinAddr: 0x1461C, symSize: 0x2C }
  - { offset: 0x51D0B, size: 0x8, addend: 0x0, symName: __RNvNtNtNtCs9f3LFPSIp77_4core9core_arch7aarch644neon7vst1_u8CsiLWJ3muoyUj_10displaydoc, symObjAddr: 0x1C00, symBinAddr: 0x14648, symSize: 0x38 }
  - { offset: 0x51DF5, size: 0x8, addend: 0x0, symName: __RNCINvNtNtNtCs9f3LFPSIp77_4core4iter8adapters3map12map_try_foldRNtNtCsATtFUPiRFW_3syn4data7VariantINtNtBa_6result6ResultINtNtBa_6option6OptionNtNtCsiLWJ3muoyUj_10displaydoc4attr14VariantDisplayENtNtB14_5error5ErrorEuINtNtNtBa_3ops12control_flow11ControlFlowIB3t_B1U_EENCNvNtB2k_6expand9impl_enum0NCINvXB6_INtB6_12GenericShuntINtB4_3MapINtNtB14_10punctuated4IterB10_EB4i_EIB1z_NtNtBa_7convert10InfallibleB36_EENtNtNtB8_6traits8iterator8Iterator8try_folduNCINvNvB6z_12try_for_each4callB1U_B47_NcNtB47_5Break0E0B47_E0E0B2k_, symObjAddr: 0x119C, symBinAddr: 0x13BE4, symSize: 0xA8 }
  - { offset: 0x51E87, size: 0x8, addend: 0x0, symName: __RNCINvNtNtNtCs9f3LFPSIp77_4core4iter8adapters3map12map_try_foldTRNtNtCsATtFUPiRFW_3syn4data7VariantINtNtBa_6option6OptionNtNtCsiLWJ3muoyUj_10displaydoc4attr14VariantDisplayEEINtNtBa_6result6ResultNtCs475r2uZUTuc_11proc_macro211TokenStreamNtNtB15_5error5ErrorEuINtNtNtBa_3ops12control_flow11ControlFlowIB4b_B38_EENCNvNtB1Z_6expand9impl_enums_0NCINvXB6_INtB6_12GenericShuntINtB4_3MapINtNtB6_3zip3ZipINtNtB15_10punctuated4IterB11_EINtNtNtCsdze8u8oDPro_5alloc3vec9into_iter8IntoIterB1z_EEB50_EIB2N_NtNtBa_7convert10InfallibleB3O_EENtNtNtB8_6traits8iterator8Iterator8try_folduNCINvNvB8t_12try_for_each4callB38_B4P_NcNtB4P_5Break0E0B4P_E0E0B1Z_, symObjAddr: 0x1244, symBinAddr: 0x13C8C, symSize: 0xB0 }
  - { offset: 0x51F20, size: 0x8, addend: 0x0, symName: __RINvXs0_NtNtNtCs9f3LFPSIp77_4core4iter8adapters3mapINtB6_3MapINtNtB8_3zip3ZipINtNtCsATtFUPiRFW_3syn10punctuated4IterNtNtB1i_4data7VariantEINtNtNtCsdze8u8oDPro_5alloc3vec9into_iter8IntoIterINtNtBc_6option6OptionNtNtCsiLWJ3muoyUj_10displaydoc4attr14VariantDisplayEEENCNvNtB3q_6expand9impl_enums_0ENtNtNtBa_6traits8iterator8Iterator8try_folduNCINvXB8_INtB8_12GenericShuntBN_INtNtBc_6result6ResultNtNtBc_7convert10InfallibleNtNtB1i_5error5ErrorEEB4J_8try_folduNCINvNvB4J_12try_for_each4callNtCs475r2uZUTuc_11proc_macro211TokenStreamINtNtNtBc_3ops12control_flow11ControlFlowB7O_ENcNtB8u_5Break0E0B8u_E0IB8v_B8u_EEB3q_, symObjAddr: 0xEC4, symBinAddr: 0x1390C, symSize: 0x54 }
  - { offset: 0x51FC3, size: 0x8, addend: 0x0, symName: __RINvXs0_NtNtNtCs9f3LFPSIp77_4core4iter8adapters3mapINtB6_3MapINtNtCsATtFUPiRFW_3syn10punctuated4IterNtNtB12_4data7VariantENCNvNtCsiLWJ3muoyUj_10displaydoc6expand9impl_enum0ENtNtNtBa_6traits8iterator8Iterator8try_folduNCINvXB8_INtB8_12GenericShuntBN_INtNtBc_6result6ResultNtNtBc_7convert10InfallibleNtNtB12_5error5ErrorEEB2L_8try_folduNCINvNvB2L_12try_for_each4callINtNtBc_6option6OptionNtNtB22_4attr14VariantDisplayEINtNtNtBc_3ops12control_flow11ControlFlowB5Q_ENcNtB6G_5Break0E0B6G_E0IB6H_B6G_EEB22_, symObjAddr: 0xF18, symBinAddr: 0x13960, symSize: 0x54 }
  - { offset: 0x52066, size: 0x8, addend: 0x0, symName: __RINvXs0_NtNtNtCs9f3LFPSIp77_4core4iter8adapters3mapINtB6_3MapINtNtNtBc_5slice4iter4IterRNtNtCsATtFUPiRFW_3syn8generics9TypeParamENCNvNtCsiLWJ3muoyUj_10displaydoc6expand37extract_trait_constraints_from_source0ENtNtNtBa_6traits8iterator8Iterator4folduNCINvNvB3l_8for_each4callTNtCs475r2uZUTuc_11proc_macro25IdentINtNtCsdze8u8oDPro_5alloc3vec3VecNtB1q_10TraitBoundEENCINvXs1i_NtCscXJUXcj6jCz_9hashbrown3mapINtB5Z_7HashMapB4p_B4Y_NtNtNtCs27l1GJC5rMQ_3std4hash6random11RandomStateEINtNtB3p_7collect6ExtendB4o_E6extendBN_E0E0EB29_, symObjAddr: 0xF6C, symBinAddr: 0x139B4, symSize: 0x34 }
  - { offset: 0x520D7, size: 0x8, addend: 0x0, symName: __RNvXs0_NtNtNtCs9f3LFPSIp77_4core4iter8adapters3mapINtB5_3MapINtNtB7_3zip3ZipINtNtCsATtFUPiRFW_3syn10punctuated4IterNtNtB1h_4data7VariantEINtNtNtCsdze8u8oDPro_5alloc3vec9into_iter8IntoIterINtNtBb_6option6OptionNtNtCsiLWJ3muoyUj_10displaydoc4attr14VariantDisplayEEENCNvNtB3p_6expand9impl_enums_0ENtNtNtB9_6traits8iterator8Iterator9size_hintB3p_, symObjAddr: 0x2160, symBinAddr: 0x14BA8, symSize: 0x24 }
  - { offset: 0x5211E, size: 0x8, addend: 0x0, symName: __RNvXs0_NtNtNtCs9f3LFPSIp77_4core4iter8adapters3mapINtB5_3MapINtNtCsATtFUPiRFW_3syn10punctuated4IterNtNtB11_4data5FieldENCNCNvNtCsiLWJ3muoyUj_10displaydoc6expand11impl_struct00ENtNtNtB9_6traits8iterator8Iterator4nextB21_, symObjAddr: 0x2184, symBinAddr: 0x14BCC, symSize: 0x74 }
  - { offset: 0x52198, size: 0x8, addend: 0x0, symName: __RNvXs0_NtNtNtCs9f3LFPSIp77_4core4iter8adapters3mapINtB5_3MapINtNtCsATtFUPiRFW_3syn10punctuated4IterNtNtB11_4data5FieldENCNCNvNtCsiLWJ3muoyUj_10displaydoc6expand9impl_enums_0s_0ENtNtNtB9_6traits8iterator8Iterator4nextB21_, symObjAddr: 0x21F8, symBinAddr: 0x14C40, symSize: 0x74 }
  - { offset: 0x52212, size: 0x8, addend: 0x0, symName: __RNvXs0_NtNtNtCs9f3LFPSIp77_4core4iter8adapters3mapINtB5_3MapINtNtCsATtFUPiRFW_3syn10punctuated4IterNtNtB11_4data7VariantENCNvNtCsiLWJ3muoyUj_10displaydoc6expand9impl_enum0ENtNtNtB9_6traits8iterator8Iterator9size_hintB21_, symObjAddr: 0x226C, symBinAddr: 0x14CB4, symSize: 0x24 }
  - { offset: 0x52259, size: 0x8, addend: 0x0, symName: __RNvXs0_NtNtNtCs9f3LFPSIp77_4core4iter8adapters3mapINtB5_3MapINtNtCsATtFUPiRFW_3syn10punctuated4IterNtNtB11_8generics14TypeParamBoundENCNCNvNtCsiLWJ3muoyUj_10displaydoc6expand37extract_trait_constraints_from_source00ENtNtNtB9_6traits8iterator8Iterator4nextB2f_, symObjAddr: 0x2290, symBinAddr: 0x14CD8, symSize: 0x80 }
  - { offset: 0x522D3, size: 0x8, addend: 0x0, symName: __RNvXs0_NtNtNtCs9f3LFPSIp77_4core4iter8adapters3mapINtB5_3MapINtNtCsATtFUPiRFW_3syn10punctuated4IterNtNtB11_8generics14TypeParamBoundENCNCNvNtCsiLWJ3muoyUj_10displaydoc6expand37extract_trait_constraints_from_source00ENtNtNtB9_6traits8iterator8Iterator9size_hintB2f_, symObjAddr: 0x2310, symBinAddr: 0x14D58, symSize: 0x24 }
  - { offset: 0x5231A, size: 0x8, addend: 0x0, symName: __RNvXs0_NtNtNtCs9f3LFPSIp77_4core4iter8adapters3mapINtB5_3MapINtNtCsATtFUPiRFW_3syn10punctuated7IterMutNtNtB11_8generics14WherePredicateENCNvNtCsiLWJ3muoyUj_10displaydoc6expand39ensure_display_in_where_clause_for_type0ENtNtNtB9_6traits8iterator8Iterator4nextB2g_, symObjAddr: 0x2334, symBinAddr: 0x14D7C, symSize: 0x80 }
  - { offset: 0x52394, size: 0x8, addend: 0x0, symName: __RNvXs0_NtNtNtCs9f3LFPSIp77_4core4iter8adapters3mapINtB5_3MapINtNtNtBb_3ops5range5RangejENCNCNvNtCsiLWJ3muoyUj_10displaydoc6expand11impl_struct0s_0ENtNtNtB9_6traits8iterator8Iterator4nextB1w_, symObjAddr: 0x23B4, symBinAddr: 0x14DFC, symSize: 0x8C }
  - { offset: 0x5240E, size: 0x8, addend: 0x0, symName: __RNvXs0_NtNtNtCs9f3LFPSIp77_4core4iter8adapters3mapINtB5_3MapINtNtNtBb_3ops5range5RangejENCNCNvNtCsiLWJ3muoyUj_10displaydoc6expand9impl_enums_0s0_0ENtNtNtB9_6traits8iterator8Iterator4nextB1w_, symObjAddr: 0x2440, symBinAddr: 0x14E88, symSize: 0x8C }
  - { offset: 0x52488, size: 0x8, addend: 0x0, symName: __RNvXs0_NtNtNtCs9f3LFPSIp77_4core4iter8adapters3mapINtB5_3MapINtNtNtBb_3str4iter14SplitInclusivecENtB11_8LinesMapENtNtNtB9_6traits8iterator8Iterator4nextCsiLWJ3muoyUj_10displaydoc, symObjAddr: 0x24CC, symBinAddr: 0x14F14, symSize: 0x88 }
  - { offset: 0x52502, size: 0x8, addend: 0x0, symName: __RNvXs0_NtNtNtCs9f3LFPSIp77_4core4iter8adapters3mapINtB5_3MapINtNtNtBb_5slice4iter4IterRNtNtCsATtFUPiRFW_3syn8generics9TypeParamENCNvNtCsiLWJ3muoyUj_10displaydoc6expand37extract_trait_constraints_from_source0ENtNtNtB9_6traits8iterator8Iterator9size_hintB28_, symObjAddr: 0x2554, symBinAddr: 0x14F9C, symSize: 0x24 }
  - { offset: 0x52549, size: 0x8, addend: 0x0, symName: __RNvXs0_NtNtNtCs9f3LFPSIp77_4core4iter8adapters3mapINtB5_3MapNtNtNtBb_3str4iter5LinesNCNvMs0_NtCsiLWJ3muoyUj_10displaydoc4attrNtB1s_11AttrsHelper7displays0_0ENtNtNtB9_6traits8iterator8Iterator4nextB1u_, symObjAddr: 0x2578, symBinAddr: 0x14FC0, symSize: 0x88 }
  - { offset: 0x525C3, size: 0x8, addend: 0x0, symName: __RNvXs0_NtNtNtCs9f3LFPSIp77_4core4iter8adapters3mapINtB5_3MapNtNtNtBb_3str4iter5LinesNCNvMs0_NtCsiLWJ3muoyUj_10displaydoc4attrNtB1s_11AttrsHelper7displays0_0ENtNtNtB9_6traits8iterator8Iterator9size_hintB1u_, symObjAddr: 0x2600, symBinAddr: 0x15048, symSize: 0x24 }
  - { offset: 0x5266D, size: 0x8, addend: 0x0, symName: __RNCINvNtNtNtCs9f3LFPSIp77_4core4iter8adapters3map8map_foldRNtNtCsATtFUPiRFW_3syn4attr9AttributejjNCINvNvXs1_NtB6_6filterINtB1I_6FilterppENtNtNtB8_6traits8iterator8Iterator5count8to_usizeBU_NCNvMs0_NtCsiLWJ3muoyUj_10displaydoc4attrNtB39_11AttrsHelper7displays_0E0NCINvXsK_NtB2f_5accumjNtB4l_3Sum3sumINtB4_3MapINtNtNtBa_5slice4iter4IterBV_EB1x_EE0E0B3b_, symObjAddr: 0x12F4, symBinAddr: 0x13D3C, symSize: 0x98 }
  - { offset: 0x526F2, size: 0x8, addend: 0x0, symName: __RNCINvNtNtNtCs9f3LFPSIp77_4core4iter8adapters3map8map_foldRRNtNtCsATtFUPiRFW_3syn8generics9TypeParamTNtCs475r2uZUTuc_11proc_macro25IdentINtNtCsdze8u8oDPro_5alloc3vec3VecNtBY_10TraitBoundEEuNCNvNtCsiLWJ3muoyUj_10displaydoc6expand37extract_trait_constraints_from_source0NCINvNvNtNtNtB8_6traits8iterator8Iterator8for_each4callB1A_NCINvXs1i_NtCscXJUXcj6jCz_9hashbrown3mapINtB5p_7HashMapB1B_B2a_NtNtNtCs27l1GJC5rMQ_3std4hash6random11RandomStateEINtNtB4t_7collect6ExtendB1A_E6extendINtB4_3MapINtNtNtBa_5slice4iter4IterBV_EB31_EE0E0E0B37_, symObjAddr: 0x138C, symBinAddr: 0x13DD4, symSize: 0x94 }
  - { offset: 0x529FB, size: 0x8, addend: 0x0, symName: __RNvXsC_NtNtNtCs9f3LFPSIp77_4core4iter8adapters7flattenINtNtBb_6option6OptionRNtNtCsATtFUPiRFW_3syn8generics10TraitBoundENtB5_21ConstSizeIntoIterator4sizeCsiLWJ3muoyUj_10displaydoc, symObjAddr: 0x29FC, symBinAddr: 0x15444, symSize: 0x18 }
  - { offset: 0x52AEF, size: 0x8, addend: 0x0, symName: __RINvYINtNtNtNtCs9f3LFPSIp77_4core4iter8adapters3map3MapINtNtB8_3zip3ZipINtNtCsATtFUPiRFW_3syn10punctuated4IterNtNtB1c_4data7VariantEINtNtNtCsdze8u8oDPro_5alloc3vec9into_iter8IntoIterINtNtBc_6option6OptionNtNtCsiLWJ3muoyUj_10displaydoc4attr14VariantDisplayEEENCNvNtB3k_6expand9impl_enums_0ENtNtNtBa_6traits8iterator8Iterator7collectINtNtBc_6result6ResultINtB2b_3VecNtCs475r2uZUTuc_11proc_macro211TokenStreamENtNtB1c_5error5ErrorEEB3k_, symObjAddr: 0x1100, symBinAddr: 0x13B48, symSize: 0x14 }
  - { offset: 0x52B30, size: 0x8, addend: 0x0, symName: __RINvYINtNtNtNtCs9f3LFPSIp77_4core4iter8adapters3map3MapINtNtCsATtFUPiRFW_3syn10punctuated4IterNtNtBW_4data7VariantENCNvNtCsiLWJ3muoyUj_10displaydoc6expand9impl_enum0ENtNtNtBa_6traits8iterator8Iterator7collectINtNtBc_6result6ResultINtNtCsdze8u8oDPro_5alloc3vec3VecINtNtBc_6option6OptionNtNtB1V_4attr14VariantDisplayEENtNtBW_5error5ErrorEEB1V_, symObjAddr: 0x1114, symBinAddr: 0x13B5C, symSize: 0x14 }
  - { offset: 0x52B71, size: 0x8, addend: 0x0, symName: __RINvYINtNtNtNtCs9f3LFPSIp77_4core4iter8adapters3map3MapINtNtNtBc_5slice4iter4IterRNtNtCsATtFUPiRFW_3syn8generics9TypeParamENCNvNtCsiLWJ3muoyUj_10displaydoc6expand37extract_trait_constraints_from_source0ENtNtNtBa_6traits8iterator8Iterator7collectINtNtNtNtCs27l1GJC5rMQ_3std11collections4hash3map7HashMapNtCs475r2uZUTuc_11proc_macro25IdentINtNtCsdze8u8oDPro_5alloc3vec3VecNtB1k_10TraitBoundEEEB23_, symObjAddr: 0x1128, symBinAddr: 0x13B70, symSize: 0x2C }
  - { offset: 0x52BB1, size: 0x8, addend: 0x0, symName: __RINvYINtNtNtNtCs9f3LFPSIp77_4core4iter8adapters3map3MapINtNtNtBc_5slice4iter4IterRNtNtCsATtFUPiRFW_3syn8generics9TypeParamENCNvNtCsiLWJ3muoyUj_10displaydoc6expand37extract_trait_constraints_from_source0ENtNtNtBa_6traits8iterator8Iterator8for_eachNCINvXs1i_NtCscXJUXcj6jCz_9hashbrown3mapINtB46_7HashMapNtCs475r2uZUTuc_11proc_macro25IdentINtNtCsdze8u8oDPro_5alloc3vec3VecNtB1k_10TraitBoundENtNtNtCs27l1GJC5rMQ_3std4hash6random11RandomStateEINtNtB3j_7collect6ExtendTB4P_B5o_EE6extendB3_E0EB23_, symObjAddr: 0x1154, symBinAddr: 0x13B9C, symSize: 0x34 }
  - { offset: 0x52BFC, size: 0x8, addend: 0x0, symName: __RINvYINtNtNtNtCs9f3LFPSIp77_4core4iter8adapters3map3MapNtNtNtBc_3str4iter5LinesNCNvMs0_NtCsiLWJ3muoyUj_10displaydoc4attrNtB1n_11AttrsHelper7displays0_0ENtNtNtBa_6traits8iterator8Iterator7collectINtNtCsdze8u8oDPro_5alloc3vec3VecReEEB1p_, symObjAddr: 0x1188, symBinAddr: 0x13BD0, symSize: 0x14 }
  - { offset: 0x52C68, size: 0x8, addend: 0x0, symName: __RNvXs_NtNtNtCs9f3LFPSIp77_4core4iter6traits7collectINtNtNtB8_8adapters3map3MapINtNtBS_3zip3ZipINtNtCsATtFUPiRFW_3syn10punctuated4IterNtNtB1z_4data7VariantEINtNtNtCsdze8u8oDPro_5alloc3vec9into_iter8IntoIterINtNtBa_6option6OptionNtNtCsiLWJ3muoyUj_10displaydoc4attr14VariantDisplayEEENCNvNtB3H_6expand9impl_enums_0ENtB4_12IntoIterator9into_iterB3H_, symObjAddr: 0x2DA4, symBinAddr: 0x157EC, symSize: 0x30 }
  - { offset: 0x52CA0, size: 0x8, addend: 0x0, symName: __RNvXs_NtNtNtCs9f3LFPSIp77_4core4iter6traits7collectINtNtNtB8_8adapters3map3MapINtNtCsATtFUPiRFW_3syn10punctuated4IterNtNtB1j_4data7VariantENCNvNtCsiLWJ3muoyUj_10displaydoc6expand9impl_enum0ENtB4_12IntoIterator9into_iterB2j_, symObjAddr: 0x2DD4, symBinAddr: 0x1581C, symSize: 0x14 }
  - { offset: 0x52CD7, size: 0x8, addend: 0x0, symName: __RNvXs_NtNtNtCs9f3LFPSIp77_4core4iter6traits7collectINtNtNtB8_8adapters3map3MapINtNtNtBa_5slice4iter4IterRNtNtCsATtFUPiRFW_3syn8generics9TypeParamENCNvNtCsiLWJ3muoyUj_10displaydoc6expand37extract_trait_constraints_from_source0ENtB4_12IntoIterator9into_iterB2q_, symObjAddr: 0x2DE8, symBinAddr: 0x15830, symSize: 0x1C }
  - { offset: 0x52D0E, size: 0x8, addend: 0x0, symName: __RNvXs_NtNtNtCs9f3LFPSIp77_4core4iter6traits7collectINtNtNtB8_8adapters3map3MapNtNtNtBa_3str4iter5LinesNCNvMs0_NtCsiLWJ3muoyUj_10displaydoc4attrNtB1K_11AttrsHelper7displays0_0ENtB4_12IntoIterator9into_iterB1M_, symObjAddr: 0x2E04, symBinAddr: 0x1584C, symSize: 0x30 }
  - { offset: 0x52D52, size: 0x8, addend: 0x0, symName: __RNvYINtNtCs9f3LFPSIp77_4core6option8IntoIterQNtNtCsATtFUPiRFW_3syn8generics14WherePredicateENtNtNtNtB7_4iter6traits10exact_size17ExactSizeIterator3lenCsiLWJ3muoyUj_10displaydoc, symObjAddr: 0x3848, symBinAddr: 0x16290, symSize: 0xC4 }
  - { offset: 0x52E44, size: 0x8, addend: 0x0, symName: __RNvYINtNtCs9f3LFPSIp77_4core6option8IntoIterRNtNtCsATtFUPiRFW_3syn4data7VariantENtNtNtNtB7_4iter6traits10exact_size17ExactSizeIterator3lenCsiLWJ3muoyUj_10displaydoc, symObjAddr: 0x390C, symBinAddr: 0x16354, symSize: 0xC4 }
  - { offset: 0x52F36, size: 0x8, addend: 0x0, symName: __RNvYINtNtCs9f3LFPSIp77_4core6option8IntoIterRNtNtCsATtFUPiRFW_3syn8generics14WherePredicateENtNtNtNtB7_4iter6traits10exact_size17ExactSizeIterator3lenCsiLWJ3muoyUj_10displaydoc, symObjAddr: 0x39D0, symBinAddr: 0x16418, symSize: 0xC4 }
  - { offset: 0x53271, size: 0x8, addend: 0x0, symName: __RNcNtINtNtNtCs9f3LFPSIp77_4core3ops12control_flow11ControlFlowINtNtBa_6option6OptionNtNtCsiLWJ3muoyUj_10displaydoc4attr14VariantDisplayEE5Break0B1o_, symObjAddr: 0x14CC, symBinAddr: 0x13F14, symSize: 0x30 }
  - { offset: 0x532AC, size: 0x8, addend: 0x0, symName: __RNcNtINtNtNtCs9f3LFPSIp77_4core3ops12control_flow11ControlFlowNtCs475r2uZUTuc_11proc_macro211TokenStreamE5Break0CsiLWJ3muoyUj_10displaydoc, symObjAddr: 0x14FC, symBinAddr: 0x13F44, symSize: 0x14 }
  - { offset: 0x532ED, size: 0x8, addend: 0x0, symName: __RNvXNtNtCs9f3LFPSIp77_4core3ops12control_flowINtB2_11ControlFlowIBI_INtNtB6_6option6OptionNtNtCsiLWJ3muoyUj_10displaydoc4attr14VariantDisplayEEENtNtB4_9try_trait3Try11from_outputB1u_, symObjAddr: 0x1E64, symBinAddr: 0x148AC, symSize: 0x18 }
  - { offset: 0x5332B, size: 0x8, addend: 0x0, symName: __RNvXNtNtCs9f3LFPSIp77_4core3ops12control_flowINtB2_11ControlFlowIBI_INtNtB6_6option6OptionNtNtCsiLWJ3muoyUj_10displaydoc4attr14VariantDisplayEEENtNtB4_9try_trait3Try6branchB1u_, symObjAddr: 0x1E7C, symBinAddr: 0x148C4, symSize: 0x8C }
  - { offset: 0x533A3, size: 0x8, addend: 0x0, symName: __RNvXNtNtCs9f3LFPSIp77_4core3ops12control_flowINtB2_11ControlFlowIBI_NtCs475r2uZUTuc_11proc_macro211TokenStreamEENtNtB4_9try_trait3Try11from_outputCsiLWJ3muoyUj_10displaydoc, symObjAddr: 0x1F08, symBinAddr: 0x14950, symSize: 0x1C }
  - { offset: 0x533E1, size: 0x8, addend: 0x0, symName: __RNvXNtNtCs9f3LFPSIp77_4core3ops12control_flowINtB2_11ControlFlowIBI_NtCs475r2uZUTuc_11proc_macro211TokenStreamEENtNtB4_9try_trait3Try6branchCsiLWJ3muoyUj_10displaydoc, symObjAddr: 0x1F24, symBinAddr: 0x1496C, symSize: 0x80 }
  - { offset: 0x5345A, size: 0x8, addend: 0x0, symName: __RNvXNtNtCs9f3LFPSIp77_4core3ops12control_flowINtB2_11ControlFlowINtNtB6_6option6OptionNtNtCsiLWJ3muoyUj_10displaydoc4attr14VariantDisplayEENtNtB4_9try_trait3Try11from_outputB1q_, symObjAddr: 0x1FA4, symBinAddr: 0x149EC, symSize: 0x1C }
  - { offset: 0x53498, size: 0x8, addend: 0x0, symName: __RNvXNtNtCs9f3LFPSIp77_4core3ops12control_flowINtB2_11ControlFlowINtNtB6_6option6OptionNtNtCsiLWJ3muoyUj_10displaydoc4attr14VariantDisplayEENtNtB4_9try_trait3Try6branchB1q_, symObjAddr: 0x1FC0, symBinAddr: 0x14A08, symSize: 0x94 }
  - { offset: 0x53510, size: 0x8, addend: 0x0, symName: __RNvXNtNtCs9f3LFPSIp77_4core3ops12control_flowINtB2_11ControlFlowNtCs475r2uZUTuc_11proc_macro211TokenStreamENtNtB4_9try_trait3Try11from_outputCsiLWJ3muoyUj_10displaydoc, symObjAddr: 0x2054, symBinAddr: 0x14A9C, symSize: 0x18 }
  - { offset: 0x5354E, size: 0x8, addend: 0x0, symName: __RNvXNtNtCs9f3LFPSIp77_4core3ops12control_flowINtB2_11ControlFlowNtCs475r2uZUTuc_11proc_macro211TokenStreamENtNtB4_9try_trait3Try6branchCsiLWJ3muoyUj_10displaydoc, symObjAddr: 0x206C, symBinAddr: 0x14AB4, symSize: 0x78 }
  - { offset: 0x535C7, size: 0x8, addend: 0x0, symName: __RNvXNtNtCs9f3LFPSIp77_4core3ops12control_flowINtB2_11ControlFlowTRNtCs475r2uZUTuc_11proc_macro25IdentQINtNtCsdze8u8oDPro_5alloc3vec3VecNtNtCsATtFUPiRFW_3syn8generics10TraitBoundEEENtNtB4_9try_trait3Try11from_outputCsiLWJ3muoyUj_10displaydoc, symObjAddr: 0x20E4, symBinAddr: 0x14B2C, symSize: 0x18 }
  - { offset: 0x53605, size: 0x8, addend: 0x0, symName: __RNvXNtNtCs9f3LFPSIp77_4core3ops12control_flowINtB2_11ControlFlowTRNtCs475r2uZUTuc_11proc_macro25IdentQINtNtCsdze8u8oDPro_5alloc3vec3VecNtNtCsATtFUPiRFW_3syn8generics10TraitBoundEEENtNtB4_9try_trait3Try6branchCsiLWJ3muoyUj_10displaydoc, symObjAddr: 0x20FC, symBinAddr: 0x14B44, symSize: 0x64 }
  - { offset: 0x53683, size: 0x8, addend: 0x0, symName: __RNvXs_NtNtCs9f3LFPSIp77_4core3ops12control_flowINtB4_11ControlFlowIBK_INtNtB8_6option6OptionNtNtCsiLWJ3muoyUj_10displaydoc4attr14VariantDisplayEEEINtNtB6_9try_trait12FromResidualIBK_B12_NtNtB8_7convert10InfallibleEE13from_residualB1w_, symObjAddr: 0x2C88, symBinAddr: 0x156D0, symSize: 0x48 }
  - { offset: 0x536DF, size: 0x8, addend: 0x0, symName: __RNvXs_NtNtCs9f3LFPSIp77_4core3ops12control_flowINtB4_11ControlFlowIBK_NtCs475r2uZUTuc_11proc_macro211TokenStreamEEINtNtB6_9try_trait12FromResidualIBK_B12_NtNtB8_7convert10InfallibleEE13from_residualCsiLWJ3muoyUj_10displaydoc, symObjAddr: 0x2CD0, symBinAddr: 0x15718, symSize: 0x2C }
  - { offset: 0x5373A, size: 0x8, addend: 0x0, symName: __RNvXs_NtNtCs9f3LFPSIp77_4core3ops12control_flowINtB4_11ControlFlowINtNtB8_6option6OptionNtNtCsiLWJ3muoyUj_10displaydoc4attr14VariantDisplayEEINtNtB6_9try_trait12FromResidualIBK_B12_NtNtB8_7convert10InfallibleEE13from_residualB1s_, symObjAddr: 0x2CFC, symBinAddr: 0x15744, symSize: 0x48 }
  - { offset: 0x53796, size: 0x8, addend: 0x0, symName: __RNvXs_NtNtCs9f3LFPSIp77_4core3ops12control_flowINtB4_11ControlFlowNtCs475r2uZUTuc_11proc_macro211TokenStreamEINtNtB6_9try_trait12FromResidualIBK_B12_NtNtB8_7convert10InfallibleEE13from_residualCsiLWJ3muoyUj_10displaydoc, symObjAddr: 0x2D44, symBinAddr: 0x1578C, symSize: 0x2C }
  - { offset: 0x537F1, size: 0x8, addend: 0x0, symName: __RNvXs_NtNtCs9f3LFPSIp77_4core3ops12control_flowINtB4_11ControlFlowTRNtCs475r2uZUTuc_11proc_macro25IdentQINtNtCsdze8u8oDPro_5alloc3vec3VecNtNtCsATtFUPiRFW_3syn8generics10TraitBoundEEEINtNtB6_9try_trait12FromResidualIBK_B12_NtNtB8_7convert10InfallibleEE13from_residualCsiLWJ3muoyUj_10displaydoc, symObjAddr: 0x2D70, symBinAddr: 0x157B8, symSize: 0x34 }
  - { offset: 0x594CA, size: 0x8, addend: 0x0, symName: __RINvNtCsATtFUPiRFW_3syn5parse12parse_scopedNvYNtNtB4_3lit6LitStrNtB2_5Parse5parseECsiLWJ3muoyUj_10displaydoc, symObjAddr: 0xE7C, symBinAddr: 0x138C4, symSize: 0x30 }
  - { offset: 0x59525, size: 0x8, addend: 0x0, symName: __RNvXsh_NtCsATtFUPiRFW_3syn5parseNvYNtNtB7_3lit6LitStrNtB5_5Parse5parseNtB5_6Parser14___parse_scopedCsiLWJ3muoyUj_10displaydoc, symObjAddr: 0x2EEC, symBinAddr: 0x15934, symSize: 0x3A0 }
  - { offset: 0x5966F, size: 0x8, addend: 0x0, symName: __RNvXsh_NtCsATtFUPiRFW_3syn5parseNvYNtNtB7_6derive11DeriveInputNtB5_5Parse5parseNtB5_6Parser6parse2CsiLWJ3muoyUj_10displaydoc, symObjAddr: 0x328C, symBinAddr: 0x15CD4, symSize: 0x36C }
  - { offset: 0x59783, size: 0x8, addend: 0x0, symName: __RNvYNvYNtNtCsATtFUPiRFW_3syn6derive11DeriveInputNtNtB9_5parse5Parse5parseNtBM_6Parser5parseCsiLWJ3muoyUj_10displaydoc, symObjAddr: 0x3B34, symBinAddr: 0x1657C, symSize: 0x88 }
  - { offset: 0x5AB8F, size: 0x8, addend: 0x0, symName: __RNvXsq_NtCsdze8u8oDPro_5alloc6stringNtB5_6StringNtNtNtCs9f3LFPSIp77_4core3ops5deref5Deref5derefCsiLWJ3muoyUj_10displaydoc, symObjAddr: 0x3628, symBinAddr: 0x16070, symSize: 0x24 }
  - { offset: 0x5ABC3, size: 0x8, addend: 0x0, symName: __RINvXsl_NtCsdze8u8oDPro_5alloc6stringNtB6_6StringNtNtCs9f3LFPSIp77_4core4hash4Hash4hashNtNtNtCs27l1GJC5rMQ_3std4hash6random13DefaultHasherECsiLWJ3muoyUj_10displaydoc, symObjAddr: 0x1060, symBinAddr: 0x13AA8, symSize: 0xA0 }
  - { offset: 0x5AE12, size: 0x8, addend: 0x0, symName: __RNvXs1B_NtCsdze8u8oDPro_5alloc6stringReNtB6_8ToString9to_stringCsiLWJ3muoyUj_10displaydoc, symObjAddr: 0x2624, symBinAddr: 0x1506C, symSize: 0x5C }
  - { offset: 0x5AF43, size: 0x8, addend: 0x0, symName: __RNvXsn_NtCsdze8u8oDPro_5alloc6stringNtB5_6StringINtNtNtCs9f3LFPSIp77_4core3ops5arith9AddAssignReE10add_assignCsiLWJ3muoyUj_10displaydoc, symObjAddr: 0x35F8, symBinAddr: 0x16040, symSize: 0x30 }
  - { offset: 0x5B5EB, size: 0x8, addend: 0x0, symName: __RINvMNtCs9f3LFPSIp77_4core6optionINtB3_6OptionNtNtCsATtFUPiRFW_3syn8generics11WhereClauseE14unwrap_or_elseNvNtCsiLWJ3muoyUj_10displaydoc6expand22new_empty_where_clauseEB1K_, symObjAddr: 0x0, symBinAddr: 0x12A48, symSize: 0x74 }
  - { offset: 0x5B887, size: 0x8, addend: 0x0, symName: __RINvMNtCs9f3LFPSIp77_4core6optionINtB3_6OptionNtNtCsiLWJ3muoyUj_10displaydoc4attr14VariantDisplayE10ok_or_elseNtNtCsATtFUPiRFW_3syn5error5ErrorNCNCNvNtBM_6expand9impl_enums_00EBM_, symObjAddr: 0x74, symBinAddr: 0x12ABC, symSize: 0x9C }
  - { offset: 0x5B8F3, size: 0x8, addend: 0x0, symName: __RINvMNtCs9f3LFPSIp77_4core6optionINtB3_6OptionNtNtCsiLWJ3muoyUj_10displaydoc4attr7DisplayE3mapNtBK_14VariantDisplayNCNvMs0_BK_NtBK_11AttrsHelper18display_with_input0EBM_, symObjAddr: 0x110, symBinAddr: 0x12B58, symSize: 0xCC }
  - { offset: 0x5B9BC, size: 0x8, addend: 0x0, symName: __RINvMNtCs9f3LFPSIp77_4core6optionINtB3_6OptionNtNtCsiLWJ3muoyUj_10displaydoc4attr7DisplayE3mapNtCs475r2uZUTuc_11proc_macro211TokenStreamNCNvNtBM_6expand11impl_struct0EBM_, symObjAddr: 0x1DC, symBinAddr: 0x12C24, symSize: 0xB8 }
  - { offset: 0x5BA5B, size: 0x8, addend: 0x0, symName: __RINvMNtCs9f3LFPSIp77_4core6optionINtB3_6OptionQINtNtCsdze8u8oDPro_5alloc5boxed3BoxNtNtCsATtFUPiRFW_3syn8generics14WherePredicateEE3mapQB1i_NvYBJ_INtNtB5_7convert5AsMutB1i_E6as_mutECsiLWJ3muoyUj_10displaydoc, symObjAddr: 0x294, symBinAddr: 0x12CDC, symSize: 0x50 }
  - { offset: 0x5BAD3, size: 0x8, addend: 0x0, symName: __RINvMNtCs9f3LFPSIp77_4core6optionINtB3_6OptionQNtNtCsATtFUPiRFW_3syn8generics14WherePredicateE7or_elseNCNvXsF_NtBN_10punctuatedINtB1K_14PrivateIterMutBJ_NtNtBN_5token5CommaENtNtNtNtB5_4iter6traits8iterator8Iterator4nexts_0ECsiLWJ3muoyUj_10displaydoc, symObjAddr: 0x2E4, symBinAddr: 0x12D2C, symSize: 0xA8 }
  - { offset: 0x5BB69, size: 0x8, addend: 0x0, symName: __RINvMNtCs9f3LFPSIp77_4core6optionINtB3_6OptionQNtNtCsATtFUPiRFW_3syn8generics14WherePredicateE7or_elseNCNvXsG_NtBN_10punctuatedINtB1K_14PrivateIterMutBJ_NtNtBN_5token5CommaENtNtNtNtB5_4iter6traits12double_ended19DoubleEndedIterator9next_back0ECsiLWJ3muoyUj_10displaydoc, symObjAddr: 0x38C, symBinAddr: 0x12DD4, symSize: 0xA8 }
  - { offset: 0x5BBCB, size: 0x8, addend: 0x0, symName: __RINvMNtCs9f3LFPSIp77_4core6optionINtB3_6OptionQTNtNtCsATtFUPiRFW_3syn8generics14WherePredicateNtNtBO_5token5CommaEE3mapQBK_NCNCNvXsG_NtBO_10punctuatedINtB27_14PrivateIterMutBK_B1u_ENtNtNtNtB5_4iter6traits12double_ended19DoubleEndedIterator9next_back00ECsiLWJ3muoyUj_10displaydoc, symObjAddr: 0x434, symBinAddr: 0x12E7C, symSize: 0x50 }
  - { offset: 0x5BC36, size: 0x8, addend: 0x0, symName: __RINvMNtCs9f3LFPSIp77_4core6optionINtB3_6OptionQTNtNtCsATtFUPiRFW_3syn8generics14WherePredicateNtNtBO_5token5CommaEE3mapQBK_NCNvXsF_NtBO_10punctuatedINtB25_14PrivateIterMutBK_B1u_ENtNtNtNtB5_4iter6traits8iterator8Iterator4next0ECsiLWJ3muoyUj_10displaydoc, symObjAddr: 0x484, symBinAddr: 0x12ECC, symSize: 0x50 }
  - { offset: 0x5BCAE, size: 0x8, addend: 0x0, symName: __RINvMNtCs9f3LFPSIp77_4core6optionINtB3_6OptionRNtNtCsATtFUPiRFW_3syn4data7VariantE7or_elseNCNvXsw_NtBN_10punctuatedINtB1y_11PrivateIterBJ_NtNtBN_5token5CommaENtNtNtNtB5_4iter6traits8iterator8Iterator4nexts_0ECsiLWJ3muoyUj_10displaydoc, symObjAddr: 0x4D4, symBinAddr: 0x12F1C, symSize: 0xA8 }
  - { offset: 0x5BD37, size: 0x8, addend: 0x0, symName: __RINvMNtCs9f3LFPSIp77_4core6optionINtB3_6OptionRNtNtCsATtFUPiRFW_3syn4data7VariantE7or_elseNCNvXsx_NtBN_10punctuatedINtB1y_11PrivateIterBJ_NtNtBN_5token5CommaENtNtNtNtB5_4iter6traits12double_ended19DoubleEndedIterator9next_back0ECsiLWJ3muoyUj_10displaydoc, symObjAddr: 0x57C, symBinAddr: 0x12FC4, symSize: 0xA8 }
  - { offset: 0x5BDB3, size: 0x8, addend: 0x0, symName: __RINvMNtCs9f3LFPSIp77_4core6optionINtB3_6OptionRNtNtCsATtFUPiRFW_3syn8generics14WherePredicateE7or_elseNCNvXsw_NtBN_10punctuatedINtB1K_11PrivateIterBJ_NtNtBN_5token5CommaENtNtNtNtB5_4iter6traits8iterator8Iterator4nexts_0ECsiLWJ3muoyUj_10displaydoc, symObjAddr: 0x624, symBinAddr: 0x1306C, symSize: 0xA8 }
  - { offset: 0x5BE2F, size: 0x8, addend: 0x0, symName: __RINvMNtCs9f3LFPSIp77_4core6optionINtB3_6OptionRNtNtCsATtFUPiRFW_3syn8generics14WherePredicateE7or_elseNCNvXsx_NtBN_10punctuatedINtB1K_11PrivateIterBJ_NtNtBN_5token5CommaENtNtNtNtB5_4iter6traits12double_ended19DoubleEndedIterator9next_back0ECsiLWJ3muoyUj_10displaydoc, symObjAddr: 0x6CC, symBinAddr: 0x13114, symSize: 0xA8 }
  - { offset: 0x5BE91, size: 0x8, addend: 0x0, symName: __RINvMNtCs9f3LFPSIp77_4core6optionINtB3_6OptionRTNtNtCsATtFUPiRFW_3syn4data7VariantNtNtBO_5token5CommaEE3mapRBK_NCNCNvXsx_NtBO_10punctuatedINtB1V_11PrivateIterBK_B1i_ENtNtNtNtB5_4iter6traits12double_ended19DoubleEndedIterator9next_back00ECsiLWJ3muoyUj_10displaydoc, symObjAddr: 0x774, symBinAddr: 0x131BC, symSize: 0x50 }
  - { offset: 0x5BEFC, size: 0x8, addend: 0x0, symName: __RINvMNtCs9f3LFPSIp77_4core6optionINtB3_6OptionRTNtNtCsATtFUPiRFW_3syn4data7VariantNtNtBO_5token5CommaEE3mapRBK_NCNvXsw_NtBO_10punctuatedINtB1T_11PrivateIterBK_B1i_ENtNtNtNtB5_4iter6traits8iterator8Iterator4next0ECsiLWJ3muoyUj_10displaydoc, symObjAddr: 0x7C4, symBinAddr: 0x1320C, symSize: 0x50 }
  - { offset: 0x5BF67, size: 0x8, addend: 0x0, symName: __RINvMNtCs9f3LFPSIp77_4core6optionINtB3_6OptionRTNtNtCsATtFUPiRFW_3syn8generics14WherePredicateNtNtBO_5token5CommaEE3mapRBK_NCNCNvXsx_NtBO_10punctuatedINtB27_11PrivateIterBK_B1u_ENtNtNtNtB5_4iter6traits12double_ended19DoubleEndedIterator9next_back00ECsiLWJ3muoyUj_10displaydoc, symObjAddr: 0x814, symBinAddr: 0x1325C, symSize: 0x50 }
  - { offset: 0x5BFD2, size: 0x8, addend: 0x0, symName: __RINvMNtCs9f3LFPSIp77_4core6optionINtB3_6OptionRTNtNtCsATtFUPiRFW_3syn8generics14WherePredicateNtNtBO_5token5CommaEE3mapRBK_NCNvXsw_NtBO_10punctuatedINtB25_11PrivateIterBK_B1u_ENtNtNtNtB5_4iter6traits8iterator8Iterator4next0ECsiLWJ3muoyUj_10displaydoc, symObjAddr: 0x864, symBinAddr: 0x132AC, symSize: 0x50 }
  - { offset: 0x5C04A, size: 0x8, addend: 0x0, symName: __RINvMNtCsATtFUPiRFW_3syn4attrNtB3_9Attribute10parse_argsNtNtB5_3lit6LitStrECsiLWJ3muoyUj_10displaydoc, symObjAddr: 0x8B4, symBinAddr: 0x132FC, symSize: 0x34 }
  - { offset: 0x5C296, size: 0x8, addend: 0x0, symName: __RINvMNtCsATtFUPiRFW_3syn4attrNtB3_9Attribute15parse_args_withNvYNtNtB5_3lit6LitStrNtNtB5_5parse5Parse5parseECsiLWJ3muoyUj_10displaydoc, symObjAddr: 0x8E8, symBinAddr: 0x13330, symSize: 0x3F4 }
  - { offset: 0x5C5A3, size: 0x8, addend: 0x0, symName: __RINvMs0_NtCs9f3LFPSIp77_4core3fmtNtB6_9Arguments6new_v1Kj3_Kj2_ECsiLWJ3muoyUj_10displaydoc, symObjAddr: 0xCDC, symBinAddr: 0x13724, symSize: 0x54 }
  - { offset: 0x5C5E2, size: 0x8, addend: 0x0, symName: __RINvMs0_NtCsATtFUPiRFW_3syn4attrNtB6_8MetaList15parse_args_withNvYNtNtB8_3lit6LitStrNtNtB8_5parse5Parse5parseECsiLWJ3muoyUj_10displaydoc, symObjAddr: 0xD30, symBinAddr: 0x13778, symSize: 0xF0 }
  - { offset: 0x5C63C, size: 0x8, addend: 0x0, symName: __RINvNtCs62MdaZFMefA_5quote9___private8get_spanNtCs475r2uZUTuc_11proc_macro24SpanECsiLWJ3muoyUj_10displaydoc, symObjAddr: 0xE20, symBinAddr: 0x13868, symSize: 0x20 }
  - { offset: 0x5C6B3, size: 0x8, addend: 0x0, symName: __RNvXs4_NtCs62MdaZFMefA_5quote9___privateINtB5_9RepInterpNtCs475r2uZUTuc_11proc_macro25IdentENtNtB7_9to_tokens8ToTokens9to_tokensCsiLWJ3muoyUj_10displaydoc, symObjAddr: 0x27B8, symBinAddr: 0x15200, symSize: 0x3C }
  - { offset: 0x5C6F2, size: 0x8, addend: 0x0, symName: __RNvXs4_NtCs62MdaZFMefA_5quote9___privateINtB5_9RepInterpRINtNtCs9f3LFPSIp77_4core6option6OptionNtCs475r2uZUTuc_11proc_macro25IdentEENtNtB7_9to_tokens8ToTokens9to_tokensCsiLWJ3muoyUj_10displaydoc, symObjAddr: 0x27F4, symBinAddr: 0x1523C, symSize: 0x3C }
  - { offset: 0x5C731, size: 0x8, addend: 0x0, symName: __RNvXs4_NtCs62MdaZFMefA_5quote9___privateINtB5_9RepInterpRNtCs475r2uZUTuc_11proc_macro211TokenStreamENtNtB7_9to_tokens8ToTokens9to_tokensCsiLWJ3muoyUj_10displaydoc, symObjAddr: 0x2830, symBinAddr: 0x15278, symSize: 0x3C }
  - { offset: 0x5C776, size: 0x8, addend: 0x0, symName: __RNvXs6_NtCs62MdaZFMefA_5quote9___privateINtB5_20IdentFragmentAdapterRjENtNtCs9f3LFPSIp77_4core3fmt7Display3fmtCsiLWJ3muoyUj_10displaydoc, symObjAddr: 0x28A8, symBinAddr: 0x152F0, symSize: 0x3C }
  - { offset: 0x5C7C7, size: 0x8, addend: 0x0, symName: __RNvYINtNtNtNtCs9f3LFPSIp77_4core4iter8adapters3map3MapINtNtCsATtFUPiRFW_3syn10punctuated4IterNtNtBV_4data5FieldENCNCNvNtCsiLWJ3muoyUj_10displaydoc6expand11impl_struct00ENtNtNtCs62MdaZFMefA_5quote9___private3ext14RepIteratorExt15quote_into_iterB1U_, symObjAddr: 0x3A94, symBinAddr: 0x164DC, symSize: 0x2C }
  - { offset: 0x5C7FC, size: 0x8, addend: 0x0, symName: __RNvYINtNtNtNtCs9f3LFPSIp77_4core4iter8adapters3map3MapINtNtCsATtFUPiRFW_3syn10punctuated4IterNtNtBV_4data5FieldENCNCNvNtCsiLWJ3muoyUj_10displaydoc6expand9impl_enums_0s_0ENtNtNtCs62MdaZFMefA_5quote9___private3ext14RepIteratorExt15quote_into_iterB1U_, symObjAddr: 0x3AC0, symBinAddr: 0x16508, symSize: 0x2C }
  - { offset: 0x5C831, size: 0x8, addend: 0x0, symName: __RNvYINtNtNtNtCs9f3LFPSIp77_4core4iter8adapters3map3MapINtNtNtBb_3ops5range5RangejENCNCNvNtCsiLWJ3muoyUj_10displaydoc6expand11impl_struct0s_0ENtNtNtCs62MdaZFMefA_5quote9___private3ext14RepIteratorExt15quote_into_iterB1q_, symObjAddr: 0x3AEC, symBinAddr: 0x16534, symSize: 0x24 }
  - { offset: 0x5C866, size: 0x8, addend: 0x0, symName: __RNvYINtNtNtNtCs9f3LFPSIp77_4core4iter8adapters3map3MapINtNtNtBb_3ops5range5RangejENCNCNvNtCsiLWJ3muoyUj_10displaydoc6expand9impl_enums_0s0_0ENtNtNtCs62MdaZFMefA_5quote9___private3ext14RepIteratorExt15quote_into_iterB1q_, symObjAddr: 0x3B10, symBinAddr: 0x16558, symSize: 0x24 }
  - { offset: 0x5C96A, size: 0x8, addend: 0x0, symName: __RNvXNtCs62MdaZFMefA_5quote9to_tokensRINtNtCs9f3LFPSIp77_4core6option6OptionNtCs475r2uZUTuc_11proc_macro25IdentENtB2_8ToTokens9to_tokensCsiLWJ3muoyUj_10displaydoc, symObjAddr: 0x1E24, symBinAddr: 0x1486C, symSize: 0x40 }
  - { offset: 0x5C9AF, size: 0x8, addend: 0x0, symName: __RNvXs3_NtCs62MdaZFMefA_5quote9to_tokensINtNtCs9f3LFPSIp77_4core6option6OptionNtCs475r2uZUTuc_11proc_macro211TokenStreamENtB5_8ToTokens9to_tokensCsiLWJ3muoyUj_10displaydoc, symObjAddr: 0x2730, symBinAddr: 0x15178, symSize: 0x88 }
  - { offset: 0x5CA11, size: 0x8, addend: 0x0, symName: __RNvYRNtNtCsATtFUPiRFW_3syn4data7VariantNtNtCs62MdaZFMefA_5quote9to_tokens8ToTokens15to_token_streamCsiLWJ3muoyUj_10displaydoc, symObjAddr: 0x3BBC, symBinAddr: 0x16604, symSize: 0x8C }
  - { offset: 0x5CA5B, size: 0x8, addend: 0x0, symName: __RNvYRNtNtCsATtFUPiRFW_3syn4data7VariantNtNtCs62MdaZFMefA_5quote9to_tokens8ToTokens17into_token_streamCsiLWJ3muoyUj_10displaydoc, symObjAddr: 0x3C48, symBinAddr: 0x16690, symSize: 0x54 }
  - { offset: 0x5CD41, size: 0x8, addend: 0x0, symName: __RNvMNtCs9f3LFPSIp77_4core6optionINtB2_6OptionINtNtB4_4cell4CellTyyEEE4takeCsiLWJ3muoyUj_10displaydoc, symObjAddr: 0x15F8, symBinAddr: 0x14040, symSize: 0x3C }
  - { offset: 0x5CDFA, size: 0x8, addend: 0x0, symName: __RNvMNtCs9f3LFPSIp77_4core6optionINtB2_6OptionINtNtCsdze8u8oDPro_5alloc5boxed3BoxNtNtCsATtFUPiRFW_3syn8generics14WherePredicateEE6as_mutCsiLWJ3muoyUj_10displaydoc, symObjAddr: 0x1634, symBinAddr: 0x1407C, symSize: 0x4C }
  - { offset: 0x5CE44, size: 0x8, addend: 0x0, symName: __RNvMNtCs9f3LFPSIp77_4core6optionINtB2_6OptionNtCs475r2uZUTuc_11proc_macro24SpanE2orCsiLWJ3muoyUj_10displaydoc, symObjAddr: 0x1680, symBinAddr: 0x140C8, symSize: 0x80 }
  - { offset: 0x5CEA9, size: 0x8, addend: 0x0, symName: __RNvMNtCs9f3LFPSIp77_4core6optionINtB2_6OptionNtNtCsiLWJ3muoyUj_10displaydoc4attr14VariantDisplayE7is_someBL_, symObjAddr: 0x1700, symBinAddr: 0x14148, symSize: 0x4C }
  - { offset: 0x5CED5, size: 0x8, addend: 0x0, symName: __RNvMNtCs9f3LFPSIp77_4core6optionINtB2_6OptionNtNtCsiLWJ3muoyUj_10displaydoc4attr7DisplayE6expectBL_, symObjAddr: 0x174C, symBinAddr: 0x14194, symSize: 0x70 }
  - { offset: 0x5CF8D, size: 0x8, addend: 0x0, symName: __RNvMNtCsdze8u8oDPro_5alloc6stringNtB2_6String3newCsiLWJ3muoyUj_10displaydoc, symObjAddr: 0x17BC, symBinAddr: 0x14204, symSize: 0x3C }
  - { offset: 0x5D1E2, size: 0x8, addend: 0x0, symName: __RNvMNtCsdze8u8oDPro_5alloc6stringNtB2_6String4pushCsiLWJ3muoyUj_10displaydoc, symObjAddr: 0x17F8, symBinAddr: 0x14240, symSize: 0x180 }
  - { offset: 0x5D68B, size: 0x8, addend: 0x0, symName: __RNvMNtCsdze8u8oDPro_5alloc6stringNtB2_6String6as_strCsiLWJ3muoyUj_10displaydoc, symObjAddr: 0x1978, symBinAddr: 0x143C0, symSize: 0x88 }
  - { offset: 0x5D8E0, size: 0x8, addend: 0x0, symName: __RNvMNtCsdze8u8oDPro_5alloc6stringNtB2_6String8push_strCsiLWJ3muoyUj_10displaydoc, symObjAddr: 0x1A00, symBinAddr: 0x14448, symSize: 0xDC }
  - { offset: 0x5DBEE, size: 0x8, addend: 0x0, symName: __RNvMs0_NtCs9f3LFPSIp77_4core6optionINtB5_6OptionRNtNtCsATtFUPiRFW_3syn8generics11WhereClauseE6clonedCsiLWJ3muoyUj_10displaydoc, symObjAddr: 0x1ADC, symBinAddr: 0x14524, symSize: 0x70 }
  - { offset: 0x5DC52, size: 0x8, addend: 0x0, symName: __RNvMs5_NtCs62MdaZFMefA_5quote9___privateINtB5_20IdentFragmentAdapterRjE4spanCsiLWJ3muoyUj_10displaydoc, symObjAddr: 0x1B4C, symBinAddr: 0x14594, symSize: 0x34 }
  - { offset: 0x5E756, size: 0x8, addend: 0x0, symName: __RINvCsATtFUPiRFW_3syn5parseNtNtB2_6derive11DeriveInputECsiLWJ3muoyUj_10displaydoc, symObjAddr: 0x0, symBinAddr: 0x166E4, symSize: 0x30 }
  - { offset: 0x5EA9D, size: 0x8, addend: 0x0, symName: __RINvNvNtCs27l1GJC5rMQ_3std9panicking3try7do_callINtNtNtCs9f3LFPSIp77_4core5panic11unwind_safe16AssertUnwindSafeNCINvNtNtCsjLJ1XWNSM6u_10proc_macro6bridge6client10run_clientNtB1Q_11TokenStreamINtNtBR_6option6OptionB2K_ENCNCINvMs7_B1Q_INtB1Q_6ClientNtB1U_11TokenStreamB3X_E7expand1NvCsiLWJ3muoyUj_10displaydoc12derive_errorE00E0EuEB4v_, symObjAddr: 0x358, symBinAddr: 0x16A3C, symSize: 0x58 }
  - { offset: 0x5EB6E, size: 0x8, addend: 0x0, symName: __RINvNvNtCs27l1GJC5rMQ_3std9panicking3try8do_catchINtNtNtCs9f3LFPSIp77_4core5panic11unwind_safe16AssertUnwindSafeNCINvNtNtCsjLJ1XWNSM6u_10proc_macro6bridge6client10run_clientNtB1R_11TokenStreamINtNtBS_6option6OptionB2L_ENCNCINvMs7_B1R_INtB1R_6ClientNtB1V_11TokenStreamB3Y_E7expand1NvCsiLWJ3muoyUj_10displaydoc12derive_errorE00E0EuEB4w_, symObjAddr: 0x3B0, symBinAddr: 0x16A94, symSize: 0x70 }
  - { offset: 0x61D1A, size: 0x8, addend: 0x0, symName: __RINvNtNtNtCs9f3LFPSIp77_4core4iter8adapters4fuse17and_then_or_clearINtNtB4_3map3MapINtNtCsATtFUPiRFW_3syn10punctuated4IterNtNtB1o_8generics14TypeParamBoundENCNCNvNtCsiLWJ3muoyUj_10displaydoc6expand37extract_trait_constraints_from_source00EINtNtB8_6option6OptionRNtB1Y_10TraitBoundENvYB13_NtNtNtB6_6traits8iterator8Iterator4nextEB2C_, symObjAddr: 0x30, symBinAddr: 0x16714, symSize: 0x100 }
  - { offset: 0x61E5F, size: 0x8, addend: 0x0, symName: __RINvNtNtNtCs9f3LFPSIp77_4core4iter8adapters4fuse17and_then_or_clearINtNtB4_3map3MapINtNtCsATtFUPiRFW_3syn10punctuated7IterMutNtNtB1o_8generics14WherePredicateENCNvNtCsiLWJ3muoyUj_10displaydoc6expand39ensure_display_in_where_clause_for_type0EINtNtB8_6option6OptionQNtB21_13PredicateTypeENvYB13_NtNtNtB6_6traits8iterator8Iterator4nextEB2D_, symObjAddr: 0x130, symBinAddr: 0x16814, symSize: 0x100 }
  - { offset: 0x61FC7, size: 0x8, addend: 0x0, symName: __RNvXs8_NtNtNtCs9f3LFPSIp77_4core4iter8adapters4fuseINtB5_4FuseINtNtB7_3map3MapINtNtCsATtFUPiRFW_3syn10punctuated4IterNtNtB1j_8generics14TypeParamBoundENCNCNvNtCsiLWJ3muoyUj_10displaydoc6expand37extract_trait_constraints_from_source00EEINtB5_8FuseImplBY_E4nextB2x_, symObjAddr: 0x177C, symBinAddr: 0x17E60, symSize: 0x24 }
  - { offset: 0x61FFE, size: 0x8, addend: 0x0, symName: __RNvXs8_NtNtNtCs9f3LFPSIp77_4core4iter8adapters4fuseINtB5_4FuseINtNtB7_3map3MapINtNtCsATtFUPiRFW_3syn10punctuated7IterMutNtNtB1j_8generics14WherePredicateENCNvNtCsiLWJ3muoyUj_10displaydoc6expand39ensure_display_in_where_clause_for_type0EEINtB5_8FuseImplBY_E4nextB2y_, symObjAddr: 0x17A0, symBinAddr: 0x17E84, symSize: 0x24 }
  - { offset: 0x62193, size: 0x8, addend: 0x0, symName: __RNvXs1_NtNtNtCs9f3LFPSIp77_4core4iter8adapters7flattenINtB5_7FlatMapINtNtCsATtFUPiRFW_3syn10punctuated4IterNtNtB19_8generics14TypeParamBoundEINtNtBb_6option6OptionRNtB1J_10TraitBoundENCNCNvNtCsiLWJ3muoyUj_10displaydoc6expand37extract_trait_constraints_from_source00ENtNtNtB9_6traits8iterator8Iterator4nextB33_, symObjAddr: 0x9F0, symBinAddr: 0x170D4, symSize: 0x24 }
  - { offset: 0x621DA, size: 0x8, addend: 0x0, symName: __RNvXs1_NtNtNtCs9f3LFPSIp77_4core4iter8adapters7flattenINtB5_7FlatMapINtNtCsATtFUPiRFW_3syn10punctuated4IterNtNtB19_8generics14TypeParamBoundEINtNtBb_6option6OptionRNtB1J_10TraitBoundENCNCNvNtCsiLWJ3muoyUj_10displaydoc6expand37extract_trait_constraints_from_source00ENtNtNtB9_6traits8iterator8Iterator9size_hintB33_, symObjAddr: 0xA14, symBinAddr: 0x170F8, symSize: 0x24 }
  - { offset: 0x62221, size: 0x8, addend: 0x0, symName: __RNvXs1_NtNtNtCs9f3LFPSIp77_4core4iter8adapters7flattenINtB5_7FlatMapINtNtCsATtFUPiRFW_3syn10punctuated7IterMutNtNtB19_8generics14WherePredicateEINtNtBb_6option6OptionQNtB1M_13PredicateTypeENCNvNtCsiLWJ3muoyUj_10displaydoc6expand39ensure_display_in_where_clause_for_type0ENtNtNtB9_6traits8iterator8Iterator4nextB37_, symObjAddr: 0xA38, symBinAddr: 0x1711C, symSize: 0x24 }
  - { offset: 0x6226E, size: 0x8, addend: 0x0, symName: __RNvXsX_NtNtNtCs9f3LFPSIp77_4core4iter8adapters7flattenINtB5_13FlattenCompatINtNtB7_3map3MapINtNtCsATtFUPiRFW_3syn10punctuated4IterNtNtB1w_8generics14TypeParamBoundENCNCNvNtCsiLWJ3muoyUj_10displaydoc6expand37extract_trait_constraints_from_source00EINtNtBb_6option8IntoIterRNtB26_10TraitBoundEENtNtNtB9_6traits8iterator8Iterator4nextB2K_, symObjAddr: 0x1974, symBinAddr: 0x18058, symSize: 0xD0 }
  - { offset: 0x622F8, size: 0x8, addend: 0x0, symName: __RNvXsX_NtNtNtCs9f3LFPSIp77_4core4iter8adapters7flattenINtB5_13FlattenCompatINtNtB7_3map3MapINtNtCsATtFUPiRFW_3syn10punctuated4IterNtNtB1w_8generics14TypeParamBoundENCNCNvNtCsiLWJ3muoyUj_10displaydoc6expand37extract_trait_constraints_from_source00EINtNtBb_6option8IntoIterRNtB26_10TraitBoundEENtNtNtB9_6traits8iterator8Iterator9size_hintB2K_, symObjAddr: 0x1A44, symBinAddr: 0x18128, symSize: 0x148 }
  - { offset: 0x6239A, size: 0x8, addend: 0x0, symName: __RNvXsX_NtNtNtCs9f3LFPSIp77_4core4iter8adapters7flattenINtB5_13FlattenCompatINtNtB7_3map3MapINtNtCsATtFUPiRFW_3syn10punctuated7IterMutNtNtB1w_8generics14WherePredicateENCNvNtCsiLWJ3muoyUj_10displaydoc6expand39ensure_display_in_where_clause_for_type0EINtNtBb_6option8IntoIterQNtB29_13PredicateTypeEENtNtNtB9_6traits8iterator8Iterator4nextB2L_, symObjAddr: 0x1B8C, symBinAddr: 0x18270, symSize: 0xD0 }
  - { offset: 0x624A5, size: 0x8, addend: 0x0, symName: __RINvYINtNtNtNtCs9f3LFPSIp77_4core4iter8adapters7flatten7FlatMapINtNtCsATtFUPiRFW_3syn10punctuated4IterNtNtB14_8generics14TypeParamBoundEINtNtBc_6option6OptionRNtB1E_10TraitBoundENCNCNvNtCsiLWJ3muoyUj_10displaydoc6expand37extract_trait_constraints_from_source00ENtNtNtBa_6traits8iterator8Iterator6clonedB2x_EB2Y_, symObjAddr: 0x46C, symBinAddr: 0x16B50, symSize: 0x30 }
  - { offset: 0x62504, size: 0x8, addend: 0x0, symName: __RINvYNtNtCs475r2uZUTuc_11proc_macro212token_stream8IntoIterNtNtNtNtCs9f3LFPSIp77_4core4iter6traits8iterator8Iterator4folduNCINvNvBV_8for_each4callNtB7_9TokenTreeNCINvXsa_NtB7_8fallbackNtB2I_11TokenStreamINtNtBZ_7collect6ExtendB2k_E6extendNtB7_11TokenStreamE0E0ECsiLWJ3muoyUj_10displaydoc, symObjAddr: 0x49C, symBinAddr: 0x16B80, symSize: 0x10C }
  - { offset: 0x62594, size: 0x8, addend: 0x0, symName: __RINvYNtNtCs475r2uZUTuc_11proc_macro212token_stream8IntoIterNtNtNtNtCs9f3LFPSIp77_4core4iter6traits8iterator8Iterator8for_eachNCINvXsa_NtB7_8fallbackNtB28_11TokenStreamINtNtBZ_7collect6ExtendNtB7_9TokenTreeE6extendNtB7_11TokenStreamE0ECsiLWJ3muoyUj_10displaydoc, symObjAddr: 0x5A8, symBinAddr: 0x16C8C, symSize: 0x24 }
  - { offset: 0x625E0, size: 0x8, addend: 0x0, symName: __RINvYNtNtCsATtFUPiRFW_3syn8generics10TypeParamsNtNtNtNtCs9f3LFPSIp77_4core4iter6traits8iterator8Iterator7collectINtNtCsdze8u8oDPro_5alloc3vec3VecRNtB5_9TypeParamEECsiLWJ3muoyUj_10displaydoc, symObjAddr: 0x5CC, symBinAddr: 0x16CB0, symSize: 0x2C }
  - { offset: 0x6264B, size: 0x8, addend: 0x0, symName: __RNvXs_NtNtNtCs9f3LFPSIp77_4core4iter6traits7collectINtNtNtB8_8adapters7flatten7FlatMapINtNtCsATtFUPiRFW_3syn10punctuated7IterMutNtNtB1r_8generics14WherePredicateEINtNtBa_6option6OptionQNtB24_13PredicateTypeENCNvNtCsiLWJ3muoyUj_10displaydoc6expand39ensure_display_in_where_clause_for_type0ENtB4_12IntoIterator9into_iterB3p_, symObjAddr: 0x22AC, symBinAddr: 0x18990, symSize: 0x30 }
  - { offset: 0x62683, size: 0x8, addend: 0x0, symName: __RNvXs_NtNtNtCs9f3LFPSIp77_4core4iter6traits7collectNtNtCsATtFUPiRFW_3syn8generics10TypeParamsNtB4_12IntoIterator9into_iterCsiLWJ3muoyUj_10displaydoc, symObjAddr: 0x22DC, symBinAddr: 0x189C0, symSize: 0x1C }
  - { offset: 0x6273F, size: 0x8, addend: 0x0, symName: __RNvNvMsc_NtNtCs9f3LFPSIp77_4core3num7nonzeroINtB7_7NonZeropE13new_unchecked18precondition_checkCsiLWJ3muoyUj_10displaydoc, symObjAddr: 0x9C0, symBinAddr: 0x170A4, symSize: 0x1C }
  - { offset: 0x62DCA, size: 0x8, addend: 0x0, symName: __RNvXsn_NtNtCs9f3LFPSIp77_4core5panic11unwind_safeINtB5_16AssertUnwindSafeNCINvNtNtCsjLJ1XWNSM6u_10proc_macro6bridge6client10run_clientNtB1e_11TokenStreamINtNtB9_6option6OptionB28_ENCNCINvMs7_B1e_INtB1e_6ClientNtB1i_11TokenStreamB3l_E7expand1NvCsiLWJ3muoyUj_10displaydoc12derive_errorE00E0EINtNtNtB9_3ops8function6FnOnceuE9call_onceB3T_, symObjAddr: 0x2540, symBinAddr: 0x18C24, symSize: 0x38 }
  - { offset: 0x62E61, size: 0x8, addend: 0x0, symName: __RNvMNtCs9f3LFPSIp77_4core5sliceSRNtNtCsATtFUPiRFW_3syn8generics9TypeParam4iterCsiLWJ3muoyUj_10displaydoc, symObjAddr: 0x62C, symBinAddr: 0x16D10, symSize: 0x28 }
  - { offset: 0x62E98, size: 0x8, addend: 0x0, symName: __RNvMNtCs9f3LFPSIp77_4core5sliceSTNtNtCsATtFUPiRFW_3syn8generics14WherePredicateNtNtBz_5token5CommaE8iter_mutCsiLWJ3muoyUj_10displaydoc, symObjAddr: 0x654, symBinAddr: 0x16D38, symSize: 0x28 }
  - { offset: 0x635AC, size: 0x8, addend: 0x0, symName: __RNvNtNtCs9f3LFPSIp77_4core4hash3sip9u8to64_leCsiLWJ3muoyUj_10displaydoc, symObjAddr: 0x790, symBinAddr: 0x16E74, symSize: 0x230 }
  - { offset: 0x6378B, size: 0x8, addend: 0x0, symName: __RNvXs3_NtNtCs9f3LFPSIp77_4core4hash3sipINtB5_6HasherNtB5_11Sip13RoundsENtB7_6Hasher5writeCsiLWJ3muoyUj_10displaydoc, symObjAddr: 0xC3C, symBinAddr: 0x17320, symSize: 0x230 }
  - { offset: 0x6392B, size: 0x8, addend: 0x0, symName: __RNvXs3_NtNtCs9f3LFPSIp77_4core4hash3sipINtB5_6HasherNtB5_11Sip13RoundsENtB7_6Hasher6finishCsiLWJ3muoyUj_10displaydoc, symObjAddr: 0xE6C, symBinAddr: 0x17550, symSize: 0xA0 }
  - { offset: 0x6399E, size: 0x8, addend: 0x0, symName: __RNvXs3_NtNtCs9f3LFPSIp77_4core4hash3sipINtB5_6HasherNtB5_11Sip13RoundsENtB7_6Hasher9write_strCsiLWJ3muoyUj_10displaydoc, symObjAddr: 0xF0C, symBinAddr: 0x175F0, symSize: 0x5C }
  - { offset: 0x63A04, size: 0x8, addend: 0x0, symName: __RNvXs6_NtNtCs9f3LFPSIp77_4core4hash3sipNtB5_11Sip13RoundsNtB5_3Sip8c_roundsCsiLWJ3muoyUj_10displaydoc, symObjAddr: 0xF68, symBinAddr: 0x1764C, symSize: 0x170 }
  - { offset: 0x63B7A, size: 0x8, addend: 0x0, symName: __RNvXs6_NtNtCs9f3LFPSIp77_4core4hash3sipNtB5_11Sip13RoundsNtB5_3Sip8d_roundsCsiLWJ3muoyUj_10displaydoc, symObjAddr: 0x10D8, symBinAddr: 0x177BC, symSize: 0x408 }
  - { offset: 0x63F71, size: 0x8, addend: 0x0, symName: __RNvXs2_NtNtCs9f3LFPSIp77_4core3str7patterncNtB5_7Pattern13into_searcherCsiLWJ3muoyUj_10displaydoc, symObjAddr: 0xB28, symBinAddr: 0x1720C, symSize: 0x114 }
  - { offset: 0x6408D, size: 0x8, addend: 0x0, symName: __RNvXs7_NtNtCs9f3LFPSIp77_4core3str7patternINtB5_18MultiCharEqPatternNCNvMB7_e4trim0ENtB5_7Pattern13into_searcherCsiLWJ3muoyUj_10displaydoc, symObjAddr: 0x14E0, symBinAddr: 0x17BC4, symSize: 0x90 }
  - { offset: 0x640EF, size: 0x8, addend: 0x0, symName: __RNvXs8_NtNtCs9f3LFPSIp77_4core3str7patternINtB5_19MultiCharEqSearcherNCNvMB7_e4trim0ENtB5_8Searcher4nextCsiLWJ3muoyUj_10displaydoc, symObjAddr: 0x15CC, symBinAddr: 0x17CB0, symSize: 0x1B0 }
  - { offset: 0x6430C, size: 0x8, addend: 0x0, symName: __RNvXs9_NtNtCs9f3LFPSIp77_4core3str7patternINtB5_19MultiCharEqSearcherNCNvMB7_e4trim0ENtB5_15ReverseSearcher9next_backCsiLWJ3muoyUj_10displaydoc, symObjAddr: 0x17C4, symBinAddr: 0x17EA8, symSize: 0x1B0 }
  - { offset: 0x64590, size: 0x8, addend: 0x0, symName: __RNvXs_NtNtCs9f3LFPSIp77_4core3str7patternNtB4_12CharSearcherNtB4_8Searcher10next_matchCsiLWJ3muoyUj_10displaydoc, symObjAddr: 0x1C5C, symBinAddr: 0x18340, symSize: 0x3CC }
  - { offset: 0x64B08, size: 0x8, addend: 0x0, symName: __RNvXs_NtNtCs9f3LFPSIp77_4core3str7patternNtB4_12CharSearcherNtB4_8Searcher4nextCsiLWJ3muoyUj_10displaydoc, symObjAddr: 0x2028, symBinAddr: 0x1870C, symSize: 0x264 }
  - { offset: 0x64F89, size: 0x8, addend: 0x0, symName: __RNvXs_NtNtCs9f3LFPSIp77_4core3str7patternNtB4_12CharSearcherNtB4_8Searcher8haystackCsiLWJ3muoyUj_10displaydoc, symObjAddr: 0x228C, symBinAddr: 0x18970, symSize: 0x20 }
  - { offset: 0x64FBD, size: 0x8, addend: 0x0, symName: __RNvXso_NtNtCs9f3LFPSIp77_4core3str7patternINtB5_21CharPredicateSearcherNCNvMB7_e4trim0ENtB5_8Searcher11next_rejectCsiLWJ3muoyUj_10displaydoc, symObjAddr: 0x2578, symBinAddr: 0x18C5C, symSize: 0x24 }
  - { offset: 0x64FFA, size: 0x8, addend: 0x0, symName: __RNvXsp_NtNtCs9f3LFPSIp77_4core3str7patternINtB5_21CharPredicateSearcherNCNvMB7_e4trim0ENtB5_15ReverseSearcher16next_reject_backCsiLWJ3muoyUj_10displaydoc, symObjAddr: 0x26B0, symBinAddr: 0x18D94, symSize: 0x24 }
  - { offset: 0x65061, size: 0x8, addend: 0x0, symName: __RNvXst_NtNtCs9f3LFPSIp77_4core3str7patternReNtB5_7Pattern15strip_suffix_ofCsiLWJ3muoyUj_10displaydoc, symObjAddr: 0x26D4, symBinAddr: 0x18DB8, symSize: 0xE0 }
  - { offset: 0x651A0, size: 0x8, addend: 0x0, symName: __RNvYINtNtNtCs9f3LFPSIp77_4core3str7pattern19MultiCharEqSearcherNCNvMB7_e4trim0ENtB5_15ReverseSearcher16next_reject_backCsiLWJ3muoyUj_10displaydoc, symObjAddr: 0x27B4, symBinAddr: 0x18E98, symSize: 0x90 }
  - { offset: 0x6520B, size: 0x8, addend: 0x0, symName: __RNvYINtNtNtCs9f3LFPSIp77_4core3str7pattern19MultiCharEqSearcherNCNvMB7_e4trim0ENtB5_8Searcher11next_rejectCsiLWJ3muoyUj_10displaydoc, symObjAddr: 0x2844, symBinAddr: 0x18F28, symSize: 0x90 }
  - { offset: 0x6526C, size: 0x8, addend: 0x0, symName: __RNvYNtNtNtCs9f3LFPSIp77_4core3str7pattern12CharSearcherNtB4_8Searcher11next_rejectCsiLWJ3muoyUj_10displaydoc, symObjAddr: 0x28D4, symBinAddr: 0x18FB8, symSize: 0x90 }
  - { offset: 0x65922, size: 0x8, addend: 0x0, symName: __RINvNtNtNtCsjLJ1XWNSM6u_10proc_macro6bridge6client5state3setINtNtCs9f3LFPSIp77_4core6option6OptionNtB4_11TokenStreamENCNCINvB4_10run_clientB1y_BW_NCNCINvMs7_B4_INtB4_6ClientNtB8_11TokenStreamB2L_E7expand1NvCsiLWJ3muoyUj_10displaydoc12derive_errorE00E00EB3i_, symObjAddr: 0x230, symBinAddr: 0x16914, symSize: 0x128 }
  - { offset: 0x65A20, size: 0x8, addend: 0x0, symName: __RNCNkNvNtNtNtCsjLJ1XWNSM6u_10proc_macro6bridge6client5state12BRIDGE_STATE0s_0CsiLWJ3muoyUj_10displaydoc, symObjAddr: 0x5F8, symBinAddr: 0x16CDC, symSize: 0x34 }
  - { offset: 0x65E92, size: 0x8, addend: 0x0, symName: __RINvNvNtNtCsjLJ1XWNSM6u_10proc_macro6bridge14selfless_reify31reify_to_extern_c_fn_hrt_bridge7wrapperNtNtB6_6buffer6BufferNCINvMs7_NtB6_6clientINtB24_6ClientNtB8_11TokenStreamB2u_E7expand1NvCsiLWJ3muoyUj_10displaydoc12derive_errorE0EB31_, symObjAddr: 0x420, symBinAddr: 0x16B04, symSize: 0x4C }
  - { offset: 0x65EF9, size: 0x8, addend: 0x0, symName: __RNvXNtNtCsjLJ1XWNSM6u_10proc_macro6bridge3rpcuINtB2_6EncodeuE6encodeCsiLWJ3muoyUj_10displaydoc, symObjAddr: 0x9DC, symBinAddr: 0x170C0, symSize: 0x14 }
  - { offset: 0x65F4E, size: 0x8, addend: 0x0, symName: __RNvXs7_NtNtCsjLJ1XWNSM6u_10proc_macro6bridge3rpcINtNtNtCs9f3LFPSIp77_4core3num7nonzero7NonZeromEINtB5_9DecodeMutuE6decodeCsiLWJ3muoyUj_10displaydoc, symObjAddr: 0x1570, symBinAddr: 0x17C54, symSize: 0x5C }
  - { offset: 0x66003, size: 0x8, addend: 0x0, symName: __RNvXsa_NtNtCsjLJ1XWNSM6u_10proc_macro6bridge3rpcRShINtB5_6EncodeuE6encodeCsiLWJ3muoyUj_10displaydoc, symObjAddr: 0x22F8, symBinAddr: 0x189DC, symSize: 0xD0 }
  - { offset: 0x6610E, size: 0x8, addend: 0x0, symName: __RNvXsc_NtNtCsjLJ1XWNSM6u_10proc_macro6bridge3rpcReINtB5_6EncodeuE6encodeCsiLWJ3muoyUj_10displaydoc, symObjAddr: 0x23C8, symBinAddr: 0x18AAC, symSize: 0x38 }
  - { offset: 0x661F6, size: 0x8, addend: 0x0, symName: __RNvXsl_NtNtCsjLJ1XWNSM6u_10proc_macro6bridge3rpcNtB5_12PanicMessageINtB5_6EncodeuE6encodeCsiLWJ3muoyUj_10displaydoc, symObjAddr: 0x2400, symBinAddr: 0x18AE4, symSize: 0x140 }
  - { offset: 0x6643E, size: 0x8, addend: 0x0, symName: __RNvXso_NtNtCsjLJ1XWNSM6u_10proc_macro6bridge3rpcmINtB5_9DecodeMutuE6decodeCsiLWJ3muoyUj_10displaydoc, symObjAddr: 0x259C, symBinAddr: 0x18C80, symSize: 0x114 }
  - { offset: 0x66E6D, size: 0x8, addend: 0x0, symName: __RINvCsATtFUPiRFW_3syn5parseNtNtB2_6derive11DeriveInputECsiLWJ3muoyUj_10displaydoc, symObjAddr: 0x0, symBinAddr: 0x166E4, symSize: 0x30 }
  - { offset: 0x6CC69, size: 0x8, addend: 0x0, symName: __RNvXs2_NtCsdze8u8oDPro_5alloc7raw_vecINtB5_6RawVecINtNtCs9f3LFPSIp77_4core6option6OptionNtNtCsiLWJ3muoyUj_10displaydoc4attr14VariantDisplayEENtNtNtBR_3ops4drop4Drop4dropB1s_, symObjAddr: 0xA5C, symBinAddr: 0x17140, symSize: 0x34 }
  - { offset: 0x6CCA5, size: 0x8, addend: 0x0, symName: __RNvXs2_NtCsdze8u8oDPro_5alloc7raw_vecINtB5_6RawVecNtCs475r2uZUTuc_11proc_macro211TokenStreamENtNtNtCs9f3LFPSIp77_4core3ops4drop4Drop4dropCsiLWJ3muoyUj_10displaydoc, symObjAddr: 0xA90, symBinAddr: 0x17174, symSize: 0x34 }
  - { offset: 0x6CCE1, size: 0x8, addend: 0x0, symName: __RNvXs2_NtCsdze8u8oDPro_5alloc7raw_vecINtB5_6RawVecNtNtCsATtFUPiRFW_3syn8generics10TraitBoundENtNtNtCs9f3LFPSIp77_4core3ops4drop4Drop4dropCsiLWJ3muoyUj_10displaydoc, symObjAddr: 0xAC4, symBinAddr: 0x171A8, symSize: 0x34 }
  - { offset: 0x6CD1D, size: 0x8, addend: 0x0, symName: __RNvXs2_NtCsdze8u8oDPro_5alloc7raw_vecINtB5_6RawVecRNtNtCsATtFUPiRFW_3syn8generics9TypeParamENtNtNtCs9f3LFPSIp77_4core3ops4drop4Drop4dropCsiLWJ3muoyUj_10displaydoc, symObjAddr: 0xAF8, symBinAddr: 0x171DC, symSize: 0x30 }
  - { offset: 0x6D80E, size: 0x8, addend: 0x0, symName: __RNvMs0_NtNtCs9f3LFPSIp77_4core4hash3sipINtB5_6HasherNtB5_11Sip13RoundsE5resetCsiLWJ3muoyUj_10displaydoc, symObjAddr: 0x67C, symBinAddr: 0x16D60, symSize: 0x8C }
  - { offset: 0x6D88B, size: 0x8, addend: 0x0, symName: __RNvMs1_NtCsdze8u8oDPro_5alloc7raw_vecINtB5_6RawVecNtNtCsATtFUPiRFW_3syn8generics10TraitBoundE8grow_oneCsiLWJ3muoyUj_10displaydoc, symObjAddr: 0x708, symBinAddr: 0x16DEC, symSize: 0x88 }
  - { offset: 0x6E054, size: 0x8, addend: 0x0, symName: __RINvMNtCs9f3LFPSIp77_4core3stre12trim_matchesNCNvB2_4trim0ECsiLWJ3muoyUj_10displaydoc, symObjAddr: 0x0, symBinAddr: 0x19048, symSize: 0x128 }
  - { offset: 0x6E076, size: 0x8, addend: 0x0, symName: ___rustc_proc_macro_decls_daaa2b788e2d08cd__, symObjAddr: 0x3CA0, symBinAddr: 0x3A8AD8, symSize: 0x0 }
  - { offset: 0x6E151, size: 0x8, addend: 0x0, symName: __RNvCsiLWJ3muoyUj_10displaydoc12derive_error, symObjAddr: 0x3394, symBinAddr: 0x1C180, symSize: 0x198 }
  - { offset: 0x6E1CB, size: 0x8, addend: 0x0, symName: __RNCNvCsiLWJ3muoyUj_10displaydoc12derive_error0B3_, symObjAddr: 0x352C, symBinAddr: 0x1C318, symSize: 0x64 }
  - { offset: 0x70BAC, size: 0x8, addend: 0x0, symName: __RNvNvMs3_NtCs9f3LFPSIp77_4core3numi13unchecked_neg18precondition_checkCsiLWJ3muoyUj_10displaydoc, symObjAddr: 0x1D90, symBinAddr: 0x1AB7C, symSize: 0x4C }
  - { offset: 0x70C74, size: 0x8, addend: 0x0, symName: __RNvNvMs9_NtCs9f3LFPSIp77_4core3numj13unchecked_add18precondition_checkCsiLWJ3muoyUj_10displaydoc, symObjAddr: 0x1DDC, symBinAddr: 0x1ABC8, symSize: 0x4C }
  - { offset: 0x721E4, size: 0x8, addend: 0x0, symName: __RNvXs5_NtNtCs9f3LFPSIp77_4core3str6traitsINtNtNtB9_3ops5range5RangejEINtNtNtB9_5slice5index10SliceIndexeE3getCsiLWJ3muoyUj_10displaydoc, symObjAddr: 0x26BC, symBinAddr: 0x1B4A8, symSize: 0x1D0 }
  - { offset: 0x724DC, size: 0x8, addend: 0x0, symName: __RNvXsb_NtNtCs9f3LFPSIp77_4core3str6traitsINtNtNtB9_3ops5range14RangeInclusivejEINtNtNtB9_5slice5index10SliceIndexeE5indexCsiLWJ3muoyUj_10displaydoc, symObjAddr: 0x3040, symBinAddr: 0x1BE2C, symSize: 0x110 }
  - { offset: 0x725AC, size: 0x8, addend: 0x0, symName: __RNvXsd_NtNtCs9f3LFPSIp77_4core3str6traitsINtNtNtB9_3ops5range16RangeToInclusivejEINtNtNtB9_5slice5index10SliceIndexeE5indexCsiLWJ3muoyUj_10displaydoc, symObjAddr: 0x3150, symBinAddr: 0x1BF3C, symSize: 0x48 }
  - { offset: 0x72642, size: 0x8, addend: 0x0, symName: __RINvMNtCs9f3LFPSIp77_4core3stre12trim_matchesNCNvB2_4trim0ECsiLWJ3muoyUj_10displaydoc, symObjAddr: 0x0, symBinAddr: 0x19048, symSize: 0x128 }
  - { offset: 0x7282F, size: 0x8, addend: 0x0, symName: __RINvMNtCs9f3LFPSIp77_4core3stre18trim_start_matchescECsiLWJ3muoyUj_10displaydoc, symObjAddr: 0x128, symBinAddr: 0x19170, symSize: 0xEC }
  - { offset: 0x729C4, size: 0x8, addend: 0x0, symName: __RNCNvMNtCs9f3LFPSIp77_4core3stre4trim0CsiLWJ3muoyUj_10displaydoc, symObjAddr: 0x112C, symBinAddr: 0x19F18, symSize: 0x94 }
  - { offset: 0x72A31, size: 0x8, addend: 0x0, symName: __RNvMNtCs9f3LFPSIp77_4core3stre12char_indicesCsiLWJ3muoyUj_10displaydoc, symObjAddr: 0x1260, symBinAddr: 0x1A04C, symSize: 0x3C }
  - { offset: 0x72A5F, size: 0x8, addend: 0x0, symName: __RNvMNtCs9f3LFPSIp77_4core3stre4trimCsiLWJ3muoyUj_10displaydoc, symObjAddr: 0x129C, symBinAddr: 0x1A088, symSize: 0x28 }
  - { offset: 0x72AAB, size: 0x8, addend: 0x0, symName: __RNvMNtCs9f3LFPSIp77_4core3stre5charsCsiLWJ3muoyUj_10displaydoc, symObjAddr: 0x12C4, symBinAddr: 0x1A0B0, symSize: 0x38 }
  - { offset: 0x72C0F, size: 0x8, addend: 0x0, symName: __RNvMNtCs9f3LFPSIp77_4core3stre5linesCsiLWJ3muoyUj_10displaydoc, symObjAddr: 0x12FC, symBinAddr: 0x1A0E8, symSize: 0xC4 }
  - { offset: 0x72E8C, size: 0x8, addend: 0x0, symName: __RNvXs3_NtNtCs9f3LFPSIp77_4core3str7patternNCNvMB7_e4trim0NtB5_11MultiCharEq7matchesCsiLWJ3muoyUj_10displaydoc, symObjAddr: 0x24C8, symBinAddr: 0x1B2B4, symSize: 0x28 }
  - { offset: 0x72ED8, size: 0x8, addend: 0x0, symName: __RNvXsr_NtNtCs9f3LFPSIp77_4core3str7patternNCNvMB7_e4trim0NtB5_7Pattern13into_searcherCsiLWJ3muoyUj_10displaydoc, symObjAddr: 0x326C, symBinAddr: 0x1C058, symSize: 0x48 }
  - { offset: 0x72F81, size: 0x8, addend: 0x0, symName: __RNvXs3_NtCs9f3LFPSIp77_4core3strNtB5_8LinesMapINtNtNtB7_3ops8function2FnTReEE4callCsiLWJ3muoyUj_10displaydoc, symObjAddr: 0x2330, symBinAddr: 0x1B11C, symSize: 0x17C }
  - { offset: 0x730AA, size: 0x8, addend: 0x0, symName: __RNvXs4_NtCs9f3LFPSIp77_4core3strNtB5_8LinesMapINtNtNtB7_3ops8function5FnMutTReEE8call_mutCsiLWJ3muoyUj_10displaydoc, symObjAddr: 0x2584, symBinAddr: 0x1B370, symSize: 0x3C }
  - { offset: 0x735B9, size: 0x8, addend: 0x0, symName: __RNvXs2_NtNtNtCs9f3LFPSIp77_4core3ops8function5implsQNtNtBb_3str8LinesMapINtB7_6FnOnceTReEE9call_onceCsiLWJ3muoyUj_10displaydoc, symObjAddr: 0x22FC, symBinAddr: 0x1B0E8, symSize: 0x34 }
  - { offset: 0x739EA, size: 0x8, addend: 0x0, symName: __RNvNvNtCs9f3LFPSIp77_4core4hint21unreachable_unchecked18precondition_checkCsiLWJ3muoyUj_10displaydoc, symObjAddr: 0x1E28, symBinAddr: 0x1AC14, symSize: 0x1C }
  - { offset: 0x73A0F, size: 0x8, addend: 0x0, symName: __RINvNtNtCs9f3LFPSIp77_4core4iter8adapters11try_processINtNtB2_3map3MapINtNtB2_3zip3ZipINtNtCsATtFUPiRFW_3syn10punctuated4IterNtNtB1r_4data7VariantEINtNtNtCsdze8u8oDPro_5alloc3vec9into_iter8IntoIterINtNtB6_6option6OptionNtNtCsiLWJ3muoyUj_10displaydoc4attr14VariantDisplayEEENCNvNtB3z_6expand9impl_enums_0ENtCs475r2uZUTuc_11proc_macro211TokenStreamINtNtB6_6result6ResultNtNtB6_7convert10InfallibleNtNtB1r_5error5ErrorENCINvXsn_B5B_IB5z_INtB2q_3VecB4S_EB6l_EINtNtNtB4_6traits7collect12FromIteratorIB5z_B4S_B6l_EE9from_iterBQ_E0B6Y_EB3z_, symObjAddr: 0x53C, symBinAddr: 0x19328, symSize: 0x19C }
  - { offset: 0x73AD6, size: 0x8, addend: 0x0, symName: __RINvNtNtCs9f3LFPSIp77_4core4iter8adapters11try_processINtNtB2_3map3MapINtNtCsATtFUPiRFW_3syn10punctuated4IterNtNtB1b_4data7VariantENCNvNtCsiLWJ3muoyUj_10displaydoc6expand9impl_enum0EINtNtB6_6option6OptionNtNtB2b_4attr14VariantDisplayEINtNtB6_6result6ResultNtNtB6_7convert10InfallibleNtNtB1b_5error5ErrorENCINvXsn_B3N_IB3L_INtNtCsdze8u8oDPro_5alloc3vec3VecB2U_EB4x_EINtNtNtB4_6traits7collect12FromIteratorIB3L_B2U_B4x_EE9from_iterBQ_E0B5a_EB2b_, symObjAddr: 0x6D8, symBinAddr: 0x194C4, symSize: 0x18C }
  - { offset: 0x73BA2, size: 0x8, addend: 0x0, symName: __RINvXNtNtCs9f3LFPSIp77_4core4iter8adaptersINtB3_12GenericShuntINtNtB3_3map3MapINtNtB3_3zip3ZipINtNtCsATtFUPiRFW_3syn10punctuated4IterNtNtB1z_4data7VariantEINtNtNtCsdze8u8oDPro_5alloc3vec9into_iter8IntoIterINtNtB7_6option6OptionNtNtCsiLWJ3muoyUj_10displaydoc4attr14VariantDisplayEEENCNvNtB3H_6expand9impl_enums_0EINtNtB7_6result6ResultNtNtB7_7convert10InfallibleNtNtB1z_5error5ErrorEENtNtNtB5_6traits8iterator8Iterator8try_folduNCINvNvB69_12try_for_each4callNtCs475r2uZUTuc_11proc_macro211TokenStreamINtNtNtB7_3ops12control_flow11ControlFlowB7l_ENcNtB81_5Break0E0B81_EB3H_, symObjAddr: 0xA98, symBinAddr: 0x19884, symSize: 0xA4 }
  - { offset: 0x73C58, size: 0x8, addend: 0x0, symName: __RINvXNtNtCs9f3LFPSIp77_4core4iter8adaptersINtB3_12GenericShuntINtNtB3_3map3MapINtNtCsATtFUPiRFW_3syn10punctuated4IterNtNtB1j_4data7VariantENCNvNtCsiLWJ3muoyUj_10displaydoc6expand9impl_enum0EINtNtB7_6result6ResultNtNtB7_7convert10InfallibleNtNtB1j_5error5ErrorEENtNtNtB5_6traits8iterator8Iterator8try_folduNCINvNvB4b_12try_for_each4callINtNtB7_6option6OptionNtNtB2j_4attr14VariantDisplayEINtNtNtB7_3ops12control_flow11ControlFlowB5n_ENcNtB6d_5Break0E0B6d_EB2j_, symObjAddr: 0xB3C, symBinAddr: 0x19928, symSize: 0xC0 }
  - { offset: 0x73D14, size: 0x8, addend: 0x0, symName: __RNCINvXNtNtCs9f3LFPSIp77_4core4iter8adaptersINtB5_12GenericShuntINtNtB5_3map3MapINtNtB5_3zip3ZipINtNtCsATtFUPiRFW_3syn10punctuated4IterNtNtB1B_4data7VariantEINtNtNtCsdze8u8oDPro_5alloc3vec9into_iter8IntoIterINtNtB9_6option6OptionNtNtCsiLWJ3muoyUj_10displaydoc4attr14VariantDisplayEEENCNvNtB3J_6expand9impl_enums_0EINtNtB9_6result6ResultNtNtB9_7convert10InfallibleNtNtB1B_5error5ErrorEENtNtNtB7_6traits8iterator8Iterator8try_folduNCINvNvB6b_12try_for_each4callNtCs475r2uZUTuc_11proc_macro211TokenStreamINtNtNtB9_3ops12control_flow11ControlFlowB7n_ENcNtB83_5Break0E0B83_E0B3J_, symObjAddr: 0xCB8, symBinAddr: 0x19AA4, symSize: 0x1EC }
  - { offset: 0x73E06, size: 0x8, addend: 0x0, symName: __RNCINvXNtNtCs9f3LFPSIp77_4core4iter8adaptersINtB5_12GenericShuntINtNtB5_3map3MapINtNtCsATtFUPiRFW_3syn10punctuated4IterNtNtB1l_4data7VariantENCNvNtCsiLWJ3muoyUj_10displaydoc6expand9impl_enum0EINtNtB9_6result6ResultNtNtB9_7convert10InfallibleNtNtB1l_5error5ErrorEENtNtNtB7_6traits8iterator8Iterator8try_folduNCINvNvB4d_12try_for_each4callINtNtB9_6option6OptionNtNtB2l_4attr14VariantDisplayEINtNtNtB9_3ops12control_flow11ControlFlowB5p_ENcNtB6f_5Break0E0B6f_E0B2l_, symObjAddr: 0xEA4, symBinAddr: 0x19C90, symSize: 0x204 }
  - { offset: 0x73EF9, size: 0x8, addend: 0x0, symName: __RNvXNtNtCs9f3LFPSIp77_4core4iter8adaptersINtB2_12GenericShuntINtNtB2_3map3MapINtNtB2_3zip3ZipINtNtCsATtFUPiRFW_3syn10punctuated4IterNtNtB1y_4data7VariantEINtNtNtCsdze8u8oDPro_5alloc3vec9into_iter8IntoIterINtNtB6_6option6OptionNtNtCsiLWJ3muoyUj_10displaydoc4attr14VariantDisplayEEENCNvNtB3G_6expand9impl_enums_0EINtNtB6_6result6ResultNtNtB6_7convert10InfallibleNtNtB1y_5error5ErrorEENtNtNtB4_6traits8iterator8Iterator4nextB3G_, symObjAddr: 0x1EE8, symBinAddr: 0x1ACD4, symSize: 0xA4 }
  - { offset: 0x73F87, size: 0x8, addend: 0x0, symName: __RNvXNtNtCs9f3LFPSIp77_4core4iter8adaptersINtB2_12GenericShuntINtNtB2_3map3MapINtNtB2_3zip3ZipINtNtCsATtFUPiRFW_3syn10punctuated4IterNtNtB1y_4data7VariantEINtNtNtCsdze8u8oDPro_5alloc3vec9into_iter8IntoIterINtNtB6_6option6OptionNtNtCsiLWJ3muoyUj_10displaydoc4attr14VariantDisplayEEENCNvNtB3G_6expand9impl_enums_0EINtNtB6_6result6ResultNtNtB6_7convert10InfallibleNtNtB1y_5error5ErrorEENtNtNtB4_6traits8iterator8Iterator9size_hintB3G_, symObjAddr: 0x1F8C, symBinAddr: 0x1AD78, symSize: 0xA8 }
  - { offset: 0x73FFF, size: 0x8, addend: 0x0, symName: __RNvXNtNtCs9f3LFPSIp77_4core4iter8adaptersINtB2_12GenericShuntINtNtB2_3map3MapINtNtCsATtFUPiRFW_3syn10punctuated4IterNtNtB1i_4data7VariantENCNvNtCsiLWJ3muoyUj_10displaydoc6expand9impl_enum0EINtNtB6_6result6ResultNtNtB6_7convert10InfallibleNtNtB1i_5error5ErrorEENtNtNtB4_6traits8iterator8Iterator4nextB2i_, symObjAddr: 0x2034, symBinAddr: 0x1AE20, symSize: 0xB8 }
  - { offset: 0x7408E, size: 0x8, addend: 0x0, symName: __RNvXNtNtCs9f3LFPSIp77_4core4iter8adaptersINtB2_12GenericShuntINtNtB2_3map3MapINtNtCsATtFUPiRFW_3syn10punctuated4IterNtNtB1i_4data7VariantENCNvNtCsiLWJ3muoyUj_10displaydoc6expand9impl_enum0EINtNtB6_6result6ResultNtNtB6_7convert10InfallibleNtNtB1i_5error5ErrorEENtNtNtB4_6traits8iterator8Iterator9size_hintB2i_, symObjAddr: 0x20EC, symBinAddr: 0x1AED8, symSize: 0xA8 }
  - { offset: 0x74338, size: 0x8, addend: 0x0, symName: __RNvXsh_NtNtNtCs9f3LFPSIp77_4core4iter8adapters7step_byINtNtNtBb_3ops5range5RangejEINtB5_14SpecRangeSetupBQ_E5setupCsiLWJ3muoyUj_10displaydoc, symObjAddr: 0x3198, symBinAddr: 0x1BF84, symSize: 0xD4 }
  - { offset: 0x74430, size: 0x8, addend: 0x0, symName: __RINvYINtNtNtCs9f3LFPSIp77_4core3ops5range5RangejENtNtNtNtBa_4iter6traits8iterator8Iterator3mapNtCs475r2uZUTuc_11proc_macro25IdentNCNCNvNtCsiLWJ3muoyUj_10displaydoc6expand11impl_struct0s_0EB2b_, symObjAddr: 0xC0C, symBinAddr: 0x199F8, symSize: 0x14 }
  - { offset: 0x74488, size: 0x8, addend: 0x0, symName: __RINvYINtNtNtCs9f3LFPSIp77_4core3ops5range5RangejENtNtNtNtBa_4iter6traits8iterator8Iterator3mapNtCs475r2uZUTuc_11proc_macro25IdentNCNCNvNtCsiLWJ3muoyUj_10displaydoc6expand9impl_enums_0s0_0EB2b_, symObjAddr: 0xC20, symBinAddr: 0x19A0C, symSize: 0x14 }
  - { offset: 0x745F2, size: 0x8, addend: 0x0, symName: __RNCINvXsK_NtNtNtCs9f3LFPSIp77_4core4iter6traits5accumjNtB8_3Sum3sumINtNtNtBc_8adapters3map3MapINtNtNtBe_5slice4iter4IterNtNtCsATtFUPiRFW_3syn4attr9AttributeENCINvNvXs1_NtB18_6filterINtB2G_6FilterppENtNtBa_8iterator8Iterator5count8to_usizeRB1U_NCNvMs0_NtCsiLWJ3muoyUj_10displaydoc4attrNtB41_11AttrsHelper7displays_0E0EE0B43_, symObjAddr: 0x10A8, symBinAddr: 0x19E94, symSize: 0x48 }
  - { offset: 0x74653, size: 0x8, addend: 0x0, symName: __RNvXs_NtNtNtCs9f3LFPSIp77_4core4iter6traits7collectINtNtB8_8adapters12GenericShuntINtNtBQ_3map3MapINtNtBQ_3zip3ZipINtNtCsATtFUPiRFW_3syn10punctuated4IterNtNtB1T_4data7VariantEINtNtNtCsdze8u8oDPro_5alloc3vec9into_iter8IntoIterINtNtBa_6option6OptionNtNtCsiLWJ3muoyUj_10displaydoc4attr14VariantDisplayEEENCNvNtB41_6expand9impl_enums_0EINtNtBa_6result6ResultNtNtBa_7convert10InfallibleNtNtB1T_5error5ErrorEENtB4_12IntoIterator9into_iterB41_, symObjAddr: 0x2FE0, symBinAddr: 0x1BDCC, symSize: 0x30 }
  - { offset: 0x7468B, size: 0x8, addend: 0x0, symName: __RNvXs_NtNtNtCs9f3LFPSIp77_4core4iter6traits7collectINtNtB8_8adapters12GenericShuntINtNtBQ_3map3MapINtNtCsATtFUPiRFW_3syn10punctuated4IterNtNtB1D_4data7VariantENCNvNtCsiLWJ3muoyUj_10displaydoc6expand9impl_enum0EINtNtBa_6result6ResultNtNtBa_7convert10InfallibleNtNtB1D_5error5ErrorEENtB4_12IntoIterator9into_iterB2D_, symObjAddr: 0x3010, symBinAddr: 0x1BDFC, symSize: 0x30 }
  - { offset: 0x746D0, size: 0x8, addend: 0x0, symName: __RNvXs3_NtNtCs9f3LFPSIp77_4core4iter5rangeINtNtNtB9_3ops5range5RangejENtB5_17RangeIteratorImpl9spec_nextCsiLWJ3muoyUj_10displaydoc, symObjAddr: 0x24F0, symBinAddr: 0x1B2DC, symSize: 0x94 }
  - { offset: 0x74751, size: 0x8, addend: 0x0, symName: __RNvXs4_NtNtCs9f3LFPSIp77_4core4iter5rangeINtNtNtB9_3ops5range5RangejENtNtNtB7_6traits8iterator8Iterator4nextCsiLWJ3muoyUj_10displaydoc, symObjAddr: 0x25C0, symBinAddr: 0x1B3AC, symSize: 0x24 }
  - { offset: 0x74788, size: 0x8, addend: 0x0, symName: __RNvXs4_NtNtCs9f3LFPSIp77_4core4iter5rangeINtNtNtB9_3ops5range5RangejENtNtNtB7_6traits8iterator8Iterator9size_hintCsiLWJ3muoyUj_10displaydoc, symObjAddr: 0x25E4, symBinAddr: 0x1B3D0, symSize: 0xD8 }
  - { offset: 0x74835, size: 0x8, addend: 0x0, symName: __RNvXsF_NtNtCs9f3LFPSIp77_4core4iter5rangejNtB5_4Step13steps_betweenCsiLWJ3muoyUj_10displaydoc, symObjAddr: 0x2DD8, symBinAddr: 0x1BBC4, symSize: 0x7C }
  - { offset: 0x74872, size: 0x8, addend: 0x0, symName: __RNvXsF_NtNtCs9f3LFPSIp77_4core4iter5rangejNtB5_4Step17forward_uncheckedCsiLWJ3muoyUj_10displaydoc, symObjAddr: 0x2E54, symBinAddr: 0x1BC40, symSize: 0x48 }
  - { offset: 0x748DE, size: 0x8, addend: 0x0, symName: __RINvYNtNtNtCs27l1GJC5rMQ_3std4hash6random11RandomStateNtNtCs9f3LFPSIp77_4core4hash11BuildHasher8hash_oneRNtCs475r2uZUTuc_11proc_macro25IdentECsiLWJ3muoyUj_10displaydoc, symObjAddr: 0xC34, symBinAddr: 0x19A20, symSize: 0x84 }
  - { offset: 0x74CDB, size: 0x8, addend: 0x0, symName: __RNvNtNtCs9f3LFPSIp77_4core5slice6memchr6memchrCsiLWJ3muoyUj_10displaydoc, symObjAddr: 0x1674, symBinAddr: 0x1A460, symSize: 0x114 }
  - { offset: 0x74E4A, size: 0x8, addend: 0x0, symName: __RNvXs5_NtNtCs9f3LFPSIp77_4core5slice5indexINtNtNtB9_3ops5range9RangeFromjEINtB5_10SliceIndexSReE5indexCsiLWJ3muoyUj_10displaydoc, symObjAddr: 0x288C, symBinAddr: 0x1B678, symSize: 0x90 }
  - { offset: 0x75B72, size: 0x8, addend: 0x0, symName: __RNCNvXs1_NtNtNtCs27l1GJC5rMQ_3std2io5error14repr_bitpackedNtB7_4ReprNtNtNtCs9f3LFPSIp77_4core3ops4drop4Drop4drop0CsiLWJ3muoyUj_10displaydoc, symObjAddr: 0x122C, symBinAddr: 0x1A018, symSize: 0x34 }
  - { offset: 0x75C27, size: 0x8, addend: 0x0, symName: __RNvXs1_NtNtNtCs27l1GJC5rMQ_3std2io5error14repr_bitpackedNtB5_4ReprNtNtNtCs9f3LFPSIp77_4core3ops4drop4Drop4dropCsiLWJ3muoyUj_10displaydoc, symObjAddr: 0x2260, symBinAddr: 0x1B04C, symSize: 0x38 }
  - { offset: 0x75C50, size: 0x8, addend: 0x0, symName: __RINvNtNtNtCs27l1GJC5rMQ_3std2io5error14repr_bitpacked11decode_reprINtNtCsdze8u8oDPro_5alloc5boxed3BoxNtB4_6CustomENCNvXs1_B2_NtB2_4ReprNtNtNtCs9f3LFPSIp77_4core3ops4drop4Drop4drop0ECsiLWJ3muoyUj_10displaydoc, symObjAddr: 0x864, symBinAddr: 0x19650, symSize: 0x234 }
  - { offset: 0x75F19, size: 0x8, addend: 0x0, symName: __RNvNtNtNtCs27l1GJC5rMQ_3std2io5error14repr_bitpacked14kind_from_primCsiLWJ3muoyUj_10displaydoc, symObjAddr: 0x1788, symBinAddr: 0x1A574, symSize: 0x608 }
  - { offset: 0x76956, size: 0x8, addend: 0x0, symName: __RINvXNtNtNtNtCs27l1GJC5rMQ_3std3sys12thread_local6native4lazyzNtB3_14DestroyedState13register_dtorINtNtCs9f3LFPSIp77_4core4cell4CellTyyEEECsiLWJ3muoyUj_10displaydoc, symObjAddr: 0xBFC, symBinAddr: 0x199E8, symSize: 0x10 }
  - { offset: 0x769A6, size: 0x8, addend: 0x0, symName: __RNCNkNvNvMNtNtCs27l1GJC5rMQ_3std4hash6randomNtB8_11RandomState3new4KEYS0s_0CsiLWJ3muoyUj_10displaydoc, symObjAddr: 0x10F0, symBinAddr: 0x19EDC, symSize: 0x3C }
  - { offset: 0x769E4, size: 0x8, addend: 0x0, symName: __RNvNvNvMNtNtCs27l1GJC5rMQ_3std4hash6randomNtB6_11RandomState3new4KEYS6___initCsiLWJ3muoyUj_10displaydoc, symObjAddr: 0x1E44, symBinAddr: 0x1AC30, symSize: 0x24 }
  - { offset: 0x76A02, size: 0x8, addend: 0x0, symName: __RNCNvMNtNtCs27l1GJC5rMQ_3std4hash6randomNtB4_11RandomState3new0CsiLWJ3muoyUj_10displaydoc, symObjAddr: 0x11C0, symBinAddr: 0x19FAC, symSize: 0x6C }
  - { offset: 0x76B99, size: 0x8, addend: 0x0, symName: __RNvXs2_NtNtCs27l1GJC5rMQ_3std4hash6randomNtB5_13DefaultHasherNtNtCs9f3LFPSIp77_4core4hash6Hasher6finishCsiLWJ3muoyUj_10displaydoc, symObjAddr: 0x2298, symBinAddr: 0x1B084, symSize: 0x2C }
  - { offset: 0x76BE2, size: 0x8, addend: 0x0, symName: __RNvXs2_NtNtCs27l1GJC5rMQ_3std4hash6randomNtB5_13DefaultHasherNtNtCs9f3LFPSIp77_4core4hash6Hasher9write_strCsiLWJ3muoyUj_10displaydoc, symObjAddr: 0x22C4, symBinAddr: 0x1B0B0, symSize: 0x38 }
  - { offset: 0x76C73, size: 0x8, addend: 0x0, symName: __RNvXs3_NtNtCs27l1GJC5rMQ_3std4hash6randomNtB5_11RandomStateNtNtCs9f3LFPSIp77_4core7default7Default7defaultCsiLWJ3muoyUj_10displaydoc, symObjAddr: 0x24AC, symBinAddr: 0x1B298, symSize: 0x1C }
  - { offset: 0x76CAB, size: 0x8, addend: 0x0, symName: __RNvXs_NtNtCs27l1GJC5rMQ_3std4hash6randomNtB4_11RandomStateNtNtCs9f3LFPSIp77_4core4hash11BuildHasher12build_hasherCsiLWJ3muoyUj_10displaydoc, symObjAddr: 0x2F14, symBinAddr: 0x1BD00, symSize: 0xCC }
  - { offset: 0x76EFE, size: 0x8, addend: 0x0, symName: __RINvMs0_NtNtNtNtCs27l1GJC5rMQ_3std3sys12thread_local6native4lazyINtB6_7StorageINtNtCs9f3LFPSIp77_4core4cell4CellTyyEEzE10initializeNvNvNvMNtNtBe_4hash6randomNtB2c_11RandomState3new4KEYS6___initECsiLWJ3muoyUj_10displaydoc, symObjAddr: 0x214, symBinAddr: 0x28D234, symSize: 0x25C }
  - { offset: 0x7717F, size: 0x8, addend: 0x0, symName: __RINvMs0_NtNtNtNtCs27l1GJC5rMQ_3std3sys12thread_local6native4lazyINtB6_7StorageINtNtCs9f3LFPSIp77_4core4cell4CellTyyEEzE11get_or_initNvNvNvMNtNtBe_4hash6randomNtB2d_11RandomState3new4KEYS6___initECsiLWJ3muoyUj_10displaydoc, symObjAddr: 0x470, symBinAddr: 0x1925C, symSize: 0xCC }
  - { offset: 0x78280, size: 0x8, addend: 0x0, symName: __RNvXs19_NtCsdze8u8oDPro_5alloc5boxedINtB6_3BoxNtNtCsATtFUPiRFW_3syn8generics14WherePredicateEINtNtCs9f3LFPSIp77_4core7convert5AsMutBI_E6as_mutCsiLWJ3muoyUj_10displaydoc, symObjAddr: 0x2248, symBinAddr: 0x1B034, symSize: 0x18 }
  - { offset: 0x782C6, size: 0x8, addend: 0x0, symName: __RNvXs6_NtCsdze8u8oDPro_5alloc5boxedINtB5_3BoxDNtNtCs9f3LFPSIp77_4core5error5ErrorNtNtBM_6marker4SendNtB1j_4SyncEL_ENtNtNtBM_3ops4drop4Drop4dropCsiLWJ3muoyUj_10displaydoc, symObjAddr: 0x291C, symBinAddr: 0x1B708, symSize: 0xC4 }
  - { offset: 0x78444, size: 0x8, addend: 0x0, symName: __RNvXs6_NtCsdze8u8oDPro_5alloc5boxedINtB5_3BoxINtNtCsATtFUPiRFW_3syn5drops6NoDropDINtNtBM_10punctuated12IterMutTraitNtNtBM_8generics14WherePredicateEp4ItemQB1P_EL_EENtNtNtCs9f3LFPSIp77_4core3ops4drop4Drop4dropCsiLWJ3muoyUj_10displaydoc, symObjAddr: 0x29E0, symBinAddr: 0x1B7CC, symSize: 0x118 }
  - { offset: 0x785C2, size: 0x8, addend: 0x0, symName: __RNvXs6_NtCsdze8u8oDPro_5alloc5boxedINtB5_3BoxINtNtCsATtFUPiRFW_3syn5drops6NoDropDINtNtBM_10punctuated9IterTraitNtNtBM_4data7VariantEp4ItemRB1L_EL_EENtNtNtCs9f3LFPSIp77_4core3ops4drop4Drop4dropCsiLWJ3muoyUj_10displaydoc, symObjAddr: 0x2AF8, symBinAddr: 0x1B8E4, symSize: 0x118 }
  - { offset: 0x78740, size: 0x8, addend: 0x0, symName: __RNvXs6_NtCsdze8u8oDPro_5alloc5boxedINtB5_3BoxINtNtCsATtFUPiRFW_3syn5drops6NoDropDINtNtBM_10punctuated9IterTraitNtNtBM_8generics14WherePredicateEp4ItemRB1L_EL_EENtNtNtCs9f3LFPSIp77_4core3ops4drop4Drop4dropCsiLWJ3muoyUj_10displaydoc, symObjAddr: 0x2C10, symBinAddr: 0x1B9FC, symSize: 0x118 }
  - { offset: 0x788BE, size: 0x8, addend: 0x0, symName: __RNvXs6_NtCsdze8u8oDPro_5alloc5boxedINtB5_3BoxNtNtNtCs27l1GJC5rMQ_3std2io5error6CustomENtNtNtCs9f3LFPSIp77_4core3ops4drop4Drop4dropCsiLWJ3muoyUj_10displaydoc, symObjAddr: 0x2D28, symBinAddr: 0x1BB14, symSize: 0xB0 }
  - { offset: 0x7D85E, size: 0x8, addend: 0x0, symName: __RNvXs0_NtCsATtFUPiRFW_3syn5dropsINtB5_6NoDropDINtNtB7_10punctuated12IterMutTraitNtNtB7_8generics14WherePredicateEp4ItemQB1g_EL_ENtNtNtCs9f3LFPSIp77_4core3ops5deref8DerefMut9deref_mutCsiLWJ3muoyUj_10displaydoc, symObjAddr: 0x2194, symBinAddr: 0x1AF80, symSize: 0x3C }
  - { offset: 0x7D893, size: 0x8, addend: 0x0, symName: __RNvXs0_NtCsATtFUPiRFW_3syn5dropsINtB5_6NoDropDINtNtB7_10punctuated9IterTraitNtNtB7_4data7VariantEp4ItemRB1c_EL_ENtNtNtCs9f3LFPSIp77_4core3ops5deref8DerefMut9deref_mutCsiLWJ3muoyUj_10displaydoc, symObjAddr: 0x21D0, symBinAddr: 0x1AFBC, symSize: 0x3C }
  - { offset: 0x7D8C8, size: 0x8, addend: 0x0, symName: __RNvXs0_NtCsATtFUPiRFW_3syn5dropsINtB5_6NoDropDINtNtB7_10punctuated9IterTraitNtNtB7_8generics14WherePredicateEp4ItemRB1c_EL_ENtNtNtCs9f3LFPSIp77_4core3ops5deref8DerefMut9deref_mutCsiLWJ3muoyUj_10displaydoc, symObjAddr: 0x220C, symBinAddr: 0x1AFF8, symSize: 0x3C }
  - { offset: 0x7D93F, size: 0x8, addend: 0x0, symName: __RNvXs_NtCsATtFUPiRFW_3syn5dropsINtB4_6NoDropDINtNtB6_10punctuated9IterTraitNtNtB6_4data7VariantEp4ItemRB1b_EL_ENtNtNtCs9f3LFPSIp77_4core3ops5deref5Deref5derefCsiLWJ3muoyUj_10displaydoc, symObjAddr: 0x2E9C, symBinAddr: 0x1BC88, symSize: 0x3C }
  - { offset: 0x7D974, size: 0x8, addend: 0x0, symName: __RNvXs_NtCsATtFUPiRFW_3syn5dropsINtB4_6NoDropDINtNtB6_10punctuated9IterTraitNtNtB6_8generics14TypeParamBoundEp4ItemRB1b_EL_ENtNtNtCs9f3LFPSIp77_4core3ops5deref5Deref5derefCsiLWJ3muoyUj_10displaydoc, symObjAddr: 0x2ED8, symBinAddr: 0x1BCC4, symSize: 0x3C }
  - { offset: 0x7E320, size: 0x8, addend: 0x0, symName: __RNvMNtCsATtFUPiRFW_3syn5dropsINtB2_6NoDropINtNtB4_10punctuated11PrivateIterNtNtB4_4data7VariantNtNtB4_5token5CommaEE3newCsiLWJ3muoyUj_10displaydoc, symObjAddr: 0x13C0, symBinAddr: 0x1A1AC, symSize: 0x40 }
  - { offset: 0x7E3AA, size: 0x8, addend: 0x0, symName: __RNvMNtCsATtFUPiRFW_3syn5dropsINtB2_6NoDropINtNtB4_10punctuated11PrivateIterNtNtB4_8generics14WherePredicateNtNtB4_5token5CommaEE3newCsiLWJ3muoyUj_10displaydoc, symObjAddr: 0x1400, symBinAddr: 0x1A1EC, symSize: 0x40 }
  - { offset: 0x7E434, size: 0x8, addend: 0x0, symName: __RNvMNtCsATtFUPiRFW_3syn5dropsINtB2_6NoDropINtNtB4_10punctuated14PrivateIterMutNtNtB4_8generics14WherePredicateNtNtB4_5token5CommaEE3newCsiLWJ3muoyUj_10displaydoc, symObjAddr: 0x1440, symBinAddr: 0x1A22C, symSize: 0x40 }
  - { offset: 0x7E506, size: 0x8, addend: 0x0, symName: __RNvXNtCs62MdaZFMefA_5quote9to_tokensRNtNtCsATtFUPiRFW_3syn3lit6LitStrNtB2_8ToTokens9to_tokensCsiLWJ3muoyUj_10displaydoc, symObjAddr: 0x1E68, symBinAddr: 0x1AC54, symSize: 0x40 }
  - { offset: 0x7E545, size: 0x8, addend: 0x0, symName: __RNvXNtCs62MdaZFMefA_5quote9to_tokensRNtNtCsATtFUPiRFW_3syn6derive11DeriveInputNtB2_8ToTokens9to_tokensCsiLWJ3muoyUj_10displaydoc, symObjAddr: 0x1EA8, symBinAddr: 0x1AC94, symSize: 0x40 }
  - { offset: 0x7E58A, size: 0x8, addend: 0x0, symName: __RNvYRNtNtCsATtFUPiRFW_3syn6derive11DeriveInputNtNtCs62MdaZFMefA_5quote9to_tokens8ToTokens15to_token_streamCsiLWJ3muoyUj_10displaydoc, symObjAddr: 0x32B4, symBinAddr: 0x1C0A0, symSize: 0x8C }
  - { offset: 0x7E5D4, size: 0x8, addend: 0x0, symName: __RNvYRNtNtCsATtFUPiRFW_3syn6derive11DeriveInputNtNtCs62MdaZFMefA_5quote9to_tokens8ToTokens17into_token_streamCsiLWJ3muoyUj_10displaydoc, symObjAddr: 0x3340, symBinAddr: 0x1C12C, symSize: 0x54 }
  - { offset: 0x7E60C, size: 0x8, addend: 0x0, symName: __RNvMNtNtCs62MdaZFMefA_5quote9___private8get_spanINtB2_7GetSpanNtCs475r2uZUTuc_11proc_macro24SpanE11___into_spanCsiLWJ3muoyUj_10displaydoc, symObjAddr: 0x1480, symBinAddr: 0x1A26C, symSize: 0x20 }
  - { offset: 0x7E6D6, size: 0x8, addend: 0x0, symName: __RNvMNtNtCscXJUXcj6jCz_9hashbrown3raw4neonNtB2_5Group10match_byteCsiLWJ3muoyUj_10displaydoc, symObjAddr: 0x14A0, symBinAddr: 0x1A28C, symSize: 0x7C }
  - { offset: 0x7E724, size: 0x8, addend: 0x0, symName: __RNvMNtNtCscXJUXcj6jCz_9hashbrown3raw4neonNtB2_5Group10match_fullCsiLWJ3muoyUj_10displaydoc, symObjAddr: 0x151C, symBinAddr: 0x1A308, symSize: 0x68 }
  - { offset: 0x7E75C, size: 0x8, addend: 0x0, symName: __RNvMNtNtCscXJUXcj6jCz_9hashbrown3raw4neonNtB2_5Group22match_empty_or_deletedCsiLWJ3muoyUj_10displaydoc, symObjAddr: 0x1584, symBinAddr: 0x1A370, symSize: 0x68 }
  - { offset: 0x7E794, size: 0x8, addend: 0x0, symName: __RNvMNtNtCscXJUXcj6jCz_9hashbrown3raw4neonNtB2_5Group44convert_special_to_empty_and_full_to_deletedCsiLWJ3muoyUj_10displaydoc, symObjAddr: 0x15EC, symBinAddr: 0x1A3D8, symSize: 0x88 }
  - { offset: 0x7F39B, size: 0x8, addend: 0x0, symName: __RINvMs2_NtNtCs27l1GJC5rMQ_3std6thread5localINtB6_8LocalKeyINtNtCs9f3LFPSIp77_4core4cell4CellPuEE8try_withNCNvMs3_B6_BF_7replace0B1s_ECsiLWJ3muoyUj_10displaydoc, symObjAddr: 0x0, symBinAddr: 0x1C37C, symSize: 0xE8 }
  - { offset: 0x7F711, size: 0x8, addend: 0x0, symName: __RNvXs5_NtNtCsjLJ1XWNSM6u_10proc_macro6bridge6bufferNtB5_6BufferNtNtNtCs9f3LFPSIp77_4core3ops4drop4Drop4dropCsiLWJ3muoyUj_10displaydoc, symObjAddr: 0x2324, symBinAddr: 0x1E6A0, symSize: 0x138 }
  - { offset: 0x7FB44, size: 0x8, addend: 0x0, symName: __RNCINvNtNtCsjLJ1XWNSM6u_10proc_macro6bridge6client10run_clientNtB4_11TokenStreamINtNtCs9f3LFPSIp77_4core6option6OptionBY_ENCNCINvMs7_B4_INtB4_6ClientNtB8_11TokenStreamB2n_E7expand1NvCsiLWJ3muoyUj_10displaydoc12derive_errorE00E0B2U_, symObjAddr: 0xB34, symBinAddr: 0x1CEB0, symSize: 0x3DC }
  - { offset: 0x800A3, size: 0x8, addend: 0x0, symName: __RNCNCINvNtNtCsjLJ1XWNSM6u_10proc_macro6bridge6client10run_clientNtB6_11TokenStreamINtNtCs9f3LFPSIp77_4core6option6OptionB10_ENCNCINvMs7_B6_INtB6_6ClientNtBa_11TokenStreamB2q_E7expand1NvCsiLWJ3muoyUj_10displaydoc12derive_errorE00E00B2X_, symObjAddr: 0xFA4, symBinAddr: 0x1D320, symSize: 0x28 }
  - { offset: 0x80120, size: 0x8, addend: 0x0, symName: __RNCNCINvMs7_NtNtCsjLJ1XWNSM6u_10proc_macro6bridge6clientINtBa_6ClientNtBe_11TokenStreamB15_E7expand1NvCsiLWJ3muoyUj_10displaydoc12derive_errorE00B1C_, symObjAddr: 0xF74, symBinAddr: 0x1D2F0, symSize: 0x30 }
  - { offset: 0x80168, size: 0x8, addend: 0x0, symName: __RNCINvMs7_NtNtCsjLJ1XWNSM6u_10proc_macro6bridge6clientINtB8_6ClientNtBc_11TokenStreamB13_E7expand1NvCsiLWJ3muoyUj_10displaydoc12derive_errorE0B1A_, symObjAddr: 0xA98, symBinAddr: 0x1CE14, symSize: 0x30 }
  - { offset: 0x801D3, size: 0x8, addend: 0x0, symName: __RINvNtNtCsjLJ1XWNSM6u_10proc_macro6bridge6client10run_clientNtB2_11TokenStreamINtNtCs9f3LFPSIp77_4core6option6OptionBW_ENCNCINvMs7_B2_INtB2_6ClientNtB6_11TokenStreamB2l_E7expand1NvCsiLWJ3muoyUj_10displaydoc12derive_errorE00EB2S_, symObjAddr: 0x640, symBinAddr: 0x1C9BC, symSize: 0x21C }
  - { offset: 0x8042D, size: 0x8, addend: 0x0, symName: __RNvXsh_NtNtCsjLJ1XWNSM6u_10proc_macro6bridge6clientNtB5_11TokenStreamINtNtB7_3rpc6EncodeuE6encodeCsiLWJ3muoyUj_10displaydoc, symObjAddr: 0x27A4, symBinAddr: 0x1EB20, symSize: 0x50 }
  - { offset: 0x80547, size: 0x8, addend: 0x0, symName: __RNvXsk_NtNtCsjLJ1XWNSM6u_10proc_macro6bridge6clientNtB5_11TokenStreamINtNtB7_3rpc9DecodeMutuE6decodeCsiLWJ3muoyUj_10displaydoc, symObjAddr: 0x27F4, symBinAddr: 0x1EB70, symSize: 0x2C }
  - { offset: 0x80590, size: 0x8, addend: 0x0, symName: __RNvXsr_NtNtCsjLJ1XWNSM6u_10proc_macro6bridge6clientNtB5_4SpanINtNtB7_3rpc9DecodeMutuE6decodeCsiLWJ3muoyUj_10displaydoc, symObjAddr: 0x2820, symBinAddr: 0x1EB9C, symSize: 0x2C }
  - { offset: 0x8104E, size: 0x8, addend: 0x0, symName: __RINvXs4_Cs475r2uZUTuc_11proc_macro2NtB6_11TokenStreamINtNtNtNtCs9f3LFPSIp77_4core4iter6traits7collect6ExtendNtB6_9TokenTreeE6extendBx_ECsiLWJ3muoyUj_10displaydoc, symObjAddr: 0x99C, symBinAddr: 0x1CD18, symSize: 0x34 }
  - { offset: 0x81097, size: 0x8, addend: 0x0, symName: __RINvXsz_Cs475r2uZUTuc_11proc_macro2NtB6_5IdentNtNtCs9f3LFPSIp77_4core4hash4Hash4hashNtNtNtCs27l1GJC5rMQ_3std4hash6random13DefaultHasherECsiLWJ3muoyUj_10displaydoc, symObjAddr: 0x9D0, symBinAddr: 0x1CD4C, symSize: 0x84 }
  - { offset: 0x810DF, size: 0x8, addend: 0x0, symName: __RNvXsG_Cs475r2uZUTuc_11proc_macro2NtB5_11TokenStreamNtNtCs9f3LFPSIp77_4core5clone5Clone5cloneCsiLWJ3muoyUj_10displaydoc, symObjAddr: 0x24C8, symBinAddr: 0x1E844, symSize: 0x78 }
  - { offset: 0x81111, size: 0x8, addend: 0x0, symName: __RNvXsY_Cs475r2uZUTuc_11proc_macro2NtB5_5IdentNtNtCs9f3LFPSIp77_4core5clone5Clone5cloneCsiLWJ3muoyUj_10displaydoc, symObjAddr: 0x265C, symBinAddr: 0x1E9D8, symSize: 0x78 }
  - { offset: 0x8497B, size: 0x8, addend: 0x0, symName: __RNvXs1_NtCs9f3LFPSIp77_4core7convertNtCs475r2uZUTuc_11proc_macro211TokenStreamINtB5_4IntoNtCsjLJ1XWNSM6u_10proc_macro11TokenStreamE4intoCsiLWJ3muoyUj_10displaydoc, symObjAddr: 0x200C, symBinAddr: 0x1E388, symSize: 0x14 }
  - { offset: 0x854EE, size: 0x8, addend: 0x0, symName: __RNvMNtCs9f3LFPSIp77_4core5sliceSNtCs475r2uZUTuc_11proc_macro211TokenStream4iterCsiLWJ3muoyUj_10displaydoc, symObjAddr: 0x1010, symBinAddr: 0x1D38C, symSize: 0x28 }
  - { offset: 0x85806, size: 0x8, addend: 0x0, symName: __RINvXs3_NtNtCs9f3LFPSIp77_4core4hash5implsRNtCs475r2uZUTuc_11proc_macro25IdentNtB8_4Hash4hashNtNtNtCs27l1GJC5rMQ_3std4hash6random13DefaultHasherECsiLWJ3muoyUj_10displaydoc, symObjAddr: 0x96C, symBinAddr: 0x1CCE8, symSize: 0x30 }
  - { offset: 0x8592A, size: 0x8, addend: 0x0, symName: __RINvYINtNtNtNtCs9f3LFPSIp77_4core4iter8adapters6cloned6ClonedINtNtB8_7flatten7FlatMapINtNtCsATtFUPiRFW_3syn10punctuated4IterNtNtB1q_8generics14TypeParamBoundEINtNtBc_6option6OptionRNtB20_10TraitBoundENCNCNvNtCsiLWJ3muoyUj_10displaydoc6expand37extract_trait_constraints_from_source00EENtNtNtBa_6traits8iterator8Iterator7collectINtNtCsdze8u8oDPro_5alloc3vec3VecB2T_EEB3k_, symObjAddr: 0xA54, symBinAddr: 0x1CDD0, symSize: 0x14 }
  - { offset: 0x8596B, size: 0x8, addend: 0x0, symName: __RINvYNtNtNtCs9f3LFPSIp77_4core3str4iter5LinesNtNtNtNtB9_4iter6traits8iterator8Iterator3mapReNCNvMs0_NtCsiLWJ3muoyUj_10displaydoc4attrNtB1A_11AttrsHelper7displays0_0EB1C_, symObjAddr: 0xA68, symBinAddr: 0x1CDE4, symSize: 0x30 }
  - { offset: 0x85A1B, size: 0x8, addend: 0x0, symName: __RNvXs_NtNtNtCs9f3LFPSIp77_4core4iter6traits7collectINtNtNtB8_8adapters6cloned6ClonedINtNtBS_7flatten7FlatMapINtNtCsATtFUPiRFW_3syn10punctuated4IterNtNtB1N_8generics14TypeParamBoundEINtNtBa_6option6OptionRNtB2n_10TraitBoundENCNCNvNtCsiLWJ3muoyUj_10displaydoc6expand37extract_trait_constraints_from_source00EENtB4_12IntoIterator9into_iterB3H_, symObjAddr: 0x26D4, symBinAddr: 0x1EA50, symSize: 0x30 }
  - { offset: 0x85BFF, size: 0x8, addend: 0x0, symName: __RNvXs_NtNtNtCs9f3LFPSIp77_4core4iter8adapters6clonedINtB4_6ClonedINtNtB6_7flatten7FlatMapINtNtCsATtFUPiRFW_3syn10punctuated4IterNtNtB1u_8generics14TypeParamBoundEINtNtBa_6option6OptionRNtB24_10TraitBoundENCNCNvNtCsiLWJ3muoyUj_10displaydoc6expand37extract_trait_constraints_from_source00EENtNtNtB8_6traits8iterator8Iterator4nextB3o_, symObjAddr: 0x2704, symBinAddr: 0x1EA80, symSize: 0x7C }
  - { offset: 0x85C70, size: 0x8, addend: 0x0, symName: __RNvXs_NtNtNtCs9f3LFPSIp77_4core4iter8adapters6clonedINtB4_6ClonedINtNtB6_7flatten7FlatMapINtNtCsATtFUPiRFW_3syn10punctuated4IterNtNtB1u_8generics14TypeParamBoundEINtNtBa_6option6OptionRNtB24_10TraitBoundENCNCNvNtCsiLWJ3muoyUj_10displaydoc6expand37extract_trait_constraints_from_source00EENtNtNtB8_6traits8iterator8Iterator9size_hintB3o_, symObjAddr: 0x2780, symBinAddr: 0x1EAFC, symSize: 0x24 }
  - { offset: 0x85E5D, size: 0x8, addend: 0x0, symName: __RNvXNtNtCs9f3LFPSIp77_4core3str4iterNtB2_5CharsNtNtNtNtB6_4iter6traits8iterator8Iterator4nextCsiLWJ3muoyUj_10displaydoc, symObjAddr: 0x1F9C, symBinAddr: 0x1E318, symSize: 0x70 }
  - { offset: 0x85F2B, size: 0x8, addend: 0x0, symName: __RNvXs3_NtNtCs9f3LFPSIp77_4core3str4iterNtB5_11CharIndicesNtNtNtNtB9_4iter6traits8iterator8Iterator4nextCsiLWJ3muoyUj_10displaydoc, symObjAddr: 0x2020, symBinAddr: 0x1E39C, symSize: 0x194 }
  - { offset: 0x8625F, size: 0x8, addend: 0x0, symName: __RNvXs4_NtNtCs9f3LFPSIp77_4core3str4iterNtB5_11CharIndicesNtNtNtNtB9_4iter6traits12double_ended19DoubleEndedIterator9next_backCsiLWJ3muoyUj_10displaydoc, symObjAddr: 0x21B4, symBinAddr: 0x1E530, symSize: 0x170 }
  - { offset: 0x86431, size: 0x8, addend: 0x0, symName: __RNvXsH_NtNtCs9f3LFPSIp77_4core3str4iterINtB5_14SplitInclusivecENtNtNtNtB9_4iter6traits8iterator8Iterator4nextCsiLWJ3muoyUj_10displaydoc, symObjAddr: 0x2540, symBinAddr: 0x1E8BC, symSize: 0x24 }
  - { offset: 0x8646E, size: 0x8, addend: 0x0, symName: __RNvXss_NtNtCs9f3LFPSIp77_4core3str4iterNtB5_5LinesNtNtNtNtB9_4iter6traits8iterator8Iterator4nextCsiLWJ3muoyUj_10displaydoc, symObjAddr: 0x284C, symBinAddr: 0x1EBC8, symSize: 0x24 }
  - { offset: 0x8649C, size: 0x8, addend: 0x0, symName: __RNvXss_NtNtCs9f3LFPSIp77_4core3str4iterNtB5_5LinesNtNtNtNtB9_4iter6traits8iterator8Iterator9size_hintCsiLWJ3muoyUj_10displaydoc, symObjAddr: 0x2870, symBinAddr: 0x1EBEC, symSize: 0x44 }
  - { offset: 0x8665B, size: 0x8, addend: 0x0, symName: __RNvNtNtCs9f3LFPSIp77_4core4char7methods15encode_utf8_rawCsiLWJ3muoyUj_10displaydoc, symObjAddr: 0x1930, symBinAddr: 0x1DCAC, symSize: 0x21C }
  - { offset: 0x86872, size: 0x8, addend: 0x0, symName: __RNvNvNtNtCs9f3LFPSIp77_4core4char7convert18from_u32_unchecked18precondition_checkCsiLWJ3muoyUj_10displaydoc, symObjAddr: 0x1DA8, symBinAddr: 0x1E124, symSize: 0x98 }
  - { offset: 0x86957, size: 0x8, addend: 0x0, symName: __RNvNtNtNtCs9f3LFPSIp77_4core7unicode12unicode_data11white_space6lookupCsiLWJ3muoyUj_10displaydoc, symObjAddr: 0x1B4C, symBinAddr: 0x1DEC8, symSize: 0x14C }
  - { offset: 0x8699C, size: 0x8, addend: 0x0, symName: __RNvNtNtNtNtCs9f3LFPSIp77_4core9core_arch10arm_shared4neon9generated18vreinterpret_s8_u8CsiLWJ3muoyUj_10displaydoc, symObjAddr: 0x1C98, symBinAddr: 0x1E014, symSize: 0xC }
  - { offset: 0x869CA, size: 0x8, addend: 0x0, symName: __RNvNtNtNtNtCs9f3LFPSIp77_4core9core_arch10arm_shared4neon9generated19vreinterpret_u64_u8CsiLWJ3muoyUj_10displaydoc, symObjAddr: 0x1CA4, symBinAddr: 0x1E020, symSize: 0xC }
  - { offset: 0x869F8, size: 0x8, addend: 0x0, symName: __RNvNtNtNtNtCs9f3LFPSIp77_4core9core_arch10arm_shared4neon9generated7vceq_u8CsiLWJ3muoyUj_10displaydoc, symObjAddr: 0x1CB0, symBinAddr: 0x1E02C, symSize: 0x14 }
  - { offset: 0x86A35, size: 0x8, addend: 0x0, symName: __RNvNtNtNtNtCs9f3LFPSIp77_4core9core_arch10arm_shared4neon9generated7vorr_u8CsiLWJ3muoyUj_10displaydoc, symObjAddr: 0x1CC4, symBinAddr: 0x1E040, symSize: 0x14 }
  - { offset: 0x86B16, size: 0x8, addend: 0x0, symName: __RNvNtNtNtNtCs9f3LFPSIp77_4core9core_arch7aarch644neon9generated8vcgez_s8CsiLWJ3muoyUj_10displaydoc, symObjAddr: 0x1CD8, symBinAddr: 0x1E054, symSize: 0x68 }
  - { offset: 0x86BB8, size: 0x8, addend: 0x0, symName: __RNvNtNtNtNtCs9f3LFPSIp77_4core9core_arch7aarch644neon9generated8vcltz_s8CsiLWJ3muoyUj_10displaydoc, symObjAddr: 0x1D40, symBinAddr: 0x1E0BC, symSize: 0x68 }
  - { offset: 0x86CB6, size: 0x8, addend: 0x0, symName: __RNvXNtCs9f3LFPSIp77_4core6borrowNtCs475r2uZUTuc_11proc_macro25IdentINtB2_6BorrowBu_E6borrowCsiLWJ3muoyUj_10displaydoc, symObjAddr: 0x1F88, symBinAddr: 0x1E304, symSize: 0x14 }
  - { offset: 0x86DDF, size: 0x8, addend: 0x0, symName: __RNCNvMs3_NtNtCs27l1GJC5rMQ_3std6thread5localINtB7_8LocalKeyINtNtCs9f3LFPSIp77_4core4cell4CellPuEE7replace0CsiLWJ3muoyUj_10displaydoc, symObjAddr: 0xFCC, symBinAddr: 0x1D348, symSize: 0x44 }
  - { offset: 0x8710B, size: 0x8, addend: 0x0, symName: __RINvMs2_NtNtCs27l1GJC5rMQ_3std6thread5localINtB6_8LocalKeyINtNtCs9f3LFPSIp77_4core4cell4CellPuEE8try_withNCNvMs3_B6_BF_7replace0B1s_ECsiLWJ3muoyUj_10displaydoc, symObjAddr: 0x0, symBinAddr: 0x1C37C, symSize: 0xE8 }
  - { offset: 0x872BB, size: 0x8, addend: 0x0, symName: __RINvMs2_NtNtCs27l1GJC5rMQ_3std6thread5localINtB6_8LocalKeyINtNtCs9f3LFPSIp77_4core4cell4CellTyyEEE4withNCNvMNtNtBa_4hash6randomNtB1I_11RandomState3new0B21_ECsiLWJ3muoyUj_10displaydoc, symObjAddr: 0xE8, symBinAddr: 0x1C464, symSize: 0x4C }
  - { offset: 0x87355, size: 0x8, addend: 0x0, symName: __RINvMs2_NtNtCs27l1GJC5rMQ_3std6thread5localINtB6_8LocalKeyINtNtCs9f3LFPSIp77_4core4cell4CellTyyEEE8try_withNCNvMNtNtBa_4hash6randomNtB1M_11RandomState3new0B25_ECsiLWJ3muoyUj_10displaydoc, symObjAddr: 0x134, symBinAddr: 0x1C4B0, symSize: 0xEC }
  - { offset: 0x88694, size: 0x8, addend: 0x0, symName: __RINvMs3_NtNtCsjLJ1XWNSM6u_10proc_macro6bridge6bufferNtB6_6Buffer17extend_from_arrayKj4_ECsiLWJ3muoyUj_10displaydoc, symObjAddr: 0x220, symBinAddr: 0x1C59C, symSize: 0x210 }
  - { offset: 0x88D06, size: 0x8, addend: 0x0, symName: __RINvMs3_NtNtCsjLJ1XWNSM6u_10proc_macro6bridge6bufferNtB6_6Buffer17extend_from_arrayKj8_ECsiLWJ3muoyUj_10displaydoc, symObjAddr: 0x430, symBinAddr: 0x1C7AC, symSize: 0x210 }
  - { offset: 0x894EB, size: 0x8, addend: 0x0, symName: __RINvXs1i_NtCscXJUXcj6jCz_9hashbrown3mapINtB7_7HashMapNtCs475r2uZUTuc_11proc_macro25IdentINtNtCsdze8u8oDPro_5alloc3vec3VecNtNtCsATtFUPiRFW_3syn8generics10TraitBoundENtNtNtCs27l1GJC5rMQ_3std4hash6random11RandomStateEINtNtNtNtCs9f3LFPSIp77_4core4iter6traits7collect6ExtendTBP_B1o_EE6extendINtNtNtB3x_8adapters3map3MapINtNtNtB3z_5slice4iter4IterRNtB1X_9TypeParamENCNvNtCsiLWJ3muoyUj_10displaydoc6expand37extract_trait_constraints_from_source0EEB5R_, symObjAddr: 0x85C, symBinAddr: 0x1CBD8, symSize: 0x110 }
  - { offset: 0x89602, size: 0x8, addend: 0x0, symName: __RNCINvXs1i_NtCscXJUXcj6jCz_9hashbrown3mapINtB9_7HashMapNtCs475r2uZUTuc_11proc_macro25IdentINtNtCsdze8u8oDPro_5alloc3vec3VecNtNtCsATtFUPiRFW_3syn8generics10TraitBoundENtNtNtCs27l1GJC5rMQ_3std4hash6random11RandomStateEINtNtNtNtCs9f3LFPSIp77_4core4iter6traits7collect6ExtendTBR_B1q_EE6extendINtNtNtB3z_8adapters3map3MapINtNtNtB3B_5slice4iter4IterRNtB1Z_9TypeParamENCNvNtCsiLWJ3muoyUj_10displaydoc6expand37extract_trait_constraints_from_source0EE0B5T_, symObjAddr: 0xF10, symBinAddr: 0x1D28C, symSize: 0x64 }
  - { offset: 0x896D5, size: 0x8, addend: 0x0, symName: __RNCINvNtCscXJUXcj6jCz_9hashbrown3map11make_hasherNtCs475r2uZUTuc_11proc_macro25IdentINtNtCsdze8u8oDPro_5alloc3vec3VecNtNtCsATtFUPiRFW_3syn8generics10TraitBoundENtNtNtCs27l1GJC5rMQ_3std4hash6random11RandomStateE0CsiLWJ3muoyUj_10displaydoc, symObjAddr: 0xAC8, symBinAddr: 0x1CE44, symSize: 0x3C }
  - { offset: 0x89757, size: 0x8, addend: 0x0, symName: __RNCINvNtCscXJUXcj6jCz_9hashbrown3map14equivalent_keyNtCs475r2uZUTuc_11proc_macro25IdentBO_INtNtCsdze8u8oDPro_5alloc3vec3VecNtNtCsATtFUPiRFW_3syn8generics10TraitBoundEE0CsiLWJ3muoyUj_10displaydoc, symObjAddr: 0xB04, symBinAddr: 0x1CE80, symSize: 0x30 }
  - { offset: 0x89820, size: 0x8, addend: 0x0, symName: __RNvXsE_NtCscXJUXcj6jCz_9hashbrown3mapINtB5_7HashMapNtCs475r2uZUTuc_11proc_macro25IdentINtNtCsdze8u8oDPro_5alloc3vec3VecNtNtCsATtFUPiRFW_3syn8generics10TraitBoundENtNtNtCs27l1GJC5rMQ_3std4hash6random11RandomStateENtNtNtNtCs9f3LFPSIp77_4core4iter6traits7collect12IntoIterator9into_iterCsiLWJ3muoyUj_10displaydoc, symObjAddr: 0x245C, symBinAddr: 0x1E7D8, symSize: 0x6C }
  - { offset: 0x89879, size: 0x8, addend: 0x0, symName: __RNvXsK_NtCscXJUXcj6jCz_9hashbrown3mapINtB5_7IterMutNtCs475r2uZUTuc_11proc_macro25IdentINtNtCsdze8u8oDPro_5alloc3vec3VecNtNtCsATtFUPiRFW_3syn8generics10TraitBoundEENtNtNtNtCs9f3LFPSIp77_4core4iter6traits8iterator8Iterator4nextCsiLWJ3muoyUj_10displaydoc, symObjAddr: 0x2564, symBinAddr: 0x1E8E0, symSize: 0xF8 }
  - { offset: 0x89CAD, size: 0x8, addend: 0x0, symName: __RNvXCscXJUXcj6jCz_9hashbrownNtCs475r2uZUTuc_11proc_macro25IdentINtB2_10EquivalentBq_E10equivalentCsiLWJ3muoyUj_10displaydoc, symObjAddr: 0x1E40, symBinAddr: 0x1E1BC, symSize: 0x50 }
  - { offset: 0x8EFC0, size: 0x8, addend: 0x0, symName: __RNvNtCsiLWJ3muoyUj_10displaydoc3fmt8take_int, symObjAddr: 0x28B4, symBinAddr: 0x1EC30, symSize: 0x230 }
  - { offset: 0x8F03B, size: 0x8, addend: 0x0, symName: __RNvNtCsiLWJ3muoyUj_10displaydoc3fmt10take_ident, symObjAddr: 0x2AE4, symBinAddr: 0x1EE60, symSize: 0x2E0 }
  - { offset: 0x8F463, size: 0x8, addend: 0x0, symName: __RNvMNtNtNtCs9f3LFPSIp77_4core4iter8adapters7step_byINtB2_6StepByINtNtNtB8_3ops5range5RangejEE3newCsiLWJ3muoyUj_10displaydoc, symObjAddr: 0x1038, symBinAddr: 0x1D3B4, symSize: 0xE0 }
  - { offset: 0x8F603, size: 0x8, addend: 0x0, symName: __RNvMs0_NtCscXJUXcj6jCz_9hashbrown3mapINtB5_7HashMapNtCs475r2uZUTuc_11proc_macro25IdentINtNtCsdze8u8oDPro_5alloc3vec3VecNtNtCsATtFUPiRFW_3syn8generics10TraitBoundENtNtNtCs27l1GJC5rMQ_3std4hash6random11RandomStateE8iter_mutCsiLWJ3muoyUj_10displaydoc, symObjAddr: 0x1118, symBinAddr: 0x1D494, symSize: 0xC8 }
  - { offset: 0x8F83E, size: 0x8, addend: 0x0, symName: __RNvMs1_NtCscXJUXcj6jCz_9hashbrown3mapINtB5_7HashMapNtCs475r2uZUTuc_11proc_macro25IdentINtNtCsdze8u8oDPro_5alloc3vec3VecNtNtCsATtFUPiRFW_3syn8generics10TraitBoundENtNtNtCs27l1GJC5rMQ_3std4hash6random11RandomStateE6insertCsiLWJ3muoyUj_10displaydoc, symObjAddr: 0x11E0, symBinAddr: 0x1D55C, symSize: 0x234 }
  - { offset: 0x8FC62, size: 0x8, addend: 0x0, symName: __RNvMs3_NtNtCsjLJ1XWNSM6u_10proc_macro6bridge6bufferNtB5_6Buffer17extend_from_sliceCsiLWJ3muoyUj_10displaydoc, symObjAddr: 0x1414, symBinAddr: 0x1D790, symSize: 0x208 }
  - { offset: 0x902CC, size: 0x8, addend: 0x0, symName: __RNvMs3_NtNtCsjLJ1XWNSM6u_10proc_macro6bridge6bufferNtB5_6Buffer4pushCsiLWJ3muoyUj_10displaydoc, symObjAddr: 0x161C, symBinAddr: 0x1D998, symSize: 0x1E0 }
  - { offset: 0x90666, size: 0x8, addend: 0x0, symName: __RNvMsa_NtNtCsjLJ1XWNSM6u_10proc_macro6bridge6clientNtB5_14HandleCounters3getCsiLWJ3muoyUj_10displaydoc, symObjAddr: 0x17FC, symBinAddr: 0x1DB78, symSize: 0xC }
  - { offset: 0x906A4, size: 0x8, addend: 0x0, symName: __RNvMsf_NtNtCs9f3LFPSIp77_4core3str4iterINtB5_13SplitInternalcE14next_inclusiveCsiLWJ3muoyUj_10displaydoc, symObjAddr: 0x1808, symBinAddr: 0x1DB84, symSize: 0x128 }
  - { offset: 0x908AE, size: 0x8, addend: 0x0, symName: __RNvXNtCs62MdaZFMefA_5quote14ident_fragmentRjNtB2_13IdentFragment3fmtCsiLWJ3muoyUj_10displaydoc, symObjAddr: 0x1E90, symBinAddr: 0x1E20C, symSize: 0x40 }
  - { offset: 0x908F1, size: 0x8, addend: 0x0, symName: __RNvXNtCs62MdaZFMefA_5quote14ident_fragmentRjNtB2_13IdentFragment4spanCsiLWJ3muoyUj_10displaydoc, symObjAddr: 0x1ED0, symBinAddr: 0x1E24C, symSize: 0x38 }
  - { offset: 0x90932, size: 0x8, addend: 0x0, symName: __RNvXNtCs62MdaZFMefA_5quote9to_tokensRNtCs475r2uZUTuc_11proc_macro211TokenStreamNtB2_8ToTokens9to_tokensCsiLWJ3muoyUj_10displaydoc, symObjAddr: 0x1F08, symBinAddr: 0x1E284, symSize: 0x40 }
  - { offset: 0x90971, size: 0x8, addend: 0x0, symName: __RNvXNtCs62MdaZFMefA_5quote9to_tokensRNtCs475r2uZUTuc_11proc_macro25IdentNtB2_8ToTokens9to_tokensCsiLWJ3muoyUj_10displaydoc, symObjAddr: 0x1F48, symBinAddr: 0x1E2C4, symSize: 0x40 }
  - { offset: 0x910AD, size: 0x8, addend: 0x0, symName: __RINvMs_NtCsdze8u8oDPro_5alloc3vecINtB5_3VecReE10retain_mutNCNvMNtCsATtFUPiRFW_3syn9lookaheadNtBZ_10Lookahead15error0EB11_, symObjAddr: 0x0, symBinAddr: 0x1F1A8, symSize: 0xE4 }
  - { offset: 0x91E1F, size: 0x8, addend: 0x0, symName: __RNvXsP_NtCs9f3LFPSIp77_4core3fmtRINtNtCsdze8u8oDPro_5alloc3vec3VecNtNtCsATtFUPiRFW_3syn4item4ItemENtB5_5Debug3fmtB16_, symObjAddr: 0x9934, symBinAddr: 0x28ADC, symSize: 0x30 }
  - { offset: 0x91E65, size: 0x8, addend: 0x0, symName: __RNvXsP_NtCs9f3LFPSIp77_4core3fmtRINtNtCsdze8u8oDPro_5alloc3vec3VechENtB5_5Debug3fmtCsATtFUPiRFW_3syn, symObjAddr: 0x9964, symBinAddr: 0x28B0C, symSize: 0x30 }
  - { offset: 0x9FEBA, size: 0x8, addend: 0x0, symName: __RNvXs1_NtCs9f3LFPSIp77_4core7convertINtNtCsdze8u8oDPro_5alloc3vec3VechEINtB5_4IntoBy_E4intoCsATtFUPiRFW_3syn, symObjAddr: 0x82EC, symBinAddr: 0x27494, symSize: 0x18 }
  - { offset: 0xA00FC, size: 0x8, addend: 0x0, symName: __RINvNvMs_NtCsdze8u8oDPro_5alloc3vecINtB7_3VecppE10retain_mut12process_loopNCNvMNtCsATtFUPiRFW_3syn9lookaheadNtB1f_10Lookahead15error0ReNtNtB9_5alloc6GlobalKb0_EB1h_, symObjAddr: 0xCE0, symBinAddr: 0x1FE88, symSize: 0xE4 }
  - { offset: 0xA02AE, size: 0x8, addend: 0x0, symName: __RINvNvMs_NtCsdze8u8oDPro_5alloc3vecINtB7_3VecppE10retain_mut12process_loopNCNvMNtCsATtFUPiRFW_3syn9lookaheadNtB1f_10Lookahead15error0ReNtNtB9_5alloc6GlobalKb1_EB1h_, symObjAddr: 0xDC4, symBinAddr: 0x1FF6C, symSize: 0x1B0 }
  - { offset: 0xA0567, size: 0x8, addend: 0x0, symName: __RNvXNvMs_NtCsdze8u8oDPro_5alloc3vecINtB7_3VecppE10retain_mutINtB2_15BackshiftOnDropReNtNtB9_5alloc6GlobalENtNtNtCs9f3LFPSIp77_4core3ops4drop4Drop4dropCsATtFUPiRFW_3syn, symObjAddr: 0x7F00, symBinAddr: 0x270A8, symSize: 0x134 }
  - { offset: 0xA3748, size: 0x8, addend: 0x0, symName: __RINvXsd_NtCsdze8u8oDPro_5alloc3vecINtB6_3VecNtCs475r2uZUTuc_11proc_macro29TokenTreeEINtNtNtNtCs9f3LFPSIp77_4core4iter6traits7collect12FromIteratorBG_E9from_iterNtNtBI_12token_stream8IntoIterECsATtFUPiRFW_3syn, symObjAddr: 0xF74, symBinAddr: 0x2011C, symSize: 0x34 }
  - { offset: 0xA378F, size: 0x8, addend: 0x0, symName: __RINvXsh_NtCsdze8u8oDPro_5alloc3vecINtB6_3VecNtCs475r2uZUTuc_11proc_macro29TokenTreeEINtNtNtNtCs9f3LFPSIp77_4core4iter6traits7collect6ExtendBG_E6extendINtNtNtB1r_8adapters7flatten7FlattenINtNtB2t_3map3MapIB2Z_IB2Z_INtNtNtB1t_5slice4iter4IterNtNtCsATtFUPiRFW_3syn5error12ErrorMessageENvMs_B3S_B3Q_16to_compile_errorENCINvXs7_BI_NtBI_11TokenStreamINtB1n_12FromIteratorB5e_E9from_iterB3k_E0ENCINvXs6_NtBI_3impNtB6m_11TokenStreamIB5x_B6v_E9from_iterB3f_Es_0EEEB3U_, symObjAddr: 0xFA8, symBinAddr: 0x20150, symSize: 0x40 }
  - { offset: 0xA37E4, size: 0x8, addend: 0x0, symName: __RINvXsh_NtCsdze8u8oDPro_5alloc3vecINtB6_3VecNtNtCsATtFUPiRFW_3syn4attr9AttributeEINtNtNtNtCs9f3LFPSIp77_4core4iter6traits7collect6ExtendBG_E6extendBw_EBK_, symObjAddr: 0xFE8, symBinAddr: 0x20190, symSize: 0x40 }
  - { offset: 0xA3839, size: 0x8, addend: 0x0, symName: __RINvXsh_NtCsdze8u8oDPro_5alloc3vecINtB6_3VecNtNtCsATtFUPiRFW_3syn4data5FieldEINtNtNtNtCs9f3LFPSIp77_4core4iter6traits7collect6ExtendBG_E6extendINtNtB1m_6option6OptionBG_EEBK_, symObjAddr: 0x1028, symBinAddr: 0x201D0, symSize: 0x48 }
  - { offset: 0xA388E, size: 0x8, addend: 0x0, symName: __RINvXsh_NtCsdze8u8oDPro_5alloc3vecINtB6_3VecNtNtCsATtFUPiRFW_3syn4data5FieldEINtNtNtNtCs9f3LFPSIp77_4core4iter6traits7collect6ExtendBG_E6extendINtNtNtB1k_8adapters3map3MapINtNtB6_9into_iter8IntoIterTBG_NtNtBK_5token5CommaEENCNvXs8_NtBK_10punctuatedINtB3H_10PunctuatedBG_B3e_ENtB1g_12IntoIterator9into_iter0EEBK_, symObjAddr: 0x1070, symBinAddr: 0x20218, symSize: 0x40 }
  - { offset: 0xA38E3, size: 0x8, addend: 0x0, symName: __RINvXsh_NtCsdze8u8oDPro_5alloc3vecINtB6_3VecNtNtCsATtFUPiRFW_3syn4data5FieldEINtNtNtNtCs9f3LFPSIp77_4core4iter6traits7collect6ExtendBG_E6extendINtNtNtB1k_8adapters3map3MapINtNtB6_9into_iter8IntoIterTBG_uEENCNvXs8_NtBK_10punctuatedINtB3p_10PunctuatedBG_uENtB1g_12IntoIterator9into_iter0EEBK_, symObjAddr: 0x10B0, symBinAddr: 0x20258, symSize: 0x40 }
  - { offset: 0xA3938, size: 0x8, addend: 0x0, symName: __RINvXsh_NtCsdze8u8oDPro_5alloc3vecINtB6_3VecNtNtCsATtFUPiRFW_3syn5error12ErrorMessageEINtNtNtNtCs9f3LFPSIp77_4core4iter6traits7collect6ExtendBG_E6extendBw_EBK_, symObjAddr: 0x10F0, symBinAddr: 0x20298, symSize: 0x40 }
  - { offset: 0xA398D, size: 0x8, addend: 0x0, symName: __RINvXsh_NtCsdze8u8oDPro_5alloc3vecINtB6_3VecNtNtCsATtFUPiRFW_3syn8generics14TypeParamBoundEINtNtNtNtCs9f3LFPSIp77_4core4iter6traits7collect6ExtendBG_E6extendINtNtB1A_6option6OptionBG_EEBK_, symObjAddr: 0x1130, symBinAddr: 0x202D8, symSize: 0x40 }
  - { offset: 0xA39E2, size: 0x8, addend: 0x0, symName: __RINvXsh_NtCsdze8u8oDPro_5alloc3vecINtB6_3VecNtNtCsATtFUPiRFW_3syn8generics14TypeParamBoundEINtNtNtNtCs9f3LFPSIp77_4core4iter6traits7collect6ExtendBG_E6extendINtNtNtB1y_8adapters3map3MapINtNtB6_9into_iter8IntoIterTBG_NtNtBK_5token4PlusEENCNvXs8_NtBK_10punctuatedINtB3U_10PunctuatedBG_B3s_ENtB1u_12IntoIterator9into_iter0EEBK_, symObjAddr: 0x1170, symBinAddr: 0x20318, symSize: 0x40 }
  - { offset: 0xA3A42, size: 0x8, addend: 0x0, symName: __RNCINvMsi_NtCsdze8u8oDPro_5alloc3vecINtB8_3VecNtNtCsATtFUPiRFW_3syn4data5FieldE14extend_trustedINtNtCs9f3LFPSIp77_4core6option8IntoIterBI_EE0BM_, symObjAddr: 0x11B0, symBinAddr: 0x20358, symSize: 0x78 }
  - { offset: 0xA3B35, size: 0x8, addend: 0x0, symName: __RNCINvMsi_NtCsdze8u8oDPro_5alloc3vecINtB8_3VecNtNtCsATtFUPiRFW_3syn4data5FieldE14extend_trustedINtNtNtNtCs9f3LFPSIp77_4core4iter8adapters3map3MapINtNtB8_9into_iter8IntoIterTBI_NtNtBM_5token5CommaEENCNvXs8_NtBM_10punctuatedINtB3h_10PunctuatedBI_B2O_ENtNtNtB1C_6traits7collect12IntoIterator9into_iter0EE0BM_, symObjAddr: 0x1228, symBinAddr: 0x203D0, symSize: 0x78 }
  - { offset: 0xA3C28, size: 0x8, addend: 0x0, symName: __RNCINvMsi_NtCsdze8u8oDPro_5alloc3vecINtB8_3VecNtNtCsATtFUPiRFW_3syn4data5FieldE14extend_trustedINtNtNtNtCs9f3LFPSIp77_4core4iter8adapters3map3MapINtNtB8_9into_iter8IntoIterTBI_uEENCNvXs8_NtBM_10punctuatedINtB2Z_10PunctuatedBI_uENtNtNtB1C_6traits7collect12IntoIterator9into_iter0EE0BM_, symObjAddr: 0x12A0, symBinAddr: 0x20448, symSize: 0x78 }
  - { offset: 0xA3D1B, size: 0x8, addend: 0x0, symName: __RNCINvMsi_NtCsdze8u8oDPro_5alloc3vecINtB8_3VecNtNtCsATtFUPiRFW_3syn8generics14TypeParamBoundE14extend_trustedINtNtCs9f3LFPSIp77_4core6option8IntoIterBI_EE0BM_, symObjAddr: 0x1318, symBinAddr: 0x204C0, symSize: 0x78 }
  - { offset: 0xA3E0E, size: 0x8, addend: 0x0, symName: __RNCINvMsi_NtCsdze8u8oDPro_5alloc3vecINtB8_3VecNtNtCsATtFUPiRFW_3syn8generics14TypeParamBoundE14extend_trustedINtNtNtNtCs9f3LFPSIp77_4core4iter8adapters3map3MapINtNtB8_9into_iter8IntoIterTBI_NtNtBM_5token4PlusEENCNvXs8_NtBM_10punctuatedINtB3u_10PunctuatedBI_B32_ENtNtNtB1Q_6traits7collect12IntoIterator9into_iter0EE0BM_, symObjAddr: 0x1390, symBinAddr: 0x20538, symSize: 0x78 }
  - { offset: 0xA43E7, size: 0x8, addend: 0x0, symName: __RNvXNtNtCsdze8u8oDPro_5alloc3vec10partial_eqINtB4_3VecNtNtCsATtFUPiRFW_3syn4attr9AttributeENtNtCs9f3LFPSIp77_4core3cmp9PartialEq2eqBU_, symObjAddr: 0x7034, symBinAddr: 0x261DC, symSize: 0x7C }
  - { offset: 0xA446A, size: 0x8, addend: 0x0, symName: __RNvXNtNtCsdze8u8oDPro_5alloc3vec10partial_eqINtB4_3VecNtNtCsATtFUPiRFW_3syn4expr3ArmENtNtCs9f3LFPSIp77_4core3cmp9PartialEq2eqBU_, symObjAddr: 0x70B0, symBinAddr: 0x26258, symSize: 0x7C }
  - { offset: 0xA44ED, size: 0x8, addend: 0x0, symName: __RNvXNtNtCsdze8u8oDPro_5alloc3vec10partial_eqINtB4_3VecNtNtCsATtFUPiRFW_3syn4item11ForeignItemENtNtCs9f3LFPSIp77_4core3cmp9PartialEq2eqBU_, symObjAddr: 0x712C, symBinAddr: 0x262D4, symSize: 0x7C }
  - { offset: 0xA4570, size: 0x8, addend: 0x0, symName: __RNvXNtNtCsdze8u8oDPro_5alloc3vec10partial_eqINtB4_3VecNtNtCsATtFUPiRFW_3syn4item4ItemENtNtCs9f3LFPSIp77_4core3cmp9PartialEq2eqBU_, symObjAddr: 0x71A8, symBinAddr: 0x26350, symSize: 0x7C }
  - { offset: 0xA45F3, size: 0x8, addend: 0x0, symName: __RNvXNtNtCsdze8u8oDPro_5alloc3vec10partial_eqINtB4_3VecNtNtCsATtFUPiRFW_3syn4item8ImplItemENtNtCs9f3LFPSIp77_4core3cmp9PartialEq2eqBU_, symObjAddr: 0x7224, symBinAddr: 0x263CC, symSize: 0x7C }
  - { offset: 0xA4676, size: 0x8, addend: 0x0, symName: __RNvXNtNtCsdze8u8oDPro_5alloc3vec10partial_eqINtB4_3VecNtNtCsATtFUPiRFW_3syn4item9TraitItemENtNtCs9f3LFPSIp77_4core3cmp9PartialEq2eqBU_, symObjAddr: 0x72A0, symBinAddr: 0x26448, symSize: 0x7C }
  - { offset: 0xA46F9, size: 0x8, addend: 0x0, symName: __RNvXNtNtCsdze8u8oDPro_5alloc3vec10partial_eqINtB4_3VecNtNtCsATtFUPiRFW_3syn4stmt4StmtENtNtCs9f3LFPSIp77_4core3cmp9PartialEq2eqBU_, symObjAddr: 0x731C, symBinAddr: 0x264C4, symSize: 0x7C }
  - { offset: 0xA477C, size: 0x8, addend: 0x0, symName: __RNvXNtNtCsdze8u8oDPro_5alloc3vec10partial_eqINtB4_3VecTNtNtCsATtFUPiRFW_3syn2ty4TypeNtNtBV_5token5CommaEENtNtCs9f3LFPSIp77_4core3cmp9PartialEq2eqBV_, symObjAddr: 0x7398, symBinAddr: 0x26540, symSize: 0x7C }
  - { offset: 0xA47FF, size: 0x8, addend: 0x0, symName: __RNvXNtNtCsdze8u8oDPro_5alloc3vec10partial_eqINtB4_3VecTNtNtCsATtFUPiRFW_3syn2ty9BareFnArgNtNtBV_5token5CommaEENtNtCs9f3LFPSIp77_4core3cmp9PartialEq2eqBV_, symObjAddr: 0x7414, symBinAddr: 0x265BC, symSize: 0x7C }
  - { offset: 0xA4882, size: 0x8, addend: 0x0, symName: __RNvXNtNtCsdze8u8oDPro_5alloc3vec10partial_eqINtB4_3VecTNtNtCsATtFUPiRFW_3syn3pat3PatNtNtBV_5token2OrEENtNtCs9f3LFPSIp77_4core3cmp9PartialEq2eqBV_, symObjAddr: 0x7490, symBinAddr: 0x26638, symSize: 0x7C }
  - { offset: 0xA4905, size: 0x8, addend: 0x0, symName: __RNvXNtNtCsdze8u8oDPro_5alloc3vec10partial_eqINtB4_3VecTNtNtCsATtFUPiRFW_3syn3pat3PatNtNtBV_5token5CommaEENtNtCs9f3LFPSIp77_4core3cmp9PartialEq2eqBV_, symObjAddr: 0x750C, symBinAddr: 0x266B4, symSize: 0x7C }
  - { offset: 0xA4988, size: 0x8, addend: 0x0, symName: __RNvXNtNtCsdze8u8oDPro_5alloc3vec10partial_eqINtB4_3VecTNtNtCsATtFUPiRFW_3syn3pat8FieldPatNtNtBV_5token5CommaEENtNtCs9f3LFPSIp77_4core3cmp9PartialEq2eqBV_, symObjAddr: 0x7588, symBinAddr: 0x26730, symSize: 0x7C }
  - { offset: 0xA4A0B, size: 0x8, addend: 0x0, symName: __RNvXNtNtCsdze8u8oDPro_5alloc3vec10partial_eqINtB4_3VecTNtNtCsATtFUPiRFW_3syn4data5FieldNtNtBV_5token5CommaEENtNtCs9f3LFPSIp77_4core3cmp9PartialEq2eqBV_, symObjAddr: 0x7604, symBinAddr: 0x267AC, symSize: 0x7C }
  - { offset: 0xA4A8E, size: 0x8, addend: 0x0, symName: __RNvXNtNtCsdze8u8oDPro_5alloc3vec10partial_eqINtB4_3VecTNtNtCsATtFUPiRFW_3syn4data7VariantNtNtBV_5token5CommaEENtNtCs9f3LFPSIp77_4core3cmp9PartialEq2eqBV_, symObjAddr: 0x7680, symBinAddr: 0x26828, symSize: 0x7C }
  - { offset: 0xA4B11, size: 0x8, addend: 0x0, symName: __RNvXNtNtCsdze8u8oDPro_5alloc3vec10partial_eqINtB4_3VecTNtNtCsATtFUPiRFW_3syn4expr10FieldValueNtNtBV_5token5CommaEENtNtCs9f3LFPSIp77_4core3cmp9PartialEq2eqBV_, symObjAddr: 0x76FC, symBinAddr: 0x268A4, symSize: 0x7C }
  - { offset: 0xA4B94, size: 0x8, addend: 0x0, symName: __RNvXNtNtCsdze8u8oDPro_5alloc3vec10partial_eqINtB4_3VecTNtNtCsATtFUPiRFW_3syn4expr4ExprNtNtBV_5token5CommaEENtNtCs9f3LFPSIp77_4core3cmp9PartialEq2eqBV_, symObjAddr: 0x7778, symBinAddr: 0x26920, symSize: 0x7C }
  - { offset: 0xA4C17, size: 0x8, addend: 0x0, symName: __RNvXNtNtCsdze8u8oDPro_5alloc3vec10partial_eqINtB4_3VecTNtNtCsATtFUPiRFW_3syn4item5FnArgNtNtBV_5token5CommaEENtNtCs9f3LFPSIp77_4core3cmp9PartialEq2eqBV_, symObjAddr: 0x77F4, symBinAddr: 0x2699C, symSize: 0x7C }
  - { offset: 0xA4C9A, size: 0x8, addend: 0x0, symName: __RNvXNtNtCsdze8u8oDPro_5alloc3vec10partial_eqINtB4_3VecTNtNtCsATtFUPiRFW_3syn4item7UseTreeNtNtBV_5token5CommaEENtNtCs9f3LFPSIp77_4core3cmp9PartialEq2eqBV_, symObjAddr: 0x7870, symBinAddr: 0x26A18, symSize: 0x7C }
  - { offset: 0xA4D1D, size: 0x8, addend: 0x0, symName: __RNvXNtNtCsdze8u8oDPro_5alloc3vec10partial_eqINtB4_3VecTNtNtCsATtFUPiRFW_3syn4path11PathSegmentNtNtBV_5token7PathSepEENtNtCs9f3LFPSIp77_4core3cmp9PartialEq2eqBV_, symObjAddr: 0x78EC, symBinAddr: 0x26A94, symSize: 0x7C }
  - { offset: 0xA4DA0, size: 0x8, addend: 0x0, symName: __RNvXNtNtCsdze8u8oDPro_5alloc3vec10partial_eqINtB4_3VecTNtNtCsATtFUPiRFW_3syn4path15GenericArgumentNtNtBV_5token5CommaEENtNtCs9f3LFPSIp77_4core3cmp9PartialEq2eqBV_, symObjAddr: 0x7968, symBinAddr: 0x26B10, symSize: 0x7C }
  - { offset: 0xA4E23, size: 0x8, addend: 0x0, symName: __RNvXNtNtCsdze8u8oDPro_5alloc3vec10partial_eqINtB4_3VecTNtNtCsATtFUPiRFW_3syn8generics12GenericParamNtNtBV_5token5CommaEENtNtCs9f3LFPSIp77_4core3cmp9PartialEq2eqBV_, symObjAddr: 0x79E4, symBinAddr: 0x26B8C, symSize: 0x7C }
  - { offset: 0xA4EA6, size: 0x8, addend: 0x0, symName: __RNvXNtNtCsdze8u8oDPro_5alloc3vec10partial_eqINtB4_3VecTNtNtCsATtFUPiRFW_3syn8generics13CapturedParamNtNtBV_5token5CommaEENtNtCs9f3LFPSIp77_4core3cmp9PartialEq2eqBV_, symObjAddr: 0x7A60, symBinAddr: 0x26C08, symSize: 0x7C }
  - { offset: 0xA4F29, size: 0x8, addend: 0x0, symName: __RNvXNtNtCsdze8u8oDPro_5alloc3vec10partial_eqINtB4_3VecTNtNtCsATtFUPiRFW_3syn8generics14TypeParamBoundNtNtBV_5token4PlusEENtNtCs9f3LFPSIp77_4core3cmp9PartialEq2eqBV_, symObjAddr: 0x7ADC, symBinAddr: 0x26C84, symSize: 0x7C }
  - { offset: 0xA4FAC, size: 0x8, addend: 0x0, symName: __RNvXNtNtCsdze8u8oDPro_5alloc3vec10partial_eqINtB4_3VecTNtNtCsATtFUPiRFW_3syn8generics14WherePredicateNtNtBV_5token5CommaEENtNtCs9f3LFPSIp77_4core3cmp9PartialEq2eqBV_, symObjAddr: 0x7B58, symBinAddr: 0x26D00, symSize: 0x7C }
  - { offset: 0xA502F, size: 0x8, addend: 0x0, symName: __RNvXNtNtCsdze8u8oDPro_5alloc3vec10partial_eqINtB4_3VecTNtNtCsATtFUPiRFW_3syn8lifetime8LifetimeNtNtBV_5token4PlusEENtNtCs9f3LFPSIp77_4core3cmp9PartialEq2eqBV_, symObjAddr: 0x7BD4, symBinAddr: 0x26D7C, symSize: 0x7C }
  - { offset: 0xA50BE, size: 0x8, addend: 0x0, symName: __RNvXNtNtCsdze8u8oDPro_5alloc3vec11spec_extendINtB4_3VecNtCs475r2uZUTuc_11proc_macro29TokenTreeEINtB2_10SpecExtendBR_INtNtNtNtCs9f3LFPSIp77_4core4iter8adapters7flatten7FlattenINtNtB1V_3map3MapIB2N_IB2N_INtNtNtB1Z_5slice4iter4IterNtNtCsATtFUPiRFW_3syn5error12ErrorMessageENvMs_B3G_B3E_16to_compile_errorENCINvXs7_BT_NtBT_11TokenStreamINtNtNtB1X_6traits7collect12FromIteratorB52_E9from_iterB38_E0ENCINvXs6_NtBT_3impNtB6t_11TokenStreamIB5l_B6C_E9from_iterB33_Es_0EEE11spec_extendB3I_, symObjAddr: 0x7C50, symBinAddr: 0x26DF8, symSize: 0x24 }
  - { offset: 0xA5110, size: 0x8, addend: 0x0, symName: __RNvXNtNtCsdze8u8oDPro_5alloc3vec11spec_extendINtB4_3VecNtCs475r2uZUTuc_11proc_macro29TokenTreeEINtB2_10SpecExtendBR_NtNtBT_12token_stream8IntoIterE11spec_extendCsATtFUPiRFW_3syn, symObjAddr: 0x7C74, symBinAddr: 0x26E1C, symSize: 0x24 }
  - { offset: 0xA5168, size: 0x8, addend: 0x0, symName: __RNvXs0_NtNtCsdze8u8oDPro_5alloc3vec11spec_extendINtB7_3VecNtNtCsATtFUPiRFW_3syn4attr9AttributeEINtB5_10SpecExtendBU_INtNtB7_9into_iter8IntoIterBU_EE11spec_extendBY_, symObjAddr: 0x81C4, symBinAddr: 0x2736C, symSize: 0x94 }
  - { offset: 0xA51CE, size: 0x8, addend: 0x0, symName: __RNvXs0_NtNtCsdze8u8oDPro_5alloc3vec11spec_extendINtB7_3VecNtNtCsATtFUPiRFW_3syn5error12ErrorMessageEINtB5_10SpecExtendBU_INtNtB7_9into_iter8IntoIterBU_EE11spec_extendBY_, symObjAddr: 0x8258, symBinAddr: 0x27400, symSize: 0x94 }
  - { offset: 0xA523A, size: 0x8, addend: 0x0, symName: __RNvXs2_NtNtCsdze8u8oDPro_5alloc3vec11spec_extendINtB7_3VechEINtB5_10SpecExtendRhINtNtNtCs9f3LFPSIp77_4core5slice4iter4IterhEE11spec_extendCsATtFUPiRFW_3syn, symObjAddr: 0x8304, symBinAddr: 0x274AC, symSize: 0xA8 }
  - { offset: 0xA53F9, size: 0x8, addend: 0x0, symName: __RNvXs_NtNtCsdze8u8oDPro_5alloc3vec11spec_extendINtB6_3VecNtNtCsATtFUPiRFW_3syn4data5FieldEINtB4_10SpecExtendBT_INtNtCs9f3LFPSIp77_4core6option8IntoIterBT_EE11spec_extendBX_, symObjAddr: 0x99AC, symBinAddr: 0x28B54, symSize: 0x24 }
  - { offset: 0xA544B, size: 0x8, addend: 0x0, symName: __RNvXs_NtNtCsdze8u8oDPro_5alloc3vec11spec_extendINtB6_3VecNtNtCsATtFUPiRFW_3syn4data5FieldEINtB4_10SpecExtendBT_INtNtNtNtCs9f3LFPSIp77_4core4iter8adapters3map3MapINtNtB6_9into_iter8IntoIterTBT_NtNtBX_5token5CommaEENCNvXs8_NtBX_10punctuatedINtB3x_10PunctuatedBT_B34_ENtNtNtB1S_6traits7collect12IntoIterator9into_iter0EE11spec_extendBX_, symObjAddr: 0x99D0, symBinAddr: 0x28B78, symSize: 0x24 }
  - { offset: 0xA549D, size: 0x8, addend: 0x0, symName: __RNvXs_NtNtCsdze8u8oDPro_5alloc3vec11spec_extendINtB6_3VecNtNtCsATtFUPiRFW_3syn4data5FieldEINtB4_10SpecExtendBT_INtNtNtNtCs9f3LFPSIp77_4core4iter8adapters3map3MapINtNtB6_9into_iter8IntoIterTBT_uEENCNvXs8_NtBX_10punctuatedINtB3f_10PunctuatedBT_uENtNtNtB1S_6traits7collect12IntoIterator9into_iter0EE11spec_extendBX_, symObjAddr: 0x99F4, symBinAddr: 0x28B9C, symSize: 0x24 }
  - { offset: 0xA54EF, size: 0x8, addend: 0x0, symName: __RNvXs_NtNtCsdze8u8oDPro_5alloc3vec11spec_extendINtB6_3VecNtNtCsATtFUPiRFW_3syn8generics14TypeParamBoundEINtB4_10SpecExtendBT_INtNtCs9f3LFPSIp77_4core6option8IntoIterBT_EE11spec_extendBX_, symObjAddr: 0x9A18, symBinAddr: 0x28BC0, symSize: 0x24 }
  - { offset: 0xA5541, size: 0x8, addend: 0x0, symName: __RNvXs_NtNtCsdze8u8oDPro_5alloc3vec11spec_extendINtB6_3VecNtNtCsATtFUPiRFW_3syn8generics14TypeParamBoundEINtB4_10SpecExtendBT_INtNtNtNtCs9f3LFPSIp77_4core4iter8adapters3map3MapINtNtB6_9into_iter8IntoIterTBT_NtNtBX_5token4PlusEENCNvXs8_NtBX_10punctuatedINtB3K_10PunctuatedBT_B3i_ENtNtNtB26_6traits7collect12IntoIterator9into_iter0EE11spec_extendBX_, symObjAddr: 0x9A3C, symBinAddr: 0x28BE4, symSize: 0x24 }
  - { offset: 0xA559F, size: 0x8, addend: 0x0, symName: __RNvXNtNtCsdze8u8oDPro_5alloc3vec14spec_from_iterINtB4_3VecNtCs475r2uZUTuc_11proc_macro29TokenTreeEINtB2_12SpecFromIterBU_NtNtBW_12token_stream8IntoIterE9from_iterCsATtFUPiRFW_3syn, symObjAddr: 0x7C98, symBinAddr: 0x26E40, symSize: 0x14 }
  - { offset: 0xA55EA, size: 0x8, addend: 0x0, symName: __RNvXNtNtCsdze8u8oDPro_5alloc3vec21spec_from_iter_nestedINtB4_3VecNtCs475r2uZUTuc_11proc_macro29TokenTreeEINtB2_18SpecFromIterNestedB11_NtNtB13_12token_stream8IntoIterE9from_iterCsATtFUPiRFW_3syn, symObjAddr: 0x7CAC, symBinAddr: 0x26E54, symSize: 0x254 }
  - { offset: 0xA5933, size: 0x8, addend: 0x0, symName: __RNvXs6_NtCsdze8u8oDPro_5alloc3vecINtB5_3VecNtNtCsATtFUPiRFW_3syn4attr9AttributeENtNtNtCs9f3LFPSIp77_4core3ops5deref5Deref5derefBJ_, symObjAddr: 0x83AC, symBinAddr: 0x27554, symSize: 0x24 }
  - { offset: 0xA5973, size: 0x8, addend: 0x0, symName: __RNvXs6_NtCsdze8u8oDPro_5alloc3vecINtB5_3VecNtNtCsATtFUPiRFW_3syn4expr3ArmENtNtNtCs9f3LFPSIp77_4core3ops5deref5Deref5derefBJ_, symObjAddr: 0x83D0, symBinAddr: 0x27578, symSize: 0x24 }
  - { offset: 0xA59B3, size: 0x8, addend: 0x0, symName: __RNvXs6_NtCsdze8u8oDPro_5alloc3vecINtB5_3VecNtNtCsATtFUPiRFW_3syn5error12ErrorMessageENtNtNtCs9f3LFPSIp77_4core3ops5deref5Deref5derefBJ_, symObjAddr: 0x83F4, symBinAddr: 0x2759C, symSize: 0x24 }
  - { offset: 0xA59F3, size: 0x8, addend: 0x0, symName: __RNvXs6_NtCsdze8u8oDPro_5alloc3vecINtB5_3VecReENtNtNtCs9f3LFPSIp77_4core3ops5deref5Deref5derefCsATtFUPiRFW_3syn, symObjAddr: 0x8418, symBinAddr: 0x275C0, symSize: 0x24 }
  - { offset: 0xA5A33, size: 0x8, addend: 0x0, symName: __RNvXs6_NtCsdze8u8oDPro_5alloc3vecINtB5_3VecTNtNtCsATtFUPiRFW_3syn2ty4TypeNtNtBK_5token5CommaEENtNtNtCs9f3LFPSIp77_4core3ops5deref5Deref5derefBK_, symObjAddr: 0x843C, symBinAddr: 0x275E4, symSize: 0x24 }
  - { offset: 0xA5A73, size: 0x8, addend: 0x0, symName: __RNvXs6_NtCsdze8u8oDPro_5alloc3vecINtB5_3VecTNtNtCsATtFUPiRFW_3syn2ty9BareFnArgNtNtBK_5token5CommaEENtNtNtCs9f3LFPSIp77_4core3ops5deref5Deref5derefBK_, symObjAddr: 0x8460, symBinAddr: 0x27608, symSize: 0x24 }
  - { offset: 0xA5AB3, size: 0x8, addend: 0x0, symName: __RNvXs6_NtCsdze8u8oDPro_5alloc3vecINtB5_3VecTNtNtCsATtFUPiRFW_3syn3pat3PatNtNtBK_5token2OrEENtNtNtCs9f3LFPSIp77_4core3ops5deref5Deref5derefBK_, symObjAddr: 0x8484, symBinAddr: 0x2762C, symSize: 0x24 }
  - { offset: 0xA5AF3, size: 0x8, addend: 0x0, symName: __RNvXs6_NtCsdze8u8oDPro_5alloc3vecINtB5_3VecTNtNtCsATtFUPiRFW_3syn3pat3PatNtNtBK_5token5CommaEENtNtNtCs9f3LFPSIp77_4core3ops5deref5Deref5derefBK_, symObjAddr: 0x84A8, symBinAddr: 0x27650, symSize: 0x24 }
  - { offset: 0xA5B33, size: 0x8, addend: 0x0, symName: __RNvXs6_NtCsdze8u8oDPro_5alloc3vecINtB5_3VecTNtNtCsATtFUPiRFW_3syn3pat8FieldPatNtNtBK_5token5CommaEENtNtNtCs9f3LFPSIp77_4core3ops5deref5Deref5derefBK_, symObjAddr: 0x84CC, symBinAddr: 0x27674, symSize: 0x24 }
  - { offset: 0xA5B73, size: 0x8, addend: 0x0, symName: __RNvXs6_NtCsdze8u8oDPro_5alloc3vecINtB5_3VecTNtNtCsATtFUPiRFW_3syn4data5FieldNtNtBK_5token5CommaEENtNtNtCs9f3LFPSIp77_4core3ops5deref5Deref5derefBK_, symObjAddr: 0x84F0, symBinAddr: 0x27698, symSize: 0x24 }
  - { offset: 0xA5BB3, size: 0x8, addend: 0x0, symName: __RNvXs6_NtCsdze8u8oDPro_5alloc3vecINtB5_3VecTNtNtCsATtFUPiRFW_3syn4data7VariantNtNtBK_5token5CommaEENtNtNtCs9f3LFPSIp77_4core3ops5deref5Deref5derefBK_, symObjAddr: 0x8514, symBinAddr: 0x276BC, symSize: 0x24 }
  - { offset: 0xA5BF3, size: 0x8, addend: 0x0, symName: __RNvXs6_NtCsdze8u8oDPro_5alloc3vecINtB5_3VecTNtNtCsATtFUPiRFW_3syn4expr10FieldValueNtNtBK_5token5CommaEENtNtNtCs9f3LFPSIp77_4core3ops5deref5Deref5derefBK_, symObjAddr: 0x8538, symBinAddr: 0x276E0, symSize: 0x24 }
  - { offset: 0xA5C33, size: 0x8, addend: 0x0, symName: __RNvXs6_NtCsdze8u8oDPro_5alloc3vecINtB5_3VecTNtNtCsATtFUPiRFW_3syn4expr4ExprNtNtBK_5token5CommaEENtNtNtCs9f3LFPSIp77_4core3ops5deref5Deref5derefBK_, symObjAddr: 0x855C, symBinAddr: 0x27704, symSize: 0x24 }
  - { offset: 0xA5C73, size: 0x8, addend: 0x0, symName: __RNvXs6_NtCsdze8u8oDPro_5alloc3vecINtB5_3VecTNtNtCsATtFUPiRFW_3syn4item5FnArgNtNtBK_5token5CommaEENtNtNtCs9f3LFPSIp77_4core3ops5deref5Deref5derefBK_, symObjAddr: 0x8580, symBinAddr: 0x27728, symSize: 0x24 }
  - { offset: 0xA5CB3, size: 0x8, addend: 0x0, symName: __RNvXs6_NtCsdze8u8oDPro_5alloc3vecINtB5_3VecTNtNtCsATtFUPiRFW_3syn4item7UseTreeNtNtBK_5token5CommaEENtNtNtCs9f3LFPSIp77_4core3ops5deref5Deref5derefBK_, symObjAddr: 0x85A4, symBinAddr: 0x2774C, symSize: 0x24 }
  - { offset: 0xA5CF3, size: 0x8, addend: 0x0, symName: __RNvXs6_NtCsdze8u8oDPro_5alloc3vecINtB5_3VecTNtNtCsATtFUPiRFW_3syn4path11PathSegmentNtNtBK_5token7PathSepEENtNtNtCs9f3LFPSIp77_4core3ops5deref5Deref5derefBK_, symObjAddr: 0x85C8, symBinAddr: 0x27770, symSize: 0x24 }
  - { offset: 0xA5D33, size: 0x8, addend: 0x0, symName: __RNvXs6_NtCsdze8u8oDPro_5alloc3vecINtB5_3VecTNtNtCsATtFUPiRFW_3syn4path15GenericArgumentNtNtBK_5token5CommaEENtNtNtCs9f3LFPSIp77_4core3ops5deref5Deref5derefBK_, symObjAddr: 0x85EC, symBinAddr: 0x27794, symSize: 0x24 }
  - { offset: 0xA5D73, size: 0x8, addend: 0x0, symName: __RNvXs6_NtCsdze8u8oDPro_5alloc3vecINtB5_3VecTNtNtCsATtFUPiRFW_3syn8generics12GenericParamNtNtBK_5token5CommaEENtNtNtCs9f3LFPSIp77_4core3ops5deref5Deref5derefBK_, symObjAddr: 0x8610, symBinAddr: 0x277B8, symSize: 0x24 }
  - { offset: 0xA5DB3, size: 0x8, addend: 0x0, symName: __RNvXs6_NtCsdze8u8oDPro_5alloc3vecINtB5_3VecTNtNtCsATtFUPiRFW_3syn8generics13CapturedParamNtNtBK_5token5CommaEENtNtNtCs9f3LFPSIp77_4core3ops5deref5Deref5derefBK_, symObjAddr: 0x8634, symBinAddr: 0x277DC, symSize: 0x24 }
  - { offset: 0xA5DF3, size: 0x8, addend: 0x0, symName: __RNvXs6_NtCsdze8u8oDPro_5alloc3vecINtB5_3VecTNtNtCsATtFUPiRFW_3syn8generics14TypeParamBoundNtNtBK_5token4PlusEENtNtNtCs9f3LFPSIp77_4core3ops5deref5Deref5derefBK_, symObjAddr: 0x8658, symBinAddr: 0x27800, symSize: 0x24 }
  - { offset: 0xA5E33, size: 0x8, addend: 0x0, symName: __RNvXs6_NtCsdze8u8oDPro_5alloc3vecINtB5_3VecTNtNtCsATtFUPiRFW_3syn8generics14WherePredicateNtNtBK_5token5CommaEENtNtNtCs9f3LFPSIp77_4core3ops5deref5Deref5derefBK_, symObjAddr: 0x867C, symBinAddr: 0x27824, symSize: 0x24 }
  - { offset: 0xA5E73, size: 0x8, addend: 0x0, symName: __RNvXs6_NtCsdze8u8oDPro_5alloc3vecINtB5_3VecTNtNtCsATtFUPiRFW_3syn8lifetime8LifetimeNtNtBK_5token4PlusEENtNtNtCs9f3LFPSIp77_4core3ops5deref5Deref5derefBK_, symObjAddr: 0x86A0, symBinAddr: 0x27848, symSize: 0x24 }
  - { offset: 0xA5EB3, size: 0x8, addend: 0x0, symName: __RNvXs6_NtCsdze8u8oDPro_5alloc3vecINtB5_3VechENtNtNtCs9f3LFPSIp77_4core3ops5deref5Deref5derefCsATtFUPiRFW_3syn, symObjAddr: 0x86C4, symBinAddr: 0x2786C, symSize: 0x24 }
  - { offset: 0xA6FD9, size: 0x8, addend: 0x0, symName: __RNvXs7_NtCsdze8u8oDPro_5alloc3vecINtB5_3VecTNtNtCsATtFUPiRFW_3syn4data5FieldNtNtBK_5token5CommaEENtNtNtCs9f3LFPSIp77_4core3ops5deref8DerefMut9deref_mutBK_, symObjAddr: 0x86E8, symBinAddr: 0x27890, symSize: 0x24 }
  - { offset: 0xA7019, size: 0x8, addend: 0x0, symName: __RNvXs7_NtCsdze8u8oDPro_5alloc3vecINtB5_3VecTNtNtCsATtFUPiRFW_3syn4path11PathSegmentNtNtBK_5token7PathSepEENtNtNtCs9f3LFPSIp77_4core3ops5deref8DerefMut9deref_mutBK_, symObjAddr: 0x870C, symBinAddr: 0x278B4, symSize: 0x24 }
  - { offset: 0xA7059, size: 0x8, addend: 0x0, symName: __RNvXs7_NtCsdze8u8oDPro_5alloc3vecINtB5_3VecTNtNtCsATtFUPiRFW_3syn8generics12GenericParamNtNtBK_5token5CommaEENtNtNtCs9f3LFPSIp77_4core3ops5deref8DerefMut9deref_mutBK_, symObjAddr: 0x8730, symBinAddr: 0x278D8, symSize: 0x24 }
  - { offset: 0xA712F, size: 0x8, addend: 0x0, symName: __RNvXs9_NtCsdze8u8oDPro_5alloc3vecINtB5_3VecNtNtCsATtFUPiRFW_3syn4attr9AttributeENtNtCs9f3LFPSIp77_4core5clone5Clone5cloneBJ_, symObjAddr: 0x8754, symBinAddr: 0x278FC, symSize: 0xB0 }
  - { offset: 0xA7393, size: 0x8, addend: 0x0, symName: __RNvXs9_NtCsdze8u8oDPro_5alloc3vecINtB5_3VecNtNtCsATtFUPiRFW_3syn4expr3ArmENtNtCs9f3LFPSIp77_4core5clone5Clone5cloneBJ_, symObjAddr: 0x8804, symBinAddr: 0x279AC, symSize: 0xB0 }
  - { offset: 0xA75F7, size: 0x8, addend: 0x0, symName: __RNvXs9_NtCsdze8u8oDPro_5alloc3vecINtB5_3VecNtNtCsATtFUPiRFW_3syn4item11ForeignItemENtNtCs9f3LFPSIp77_4core5clone5Clone5cloneBJ_, symObjAddr: 0x88B4, symBinAddr: 0x27A5C, symSize: 0xB0 }
  - { offset: 0xA785B, size: 0x8, addend: 0x0, symName: __RNvXs9_NtCsdze8u8oDPro_5alloc3vecINtB5_3VecNtNtCsATtFUPiRFW_3syn4item4ItemENtNtCs9f3LFPSIp77_4core5clone5Clone5cloneBJ_, symObjAddr: 0x8964, symBinAddr: 0x27B0C, symSize: 0xB0 }
  - { offset: 0xA7ABF, size: 0x8, addend: 0x0, symName: __RNvXs9_NtCsdze8u8oDPro_5alloc3vecINtB5_3VecNtNtCsATtFUPiRFW_3syn4item8ImplItemENtNtCs9f3LFPSIp77_4core5clone5Clone5cloneBJ_, symObjAddr: 0x8A14, symBinAddr: 0x27BBC, symSize: 0xB0 }
  - { offset: 0xA7D23, size: 0x8, addend: 0x0, symName: __RNvXs9_NtCsdze8u8oDPro_5alloc3vecINtB5_3VecNtNtCsATtFUPiRFW_3syn4item9TraitItemENtNtCs9f3LFPSIp77_4core5clone5Clone5cloneBJ_, symObjAddr: 0x8AC4, symBinAddr: 0x27C6C, symSize: 0xB0 }
  - { offset: 0xA7F87, size: 0x8, addend: 0x0, symName: __RNvXs9_NtCsdze8u8oDPro_5alloc3vecINtB5_3VecNtNtCsATtFUPiRFW_3syn4stmt4StmtENtNtCs9f3LFPSIp77_4core5clone5Clone5cloneBJ_, symObjAddr: 0x8B74, symBinAddr: 0x27D1C, symSize: 0xB0 }
  - { offset: 0xA81EB, size: 0x8, addend: 0x0, symName: __RNvXs9_NtCsdze8u8oDPro_5alloc3vecINtB5_3VecNtNtCsATtFUPiRFW_3syn5error12ErrorMessageENtNtCs9f3LFPSIp77_4core5clone5Clone5cloneBJ_, symObjAddr: 0x8C24, symBinAddr: 0x27DCC, symSize: 0xB0 }
  - { offset: 0xA844F, size: 0x8, addend: 0x0, symName: __RNvXs9_NtCsdze8u8oDPro_5alloc3vecINtB5_3VecTNtNtCsATtFUPiRFW_3syn2ty4TypeNtNtBK_5token5CommaEENtNtCs9f3LFPSIp77_4core5clone5Clone5cloneBK_, symObjAddr: 0x8CD4, symBinAddr: 0x27E7C, symSize: 0xB0 }
  - { offset: 0xA86B3, size: 0x8, addend: 0x0, symName: __RNvXs9_NtCsdze8u8oDPro_5alloc3vecINtB5_3VecTNtNtCsATtFUPiRFW_3syn2ty9BareFnArgNtNtBK_5token5CommaEENtNtCs9f3LFPSIp77_4core5clone5Clone5cloneBK_, symObjAddr: 0x8D84, symBinAddr: 0x27F2C, symSize: 0xB0 }
  - { offset: 0xA8917, size: 0x8, addend: 0x0, symName: __RNvXs9_NtCsdze8u8oDPro_5alloc3vecINtB5_3VecTNtNtCsATtFUPiRFW_3syn3pat3PatNtNtBK_5token2OrEENtNtCs9f3LFPSIp77_4core5clone5Clone5cloneBK_, symObjAddr: 0x8E34, symBinAddr: 0x27FDC, symSize: 0xB0 }
  - { offset: 0xA8B7B, size: 0x8, addend: 0x0, symName: __RNvXs9_NtCsdze8u8oDPro_5alloc3vecINtB5_3VecTNtNtCsATtFUPiRFW_3syn3pat3PatNtNtBK_5token5CommaEENtNtCs9f3LFPSIp77_4core5clone5Clone5cloneBK_, symObjAddr: 0x8EE4, symBinAddr: 0x2808C, symSize: 0xB0 }
  - { offset: 0xA8DDF, size: 0x8, addend: 0x0, symName: __RNvXs9_NtCsdze8u8oDPro_5alloc3vecINtB5_3VecTNtNtCsATtFUPiRFW_3syn3pat8FieldPatNtNtBK_5token5CommaEENtNtCs9f3LFPSIp77_4core5clone5Clone5cloneBK_, symObjAddr: 0x8F94, symBinAddr: 0x2813C, symSize: 0xB0 }
  - { offset: 0xA9043, size: 0x8, addend: 0x0, symName: __RNvXs9_NtCsdze8u8oDPro_5alloc3vecINtB5_3VecTNtNtCsATtFUPiRFW_3syn4data5FieldNtNtBK_5token5CommaEENtNtCs9f3LFPSIp77_4core5clone5Clone5cloneBK_, symObjAddr: 0x9044, symBinAddr: 0x281EC, symSize: 0xB0 }
  - { offset: 0xA92A7, size: 0x8, addend: 0x0, symName: __RNvXs9_NtCsdze8u8oDPro_5alloc3vecINtB5_3VecTNtNtCsATtFUPiRFW_3syn4data7VariantNtNtBK_5token5CommaEENtNtCs9f3LFPSIp77_4core5clone5Clone5cloneBK_, symObjAddr: 0x90F4, symBinAddr: 0x2829C, symSize: 0xB0 }
  - { offset: 0xA950B, size: 0x8, addend: 0x0, symName: __RNvXs9_NtCsdze8u8oDPro_5alloc3vecINtB5_3VecTNtNtCsATtFUPiRFW_3syn4expr10FieldValueNtNtBK_5token5CommaEENtNtCs9f3LFPSIp77_4core5clone5Clone5cloneBK_, symObjAddr: 0x91A4, symBinAddr: 0x2834C, symSize: 0xB0 }
  - { offset: 0xA976F, size: 0x8, addend: 0x0, symName: __RNvXs9_NtCsdze8u8oDPro_5alloc3vecINtB5_3VecTNtNtCsATtFUPiRFW_3syn4expr4ExprNtNtBK_5token5CommaEENtNtCs9f3LFPSIp77_4core5clone5Clone5cloneBK_, symObjAddr: 0x9254, symBinAddr: 0x283FC, symSize: 0xB0 }
  - { offset: 0xA99D3, size: 0x8, addend: 0x0, symName: __RNvXs9_NtCsdze8u8oDPro_5alloc3vecINtB5_3VecTNtNtCsATtFUPiRFW_3syn4item5FnArgNtNtBK_5token5CommaEENtNtCs9f3LFPSIp77_4core5clone5Clone5cloneBK_, symObjAddr: 0x9304, symBinAddr: 0x284AC, symSize: 0xB0 }
  - { offset: 0xA9C37, size: 0x8, addend: 0x0, symName: __RNvXs9_NtCsdze8u8oDPro_5alloc3vecINtB5_3VecTNtNtCsATtFUPiRFW_3syn4item7UseTreeNtNtBK_5token5CommaEENtNtCs9f3LFPSIp77_4core5clone5Clone5cloneBK_, symObjAddr: 0x93B4, symBinAddr: 0x2855C, symSize: 0xB0 }
  - { offset: 0xA9E9B, size: 0x8, addend: 0x0, symName: __RNvXs9_NtCsdze8u8oDPro_5alloc3vecINtB5_3VecTNtNtCsATtFUPiRFW_3syn4path11PathSegmentNtNtBK_5token7PathSepEENtNtCs9f3LFPSIp77_4core5clone5Clone5cloneBK_, symObjAddr: 0x9464, symBinAddr: 0x2860C, symSize: 0xB0 }
  - { offset: 0xAA0FF, size: 0x8, addend: 0x0, symName: __RNvXs9_NtCsdze8u8oDPro_5alloc3vecINtB5_3VecTNtNtCsATtFUPiRFW_3syn4path15GenericArgumentNtNtBK_5token5CommaEENtNtCs9f3LFPSIp77_4core5clone5Clone5cloneBK_, symObjAddr: 0x9514, symBinAddr: 0x286BC, symSize: 0xB0 }
  - { offset: 0xAA363, size: 0x8, addend: 0x0, symName: __RNvXs9_NtCsdze8u8oDPro_5alloc3vecINtB5_3VecTNtNtCsATtFUPiRFW_3syn8generics12GenericParamNtNtBK_5token5CommaEENtNtCs9f3LFPSIp77_4core5clone5Clone5cloneBK_, symObjAddr: 0x95C4, symBinAddr: 0x2876C, symSize: 0xB0 }
  - { offset: 0xAA5C7, size: 0x8, addend: 0x0, symName: __RNvXs9_NtCsdze8u8oDPro_5alloc3vecINtB5_3VecTNtNtCsATtFUPiRFW_3syn8generics13CapturedParamNtNtBK_5token5CommaEENtNtCs9f3LFPSIp77_4core5clone5Clone5cloneBK_, symObjAddr: 0x9674, symBinAddr: 0x2881C, symSize: 0xB0 }
  - { offset: 0xAA82B, size: 0x8, addend: 0x0, symName: __RNvXs9_NtCsdze8u8oDPro_5alloc3vecINtB5_3VecTNtNtCsATtFUPiRFW_3syn8generics14TypeParamBoundNtNtBK_5token4PlusEENtNtCs9f3LFPSIp77_4core5clone5Clone5cloneBK_, symObjAddr: 0x9724, symBinAddr: 0x288CC, symSize: 0xB0 }
  - { offset: 0xAAA8F, size: 0x8, addend: 0x0, symName: __RNvXs9_NtCsdze8u8oDPro_5alloc3vecINtB5_3VecTNtNtCsATtFUPiRFW_3syn8generics14WherePredicateNtNtBK_5token5CommaEENtNtCs9f3LFPSIp77_4core5clone5Clone5cloneBK_, symObjAddr: 0x97D4, symBinAddr: 0x2897C, symSize: 0xB0 }
  - { offset: 0xAACF3, size: 0x8, addend: 0x0, symName: __RNvXs9_NtCsdze8u8oDPro_5alloc3vecINtB5_3VecTNtNtCsATtFUPiRFW_3syn8lifetime8LifetimeNtNtBK_5token4PlusEENtNtCs9f3LFPSIp77_4core5clone5Clone5cloneBK_, symObjAddr: 0x9884, symBinAddr: 0x28A2C, symSize: 0xB0 }
  - { offset: 0xAAF5D, size: 0x8, addend: 0x0, symName: __RNvXsb_NtCsdze8u8oDPro_5alloc3vecINtB5_3VecNtNtCsATtFUPiRFW_3syn4attr9AttributeEINtNtNtCs9f3LFPSIp77_4core3ops5index5IndexNtNtB1l_5range9RangeFullE5indexBJ_, symObjAddr: 0x9A60, symBinAddr: 0x28C08, symSize: 0x90 }
  - { offset: 0xAB13B, size: 0x8, addend: 0x0, symName: __RNvXsb_NtCsdze8u8oDPro_5alloc3vecINtB5_3VecNtNtCsATtFUPiRFW_3syn4expr3ArmEINtNtNtCs9f3LFPSIp77_4core3ops5index5IndexNtNtB1f_5range9RangeFullE5indexBJ_, symObjAddr: 0x9AF0, symBinAddr: 0x28C98, symSize: 0x90 }
  - { offset: 0xAB319, size: 0x8, addend: 0x0, symName: __RNvXsb_NtCsdze8u8oDPro_5alloc3vecINtB5_3VecNtNtCsATtFUPiRFW_3syn4item11ForeignItemEINtNtNtCs9f3LFPSIp77_4core3ops5index5IndexNtNtB1o_5range9RangeFullE5indexBJ_, symObjAddr: 0x9B80, symBinAddr: 0x28D28, symSize: 0x90 }
  - { offset: 0xAB4F7, size: 0x8, addend: 0x0, symName: __RNvXsb_NtCsdze8u8oDPro_5alloc3vecINtB5_3VecNtNtCsATtFUPiRFW_3syn4item4ItemEINtNtNtCs9f3LFPSIp77_4core3ops5index5IndexNtNtB1g_5range9RangeFullE5indexBJ_, symObjAddr: 0x9C10, symBinAddr: 0x28DB8, symSize: 0x90 }
  - { offset: 0xAB6D5, size: 0x8, addend: 0x0, symName: __RNvXsb_NtCsdze8u8oDPro_5alloc3vecINtB5_3VecNtNtCsATtFUPiRFW_3syn4item8ImplItemEINtNtNtCs9f3LFPSIp77_4core3ops5index5IndexNtNtB1k_5range9RangeFullE5indexBJ_, symObjAddr: 0x9CA0, symBinAddr: 0x28E48, symSize: 0x90 }
  - { offset: 0xAB8B3, size: 0x8, addend: 0x0, symName: __RNvXsb_NtCsdze8u8oDPro_5alloc3vecINtB5_3VecNtNtCsATtFUPiRFW_3syn4item9TraitItemEINtNtNtCs9f3LFPSIp77_4core3ops5index5IndexNtNtB1l_5range9RangeFullE5indexBJ_, symObjAddr: 0x9D30, symBinAddr: 0x28ED8, symSize: 0x90 }
  - { offset: 0xABA91, size: 0x8, addend: 0x0, symName: __RNvXsb_NtCsdze8u8oDPro_5alloc3vecINtB5_3VecNtNtCsATtFUPiRFW_3syn4stmt4StmtEINtNtNtCs9f3LFPSIp77_4core3ops5index5IndexNtNtB1g_5range9RangeFullE5indexBJ_, symObjAddr: 0x9DC0, symBinAddr: 0x28F68, symSize: 0x90 }
  - { offset: 0xABC6F, size: 0x8, addend: 0x0, symName: __RNvXsb_NtCsdze8u8oDPro_5alloc3vecINtB5_3VecNtNtCsATtFUPiRFW_3syn5error12ErrorMessageEINtNtNtCs9f3LFPSIp77_4core3ops5index5IndexjE5indexBJ_, symObjAddr: 0x9E50, symBinAddr: 0x28FF8, symSize: 0x9C }
  - { offset: 0xABE4D, size: 0x8, addend: 0x0, symName: __RNvXsb_NtCsdze8u8oDPro_5alloc3vecINtB5_3VecReEINtNtNtCs9f3LFPSIp77_4core3ops5index5IndexjE5indexCsATtFUPiRFW_3syn, symObjAddr: 0x9EEC, symBinAddr: 0x29094, symSize: 0x9C }
  - { offset: 0xAC02B, size: 0x8, addend: 0x0, symName: __RNvXsb_NtCsdze8u8oDPro_5alloc3vecINtB5_3VecTNtNtCsATtFUPiRFW_3syn2ty4TypeNtNtBK_5token5CommaEEINtNtNtCs9f3LFPSIp77_4core3ops5index5IndexNtNtB1z_5range9RangeFullE5indexBK_, symObjAddr: 0x9F88, symBinAddr: 0x29130, symSize: 0x90 }
  - { offset: 0xAC209, size: 0x8, addend: 0x0, symName: __RNvXsb_NtCsdze8u8oDPro_5alloc3vecINtB5_3VecTNtNtCsATtFUPiRFW_3syn2ty9BareFnArgNtNtBK_5token5CommaEEINtNtNtCs9f3LFPSIp77_4core3ops5index5IndexNtNtB1E_5range9RangeFullE5indexBK_, symObjAddr: 0xA018, symBinAddr: 0x291C0, symSize: 0x90 }
  - { offset: 0xAC3E7, size: 0x8, addend: 0x0, symName: __RNvXsb_NtCsdze8u8oDPro_5alloc3vecINtB5_3VecTNtNtCsATtFUPiRFW_3syn3pat3PatNtNtBK_5token2OrEEINtNtNtCs9f3LFPSIp77_4core3ops5index5IndexNtNtB1w_5range9RangeFullE5indexBK_, symObjAddr: 0xA0A8, symBinAddr: 0x29250, symSize: 0x90 }
  - { offset: 0xAC5C5, size: 0x8, addend: 0x0, symName: __RNvXsb_NtCsdze8u8oDPro_5alloc3vecINtB5_3VecTNtNtCsATtFUPiRFW_3syn3pat3PatNtNtBK_5token5CommaEEINtNtNtCs9f3LFPSIp77_4core3ops5index5IndexNtNtB1z_5range9RangeFullE5indexBK_, symObjAddr: 0xA138, symBinAddr: 0x292E0, symSize: 0x90 }
  - { offset: 0xAC7A3, size: 0x8, addend: 0x0, symName: __RNvXsb_NtCsdze8u8oDPro_5alloc3vecINtB5_3VecTNtNtCsATtFUPiRFW_3syn3pat3PatNtNtBK_5token5CommaEEINtNtNtCs9f3LFPSIp77_4core3ops5index5IndexjE5indexBK_, symObjAddr: 0xA1C8, symBinAddr: 0x29370, symSize: 0x9C }
  - { offset: 0xAC981, size: 0x8, addend: 0x0, symName: __RNvXsb_NtCsdze8u8oDPro_5alloc3vecINtB5_3VecTNtNtCsATtFUPiRFW_3syn3pat8FieldPatNtNtBK_5token5CommaEEINtNtNtCs9f3LFPSIp77_4core3ops5index5IndexNtNtB1E_5range9RangeFullE5indexBK_, symObjAddr: 0xA264, symBinAddr: 0x2940C, symSize: 0x90 }
  - { offset: 0xACB5F, size: 0x8, addend: 0x0, symName: __RNvXsb_NtCsdze8u8oDPro_5alloc3vecINtB5_3VecTNtNtCsATtFUPiRFW_3syn4data5FieldNtNtBK_5token5CommaEEINtNtNtCs9f3LFPSIp77_4core3ops5index5IndexNtNtB1C_5range9RangeFullE5indexBK_, symObjAddr: 0xA2F4, symBinAddr: 0x2949C, symSize: 0x90 }
  - { offset: 0xACD3D, size: 0x8, addend: 0x0, symName: __RNvXsb_NtCsdze8u8oDPro_5alloc3vecINtB5_3VecTNtNtCsATtFUPiRFW_3syn4data7VariantNtNtBK_5token5CommaEEINtNtNtCs9f3LFPSIp77_4core3ops5index5IndexNtNtB1E_5range9RangeFullE5indexBK_, symObjAddr: 0xA384, symBinAddr: 0x2952C, symSize: 0x90 }
  - { offset: 0xACF1B, size: 0x8, addend: 0x0, symName: __RNvXsb_NtCsdze8u8oDPro_5alloc3vecINtB5_3VecTNtNtCsATtFUPiRFW_3syn4expr10FieldValueNtNtBK_5token5CommaEEINtNtNtCs9f3LFPSIp77_4core3ops5index5IndexNtNtB1I_5range9RangeFullE5indexBK_, symObjAddr: 0xA414, symBinAddr: 0x295BC, symSize: 0x90 }
  - { offset: 0xAD0F9, size: 0x8, addend: 0x0, symName: __RNvXsb_NtCsdze8u8oDPro_5alloc3vecINtB5_3VecTNtNtCsATtFUPiRFW_3syn4expr4ExprNtNtBK_5token5CommaEEINtNtNtCs9f3LFPSIp77_4core3ops5index5IndexNtNtB1B_5range9RangeFullE5indexBK_, symObjAddr: 0xA4A4, symBinAddr: 0x2964C, symSize: 0x90 }
  - { offset: 0xAD2D7, size: 0x8, addend: 0x0, symName: __RNvXsb_NtCsdze8u8oDPro_5alloc3vecINtB5_3VecTNtNtCsATtFUPiRFW_3syn4item5FnArgNtNtBK_5token5CommaEEINtNtNtCs9f3LFPSIp77_4core3ops5index5IndexNtNtB1C_5range9RangeFullE5indexBK_, symObjAddr: 0xA534, symBinAddr: 0x296DC, symSize: 0x90 }
  - { offset: 0xAD4B5, size: 0x8, addend: 0x0, symName: __RNvXsb_NtCsdze8u8oDPro_5alloc3vecINtB5_3VecTNtNtCsATtFUPiRFW_3syn4item7UseTreeNtNtBK_5token5CommaEEINtNtNtCs9f3LFPSIp77_4core3ops5index5IndexNtNtB1E_5range9RangeFullE5indexBK_, symObjAddr: 0xA5C4, symBinAddr: 0x2976C, symSize: 0x90 }
  - { offset: 0xAD693, size: 0x8, addend: 0x0, symName: __RNvXsb_NtCsdze8u8oDPro_5alloc3vecINtB5_3VecTNtNtCsATtFUPiRFW_3syn4path11PathSegmentNtNtBK_5token7PathSepEEINtNtNtCs9f3LFPSIp77_4core3ops5index5IndexNtNtB1L_5range9RangeFullE5indexBK_, symObjAddr: 0xA654, symBinAddr: 0x297FC, symSize: 0x90 }
  - { offset: 0xAD871, size: 0x8, addend: 0x0, symName: __RNvXsb_NtCsdze8u8oDPro_5alloc3vecINtB5_3VecTNtNtCsATtFUPiRFW_3syn4path11PathSegmentNtNtBK_5token7PathSepEEINtNtNtCs9f3LFPSIp77_4core3ops5index5IndexjE5indexBK_, symObjAddr: 0xA6E4, symBinAddr: 0x2988C, symSize: 0x9C }
  - { offset: 0xADA4F, size: 0x8, addend: 0x0, symName: __RNvXsb_NtCsdze8u8oDPro_5alloc3vecINtB5_3VecTNtNtCsATtFUPiRFW_3syn4path15GenericArgumentNtNtBK_5token5CommaEEINtNtNtCs9f3LFPSIp77_4core3ops5index5IndexNtNtB1N_5range9RangeFullE5indexBK_, symObjAddr: 0xA780, symBinAddr: 0x29928, symSize: 0x90 }
  - { offset: 0xADC2D, size: 0x8, addend: 0x0, symName: __RNvXsb_NtCsdze8u8oDPro_5alloc3vecINtB5_3VecTNtNtCsATtFUPiRFW_3syn8generics12GenericParamNtNtBK_5token5CommaEEINtNtNtCs9f3LFPSIp77_4core3ops5index5IndexNtNtB1O_5range9RangeFullE5indexBK_, symObjAddr: 0xA810, symBinAddr: 0x299B8, symSize: 0x90 }
  - { offset: 0xADE0B, size: 0x8, addend: 0x0, symName: __RNvXsb_NtCsdze8u8oDPro_5alloc3vecINtB5_3VecTNtNtCsATtFUPiRFW_3syn8generics13CapturedParamNtNtBK_5token5CommaEEINtNtNtCs9f3LFPSIp77_4core3ops5index5IndexNtNtB1P_5range9RangeFullE5indexBK_, symObjAddr: 0xA8A0, symBinAddr: 0x29A48, symSize: 0x90 }
  - { offset: 0xADFE9, size: 0x8, addend: 0x0, symName: __RNvXsb_NtCsdze8u8oDPro_5alloc3vecINtB5_3VecTNtNtCsATtFUPiRFW_3syn8generics14TypeParamBoundNtNtBK_5token4PlusEEINtNtNtCs9f3LFPSIp77_4core3ops5index5IndexNtNtB1P_5range9RangeFullE5indexBK_, symObjAddr: 0xA930, symBinAddr: 0x29AD8, symSize: 0x90 }
  - { offset: 0xAE1C7, size: 0x8, addend: 0x0, symName: __RNvXsb_NtCsdze8u8oDPro_5alloc3vecINtB5_3VecTNtNtCsATtFUPiRFW_3syn8generics14WherePredicateNtNtBK_5token5CommaEEINtNtNtCs9f3LFPSIp77_4core3ops5index5IndexNtNtB1Q_5range9RangeFullE5indexBK_, symObjAddr: 0xA9C0, symBinAddr: 0x29B68, symSize: 0x90 }
  - { offset: 0xAE3A5, size: 0x8, addend: 0x0, symName: __RNvXsb_NtCsdze8u8oDPro_5alloc3vecINtB5_3VecTNtNtCsATtFUPiRFW_3syn8lifetime8LifetimeNtNtBK_5token4PlusEEINtNtNtCs9f3LFPSIp77_4core3ops5index5IndexNtNtB1I_5range9RangeFullE5indexBK_, symObjAddr: 0xAA50, symBinAddr: 0x29BF8, symSize: 0x90 }
  - { offset: 0xAE583, size: 0x8, addend: 0x0, symName: __RNvXsb_NtCsdze8u8oDPro_5alloc3vecINtB5_3VechEINtNtNtCs9f3LFPSIp77_4core3ops5index5IndexINtNtBM_5range9RangeFromjEE5indexCsATtFUPiRFW_3syn, symObjAddr: 0xAAE0, symBinAddr: 0x29C88, symSize: 0x98 }
  - { offset: 0xAE761, size: 0x8, addend: 0x0, symName: __RNvXsb_NtCsdze8u8oDPro_5alloc3vecINtB5_3VechEINtNtNtCs9f3LFPSIp77_4core3ops5index5IndexjE5indexCsATtFUPiRFW_3syn, symObjAddr: 0xAB78, symBinAddr: 0x29D20, symSize: 0x98 }
  - { offset: 0xAE945, size: 0x8, addend: 0x0, symName: __RNvXsc_NtCsdze8u8oDPro_5alloc3vecINtB5_3VecNtNtCsATtFUPiRFW_3syn6buffer5EntryEINtNtNtCs9f3LFPSIp77_4core3ops5index8IndexMutjE9index_mutBJ_, symObjAddr: 0xAC10, symBinAddr: 0x29DB8, symSize: 0x9C }
  - { offset: 0xAEAF6, size: 0x8, addend: 0x0, symName: __RNvXsc_NtCsdze8u8oDPro_5alloc3vecINtB5_3VechEINtNtNtCs9f3LFPSIp77_4core3ops5index8IndexMutjE9index_mutCsATtFUPiRFW_3syn, symObjAddr: 0xACAC, symBinAddr: 0x29E54, symSize: 0x98 }
  - { offset: 0xAECAD, size: 0x8, addend: 0x0, symName: __RNvXse_NtCsdze8u8oDPro_5alloc3vecINtB5_3VecNtNtCsATtFUPiRFW_3syn4attr9AttributeENtNtNtNtCs9f3LFPSIp77_4core4iter6traits7collect12IntoIterator9into_iterBJ_, symObjAddr: 0xAD44, symBinAddr: 0x29EEC, symSize: 0xF8 }
  - { offset: 0xAEF7C, size: 0x8, addend: 0x0, symName: __RNvXse_NtCsdze8u8oDPro_5alloc3vecINtB5_3VecNtNtCsATtFUPiRFW_3syn4data5FieldENtNtNtNtCs9f3LFPSIp77_4core4iter6traits7collect12IntoIterator9into_iterBJ_, symObjAddr: 0xAE3C, symBinAddr: 0x29FE4, symSize: 0x100 }
  - { offset: 0xAF24B, size: 0x8, addend: 0x0, symName: __RNvXse_NtCsdze8u8oDPro_5alloc3vecINtB5_3VecNtNtCsATtFUPiRFW_3syn5error12ErrorMessageENtNtNtNtCs9f3LFPSIp77_4core4iter6traits7collect12IntoIterator9into_iterBJ_, symObjAddr: 0xAF3C, symBinAddr: 0x2A0E4, symSize: 0x100 }
  - { offset: 0xAF51A, size: 0x8, addend: 0x0, symName: __RNvXse_NtCsdze8u8oDPro_5alloc3vecINtB5_3VecNtNtCsATtFUPiRFW_3syn8generics14TypeParamBoundENtNtNtNtCs9f3LFPSIp77_4core4iter6traits7collect12IntoIterator9into_iterBJ_, symObjAddr: 0xB03C, symBinAddr: 0x2A1E4, symSize: 0x100 }
  - { offset: 0xAF7E9, size: 0x8, addend: 0x0, symName: __RNvXse_NtCsdze8u8oDPro_5alloc3vecINtB5_3VecTNtNtCsATtFUPiRFW_3syn4data5FieldNtNtBK_5token5CommaEENtNtNtNtCs9f3LFPSIp77_4core4iter6traits7collect12IntoIterator9into_iterBK_, symObjAddr: 0xB13C, symBinAddr: 0x2A2E4, symSize: 0x100 }
  - { offset: 0xAFAB8, size: 0x8, addend: 0x0, symName: __RNvXse_NtCsdze8u8oDPro_5alloc3vecINtB5_3VecTNtNtCsATtFUPiRFW_3syn4data5FielduEENtNtNtNtCs9f3LFPSIp77_4core4iter6traits7collect12IntoIterator9into_iterBK_, symObjAddr: 0xB23C, symBinAddr: 0x2A3E4, symSize: 0x100 }
  - { offset: 0xAFD87, size: 0x8, addend: 0x0, symName: __RNvXse_NtCsdze8u8oDPro_5alloc3vecINtB5_3VecTNtNtCsATtFUPiRFW_3syn4path11PathSegmentNtNtBK_5token7PathSepEENtNtNtNtCs9f3LFPSIp77_4core4iter6traits7collect12IntoIterator9into_iterBK_, symObjAddr: 0xB33C, symBinAddr: 0x2A4E4, symSize: 0x100 }
  - { offset: 0xB0056, size: 0x8, addend: 0x0, symName: __RNvXse_NtCsdze8u8oDPro_5alloc3vecINtB5_3VecTNtNtCsATtFUPiRFW_3syn8generics14TypeParamBoundNtNtBK_5token4PlusEENtNtNtNtCs9f3LFPSIp77_4core4iter6traits7collect12IntoIterator9into_iterBK_, symObjAddr: 0xB43C, symBinAddr: 0x2A5E4, symSize: 0xF8 }
  - { offset: 0xB032B, size: 0x8, addend: 0x0, symName: __RNvXsf_NtCsdze8u8oDPro_5alloc3vecRINtB5_3VecNtNtCsATtFUPiRFW_3syn4attr9AttributeENtNtNtNtCs9f3LFPSIp77_4core4iter6traits7collect12IntoIterator9into_iterBK_, symObjAddr: 0xB534, symBinAddr: 0x2A6DC, symSize: 0xB0 }
  - { offset: 0xB05AB, size: 0x8, addend: 0x0, symName: __RNvXsf_NtCsdze8u8oDPro_5alloc3vecRINtB5_3VecNtNtCsATtFUPiRFW_3syn4item11ForeignItemENtNtNtNtCs9f3LFPSIp77_4core4iter6traits7collect12IntoIterator9into_iterBK_, symObjAddr: 0xB5E4, symBinAddr: 0x2A78C, symSize: 0xB8 }
  - { offset: 0xB082B, size: 0x8, addend: 0x0, symName: __RNvXsf_NtCsdze8u8oDPro_5alloc3vecRINtB5_3VecNtNtCsATtFUPiRFW_3syn4item4ItemENtNtNtNtCs9f3LFPSIp77_4core4iter6traits7collect12IntoIterator9into_iterBK_, symObjAddr: 0xB69C, symBinAddr: 0x2A844, symSize: 0xB8 }
  - { offset: 0xB0AAB, size: 0x8, addend: 0x0, symName: __RNvXsf_NtCsdze8u8oDPro_5alloc3vecRINtB5_3VecNtNtCsATtFUPiRFW_3syn4item8ImplItemENtNtNtNtCs9f3LFPSIp77_4core4iter6traits7collect12IntoIterator9into_iterBK_, symObjAddr: 0xB754, symBinAddr: 0x2A8FC, symSize: 0xB8 }
  - { offset: 0xB0D2B, size: 0x8, addend: 0x0, symName: __RNvXsf_NtCsdze8u8oDPro_5alloc3vecRINtB5_3VecNtNtCsATtFUPiRFW_3syn4item9TraitItemENtNtNtNtCs9f3LFPSIp77_4core4iter6traits7collect12IntoIterator9into_iterBK_, symObjAddr: 0xB80C, symBinAddr: 0x2A9B4, symSize: 0xB8 }
  - { offset: 0xB0FAB, size: 0x8, addend: 0x0, symName: __RNvXsf_NtCsdze8u8oDPro_5alloc3vecRINtB5_3VecNtNtCsATtFUPiRFW_3syn4stmt4StmtENtNtNtNtCs9f3LFPSIp77_4core4iter6traits7collect12IntoIterator9into_iterBK_, symObjAddr: 0xB8C4, symBinAddr: 0x2AA6C, symSize: 0xB8 }
  - { offset: 0xB122B, size: 0x8, addend: 0x0, symName: __RNvXsf_NtCsdze8u8oDPro_5alloc3vecRINtB5_3VecTNtNtCsATtFUPiRFW_3syn2ty4TypeNtNtBL_5token5CommaEENtNtNtNtCs9f3LFPSIp77_4core4iter6traits7collect12IntoIterator9into_iterBL_, symObjAddr: 0xB97C, symBinAddr: 0x2AB24, symSize: 0xB8 }
  - { offset: 0xB14AB, size: 0x8, addend: 0x0, symName: __RNvXsf_NtCsdze8u8oDPro_5alloc3vecRINtB5_3VecTNtNtCsATtFUPiRFW_3syn2ty9BareFnArgNtNtBL_5token5CommaEENtNtNtNtCs9f3LFPSIp77_4core4iter6traits7collect12IntoIterator9into_iterBL_, symObjAddr: 0xBA34, symBinAddr: 0x2ABDC, symSize: 0xB8 }
  - { offset: 0xB172B, size: 0x8, addend: 0x0, symName: __RNvXsf_NtCsdze8u8oDPro_5alloc3vecRINtB5_3VecTNtNtCsATtFUPiRFW_3syn3pat3PatNtNtBL_5token2OrEENtNtNtNtCs9f3LFPSIp77_4core4iter6traits7collect12IntoIterator9into_iterBL_, symObjAddr: 0xBAEC, symBinAddr: 0x2AC94, symSize: 0xB8 }
  - { offset: 0xB19AB, size: 0x8, addend: 0x0, symName: __RNvXsf_NtCsdze8u8oDPro_5alloc3vecRINtB5_3VecTNtNtCsATtFUPiRFW_3syn3pat3PatNtNtBL_5token5CommaEENtNtNtNtCs9f3LFPSIp77_4core4iter6traits7collect12IntoIterator9into_iterBL_, symObjAddr: 0xBBA4, symBinAddr: 0x2AD4C, symSize: 0xB8 }
  - { offset: 0xB1C2B, size: 0x8, addend: 0x0, symName: __RNvXsf_NtCsdze8u8oDPro_5alloc3vecRINtB5_3VecTNtNtCsATtFUPiRFW_3syn3pat8FieldPatNtNtBL_5token5CommaEENtNtNtNtCs9f3LFPSIp77_4core4iter6traits7collect12IntoIterator9into_iterBL_, symObjAddr: 0xBC5C, symBinAddr: 0x2AE04, symSize: 0xB8 }
  - { offset: 0xB1EAB, size: 0x8, addend: 0x0, symName: __RNvXsf_NtCsdze8u8oDPro_5alloc3vecRINtB5_3VecTNtNtCsATtFUPiRFW_3syn4data5FieldNtNtBL_5token5CommaEENtNtNtNtCs9f3LFPSIp77_4core4iter6traits7collect12IntoIterator9into_iterBL_, symObjAddr: 0xBD14, symBinAddr: 0x2AEBC, symSize: 0xB8 }
  - { offset: 0xB212B, size: 0x8, addend: 0x0, symName: __RNvXsf_NtCsdze8u8oDPro_5alloc3vecRINtB5_3VecTNtNtCsATtFUPiRFW_3syn4data7VariantNtNtBL_5token5CommaEENtNtNtNtCs9f3LFPSIp77_4core4iter6traits7collect12IntoIterator9into_iterBL_, symObjAddr: 0xBDCC, symBinAddr: 0x2AF74, symSize: 0xB8 }
  - { offset: 0xB23AB, size: 0x8, addend: 0x0, symName: __RNvXsf_NtCsdze8u8oDPro_5alloc3vecRINtB5_3VecTNtNtCsATtFUPiRFW_3syn4expr10FieldValueNtNtBL_5token5CommaEENtNtNtNtCs9f3LFPSIp77_4core4iter6traits7collect12IntoIterator9into_iterBL_, symObjAddr: 0xBE84, symBinAddr: 0x2B02C, symSize: 0xB8 }
  - { offset: 0xB262B, size: 0x8, addend: 0x0, symName: __RNvXsf_NtCsdze8u8oDPro_5alloc3vecRINtB5_3VecTNtNtCsATtFUPiRFW_3syn4expr4ExprNtNtBL_5token5CommaEENtNtNtNtCs9f3LFPSIp77_4core4iter6traits7collect12IntoIterator9into_iterBL_, symObjAddr: 0xBF3C, symBinAddr: 0x2B0E4, symSize: 0xB8 }
  - { offset: 0xB28AB, size: 0x8, addend: 0x0, symName: __RNvXsf_NtCsdze8u8oDPro_5alloc3vecRINtB5_3VecTNtNtCsATtFUPiRFW_3syn4item5FnArgNtNtBL_5token5CommaEENtNtNtNtCs9f3LFPSIp77_4core4iter6traits7collect12IntoIterator9into_iterBL_, symObjAddr: 0xBFF4, symBinAddr: 0x2B19C, symSize: 0xB8 }
  - { offset: 0xB2B2B, size: 0x8, addend: 0x0, symName: __RNvXsf_NtCsdze8u8oDPro_5alloc3vecRINtB5_3VecTNtNtCsATtFUPiRFW_3syn4item7UseTreeNtNtBL_5token5CommaEENtNtNtNtCs9f3LFPSIp77_4core4iter6traits7collect12IntoIterator9into_iterBL_, symObjAddr: 0xC0AC, symBinAddr: 0x2B254, symSize: 0xB8 }
  - { offset: 0xB2DAB, size: 0x8, addend: 0x0, symName: __RNvXsf_NtCsdze8u8oDPro_5alloc3vecRINtB5_3VecTNtNtCsATtFUPiRFW_3syn4path11PathSegmentNtNtBL_5token7PathSepEENtNtNtNtCs9f3LFPSIp77_4core4iter6traits7collect12IntoIterator9into_iterBL_, symObjAddr: 0xC164, symBinAddr: 0x2B30C, symSize: 0xB8 }
  - { offset: 0xB302B, size: 0x8, addend: 0x0, symName: __RNvXsf_NtCsdze8u8oDPro_5alloc3vecRINtB5_3VecTNtNtCsATtFUPiRFW_3syn4path15GenericArgumentNtNtBL_5token5CommaEENtNtNtNtCs9f3LFPSIp77_4core4iter6traits7collect12IntoIterator9into_iterBL_, symObjAddr: 0xC21C, symBinAddr: 0x2B3C4, symSize: 0xB8 }
  - { offset: 0xB32AB, size: 0x8, addend: 0x0, symName: __RNvXsf_NtCsdze8u8oDPro_5alloc3vecRINtB5_3VecTNtNtCsATtFUPiRFW_3syn8generics12GenericParamNtNtBL_5token5CommaEENtNtNtNtCs9f3LFPSIp77_4core4iter6traits7collect12IntoIterator9into_iterBL_, symObjAddr: 0xC2D4, symBinAddr: 0x2B47C, symSize: 0xB8 }
  - { offset: 0xB352B, size: 0x8, addend: 0x0, symName: __RNvXsf_NtCsdze8u8oDPro_5alloc3vecRINtB5_3VecTNtNtCsATtFUPiRFW_3syn8generics13CapturedParamNtNtBL_5token5CommaEENtNtNtNtCs9f3LFPSIp77_4core4iter6traits7collect12IntoIterator9into_iterBL_, symObjAddr: 0xC38C, symBinAddr: 0x2B534, symSize: 0xB8 }
  - { offset: 0xB37AB, size: 0x8, addend: 0x0, symName: __RNvXsf_NtCsdze8u8oDPro_5alloc3vecRINtB5_3VecTNtNtCsATtFUPiRFW_3syn8generics14TypeParamBoundNtNtBL_5token4PlusEENtNtNtNtCs9f3LFPSIp77_4core4iter6traits7collect12IntoIterator9into_iterBL_, symObjAddr: 0xC444, symBinAddr: 0x2B5EC, symSize: 0xB0 }
  - { offset: 0xB3A2B, size: 0x8, addend: 0x0, symName: __RNvXsf_NtCsdze8u8oDPro_5alloc3vecRINtB5_3VecTNtNtCsATtFUPiRFW_3syn8generics14WherePredicateNtNtBL_5token5CommaEENtNtNtNtCs9f3LFPSIp77_4core4iter6traits7collect12IntoIterator9into_iterBL_, symObjAddr: 0xC4F4, symBinAddr: 0x2B69C, symSize: 0xB8 }
  - { offset: 0xB3CAB, size: 0x8, addend: 0x0, symName: __RNvXsf_NtCsdze8u8oDPro_5alloc3vecRINtB5_3VecTNtNtCsATtFUPiRFW_3syn8lifetime8LifetimeNtNtBL_5token4PlusEENtNtNtNtCs9f3LFPSIp77_4core4iter6traits7collect12IntoIterator9into_iterBL_, symObjAddr: 0xC5AC, symBinAddr: 0x2B754, symSize: 0xB8 }
  - { offset: 0xB3F31, size: 0x8, addend: 0x0, symName: __RNvXsg_NtCsdze8u8oDPro_5alloc3vecQINtB5_3VechENtNtNtNtCs9f3LFPSIp77_4core4iter6traits7collect12IntoIterator9into_iterCsATtFUPiRFW_3syn, symObjAddr: 0xC664, symBinAddr: 0x2B80C, symSize: 0xB0 }
  - { offset: 0xB41A5, size: 0x8, addend: 0x0, symName: __RNvXsn_NtCsdze8u8oDPro_5alloc3vecINtB5_3VecNtNtCsATtFUPiRFW_3syn4attr9AttributeENtNtNtCs9f3LFPSIp77_4core3ops4drop4Drop4dropBJ_, symObjAddr: 0xC714, symBinAddr: 0x2B8BC, symSize: 0x50 }
  - { offset: 0xB42B2, size: 0x8, addend: 0x0, symName: __RNvXsn_NtCsdze8u8oDPro_5alloc3vecINtB5_3VecNtNtCsATtFUPiRFW_3syn4data5FieldENtNtNtCs9f3LFPSIp77_4core3ops4drop4Drop4dropBJ_, symObjAddr: 0xC764, symBinAddr: 0x2B90C, symSize: 0x50 }
  - { offset: 0xB43BF, size: 0x8, addend: 0x0, symName: __RNvXsn_NtCsdze8u8oDPro_5alloc3vecINtB5_3VecNtNtCsATtFUPiRFW_3syn4expr3ArmENtNtNtCs9f3LFPSIp77_4core3ops4drop4Drop4dropBJ_, symObjAddr: 0xC7B4, symBinAddr: 0x2B95C, symSize: 0x50 }
  - { offset: 0xB44CC, size: 0x8, addend: 0x0, symName: __RNvXsn_NtCsdze8u8oDPro_5alloc3vecINtB5_3VecNtNtCsATtFUPiRFW_3syn4expr6ExprIfENtNtNtCs9f3LFPSIp77_4core3ops4drop4Drop4dropBJ_, symObjAddr: 0xC804, symBinAddr: 0x2B9AC, symSize: 0x50 }
  - { offset: 0xB45D9, size: 0x8, addend: 0x0, symName: __RNvXsn_NtCsdze8u8oDPro_5alloc3vecINtB5_3VecNtNtCsATtFUPiRFW_3syn4item11ForeignItemENtNtNtCs9f3LFPSIp77_4core3ops4drop4Drop4dropBJ_, symObjAddr: 0xC854, symBinAddr: 0x2B9FC, symSize: 0x50 }
  - { offset: 0xB46E6, size: 0x8, addend: 0x0, symName: __RNvXsn_NtCsdze8u8oDPro_5alloc3vecINtB5_3VecNtNtCsATtFUPiRFW_3syn4item4ItemENtNtNtCs9f3LFPSIp77_4core3ops4drop4Drop4dropBJ_, symObjAddr: 0xC8A4, symBinAddr: 0x2BA4C, symSize: 0x50 }
  - { offset: 0xB47F3, size: 0x8, addend: 0x0, symName: __RNvXsn_NtCsdze8u8oDPro_5alloc3vecINtB5_3VecNtNtCsATtFUPiRFW_3syn4item8ImplItemENtNtNtCs9f3LFPSIp77_4core3ops4drop4Drop4dropBJ_, symObjAddr: 0xC8F4, symBinAddr: 0x2BA9C, symSize: 0x50 }
  - { offset: 0xB4900, size: 0x8, addend: 0x0, symName: __RNvXsn_NtCsdze8u8oDPro_5alloc3vecINtB5_3VecNtNtCsATtFUPiRFW_3syn4item9TraitItemENtNtNtCs9f3LFPSIp77_4core3ops4drop4Drop4dropBJ_, symObjAddr: 0xC944, symBinAddr: 0x2BAEC, symSize: 0x50 }
  - { offset: 0xB4A0D, size: 0x8, addend: 0x0, symName: __RNvXsn_NtCsdze8u8oDPro_5alloc3vecINtB5_3VecNtNtCsATtFUPiRFW_3syn4stmt4StmtENtNtNtCs9f3LFPSIp77_4core3ops4drop4Drop4dropBJ_, symObjAddr: 0xC994, symBinAddr: 0x2BB3C, symSize: 0x50 }
  - { offset: 0xB4B1A, size: 0x8, addend: 0x0, symName: __RNvXsn_NtCsdze8u8oDPro_5alloc3vecINtB5_3VecNtNtCsATtFUPiRFW_3syn5error12ErrorMessageENtNtNtCs9f3LFPSIp77_4core3ops4drop4Drop4dropBJ_, symObjAddr: 0xC9E4, symBinAddr: 0x2BB8C, symSize: 0x50 }
  - { offset: 0xB4C27, size: 0x8, addend: 0x0, symName: __RNvXsn_NtCsdze8u8oDPro_5alloc3vecINtB5_3VecNtNtCsATtFUPiRFW_3syn6buffer5EntryENtNtNtCs9f3LFPSIp77_4core3ops4drop4Drop4dropBJ_, symObjAddr: 0xCA34, symBinAddr: 0x2BBDC, symSize: 0x50 }
  - { offset: 0xB4D34, size: 0x8, addend: 0x0, symName: __RNvXsn_NtCsdze8u8oDPro_5alloc3vecINtB5_3VecNtNtCsATtFUPiRFW_3syn8generics14TypeParamBoundENtNtNtCs9f3LFPSIp77_4core3ops4drop4Drop4dropBJ_, symObjAddr: 0xCA84, symBinAddr: 0x2BC2C, symSize: 0x50 }
  - { offset: 0xB4E41, size: 0x8, addend: 0x0, symName: __RNvXsn_NtCsdze8u8oDPro_5alloc3vecINtB5_3VecReENtNtNtCs9f3LFPSIp77_4core3ops4drop4Drop4dropCsATtFUPiRFW_3syn, symObjAddr: 0xCAD4, symBinAddr: 0x2BC7C, symSize: 0x3C }
  - { offset: 0xB4F4E, size: 0x8, addend: 0x0, symName: __RNvXsn_NtCsdze8u8oDPro_5alloc3vecINtB5_3VecTNtNtCsATtFUPiRFW_3syn2ty4TypeNtNtBK_5token5CommaEENtNtNtCs9f3LFPSIp77_4core3ops4drop4Drop4dropBK_, symObjAddr: 0xCB10, symBinAddr: 0x2BCB8, symSize: 0x50 }
  - { offset: 0xB505B, size: 0x8, addend: 0x0, symName: __RNvXsn_NtCsdze8u8oDPro_5alloc3vecINtB5_3VecTNtNtCsATtFUPiRFW_3syn2ty9BareFnArgNtNtBK_5token5CommaEENtNtNtCs9f3LFPSIp77_4core3ops4drop4Drop4dropBK_, symObjAddr: 0xCB60, symBinAddr: 0x2BD08, symSize: 0x50 }
  - { offset: 0xB5168, size: 0x8, addend: 0x0, symName: __RNvXsn_NtCsdze8u8oDPro_5alloc3vecINtB5_3VecTNtNtCsATtFUPiRFW_3syn3pat3PatNtNtBK_5token2OrEENtNtNtCs9f3LFPSIp77_4core3ops4drop4Drop4dropBK_, symObjAddr: 0xCBB0, symBinAddr: 0x2BD58, symSize: 0x50 }
  - { offset: 0xB5275, size: 0x8, addend: 0x0, symName: __RNvXsn_NtCsdze8u8oDPro_5alloc3vecINtB5_3VecTNtNtCsATtFUPiRFW_3syn3pat3PatNtNtBK_5token5CommaEENtNtNtCs9f3LFPSIp77_4core3ops4drop4Drop4dropBK_, symObjAddr: 0xCC00, symBinAddr: 0x2BDA8, symSize: 0x50 }
  - { offset: 0xB5382, size: 0x8, addend: 0x0, symName: __RNvXsn_NtCsdze8u8oDPro_5alloc3vecINtB5_3VecTNtNtCsATtFUPiRFW_3syn3pat8FieldPatNtNtBK_5token5CommaEENtNtNtCs9f3LFPSIp77_4core3ops4drop4Drop4dropBK_, symObjAddr: 0xCC50, symBinAddr: 0x2BDF8, symSize: 0x50 }
  - { offset: 0xB548F, size: 0x8, addend: 0x0, symName: __RNvXsn_NtCsdze8u8oDPro_5alloc3vecINtB5_3VecTNtNtCsATtFUPiRFW_3syn4data5FieldNtNtBK_5token5CommaEENtNtNtCs9f3LFPSIp77_4core3ops4drop4Drop4dropBK_, symObjAddr: 0xCCA0, symBinAddr: 0x2BE48, symSize: 0x50 }
  - { offset: 0xB559C, size: 0x8, addend: 0x0, symName: __RNvXsn_NtCsdze8u8oDPro_5alloc3vecINtB5_3VecTNtNtCsATtFUPiRFW_3syn4data5FielduEENtNtNtCs9f3LFPSIp77_4core3ops4drop4Drop4dropBK_, symObjAddr: 0xCCF0, symBinAddr: 0x2BE98, symSize: 0x50 }
  - { offset: 0xB56A9, size: 0x8, addend: 0x0, symName: __RNvXsn_NtCsdze8u8oDPro_5alloc3vecINtB5_3VecTNtNtCsATtFUPiRFW_3syn4data7VariantNtNtBK_5token5CommaEENtNtNtCs9f3LFPSIp77_4core3ops4drop4Drop4dropBK_, symObjAddr: 0xCD40, symBinAddr: 0x2BEE8, symSize: 0x50 }
  - { offset: 0xB57B6, size: 0x8, addend: 0x0, symName: __RNvXsn_NtCsdze8u8oDPro_5alloc3vecINtB5_3VecTNtNtCsATtFUPiRFW_3syn4expr10FieldValueNtNtBK_5token5CommaEENtNtNtCs9f3LFPSIp77_4core3ops4drop4Drop4dropBK_, symObjAddr: 0xCD90, symBinAddr: 0x2BF38, symSize: 0x50 }
  - { offset: 0xB58C3, size: 0x8, addend: 0x0, symName: __RNvXsn_NtCsdze8u8oDPro_5alloc3vecINtB5_3VecTNtNtCsATtFUPiRFW_3syn4expr4ExprNtNtBK_5token5CommaEENtNtNtCs9f3LFPSIp77_4core3ops4drop4Drop4dropBK_, symObjAddr: 0xCDE0, symBinAddr: 0x2BF88, symSize: 0x50 }
  - { offset: 0xB59D0, size: 0x8, addend: 0x0, symName: __RNvXsn_NtCsdze8u8oDPro_5alloc3vecINtB5_3VecTNtNtCsATtFUPiRFW_3syn4item5FnArgNtNtBK_5token5CommaEENtNtNtCs9f3LFPSIp77_4core3ops4drop4Drop4dropBK_, symObjAddr: 0xCE30, symBinAddr: 0x2BFD8, symSize: 0x50 }
  - { offset: 0xB5ADD, size: 0x8, addend: 0x0, symName: __RNvXsn_NtCsdze8u8oDPro_5alloc3vecINtB5_3VecTNtNtCsATtFUPiRFW_3syn4item7UseTreeNtNtBK_5token5CommaEENtNtNtCs9f3LFPSIp77_4core3ops4drop4Drop4dropBK_, symObjAddr: 0xCE80, symBinAddr: 0x2C028, symSize: 0x50 }
  - { offset: 0xB5BEA, size: 0x8, addend: 0x0, symName: __RNvXsn_NtCsdze8u8oDPro_5alloc3vecINtB5_3VecTNtNtCsATtFUPiRFW_3syn4path11PathSegmentNtNtBK_5token7PathSepEENtNtNtCs9f3LFPSIp77_4core3ops4drop4Drop4dropBK_, symObjAddr: 0xCED0, symBinAddr: 0x2C078, symSize: 0x50 }
  - { offset: 0xB5CF7, size: 0x8, addend: 0x0, symName: __RNvXsn_NtCsdze8u8oDPro_5alloc3vecINtB5_3VecTNtNtCsATtFUPiRFW_3syn4path15GenericArgumentNtNtBK_5token5CommaEENtNtNtCs9f3LFPSIp77_4core3ops4drop4Drop4dropBK_, symObjAddr: 0xCF20, symBinAddr: 0x2C0C8, symSize: 0x50 }
  - { offset: 0xB5E04, size: 0x8, addend: 0x0, symName: __RNvXsn_NtCsdze8u8oDPro_5alloc3vecINtB5_3VecTNtNtCsATtFUPiRFW_3syn8generics12GenericParamNtNtBK_5token5CommaEENtNtNtCs9f3LFPSIp77_4core3ops4drop4Drop4dropBK_, symObjAddr: 0xCF70, symBinAddr: 0x2C118, symSize: 0x50 }
  - { offset: 0xB5F11, size: 0x8, addend: 0x0, symName: __RNvXsn_NtCsdze8u8oDPro_5alloc3vecINtB5_3VecTNtNtCsATtFUPiRFW_3syn8generics13CapturedParamNtNtBK_5token5CommaEENtNtNtCs9f3LFPSIp77_4core3ops4drop4Drop4dropBK_, symObjAddr: 0xCFC0, symBinAddr: 0x2C168, symSize: 0x50 }
  - { offset: 0xB601E, size: 0x8, addend: 0x0, symName: __RNvXsn_NtCsdze8u8oDPro_5alloc3vecINtB5_3VecTNtNtCsATtFUPiRFW_3syn8generics14TypeParamBoundNtNtBK_5token4PlusEENtNtNtCs9f3LFPSIp77_4core3ops4drop4Drop4dropBK_, symObjAddr: 0xD010, symBinAddr: 0x2C1B8, symSize: 0x50 }
  - { offset: 0xB612B, size: 0x8, addend: 0x0, symName: __RNvXsn_NtCsdze8u8oDPro_5alloc3vecINtB5_3VecTNtNtCsATtFUPiRFW_3syn8generics14WherePredicateNtNtBK_5token5CommaEENtNtNtCs9f3LFPSIp77_4core3ops4drop4Drop4dropBK_, symObjAddr: 0xD060, symBinAddr: 0x2C208, symSize: 0x50 }
  - { offset: 0xB6238, size: 0x8, addend: 0x0, symName: __RNvXsn_NtCsdze8u8oDPro_5alloc3vecINtB5_3VecTNtNtCsATtFUPiRFW_3syn8lifetime8LifetimeNtNtBK_5token4PlusEENtNtNtCs9f3LFPSIp77_4core3ops4drop4Drop4dropBK_, symObjAddr: 0xD0B0, symBinAddr: 0x2C258, symSize: 0x50 }
  - { offset: 0xB634B, size: 0x8, addend: 0x0, symName: __RNvXsp_NtCsdze8u8oDPro_5alloc3vecINtB5_3VecNtNtCsATtFUPiRFW_3syn4attr9AttributeENtNtCs9f3LFPSIp77_4core3fmt5Debug3fmtBJ_, symObjAddr: 0xD100, symBinAddr: 0x2C2A8, symSize: 0x8C }
  - { offset: 0xB64AF, size: 0x8, addend: 0x0, symName: __RNvXsp_NtCsdze8u8oDPro_5alloc3vecINtB5_3VecNtNtCsATtFUPiRFW_3syn4expr3ArmENtNtCs9f3LFPSIp77_4core3fmt5Debug3fmtBJ_, symObjAddr: 0xD18C, symBinAddr: 0x2C334, symSize: 0x8C }
  - { offset: 0xB6613, size: 0x8, addend: 0x0, symName: __RNvXsp_NtCsdze8u8oDPro_5alloc3vecINtB5_3VecNtNtCsATtFUPiRFW_3syn4item11ForeignItemENtNtCs9f3LFPSIp77_4core3fmt5Debug3fmtBJ_, symObjAddr: 0xD218, symBinAddr: 0x2C3C0, symSize: 0x8C }
  - { offset: 0xB6777, size: 0x8, addend: 0x0, symName: __RNvXsp_NtCsdze8u8oDPro_5alloc3vecINtB5_3VecNtNtCsATtFUPiRFW_3syn4item4ItemENtNtCs9f3LFPSIp77_4core3fmt5Debug3fmtBJ_, symObjAddr: 0xD2A4, symBinAddr: 0x2C44C, symSize: 0x8C }
  - { offset: 0xB68DB, size: 0x8, addend: 0x0, symName: __RNvXsp_NtCsdze8u8oDPro_5alloc3vecINtB5_3VecNtNtCsATtFUPiRFW_3syn4item8ImplItemENtNtCs9f3LFPSIp77_4core3fmt5Debug3fmtBJ_, symObjAddr: 0xD330, symBinAddr: 0x2C4D8, symSize: 0x8C }
  - { offset: 0xB6A3F, size: 0x8, addend: 0x0, symName: __RNvXsp_NtCsdze8u8oDPro_5alloc3vecINtB5_3VecNtNtCsATtFUPiRFW_3syn4item9TraitItemENtNtCs9f3LFPSIp77_4core3fmt5Debug3fmtBJ_, symObjAddr: 0xD3BC, symBinAddr: 0x2C564, symSize: 0x8C }
  - { offset: 0xB6BA3, size: 0x8, addend: 0x0, symName: __RNvXsp_NtCsdze8u8oDPro_5alloc3vecINtB5_3VecNtNtCsATtFUPiRFW_3syn4stmt4StmtENtNtCs9f3LFPSIp77_4core3fmt5Debug3fmtBJ_, symObjAddr: 0xD448, symBinAddr: 0x2C5F0, symSize: 0x8C }
  - { offset: 0xB6D07, size: 0x8, addend: 0x0, symName: __RNvXsp_NtCsdze8u8oDPro_5alloc3vecINtB5_3VecNtNtCsATtFUPiRFW_3syn5error12ErrorMessageENtNtCs9f3LFPSIp77_4core3fmt5Debug3fmtBJ_, symObjAddr: 0xD4D4, symBinAddr: 0x2C67C, symSize: 0x8C }
  - { offset: 0xB6E6B, size: 0x8, addend: 0x0, symName: __RNvXsp_NtCsdze8u8oDPro_5alloc3vecINtB5_3VechENtNtCs9f3LFPSIp77_4core3fmt5Debug3fmtCsATtFUPiRFW_3syn, symObjAddr: 0xD560, symBinAddr: 0x2C708, symSize: 0x88 }
  - { offset: 0xB9E2C, size: 0x8, addend: 0x0, symName: __RNvXsS_NtCsdze8u8oDPro_5alloc6stringINtNtB7_3vec3VechEINtNtCs9f3LFPSIp77_4core7convert4FromNtB5_6StringE4fromCsATtFUPiRFW_3syn, symObjAddr: 0x9994, symBinAddr: 0x28B3C, symSize: 0x18 }
  - { offset: 0xBA06B, size: 0x8, addend: 0x0, symName: __RNvXNvMs_NtNtCsdze8u8oDPro_5alloc3ffi5c_strNtB7_7CString3newINtNtBb_3vec3VechENtB2_11SpecNewImpl13spec_new_implCsATtFUPiRFW_3syn, symObjAddr: 0x8034, symBinAddr: 0x271DC, symSize: 0x190 }
  - { offset: 0xBFCFA, size: 0x8, addend: 0x0, symName: __RNvXs0_NtCsATtFUPiRFW_3syn11parse_quoteINtNtCsdze8u8oDPro_5alloc3vec3VecNtNtB7_4attr9AttributeENtB5_10ParseQuote5parse, symObjAddr: 0xD5E8, symBinAddr: 0x2C790, symSize: 0x1C4 }
  - { offset: 0xBFD5F, size: 0x8, addend: 0x0, symName: __RNvXs5_NtCsATtFUPiRFW_3syn11parse_quoteINtNtCsdze8u8oDPro_5alloc3vec3VecNtNtB7_4stmt4StmtENtB5_10ParseQuote5parse, symObjAddr: 0xD7AC, symBinAddr: 0x2C954, symSize: 0x34 }
  - { offset: 0xBFD91, size: 0x8, addend: 0x0, symName: __RNvXs6_NtCsATtFUPiRFW_3syn11parse_quoteINtNtCsdze8u8oDPro_5alloc3vec3VecNtNtB7_4expr3ArmENtB5_10ParseQuote5parse, symObjAddr: 0xD7E0, symBinAddr: 0x2C988, symSize: 0x34 }
  - { offset: 0xBFF0C, size: 0x8, addend: 0x0, symName: __RINvMs_NtCsdze8u8oDPro_5alloc3vecINtB5_3VecReE10retain_mutNCNvMNtCsATtFUPiRFW_3syn9lookaheadNtBZ_10Lookahead15error0EB11_, symObjAddr: 0x0, symBinAddr: 0x1F1A8, symSize: 0xE4 }
  - { offset: 0xC0243, size: 0x8, addend: 0x0, symName: __RINvMsi_NtCsdze8u8oDPro_5alloc3vecINtB6_3VecNtCs475r2uZUTuc_11proc_macro29TokenTreeE16extend_desugaredINtNtNtNtCs9f3LFPSIp77_4core4iter8adapters7flatten7FlattenINtNtB1H_3map3MapIB2z_IB2z_INtNtNtB1L_5slice4iter4IterNtNtCsATtFUPiRFW_3syn5error12ErrorMessageENvMs_B3s_B3q_16to_compile_errorENCINvXs7_BI_NtBI_11TokenStreamINtNtNtB1J_6traits7collect12FromIteratorB4O_E9from_iterB2U_E0ENCINvXs6_NtBI_3impNtB6f_11TokenStreamIB57_B6o_E9from_iterB2P_Es_0EEEB3u_, symObjAddr: 0xE4, symBinAddr: 0x1F28C, symSize: 0x1E0 }
  - { offset: 0xC0690, size: 0x8, addend: 0x0, symName: __RINvMsi_NtCsdze8u8oDPro_5alloc3vecINtB6_3VecNtCs475r2uZUTuc_11proc_macro29TokenTreeE16extend_desugaredNtNtBI_12token_stream8IntoIterECsATtFUPiRFW_3syn, symObjAddr: 0x2C4, symBinAddr: 0x1F46C, symSize: 0x1E0 }
  - { offset: 0xC108D, size: 0x8, addend: 0x0, symName: __RINvMsi_NtCsdze8u8oDPro_5alloc3vecINtB6_3VecNtNtCsATtFUPiRFW_3syn4data5FieldE14extend_trustedINtNtCs9f3LFPSIp77_4core6option8IntoIterBG_EEBK_, symObjAddr: 0x4A4, symBinAddr: 0x1F64C, symSize: 0x1B4 }
  - { offset: 0xC1410, size: 0x8, addend: 0x0, symName: __RINvMsi_NtCsdze8u8oDPro_5alloc3vecINtB6_3VecNtNtCsATtFUPiRFW_3syn4data5FieldE14extend_trustedINtNtNtNtCs9f3LFPSIp77_4core4iter8adapters3map3MapINtNtB6_9into_iter8IntoIterTBG_NtNtBK_5token5CommaEENCNvXs8_NtBK_10punctuatedINtB3f_10PunctuatedBG_B2M_ENtNtNtB1A_6traits7collect12IntoIterator9into_iter0EEBK_, symObjAddr: 0x658, symBinAddr: 0x1F800, symSize: 0x19C }
  - { offset: 0xC17B3, size: 0x8, addend: 0x0, symName: __RINvMsi_NtCsdze8u8oDPro_5alloc3vecINtB6_3VecNtNtCsATtFUPiRFW_3syn4data5FieldE14extend_trustedINtNtNtNtCs9f3LFPSIp77_4core4iter8adapters3map3MapINtNtB6_9into_iter8IntoIterTBG_uEENCNvXs8_NtBK_10punctuatedINtB2X_10PunctuatedBG_uENtNtNtB1A_6traits7collect12IntoIterator9into_iter0EEBK_, symObjAddr: 0x7F4, symBinAddr: 0x1F99C, symSize: 0x19C }
  - { offset: 0xC1B5D, size: 0x8, addend: 0x0, symName: __RINvMsi_NtCsdze8u8oDPro_5alloc3vecINtB6_3VecNtNtCsATtFUPiRFW_3syn8generics14TypeParamBoundE14extend_trustedINtNtCs9f3LFPSIp77_4core6option8IntoIterBG_EEBK_, symObjAddr: 0x990, symBinAddr: 0x1FB38, symSize: 0x1B4 }
  - { offset: 0xC1EE0, size: 0x8, addend: 0x0, symName: __RINvMsi_NtCsdze8u8oDPro_5alloc3vecINtB6_3VecNtNtCsATtFUPiRFW_3syn8generics14TypeParamBoundE14extend_trustedINtNtNtNtCs9f3LFPSIp77_4core4iter8adapters3map3MapINtNtB6_9into_iter8IntoIterTBG_NtNtBK_5token4PlusEENCNvXs8_NtBK_10punctuatedINtB3s_10PunctuatedBG_B30_ENtNtNtB1O_6traits7collect12IntoIterator9into_iter0EEBK_, symObjAddr: 0xB44, symBinAddr: 0x1FCEC, symSize: 0x19C }
  - { offset: 0xC24B3, size: 0x8, addend: 0x0, symName: __RNvMNtCsdze8u8oDPro_5alloc3vecINtB2_3VecNtNtCsATtFUPiRFW_3syn4attr9AttributeE3newBG_, symObjAddr: 0x1408, symBinAddr: 0x205B0, symSize: 0x28 }
  - { offset: 0xC259C, size: 0x8, addend: 0x0, symName: __RNvMNtCsdze8u8oDPro_5alloc3vecINtB2_3VecNtNtCsATtFUPiRFW_3syn4data5FieldE13with_capacityBG_, symObjAddr: 0x1430, symBinAddr: 0x205D8, symSize: 0x44 }
  - { offset: 0xC267F, size: 0x8, addend: 0x0, symName: __RNvMNtCsdze8u8oDPro_5alloc3vecINtB2_3VecNtNtCsATtFUPiRFW_3syn4expr3ArmE3newBG_, symObjAddr: 0x1474, symBinAddr: 0x2061C, symSize: 0x28 }
  - { offset: 0xC2773, size: 0x8, addend: 0x0, symName: __RNvMNtCsdze8u8oDPro_5alloc3vecINtB2_3VecNtNtCsATtFUPiRFW_3syn4expr6ExprIfE3newBG_, symObjAddr: 0x149C, symBinAddr: 0x20644, symSize: 0x28 }
  - { offset: 0xC2867, size: 0x8, addend: 0x0, symName: __RNvMNtCsdze8u8oDPro_5alloc3vecINtB2_3VecNtNtCsATtFUPiRFW_3syn4item11ForeignItemE3newBG_, symObjAddr: 0x14C4, symBinAddr: 0x2066C, symSize: 0x28 }
  - { offset: 0xC295B, size: 0x8, addend: 0x0, symName: __RNvMNtCsdze8u8oDPro_5alloc3vecINtB2_3VecNtNtCsATtFUPiRFW_3syn4item4ItemE3newBG_, symObjAddr: 0x14EC, symBinAddr: 0x20694, symSize: 0x28 }
  - { offset: 0xC2A4F, size: 0x8, addend: 0x0, symName: __RNvMNtCsdze8u8oDPro_5alloc3vecINtB2_3VecNtNtCsATtFUPiRFW_3syn4item8ImplItemE3newBG_, symObjAddr: 0x1514, symBinAddr: 0x206BC, symSize: 0x28 }
  - { offset: 0xC2B43, size: 0x8, addend: 0x0, symName: __RNvMNtCsdze8u8oDPro_5alloc3vecINtB2_3VecNtNtCsATtFUPiRFW_3syn4item9TraitItemE3newBG_, symObjAddr: 0x153C, symBinAddr: 0x206E4, symSize: 0x28 }
  - { offset: 0xC2C37, size: 0x8, addend: 0x0, symName: __RNvMNtCsdze8u8oDPro_5alloc3vecINtB2_3VecNtNtCsATtFUPiRFW_3syn4stmt4StmtE3newBG_, symObjAddr: 0x1564, symBinAddr: 0x2070C, symSize: 0x28 }
  - { offset: 0xC2D2B, size: 0x8, addend: 0x0, symName: __RNvMNtCsdze8u8oDPro_5alloc3vecINtB2_3VecNtNtCsATtFUPiRFW_3syn6buffer5EntryE3newBG_, symObjAddr: 0x158C, symBinAddr: 0x20734, symSize: 0x28 }
  - { offset: 0xC2E14, size: 0x8, addend: 0x0, symName: __RNvMNtCsdze8u8oDPro_5alloc3vecINtB2_3VecNtNtCsATtFUPiRFW_3syn8generics14TypeParamBoundE13with_capacityBG_, symObjAddr: 0x15B4, symBinAddr: 0x2075C, symSize: 0x44 }
  - { offset: 0xC2EF7, size: 0x8, addend: 0x0, symName: __RNvMNtCsdze8u8oDPro_5alloc3vecINtB2_3VecReE3newCsATtFUPiRFW_3syn, symObjAddr: 0x15F8, symBinAddr: 0x207A0, symSize: 0x28 }
  - { offset: 0xC2FEB, size: 0x8, addend: 0x0, symName: __RNvMNtCsdze8u8oDPro_5alloc3vecINtB2_3VecTNtNtCsATtFUPiRFW_3syn2ty4TypeNtNtBH_5token5CommaEE3newBH_, symObjAddr: 0x1620, symBinAddr: 0x207C8, symSize: 0x28 }
  - { offset: 0xC30DF, size: 0x8, addend: 0x0, symName: __RNvMNtCsdze8u8oDPro_5alloc3vecINtB2_3VecTNtNtCsATtFUPiRFW_3syn2ty9BareFnArgNtNtBH_5token5CommaEE3newBH_, symObjAddr: 0x1648, symBinAddr: 0x207F0, symSize: 0x28 }
  - { offset: 0xC31D3, size: 0x8, addend: 0x0, symName: __RNvMNtCsdze8u8oDPro_5alloc3vecINtB2_3VecTNtNtCsATtFUPiRFW_3syn3pat3PatNtNtBH_5token2OrEE3newBH_, symObjAddr: 0x1670, symBinAddr: 0x20818, symSize: 0x28 }
  - { offset: 0xC32C7, size: 0x8, addend: 0x0, symName: __RNvMNtCsdze8u8oDPro_5alloc3vecINtB2_3VecTNtNtCsATtFUPiRFW_3syn3pat3PatNtNtBH_5token5CommaEE3newBH_, symObjAddr: 0x1698, symBinAddr: 0x20840, symSize: 0x28 }
  - { offset: 0xC33BB, size: 0x8, addend: 0x0, symName: __RNvMNtCsdze8u8oDPro_5alloc3vecINtB2_3VecTNtNtCsATtFUPiRFW_3syn3pat8FieldPatNtNtBH_5token5CommaEE3newBH_, symObjAddr: 0x16C0, symBinAddr: 0x20868, symSize: 0x28 }
  - { offset: 0xC34AF, size: 0x8, addend: 0x0, symName: __RNvMNtCsdze8u8oDPro_5alloc3vecINtB2_3VecTNtNtCsATtFUPiRFW_3syn4data5FieldNtNtBH_5token5CommaEE3newBH_, symObjAddr: 0x16E8, symBinAddr: 0x20890, symSize: 0x28 }
  - { offset: 0xC35A3, size: 0x8, addend: 0x0, symName: __RNvMNtCsdze8u8oDPro_5alloc3vecINtB2_3VecTNtNtCsATtFUPiRFW_3syn4data5FielduEE3newBH_, symObjAddr: 0x1710, symBinAddr: 0x208B8, symSize: 0x28 }
  - { offset: 0xC3697, size: 0x8, addend: 0x0, symName: __RNvMNtCsdze8u8oDPro_5alloc3vecINtB2_3VecTNtNtCsATtFUPiRFW_3syn4data7VariantNtNtBH_5token5CommaEE3newBH_, symObjAddr: 0x1738, symBinAddr: 0x208E0, symSize: 0x28 }
  - { offset: 0xC378B, size: 0x8, addend: 0x0, symName: __RNvMNtCsdze8u8oDPro_5alloc3vecINtB2_3VecTNtNtCsATtFUPiRFW_3syn4expr10FieldValueNtNtBH_5token5CommaEE3newBH_, symObjAddr: 0x1760, symBinAddr: 0x20908, symSize: 0x28 }
  - { offset: 0xC387F, size: 0x8, addend: 0x0, symName: __RNvMNtCsdze8u8oDPro_5alloc3vecINtB2_3VecTNtNtCsATtFUPiRFW_3syn4expr4ExprNtNtBH_5token5CommaEE3newBH_, symObjAddr: 0x1788, symBinAddr: 0x20930, symSize: 0x28 }
  - { offset: 0xC3973, size: 0x8, addend: 0x0, symName: __RNvMNtCsdze8u8oDPro_5alloc3vecINtB2_3VecTNtNtCsATtFUPiRFW_3syn4item5FnArgNtNtBH_5token5CommaEE3newBH_, symObjAddr: 0x17B0, symBinAddr: 0x20958, symSize: 0x28 }
  - { offset: 0xC3A67, size: 0x8, addend: 0x0, symName: __RNvMNtCsdze8u8oDPro_5alloc3vecINtB2_3VecTNtNtCsATtFUPiRFW_3syn4item7UseTreeNtNtBH_5token5CommaEE3newBH_, symObjAddr: 0x17D8, symBinAddr: 0x20980, symSize: 0x28 }
  - { offset: 0xC3B5B, size: 0x8, addend: 0x0, symName: __RNvMNtCsdze8u8oDPro_5alloc3vecINtB2_3VecTNtNtCsATtFUPiRFW_3syn4path11PathSegmentNtNtBH_5token7PathSepEE3newBH_, symObjAddr: 0x1800, symBinAddr: 0x209A8, symSize: 0x28 }
  - { offset: 0xC3C4F, size: 0x8, addend: 0x0, symName: __RNvMNtCsdze8u8oDPro_5alloc3vecINtB2_3VecTNtNtCsATtFUPiRFW_3syn4path15GenericArgumentNtNtBH_5token5CommaEE3newBH_, symObjAddr: 0x1828, symBinAddr: 0x209D0, symSize: 0x28 }
  - { offset: 0xC3D43, size: 0x8, addend: 0x0, symName: __RNvMNtCsdze8u8oDPro_5alloc3vecINtB2_3VecTNtNtCsATtFUPiRFW_3syn8generics12GenericParamNtNtBH_5token5CommaEE3newBH_, symObjAddr: 0x1850, symBinAddr: 0x209F8, symSize: 0x28 }
  - { offset: 0xC3E37, size: 0x8, addend: 0x0, symName: __RNvMNtCsdze8u8oDPro_5alloc3vecINtB2_3VecTNtNtCsATtFUPiRFW_3syn8generics13CapturedParamNtNtBH_5token5CommaEE3newBH_, symObjAddr: 0x1878, symBinAddr: 0x20A20, symSize: 0x28 }
  - { offset: 0xC3F2B, size: 0x8, addend: 0x0, symName: __RNvMNtCsdze8u8oDPro_5alloc3vecINtB2_3VecTNtNtCsATtFUPiRFW_3syn8generics14TypeParamBoundNtNtBH_5token4PlusEE3newBH_, symObjAddr: 0x18A0, symBinAddr: 0x20A48, symSize: 0x28 }
  - { offset: 0xC401F, size: 0x8, addend: 0x0, symName: __RNvMNtCsdze8u8oDPro_5alloc3vecINtB2_3VecTNtNtCsATtFUPiRFW_3syn8generics14WherePredicateNtNtBH_5token5CommaEE3newBH_, symObjAddr: 0x18C8, symBinAddr: 0x20A70, symSize: 0x28 }
  - { offset: 0xC4113, size: 0x8, addend: 0x0, symName: __RNvMNtCsdze8u8oDPro_5alloc3vecINtB2_3VecTNtNtCsATtFUPiRFW_3syn8lifetime8LifetimeNtNtBH_5token4PlusEE3newBH_, symObjAddr: 0x18F0, symBinAddr: 0x20A98, symSize: 0x28 }
  - { offset: 0xC4207, size: 0x8, addend: 0x0, symName: __RNvMNtCsdze8u8oDPro_5alloc3vecINtB2_3VechE3newCsATtFUPiRFW_3syn, symObjAddr: 0x1918, symBinAddr: 0x20AC0, symSize: 0x28 }
  - { offset: 0xC4379, size: 0x8, addend: 0x0, symName: __RNvMs0_NtCsdze8u8oDPro_5alloc3vecINtB5_3VechE17extend_from_sliceCsATtFUPiRFW_3syn, symObjAddr: 0x1940, symBinAddr: 0x20AE8, symSize: 0x6C }
  - { offset: 0xC44E9, size: 0x8, addend: 0x0, symName: __RNvMs0_NtCsdze8u8oDPro_5alloc3vecINtB5_3VechE6resizeCsATtFUPiRFW_3syn, symObjAddr: 0x19AC, symBinAddr: 0x20B54, symSize: 0xB4 }
  - { offset: 0xC46EE, size: 0x8, addend: 0x0, symName: __RNvMs2_NtCsdze8u8oDPro_5alloc3vecINtB5_3VechE11extend_withCsATtFUPiRFW_3syn, symObjAddr: 0x1A60, symBinAddr: 0x20C08, symSize: 0x240 }
  - { offset: 0xC4B7B, size: 0x8, addend: 0x0, symName: __RNvMs_NtCsdze8u8oDPro_5alloc3vecINtB4_3VecNtNtCsATtFUPiRFW_3syn4attr9AttributeE15append_elementsBI_, symObjAddr: 0x1CA0, symBinAddr: 0x20E48, symSize: 0xEC }
  - { offset: 0xC4EAB, size: 0x8, addend: 0x0, symName: __RNvMs_NtCsdze8u8oDPro_5alloc3vecINtB4_3VecNtNtCsATtFUPiRFW_3syn4attr9AttributeE18spare_capacity_mutBI_, symObjAddr: 0x1D8C, symBinAddr: 0x20F34, symSize: 0xDC }
  - { offset: 0xC5191, size: 0x8, addend: 0x0, symName: __RNvMs_NtCsdze8u8oDPro_5alloc3vecINtB4_3VecNtNtCsATtFUPiRFW_3syn4attr9AttributeE4pushBI_, symObjAddr: 0x1E68, symBinAddr: 0x21010, symSize: 0x124 }
  - { offset: 0xC54DA, size: 0x8, addend: 0x0, symName: __RNvMs_NtCsdze8u8oDPro_5alloc3vecINtB4_3VecNtNtCsATtFUPiRFW_3syn4attr9AttributeE6appendBI_, symObjAddr: 0x1F8C, symBinAddr: 0x21134, symSize: 0x9C }
  - { offset: 0xC5751, size: 0x8, addend: 0x0, symName: __RNvMs_NtCsdze8u8oDPro_5alloc3vecINtB4_3VecNtNtCsATtFUPiRFW_3syn4attr9AttributeE7reserveBI_, symObjAddr: 0x2028, symBinAddr: 0x211D0, symSize: 0xC4 }
  - { offset: 0xC597B, size: 0x8, addend: 0x0, symName: __RNvMs_NtCsdze8u8oDPro_5alloc3vecINtB4_3VecNtNtCsATtFUPiRFW_3syn4attr9AttributeE8as_sliceBI_, symObjAddr: 0x20EC, symBinAddr: 0x21294, symSize: 0x7C }
  - { offset: 0xC5AAE, size: 0x8, addend: 0x0, symName: __RNvMs_NtCsdze8u8oDPro_5alloc3vecINtB4_3VecNtNtCsATtFUPiRFW_3syn4attr9AttributeE8is_emptyBI_, symObjAddr: 0x2168, symBinAddr: 0x21310, symSize: 0x20 }
  - { offset: 0xC5C05, size: 0x8, addend: 0x0, symName: __RNvMs_NtCsdze8u8oDPro_5alloc3vecINtB4_3VecNtNtCsATtFUPiRFW_3syn4data5FieldE7reserveBI_, symObjAddr: 0x2188, symBinAddr: 0x21330, symSize: 0xC4 }
  - { offset: 0xC5F00, size: 0x8, addend: 0x0, symName: __RNvMs_NtCsdze8u8oDPro_5alloc3vecINtB4_3VecNtNtCsATtFUPiRFW_3syn4expr3ArmE18spare_capacity_mutBI_, symObjAddr: 0x224C, symBinAddr: 0x213F4, symSize: 0xE0 }
  - { offset: 0xC60AC, size: 0x8, addend: 0x0, symName: __RNvMs_NtCsdze8u8oDPro_5alloc3vecINtB4_3VecNtNtCsATtFUPiRFW_3syn4expr3ArmE3lenBI_, symObjAddr: 0x232C, symBinAddr: 0x214D4, symSize: 0x18 }
  - { offset: 0xC6228, size: 0x8, addend: 0x0, symName: __RNvMs_NtCsdze8u8oDPro_5alloc3vecINtB4_3VecNtNtCsATtFUPiRFW_3syn4expr3ArmE4pushBI_, symObjAddr: 0x2344, symBinAddr: 0x214EC, symSize: 0x12C }
  - { offset: 0xC6524, size: 0x8, addend: 0x0, symName: __RNvMs_NtCsdze8u8oDPro_5alloc3vecINtB4_3VecNtNtCsATtFUPiRFW_3syn4expr3ArmE8as_sliceBI_, symObjAddr: 0x2470, symBinAddr: 0x21618, symSize: 0x7C }
  - { offset: 0xC67E8, size: 0x8, addend: 0x0, symName: __RNvMs_NtCsdze8u8oDPro_5alloc3vecINtB4_3VecNtNtCsATtFUPiRFW_3syn4expr6ExprIfE3popBI_, symObjAddr: 0x24EC, symBinAddr: 0x21694, symSize: 0x11C }
  - { offset: 0xC6AFF, size: 0x8, addend: 0x0, symName: __RNvMs_NtCsdze8u8oDPro_5alloc3vecINtB4_3VecNtNtCsATtFUPiRFW_3syn4expr6ExprIfE4pushBI_, symObjAddr: 0x2608, symBinAddr: 0x217B0, symSize: 0x12C }
  - { offset: 0xC6EA4, size: 0x8, addend: 0x0, symName: __RNvMs_NtCsdze8u8oDPro_5alloc3vecINtB4_3VecNtNtCsATtFUPiRFW_3syn4item11ForeignItemE18spare_capacity_mutBI_, symObjAddr: 0x2734, symBinAddr: 0x218DC, symSize: 0xE0 }
  - { offset: 0xC718A, size: 0x8, addend: 0x0, symName: __RNvMs_NtCsdze8u8oDPro_5alloc3vecINtB4_3VecNtNtCsATtFUPiRFW_3syn4item11ForeignItemE4pushBI_, symObjAddr: 0x2814, symBinAddr: 0x219BC, symSize: 0x12C }
  - { offset: 0xC752F, size: 0x8, addend: 0x0, symName: __RNvMs_NtCsdze8u8oDPro_5alloc3vecINtB4_3VecNtNtCsATtFUPiRFW_3syn4item4ItemE18spare_capacity_mutBI_, symObjAddr: 0x2940, symBinAddr: 0x21AE8, symSize: 0xE0 }
  - { offset: 0xC7815, size: 0x8, addend: 0x0, symName: __RNvMs_NtCsdze8u8oDPro_5alloc3vecINtB4_3VecNtNtCsATtFUPiRFW_3syn4item4ItemE4pushBI_, symObjAddr: 0x2A20, symBinAddr: 0x21BC8, symSize: 0x12C }
  - { offset: 0xC7BBA, size: 0x8, addend: 0x0, symName: __RNvMs_NtCsdze8u8oDPro_5alloc3vecINtB4_3VecNtNtCsATtFUPiRFW_3syn4item8ImplItemE18spare_capacity_mutBI_, symObjAddr: 0x2B4C, symBinAddr: 0x21CF4, symSize: 0xE0 }
  - { offset: 0xC7EA0, size: 0x8, addend: 0x0, symName: __RNvMs_NtCsdze8u8oDPro_5alloc3vecINtB4_3VecNtNtCsATtFUPiRFW_3syn4item8ImplItemE4pushBI_, symObjAddr: 0x2C2C, symBinAddr: 0x21DD4, symSize: 0x12C }
  - { offset: 0xC8245, size: 0x8, addend: 0x0, symName: __RNvMs_NtCsdze8u8oDPro_5alloc3vecINtB4_3VecNtNtCsATtFUPiRFW_3syn4item9TraitItemE18spare_capacity_mutBI_, symObjAddr: 0x2D58, symBinAddr: 0x21F00, symSize: 0xE0 }
  - { offset: 0xC852B, size: 0x8, addend: 0x0, symName: __RNvMs_NtCsdze8u8oDPro_5alloc3vecINtB4_3VecNtNtCsATtFUPiRFW_3syn4item9TraitItemE4pushBI_, symObjAddr: 0x2E38, symBinAddr: 0x21FE0, symSize: 0x12C }
  - { offset: 0xC88D0, size: 0x8, addend: 0x0, symName: __RNvMs_NtCsdze8u8oDPro_5alloc3vecINtB4_3VecNtNtCsATtFUPiRFW_3syn4stmt4StmtE18spare_capacity_mutBI_, symObjAddr: 0x2F64, symBinAddr: 0x2210C, symSize: 0xE0 }
  - { offset: 0xC8BB6, size: 0x8, addend: 0x0, symName: __RNvMs_NtCsdze8u8oDPro_5alloc3vecINtB4_3VecNtNtCsATtFUPiRFW_3syn4stmt4StmtE4pushBI_, symObjAddr: 0x3044, symBinAddr: 0x221EC, symSize: 0x12C }
  - { offset: 0xC8F26, size: 0x8, addend: 0x0, symName: __RNvMs_NtCsdze8u8oDPro_5alloc3vecINtB4_3VecNtNtCsATtFUPiRFW_3syn5error12ErrorMessageE15append_elementsBI_, symObjAddr: 0x3170, symBinAddr: 0x22318, symSize: 0xF4 }
  - { offset: 0xC9256, size: 0x8, addend: 0x0, symName: __RNvMs_NtCsdze8u8oDPro_5alloc3vecINtB4_3VecNtNtCsATtFUPiRFW_3syn5error12ErrorMessageE18spare_capacity_mutBI_, symObjAddr: 0x3264, symBinAddr: 0x2240C, symSize: 0xE0 }
  - { offset: 0xC93F5, size: 0x8, addend: 0x0, symName: __RNvMs_NtCsdze8u8oDPro_5alloc3vecINtB4_3VecNtNtCsATtFUPiRFW_3syn5error12ErrorMessageE3lenBI_, symObjAddr: 0x3344, symBinAddr: 0x224EC, symSize: 0x18 }
  - { offset: 0xC952E, size: 0x8, addend: 0x0, symName: __RNvMs_NtCsdze8u8oDPro_5alloc3vecINtB4_3VecNtNtCsATtFUPiRFW_3syn5error12ErrorMessageE7reserveBI_, symObjAddr: 0x335C, symBinAddr: 0x22504, symSize: 0xC4 }
  - { offset: 0xC9776, size: 0x8, addend: 0x0, symName: __RNvMs_NtCsdze8u8oDPro_5alloc3vecINtB4_3VecNtNtCsATtFUPiRFW_3syn5error12ErrorMessageE8as_sliceBI_, symObjAddr: 0x3420, symBinAddr: 0x225C8, symSize: 0x7C }
  - { offset: 0xC9AF1, size: 0x8, addend: 0x0, symName: __RNvMs_NtCsdze8u8oDPro_5alloc3vecINtB4_3VecNtNtCsATtFUPiRFW_3syn6buffer5EntryE16into_boxed_sliceBI_, symObjAddr: 0x349C, symBinAddr: 0x22644, symSize: 0x1BC }
  - { offset: 0xC9DAC, size: 0x8, addend: 0x0, symName: __RNvMs_NtCsdze8u8oDPro_5alloc3vecINtB4_3VecNtNtCsATtFUPiRFW_3syn6buffer5EntryE3lenBI_, symObjAddr: 0x3658, symBinAddr: 0x22800, symSize: 0x18 }
  - { offset: 0xC9F35, size: 0x8, addend: 0x0, symName: __RNvMs_NtCsdze8u8oDPro_5alloc3vecINtB4_3VecNtNtCsATtFUPiRFW_3syn6buffer5EntryE4pushBI_, symObjAddr: 0x3670, symBinAddr: 0x22818, symSize: 0x10C }
  - { offset: 0xCA22F, size: 0x8, addend: 0x0, symName: __RNvMs_NtCsdze8u8oDPro_5alloc3vecINtB4_3VecNtNtCsATtFUPiRFW_3syn8generics14TypeParamBoundE7reserveBI_, symObjAddr: 0x377C, symBinAddr: 0x22924, symSize: 0xC4 }
  - { offset: 0xCA37B, size: 0x8, addend: 0x0, symName: __RNvMs_NtCsdze8u8oDPro_5alloc3vecINtB4_3VecReE3lenCsATtFUPiRFW_3syn, symObjAddr: 0x3840, symBinAddr: 0x229E8, symSize: 0x18 }
  - { offset: 0xCA4F7, size: 0x8, addend: 0x0, symName: __RNvMs_NtCsdze8u8oDPro_5alloc3vecINtB4_3VecReE4pushCsATtFUPiRFW_3syn, symObjAddr: 0x3858, symBinAddr: 0x22A00, symSize: 0x100 }
  - { offset: 0xCA7C8, size: 0x8, addend: 0x0, symName: __RNvMs_NtCsdze8u8oDPro_5alloc3vecINtB4_3VecReE8as_sliceCsATtFUPiRFW_3syn, symObjAddr: 0x3958, symBinAddr: 0x22B00, symSize: 0x7C }
  - { offset: 0xCAA85, size: 0x8, addend: 0x0, symName: __RNvMs_NtCsdze8u8oDPro_5alloc3vecINtB4_3VecTNtNtCsATtFUPiRFW_3syn2ty4TypeNtNtBJ_5token5CommaEE18spare_capacity_mutBJ_, symObjAddr: 0x39D4, symBinAddr: 0x22B7C, symSize: 0xE0 }
  - { offset: 0xCAC31, size: 0x8, addend: 0x0, symName: __RNvMs_NtCsdze8u8oDPro_5alloc3vecINtB4_3VecTNtNtCsATtFUPiRFW_3syn2ty4TypeNtNtBJ_5token5CommaEE3lenBJ_, symObjAddr: 0x3AB4, symBinAddr: 0x22C5C, symSize: 0x18 }
  - { offset: 0xCADAD, size: 0x8, addend: 0x0, symName: __RNvMs_NtCsdze8u8oDPro_5alloc3vecINtB4_3VecTNtNtCsATtFUPiRFW_3syn2ty4TypeNtNtBJ_5token5CommaEE4pushBJ_, symObjAddr: 0x3ACC, symBinAddr: 0x22C74, symSize: 0x12C }
  - { offset: 0xCB0A9, size: 0x8, addend: 0x0, symName: __RNvMs_NtCsdze8u8oDPro_5alloc3vecINtB4_3VecTNtNtCsATtFUPiRFW_3syn2ty4TypeNtNtBJ_5token5CommaEE8as_sliceBJ_, symObjAddr: 0x3BF8, symBinAddr: 0x22DA0, symSize: 0x7C }
  - { offset: 0xCB366, size: 0x8, addend: 0x0, symName: __RNvMs_NtCsdze8u8oDPro_5alloc3vecINtB4_3VecTNtNtCsATtFUPiRFW_3syn2ty9BareFnArgNtNtBJ_5token5CommaEE18spare_capacity_mutBJ_, symObjAddr: 0x3C74, symBinAddr: 0x22E1C, symSize: 0xE0 }
  - { offset: 0xCB512, size: 0x8, addend: 0x0, symName: __RNvMs_NtCsdze8u8oDPro_5alloc3vecINtB4_3VecTNtNtCsATtFUPiRFW_3syn2ty9BareFnArgNtNtBJ_5token5CommaEE3lenBJ_, symObjAddr: 0x3D54, symBinAddr: 0x22EFC, symSize: 0x18 }
  - { offset: 0xCB68E, size: 0x8, addend: 0x0, symName: __RNvMs_NtCsdze8u8oDPro_5alloc3vecINtB4_3VecTNtNtCsATtFUPiRFW_3syn2ty9BareFnArgNtNtBJ_5token5CommaEE4pushBJ_, symObjAddr: 0x3D6C, symBinAddr: 0x22F14, symSize: 0x12C }
  - { offset: 0xCB989, size: 0x8, addend: 0x0, symName: __RNvMs_NtCsdze8u8oDPro_5alloc3vecINtB4_3VecTNtNtCsATtFUPiRFW_3syn2ty9BareFnArgNtNtBJ_5token5CommaEE8as_sliceBJ_, symObjAddr: 0x3E98, symBinAddr: 0x23040, symSize: 0x7C }
  - { offset: 0xCBC46, size: 0x8, addend: 0x0, symName: __RNvMs_NtCsdze8u8oDPro_5alloc3vecINtB4_3VecTNtNtCsATtFUPiRFW_3syn3pat3PatNtNtBJ_5token2OrEE18spare_capacity_mutBJ_, symObjAddr: 0x3F14, symBinAddr: 0x230BC, symSize: 0xE0 }
  - { offset: 0xCBF2C, size: 0x8, addend: 0x0, symName: __RNvMs_NtCsdze8u8oDPro_5alloc3vecINtB4_3VecTNtNtCsATtFUPiRFW_3syn3pat3PatNtNtBJ_5token2OrEE4pushBJ_, symObjAddr: 0x3FF4, symBinAddr: 0x2319C, symSize: 0x12C }
  - { offset: 0xCC234, size: 0x8, addend: 0x0, symName: __RNvMs_NtCsdze8u8oDPro_5alloc3vecINtB4_3VecTNtNtCsATtFUPiRFW_3syn3pat3PatNtNtBJ_5token2OrEE8as_sliceBJ_, symObjAddr: 0x4120, symBinAddr: 0x232C8, symSize: 0x7C }
  - { offset: 0xCC4F1, size: 0x8, addend: 0x0, symName: __RNvMs_NtCsdze8u8oDPro_5alloc3vecINtB4_3VecTNtNtCsATtFUPiRFW_3syn3pat3PatNtNtBJ_5token5CommaEE18spare_capacity_mutBJ_, symObjAddr: 0x419C, symBinAddr: 0x23344, symSize: 0xE0 }
  - { offset: 0xCC69D, size: 0x8, addend: 0x0, symName: __RNvMs_NtCsdze8u8oDPro_5alloc3vecINtB4_3VecTNtNtCsATtFUPiRFW_3syn3pat3PatNtNtBJ_5token5CommaEE3lenBJ_, symObjAddr: 0x427C, symBinAddr: 0x23424, symSize: 0x18 }
  - { offset: 0xCC819, size: 0x8, addend: 0x0, symName: __RNvMs_NtCsdze8u8oDPro_5alloc3vecINtB4_3VecTNtNtCsATtFUPiRFW_3syn3pat3PatNtNtBJ_5token5CommaEE4pushBJ_, symObjAddr: 0x4294, symBinAddr: 0x2343C, symSize: 0x12C }
  - { offset: 0xCCB14, size: 0x8, addend: 0x0, symName: __RNvMs_NtCsdze8u8oDPro_5alloc3vecINtB4_3VecTNtNtCsATtFUPiRFW_3syn3pat3PatNtNtBJ_5token5CommaEE8as_sliceBJ_, symObjAddr: 0x43C0, symBinAddr: 0x23568, symSize: 0x7C }
  - { offset: 0xCCDD1, size: 0x8, addend: 0x0, symName: __RNvMs_NtCsdze8u8oDPro_5alloc3vecINtB4_3VecTNtNtCsATtFUPiRFW_3syn3pat8FieldPatNtNtBJ_5token5CommaEE18spare_capacity_mutBJ_, symObjAddr: 0x443C, symBinAddr: 0x235E4, symSize: 0xE0 }
  - { offset: 0xCD0B7, size: 0x8, addend: 0x0, symName: __RNvMs_NtCsdze8u8oDPro_5alloc3vecINtB4_3VecTNtNtCsATtFUPiRFW_3syn3pat8FieldPatNtNtBJ_5token5CommaEE4pushBJ_, symObjAddr: 0x451C, symBinAddr: 0x236C4, symSize: 0x12C }
  - { offset: 0xCD3C0, size: 0x8, addend: 0x0, symName: __RNvMs_NtCsdze8u8oDPro_5alloc3vecINtB4_3VecTNtNtCsATtFUPiRFW_3syn3pat8FieldPatNtNtBJ_5token5CommaEE8as_sliceBJ_, symObjAddr: 0x4648, symBinAddr: 0x237F0, symSize: 0x7C }
  - { offset: 0xCD616, size: 0x8, addend: 0x0, symName: __RNvMs_NtCsdze8u8oDPro_5alloc3vecINtB4_3VecTNtNtCsATtFUPiRFW_3syn4data5FieldNtNtBJ_5token5CommaEE12as_mut_sliceBJ_, symObjAddr: 0x46C4, symBinAddr: 0x2386C, symSize: 0x7C }
  - { offset: 0xCD8BD, size: 0x8, addend: 0x0, symName: __RNvMs_NtCsdze8u8oDPro_5alloc3vecINtB4_3VecTNtNtCsATtFUPiRFW_3syn4data5FieldNtNtBJ_5token5CommaEE18spare_capacity_mutBJ_, symObjAddr: 0x4740, symBinAddr: 0x238E8, symSize: 0xE0 }
  - { offset: 0xCDA69, size: 0x8, addend: 0x0, symName: __RNvMs_NtCsdze8u8oDPro_5alloc3vecINtB4_3VecTNtNtCsATtFUPiRFW_3syn4data5FieldNtNtBJ_5token5CommaEE3lenBJ_, symObjAddr: 0x4820, symBinAddr: 0x239C8, symSize: 0x18 }
  - { offset: 0xCDBE5, size: 0x8, addend: 0x0, symName: __RNvMs_NtCsdze8u8oDPro_5alloc3vecINtB4_3VecTNtNtCsATtFUPiRFW_3syn4data5FieldNtNtBJ_5token5CommaEE4pushBJ_, symObjAddr: 0x4838, symBinAddr: 0x239E0, symSize: 0x12C }
  - { offset: 0xCDED7, size: 0x8, addend: 0x0, symName: __RNvMs_NtCsdze8u8oDPro_5alloc3vecINtB4_3VecTNtNtCsATtFUPiRFW_3syn4data5FieldNtNtBJ_5token5CommaEE8as_sliceBJ_, symObjAddr: 0x4964, symBinAddr: 0x23B0C, symSize: 0x7C }
  - { offset: 0xCDFF2, size: 0x8, addend: 0x0, symName: __RNvMs_NtCsdze8u8oDPro_5alloc3vecINtB4_3VecTNtNtCsATtFUPiRFW_3syn4data5FielduEE3lenBJ_, symObjAddr: 0x49E0, symBinAddr: 0x23B88, symSize: 0x18 }
  - { offset: 0xCE1D6, size: 0x8, addend: 0x0, symName: __RNvMs_NtCsdze8u8oDPro_5alloc3vecINtB4_3VecTNtNtCsATtFUPiRFW_3syn4data7VariantNtNtBJ_5token5CommaEE18spare_capacity_mutBJ_, symObjAddr: 0x49F8, symBinAddr: 0x23BA0, symSize: 0xE0 }
  - { offset: 0xCE4BC, size: 0x8, addend: 0x0, symName: __RNvMs_NtCsdze8u8oDPro_5alloc3vecINtB4_3VecTNtNtCsATtFUPiRFW_3syn4data7VariantNtNtBJ_5token5CommaEE4pushBJ_, symObjAddr: 0x4AD8, symBinAddr: 0x23C80, symSize: 0x12C }
  - { offset: 0xCE7C5, size: 0x8, addend: 0x0, symName: __RNvMs_NtCsdze8u8oDPro_5alloc3vecINtB4_3VecTNtNtCsATtFUPiRFW_3syn4data7VariantNtNtBJ_5token5CommaEE8as_sliceBJ_, symObjAddr: 0x4C04, symBinAddr: 0x23DAC, symSize: 0x7C }
  - { offset: 0xCEA82, size: 0x8, addend: 0x0, symName: __RNvMs_NtCsdze8u8oDPro_5alloc3vecINtB4_3VecTNtNtCsATtFUPiRFW_3syn4expr10FieldValueNtNtBJ_5token5CommaEE18spare_capacity_mutBJ_, symObjAddr: 0x4C80, symBinAddr: 0x23E28, symSize: 0xE0 }
  - { offset: 0xCED68, size: 0x8, addend: 0x0, symName: __RNvMs_NtCsdze8u8oDPro_5alloc3vecINtB4_3VecTNtNtCsATtFUPiRFW_3syn4expr10FieldValueNtNtBJ_5token5CommaEE4pushBJ_, symObjAddr: 0x4D60, symBinAddr: 0x23F08, symSize: 0x12C }
  - { offset: 0xCF070, size: 0x8, addend: 0x0, symName: __RNvMs_NtCsdze8u8oDPro_5alloc3vecINtB4_3VecTNtNtCsATtFUPiRFW_3syn4expr10FieldValueNtNtBJ_5token5CommaEE8as_sliceBJ_, symObjAddr: 0x4E8C, symBinAddr: 0x24034, symSize: 0x7C }
  - { offset: 0xCF32D, size: 0x8, addend: 0x0, symName: __RNvMs_NtCsdze8u8oDPro_5alloc3vecINtB4_3VecTNtNtCsATtFUPiRFW_3syn4expr4ExprNtNtBJ_5token5CommaEE18spare_capacity_mutBJ_, symObjAddr: 0x4F08, symBinAddr: 0x240B0, symSize: 0xE0 }
  - { offset: 0xCF4D9, size: 0x8, addend: 0x0, symName: __RNvMs_NtCsdze8u8oDPro_5alloc3vecINtB4_3VecTNtNtCsATtFUPiRFW_3syn4expr4ExprNtNtBJ_5token5CommaEE3lenBJ_, symObjAddr: 0x4FE8, symBinAddr: 0x24190, symSize: 0x18 }
  - { offset: 0xCF655, size: 0x8, addend: 0x0, symName: __RNvMs_NtCsdze8u8oDPro_5alloc3vecINtB4_3VecTNtNtCsATtFUPiRFW_3syn4expr4ExprNtNtBJ_5token5CommaEE4pushBJ_, symObjAddr: 0x5000, symBinAddr: 0x241A8, symSize: 0x12C }
  - { offset: 0xCF951, size: 0x8, addend: 0x0, symName: __RNvMs_NtCsdze8u8oDPro_5alloc3vecINtB4_3VecTNtNtCsATtFUPiRFW_3syn4expr4ExprNtNtBJ_5token5CommaEE8as_sliceBJ_, symObjAddr: 0x512C, symBinAddr: 0x242D4, symSize: 0x7C }
  - { offset: 0xCFC0E, size: 0x8, addend: 0x0, symName: __RNvMs_NtCsdze8u8oDPro_5alloc3vecINtB4_3VecTNtNtCsATtFUPiRFW_3syn4item5FnArgNtNtBJ_5token5CommaEE18spare_capacity_mutBJ_, symObjAddr: 0x51A8, symBinAddr: 0x24350, symSize: 0xE0 }
  - { offset: 0xCFDBA, size: 0x8, addend: 0x0, symName: __RNvMs_NtCsdze8u8oDPro_5alloc3vecINtB4_3VecTNtNtCsATtFUPiRFW_3syn4item5FnArgNtNtBJ_5token5CommaEE3lenBJ_, symObjAddr: 0x5288, symBinAddr: 0x24430, symSize: 0x18 }
  - { offset: 0xCFF36, size: 0x8, addend: 0x0, symName: __RNvMs_NtCsdze8u8oDPro_5alloc3vecINtB4_3VecTNtNtCsATtFUPiRFW_3syn4item5FnArgNtNtBJ_5token5CommaEE4pushBJ_, symObjAddr: 0x52A0, symBinAddr: 0x24448, symSize: 0x12C }
  - { offset: 0xD0232, size: 0x8, addend: 0x0, symName: __RNvMs_NtCsdze8u8oDPro_5alloc3vecINtB4_3VecTNtNtCsATtFUPiRFW_3syn4item5FnArgNtNtBJ_5token5CommaEE8as_sliceBJ_, symObjAddr: 0x53CC, symBinAddr: 0x24574, symSize: 0x7C }
  - { offset: 0xD04EF, size: 0x8, addend: 0x0, symName: __RNvMs_NtCsdze8u8oDPro_5alloc3vecINtB4_3VecTNtNtCsATtFUPiRFW_3syn4item7UseTreeNtNtBJ_5token5CommaEE18spare_capacity_mutBJ_, symObjAddr: 0x5448, symBinAddr: 0x245F0, symSize: 0xE0 }
  - { offset: 0xD07D5, size: 0x8, addend: 0x0, symName: __RNvMs_NtCsdze8u8oDPro_5alloc3vecINtB4_3VecTNtNtCsATtFUPiRFW_3syn4item7UseTreeNtNtBJ_5token5CommaEE4pushBJ_, symObjAddr: 0x5528, symBinAddr: 0x246D0, symSize: 0x12C }
  - { offset: 0xD0ADE, size: 0x8, addend: 0x0, symName: __RNvMs_NtCsdze8u8oDPro_5alloc3vecINtB4_3VecTNtNtCsATtFUPiRFW_3syn4item7UseTreeNtNtBJ_5token5CommaEE8as_sliceBJ_, symObjAddr: 0x5654, symBinAddr: 0x247FC, symSize: 0x7C }
  - { offset: 0xD0D41, size: 0x8, addend: 0x0, symName: __RNvMs_NtCsdze8u8oDPro_5alloc3vecINtB4_3VecTNtNtCsATtFUPiRFW_3syn4path11PathSegmentNtNtBJ_5token7PathSepEE12as_mut_sliceBJ_, symObjAddr: 0x56D0, symBinAddr: 0x24878, symSize: 0x7C }
  - { offset: 0xD0FE8, size: 0x8, addend: 0x0, symName: __RNvMs_NtCsdze8u8oDPro_5alloc3vecINtB4_3VecTNtNtCsATtFUPiRFW_3syn4path11PathSegmentNtNtBJ_5token7PathSepEE18spare_capacity_mutBJ_, symObjAddr: 0x574C, symBinAddr: 0x248F4, symSize: 0xE0 }
  - { offset: 0xD1194, size: 0x8, addend: 0x0, symName: __RNvMs_NtCsdze8u8oDPro_5alloc3vecINtB4_3VecTNtNtCsATtFUPiRFW_3syn4path11PathSegmentNtNtBJ_5token7PathSepEE3lenBJ_, symObjAddr: 0x582C, symBinAddr: 0x249D4, symSize: 0x18 }
  - { offset: 0xD133E, size: 0x8, addend: 0x0, symName: __RNvMs_NtCsdze8u8oDPro_5alloc3vecINtB4_3VecTNtNtCsATtFUPiRFW_3syn4path11PathSegmentNtNtBJ_5token7PathSepEE3popBJ_, symObjAddr: 0x5844, symBinAddr: 0x249EC, symSize: 0x120 }
  - { offset: 0xD1655, size: 0x8, addend: 0x0, symName: __RNvMs_NtCsdze8u8oDPro_5alloc3vecINtB4_3VecTNtNtCsATtFUPiRFW_3syn4path11PathSegmentNtNtBJ_5token7PathSepEE4pushBJ_, symObjAddr: 0x5964, symBinAddr: 0x24B0C, symSize: 0x12C }
  - { offset: 0xD1947, size: 0x8, addend: 0x0, symName: __RNvMs_NtCsdze8u8oDPro_5alloc3vecINtB4_3VecTNtNtCsATtFUPiRFW_3syn4path11PathSegmentNtNtBJ_5token7PathSepEE8as_sliceBJ_, symObjAddr: 0x5A90, symBinAddr: 0x24C38, symSize: 0x7C }
  - { offset: 0xD1C04, size: 0x8, addend: 0x0, symName: __RNvMs_NtCsdze8u8oDPro_5alloc3vecINtB4_3VecTNtNtCsATtFUPiRFW_3syn4path15GenericArgumentNtNtBJ_5token5CommaEE18spare_capacity_mutBJ_, symObjAddr: 0x5B0C, symBinAddr: 0x24CB4, symSize: 0xE0 }
  - { offset: 0xD1DB0, size: 0x8, addend: 0x0, symName: __RNvMs_NtCsdze8u8oDPro_5alloc3vecINtB4_3VecTNtNtCsATtFUPiRFW_3syn4path15GenericArgumentNtNtBJ_5token5CommaEE3lenBJ_, symObjAddr: 0x5BEC, symBinAddr: 0x24D94, symSize: 0x18 }
  - { offset: 0xD1F2C, size: 0x8, addend: 0x0, symName: __RNvMs_NtCsdze8u8oDPro_5alloc3vecINtB4_3VecTNtNtCsATtFUPiRFW_3syn4path15GenericArgumentNtNtBJ_5token5CommaEE4pushBJ_, symObjAddr: 0x5C04, symBinAddr: 0x24DAC, symSize: 0x12C }
  - { offset: 0xD2227, size: 0x8, addend: 0x0, symName: __RNvMs_NtCsdze8u8oDPro_5alloc3vecINtB4_3VecTNtNtCsATtFUPiRFW_3syn4path15GenericArgumentNtNtBJ_5token5CommaEE8as_sliceBJ_, symObjAddr: 0x5D30, symBinAddr: 0x24ED8, symSize: 0x7C }
  - { offset: 0xD248A, size: 0x8, addend: 0x0, symName: __RNvMs_NtCsdze8u8oDPro_5alloc3vecINtB4_3VecTNtNtCsATtFUPiRFW_3syn8generics12GenericParamNtNtBJ_5token5CommaEE12as_mut_sliceBJ_, symObjAddr: 0x5DAC, symBinAddr: 0x24F54, symSize: 0x7C }
  - { offset: 0xD2731, size: 0x8, addend: 0x0, symName: __RNvMs_NtCsdze8u8oDPro_5alloc3vecINtB4_3VecTNtNtCsATtFUPiRFW_3syn8generics12GenericParamNtNtBJ_5token5CommaEE18spare_capacity_mutBJ_, symObjAddr: 0x5E28, symBinAddr: 0x24FD0, symSize: 0xE0 }
  - { offset: 0xD28DD, size: 0x8, addend: 0x0, symName: __RNvMs_NtCsdze8u8oDPro_5alloc3vecINtB4_3VecTNtNtCsATtFUPiRFW_3syn8generics12GenericParamNtNtBJ_5token5CommaEE3lenBJ_, symObjAddr: 0x5F08, symBinAddr: 0x250B0, symSize: 0x18 }
  - { offset: 0xD2A59, size: 0x8, addend: 0x0, symName: __RNvMs_NtCsdze8u8oDPro_5alloc3vecINtB4_3VecTNtNtCsATtFUPiRFW_3syn8generics12GenericParamNtNtBJ_5token5CommaEE4pushBJ_, symObjAddr: 0x5F20, symBinAddr: 0x250C8, symSize: 0x12C }
  - { offset: 0xD2D4C, size: 0x8, addend: 0x0, symName: __RNvMs_NtCsdze8u8oDPro_5alloc3vecINtB4_3VecTNtNtCsATtFUPiRFW_3syn8generics12GenericParamNtNtBJ_5token5CommaEE8as_sliceBJ_, symObjAddr: 0x604C, symBinAddr: 0x251F4, symSize: 0x7C }
  - { offset: 0xD3009, size: 0x8, addend: 0x0, symName: __RNvMs_NtCsdze8u8oDPro_5alloc3vecINtB4_3VecTNtNtCsATtFUPiRFW_3syn8generics13CapturedParamNtNtBJ_5token5CommaEE18spare_capacity_mutBJ_, symObjAddr: 0x60C8, symBinAddr: 0x25270, symSize: 0xE0 }
  - { offset: 0xD32EF, size: 0x8, addend: 0x0, symName: __RNvMs_NtCsdze8u8oDPro_5alloc3vecINtB4_3VecTNtNtCsATtFUPiRFW_3syn8generics13CapturedParamNtNtBJ_5token5CommaEE4pushBJ_, symObjAddr: 0x61A8, symBinAddr: 0x25350, symSize: 0x124 }
  - { offset: 0xD35F7, size: 0x8, addend: 0x0, symName: __RNvMs_NtCsdze8u8oDPro_5alloc3vecINtB4_3VecTNtNtCsATtFUPiRFW_3syn8generics13CapturedParamNtNtBJ_5token5CommaEE8as_sliceBJ_, symObjAddr: 0x62CC, symBinAddr: 0x25474, symSize: 0x7C }
  - { offset: 0xD38A7, size: 0x8, addend: 0x0, symName: __RNvMs_NtCsdze8u8oDPro_5alloc3vecINtB4_3VecTNtNtCsATtFUPiRFW_3syn8generics14TypeParamBoundNtNtBJ_5token4PlusEE18spare_capacity_mutBJ_, symObjAddr: 0x6348, symBinAddr: 0x254F0, symSize: 0xDC }
  - { offset: 0xD3A53, size: 0x8, addend: 0x0, symName: __RNvMs_NtCsdze8u8oDPro_5alloc3vecINtB4_3VecTNtNtCsATtFUPiRFW_3syn8generics14TypeParamBoundNtNtBJ_5token4PlusEE3lenBJ_, symObjAddr: 0x6424, symBinAddr: 0x255CC, symSize: 0x18 }
  - { offset: 0xD3BCF, size: 0x8, addend: 0x0, symName: __RNvMs_NtCsdze8u8oDPro_5alloc3vecINtB4_3VecTNtNtCsATtFUPiRFW_3syn8generics14TypeParamBoundNtNtBJ_5token4PlusEE4pushBJ_, symObjAddr: 0x643C, symBinAddr: 0x255E4, symSize: 0x124 }
  - { offset: 0xD3ECA, size: 0x8, addend: 0x0, symName: __RNvMs_NtCsdze8u8oDPro_5alloc3vecINtB4_3VecTNtNtCsATtFUPiRFW_3syn8generics14TypeParamBoundNtNtBJ_5token4PlusEE8as_sliceBJ_, symObjAddr: 0x6560, symBinAddr: 0x25708, symSize: 0x7C }
  - { offset: 0xD4187, size: 0x8, addend: 0x0, symName: __RNvMs_NtCsdze8u8oDPro_5alloc3vecINtB4_3VecTNtNtCsATtFUPiRFW_3syn8generics14WherePredicateNtNtBJ_5token5CommaEE18spare_capacity_mutBJ_, symObjAddr: 0x65DC, symBinAddr: 0x25784, symSize: 0xE0 }
  - { offset: 0xD4333, size: 0x8, addend: 0x0, symName: __RNvMs_NtCsdze8u8oDPro_5alloc3vecINtB4_3VecTNtNtCsATtFUPiRFW_3syn8generics14WherePredicateNtNtBJ_5token5CommaEE3lenBJ_, symObjAddr: 0x66BC, symBinAddr: 0x25864, symSize: 0x18 }
  - { offset: 0xD44AF, size: 0x8, addend: 0x0, symName: __RNvMs_NtCsdze8u8oDPro_5alloc3vecINtB4_3VecTNtNtCsATtFUPiRFW_3syn8generics14WherePredicateNtNtBJ_5token5CommaEE4pushBJ_, symObjAddr: 0x66D4, symBinAddr: 0x2587C, symSize: 0x12C }
  - { offset: 0xD47AA, size: 0x8, addend: 0x0, symName: __RNvMs_NtCsdze8u8oDPro_5alloc3vecINtB4_3VecTNtNtCsATtFUPiRFW_3syn8generics14WherePredicateNtNtBJ_5token5CommaEE8as_sliceBJ_, symObjAddr: 0x6800, symBinAddr: 0x259A8, symSize: 0x7C }
  - { offset: 0xD4A67, size: 0x8, addend: 0x0, symName: __RNvMs_NtCsdze8u8oDPro_5alloc3vecINtB4_3VecTNtNtCsATtFUPiRFW_3syn8lifetime8LifetimeNtNtBJ_5token4PlusEE18spare_capacity_mutBJ_, symObjAddr: 0x687C, symBinAddr: 0x25A24, symSize: 0xE0 }
  - { offset: 0xD4C13, size: 0x8, addend: 0x0, symName: __RNvMs_NtCsdze8u8oDPro_5alloc3vecINtB4_3VecTNtNtCsATtFUPiRFW_3syn8lifetime8LifetimeNtNtBJ_5token4PlusEE3lenBJ_, symObjAddr: 0x695C, symBinAddr: 0x25B04, symSize: 0x18 }
  - { offset: 0xD4D8F, size: 0x8, addend: 0x0, symName: __RNvMs_NtCsdze8u8oDPro_5alloc3vecINtB4_3VecTNtNtCsATtFUPiRFW_3syn8lifetime8LifetimeNtNtBJ_5token4PlusEE4pushBJ_, symObjAddr: 0x6974, symBinAddr: 0x25B1C, symSize: 0x124 }
  - { offset: 0xD508B, size: 0x8, addend: 0x0, symName: __RNvMs_NtCsdze8u8oDPro_5alloc3vecINtB4_3VecTNtNtCsATtFUPiRFW_3syn8lifetime8LifetimeNtNtBJ_5token4PlusEE8as_sliceBJ_, symObjAddr: 0x6A98, symBinAddr: 0x25C40, symSize: 0x7C }
  - { offset: 0xD53B8, size: 0x8, addend: 0x0, symName: __RNvMs_NtCsdze8u8oDPro_5alloc3vecINtB4_3VechE16into_boxed_sliceCsATtFUPiRFW_3syn, symObjAddr: 0x6B14, symBinAddr: 0x25CBC, symSize: 0x1B8 }
  - { offset: 0xD57E5, size: 0x8, addend: 0x0, symName: __RNvMs_NtCsdze8u8oDPro_5alloc3vecINtB4_3VechE18spare_capacity_mutCsATtFUPiRFW_3syn, symObjAddr: 0x6CCC, symBinAddr: 0x25E74, symSize: 0xD4 }
  - { offset: 0xD5984, size: 0x8, addend: 0x0, symName: __RNvMs_NtCsdze8u8oDPro_5alloc3vecINtB4_3VechE3lenCsATtFUPiRFW_3syn, symObjAddr: 0x6DA0, symBinAddr: 0x25F48, symSize: 0x18 }
  - { offset: 0xD5A97, size: 0x8, addend: 0x0, symName: __RNvMs_NtCsdze8u8oDPro_5alloc3vecINtB4_3VechE8as_sliceCsATtFUPiRFW_3syn, symObjAddr: 0x6DB8, symBinAddr: 0x25F60, symSize: 0x78 }
  - { offset: 0xD5C9F, size: 0x8, addend: 0x0, symName: __RNvMs_NtCsdze8u8oDPro_5alloc3vecINtB4_3VechE8truncateCsATtFUPiRFW_3syn, symObjAddr: 0x6E30, symBinAddr: 0x25FD8, symSize: 0x80 }
  - { offset: 0xD60B1, size: 0x8, addend: 0x0, symName: __RNvMs_NtCsdze8u8oDPro_5alloc3vecINtB4_3VechE9split_offCsATtFUPiRFW_3syn, symObjAddr: 0x6EB0, symBinAddr: 0x26058, symSize: 0x184 }
  - { offset: 0xE0E66, size: 0x8, addend: 0x0, symName: __RINvXNtNtCsdze8u8oDPro_5alloc5slice4hackNtNtCsATtFUPiRFW_3syn4item11ForeignItemNtB3_10ConvertVec6to_vecNtNtB7_5alloc6GlobalEBG_, symObjAddr: 0x0, symBinAddr: 0x2C9BC, symSize: 0x2C0 }
  - { offset: 0xE23D8, size: 0x8, addend: 0x0, symName: __RNvXs_NtCsATtFUPiRFW_3syn4itemNtB4_4ItemINtNtCs9f3LFPSIp77_4core7convert4FromNtNtB6_6derive11DeriveInputE4from, symObjAddr: 0x7220, symBinAddr: 0x33BDC, symSize: 0x42C }
  - { offset: 0xE2467, size: 0x8, addend: 0x0, symName: __RNvXNtNtCsATtFUPiRFW_3syn4item7parsingNtB4_4ItemNtNtB6_5parse5Parse5parse, symObjAddr: 0x77C4, symBinAddr: 0x34180, symSize: 0x1B4 }
  - { offset: 0xE250D, size: 0x8, addend: 0x0, symName: __RNvXs0_NtNtCsATtFUPiRFW_3syn4item7parsingNtB7_9ItemMacroNtNtB9_5parse5Parse5parse, symObjAddr: 0x7978, symBinAddr: 0x34334, symSize: 0x640 }
  - { offset: 0xE26D8, size: 0x8, addend: 0x0, symName: __RNvXs1_NtNtCsATtFUPiRFW_3syn4item7parsingNtB7_15ItemExternCrateNtNtB9_5parse5Parse5parse, symObjAddr: 0x7FB8, symBinAddr: 0x34974, symSize: 0x95C }
  - { offset: 0xE28E1, size: 0x8, addend: 0x0, symName: __RNvXs2_NtNtCsATtFUPiRFW_3syn4item7parsingNtB7_7ItemUseNtNtB9_5parse5Parse5parse, symObjAddr: 0x8914, symBinAddr: 0x352D0, symSize: 0x58 }
  - { offset: 0xE2932, size: 0x8, addend: 0x0, symName: __RNvXs3_NtNtCsATtFUPiRFW_3syn4item7parsingNtB7_7UseTreeNtNtB9_5parse5Parse5parse, symObjAddr: 0x896C, symBinAddr: 0x35328, symSize: 0x58 }
  - { offset: 0xE2983, size: 0x8, addend: 0x0, symName: __RNvXs4_NtNtCsATtFUPiRFW_3syn4item7parsingNtB7_10ItemStaticNtNtB9_5parse5Parse5parse, symObjAddr: 0x89C4, symBinAddr: 0x35380, symSize: 0xAC0 }
  - { offset: 0xE2B87, size: 0x8, addend: 0x0, symName: __RNvXs5_NtNtCsATtFUPiRFW_3syn4item7parsingNtB7_9ItemConstNtNtB9_5parse5Parse5parse, symObjAddr: 0x9484, symBinAddr: 0x35E40, symSize: 0xA64 }
  - { offset: 0xE2E55, size: 0x8, addend: 0x0, symName: __RNvXs6_NtNtCsATtFUPiRFW_3syn4item7parsingNtB7_9SignatureNtNtB9_5parse5Parse5parse, symObjAddr: 0x9EE8, symBinAddr: 0x368A4, symSize: 0x60 }
  - { offset: 0xE2EA6, size: 0x8, addend: 0x0, symName: __RNvXs7_NtNtCsATtFUPiRFW_3syn4item7parsingNtB7_6ItemFnNtNtB9_5parse5Parse5parse, symObjAddr: 0x9F48, symBinAddr: 0x36904, symSize: 0x378 }
  - { offset: 0xE2FD9, size: 0x8, addend: 0x0, symName: __RNvXs8_NtNtCsATtFUPiRFW_3syn4item7parsingNtB7_5FnArgNtNtB9_5parse5Parse5parse, symObjAddr: 0xA2C0, symBinAddr: 0x36C7C, symSize: 0x2E0 }
  - { offset: 0xE30D4, size: 0x8, addend: 0x0, symName: __RNvXs9_NtNtCsATtFUPiRFW_3syn4item7parsingNtB7_8ReceiverNtNtB9_5parse5Parse5parse, symObjAddr: 0xA5A0, symBinAddr: 0x36F5C, symSize: 0x98C }
  - { offset: 0xE3327, size: 0x8, addend: 0x0, symName: __RNvXsa_NtNtCsATtFUPiRFW_3syn4item7parsingNtB7_7ItemModNtNtB9_5parse5Parse5parse, symObjAddr: 0xAF2C, symBinAddr: 0x378E8, symSize: 0xC60 }
  - { offset: 0xE3587, size: 0x8, addend: 0x0, symName: __RNvXsb_NtNtCsATtFUPiRFW_3syn4item7parsingNtB7_14ItemForeignModNtNtB9_5parse5Parse5parse, symObjAddr: 0xBB8C, symBinAddr: 0x38548, symSize: 0x61C }
  - { offset: 0xE3736, size: 0x8, addend: 0x0, symName: __RNvXsc_NtNtCsATtFUPiRFW_3syn4item7parsingNtB7_11ForeignItemNtNtB9_5parse5Parse5parse, symObjAddr: 0xC1A8, symBinAddr: 0x38B64, symSize: 0x1DB8 }
  - { offset: 0xE3D9A, size: 0x8, addend: 0x0, symName: __RNvXsd_NtNtCsATtFUPiRFW_3syn4item7parsingNtB7_13ForeignItemFnNtNtB9_5parse5Parse5parse, symObjAddr: 0xDF60, symBinAddr: 0x3A91C, symSize: 0x3C0 }
  - { offset: 0xE3EFA, size: 0x8, addend: 0x0, symName: __RNvXse_NtNtCsATtFUPiRFW_3syn4item7parsingNtB7_17ForeignItemStaticNtNtB9_5parse5Parse5parse, symObjAddr: 0xE320, symBinAddr: 0x3ACDC, symSize: 0x830 }
  - { offset: 0xE40A1, size: 0x8, addend: 0x0, symName: __RNvXsf_NtNtCsATtFUPiRFW_3syn4item7parsingNtB7_15ForeignItemTypeNtNtB9_5parse5Parse5parse, symObjAddr: 0xEB50, symBinAddr: 0x3B50C, symSize: 0x744 }
  - { offset: 0xE4231, size: 0x8, addend: 0x0, symName: __RNvXsg_NtNtCsATtFUPiRFW_3syn4item7parsingNtB7_16ForeignItemMacroNtNtB9_5parse5Parse5parse, symObjAddr: 0xF294, symBinAddr: 0x3BC50, symSize: 0x33C }
  - { offset: 0xE4344, size: 0x8, addend: 0x0, symName: __RNvXsh_NtNtCsATtFUPiRFW_3syn4item7parsingNtB7_8ItemTypeNtNtB9_5parse5Parse5parse, symObjAddr: 0xF5D0, symBinAddr: 0x3BF8C, symSize: 0x9D4 }
  - { offset: 0xE4530, size: 0x8, addend: 0x0, symName: __RNvXsi_NtNtCsATtFUPiRFW_3syn4item7parsingNtB7_10ItemStructNtNtB9_5parse5Parse5parse, symObjAddr: 0xFFA4, symBinAddr: 0x3C960, symSize: 0x650 }
  - { offset: 0xE472B, size: 0x8, addend: 0x0, symName: __RNvXsj_NtNtCsATtFUPiRFW_3syn4item7parsingNtB7_8ItemEnumNtNtB9_5parse5Parse5parse, symObjAddr: 0x105F4, symBinAddr: 0x3CFB0, symSize: 0x650 }
  - { offset: 0xE4926, size: 0x8, addend: 0x0, symName: __RNvXsk_NtNtCsATtFUPiRFW_3syn4item7parsingNtB7_9ItemUnionNtNtB9_5parse5Parse5parse, symObjAddr: 0x10C44, symBinAddr: 0x3D600, symSize: 0x640 }
  - { offset: 0xE4B11, size: 0x8, addend: 0x0, symName: __RNvXsl_NtNtCsATtFUPiRFW_3syn4item7parsingNtB7_9ItemTraitNtNtB9_5parse5Parse5parse, symObjAddr: 0x11284, symBinAddr: 0x3DC40, symSize: 0x640 }
  - { offset: 0xE4D15, size: 0x8, addend: 0x0, symName: __RNvXsm_NtNtCsATtFUPiRFW_3syn4item7parsingNtB7_14ItemTraitAliasNtNtB9_5parse5Parse5parse, symObjAddr: 0x118C4, symBinAddr: 0x3E280, symSize: 0x270 }
  - { offset: 0xE4DC9, size: 0x8, addend: 0x0, symName: __RNvXsn_NtNtCsATtFUPiRFW_3syn4item7parsingNtB7_9TraitItemNtNtB9_5parse5Parse5parse, symObjAddr: 0x11B34, symBinAddr: 0x3E4F0, symSize: 0x1690 }
  - { offset: 0xE5237, size: 0x8, addend: 0x0, symName: __RNvXso_NtNtCsATtFUPiRFW_3syn4item7parsingNtB7_14TraitItemConstNtNtB9_5parse5Parse5parse, symObjAddr: 0x131C4, symBinAddr: 0x3FB80, symSize: 0x88C }
  - { offset: 0xE5479, size: 0x8, addend: 0x0, symName: __RNvXsp_NtNtCsATtFUPiRFW_3syn4item7parsingNtB7_11TraitItemFnNtNtB9_5parse5Parse5parse, symObjAddr: 0x13A50, symBinAddr: 0x4040C, symSize: 0x800 }
  - { offset: 0xE5679, size: 0x8, addend: 0x0, symName: __RNvXsq_NtNtCsATtFUPiRFW_3syn4item7parsingNtB7_13TraitItemTypeNtNtB9_5parse5Parse5parse, symObjAddr: 0x14250, symBinAddr: 0x40C0C, symSize: 0x730 }
  - { offset: 0xE589F, size: 0x8, addend: 0x0, symName: __RNvXsr_NtNtCsATtFUPiRFW_3syn4item7parsingNtB7_14TraitItemMacroNtNtB9_5parse5Parse5parse, symObjAddr: 0x14980, symBinAddr: 0x4133C, symSize: 0x33C }
  - { offset: 0xE59B2, size: 0x8, addend: 0x0, symName: __RNvXss_NtNtCsATtFUPiRFW_3syn4item7parsingNtB7_8ItemImplNtNtB9_5parse5Parse5parse, symObjAddr: 0x14CBC, symBinAddr: 0x41678, symSize: 0x60 }
  - { offset: 0xE5A03, size: 0x8, addend: 0x0, symName: __RNvXst_NtNtCsATtFUPiRFW_3syn4item7parsingNtB7_8ImplItemNtNtB9_5parse5Parse5parse, symObjAddr: 0x14D1C, symBinAddr: 0x416D8, symSize: 0x1AC8 }
  - { offset: 0xE5F1C, size: 0x8, addend: 0x0, symName: __RNvXsu_NtNtCsATtFUPiRFW_3syn4item7parsingNtB7_13ImplItemConstNtNtB9_5parse5Parse5parse, symObjAddr: 0x167E4, symBinAddr: 0x431A0, symSize: 0x9D0 }
  - { offset: 0xE61D7, size: 0x8, addend: 0x0, symName: __RNvXsv_NtNtCsATtFUPiRFW_3syn4item7parsingNtB7_10ImplItemFnNtNtB9_5parse5Parse5parse, symObjAddr: 0x171B4, symBinAddr: 0x43B70, symSize: 0x60 }
  - { offset: 0xE6228, size: 0x8, addend: 0x0, symName: __RNvXsw_NtNtCsATtFUPiRFW_3syn4item7parsingNtB7_12ImplItemTypeNtNtB9_5parse5Parse5parse, symObjAddr: 0x17214, symBinAddr: 0x43BD0, symSize: 0x844 }
  - { offset: 0xE64B6, size: 0x8, addend: 0x0, symName: __RNvXsx_NtNtCsATtFUPiRFW_3syn4item7parsingNtB7_13ImplItemMacroNtNtB9_5parse5Parse5parse, symObjAddr: 0x17A58, symBinAddr: 0x44414, symSize: 0x33C }
  - { offset: 0xE65C9, size: 0x8, addend: 0x0, symName: __RNvXsz_NtNtCsATtFUPiRFW_3syn4item7parsingNtB7_16StaticMutabilityNtNtB9_5parse5Parse5parse, symObjAddr: 0x17D94, symBinAddr: 0x44750, symSize: 0xDC }
  - { offset: 0xE66A0, size: 0x8, addend: 0x0, symName: __RNvXNtNtCsATtFUPiRFW_3syn4item8printingNtB4_15ItemExternCrateNtNtCs62MdaZFMefA_5quote9to_tokens8ToTokens9to_tokens, symObjAddr: 0x17E70, symBinAddr: 0x4482C, symSize: 0x110 }
  - { offset: 0xE670D, size: 0x8, addend: 0x0, symName: __RNvXs_NtNtCsATtFUPiRFW_3syn4item8printingNtB6_7ItemUseNtNtCs62MdaZFMefA_5quote9to_tokens8ToTokens9to_tokens, symObjAddr: 0x17F80, symBinAddr: 0x4493C, symSize: 0xA4 }
  - { offset: 0xE674C, size: 0x8, addend: 0x0, symName: __RNvXs0_NtNtCsATtFUPiRFW_3syn4item8printingNtB7_10ItemStaticNtNtCs62MdaZFMefA_5quote9to_tokens8ToTokens9to_tokens, symObjAddr: 0x18024, symBinAddr: 0x449E0, symSize: 0xE4 }
  - { offset: 0xE678B, size: 0x8, addend: 0x0, symName: __RNvXs1_NtNtCsATtFUPiRFW_3syn4item8printingNtB7_9ItemConstNtNtCs62MdaZFMefA_5quote9to_tokens8ToTokens9to_tokens, symObjAddr: 0x18108, symBinAddr: 0x44AC4, symSize: 0xD4 }
  - { offset: 0xE67CA, size: 0x8, addend: 0x0, symName: __RNvXs2_NtNtCsATtFUPiRFW_3syn4item8printingNtB7_6ItemFnNtNtCs62MdaZFMefA_5quote9to_tokens8ToTokens9to_tokens, symObjAddr: 0x181DC, symBinAddr: 0x44B98, symSize: 0x8C }
  - { offset: 0xE6809, size: 0x8, addend: 0x0, symName: __RNvXs3_NtNtCsATtFUPiRFW_3syn4item8printingNtB7_7ItemModNtNtCs62MdaZFMefA_5quote9to_tokens8ToTokens9to_tokens, symObjAddr: 0x18268, symBinAddr: 0x44C24, symSize: 0x110 }
  - { offset: 0xE6876, size: 0x8, addend: 0x0, symName: __RNvXs4_NtNtCsATtFUPiRFW_3syn4item8printingNtB7_14ItemForeignModNtNtCs62MdaZFMefA_5quote9to_tokens8ToTokens9to_tokens, symObjAddr: 0x18378, symBinAddr: 0x44D34, symSize: 0x88 }
  - { offset: 0xE68B5, size: 0x8, addend: 0x0, symName: __RNvXs5_NtNtCsATtFUPiRFW_3syn4item8printingNtB7_8ItemTypeNtNtCs62MdaZFMefA_5quote9to_tokens8ToTokens9to_tokens, symObjAddr: 0x18400, symBinAddr: 0x44DBC, symSize: 0xD4 }
  - { offset: 0xE68F4, size: 0x8, addend: 0x0, symName: __RNvXs6_NtNtCsATtFUPiRFW_3syn4item8printingNtB7_8ItemEnumNtNtCs62MdaZFMefA_5quote9to_tokens8ToTokens9to_tokens, symObjAddr: 0x184D4, symBinAddr: 0x44E90, symSize: 0xB8 }
  - { offset: 0xE6933, size: 0x8, addend: 0x0, symName: __RNvXs7_NtNtCsATtFUPiRFW_3syn4item8printingNtB7_10ItemStructNtNtCs62MdaZFMefA_5quote9to_tokens8ToTokens9to_tokens, symObjAddr: 0x1858C, symBinAddr: 0x44F48, symSize: 0x188 }
  - { offset: 0xE69AE, size: 0x8, addend: 0x0, symName: __RNvXs8_NtNtCsATtFUPiRFW_3syn4item8printingNtB7_9ItemUnionNtNtCs62MdaZFMefA_5quote9to_tokens8ToTokens9to_tokens, symObjAddr: 0x18714, symBinAddr: 0x450D0, symSize: 0xB4 }
  - { offset: 0xE69ED, size: 0x8, addend: 0x0, symName: __RNvXs9_NtNtCsATtFUPiRFW_3syn4item8printingNtB7_9ItemTraitNtNtCs62MdaZFMefA_5quote9to_tokens8ToTokens9to_tokens, symObjAddr: 0x187C8, symBinAddr: 0x45184, symSize: 0x130 }
  - { offset: 0xE6A2C, size: 0x8, addend: 0x0, symName: __RNvXsa_NtNtCsATtFUPiRFW_3syn4item8printingNtB7_14ItemTraitAliasNtNtCs62MdaZFMefA_5quote9to_tokens8ToTokens9to_tokens, symObjAddr: 0x188F8, symBinAddr: 0x452B4, symSize: 0xD4 }
  - { offset: 0xE6A6B, size: 0x8, addend: 0x0, symName: __RNvXsb_NtNtCsATtFUPiRFW_3syn4item8printingNtB7_8ItemImplNtNtCs62MdaZFMefA_5quote9to_tokens8ToTokens9to_tokens, symObjAddr: 0x189CC, symBinAddr: 0x45388, symSize: 0x14C }
  - { offset: 0xE6AE8, size: 0x8, addend: 0x0, symName: __RNvXsc_NtNtCsATtFUPiRFW_3syn4item8printingNtB7_9ItemMacroNtNtCs62MdaZFMefA_5quote9to_tokens8ToTokens9to_tokens, symObjAddr: 0x18B18, symBinAddr: 0x454D4, symSize: 0x148 }
  - { offset: 0xE6B79, size: 0x8, addend: 0x0, symName: __RNvXsd_NtNtCsATtFUPiRFW_3syn4item8printingNtB7_7UsePathNtNtCs62MdaZFMefA_5quote9to_tokens8ToTokens9to_tokens, symObjAddr: 0x18C60, symBinAddr: 0x4561C, symSize: 0x60 }
  - { offset: 0xE6BB8, size: 0x8, addend: 0x0, symName: __RNvXse_NtNtCsATtFUPiRFW_3syn4item8printingNtB7_7UseNameNtNtCs62MdaZFMefA_5quote9to_tokens8ToTokens9to_tokens, symObjAddr: 0x18CC0, symBinAddr: 0x4567C, symSize: 0x3C }
  - { offset: 0xE6BF7, size: 0x8, addend: 0x0, symName: __RNvXsf_NtNtCsATtFUPiRFW_3syn4item8printingNtB7_9UseRenameNtNtCs62MdaZFMefA_5quote9to_tokens8ToTokens9to_tokens, symObjAddr: 0x18CFC, symBinAddr: 0x456B8, symSize: 0x60 }
  - { offset: 0xE6C36, size: 0x8, addend: 0x0, symName: __RNvXsg_NtNtCsATtFUPiRFW_3syn4item8printingNtB7_7UseGlobNtNtCs62MdaZFMefA_5quote9to_tokens8ToTokens9to_tokens, symObjAddr: 0x18D5C, symBinAddr: 0x45718, symSize: 0x3C }
  - { offset: 0xE6C75, size: 0x8, addend: 0x0, symName: __RNvXsh_NtNtCsATtFUPiRFW_3syn4item8printingNtB7_8UseGroupNtNtCs62MdaZFMefA_5quote9to_tokens8ToTokens9to_tokens, symObjAddr: 0x18D98, symBinAddr: 0x45754, symSize: 0x44 }
  - { offset: 0xE6CB4, size: 0x8, addend: 0x0, symName: __RNvXsi_NtNtCsATtFUPiRFW_3syn4item8printingNtB7_14TraitItemConstNtNtCs62MdaZFMefA_5quote9to_tokens8ToTokens9to_tokens, symObjAddr: 0x18DDC, symBinAddr: 0x45798, symSize: 0x110 }
  - { offset: 0xE6D21, size: 0x8, addend: 0x0, symName: __RNvXsj_NtNtCsATtFUPiRFW_3syn4item8printingNtB7_11TraitItemFnNtNtCs62MdaZFMefA_5quote9to_tokens8ToTokens9to_tokens, symObjAddr: 0x18EEC, symBinAddr: 0x458A8, symSize: 0xD4 }
  - { offset: 0xE6D7E, size: 0x8, addend: 0x0, symName: __RNvXsk_NtNtCsATtFUPiRFW_3syn4item8printingNtB7_13TraitItemTypeNtNtCs62MdaZFMefA_5quote9to_tokens8ToTokens9to_tokens, symObjAddr: 0x18FC0, symBinAddr: 0x4597C, symSize: 0x168 }
  - { offset: 0xE6DEB, size: 0x8, addend: 0x0, symName: __RNvXsl_NtNtCsATtFUPiRFW_3syn4item8printingNtB7_14TraitItemMacroNtNtCs62MdaZFMefA_5quote9to_tokens8ToTokens9to_tokens, symObjAddr: 0x19128, symBinAddr: 0x45AE4, symSize: 0x74 }
  - { offset: 0xE6E2A, size: 0x8, addend: 0x0, symName: __RNvXsm_NtNtCsATtFUPiRFW_3syn4item8printingNtB7_13ImplItemConstNtNtCs62MdaZFMefA_5quote9to_tokens8ToTokens9to_tokens, symObjAddr: 0x1919C, symBinAddr: 0x45B58, symSize: 0xE4 }
  - { offset: 0xE6E69, size: 0x8, addend: 0x0, symName: __RNvXsn_NtNtCsATtFUPiRFW_3syn4item8printingNtB7_10ImplItemFnNtNtCs62MdaZFMefA_5quote9to_tokens8ToTokens9to_tokens, symObjAddr: 0x19280, symBinAddr: 0x45C3C, symSize: 0x98 }
  - { offset: 0xE6EA8, size: 0x8, addend: 0x0, symName: __RNvXso_NtNtCsATtFUPiRFW_3syn4item8printingNtB7_12ImplItemTypeNtNtCs62MdaZFMefA_5quote9to_tokens8ToTokens9to_tokens, symObjAddr: 0x19318, symBinAddr: 0x45CD4, symSize: 0xE4 }
  - { offset: 0xE6EE7, size: 0x8, addend: 0x0, symName: __RNvXsp_NtNtCsATtFUPiRFW_3syn4item8printingNtB7_13ImplItemMacroNtNtCs62MdaZFMefA_5quote9to_tokens8ToTokens9to_tokens, symObjAddr: 0x193FC, symBinAddr: 0x45DB8, symSize: 0x74 }
  - { offset: 0xE6F26, size: 0x8, addend: 0x0, symName: __RNvXsq_NtNtCsATtFUPiRFW_3syn4item8printingNtB7_13ForeignItemFnNtNtCs62MdaZFMefA_5quote9to_tokens8ToTokens9to_tokens, symObjAddr: 0x19470, symBinAddr: 0x45E2C, symSize: 0x84 }
  - { offset: 0xE6F65, size: 0x8, addend: 0x0, symName: __RNvXsr_NtNtCsATtFUPiRFW_3syn4item8printingNtB7_17ForeignItemStaticNtNtCs62MdaZFMefA_5quote9to_tokens8ToTokens9to_tokens, symObjAddr: 0x194F4, symBinAddr: 0x45EB0, symSize: 0xC4 }
  - { offset: 0xE6FA4, size: 0x8, addend: 0x0, symName: __RNvXss_NtNtCsATtFUPiRFW_3syn4item8printingNtB7_15ForeignItemTypeNtNtCs62MdaZFMefA_5quote9to_tokens8ToTokens9to_tokens, symObjAddr: 0x195B8, symBinAddr: 0x45F74, symSize: 0xB4 }
  - { offset: 0xE6FE3, size: 0x8, addend: 0x0, symName: __RNvXst_NtNtCsATtFUPiRFW_3syn4item8printingNtB7_16ForeignItemMacroNtNtCs62MdaZFMefA_5quote9to_tokens8ToTokens9to_tokens, symObjAddr: 0x1966C, symBinAddr: 0x46028, symSize: 0x74 }
  - { offset: 0xE7022, size: 0x8, addend: 0x0, symName: __RNvXsu_NtNtCsATtFUPiRFW_3syn4item8printingNtB7_9SignatureNtNtCs62MdaZFMefA_5quote9to_tokens8ToTokens9to_tokens, symObjAddr: 0x196E0, symBinAddr: 0x4609C, symSize: 0xD4 }
  - { offset: 0xE7061, size: 0x8, addend: 0x0, symName: __RNvXsv_NtNtCsATtFUPiRFW_3syn4item8printingNtB7_8ReceiverNtNtCs62MdaZFMefA_5quote9to_tokens8ToTokens9to_tokens, symObjAddr: 0x197B4, symBinAddr: 0x46170, symSize: 0x40C }
  - { offset: 0xE7156, size: 0x8, addend: 0x0, symName: __RNvXsw_NtNtCsATtFUPiRFW_3syn4item8printingNtB7_8VariadicNtNtCs62MdaZFMefA_5quote9to_tokens8ToTokens9to_tokens, symObjAddr: 0x19BC0, symBinAddr: 0x4657C, symSize: 0xE0 }
  - { offset: 0xE71C3, size: 0x8, addend: 0x0, symName: __RNvXsx_NtNtCsATtFUPiRFW_3syn4item8printingNtB7_16StaticMutabilityNtNtCs62MdaZFMefA_5quote9to_tokens8ToTokens9to_tokens, symObjAddr: 0x19CA0, symBinAddr: 0x4665C, symSize: 0x7C }
  - { offset: 0xE7226, size: 0x8, addend: 0x0, symName: __RNcNtNtNtCsATtFUPiRFW_3syn4item4Item4Enum0B7_, symObjAddr: 0x19D1C, symBinAddr: 0x466D8, symSize: 0x3C }
  - { offset: 0xE7255, size: 0x8, addend: 0x0, symName: __RNcNtNtNtCsATtFUPiRFW_3syn4item4Item11ExternCrate0B7_, symObjAddr: 0x19D58, symBinAddr: 0x46714, symSize: 0x3C }
  - { offset: 0xE7284, size: 0x8, addend: 0x0, symName: __RNcNtNtNtCsATtFUPiRFW_3syn4item4Item2Fn0B7_, symObjAddr: 0x19D94, symBinAddr: 0x46750, symSize: 0x30 }
  - { offset: 0xE72B3, size: 0x8, addend: 0x0, symName: __RNcNtNtNtCsATtFUPiRFW_3syn4item4Item10ForeignMod0B7_, symObjAddr: 0x19DC4, symBinAddr: 0x46780, symSize: 0x3C }
  - { offset: 0xE72E2, size: 0x8, addend: 0x0, symName: __RNcNtNtNtCsATtFUPiRFW_3syn4item4Item5Macro0B7_, symObjAddr: 0x19E00, symBinAddr: 0x467BC, symSize: 0x3C }
  - { offset: 0xE7311, size: 0x8, addend: 0x0, symName: __RNcNtNtNtCsATtFUPiRFW_3syn4item4Item3Mod0B7_, symObjAddr: 0x19E3C, symBinAddr: 0x467F8, symSize: 0x3C }
  - { offset: 0xE7340, size: 0x8, addend: 0x0, symName: __RNcNtNtNtCsATtFUPiRFW_3syn4item4Item6Struct0B7_, symObjAddr: 0x19E78, symBinAddr: 0x46834, symSize: 0x3C }
  - { offset: 0xE736F, size: 0x8, addend: 0x0, symName: __RNcNtNtNtCsATtFUPiRFW_3syn4item4Item5Trait0B7_, symObjAddr: 0x19EB4, symBinAddr: 0x46870, symSize: 0x3C }
  - { offset: 0xE739E, size: 0x8, addend: 0x0, symName: __RNcNtNtNtCsATtFUPiRFW_3syn4item4Item10TraitAlias0B7_, symObjAddr: 0x19EF0, symBinAddr: 0x468AC, symSize: 0x3C }
  - { offset: 0xE73CD, size: 0x8, addend: 0x0, symName: __RNcNtNtNtCsATtFUPiRFW_3syn4item4Item5Union0B7_, symObjAddr: 0x19F2C, symBinAddr: 0x468E8, symSize: 0x3C }
  - { offset: 0xE73FD, size: 0x8, addend: 0x0, symName: __RNvXs5_NtCsATtFUPiRFW_3syn4itemNtB5_4ItemINtNtCs9f3LFPSIp77_4core7convert4FromNtB5_9ItemConstE4from, symObjAddr: 0x19F68, symBinAddr: 0x46924, symSize: 0x4C }
  - { offset: 0xE7430, size: 0x8, addend: 0x0, symName: __RNvXs6_NtCsATtFUPiRFW_3syn4itemNtB5_4ItemINtNtCs9f3LFPSIp77_4core7convert4FromNtB5_8ItemEnumE4from, symObjAddr: 0x19FB4, symBinAddr: 0x46970, symSize: 0x4C }
  - { offset: 0xE7463, size: 0x8, addend: 0x0, symName: __RNvXs7_NtCsATtFUPiRFW_3syn4itemNtB5_4ItemINtNtCs9f3LFPSIp77_4core7convert4FromNtB5_15ItemExternCrateE4from, symObjAddr: 0x1A000, symBinAddr: 0x469BC, symSize: 0x4C }
  - { offset: 0xE7496, size: 0x8, addend: 0x0, symName: __RNvXs8_NtCsATtFUPiRFW_3syn4itemNtB5_4ItemINtNtCs9f3LFPSIp77_4core7convert4FromNtB5_6ItemFnE4from, symObjAddr: 0x1A04C, symBinAddr: 0x46A08, symSize: 0x40 }
  - { offset: 0xE74C9, size: 0x8, addend: 0x0, symName: __RNvXs9_NtCsATtFUPiRFW_3syn4itemNtB5_4ItemINtNtCs9f3LFPSIp77_4core7convert4FromNtB5_14ItemForeignModE4from, symObjAddr: 0x1A08C, symBinAddr: 0x46A48, symSize: 0x4C }
  - { offset: 0xE74FC, size: 0x8, addend: 0x0, symName: __RNvXsa_NtCsATtFUPiRFW_3syn4itemNtB5_4ItemINtNtCs9f3LFPSIp77_4core7convert4FromNtB5_8ItemImplE4from, symObjAddr: 0x1A0D8, symBinAddr: 0x46A94, symSize: 0x4C }
  - { offset: 0xE752F, size: 0x8, addend: 0x0, symName: __RNvXsb_NtCsATtFUPiRFW_3syn4itemNtB5_4ItemINtNtCs9f3LFPSIp77_4core7convert4FromNtB5_9ItemMacroE4from, symObjAddr: 0x1A124, symBinAddr: 0x46AE0, symSize: 0x4C }
  - { offset: 0xE7562, size: 0x8, addend: 0x0, symName: __RNvXsc_NtCsATtFUPiRFW_3syn4itemNtB5_4ItemINtNtCs9f3LFPSIp77_4core7convert4FromNtB5_7ItemModE4from, symObjAddr: 0x1A170, symBinAddr: 0x46B2C, symSize: 0x4C }
  - { offset: 0xE7595, size: 0x8, addend: 0x0, symName: __RNvXsd_NtCsATtFUPiRFW_3syn4itemNtB5_4ItemINtNtCs9f3LFPSIp77_4core7convert4FromNtB5_10ItemStaticE4from, symObjAddr: 0x1A1BC, symBinAddr: 0x46B78, symSize: 0x4C }
  - { offset: 0xE75C8, size: 0x8, addend: 0x0, symName: __RNvXse_NtCsATtFUPiRFW_3syn4itemNtB5_4ItemINtNtCs9f3LFPSIp77_4core7convert4FromNtB5_10ItemStructE4from, symObjAddr: 0x1A208, symBinAddr: 0x46BC4, symSize: 0x4C }
  - { offset: 0xE75FB, size: 0x8, addend: 0x0, symName: __RNvXsf_NtCsATtFUPiRFW_3syn4itemNtB5_4ItemINtNtCs9f3LFPSIp77_4core7convert4FromNtB5_9ItemTraitE4from, symObjAddr: 0x1A254, symBinAddr: 0x46C10, symSize: 0x4C }
  - { offset: 0xE762E, size: 0x8, addend: 0x0, symName: __RNvXsg_NtCsATtFUPiRFW_3syn4itemNtB5_4ItemINtNtCs9f3LFPSIp77_4core7convert4FromNtB5_14ItemTraitAliasE4from, symObjAddr: 0x1A2A0, symBinAddr: 0x46C5C, symSize: 0x4C }
  - { offset: 0xE7661, size: 0x8, addend: 0x0, symName: __RNvXsh_NtCsATtFUPiRFW_3syn4itemNtB5_4ItemINtNtCs9f3LFPSIp77_4core7convert4FromNtB5_8ItemTypeE4from, symObjAddr: 0x1A2EC, symBinAddr: 0x46CA8, symSize: 0x4C }
  - { offset: 0xE7694, size: 0x8, addend: 0x0, symName: __RNvXsi_NtCsATtFUPiRFW_3syn4itemNtB5_4ItemINtNtCs9f3LFPSIp77_4core7convert4FromNtB5_9ItemUnionE4from, symObjAddr: 0x1A338, symBinAddr: 0x46CF4, symSize: 0x4C }
  - { offset: 0xE76C7, size: 0x8, addend: 0x0, symName: __RNvXsj_NtCsATtFUPiRFW_3syn4itemNtB5_4ItemINtNtCs9f3LFPSIp77_4core7convert4FromNtB5_7ItemUseE4from, symObjAddr: 0x1A384, symBinAddr: 0x46D40, symSize: 0x4C }
  - { offset: 0xE76FA, size: 0x8, addend: 0x0, symName: __RNvXsk_NtCsATtFUPiRFW_3syn4itemNtB5_4ItemNtNtCs62MdaZFMefA_5quote9to_tokens8ToTokens9to_tokens, symObjAddr: 0x1A3D0, symBinAddr: 0x46D8C, symSize: 0x35C }
  - { offset: 0xE7904, size: 0x8, addend: 0x0, symName: __RNvXsl_NtCsATtFUPiRFW_3syn4itemNtB5_7UseTreeINtNtCs9f3LFPSIp77_4core7convert4FromNtB5_7UsePathE4from, symObjAddr: 0x1A72C, symBinAddr: 0x470E8, symSize: 0x48 }
  - { offset: 0xE7937, size: 0x8, addend: 0x0, symName: __RNvXsm_NtCsATtFUPiRFW_3syn4itemNtB5_7UseTreeINtNtCs9f3LFPSIp77_4core7convert4FromNtB5_7UseNameE4from, symObjAddr: 0x1A774, symBinAddr: 0x47130, symSize: 0x30 }
  - { offset: 0xE7969, size: 0x8, addend: 0x0, symName: __RNvXsn_NtCsATtFUPiRFW_3syn4itemNtB5_7UseTreeINtNtCs9f3LFPSIp77_4core7convert4FromNtB5_9UseRenameE4from, symObjAddr: 0x1A7A4, symBinAddr: 0x47160, symSize: 0x4C }
  - { offset: 0xE799C, size: 0x8, addend: 0x0, symName: __RNvXso_NtCsATtFUPiRFW_3syn4itemNtB5_7UseTreeINtNtCs9f3LFPSIp77_4core7convert4FromNtB5_7UseGlobE4from, symObjAddr: 0x1A7F0, symBinAddr: 0x471AC, symSize: 0x3C }
  - { offset: 0xE79CE, size: 0x8, addend: 0x0, symName: __RNvXsp_NtCsATtFUPiRFW_3syn4itemNtB5_7UseTreeINtNtCs9f3LFPSIp77_4core7convert4FromNtB5_8UseGroupE4from, symObjAddr: 0x1A82C, symBinAddr: 0x471E8, symSize: 0x4C }
  - { offset: 0xE7A01, size: 0x8, addend: 0x0, symName: __RNvXsq_NtCsATtFUPiRFW_3syn4itemNtB5_7UseTreeNtNtCs62MdaZFMefA_5quote9to_tokens8ToTokens9to_tokens, symObjAddr: 0x1A878, symBinAddr: 0x47234, symSize: 0x15C }
  - { offset: 0xE7ACB, size: 0x8, addend: 0x0, symName: __RNcNtNtNtCsATtFUPiRFW_3syn4item11ForeignItem5Macro0B7_, symObjAddr: 0x1A9D4, symBinAddr: 0x47390, symSize: 0x3C }
  - { offset: 0xE7AFD, size: 0x8, addend: 0x0, symName: __RNvXsr_NtCsATtFUPiRFW_3syn4itemNtB5_11ForeignItemINtNtCs9f3LFPSIp77_4core7convert4FromNtB5_13ForeignItemFnE4from, symObjAddr: 0x1AA10, symBinAddr: 0x473CC, symSize: 0x40 }
  - { offset: 0xE7B30, size: 0x8, addend: 0x0, symName: __RNvXss_NtCsATtFUPiRFW_3syn4itemNtB5_11ForeignItemINtNtCs9f3LFPSIp77_4core7convert4FromNtB5_17ForeignItemStaticE4from, symObjAddr: 0x1AA50, symBinAddr: 0x4740C, symSize: 0x4C }
  - { offset: 0xE7B63, size: 0x8, addend: 0x0, symName: __RNvXst_NtCsATtFUPiRFW_3syn4itemNtB5_11ForeignItemINtNtCs9f3LFPSIp77_4core7convert4FromNtB5_15ForeignItemTypeE4from, symObjAddr: 0x1AA9C, symBinAddr: 0x47458, symSize: 0x4C }
  - { offset: 0xE7B96, size: 0x8, addend: 0x0, symName: __RNvXsu_NtCsATtFUPiRFW_3syn4itemNtB5_11ForeignItemINtNtCs9f3LFPSIp77_4core7convert4FromNtB5_16ForeignItemMacroE4from, symObjAddr: 0x1AAE8, symBinAddr: 0x474A4, symSize: 0x4C }
  - { offset: 0xE7BC9, size: 0x8, addend: 0x0, symName: __RNvXsv_NtCsATtFUPiRFW_3syn4itemNtB5_11ForeignItemNtNtCs62MdaZFMefA_5quote9to_tokens8ToTokens9to_tokens, symObjAddr: 0x1AB34, symBinAddr: 0x474F0, symSize: 0x168 }
  - { offset: 0xE7C93, size: 0x8, addend: 0x0, symName: __RNcNtNtNtCsATtFUPiRFW_3syn4item9TraitItem2Fn0B7_, symObjAddr: 0x1AC9C, symBinAddr: 0x47658, symSize: 0x3C }
  - { offset: 0xE7CC4, size: 0x8, addend: 0x0, symName: __RNcNtNtNtCsATtFUPiRFW_3syn4item9TraitItem5Macro0B7_, symObjAddr: 0x1ACD8, symBinAddr: 0x47694, symSize: 0x3C }
  - { offset: 0xE7CF6, size: 0x8, addend: 0x0, symName: __RNvXsw_NtCsATtFUPiRFW_3syn4itemNtB5_9TraitItemINtNtCs9f3LFPSIp77_4core7convert4FromNtB5_14TraitItemConstE4from, symObjAddr: 0x1AD14, symBinAddr: 0x476D0, symSize: 0x40 }
  - { offset: 0xE7D29, size: 0x8, addend: 0x0, symName: __RNvXsx_NtCsATtFUPiRFW_3syn4itemNtB5_9TraitItemINtNtCs9f3LFPSIp77_4core7convert4FromNtB5_11TraitItemFnE4from, symObjAddr: 0x1AD54, symBinAddr: 0x47710, symSize: 0x4C }
  - { offset: 0xE7D5C, size: 0x8, addend: 0x0, symName: __RNvXsy_NtCsATtFUPiRFW_3syn4itemNtB5_9TraitItemINtNtCs9f3LFPSIp77_4core7convert4FromNtB5_13TraitItemTypeE4from, symObjAddr: 0x1ADA0, symBinAddr: 0x4775C, symSize: 0x4C }
  - { offset: 0xE7D8F, size: 0x8, addend: 0x0, symName: __RNvXsz_NtCsATtFUPiRFW_3syn4itemNtB5_9TraitItemINtNtCs9f3LFPSIp77_4core7convert4FromNtB5_14TraitItemMacroE4from, symObjAddr: 0x1ADEC, symBinAddr: 0x477A8, symSize: 0x4C }
  - { offset: 0xE7DC2, size: 0x8, addend: 0x0, symName: __RNvXsA_NtCsATtFUPiRFW_3syn4itemNtB5_9TraitItemNtNtCs62MdaZFMefA_5quote9to_tokens8ToTokens9to_tokens, symObjAddr: 0x1AE38, symBinAddr: 0x477F4, symSize: 0x168 }
  - { offset: 0xE7E8C, size: 0x8, addend: 0x0, symName: __RNcNtNtNtCsATtFUPiRFW_3syn4item8ImplItem5Macro0B7_, symObjAddr: 0x1AFA0, symBinAddr: 0x4795C, symSize: 0x3C }
  - { offset: 0xE7EBE, size: 0x8, addend: 0x0, symName: __RNvXsB_NtCsATtFUPiRFW_3syn4itemNtB5_8ImplItemINtNtCs9f3LFPSIp77_4core7convert4FromNtB5_13ImplItemConstE4from, symObjAddr: 0x1AFDC, symBinAddr: 0x47998, symSize: 0x40 }
  - { offset: 0xE7EF1, size: 0x8, addend: 0x0, symName: __RNvXsC_NtCsATtFUPiRFW_3syn4itemNtB5_8ImplItemINtNtCs9f3LFPSIp77_4core7convert4FromNtB5_10ImplItemFnE4from, symObjAddr: 0x1B01C, symBinAddr: 0x479D8, symSize: 0x4C }
  - { offset: 0xE7F24, size: 0x8, addend: 0x0, symName: __RNvXsD_NtCsATtFUPiRFW_3syn4itemNtB5_8ImplItemINtNtCs9f3LFPSIp77_4core7convert4FromNtB5_12ImplItemTypeE4from, symObjAddr: 0x1B068, symBinAddr: 0x47A24, symSize: 0x4C }
  - { offset: 0xE7F57, size: 0x8, addend: 0x0, symName: __RNvXsE_NtCsATtFUPiRFW_3syn4itemNtB5_8ImplItemINtNtCs9f3LFPSIp77_4core7convert4FromNtB5_13ImplItemMacroE4from, symObjAddr: 0x1B0B4, symBinAddr: 0x47A70, symSize: 0x4C }
  - { offset: 0xE7F8A, size: 0x8, addend: 0x0, symName: __RNvXsF_NtCsATtFUPiRFW_3syn4itemNtB5_8ImplItemNtNtCs62MdaZFMefA_5quote9to_tokens8ToTokens9to_tokens, symObjAddr: 0x1B100, symBinAddr: 0x47ABC, symSize: 0x168 }
  - { offset: 0xE804F, size: 0x8, addend: 0x0, symName: __RNvXsG_NtCsATtFUPiRFW_3syn4itemNtB5_5FnArgINtNtCs9f3LFPSIp77_4core7convert4FromNtB5_8ReceiverE4from, symObjAddr: 0x1B268, symBinAddr: 0x47C24, symSize: 0x40 }
  - { offset: 0xE8082, size: 0x8, addend: 0x0, symName: __RNvXsH_NtCsATtFUPiRFW_3syn4itemNtB5_5FnArgINtNtCs9f3LFPSIp77_4core7convert4FromNtNtB7_3pat7PatTypeE4from, symObjAddr: 0x1B2A8, symBinAddr: 0x47C64, symSize: 0x4C }
  - { offset: 0xE80B5, size: 0x8, addend: 0x0, symName: __RNvXsI_NtCsATtFUPiRFW_3syn4itemNtB5_5FnArgNtNtCs62MdaZFMefA_5quote9to_tokens8ToTokens9to_tokens, symObjAddr: 0x1B2F4, symBinAddr: 0x47CB0, symSize: 0xA0 }
  - { offset: 0xE8128, size: 0x8, addend: 0x0, symName: __RNcNtNtNtCsATtFUPiRFW_3syn4item16StaticMutability3Mut0B7_, symObjAddr: 0x1B394, symBinAddr: 0x47D50, symSize: 0x20 }
  - { offset: 0xEBBD6, size: 0x8, addend: 0x0, symName: __RNvXs16_NtNtCsATtFUPiRFW_3syn3gen5cloneNtNtBa_4item5FnArgNtNtCs9f3LFPSIp77_4core5clone5Clone5clone, symObjAddr: 0x1B3B4, symBinAddr: 0x47D70, symSize: 0xDC }
  - { offset: 0xEBC3E, size: 0x8, addend: 0x0, symName: __RNvXs17_NtNtCsATtFUPiRFW_3syn3gen5cloneNtNtBa_4item11ForeignItemNtNtCs9f3LFPSIp77_4core5clone5Clone5clone, symObjAddr: 0x1B490, symBinAddr: 0x47E4C, symSize: 0x224 }
  - { offset: 0xEBD00, size: 0x8, addend: 0x0, symName: __RNvXs18_NtNtCsATtFUPiRFW_3syn3gen5cloneNtNtBa_4item13ForeignItemFnNtNtCs9f3LFPSIp77_4core5clone5Clone5clone, symObjAddr: 0x1B6B4, symBinAddr: 0x48070, symSize: 0x134 }
  - { offset: 0xEBD34, size: 0x8, addend: 0x0, symName: __RNvXs19_NtNtCsATtFUPiRFW_3syn3gen5cloneNtNtBa_4item16ForeignItemMacroNtNtCs9f3LFPSIp77_4core5clone5Clone5clone, symObjAddr: 0x1B7E8, symBinAddr: 0x481A4, symSize: 0xEC }
  - { offset: 0xEBD68, size: 0x8, addend: 0x0, symName: __RNvXs1a_NtNtCsATtFUPiRFW_3syn3gen5cloneNtNtBa_4item17ForeignItemStaticNtNtCs9f3LFPSIp77_4core5clone5Clone5clone, symObjAddr: 0x1B8D4, symBinAddr: 0x48290, symSize: 0x1D4 }
  - { offset: 0xEBD9C, size: 0x8, addend: 0x0, symName: __RNvXs1b_NtNtCsATtFUPiRFW_3syn3gen5cloneNtNtBa_4item15ForeignItemTypeNtNtCs9f3LFPSIp77_4core5clone5Clone5clone, symObjAddr: 0x1BAA8, symBinAddr: 0x48464, symSize: 0x190 }
  - { offset: 0xEBDD0, size: 0x8, addend: 0x0, symName: __RNvXs1f_NtNtCsATtFUPiRFW_3syn3gen5cloneNtNtBa_4item8ImplItemNtNtCs9f3LFPSIp77_4core5clone5Clone5clone, symObjAddr: 0x1BC38, symBinAddr: 0x485F4, symSize: 0x21C }
  - { offset: 0xEBE92, size: 0x8, addend: 0x0, symName: __RNvXs1g_NtNtCsATtFUPiRFW_3syn3gen5cloneNtNtBa_4item13ImplItemConstNtNtCs9f3LFPSIp77_4core5clone5Clone5clone, symObjAddr: 0x1BE54, symBinAddr: 0x48810, symSize: 0x2A4 }
  - { offset: 0xEBEC6, size: 0x8, addend: 0x0, symName: __RNvXs1h_NtNtCsATtFUPiRFW_3syn3gen5cloneNtNtBa_4item10ImplItemFnNtNtCs9f3LFPSIp77_4core5clone5Clone5clone, symObjAddr: 0x1C0F8, symBinAddr: 0x48AB4, symSize: 0x158 }
  - { offset: 0xEBEFA, size: 0x8, addend: 0x0, symName: __RNvXs1i_NtNtCsATtFUPiRFW_3syn3gen5cloneNtNtBa_4item13ImplItemMacroNtNtCs9f3LFPSIp77_4core5clone5Clone5clone, symObjAddr: 0x1C250, symBinAddr: 0x48C0C, symSize: 0xEC }
  - { offset: 0xEBF2E, size: 0x8, addend: 0x0, symName: __RNvXs1j_NtNtCsATtFUPiRFW_3syn3gen5cloneNtNtBa_4item12ImplItemTypeNtNtCs9f3LFPSIp77_4core5clone5Clone5clone, symObjAddr: 0x1C33C, symBinAddr: 0x48CF8, symSize: 0x230 }
  - { offset: 0xEBF62, size: 0x8, addend: 0x0, symName: __RNvXs1k_NtNtCsATtFUPiRFW_3syn3gen5cloneNtNtBa_4item15ImplRestrictionNtNtCs9f3LFPSIp77_4core5clone5Clone5clone, symObjAddr: 0x1C56C, symBinAddr: 0x48F28, symSize: 0xC }
  - { offset: 0xEBF92, size: 0x8, addend: 0x0, symName: __RNvXs1m_NtNtCsATtFUPiRFW_3syn3gen5cloneNtNtBa_4item4ItemNtNtCs9f3LFPSIp77_4core5clone5Clone5clone, symObjAddr: 0x1C578, symBinAddr: 0x48F34, symSize: 0x5C8 }
  - { offset: 0xEC1A9, size: 0x8, addend: 0x0, symName: __RNvXs1n_NtNtCsATtFUPiRFW_3syn3gen5cloneNtNtBa_4item9ItemConstNtNtCs9f3LFPSIp77_4core5clone5Clone5clone, symObjAddr: 0x1CB40, symBinAddr: 0x494FC, symSize: 0x268 }
  - { offset: 0xEC1DD, size: 0x8, addend: 0x0, symName: __RNvXs1o_NtNtCsATtFUPiRFW_3syn3gen5cloneNtNtBa_4item8ItemEnumNtNtCs9f3LFPSIp77_4core5clone5Clone5clone, symObjAddr: 0x1CDA8, symBinAddr: 0x49764, symSize: 0x1B8 }
  - { offset: 0xEC211, size: 0x8, addend: 0x0, symName: __RNvXs1p_NtNtCsATtFUPiRFW_3syn3gen5cloneNtNtBa_4item15ItemExternCrateNtNtCs9f3LFPSIp77_4core5clone5Clone5clone, symObjAddr: 0x1CF60, symBinAddr: 0x4991C, symSize: 0x19C }
  - { offset: 0xEC245, size: 0x8, addend: 0x0, symName: __RNvXs1q_NtNtCsATtFUPiRFW_3syn3gen5cloneNtNtBa_4item6ItemFnNtNtCs9f3LFPSIp77_4core5clone5Clone5clone, symObjAddr: 0x1D0FC, symBinAddr: 0x49AB8, symSize: 0x124 }
  - { offset: 0xEC279, size: 0x8, addend: 0x0, symName: __RNvXs1r_NtNtCsATtFUPiRFW_3syn3gen5cloneNtNtBa_4item14ItemForeignModNtNtCs9f3LFPSIp77_4core5clone5Clone5clone, symObjAddr: 0x1D220, symBinAddr: 0x49BDC, symSize: 0x13C }
  - { offset: 0xEC2AD, size: 0x8, addend: 0x0, symName: __RNvXs1s_NtNtCsATtFUPiRFW_3syn3gen5cloneNtNtBa_4item8ItemImplNtNtCs9f3LFPSIp77_4core5clone5Clone5clone, symObjAddr: 0x1D35C, symBinAddr: 0x49D18, symSize: 0x210 }
  - { offset: 0xEC2E1, size: 0x8, addend: 0x0, symName: __RNvXs1t_NtNtCsATtFUPiRFW_3syn3gen5cloneNtNtBa_4item9ItemMacroNtNtCs9f3LFPSIp77_4core5clone5Clone5clone, symObjAddr: 0x1D56C, symBinAddr: 0x49F28, symSize: 0x12C }
  - { offset: 0xEC315, size: 0x8, addend: 0x0, symName: __RNvXs1u_NtNtCsATtFUPiRFW_3syn3gen5cloneNtNtBa_4item7ItemModNtNtCs9f3LFPSIp77_4core5clone5Clone5clone, symObjAddr: 0x1D698, symBinAddr: 0x4A054, symSize: 0x1B0 }
  - { offset: 0xEC349, size: 0x8, addend: 0x0, symName: __RNvXs1v_NtNtCsATtFUPiRFW_3syn3gen5cloneNtNtBa_4item10ItemStaticNtNtCs9f3LFPSIp77_4core5clone5Clone5clone, symObjAddr: 0x1D848, symBinAddr: 0x4A204, symSize: 0x240 }
  - { offset: 0xEC37D, size: 0x8, addend: 0x0, symName: __RNvXs1w_NtNtCsATtFUPiRFW_3syn3gen5cloneNtNtBa_4item10ItemStructNtNtCs9f3LFPSIp77_4core5clone5Clone5clone, symObjAddr: 0x1DA88, symBinAddr: 0x4A444, symSize: 0x1D4 }
  - { offset: 0xEC3B1, size: 0x8, addend: 0x0, symName: __RNvXs1x_NtNtCsATtFUPiRFW_3syn3gen5cloneNtNtBa_4item9ItemTraitNtNtCs9f3LFPSIp77_4core5clone5Clone5clone, symObjAddr: 0x1DC5C, symBinAddr: 0x4A618, symSize: 0x278 }
  - { offset: 0xEC3E5, size: 0x8, addend: 0x0, symName: __RNvXs1y_NtNtCsATtFUPiRFW_3syn3gen5cloneNtNtBa_4item14ItemTraitAliasNtNtCs9f3LFPSIp77_4core5clone5Clone5clone, symObjAddr: 0x1DED4, symBinAddr: 0x4A890, symSize: 0x1FC }
  - { offset: 0xEC419, size: 0x8, addend: 0x0, symName: __RNvXs1z_NtNtCsATtFUPiRFW_3syn3gen5cloneNtNtBa_4item8ItemTypeNtNtCs9f3LFPSIp77_4core5clone5Clone5clone, symObjAddr: 0x1E0D0, symBinAddr: 0x4AA8C, symSize: 0x1FC }
  - { offset: 0xEC44D, size: 0x8, addend: 0x0, symName: __RNvXs1A_NtNtCsATtFUPiRFW_3syn3gen5cloneNtNtBa_4item9ItemUnionNtNtCs9f3LFPSIp77_4core5clone5Clone5clone, symObjAddr: 0x1E2CC, symBinAddr: 0x4AC88, symSize: 0x18C }
  - { offset: 0xEC481, size: 0x8, addend: 0x0, symName: __RNvXs1B_NtNtCsATtFUPiRFW_3syn3gen5cloneNtNtBa_4item7ItemUseNtNtCs9f3LFPSIp77_4core5clone5Clone5clone, symObjAddr: 0x1E458, symBinAddr: 0x4AE14, symSize: 0x16C }
  - { offset: 0xEC4B5, size: 0x8, addend: 0x0, symName: __RNvXs2b_NtNtCsATtFUPiRFW_3syn3gen5cloneNtNtBa_4item8ReceiverNtNtCs9f3LFPSIp77_4core5clone5Clone5clone, symObjAddr: 0x1E5C4, symBinAddr: 0x4AF80, symSize: 0x14C }
  - { offset: 0xEC4E9, size: 0x8, addend: 0x0, symName: __RNvXs2d_NtNtCsATtFUPiRFW_3syn3gen5cloneNtNtBa_4item9SignatureNtNtCs9f3LFPSIp77_4core5clone5Clone5clone, symObjAddr: 0x1E710, symBinAddr: 0x4B0CC, symSize: 0x278 }
  - { offset: 0xEC51D, size: 0x8, addend: 0x0, symName: __RNvXs2e_NtNtCsATtFUPiRFW_3syn3gen5cloneNtNtBa_4item16StaticMutabilityNtNtCs9f3LFPSIp77_4core5clone5Clone5clone, symObjAddr: 0x1E988, symBinAddr: 0x4B344, symSize: 0x88 }
  - { offset: 0xEC56F, size: 0x8, addend: 0x0, symName: __RNvXs2k_NtNtCsATtFUPiRFW_3syn3gen5cloneNtNtBa_4item9TraitItemNtNtCs9f3LFPSIp77_4core5clone5Clone5clone, symObjAddr: 0x1EA10, symBinAddr: 0x4B3CC, symSize: 0x21C }
  - { offset: 0xEC631, size: 0x8, addend: 0x0, symName: __RNvXs2l_NtNtCsATtFUPiRFW_3syn3gen5cloneNtNtBa_4item14TraitItemConstNtNtCs9f3LFPSIp77_4core5clone5Clone5clone, symObjAddr: 0x1EC2C, symBinAddr: 0x4B5E8, symSize: 0x210 }
  - { offset: 0xEC665, size: 0x8, addend: 0x0, symName: __RNvXs2m_NtNtCsATtFUPiRFW_3syn3gen5cloneNtNtBa_4item11TraitItemFnNtNtCs9f3LFPSIp77_4core5clone5Clone5clone, symObjAddr: 0x1EE3C, symBinAddr: 0x4B7F8, symSize: 0x138 }
  - { offset: 0xEC699, size: 0x8, addend: 0x0, symName: __RNvXs2n_NtNtCsATtFUPiRFW_3syn3gen5cloneNtNtBa_4item14TraitItemMacroNtNtCs9f3LFPSIp77_4core5clone5Clone5clone, symObjAddr: 0x1EF74, symBinAddr: 0x4B930, symSize: 0xEC }
  - { offset: 0xEC6CD, size: 0x8, addend: 0x0, symName: __RNvXs2o_NtNtCsATtFUPiRFW_3syn3gen5cloneNtNtBa_4item13TraitItemTypeNtNtCs9f3LFPSIp77_4core5clone5Clone5clone, symObjAddr: 0x1F060, symBinAddr: 0x4BA1C, symSize: 0x204 }
  - { offset: 0xEC701, size: 0x8, addend: 0x0, symName: __RNvXs2I_NtNtCsATtFUPiRFW_3syn3gen5cloneNtNtBa_4item7UseGlobNtNtCs9f3LFPSIp77_4core5clone5Clone5clone, symObjAddr: 0x1F264, symBinAddr: 0x4BC20, symSize: 0x4C }
  - { offset: 0xEC735, size: 0x8, addend: 0x0, symName: __RNvXs2J_NtNtCsATtFUPiRFW_3syn3gen5cloneNtNtBa_4item8UseGroupNtNtCs9f3LFPSIp77_4core5clone5Clone5clone, symObjAddr: 0x1F2B0, symBinAddr: 0x4BC6C, symSize: 0x70 }
  - { offset: 0xEC769, size: 0x8, addend: 0x0, symName: __RNvXs2K_NtNtCsATtFUPiRFW_3syn3gen5cloneNtNtBa_4item7UseNameNtNtCs9f3LFPSIp77_4core5clone5Clone5clone, symObjAddr: 0x1F320, symBinAddr: 0x4BCDC, symSize: 0x50 }
  - { offset: 0xEC79D, size: 0x8, addend: 0x0, symName: __RNvXs2L_NtNtCsATtFUPiRFW_3syn3gen5cloneNtNtBa_4item7UsePathNtNtCs9f3LFPSIp77_4core5clone5Clone5clone, symObjAddr: 0x1F370, symBinAddr: 0x4BD2C, symSize: 0xC0 }
  - { offset: 0xEC7D1, size: 0x8, addend: 0x0, symName: __RNvXs2M_NtNtCsATtFUPiRFW_3syn3gen5cloneNtNtBa_4item9UseRenameNtNtCs9f3LFPSIp77_4core5clone5Clone5clone, symObjAddr: 0x1F430, symBinAddr: 0x4BDEC, symSize: 0xB8 }
  - { offset: 0xEC805, size: 0x8, addend: 0x0, symName: __RNvXs2N_NtNtCsATtFUPiRFW_3syn3gen5cloneNtNtBa_4item7UseTreeNtNtCs9f3LFPSIp77_4core5clone5Clone5clone, symObjAddr: 0x1F4E8, symBinAddr: 0x4BEA4, symSize: 0x20C }
  - { offset: 0xEC8C8, size: 0x8, addend: 0x0, symName: __RNvXs2O_NtNtCsATtFUPiRFW_3syn3gen5cloneNtNtBa_4item8VariadicNtNtCs9f3LFPSIp77_4core5clone5Clone5clone, symObjAddr: 0x1F6F4, symBinAddr: 0x4C0B0, symSize: 0x100 }
  - { offset: 0xEC902, size: 0x8, addend: 0x0, symName: __RNvXs1N_NtNtCsATtFUPiRFW_3syn3gen5debugNtNtBa_4item5FnArgNtNtCs9f3LFPSIp77_4core3fmt5Debug3fmt, symObjAddr: 0x1F7F4, symBinAddr: 0x4C1B0, symSize: 0x184 }
  - { offset: 0xEC9D2, size: 0x8, addend: 0x0, symName: __RNvXs1O_NtNtCsATtFUPiRFW_3syn3gen5debugNtNtBa_4item11ForeignItemNtNtCs9f3LFPSIp77_4core3fmt5Debug3fmt, symObjAddr: 0x1F978, symBinAddr: 0x4C334, symSize: 0x268 }
  - { offset: 0xECADE, size: 0x8, addend: 0x0, symName: __RNvXs1P_NtNtCsATtFUPiRFW_3syn3gen5debugNtNtBa_4item13ForeignItemFnNtNtCs9f3LFPSIp77_4core3fmt5Debug3fmt, symObjAddr: 0x1FBE0, symBinAddr: 0x4C59C, symSize: 0x4C }
  - { offset: 0xECB21, size: 0x8, addend: 0x0, symName: __RNvXs1R_NtNtCsATtFUPiRFW_3syn3gen5debugNtNtBa_4item16ForeignItemMacroNtNtCs9f3LFPSIp77_4core3fmt5Debug3fmt, symObjAddr: 0x1FD30, symBinAddr: 0x4C6EC, symSize: 0x4C }
  - { offset: 0xECB64, size: 0x8, addend: 0x0, symName: __RNvXs1T_NtNtCsATtFUPiRFW_3syn3gen5debugNtNtBa_4item17ForeignItemStaticNtNtCs9f3LFPSIp77_4core3fmt5Debug3fmt, symObjAddr: 0x1FE58, symBinAddr: 0x4C814, symSize: 0x4C }
  - { offset: 0xECBA7, size: 0x8, addend: 0x0, symName: __RNvXs1V_NtNtCsATtFUPiRFW_3syn3gen5debugNtNtBa_4item15ForeignItemTypeNtNtCs9f3LFPSIp77_4core3fmt5Debug3fmt, symObjAddr: 0x20048, symBinAddr: 0x4CA04, symSize: 0x4C }
  - { offset: 0xECBEA, size: 0x8, addend: 0x0, symName: __RNvXs20_NtNtCsATtFUPiRFW_3syn3gen5debugNtNtBa_4item8ImplItemNtNtCs9f3LFPSIp77_4core3fmt5Debug3fmt, symObjAddr: 0x201E8, symBinAddr: 0x4CBA4, symSize: 0x268 }
  - { offset: 0xECCF6, size: 0x8, addend: 0x0, symName: __RNvXs21_NtNtCsATtFUPiRFW_3syn3gen5debugNtNtBa_4item13ImplItemConstNtNtCs9f3LFPSIp77_4core3fmt5Debug3fmt, symObjAddr: 0x20450, symBinAddr: 0x4CE0C, symSize: 0x4C }
  - { offset: 0xECD39, size: 0x8, addend: 0x0, symName: __RNvXs23_NtNtCsATtFUPiRFW_3syn3gen5debugNtNtBa_4item10ImplItemFnNtNtCs9f3LFPSIp77_4core3fmt5Debug3fmt, symObjAddr: 0x206B4, symBinAddr: 0x4D070, symSize: 0x4C }
  - { offset: 0xECD7C, size: 0x8, addend: 0x0, symName: __RNvXs25_NtNtCsATtFUPiRFW_3syn3gen5debugNtNtBa_4item13ImplItemMacroNtNtCs9f3LFPSIp77_4core3fmt5Debug3fmt, symObjAddr: 0x2082C, symBinAddr: 0x4D1E8, symSize: 0x4C }
  - { offset: 0xECDBF, size: 0x8, addend: 0x0, symName: __RNvXs27_NtNtCsATtFUPiRFW_3syn3gen5debugNtNtBa_4item12ImplItemTypeNtNtCs9f3LFPSIp77_4core3fmt5Debug3fmt, symObjAddr: 0x20954, symBinAddr: 0x4D310, symSize: 0x4C }
  - { offset: 0xECE02, size: 0x8, addend: 0x0, symName: __RNvXs29_NtNtCsATtFUPiRFW_3syn3gen5debugNtNtBa_4item15ImplRestrictionNtNtCs9f3LFPSIp77_4core3fmt5Debug3fmt, symObjAddr: 0x20B6C, symBinAddr: 0x4D528, symSize: 0x10 }
  - { offset: 0xECE45, size: 0x8, addend: 0x0, symName: __RNvXs2b_NtNtCsATtFUPiRFW_3syn3gen5debugNtNtBa_4item4ItemNtNtCs9f3LFPSIp77_4core3fmt5Debug3fmt, symObjAddr: 0x20B7C, symBinAddr: 0x4D538, symSize: 0x560 }
  - { offset: 0xED0A9, size: 0x8, addend: 0x0, symName: __RNvXs2c_NtNtCsATtFUPiRFW_3syn3gen5debugNtNtBa_4item9ItemConstNtNtCs9f3LFPSIp77_4core3fmt5Debug3fmt, symObjAddr: 0x210DC, symBinAddr: 0x4DA98, symSize: 0x4C }
  - { offset: 0xED0EC, size: 0x8, addend: 0x0, symName: __RNvXs2e_NtNtCsATtFUPiRFW_3syn3gen5debugNtNtBa_4item8ItemEnumNtNtCs9f3LFPSIp77_4core3fmt5Debug3fmt, symObjAddr: 0x2131C, symBinAddr: 0x4DCD8, symSize: 0x4C }
  - { offset: 0xED12F, size: 0x8, addend: 0x0, symName: __RNvXs2g_NtNtCsATtFUPiRFW_3syn3gen5debugNtNtBa_4item15ItemExternCrateNtNtCs9f3LFPSIp77_4core3fmt5Debug3fmt, symObjAddr: 0x214E4, symBinAddr: 0x4DEA0, symSize: 0x4C }
  - { offset: 0xED172, size: 0x8, addend: 0x0, symName: __RNvXs2i_NtNtCsATtFUPiRFW_3syn3gen5debugNtNtBa_4item6ItemFnNtNtCs9f3LFPSIp77_4core3fmt5Debug3fmt, symObjAddr: 0x216AC, symBinAddr: 0x4E068, symSize: 0x4C }
  - { offset: 0xED1B5, size: 0x8, addend: 0x0, symName: __RNvXs2k_NtNtCsATtFUPiRFW_3syn3gen5debugNtNtBa_4item14ItemForeignModNtNtCs9f3LFPSIp77_4core3fmt5Debug3fmt, symObjAddr: 0x217FC, symBinAddr: 0x4E1B8, symSize: 0x4C }
  - { offset: 0xED1F8, size: 0x8, addend: 0x0, symName: __RNvXs2m_NtNtCsATtFUPiRFW_3syn3gen5debugNtNtBa_4item8ItemImplNtNtCs9f3LFPSIp77_4core3fmt5Debug3fmt, symObjAddr: 0x21974, symBinAddr: 0x4E330, symSize: 0x4C }
  - { offset: 0xED23B, size: 0x8, addend: 0x0, symName: __RNvXs2o_NtNtCsATtFUPiRFW_3syn3gen5debugNtNtBa_4item9ItemMacroNtNtCs9f3LFPSIp77_4core3fmt5Debug3fmt, symObjAddr: 0x21B8C, symBinAddr: 0x4E548, symSize: 0x4C }
  - { offset: 0xED27E, size: 0x8, addend: 0x0, symName: __RNvXs2q_NtNtCsATtFUPiRFW_3syn3gen5debugNtNtBa_4item7ItemModNtNtCs9f3LFPSIp77_4core3fmt5Debug3fmt, symObjAddr: 0x21CDC, symBinAddr: 0x4E698, symSize: 0x4C }
  - { offset: 0xED2C1, size: 0x8, addend: 0x0, symName: __RNvXs2s_NtNtCsATtFUPiRFW_3syn3gen5debugNtNtBa_4item10ItemStaticNtNtCs9f3LFPSIp77_4core3fmt5Debug3fmt, symObjAddr: 0x21EA4, symBinAddr: 0x4E860, symSize: 0x4C }
  - { offset: 0xED304, size: 0x8, addend: 0x0, symName: __RNvXs2u_NtNtCsATtFUPiRFW_3syn3gen5debugNtNtBa_4item10ItemStructNtNtCs9f3LFPSIp77_4core3fmt5Debug3fmt, symObjAddr: 0x220E4, symBinAddr: 0x4EAA0, symSize: 0x4C }
  - { offset: 0xED347, size: 0x8, addend: 0x0, symName: __RNvXs2w_NtNtCsATtFUPiRFW_3syn3gen5debugNtNtBa_4item9ItemTraitNtNtCs9f3LFPSIp77_4core3fmt5Debug3fmt, symObjAddr: 0x222AC, symBinAddr: 0x4EC68, symSize: 0x4C }
  - { offset: 0xED38A, size: 0x8, addend: 0x0, symName: __RNvXs2y_NtNtCsATtFUPiRFW_3syn3gen5debugNtNtBa_4item14ItemTraitAliasNtNtCs9f3LFPSIp77_4core3fmt5Debug3fmt, symObjAddr: 0x2252C, symBinAddr: 0x4EEE8, symSize: 0x4C }
  - { offset: 0xED3CD, size: 0x8, addend: 0x0, symName: __RNvXs2A_NtNtCsATtFUPiRFW_3syn3gen5debugNtNtBa_4item8ItemTypeNtNtCs9f3LFPSIp77_4core3fmt5Debug3fmt, symObjAddr: 0x2271C, symBinAddr: 0x4F0D8, symSize: 0x4C }
  - { offset: 0xED410, size: 0x8, addend: 0x0, symName: __RNvXs2C_NtNtCsATtFUPiRFW_3syn3gen5debugNtNtBa_4item9ItemUnionNtNtCs9f3LFPSIp77_4core3fmt5Debug3fmt, symObjAddr: 0x2290C, symBinAddr: 0x4F2C8, symSize: 0x4C }
  - { offset: 0xED453, size: 0x8, addend: 0x0, symName: __RNvXs2E_NtNtCsATtFUPiRFW_3syn3gen5debugNtNtBa_4item7ItemUseNtNtCs9f3LFPSIp77_4core3fmt5Debug3fmt, symObjAddr: 0x22AAC, symBinAddr: 0x4F468, symSize: 0x4C }
  - { offset: 0xED496, size: 0x8, addend: 0x0, symName: __RNvXs3v_NtNtCsATtFUPiRFW_3syn3gen5debugNtNtBa_4item8ReceiverNtNtCs9f3LFPSIp77_4core3fmt5Debug3fmt, symObjAddr: 0x22C4C, symBinAddr: 0x4F608, symSize: 0x150 }
  - { offset: 0xED4F7, size: 0x8, addend: 0x0, symName: __RNvXs3x_NtNtCsATtFUPiRFW_3syn3gen5debugNtNtBa_4item9SignatureNtNtCs9f3LFPSIp77_4core3fmt5Debug3fmt, symObjAddr: 0x22D9C, symBinAddr: 0x4F758, symSize: 0x20C }
  - { offset: 0xED558, size: 0x8, addend: 0x0, symName: __RNvXs3y_NtNtCsATtFUPiRFW_3syn3gen5debugNtNtBa_4item16StaticMutabilityNtNtCs9f3LFPSIp77_4core3fmt5Debug3fmt, symObjAddr: 0x22FA8, symBinAddr: 0x4F964, symSize: 0x148 }
  - { offset: 0xED5F4, size: 0x8, addend: 0x0, symName: __RNvXs3E_NtNtCsATtFUPiRFW_3syn3gen5debugNtNtBa_4item9TraitItemNtNtCs9f3LFPSIp77_4core3fmt5Debug3fmt, symObjAddr: 0x230F0, symBinAddr: 0x4FAAC, symSize: 0x268 }
  - { offset: 0xED700, size: 0x8, addend: 0x0, symName: __RNvXs3F_NtNtCsATtFUPiRFW_3syn3gen5debugNtNtBa_4item14TraitItemConstNtNtCs9f3LFPSIp77_4core3fmt5Debug3fmt, symObjAddr: 0x23358, symBinAddr: 0x4FD14, symSize: 0x4C }
  - { offset: 0xED743, size: 0x8, addend: 0x0, symName: __RNvXs3H_NtNtCsATtFUPiRFW_3syn3gen5debugNtNtBa_4item11TraitItemFnNtNtCs9f3LFPSIp77_4core3fmt5Debug3fmt, symObjAddr: 0x23548, symBinAddr: 0x4FF04, symSize: 0x4C }
  - { offset: 0xED786, size: 0x8, addend: 0x0, symName: __RNvXs3J_NtNtCsATtFUPiRFW_3syn3gen5debugNtNtBa_4item14TraitItemMacroNtNtCs9f3LFPSIp77_4core3fmt5Debug3fmt, symObjAddr: 0x23698, symBinAddr: 0x50054, symSize: 0x4C }
  - { offset: 0xED7C9, size: 0x8, addend: 0x0, symName: __RNvXs3L_NtNtCsATtFUPiRFW_3syn3gen5debugNtNtBa_4item13TraitItemTypeNtNtCs9f3LFPSIp77_4core3fmt5Debug3fmt, symObjAddr: 0x237C0, symBinAddr: 0x5017C, symSize: 0x4C }
  - { offset: 0xED80C, size: 0x8, addend: 0x0, symName: __RNvXs4j_NtNtCsATtFUPiRFW_3syn3gen5debugNtNtBa_4item7UseGlobNtNtCs9f3LFPSIp77_4core3fmt5Debug3fmt, symObjAddr: 0x239B0, symBinAddr: 0x5036C, symSize: 0x88 }
  - { offset: 0xED86D, size: 0x8, addend: 0x0, symName: __RNvXs4k_NtNtCsATtFUPiRFW_3syn3gen5debugNtNtBa_4item8UseGroupNtNtCs9f3LFPSIp77_4core3fmt5Debug3fmt, symObjAddr: 0x23A38, symBinAddr: 0x503F4, symSize: 0xB0 }
  - { offset: 0xED8CE, size: 0x8, addend: 0x0, symName: __RNvXs4l_NtNtCsATtFUPiRFW_3syn3gen5debugNtNtBa_4item7UseNameNtNtCs9f3LFPSIp77_4core3fmt5Debug3fmt, symObjAddr: 0x23AE8, symBinAddr: 0x504A4, symSize: 0x88 }
  - { offset: 0xED92F, size: 0x8, addend: 0x0, symName: __RNvXs4m_NtNtCsATtFUPiRFW_3syn3gen5debugNtNtBa_4item7UsePathNtNtCs9f3LFPSIp77_4core3fmt5Debug3fmt, symObjAddr: 0x23B70, symBinAddr: 0x5052C, symSize: 0xD8 }
  - { offset: 0xED990, size: 0x8, addend: 0x0, symName: __RNvXs4n_NtNtCsATtFUPiRFW_3syn3gen5debugNtNtBa_4item9UseRenameNtNtCs9f3LFPSIp77_4core3fmt5Debug3fmt, symObjAddr: 0x23C48, symBinAddr: 0x50604, symSize: 0xD8 }
  - { offset: 0xED9F1, size: 0x8, addend: 0x0, symName: __RNvXs4o_NtNtCsATtFUPiRFW_3syn3gen5debugNtNtBa_4item7UseTreeNtNtCs9f3LFPSIp77_4core3fmt5Debug3fmt, symObjAddr: 0x23D20, symBinAddr: 0x506DC, symSize: 0x310 }
  - { offset: 0xEDB7C, size: 0x8, addend: 0x0, symName: __RNvXs4p_NtNtCsATtFUPiRFW_3syn3gen5debugNtNtBa_4item8VariadicNtNtCs9f3LFPSIp77_4core3fmt5Debug3fmt, symObjAddr: 0x24030, symBinAddr: 0x509EC, symSize: 0x100 }
  - { offset: 0xEDBE3, size: 0x8, addend: 0x0, symName: __RNvXs2b_NtNtCsATtFUPiRFW_3syn3gen2eqNtNtBa_4item5FnArgNtNtCs9f3LFPSIp77_4core3cmp9PartialEq2eq, symObjAddr: 0x24130, symBinAddr: 0x50AEC, symSize: 0x170 }
  - { offset: 0xEDC82, size: 0x8, addend: 0x0, symName: __RNvXs2d_NtNtCsATtFUPiRFW_3syn3gen2eqNtNtBa_4item11ForeignItemNtNtCs9f3LFPSIp77_4core3cmp9PartialEq2eq, symObjAddr: 0x242A0, symBinAddr: 0x50C5C, symSize: 0x368 }
  - { offset: 0xEDDAD, size: 0x8, addend: 0x0, symName: __RNvXs2f_NtNtCsATtFUPiRFW_3syn3gen2eqNtNtBa_4item13ForeignItemFnNtNtCs9f3LFPSIp77_4core3cmp9PartialEq2eq, symObjAddr: 0x24608, symBinAddr: 0x50FC4, symSize: 0xCC }
  - { offset: 0xEDDF0, size: 0x8, addend: 0x0, symName: __RNvXs2h_NtNtCsATtFUPiRFW_3syn3gen2eqNtNtBa_4item16ForeignItemMacroNtNtCs9f3LFPSIp77_4core3cmp9PartialEq2eq, symObjAddr: 0x246D4, symBinAddr: 0x51090, symSize: 0xCC }
  - { offset: 0xEDE33, size: 0x8, addend: 0x0, symName: __RNvXs2j_NtNtCsATtFUPiRFW_3syn3gen2eqNtNtBa_4item17ForeignItemStaticNtNtCs9f3LFPSIp77_4core3cmp9PartialEq2eq, symObjAddr: 0x247A0, symBinAddr: 0x5115C, symSize: 0x134 }
  - { offset: 0xEDE76, size: 0x8, addend: 0x0, symName: __RNvXs2l_NtNtCsATtFUPiRFW_3syn3gen2eqNtNtBa_4item15ForeignItemTypeNtNtCs9f3LFPSIp77_4core3cmp9PartialEq2eq, symObjAddr: 0x248D4, symBinAddr: 0x51290, symSize: 0x100 }
  - { offset: 0xEDEB9, size: 0x8, addend: 0x0, symName: __RNvXs2t_NtNtCsATtFUPiRFW_3syn3gen2eqNtNtBa_4item8ImplItemNtNtCs9f3LFPSIp77_4core3cmp9PartialEq2eq, symObjAddr: 0x249D4, symBinAddr: 0x51390, symSize: 0x368 }
  - { offset: 0xEDFE4, size: 0x8, addend: 0x0, symName: __RNvXs2v_NtNtCsATtFUPiRFW_3syn3gen2eqNtNtBa_4item13ImplItemConstNtNtCs9f3LFPSIp77_4core3cmp9PartialEq2eq, symObjAddr: 0x24D3C, symBinAddr: 0x516F8, symSize: 0x19C }
  - { offset: 0xEE027, size: 0x8, addend: 0x0, symName: __RNvXs2x_NtNtCsATtFUPiRFW_3syn3gen2eqNtNtBa_4item10ImplItemFnNtNtCs9f3LFPSIp77_4core3cmp9PartialEq2eq, symObjAddr: 0x24ED8, symBinAddr: 0x51894, symSize: 0x134 }
  - { offset: 0xEE06A, size: 0x8, addend: 0x0, symName: __RNvXs2z_NtNtCsATtFUPiRFW_3syn3gen2eqNtNtBa_4item13ImplItemMacroNtNtCs9f3LFPSIp77_4core3cmp9PartialEq2eq, symObjAddr: 0x2500C, symBinAddr: 0x519C8, symSize: 0xCC }
  - { offset: 0xEE0AD, size: 0x8, addend: 0x0, symName: __RNvXs2B_NtNtCsATtFUPiRFW_3syn3gen2eqNtNtBa_4item12ImplItemTypeNtNtCs9f3LFPSIp77_4core3cmp9PartialEq2eq, symObjAddr: 0x250D8, symBinAddr: 0x51A94, symSize: 0x168 }
  - { offset: 0xEE0F0, size: 0x8, addend: 0x0, symName: __RNvXs2D_NtNtCsATtFUPiRFW_3syn3gen2eqNtNtBa_4item15ImplRestrictionNtNtCs9f3LFPSIp77_4core3cmp9PartialEq2eq, symObjAddr: 0x25240, symBinAddr: 0x51BFC, symSize: 0x10 }
  - { offset: 0xEE133, size: 0x8, addend: 0x0, symName: __RNvXs2F_NtNtCsATtFUPiRFW_3syn3gen2eqNtNtBa_4item4ItemNtNtCs9f3LFPSIp77_4core3cmp9PartialEq2eq, symObjAddr: 0x25250, symBinAddr: 0x51C0C, symSize: 0x9B0 }
  - { offset: 0xEE472, size: 0x8, addend: 0x0, symName: __RNvXs2H_NtNtCsATtFUPiRFW_3syn3gen2eqNtNtBa_4item9ItemConstNtNtCs9f3LFPSIp77_4core3cmp9PartialEq2eq, symObjAddr: 0x25C00, symBinAddr: 0x525BC, symSize: 0x168 }
  - { offset: 0xEE4B5, size: 0x8, addend: 0x0, symName: __RNvXs2J_NtNtCsATtFUPiRFW_3syn3gen2eqNtNtBa_4item8ItemEnumNtNtCs9f3LFPSIp77_4core3cmp9PartialEq2eq, symObjAddr: 0x25D68, symBinAddr: 0x52724, symSize: 0x134 }
  - { offset: 0xEE4F8, size: 0x8, addend: 0x0, symName: __RNvXs2L_NtNtCsATtFUPiRFW_3syn3gen2eqNtNtBa_4item15ItemExternCrateNtNtCs9f3LFPSIp77_4core3cmp9PartialEq2eq, symObjAddr: 0x25E9C, symBinAddr: 0x52858, symSize: 0x100 }
  - { offset: 0xEE53B, size: 0x8, addend: 0x0, symName: __RNvXs2N_NtNtCsATtFUPiRFW_3syn3gen2eqNtNtBa_4item6ItemFnNtNtCs9f3LFPSIp77_4core3cmp9PartialEq2eq, symObjAddr: 0x25F9C, symBinAddr: 0x52958, symSize: 0x100 }
  - { offset: 0xEE57E, size: 0x8, addend: 0x0, symName: __RNvXs2P_NtNtCsATtFUPiRFW_3syn3gen2eqNtNtBa_4item14ItemForeignModNtNtCs9f3LFPSIp77_4core3cmp9PartialEq2eq, symObjAddr: 0x2609C, symBinAddr: 0x52A58, symSize: 0x100 }
  - { offset: 0xEE5C1, size: 0x8, addend: 0x0, symName: __RNvXs2R_NtNtCsATtFUPiRFW_3syn3gen2eqNtNtBa_4item8ItemImplNtNtCs9f3LFPSIp77_4core3cmp9PartialEq2eq, symObjAddr: 0x2619C, symBinAddr: 0x52B58, symSize: 0x19C }
  - { offset: 0xEE604, size: 0x8, addend: 0x0, symName: __RNvXs2T_NtNtCsATtFUPiRFW_3syn3gen2eqNtNtBa_4item9ItemMacroNtNtCs9f3LFPSIp77_4core3cmp9PartialEq2eq, symObjAddr: 0x26338, symBinAddr: 0x52CF4, symSize: 0x100 }
  - { offset: 0xEE647, size: 0x8, addend: 0x0, symName: __RNvXs2V_NtNtCsATtFUPiRFW_3syn3gen2eqNtNtBa_4item7ItemModNtNtCs9f3LFPSIp77_4core3cmp9PartialEq2eq, symObjAddr: 0x26438, symBinAddr: 0x52DF4, symSize: 0x168 }
  - { offset: 0xEE68A, size: 0x8, addend: 0x0, symName: __RNvXs2X_NtNtCsATtFUPiRFW_3syn3gen2eqNtNtBa_4item10ItemStaticNtNtCs9f3LFPSIp77_4core3cmp9PartialEq2eq, symObjAddr: 0x265A0, symBinAddr: 0x52F5C, symSize: 0x168 }
  - { offset: 0xEE6CD, size: 0x8, addend: 0x0, symName: __RNvXs2Z_NtNtCsATtFUPiRFW_3syn3gen2eqNtNtBa_4item10ItemStructNtNtCs9f3LFPSIp77_4core3cmp9PartialEq2eq, symObjAddr: 0x26708, symBinAddr: 0x530C4, symSize: 0x168 }
  - { offset: 0xEE710, size: 0x8, addend: 0x0, symName: __RNvXs31_NtNtCsATtFUPiRFW_3syn3gen2eqNtNtBa_4item9ItemTraitNtNtCs9f3LFPSIp77_4core3cmp9PartialEq2eq, symObjAddr: 0x26870, symBinAddr: 0x5322C, symSize: 0x238 }
  - { offset: 0xEE753, size: 0x8, addend: 0x0, symName: __RNvXs33_NtNtCsATtFUPiRFW_3syn3gen2eqNtNtBa_4item14ItemTraitAliasNtNtCs9f3LFPSIp77_4core3cmp9PartialEq2eq, symObjAddr: 0x26AA8, symBinAddr: 0x53464, symSize: 0x134 }
  - { offset: 0xEE796, size: 0x8, addend: 0x0, symName: __RNvXs35_NtNtCsATtFUPiRFW_3syn3gen2eqNtNtBa_4item8ItemTypeNtNtCs9f3LFPSIp77_4core3cmp9PartialEq2eq, symObjAddr: 0x26BDC, symBinAddr: 0x53598, symSize: 0x134 }
  - { offset: 0xEE7D9, size: 0x8, addend: 0x0, symName: __RNvXs37_NtNtCsATtFUPiRFW_3syn3gen2eqNtNtBa_4item9ItemUnionNtNtCs9f3LFPSIp77_4core3cmp9PartialEq2eq, symObjAddr: 0x26D10, symBinAddr: 0x536CC, symSize: 0x134 }
  - { offset: 0xEE81C, size: 0x8, addend: 0x0, symName: __RNvXs39_NtNtCsATtFUPiRFW_3syn3gen2eqNtNtBa_4item7ItemUseNtNtCs9f3LFPSIp77_4core3cmp9PartialEq2eq, symObjAddr: 0x26E44, symBinAddr: 0x53800, symSize: 0x100 }
  - { offset: 0xEE85F, size: 0x8, addend: 0x0, symName: __RNvXs4m_NtNtCsATtFUPiRFW_3syn3gen2eqNtNtBa_4item8ReceiverNtNtCs9f3LFPSIp77_4core3cmp9PartialEq2eq, symObjAddr: 0x26F44, symBinAddr: 0x53900, symSize: 0x134 }
  - { offset: 0xEE8A2, size: 0x8, addend: 0x0, symName: __RNvXs4q_NtNtCsATtFUPiRFW_3syn3gen2eqNtNtBa_4item9SignatureNtNtCs9f3LFPSIp77_4core3cmp9PartialEq2eq, symObjAddr: 0x27078, symBinAddr: 0x53A34, symSize: 0x204 }
  - { offset: 0xEE8E5, size: 0x8, addend: 0x0, symName: __RNvXs4s_NtNtCsATtFUPiRFW_3syn3gen2eqNtNtBa_4item16StaticMutabilityNtNtCs9f3LFPSIp77_4core3cmp9PartialEq2eq, symObjAddr: 0x2727C, symBinAddr: 0x53C38, symSize: 0xFC }
  - { offset: 0xEE928, size: 0x8, addend: 0x0, symName: __RNvXs4C_NtNtCsATtFUPiRFW_3syn3gen2eqNtNtBa_4item9TraitItemNtNtCs9f3LFPSIp77_4core3cmp9PartialEq2eq, symObjAddr: 0x27378, symBinAddr: 0x53D34, symSize: 0x368 }
  - { offset: 0xEEA53, size: 0x8, addend: 0x0, symName: __RNvXs4E_NtNtCsATtFUPiRFW_3syn3gen2eqNtNtBa_4item14TraitItemConstNtNtCs9f3LFPSIp77_4core3cmp9PartialEq2eq, symObjAddr: 0x276E0, symBinAddr: 0x5409C, symSize: 0x134 }
  - { offset: 0xEEA96, size: 0x8, addend: 0x0, symName: __RNvXs4G_NtNtCsATtFUPiRFW_3syn3gen2eqNtNtBa_4item11TraitItemFnNtNtCs9f3LFPSIp77_4core3cmp9PartialEq2eq, symObjAddr: 0x27814, symBinAddr: 0x541D0, symSize: 0x100 }
  - { offset: 0xEEAD9, size: 0x8, addend: 0x0, symName: __RNvXs4I_NtNtCsATtFUPiRFW_3syn3gen2eqNtNtBa_4item14TraitItemMacroNtNtCs9f3LFPSIp77_4core3cmp9PartialEq2eq, symObjAddr: 0x27914, symBinAddr: 0x542D0, symSize: 0xCC }
  - { offset: 0xEEB1C, size: 0x8, addend: 0x0, symName: __RNvXs4K_NtNtCsATtFUPiRFW_3syn3gen2eqNtNtBa_4item13TraitItemTypeNtNtCs9f3LFPSIp77_4core3cmp9PartialEq2eq, symObjAddr: 0x279E0, symBinAddr: 0x5439C, symSize: 0x168 }
  - { offset: 0xEEB5F, size: 0x8, addend: 0x0, symName: __RNvXs5m_NtNtCsATtFUPiRFW_3syn3gen2eqNtNtBa_4item7UseGlobNtNtCs9f3LFPSIp77_4core3cmp9PartialEq2eq, symObjAddr: 0x27B48, symBinAddr: 0x54504, symSize: 0x2C }
  - { offset: 0xEEBA2, size: 0x8, addend: 0x0, symName: __RNvXs5o_NtNtCsATtFUPiRFW_3syn3gen2eqNtNtBa_4item8UseGroupNtNtCs9f3LFPSIp77_4core3cmp9PartialEq2eq, symObjAddr: 0x27B74, symBinAddr: 0x54530, symSize: 0x3C }
  - { offset: 0xEEBE5, size: 0x8, addend: 0x0, symName: __RNvXs5q_NtNtCsATtFUPiRFW_3syn3gen2eqNtNtBa_4item7UseNameNtNtCs9f3LFPSIp77_4core3cmp9PartialEq2eq, symObjAddr: 0x27BB0, symBinAddr: 0x5456C, symSize: 0x3C }
  - { offset: 0xEEC28, size: 0x8, addend: 0x0, symName: __RNvXs5s_NtNtCsATtFUPiRFW_3syn3gen2eqNtNtBa_4item7UsePathNtNtCs9f3LFPSIp77_4core3cmp9PartialEq2eq, symObjAddr: 0x27BEC, symBinAddr: 0x545A8, symSize: 0x8C }
  - { offset: 0xEEC6B, size: 0x8, addend: 0x0, symName: __RNvXs5u_NtNtCsATtFUPiRFW_3syn3gen2eqNtNtBa_4item9UseRenameNtNtCs9f3LFPSIp77_4core3cmp9PartialEq2eq, symObjAddr: 0x27C78, symBinAddr: 0x54634, symSize: 0x84 }
  - { offset: 0xEECAE, size: 0x8, addend: 0x0, symName: __RNvXs5w_NtNtCsATtFUPiRFW_3syn3gen2eqNtNtBa_4item7UseTreeNtNtCs9f3LFPSIp77_4core3cmp9PartialEq2eq, symObjAddr: 0x27CFC, symBinAddr: 0x546B8, symSize: 0x300 }
  - { offset: 0xEEDD8, size: 0x8, addend: 0x0, symName: __RNvXs5y_NtNtCsATtFUPiRFW_3syn3gen2eqNtNtBa_4item8VariadicNtNtCs9f3LFPSIp77_4core3cmp9PartialEq2eq, symObjAddr: 0x27FFC, symBinAddr: 0x549B8, symSize: 0xCC }
  - { offset: 0xF0309, size: 0x8, addend: 0x0, symName: __RINvXNtNtCsdze8u8oDPro_5alloc5slice4hackNtNtCsATtFUPiRFW_3syn4item11ForeignItemNtB3_10ConvertVec6to_vecNtNtB7_5alloc6GlobalEBG_, symObjAddr: 0x0, symBinAddr: 0x2C9BC, symSize: 0x2C0 }
  - { offset: 0xF0659, size: 0x8, addend: 0x0, symName: __RINvXNtNtCsdze8u8oDPro_5alloc5slice4hackNtNtCsATtFUPiRFW_3syn4item4ItemNtB3_10ConvertVec6to_vecNtNtB7_5alloc6GlobalEBG_, symObjAddr: 0x2C0, symBinAddr: 0x2CC7C, symSize: 0x2C0 }
  - { offset: 0xF09A9, size: 0x8, addend: 0x0, symName: __RINvXNtNtCsdze8u8oDPro_5alloc5slice4hackNtNtCsATtFUPiRFW_3syn4item8ImplItemNtB3_10ConvertVec6to_vecNtNtB7_5alloc6GlobalEBG_, symObjAddr: 0x580, symBinAddr: 0x2CF3C, symSize: 0x2C0 }
  - { offset: 0xF0CF9, size: 0x8, addend: 0x0, symName: __RINvXNtNtCsdze8u8oDPro_5alloc5slice4hackNtNtCsATtFUPiRFW_3syn4item9TraitItemNtB3_10ConvertVec6to_vecNtNtB7_5alloc6GlobalEBG_, symObjAddr: 0x840, symBinAddr: 0x2D1FC, symSize: 0x2C0 }
  - { offset: 0xF1049, size: 0x8, addend: 0x0, symName: __RINvXNtNtCsdze8u8oDPro_5alloc5slice4hackTNtNtCsATtFUPiRFW_3syn4item5FnArgNtNtBH_5token5CommaENtB3_10ConvertVec6to_vecNtNtB7_5alloc6GlobalEBH_, symObjAddr: 0xB00, symBinAddr: 0x2D4BC, symSize: 0x2BC }
  - { offset: 0xF1399, size: 0x8, addend: 0x0, symName: __RINvXNtNtCsdze8u8oDPro_5alloc5slice4hackTNtNtCsATtFUPiRFW_3syn4item7UseTreeNtNtBH_5token5CommaENtB3_10ConvertVec6to_vecNtNtB7_5alloc6GlobalEBH_, symObjAddr: 0xDBC, symBinAddr: 0x2D778, symSize: 0x2BC }
  - { offset: 0xF4F1D, size: 0x8, addend: 0x0, symName: __RNvXsP_NtCs9f3LFPSIp77_4core3fmtRNtNtCsATtFUPiRFW_3syn4item11ForeignItemNtB5_5Debug3fmtBz_, symObjAddr: 0x2370, symBinAddr: 0x2ED2C, symSize: 0x30 }
  - { offset: 0xF4F63, size: 0x8, addend: 0x0, symName: __RNvXsP_NtCs9f3LFPSIp77_4core3fmtRNtNtCsATtFUPiRFW_3syn4item15ImplRestrictionNtB5_5Debug3fmtBz_, symObjAddr: 0x23A0, symBinAddr: 0x2ED5C, symSize: 0x30 }
  - { offset: 0xF4FA9, size: 0x8, addend: 0x0, symName: __RNvXsP_NtCs9f3LFPSIp77_4core3fmtRNtNtCsATtFUPiRFW_3syn4item4ItemNtB5_5Debug3fmtBz_, symObjAddr: 0x23D0, symBinAddr: 0x2ED8C, symSize: 0x30 }
  - { offset: 0xF4FEF, size: 0x8, addend: 0x0, symName: __RNvXsP_NtCs9f3LFPSIp77_4core3fmtRNtNtCsATtFUPiRFW_3syn4item8ImplItemNtB5_5Debug3fmtBz_, symObjAddr: 0x2400, symBinAddr: 0x2EDBC, symSize: 0x30 }
  - { offset: 0xF5035, size: 0x8, addend: 0x0, symName: __RNvXsP_NtCs9f3LFPSIp77_4core3fmtRNtNtCsATtFUPiRFW_3syn4item8VariadicNtB5_5Debug3fmtBz_, symObjAddr: 0x2430, symBinAddr: 0x2EDEC, symSize: 0x30 }
  - { offset: 0xF507B, size: 0x8, addend: 0x0, symName: __RNvXsP_NtCs9f3LFPSIp77_4core3fmtRNtNtCsATtFUPiRFW_3syn4item9TraitItemNtB5_5Debug3fmtBz_, symObjAddr: 0x2460, symBinAddr: 0x2EE1C, symSize: 0x30 }
  - { offset: 0xF50C7, size: 0x8, addend: 0x0, symName: __RNvXso_NtCs9f3LFPSIp77_4core3fmtSNtNtCsATtFUPiRFW_3syn4item11ForeignItemNtB5_5Debug3fmtBz_, symObjAddr: 0x2490, symBinAddr: 0x2EE4C, symSize: 0x90 }
  - { offset: 0xF5207, size: 0x8, addend: 0x0, symName: __RNvXso_NtCs9f3LFPSIp77_4core3fmtSNtNtCsATtFUPiRFW_3syn4item4ItemNtB5_5Debug3fmtBz_, symObjAddr: 0x2520, symBinAddr: 0x2EEDC, symSize: 0x90 }
  - { offset: 0xF5347, size: 0x8, addend: 0x0, symName: __RNvXso_NtCs9f3LFPSIp77_4core3fmtSNtNtCsATtFUPiRFW_3syn4item8ImplItemNtB5_5Debug3fmtBz_, symObjAddr: 0x25B0, symBinAddr: 0x2EF6C, symSize: 0x90 }
  - { offset: 0xF5487, size: 0x8, addend: 0x0, symName: __RNvXso_NtCs9f3LFPSIp77_4core3fmtSNtNtCsATtFUPiRFW_3syn4item9TraitItemNtB5_5Debug3fmtBz_, symObjAddr: 0x2640, symBinAddr: 0x2EFFC, symSize: 0x90 }
  - { offset: 0xF5980, size: 0x8, addend: 0x0, symName: __RNvMNtCs9f3LFPSIp77_4core5sliceSTNtNtCsATtFUPiRFW_3syn4item5FnArgNtNtBz_5token5CommaE4iterBz_, symObjAddr: 0x1078, symBinAddr: 0x2DA34, symSize: 0x28 }
  - { offset: 0xF59B7, size: 0x8, addend: 0x0, symName: __RNvMNtCs9f3LFPSIp77_4core5sliceSTNtNtCsATtFUPiRFW_3syn4item7UseTreeNtNtBz_5token5CommaE4iterBz_, symObjAddr: 0x10A0, symBinAddr: 0x2DA5C, symSize: 0x28 }
  - { offset: 0xF5A95, size: 0x8, addend: 0x0, symName: __RNvXs2_NtNtCs9f3LFPSIp77_4core5slice3cmpSNtNtCsATtFUPiRFW_3syn4item11ForeignItemINtB5_14SlicePartialEqBD_E5equalBH_, symObjAddr: 0x12D8, symBinAddr: 0x2DC94, symSize: 0x17C }
  - { offset: 0xF5B75, size: 0x8, addend: 0x0, symName: __RNvXs2_NtNtCs9f3LFPSIp77_4core5slice3cmpSNtNtCsATtFUPiRFW_3syn4item4ItemINtB5_14SlicePartialEqBD_E5equalBH_, symObjAddr: 0x1454, symBinAddr: 0x2DE10, symSize: 0x17C }
  - { offset: 0xF5C55, size: 0x8, addend: 0x0, symName: __RNvXs2_NtNtCs9f3LFPSIp77_4core5slice3cmpSNtNtCsATtFUPiRFW_3syn4item8ImplItemINtB5_14SlicePartialEqBD_E5equalBH_, symObjAddr: 0x15D0, symBinAddr: 0x2DF8C, symSize: 0x17C }
  - { offset: 0xF5D35, size: 0x8, addend: 0x0, symName: __RNvXs2_NtNtCs9f3LFPSIp77_4core5slice3cmpSNtNtCsATtFUPiRFW_3syn4item9TraitItemINtB5_14SlicePartialEqBD_E5equalBH_, symObjAddr: 0x174C, symBinAddr: 0x2E108, symSize: 0x17C }
  - { offset: 0xF5E15, size: 0x8, addend: 0x0, symName: __RNvXs2_NtNtCs9f3LFPSIp77_4core5slice3cmpSTNtNtCsATtFUPiRFW_3syn4item5FnArgNtNtBI_5token5CommaEINtB5_14SlicePartialEqBD_E5equalBI_, symObjAddr: 0x18C8, symBinAddr: 0x2E284, symSize: 0x17C }
  - { offset: 0xF5EF5, size: 0x8, addend: 0x0, symName: __RNvXs2_NtNtCs9f3LFPSIp77_4core5slice3cmpSTNtNtCsATtFUPiRFW_3syn4item7UseTreeNtNtBI_5token5CommaEINtB5_14SlicePartialEqBD_E5equalBI_, symObjAddr: 0x1A44, symBinAddr: 0x2E400, symSize: 0x17C }
  - { offset: 0xF6CCD, size: 0x8, addend: 0x0, symName: __RNvXNtNtCs9f3LFPSIp77_4core5clone6uninitNtNtCsATtFUPiRFW_3syn4item5FnArgNtB2_8CopySpec9clone_oneBG_, symObjAddr: 0x1248, symBinAddr: 0x2DC04, symSize: 0x48 }
  - { offset: 0xF6D31, size: 0x8, addend: 0x0, symName: __RNvXNtNtCs9f3LFPSIp77_4core5clone6uninitNtNtCsATtFUPiRFW_3syn4item7UseTreeNtB2_8CopySpec9clone_oneBG_, symObjAddr: 0x1290, symBinAddr: 0x2DC4C, symSize: 0x48 }
  - { offset: 0xF6D9C, size: 0x8, addend: 0x0, symName: __RNvYNtNtCsATtFUPiRFW_3syn4item10ImplItemFnNtNtCs9f3LFPSIp77_4core5clone5Clone10clone_fromB6_, symObjAddr: 0x2800, symBinAddr: 0x2F1BC, symSize: 0x8C }
  - { offset: 0xF6DDB, size: 0x8, addend: 0x0, symName: __RNvYNtNtCsATtFUPiRFW_3syn4item10ItemStaticNtNtCs9f3LFPSIp77_4core5clone5Clone10clone_fromB6_, symObjAddr: 0x29BC, symBinAddr: 0x2F378, symSize: 0x84 }
  - { offset: 0xF6E1A, size: 0x8, addend: 0x0, symName: __RNvYNtNtCsATtFUPiRFW_3syn4item10ItemStructNtNtCs9f3LFPSIp77_4core5clone5Clone10clone_fromB6_, symObjAddr: 0x2B70, symBinAddr: 0x2F52C, symSize: 0x8C }
  - { offset: 0xF6E59, size: 0x8, addend: 0x0, symName: __RNvYNtNtCsATtFUPiRFW_3syn4item11ForeignItemNtNtCs9f3LFPSIp77_4core5clone5Clone10clone_fromB6_, symObjAddr: 0x2D2C, symBinAddr: 0x2F6E8, symSize: 0x8C }
  - { offset: 0xF6E98, size: 0x8, addend: 0x0, symName: __RNvYNtNtCsATtFUPiRFW_3syn4item11TraitItemFnNtNtCs9f3LFPSIp77_4core5clone5Clone10clone_fromB6_, symObjAddr: 0x2EE8, symBinAddr: 0x2F8A4, symSize: 0x8C }
  - { offset: 0xF6ED7, size: 0x8, addend: 0x0, symName: __RNvYNtNtCsATtFUPiRFW_3syn4item12ImplItemTypeNtNtCs9f3LFPSIp77_4core5clone5Clone10clone_fromB6_, symObjAddr: 0x30A4, symBinAddr: 0x2FA60, symSize: 0x8C }
  - { offset: 0xF6F16, size: 0x8, addend: 0x0, symName: __RNvYNtNtCsATtFUPiRFW_3syn4item13ForeignItemFnNtNtCs9f3LFPSIp77_4core5clone5Clone10clone_fromB6_, symObjAddr: 0x3260, symBinAddr: 0x2FC1C, symSize: 0x8C }
  - { offset: 0xF6F55, size: 0x8, addend: 0x0, symName: __RNvYNtNtCsATtFUPiRFW_3syn4item13ImplItemConstNtNtCs9f3LFPSIp77_4core5clone5Clone10clone_fromB6_, symObjAddr: 0x341C, symBinAddr: 0x2FDD8, symSize: 0x8C }
  - { offset: 0xF6F94, size: 0x8, addend: 0x0, symName: __RNvYNtNtCsATtFUPiRFW_3syn4item13ImplItemMacroNtNtCs9f3LFPSIp77_4core5clone5Clone10clone_fromB6_, symObjAddr: 0x35D8, symBinAddr: 0x2FF94, symSize: 0x84 }
  - { offset: 0xF6FD3, size: 0x8, addend: 0x0, symName: __RNvYNtNtCsATtFUPiRFW_3syn4item13TraitItemTypeNtNtCs9f3LFPSIp77_4core5clone5Clone10clone_fromB6_, symObjAddr: 0x378C, symBinAddr: 0x30148, symSize: 0x8C }
  - { offset: 0xF7012, size: 0x8, addend: 0x0, symName: __RNvYNtNtCsATtFUPiRFW_3syn4item14ItemForeignModNtNtCs9f3LFPSIp77_4core5clone5Clone10clone_fromB6_, symObjAddr: 0x3948, symBinAddr: 0x30304, symSize: 0x84 }
  - { offset: 0xF7051, size: 0x8, addend: 0x0, symName: __RNvYNtNtCsATtFUPiRFW_3syn4item14ItemTraitAliasNtNtCs9f3LFPSIp77_4core5clone5Clone10clone_fromB6_, symObjAddr: 0x3AFC, symBinAddr: 0x304B8, symSize: 0x8C }
  - { offset: 0xF7090, size: 0x8, addend: 0x0, symName: __RNvYNtNtCsATtFUPiRFW_3syn4item14TraitItemConstNtNtCs9f3LFPSIp77_4core5clone5Clone10clone_fromB6_, symObjAddr: 0x3CB8, symBinAddr: 0x30674, symSize: 0x8C }
  - { offset: 0xF70CF, size: 0x8, addend: 0x0, symName: __RNvYNtNtCsATtFUPiRFW_3syn4item14TraitItemMacroNtNtCs9f3LFPSIp77_4core5clone5Clone10clone_fromB6_, symObjAddr: 0x3E74, symBinAddr: 0x30830, symSize: 0x84 }
  - { offset: 0xF710E, size: 0x8, addend: 0x0, symName: __RNvYNtNtCsATtFUPiRFW_3syn4item15ForeignItemTypeNtNtCs9f3LFPSIp77_4core5clone5Clone10clone_fromB6_, symObjAddr: 0x4028, symBinAddr: 0x309E4, symSize: 0x84 }
  - { offset: 0xF714D, size: 0x8, addend: 0x0, symName: __RNvYNtNtCsATtFUPiRFW_3syn4item15ImplRestrictionNtNtCs9f3LFPSIp77_4core5clone5Clone10clone_fromB6_, symObjAddr: 0x40EC, symBinAddr: 0x30AA8, symSize: 0x34 }
  - { offset: 0xF718C, size: 0x8, addend: 0x0, symName: __RNvYNtNtCsATtFUPiRFW_3syn4item15ItemExternCrateNtNtCs9f3LFPSIp77_4core5clone5Clone10clone_fromB6_, symObjAddr: 0x4250, symBinAddr: 0x30C0C, symSize: 0x84 }
  - { offset: 0xF71CB, size: 0x8, addend: 0x0, symName: __RNvYNtNtCsATtFUPiRFW_3syn4item16ForeignItemMacroNtNtCs9f3LFPSIp77_4core5clone5Clone10clone_fromB6_, symObjAddr: 0x4404, symBinAddr: 0x30DC0, symSize: 0x84 }
  - { offset: 0xF720A, size: 0x8, addend: 0x0, symName: __RNvYNtNtCsATtFUPiRFW_3syn4item16StaticMutabilityNtNtCs9f3LFPSIp77_4core5clone5Clone10clone_fromB6_, symObjAddr: 0x45AC, symBinAddr: 0x30F68, symSize: 0x54 }
  - { offset: 0xF7249, size: 0x8, addend: 0x0, symName: __RNvYNtNtCsATtFUPiRFW_3syn4item17ForeignItemStaticNtNtCs9f3LFPSIp77_4core5clone5Clone10clone_fromB6_, symObjAddr: 0x4730, symBinAddr: 0x310EC, symSize: 0x84 }
  - { offset: 0xF7288, size: 0x8, addend: 0x0, symName: __RNvYNtNtCsATtFUPiRFW_3syn4item4ItemNtNtCs9f3LFPSIp77_4core5clone5Clone10clone_fromB6_, symObjAddr: 0x48E4, symBinAddr: 0x312A0, symSize: 0x8C }
  - { offset: 0xF72C7, size: 0x8, addend: 0x0, symName: __RNvYNtNtCsATtFUPiRFW_3syn4item5FnArgNtNtCs9f3LFPSIp77_4core5clone5Clone10clone_fromB6_, symObjAddr: 0x4AA0, symBinAddr: 0x3145C, symSize: 0x84 }
  - { offset: 0xF7306, size: 0x8, addend: 0x0, symName: __RNvYNtNtCsATtFUPiRFW_3syn4item6ItemFnNtNtCs9f3LFPSIp77_4core5clone5Clone10clone_fromB6_, symObjAddr: 0x4C54, symBinAddr: 0x31610, symSize: 0x8C }
  - { offset: 0xF7345, size: 0x8, addend: 0x0, symName: __RNvYNtNtCsATtFUPiRFW_3syn4item7ItemModNtNtCs9f3LFPSIp77_4core5clone5Clone10clone_fromB6_, symObjAddr: 0x4E10, symBinAddr: 0x317CC, symSize: 0x84 }
  - { offset: 0xF7384, size: 0x8, addend: 0x0, symName: __RNvYNtNtCsATtFUPiRFW_3syn4item7ItemUseNtNtCs9f3LFPSIp77_4core5clone5Clone10clone_fromB6_, symObjAddr: 0x4FC4, symBinAddr: 0x31980, symSize: 0x84 }
  - { offset: 0xF73C3, size: 0x8, addend: 0x0, symName: __RNvYNtNtCsATtFUPiRFW_3syn4item7UseGlobNtNtCs9f3LFPSIp77_4core5clone5Clone10clone_fromB6_, symObjAddr: 0x516C, symBinAddr: 0x31B28, symSize: 0x50 }
  - { offset: 0xF7402, size: 0x8, addend: 0x0, symName: __RNvYNtNtCsATtFUPiRFW_3syn4item7UseNameNtNtCs9f3LFPSIp77_4core5clone5Clone10clone_fromB6_, symObjAddr: 0x52EC, symBinAddr: 0x31CA8, symSize: 0x84 }
  - { offset: 0xF7441, size: 0x8, addend: 0x0, symName: __RNvYNtNtCsATtFUPiRFW_3syn4item7UsePathNtNtCs9f3LFPSIp77_4core5clone5Clone10clone_fromB6_, symObjAddr: 0x54A0, symBinAddr: 0x31E5C, symSize: 0x84 }
  - { offset: 0xF7480, size: 0x8, addend: 0x0, symName: __RNvYNtNtCsATtFUPiRFW_3syn4item7UseTreeNtNtCs9f3LFPSIp77_4core5clone5Clone10clone_fromB6_, symObjAddr: 0x5654, symBinAddr: 0x32010, symSize: 0x84 }
  - { offset: 0xF74BF, size: 0x8, addend: 0x0, symName: __RNvYNtNtCsATtFUPiRFW_3syn4item8ImplItemNtNtCs9f3LFPSIp77_4core5clone5Clone10clone_fromB6_, symObjAddr: 0x5808, symBinAddr: 0x321C4, symSize: 0x8C }
  - { offset: 0xF74FE, size: 0x8, addend: 0x0, symName: __RNvYNtNtCsATtFUPiRFW_3syn4item8ItemEnumNtNtCs9f3LFPSIp77_4core5clone5Clone10clone_fromB6_, symObjAddr: 0x59C4, symBinAddr: 0x32380, symSize: 0x8C }
  - { offset: 0xF753D, size: 0x8, addend: 0x0, symName: __RNvYNtNtCsATtFUPiRFW_3syn4item8ItemImplNtNtCs9f3LFPSIp77_4core5clone5Clone10clone_fromB6_, symObjAddr: 0x5B80, symBinAddr: 0x3253C, symSize: 0x8C }
  - { offset: 0xF757C, size: 0x8, addend: 0x0, symName: __RNvYNtNtCsATtFUPiRFW_3syn4item8ItemTypeNtNtCs9f3LFPSIp77_4core5clone5Clone10clone_fromB6_, symObjAddr: 0x5D3C, symBinAddr: 0x326F8, symSize: 0x8C }
  - { offset: 0xF75BB, size: 0x8, addend: 0x0, symName: __RNvYNtNtCsATtFUPiRFW_3syn4item8ReceiverNtNtCs9f3LFPSIp77_4core5clone5Clone10clone_fromB6_, symObjAddr: 0x5EF8, symBinAddr: 0x328B4, symSize: 0x84 }
  - { offset: 0xF75FA, size: 0x8, addend: 0x0, symName: __RNvYNtNtCsATtFUPiRFW_3syn4item8UseGroupNtNtCs9f3LFPSIp77_4core5clone5Clone10clone_fromB6_, symObjAddr: 0x60AC, symBinAddr: 0x32A68, symSize: 0x84 }
  - { offset: 0xF7639, size: 0x8, addend: 0x0, symName: __RNvYNtNtCsATtFUPiRFW_3syn4item8VariadicNtNtCs9f3LFPSIp77_4core5clone5Clone10clone_fromB6_, symObjAddr: 0x6260, symBinAddr: 0x32C1C, symSize: 0x84 }
  - { offset: 0xF7678, size: 0x8, addend: 0x0, symName: __RNvYNtNtCsATtFUPiRFW_3syn4item9ItemConstNtNtCs9f3LFPSIp77_4core5clone5Clone10clone_fromB6_, symObjAddr: 0x6414, symBinAddr: 0x32DD0, symSize: 0x8C }
  - { offset: 0xF76B7, size: 0x8, addend: 0x0, symName: __RNvYNtNtCsATtFUPiRFW_3syn4item9ItemMacroNtNtCs9f3LFPSIp77_4core5clone5Clone10clone_fromB6_, symObjAddr: 0x65D0, symBinAddr: 0x32F8C, symSize: 0x84 }
  - { offset: 0xF76F6, size: 0x8, addend: 0x0, symName: __RNvYNtNtCsATtFUPiRFW_3syn4item9ItemTraitNtNtCs9f3LFPSIp77_4core5clone5Clone10clone_fromB6_, symObjAddr: 0x6784, symBinAddr: 0x33140, symSize: 0x8C }
  - { offset: 0xF7735, size: 0x8, addend: 0x0, symName: __RNvYNtNtCsATtFUPiRFW_3syn4item9ItemUnionNtNtCs9f3LFPSIp77_4core5clone5Clone10clone_fromB6_, symObjAddr: 0x6940, symBinAddr: 0x332FC, symSize: 0x8C }
  - { offset: 0xF7774, size: 0x8, addend: 0x0, symName: __RNvYNtNtCsATtFUPiRFW_3syn4item9SignatureNtNtCs9f3LFPSIp77_4core5clone5Clone10clone_fromB6_, symObjAddr: 0x6AFC, symBinAddr: 0x334B8, symSize: 0x8C }
  - { offset: 0xF77B3, size: 0x8, addend: 0x0, symName: __RNvYNtNtCsATtFUPiRFW_3syn4item9TraitItemNtNtCs9f3LFPSIp77_4core5clone5Clone10clone_fromB6_, symObjAddr: 0x6CB8, symBinAddr: 0x33674, symSize: 0x8C }
  - { offset: 0xF77F2, size: 0x8, addend: 0x0, symName: __RNvYNtNtCsATtFUPiRFW_3syn4item9UseRenameNtNtCs9f3LFPSIp77_4core5clone5Clone10clone_fromB6_, symObjAddr: 0x6E74, symBinAddr: 0x33830, symSize: 0x84 }
  - { offset: 0xF797A, size: 0x8, addend: 0x0, symName: __RNvXs7_NtNtCs9f3LFPSIp77_4core3cmp5implsRNtNtCsATtFUPiRFW_3syn4item10ImplItemFnNtB7_9PartialEq2eqBH_, symObjAddr: 0x1BC0, symBinAddr: 0x2E57C, symSize: 0x34 }
  - { offset: 0xF79C9, size: 0x8, addend: 0x0, symName: __RNvXs7_NtNtCs9f3LFPSIp77_4core3cmp5implsRNtNtCsATtFUPiRFW_3syn4item10ItemStaticNtB7_9PartialEq2eqBH_, symObjAddr: 0x1BF4, symBinAddr: 0x2E5B0, symSize: 0x34 }
  - { offset: 0xF7A18, size: 0x8, addend: 0x0, symName: __RNvXs7_NtNtCs9f3LFPSIp77_4core3cmp5implsRNtNtCsATtFUPiRFW_3syn4item10ItemStructNtB7_9PartialEq2eqBH_, symObjAddr: 0x1C28, symBinAddr: 0x2E5E4, symSize: 0x34 }
  - { offset: 0xF7A67, size: 0x8, addend: 0x0, symName: __RNvXs7_NtNtCs9f3LFPSIp77_4core3cmp5implsRNtNtCsATtFUPiRFW_3syn4item11TraitItemFnNtB7_9PartialEq2eqBH_, symObjAddr: 0x1C5C, symBinAddr: 0x2E618, symSize: 0x34 }
  - { offset: 0xF7AB6, size: 0x8, addend: 0x0, symName: __RNvXs7_NtNtCs9f3LFPSIp77_4core3cmp5implsRNtNtCsATtFUPiRFW_3syn4item12ImplItemTypeNtB7_9PartialEq2eqBH_, symObjAddr: 0x1C90, symBinAddr: 0x2E64C, symSize: 0x34 }
  - { offset: 0xF7B05, size: 0x8, addend: 0x0, symName: __RNvXs7_NtNtCs9f3LFPSIp77_4core3cmp5implsRNtNtCsATtFUPiRFW_3syn4item13ForeignItemFnNtB7_9PartialEq2eqBH_, symObjAddr: 0x1CC4, symBinAddr: 0x2E680, symSize: 0x34 }
  - { offset: 0xF7B54, size: 0x8, addend: 0x0, symName: __RNvXs7_NtNtCs9f3LFPSIp77_4core3cmp5implsRNtNtCsATtFUPiRFW_3syn4item13ImplItemConstNtB7_9PartialEq2eqBH_, symObjAddr: 0x1CF8, symBinAddr: 0x2E6B4, symSize: 0x34 }
  - { offset: 0xF7BA3, size: 0x8, addend: 0x0, symName: __RNvXs7_NtNtCs9f3LFPSIp77_4core3cmp5implsRNtNtCsATtFUPiRFW_3syn4item13ImplItemMacroNtB7_9PartialEq2eqBH_, symObjAddr: 0x1D2C, symBinAddr: 0x2E6E8, symSize: 0x34 }
  - { offset: 0xF7BF2, size: 0x8, addend: 0x0, symName: __RNvXs7_NtNtCs9f3LFPSIp77_4core3cmp5implsRNtNtCsATtFUPiRFW_3syn4item13TraitItemTypeNtB7_9PartialEq2eqBH_, symObjAddr: 0x1D60, symBinAddr: 0x2E71C, symSize: 0x34 }
  - { offset: 0xF7C41, size: 0x8, addend: 0x0, symName: __RNvXs7_NtNtCs9f3LFPSIp77_4core3cmp5implsRNtNtCsATtFUPiRFW_3syn4item14ItemForeignModNtB7_9PartialEq2eqBH_, symObjAddr: 0x1D94, symBinAddr: 0x2E750, symSize: 0x34 }
  - { offset: 0xF7C90, size: 0x8, addend: 0x0, symName: __RNvXs7_NtNtCs9f3LFPSIp77_4core3cmp5implsRNtNtCsATtFUPiRFW_3syn4item14ItemTraitAliasNtB7_9PartialEq2eqBH_, symObjAddr: 0x1DC8, symBinAddr: 0x2E784, symSize: 0x34 }
  - { offset: 0xF7CDF, size: 0x8, addend: 0x0, symName: __RNvXs7_NtNtCs9f3LFPSIp77_4core3cmp5implsRNtNtCsATtFUPiRFW_3syn4item14TraitItemConstNtB7_9PartialEq2eqBH_, symObjAddr: 0x1DFC, symBinAddr: 0x2E7B8, symSize: 0x34 }
  - { offset: 0xF7D2E, size: 0x8, addend: 0x0, symName: __RNvXs7_NtNtCs9f3LFPSIp77_4core3cmp5implsRNtNtCsATtFUPiRFW_3syn4item14TraitItemMacroNtB7_9PartialEq2eqBH_, symObjAddr: 0x1E30, symBinAddr: 0x2E7EC, symSize: 0x34 }
  - { offset: 0xF7D7D, size: 0x8, addend: 0x0, symName: __RNvXs7_NtNtCs9f3LFPSIp77_4core3cmp5implsRNtNtCsATtFUPiRFW_3syn4item15ForeignItemTypeNtB7_9PartialEq2eqBH_, symObjAddr: 0x1E64, symBinAddr: 0x2E820, symSize: 0x34 }
  - { offset: 0xF7DCC, size: 0x8, addend: 0x0, symName: __RNvXs7_NtNtCs9f3LFPSIp77_4core3cmp5implsRNtNtCsATtFUPiRFW_3syn4item15ItemExternCrateNtB7_9PartialEq2eqBH_, symObjAddr: 0x1E98, symBinAddr: 0x2E854, symSize: 0x34 }
  - { offset: 0xF7E1B, size: 0x8, addend: 0x0, symName: __RNvXs7_NtNtCs9f3LFPSIp77_4core3cmp5implsRNtNtCsATtFUPiRFW_3syn4item16ForeignItemMacroNtB7_9PartialEq2eqBH_, symObjAddr: 0x1ECC, symBinAddr: 0x2E888, symSize: 0x34 }
  - { offset: 0xF7E6A, size: 0x8, addend: 0x0, symName: __RNvXs7_NtNtCs9f3LFPSIp77_4core3cmp5implsRNtNtCsATtFUPiRFW_3syn4item17ForeignItemStaticNtB7_9PartialEq2eqBH_, symObjAddr: 0x1F00, symBinAddr: 0x2E8BC, symSize: 0x34 }
  - { offset: 0xF7EB9, size: 0x8, addend: 0x0, symName: __RNvXs7_NtNtCs9f3LFPSIp77_4core3cmp5implsRNtNtCsATtFUPiRFW_3syn4item4ItemNtB7_9PartialEq2eqBH_, symObjAddr: 0x1F34, symBinAddr: 0x2E8F0, symSize: 0x34 }
  - { offset: 0xF7F08, size: 0x8, addend: 0x0, symName: __RNvXs7_NtNtCs9f3LFPSIp77_4core3cmp5implsRNtNtCsATtFUPiRFW_3syn4item6ItemFnNtB7_9PartialEq2eqBH_, symObjAddr: 0x1F68, symBinAddr: 0x2E924, symSize: 0x34 }
  - { offset: 0xF7F57, size: 0x8, addend: 0x0, symName: __RNvXs7_NtNtCs9f3LFPSIp77_4core3cmp5implsRNtNtCsATtFUPiRFW_3syn4item7ItemModNtB7_9PartialEq2eqBH_, symObjAddr: 0x1F9C, symBinAddr: 0x2E958, symSize: 0x34 }
  - { offset: 0xF7FA6, size: 0x8, addend: 0x0, symName: __RNvXs7_NtNtCs9f3LFPSIp77_4core3cmp5implsRNtNtCsATtFUPiRFW_3syn4item7ItemUseNtB7_9PartialEq2eqBH_, symObjAddr: 0x1FD0, symBinAddr: 0x2E98C, symSize: 0x34 }
  - { offset: 0xF7FF5, size: 0x8, addend: 0x0, symName: __RNvXs7_NtNtCs9f3LFPSIp77_4core3cmp5implsRNtNtCsATtFUPiRFW_3syn4item7UseGlobNtB7_9PartialEq2eqBH_, symObjAddr: 0x2004, symBinAddr: 0x2E9C0, symSize: 0x34 }
  - { offset: 0xF8044, size: 0x8, addend: 0x0, symName: __RNvXs7_NtNtCs9f3LFPSIp77_4core3cmp5implsRNtNtCsATtFUPiRFW_3syn4item7UseNameNtB7_9PartialEq2eqBH_, symObjAddr: 0x2038, symBinAddr: 0x2E9F4, symSize: 0x34 }
  - { offset: 0xF8093, size: 0x8, addend: 0x0, symName: __RNvXs7_NtNtCs9f3LFPSIp77_4core3cmp5implsRNtNtCsATtFUPiRFW_3syn4item7UsePathNtB7_9PartialEq2eqBH_, symObjAddr: 0x206C, symBinAddr: 0x2EA28, symSize: 0x34 }
  - { offset: 0xF80E2, size: 0x8, addend: 0x0, symName: __RNvXs7_NtNtCs9f3LFPSIp77_4core3cmp5implsRNtNtCsATtFUPiRFW_3syn4item8ItemEnumNtB7_9PartialEq2eqBH_, symObjAddr: 0x20A0, symBinAddr: 0x2EA5C, symSize: 0x34 }
  - { offset: 0xF8131, size: 0x8, addend: 0x0, symName: __RNvXs7_NtNtCs9f3LFPSIp77_4core3cmp5implsRNtNtCsATtFUPiRFW_3syn4item8ItemImplNtB7_9PartialEq2eqBH_, symObjAddr: 0x20D4, symBinAddr: 0x2EA90, symSize: 0x34 }
  - { offset: 0xF8180, size: 0x8, addend: 0x0, symName: __RNvXs7_NtNtCs9f3LFPSIp77_4core3cmp5implsRNtNtCsATtFUPiRFW_3syn4item8ItemTypeNtB7_9PartialEq2eqBH_, symObjAddr: 0x2108, symBinAddr: 0x2EAC4, symSize: 0x34 }
  - { offset: 0xF81CF, size: 0x8, addend: 0x0, symName: __RNvXs7_NtNtCs9f3LFPSIp77_4core3cmp5implsRNtNtCsATtFUPiRFW_3syn4item8ReceiverNtB7_9PartialEq2eqBH_, symObjAddr: 0x213C, symBinAddr: 0x2EAF8, symSize: 0x34 }
  - { offset: 0xF821E, size: 0x8, addend: 0x0, symName: __RNvXs7_NtNtCs9f3LFPSIp77_4core3cmp5implsRNtNtCsATtFUPiRFW_3syn4item8UseGroupNtB7_9PartialEq2eqBH_, symObjAddr: 0x2170, symBinAddr: 0x2EB2C, symSize: 0x34 }
  - { offset: 0xF826D, size: 0x8, addend: 0x0, symName: __RNvXs7_NtNtCs9f3LFPSIp77_4core3cmp5implsRNtNtCsATtFUPiRFW_3syn4item9ItemConstNtB7_9PartialEq2eqBH_, symObjAddr: 0x21A4, symBinAddr: 0x2EB60, symSize: 0x34 }
  - { offset: 0xF82BC, size: 0x8, addend: 0x0, symName: __RNvXs7_NtNtCs9f3LFPSIp77_4core3cmp5implsRNtNtCsATtFUPiRFW_3syn4item9ItemMacroNtB7_9PartialEq2eqBH_, symObjAddr: 0x21D8, symBinAddr: 0x2EB94, symSize: 0x34 }
  - { offset: 0xF830B, size: 0x8, addend: 0x0, symName: __RNvXs7_NtNtCs9f3LFPSIp77_4core3cmp5implsRNtNtCsATtFUPiRFW_3syn4item9ItemTraitNtB7_9PartialEq2eqBH_, symObjAddr: 0x220C, symBinAddr: 0x2EBC8, symSize: 0x34 }
  - { offset: 0xF835A, size: 0x8, addend: 0x0, symName: __RNvXs7_NtNtCs9f3LFPSIp77_4core3cmp5implsRNtNtCsATtFUPiRFW_3syn4item9ItemUnionNtB7_9PartialEq2eqBH_, symObjAddr: 0x2240, symBinAddr: 0x2EBFC, symSize: 0x34 }
  - { offset: 0xF83A9, size: 0x8, addend: 0x0, symName: __RNvXs7_NtNtCs9f3LFPSIp77_4core3cmp5implsRNtNtCsATtFUPiRFW_3syn4item9UseRenameNtB7_9PartialEq2eqBH_, symObjAddr: 0x2274, symBinAddr: 0x2EC30, symSize: 0x34 }
  - { offset: 0xF83FF, size: 0x8, addend: 0x0, symName: __RNvYNtNtCsATtFUPiRFW_3syn4item10ImplItemFnNtNtCs9f3LFPSIp77_4core3cmp2Eq27assert_receiver_is_total_eqB6_, symObjAddr: 0x27C0, symBinAddr: 0x2F17C, symSize: 0x10 }
  - { offset: 0xF8432, size: 0x8, addend: 0x0, symName: __RNvYNtNtCsATtFUPiRFW_3syn4item10ItemStaticNtNtCs9f3LFPSIp77_4core3cmp2Eq27assert_receiver_is_total_eqB6_, symObjAddr: 0x297C, symBinAddr: 0x2F338, symSize: 0x10 }
  - { offset: 0xF8465, size: 0x8, addend: 0x0, symName: __RNvYNtNtCsATtFUPiRFW_3syn4item10ItemStructNtNtCs9f3LFPSIp77_4core3cmp2Eq27assert_receiver_is_total_eqB6_, symObjAddr: 0x2B30, symBinAddr: 0x2F4EC, symSize: 0x10 }
  - { offset: 0xF8498, size: 0x8, addend: 0x0, symName: __RNvYNtNtCsATtFUPiRFW_3syn4item11ForeignItemNtNtCs9f3LFPSIp77_4core3cmp2Eq27assert_receiver_is_total_eqB6_, symObjAddr: 0x2CEC, symBinAddr: 0x2F6A8, symSize: 0x10 }
  - { offset: 0xF84CB, size: 0x8, addend: 0x0, symName: __RNvYNtNtCsATtFUPiRFW_3syn4item11TraitItemFnNtNtCs9f3LFPSIp77_4core3cmp2Eq27assert_receiver_is_total_eqB6_, symObjAddr: 0x2EA8, symBinAddr: 0x2F864, symSize: 0x10 }
  - { offset: 0xF84FE, size: 0x8, addend: 0x0, symName: __RNvYNtNtCsATtFUPiRFW_3syn4item12ImplItemTypeNtNtCs9f3LFPSIp77_4core3cmp2Eq27assert_receiver_is_total_eqB6_, symObjAddr: 0x3064, symBinAddr: 0x2FA20, symSize: 0x10 }
  - { offset: 0xF8531, size: 0x8, addend: 0x0, symName: __RNvYNtNtCsATtFUPiRFW_3syn4item13ForeignItemFnNtNtCs9f3LFPSIp77_4core3cmp2Eq27assert_receiver_is_total_eqB6_, symObjAddr: 0x3220, symBinAddr: 0x2FBDC, symSize: 0x10 }
  - { offset: 0xF8564, size: 0x8, addend: 0x0, symName: __RNvYNtNtCsATtFUPiRFW_3syn4item13ImplItemConstNtNtCs9f3LFPSIp77_4core3cmp2Eq27assert_receiver_is_total_eqB6_, symObjAddr: 0x33DC, symBinAddr: 0x2FD98, symSize: 0x10 }
  - { offset: 0xF8597, size: 0x8, addend: 0x0, symName: __RNvYNtNtCsATtFUPiRFW_3syn4item13ImplItemMacroNtNtCs9f3LFPSIp77_4core3cmp2Eq27assert_receiver_is_total_eqB6_, symObjAddr: 0x3598, symBinAddr: 0x2FF54, symSize: 0x10 }
  - { offset: 0xF85CA, size: 0x8, addend: 0x0, symName: __RNvYNtNtCsATtFUPiRFW_3syn4item13TraitItemTypeNtNtCs9f3LFPSIp77_4core3cmp2Eq27assert_receiver_is_total_eqB6_, symObjAddr: 0x374C, symBinAddr: 0x30108, symSize: 0x10 }
  - { offset: 0xF85FD, size: 0x8, addend: 0x0, symName: __RNvYNtNtCsATtFUPiRFW_3syn4item14ItemForeignModNtNtCs9f3LFPSIp77_4core3cmp2Eq27assert_receiver_is_total_eqB6_, symObjAddr: 0x3908, symBinAddr: 0x302C4, symSize: 0x10 }
  - { offset: 0xF8630, size: 0x8, addend: 0x0, symName: __RNvYNtNtCsATtFUPiRFW_3syn4item14ItemTraitAliasNtNtCs9f3LFPSIp77_4core3cmp2Eq27assert_receiver_is_total_eqB6_, symObjAddr: 0x3ABC, symBinAddr: 0x30478, symSize: 0x10 }
  - { offset: 0xF8663, size: 0x8, addend: 0x0, symName: __RNvYNtNtCsATtFUPiRFW_3syn4item14TraitItemConstNtNtCs9f3LFPSIp77_4core3cmp2Eq27assert_receiver_is_total_eqB6_, symObjAddr: 0x3C78, symBinAddr: 0x30634, symSize: 0x10 }
  - { offset: 0xF8696, size: 0x8, addend: 0x0, symName: __RNvYNtNtCsATtFUPiRFW_3syn4item14TraitItemMacroNtNtCs9f3LFPSIp77_4core3cmp2Eq27assert_receiver_is_total_eqB6_, symObjAddr: 0x3E34, symBinAddr: 0x307F0, symSize: 0x10 }
  - { offset: 0xF86C9, size: 0x8, addend: 0x0, symName: __RNvYNtNtCsATtFUPiRFW_3syn4item15ForeignItemTypeNtNtCs9f3LFPSIp77_4core3cmp2Eq27assert_receiver_is_total_eqB6_, symObjAddr: 0x3FE8, symBinAddr: 0x309A4, symSize: 0x10 }
  - { offset: 0xF86FC, size: 0x8, addend: 0x0, symName: __RNvYNtNtCsATtFUPiRFW_3syn4item15ImplRestrictionNtNtCs9f3LFPSIp77_4core3cmp2Eq27assert_receiver_is_total_eqB6_, symObjAddr: 0x40AC, symBinAddr: 0x30A68, symSize: 0x10 }
  - { offset: 0xF872F, size: 0x8, addend: 0x0, symName: __RNvYNtNtCsATtFUPiRFW_3syn4item15ItemExternCrateNtNtCs9f3LFPSIp77_4core3cmp2Eq27assert_receiver_is_total_eqB6_, symObjAddr: 0x4210, symBinAddr: 0x30BCC, symSize: 0x10 }
  - { offset: 0xF8762, size: 0x8, addend: 0x0, symName: __RNvYNtNtCsATtFUPiRFW_3syn4item16ForeignItemMacroNtNtCs9f3LFPSIp77_4core3cmp2Eq27assert_receiver_is_total_eqB6_, symObjAddr: 0x43C4, symBinAddr: 0x30D80, symSize: 0x10 }
  - { offset: 0xF8795, size: 0x8, addend: 0x0, symName: __RNvYNtNtCsATtFUPiRFW_3syn4item16StaticMutabilityNtNtCs9f3LFPSIp77_4core3cmp2Eq27assert_receiver_is_total_eqB6_, symObjAddr: 0x456C, symBinAddr: 0x30F28, symSize: 0x10 }
  - { offset: 0xF87C8, size: 0x8, addend: 0x0, symName: __RNvYNtNtCsATtFUPiRFW_3syn4item17ForeignItemStaticNtNtCs9f3LFPSIp77_4core3cmp2Eq27assert_receiver_is_total_eqB6_, symObjAddr: 0x46F0, symBinAddr: 0x310AC, symSize: 0x10 }
  - { offset: 0xF87FB, size: 0x8, addend: 0x0, symName: __RNvYNtNtCsATtFUPiRFW_3syn4item4ItemNtNtCs9f3LFPSIp77_4core3cmp2Eq27assert_receiver_is_total_eqB6_, symObjAddr: 0x48A4, symBinAddr: 0x31260, symSize: 0x10 }
  - { offset: 0xF882E, size: 0x8, addend: 0x0, symName: __RNvYNtNtCsATtFUPiRFW_3syn4item5FnArgNtNtCs9f3LFPSIp77_4core3cmp2Eq27assert_receiver_is_total_eqB6_, symObjAddr: 0x4A60, symBinAddr: 0x3141C, symSize: 0x10 }
  - { offset: 0xF8861, size: 0x8, addend: 0x0, symName: __RNvYNtNtCsATtFUPiRFW_3syn4item6ItemFnNtNtCs9f3LFPSIp77_4core3cmp2Eq27assert_receiver_is_total_eqB6_, symObjAddr: 0x4C14, symBinAddr: 0x315D0, symSize: 0x10 }
  - { offset: 0xF8894, size: 0x8, addend: 0x0, symName: __RNvYNtNtCsATtFUPiRFW_3syn4item7ItemModNtNtCs9f3LFPSIp77_4core3cmp2Eq27assert_receiver_is_total_eqB6_, symObjAddr: 0x4DD0, symBinAddr: 0x3178C, symSize: 0x10 }
  - { offset: 0xF88C7, size: 0x8, addend: 0x0, symName: __RNvYNtNtCsATtFUPiRFW_3syn4item7ItemUseNtNtCs9f3LFPSIp77_4core3cmp2Eq27assert_receiver_is_total_eqB6_, symObjAddr: 0x4F84, symBinAddr: 0x31940, symSize: 0x10 }
  - { offset: 0xF88FA, size: 0x8, addend: 0x0, symName: __RNvYNtNtCsATtFUPiRFW_3syn4item7UseGlobNtNtCs9f3LFPSIp77_4core3cmp2Eq27assert_receiver_is_total_eqB6_, symObjAddr: 0x512C, symBinAddr: 0x31AE8, symSize: 0x10 }
  - { offset: 0xF892D, size: 0x8, addend: 0x0, symName: __RNvYNtNtCsATtFUPiRFW_3syn4item7UseNameNtNtCs9f3LFPSIp77_4core3cmp2Eq27assert_receiver_is_total_eqB6_, symObjAddr: 0x52AC, symBinAddr: 0x31C68, symSize: 0x10 }
  - { offset: 0xF8960, size: 0x8, addend: 0x0, symName: __RNvYNtNtCsATtFUPiRFW_3syn4item7UsePathNtNtCs9f3LFPSIp77_4core3cmp2Eq27assert_receiver_is_total_eqB6_, symObjAddr: 0x5460, symBinAddr: 0x31E1C, symSize: 0x10 }
  - { offset: 0xF8993, size: 0x8, addend: 0x0, symName: __RNvYNtNtCsATtFUPiRFW_3syn4item7UseTreeNtNtCs9f3LFPSIp77_4core3cmp2Eq27assert_receiver_is_total_eqB6_, symObjAddr: 0x5614, symBinAddr: 0x31FD0, symSize: 0x10 }
  - { offset: 0xF89C6, size: 0x8, addend: 0x0, symName: __RNvYNtNtCsATtFUPiRFW_3syn4item8ImplItemNtNtCs9f3LFPSIp77_4core3cmp2Eq27assert_receiver_is_total_eqB6_, symObjAddr: 0x57C8, symBinAddr: 0x32184, symSize: 0x10 }
  - { offset: 0xF89F9, size: 0x8, addend: 0x0, symName: __RNvYNtNtCsATtFUPiRFW_3syn4item8ItemEnumNtNtCs9f3LFPSIp77_4core3cmp2Eq27assert_receiver_is_total_eqB6_, symObjAddr: 0x5984, symBinAddr: 0x32340, symSize: 0x10 }
  - { offset: 0xF8A2C, size: 0x8, addend: 0x0, symName: __RNvYNtNtCsATtFUPiRFW_3syn4item8ItemImplNtNtCs9f3LFPSIp77_4core3cmp2Eq27assert_receiver_is_total_eqB6_, symObjAddr: 0x5B40, symBinAddr: 0x324FC, symSize: 0x10 }
  - { offset: 0xF8A5F, size: 0x8, addend: 0x0, symName: __RNvYNtNtCsATtFUPiRFW_3syn4item8ItemTypeNtNtCs9f3LFPSIp77_4core3cmp2Eq27assert_receiver_is_total_eqB6_, symObjAddr: 0x5CFC, symBinAddr: 0x326B8, symSize: 0x10 }
  - { offset: 0xF8A92, size: 0x8, addend: 0x0, symName: __RNvYNtNtCsATtFUPiRFW_3syn4item8ReceiverNtNtCs9f3LFPSIp77_4core3cmp2Eq27assert_receiver_is_total_eqB6_, symObjAddr: 0x5EB8, symBinAddr: 0x32874, symSize: 0x10 }
  - { offset: 0xF8AC5, size: 0x8, addend: 0x0, symName: __RNvYNtNtCsATtFUPiRFW_3syn4item8UseGroupNtNtCs9f3LFPSIp77_4core3cmp2Eq27assert_receiver_is_total_eqB6_, symObjAddr: 0x606C, symBinAddr: 0x32A28, symSize: 0x10 }
  - { offset: 0xF8AF8, size: 0x8, addend: 0x0, symName: __RNvYNtNtCsATtFUPiRFW_3syn4item8VariadicNtNtCs9f3LFPSIp77_4core3cmp2Eq27assert_receiver_is_total_eqB6_, symObjAddr: 0x6220, symBinAddr: 0x32BDC, symSize: 0x10 }
  - { offset: 0xF8B2B, size: 0x8, addend: 0x0, symName: __RNvYNtNtCsATtFUPiRFW_3syn4item9ItemConstNtNtCs9f3LFPSIp77_4core3cmp2Eq27assert_receiver_is_total_eqB6_, symObjAddr: 0x63D4, symBinAddr: 0x32D90, symSize: 0x10 }
  - { offset: 0xF8B5E, size: 0x8, addend: 0x0, symName: __RNvYNtNtCsATtFUPiRFW_3syn4item9ItemMacroNtNtCs9f3LFPSIp77_4core3cmp2Eq27assert_receiver_is_total_eqB6_, symObjAddr: 0x6590, symBinAddr: 0x32F4C, symSize: 0x10 }
  - { offset: 0xF8B91, size: 0x8, addend: 0x0, symName: __RNvYNtNtCsATtFUPiRFW_3syn4item9ItemTraitNtNtCs9f3LFPSIp77_4core3cmp2Eq27assert_receiver_is_total_eqB6_, symObjAddr: 0x6744, symBinAddr: 0x33100, symSize: 0x10 }
  - { offset: 0xF8BC4, size: 0x8, addend: 0x0, symName: __RNvYNtNtCsATtFUPiRFW_3syn4item9ItemUnionNtNtCs9f3LFPSIp77_4core3cmp2Eq27assert_receiver_is_total_eqB6_, symObjAddr: 0x6900, symBinAddr: 0x332BC, symSize: 0x10 }
  - { offset: 0xF8BF7, size: 0x8, addend: 0x0, symName: __RNvYNtNtCsATtFUPiRFW_3syn4item9SignatureNtNtCs9f3LFPSIp77_4core3cmp2Eq27assert_receiver_is_total_eqB6_, symObjAddr: 0x6ABC, symBinAddr: 0x33478, symSize: 0x10 }
  - { offset: 0xF8C2A, size: 0x8, addend: 0x0, symName: __RNvYNtNtCsATtFUPiRFW_3syn4item9TraitItemNtNtCs9f3LFPSIp77_4core3cmp2Eq27assert_receiver_is_total_eqB6_, symObjAddr: 0x6C78, symBinAddr: 0x33634, symSize: 0x10 }
  - { offset: 0xF8C5D, size: 0x8, addend: 0x0, symName: __RNvYNtNtCsATtFUPiRFW_3syn4item9UseRenameNtNtCs9f3LFPSIp77_4core3cmp2Eq27assert_receiver_is_total_eqB6_, symObjAddr: 0x6E34, symBinAddr: 0x337F0, symSize: 0x10 }
  - { offset: 0xF8C96, size: 0x8, addend: 0x0, symName: __RNvYNtNtCsATtFUPiRFW_3syn4item10ImplItemFnNtNtCs9f3LFPSIp77_4core3cmp9PartialEq2neB6_, symObjAddr: 0x27D0, symBinAddr: 0x2F18C, symSize: 0x30 }
  - { offset: 0xF8CE5, size: 0x8, addend: 0x0, symName: __RNvYNtNtCsATtFUPiRFW_3syn4item10ItemStaticNtNtCs9f3LFPSIp77_4core3cmp9PartialEq2neB6_, symObjAddr: 0x298C, symBinAddr: 0x2F348, symSize: 0x30 }
  - { offset: 0xF8D34, size: 0x8, addend: 0x0, symName: __RNvYNtNtCsATtFUPiRFW_3syn4item10ItemStructNtNtCs9f3LFPSIp77_4core3cmp9PartialEq2neB6_, symObjAddr: 0x2B40, symBinAddr: 0x2F4FC, symSize: 0x30 }
  - { offset: 0xF8D83, size: 0x8, addend: 0x0, symName: __RNvYNtNtCsATtFUPiRFW_3syn4item11ForeignItemNtNtCs9f3LFPSIp77_4core3cmp9PartialEq2neB6_, symObjAddr: 0x2CFC, symBinAddr: 0x2F6B8, symSize: 0x30 }
  - { offset: 0xF8DD2, size: 0x8, addend: 0x0, symName: __RNvYNtNtCsATtFUPiRFW_3syn4item11TraitItemFnNtNtCs9f3LFPSIp77_4core3cmp9PartialEq2neB6_, symObjAddr: 0x2EB8, symBinAddr: 0x2F874, symSize: 0x30 }
  - { offset: 0xF8E21, size: 0x8, addend: 0x0, symName: __RNvYNtNtCsATtFUPiRFW_3syn4item12ImplItemTypeNtNtCs9f3LFPSIp77_4core3cmp9PartialEq2neB6_, symObjAddr: 0x3074, symBinAddr: 0x2FA30, symSize: 0x30 }
  - { offset: 0xF8E70, size: 0x8, addend: 0x0, symName: __RNvYNtNtCsATtFUPiRFW_3syn4item13ForeignItemFnNtNtCs9f3LFPSIp77_4core3cmp9PartialEq2neB6_, symObjAddr: 0x3230, symBinAddr: 0x2FBEC, symSize: 0x30 }
  - { offset: 0xF8EBF, size: 0x8, addend: 0x0, symName: __RNvYNtNtCsATtFUPiRFW_3syn4item13ImplItemConstNtNtCs9f3LFPSIp77_4core3cmp9PartialEq2neB6_, symObjAddr: 0x33EC, symBinAddr: 0x2FDA8, symSize: 0x30 }
  - { offset: 0xF8F0E, size: 0x8, addend: 0x0, symName: __RNvYNtNtCsATtFUPiRFW_3syn4item13ImplItemMacroNtNtCs9f3LFPSIp77_4core3cmp9PartialEq2neB6_, symObjAddr: 0x35A8, symBinAddr: 0x2FF64, symSize: 0x30 }
  - { offset: 0xF8F5D, size: 0x8, addend: 0x0, symName: __RNvYNtNtCsATtFUPiRFW_3syn4item13TraitItemTypeNtNtCs9f3LFPSIp77_4core3cmp9PartialEq2neB6_, symObjAddr: 0x375C, symBinAddr: 0x30118, symSize: 0x30 }
  - { offset: 0xF8FAC, size: 0x8, addend: 0x0, symName: __RNvYNtNtCsATtFUPiRFW_3syn4item14ItemForeignModNtNtCs9f3LFPSIp77_4core3cmp9PartialEq2neB6_, symObjAddr: 0x3918, symBinAddr: 0x302D4, symSize: 0x30 }
  - { offset: 0xF8FFB, size: 0x8, addend: 0x0, symName: __RNvYNtNtCsATtFUPiRFW_3syn4item14ItemTraitAliasNtNtCs9f3LFPSIp77_4core3cmp9PartialEq2neB6_, symObjAddr: 0x3ACC, symBinAddr: 0x30488, symSize: 0x30 }
  - { offset: 0xF904A, size: 0x8, addend: 0x0, symName: __RNvYNtNtCsATtFUPiRFW_3syn4item14TraitItemConstNtNtCs9f3LFPSIp77_4core3cmp9PartialEq2neB6_, symObjAddr: 0x3C88, symBinAddr: 0x30644, symSize: 0x30 }
  - { offset: 0xF9099, size: 0x8, addend: 0x0, symName: __RNvYNtNtCsATtFUPiRFW_3syn4item14TraitItemMacroNtNtCs9f3LFPSIp77_4core3cmp9PartialEq2neB6_, symObjAddr: 0x3E44, symBinAddr: 0x30800, symSize: 0x30 }
  - { offset: 0xF90E8, size: 0x8, addend: 0x0, symName: __RNvYNtNtCsATtFUPiRFW_3syn4item15ForeignItemTypeNtNtCs9f3LFPSIp77_4core3cmp9PartialEq2neB6_, symObjAddr: 0x3FF8, symBinAddr: 0x309B4, symSize: 0x30 }
  - { offset: 0xF9137, size: 0x8, addend: 0x0, symName: __RNvYNtNtCsATtFUPiRFW_3syn4item15ImplRestrictionNtNtCs9f3LFPSIp77_4core3cmp9PartialEq2neB6_, symObjAddr: 0x40BC, symBinAddr: 0x30A78, symSize: 0x30 }
  - { offset: 0xF9186, size: 0x8, addend: 0x0, symName: __RNvYNtNtCsATtFUPiRFW_3syn4item15ItemExternCrateNtNtCs9f3LFPSIp77_4core3cmp9PartialEq2neB6_, symObjAddr: 0x4220, symBinAddr: 0x30BDC, symSize: 0x30 }
  - { offset: 0xF91D5, size: 0x8, addend: 0x0, symName: __RNvYNtNtCsATtFUPiRFW_3syn4item16ForeignItemMacroNtNtCs9f3LFPSIp77_4core3cmp9PartialEq2neB6_, symObjAddr: 0x43D4, symBinAddr: 0x30D90, symSize: 0x30 }
  - { offset: 0xF9224, size: 0x8, addend: 0x0, symName: __RNvYNtNtCsATtFUPiRFW_3syn4item16StaticMutabilityNtNtCs9f3LFPSIp77_4core3cmp9PartialEq2neB6_, symObjAddr: 0x457C, symBinAddr: 0x30F38, symSize: 0x30 }
  - { offset: 0xF9273, size: 0x8, addend: 0x0, symName: __RNvYNtNtCsATtFUPiRFW_3syn4item17ForeignItemStaticNtNtCs9f3LFPSIp77_4core3cmp9PartialEq2neB6_, symObjAddr: 0x4700, symBinAddr: 0x310BC, symSize: 0x30 }
  - { offset: 0xF92C2, size: 0x8, addend: 0x0, symName: __RNvYNtNtCsATtFUPiRFW_3syn4item4ItemNtNtCs9f3LFPSIp77_4core3cmp9PartialEq2neB6_, symObjAddr: 0x48B4, symBinAddr: 0x31270, symSize: 0x30 }
  - { offset: 0xF9311, size: 0x8, addend: 0x0, symName: __RNvYNtNtCsATtFUPiRFW_3syn4item5FnArgNtNtCs9f3LFPSIp77_4core3cmp9PartialEq2neB6_, symObjAddr: 0x4A70, symBinAddr: 0x3142C, symSize: 0x30 }
  - { offset: 0xF9360, size: 0x8, addend: 0x0, symName: __RNvYNtNtCsATtFUPiRFW_3syn4item6ItemFnNtNtCs9f3LFPSIp77_4core3cmp9PartialEq2neB6_, symObjAddr: 0x4C24, symBinAddr: 0x315E0, symSize: 0x30 }
  - { offset: 0xF93AF, size: 0x8, addend: 0x0, symName: __RNvYNtNtCsATtFUPiRFW_3syn4item7ItemModNtNtCs9f3LFPSIp77_4core3cmp9PartialEq2neB6_, symObjAddr: 0x4DE0, symBinAddr: 0x3179C, symSize: 0x30 }
  - { offset: 0xF93FE, size: 0x8, addend: 0x0, symName: __RNvYNtNtCsATtFUPiRFW_3syn4item7ItemUseNtNtCs9f3LFPSIp77_4core3cmp9PartialEq2neB6_, symObjAddr: 0x4F94, symBinAddr: 0x31950, symSize: 0x30 }
  - { offset: 0xF944D, size: 0x8, addend: 0x0, symName: __RNvYNtNtCsATtFUPiRFW_3syn4item7UseGlobNtNtCs9f3LFPSIp77_4core3cmp9PartialEq2neB6_, symObjAddr: 0x513C, symBinAddr: 0x31AF8, symSize: 0x30 }
  - { offset: 0xF949C, size: 0x8, addend: 0x0, symName: __RNvYNtNtCsATtFUPiRFW_3syn4item7UseNameNtNtCs9f3LFPSIp77_4core3cmp9PartialEq2neB6_, symObjAddr: 0x52BC, symBinAddr: 0x31C78, symSize: 0x30 }
  - { offset: 0xF94EB, size: 0x8, addend: 0x0, symName: __RNvYNtNtCsATtFUPiRFW_3syn4item7UsePathNtNtCs9f3LFPSIp77_4core3cmp9PartialEq2neB6_, symObjAddr: 0x5470, symBinAddr: 0x31E2C, symSize: 0x30 }
  - { offset: 0xF953A, size: 0x8, addend: 0x0, symName: __RNvYNtNtCsATtFUPiRFW_3syn4item7UseTreeNtNtCs9f3LFPSIp77_4core3cmp9PartialEq2neB6_, symObjAddr: 0x5624, symBinAddr: 0x31FE0, symSize: 0x30 }
  - { offset: 0xF9589, size: 0x8, addend: 0x0, symName: __RNvYNtNtCsATtFUPiRFW_3syn4item8ImplItemNtNtCs9f3LFPSIp77_4core3cmp9PartialEq2neB6_, symObjAddr: 0x57D8, symBinAddr: 0x32194, symSize: 0x30 }
  - { offset: 0xF95D8, size: 0x8, addend: 0x0, symName: __RNvYNtNtCsATtFUPiRFW_3syn4item8ItemEnumNtNtCs9f3LFPSIp77_4core3cmp9PartialEq2neB6_, symObjAddr: 0x5994, symBinAddr: 0x32350, symSize: 0x30 }
  - { offset: 0xF9627, size: 0x8, addend: 0x0, symName: __RNvYNtNtCsATtFUPiRFW_3syn4item8ItemImplNtNtCs9f3LFPSIp77_4core3cmp9PartialEq2neB6_, symObjAddr: 0x5B50, symBinAddr: 0x3250C, symSize: 0x30 }
  - { offset: 0xF9676, size: 0x8, addend: 0x0, symName: __RNvYNtNtCsATtFUPiRFW_3syn4item8ItemTypeNtNtCs9f3LFPSIp77_4core3cmp9PartialEq2neB6_, symObjAddr: 0x5D0C, symBinAddr: 0x326C8, symSize: 0x30 }
  - { offset: 0xF96C5, size: 0x8, addend: 0x0, symName: __RNvYNtNtCsATtFUPiRFW_3syn4item8ReceiverNtNtCs9f3LFPSIp77_4core3cmp9PartialEq2neB6_, symObjAddr: 0x5EC8, symBinAddr: 0x32884, symSize: 0x30 }
  - { offset: 0xF9714, size: 0x8, addend: 0x0, symName: __RNvYNtNtCsATtFUPiRFW_3syn4item8UseGroupNtNtCs9f3LFPSIp77_4core3cmp9PartialEq2neB6_, symObjAddr: 0x607C, symBinAddr: 0x32A38, symSize: 0x30 }
  - { offset: 0xF9763, size: 0x8, addend: 0x0, symName: __RNvYNtNtCsATtFUPiRFW_3syn4item8VariadicNtNtCs9f3LFPSIp77_4core3cmp9PartialEq2neB6_, symObjAddr: 0x6230, symBinAddr: 0x32BEC, symSize: 0x30 }
  - { offset: 0xF97B2, size: 0x8, addend: 0x0, symName: __RNvYNtNtCsATtFUPiRFW_3syn4item9ItemConstNtNtCs9f3LFPSIp77_4core3cmp9PartialEq2neB6_, symObjAddr: 0x63E4, symBinAddr: 0x32DA0, symSize: 0x30 }
  - { offset: 0xF9801, size: 0x8, addend: 0x0, symName: __RNvYNtNtCsATtFUPiRFW_3syn4item9ItemMacroNtNtCs9f3LFPSIp77_4core3cmp9PartialEq2neB6_, symObjAddr: 0x65A0, symBinAddr: 0x32F5C, symSize: 0x30 }
  - { offset: 0xF9850, size: 0x8, addend: 0x0, symName: __RNvYNtNtCsATtFUPiRFW_3syn4item9ItemTraitNtNtCs9f3LFPSIp77_4core3cmp9PartialEq2neB6_, symObjAddr: 0x6754, symBinAddr: 0x33110, symSize: 0x30 }
  - { offset: 0xF989F, size: 0x8, addend: 0x0, symName: __RNvYNtNtCsATtFUPiRFW_3syn4item9ItemUnionNtNtCs9f3LFPSIp77_4core3cmp9PartialEq2neB6_, symObjAddr: 0x6910, symBinAddr: 0x332CC, symSize: 0x30 }
  - { offset: 0xF98EE, size: 0x8, addend: 0x0, symName: __RNvYNtNtCsATtFUPiRFW_3syn4item9SignatureNtNtCs9f3LFPSIp77_4core3cmp9PartialEq2neB6_, symObjAddr: 0x6ACC, symBinAddr: 0x33488, symSize: 0x30 }
  - { offset: 0xF993D, size: 0x8, addend: 0x0, symName: __RNvYNtNtCsATtFUPiRFW_3syn4item9TraitItemNtNtCs9f3LFPSIp77_4core3cmp9PartialEq2neB6_, symObjAddr: 0x6C88, symBinAddr: 0x33644, symSize: 0x30 }
  - { offset: 0xF998C, size: 0x8, addend: 0x0, symName: __RNvYNtNtCsATtFUPiRFW_3syn4item9UseRenameNtNtCs9f3LFPSIp77_4core3cmp9PartialEq2neB6_, symObjAddr: 0x6E44, symBinAddr: 0x33800, symSize: 0x30 }
  - { offset: 0xF99E7, size: 0x8, addend: 0x0, symName: __RNvXs8_NtCs9f3LFPSIp77_4core5tupleTNtNtCsATtFUPiRFW_3syn4item5FnArgNtNtBB_5token5CommaENtNtB7_3cmp9PartialEq2neBB_, symObjAddr: 0x22A8, symBinAddr: 0x2EC64, symSize: 0x64 }
  - { offset: 0xF9A33, size: 0x8, addend: 0x0, symName: __RNvXs8_NtCs9f3LFPSIp77_4core5tupleTNtNtCsATtFUPiRFW_3syn4item7UseTreeNtNtBB_5token5CommaENtNtB7_3cmp9PartialEq2neBB_, symObjAddr: 0x230C, symBinAddr: 0x2ECC8, symSize: 0x64 }
  - { offset: 0xFC2D0, size: 0x8, addend: 0x0, symName: __RNvXNtCs62MdaZFMefA_5quote9to_tokensRNtNtCsATtFUPiRFW_3syn4item11ForeignItemNtB2_8ToTokens9to_tokensBD_, symObjAddr: 0x10C8, symBinAddr: 0x2DA84, symSize: 0x40 }
  - { offset: 0xFC30F, size: 0x8, addend: 0x0, symName: __RNvXNtCs62MdaZFMefA_5quote9to_tokensRNtNtCsATtFUPiRFW_3syn4item4ItemNtB2_8ToTokens9to_tokensBD_, symObjAddr: 0x1108, symBinAddr: 0x2DAC4, symSize: 0x40 }
  - { offset: 0xFC34E, size: 0x8, addend: 0x0, symName: __RNvXNtCs62MdaZFMefA_5quote9to_tokensRNtNtCsATtFUPiRFW_3syn4item5FnArgNtB2_8ToTokens9to_tokensBD_, symObjAddr: 0x1148, symBinAddr: 0x2DB04, symSize: 0x40 }
  - { offset: 0xFC38D, size: 0x8, addend: 0x0, symName: __RNvXNtCs62MdaZFMefA_5quote9to_tokensRNtNtCsATtFUPiRFW_3syn4item7UseTreeNtB2_8ToTokens9to_tokensBD_, symObjAddr: 0x1188, symBinAddr: 0x2DB44, symSize: 0x40 }
  - { offset: 0xFC3CC, size: 0x8, addend: 0x0, symName: __RNvXNtCs62MdaZFMefA_5quote9to_tokensRNtNtCsATtFUPiRFW_3syn4item8ImplItemNtB2_8ToTokens9to_tokensBD_, symObjAddr: 0x11C8, symBinAddr: 0x2DB84, symSize: 0x40 }
  - { offset: 0xFC40B, size: 0x8, addend: 0x0, symName: __RNvXNtCs62MdaZFMefA_5quote9to_tokensRNtNtCsATtFUPiRFW_3syn4item9TraitItemNtB2_8ToTokens9to_tokensBD_, symObjAddr: 0x1208, symBinAddr: 0x2DBC4, symSize: 0x40 }
  - { offset: 0xFC450, size: 0x8, addend: 0x0, symName: __RNvYNtNtCsATtFUPiRFW_3syn4item10ImplItemFnNtNtCs62MdaZFMefA_5quote9to_tokens8ToTokens15to_token_streamB6_, symObjAddr: 0x26D0, symBinAddr: 0x2F08C, symSize: 0x8C }
  - { offset: 0xFC49A, size: 0x8, addend: 0x0, symName: __RNvYNtNtCsATtFUPiRFW_3syn4item10ImplItemFnNtNtCs62MdaZFMefA_5quote9to_tokens8ToTokens17into_token_streamB6_, symObjAddr: 0x275C, symBinAddr: 0x2F118, symSize: 0x64 }
  - { offset: 0xFC4D0, size: 0x8, addend: 0x0, symName: __RNvYNtNtCsATtFUPiRFW_3syn4item10ItemStaticNtNtCs62MdaZFMefA_5quote9to_tokens8ToTokens15to_token_streamB6_, symObjAddr: 0x288C, symBinAddr: 0x2F248, symSize: 0x8C }
  - { offset: 0xFC51A, size: 0x8, addend: 0x0, symName: __RNvYNtNtCsATtFUPiRFW_3syn4item10ItemStaticNtNtCs62MdaZFMefA_5quote9to_tokens8ToTokens17into_token_streamB6_, symObjAddr: 0x2918, symBinAddr: 0x2F2D4, symSize: 0x64 }
  - { offset: 0xFC550, size: 0x8, addend: 0x0, symName: __RNvYNtNtCsATtFUPiRFW_3syn4item10ItemStructNtNtCs62MdaZFMefA_5quote9to_tokens8ToTokens15to_token_streamB6_, symObjAddr: 0x2A40, symBinAddr: 0x2F3FC, symSize: 0x8C }
  - { offset: 0xFC59A, size: 0x8, addend: 0x0, symName: __RNvYNtNtCsATtFUPiRFW_3syn4item10ItemStructNtNtCs62MdaZFMefA_5quote9to_tokens8ToTokens17into_token_streamB6_, symObjAddr: 0x2ACC, symBinAddr: 0x2F488, symSize: 0x64 }
  - { offset: 0xFC5D0, size: 0x8, addend: 0x0, symName: __RNvYNtNtCsATtFUPiRFW_3syn4item11ForeignItemNtNtCs62MdaZFMefA_5quote9to_tokens8ToTokens15to_token_streamB6_, symObjAddr: 0x2BFC, symBinAddr: 0x2F5B8, symSize: 0x8C }
  - { offset: 0xFC61A, size: 0x8, addend: 0x0, symName: __RNvYNtNtCsATtFUPiRFW_3syn4item11ForeignItemNtNtCs62MdaZFMefA_5quote9to_tokens8ToTokens17into_token_streamB6_, symObjAddr: 0x2C88, symBinAddr: 0x2F644, symSize: 0x64 }
  - { offset: 0xFC650, size: 0x8, addend: 0x0, symName: __RNvYNtNtCsATtFUPiRFW_3syn4item11TraitItemFnNtNtCs62MdaZFMefA_5quote9to_tokens8ToTokens15to_token_streamB6_, symObjAddr: 0x2DB8, symBinAddr: 0x2F774, symSize: 0x8C }
  - { offset: 0xFC69A, size: 0x8, addend: 0x0, symName: __RNvYNtNtCsATtFUPiRFW_3syn4item11TraitItemFnNtNtCs62MdaZFMefA_5quote9to_tokens8ToTokens17into_token_streamB6_, symObjAddr: 0x2E44, symBinAddr: 0x2F800, symSize: 0x64 }
  - { offset: 0xFC6D0, size: 0x8, addend: 0x0, symName: __RNvYNtNtCsATtFUPiRFW_3syn4item12ImplItemTypeNtNtCs62MdaZFMefA_5quote9to_tokens8ToTokens15to_token_streamB6_, symObjAddr: 0x2F74, symBinAddr: 0x2F930, symSize: 0x8C }
  - { offset: 0xFC71A, size: 0x8, addend: 0x0, symName: __RNvYNtNtCsATtFUPiRFW_3syn4item12ImplItemTypeNtNtCs62MdaZFMefA_5quote9to_tokens8ToTokens17into_token_streamB6_, symObjAddr: 0x3000, symBinAddr: 0x2F9BC, symSize: 0x64 }
  - { offset: 0xFC750, size: 0x8, addend: 0x0, symName: __RNvYNtNtCsATtFUPiRFW_3syn4item13ForeignItemFnNtNtCs62MdaZFMefA_5quote9to_tokens8ToTokens15to_token_streamB6_, symObjAddr: 0x3130, symBinAddr: 0x2FAEC, symSize: 0x8C }
  - { offset: 0xFC79A, size: 0x8, addend: 0x0, symName: __RNvYNtNtCsATtFUPiRFW_3syn4item13ForeignItemFnNtNtCs62MdaZFMefA_5quote9to_tokens8ToTokens17into_token_streamB6_, symObjAddr: 0x31BC, symBinAddr: 0x2FB78, symSize: 0x64 }
  - { offset: 0xFC7D0, size: 0x8, addend: 0x0, symName: __RNvYNtNtCsATtFUPiRFW_3syn4item13ImplItemConstNtNtCs62MdaZFMefA_5quote9to_tokens8ToTokens15to_token_streamB6_, symObjAddr: 0x32EC, symBinAddr: 0x2FCA8, symSize: 0x8C }
  - { offset: 0xFC81A, size: 0x8, addend: 0x0, symName: __RNvYNtNtCsATtFUPiRFW_3syn4item13ImplItemConstNtNtCs62MdaZFMefA_5quote9to_tokens8ToTokens17into_token_streamB6_, symObjAddr: 0x3378, symBinAddr: 0x2FD34, symSize: 0x64 }
  - { offset: 0xFC850, size: 0x8, addend: 0x0, symName: __RNvYNtNtCsATtFUPiRFW_3syn4item13ImplItemMacroNtNtCs62MdaZFMefA_5quote9to_tokens8ToTokens15to_token_streamB6_, symObjAddr: 0x34A8, symBinAddr: 0x2FE64, symSize: 0x8C }
  - { offset: 0xFC89A, size: 0x8, addend: 0x0, symName: __RNvYNtNtCsATtFUPiRFW_3syn4item13ImplItemMacroNtNtCs62MdaZFMefA_5quote9to_tokens8ToTokens17into_token_streamB6_, symObjAddr: 0x3534, symBinAddr: 0x2FEF0, symSize: 0x64 }
  - { offset: 0xFC8D0, size: 0x8, addend: 0x0, symName: __RNvYNtNtCsATtFUPiRFW_3syn4item13TraitItemTypeNtNtCs62MdaZFMefA_5quote9to_tokens8ToTokens15to_token_streamB6_, symObjAddr: 0x365C, symBinAddr: 0x30018, symSize: 0x8C }
  - { offset: 0xFC91A, size: 0x8, addend: 0x0, symName: __RNvYNtNtCsATtFUPiRFW_3syn4item13TraitItemTypeNtNtCs62MdaZFMefA_5quote9to_tokens8ToTokens17into_token_streamB6_, symObjAddr: 0x36E8, symBinAddr: 0x300A4, symSize: 0x64 }
  - { offset: 0xFC950, size: 0x8, addend: 0x0, symName: __RNvYNtNtCsATtFUPiRFW_3syn4item14ItemForeignModNtNtCs62MdaZFMefA_5quote9to_tokens8ToTokens15to_token_streamB6_, symObjAddr: 0x3818, symBinAddr: 0x301D4, symSize: 0x8C }
  - { offset: 0xFC99A, size: 0x8, addend: 0x0, symName: __RNvYNtNtCsATtFUPiRFW_3syn4item14ItemForeignModNtNtCs62MdaZFMefA_5quote9to_tokens8ToTokens17into_token_streamB6_, symObjAddr: 0x38A4, symBinAddr: 0x30260, symSize: 0x64 }
  - { offset: 0xFC9D0, size: 0x8, addend: 0x0, symName: __RNvYNtNtCsATtFUPiRFW_3syn4item14ItemTraitAliasNtNtCs62MdaZFMefA_5quote9to_tokens8ToTokens15to_token_streamB6_, symObjAddr: 0x39CC, symBinAddr: 0x30388, symSize: 0x8C }
  - { offset: 0xFCA1A, size: 0x8, addend: 0x0, symName: __RNvYNtNtCsATtFUPiRFW_3syn4item14ItemTraitAliasNtNtCs62MdaZFMefA_5quote9to_tokens8ToTokens17into_token_streamB6_, symObjAddr: 0x3A58, symBinAddr: 0x30414, symSize: 0x64 }
  - { offset: 0xFCA50, size: 0x8, addend: 0x0, symName: __RNvYNtNtCsATtFUPiRFW_3syn4item14TraitItemConstNtNtCs62MdaZFMefA_5quote9to_tokens8ToTokens15to_token_streamB6_, symObjAddr: 0x3B88, symBinAddr: 0x30544, symSize: 0x8C }
  - { offset: 0xFCA9A, size: 0x8, addend: 0x0, symName: __RNvYNtNtCsATtFUPiRFW_3syn4item14TraitItemConstNtNtCs62MdaZFMefA_5quote9to_tokens8ToTokens17into_token_streamB6_, symObjAddr: 0x3C14, symBinAddr: 0x305D0, symSize: 0x64 }
  - { offset: 0xFCAD0, size: 0x8, addend: 0x0, symName: __RNvYNtNtCsATtFUPiRFW_3syn4item14TraitItemMacroNtNtCs62MdaZFMefA_5quote9to_tokens8ToTokens15to_token_streamB6_, symObjAddr: 0x3D44, symBinAddr: 0x30700, symSize: 0x8C }
  - { offset: 0xFCB1A, size: 0x8, addend: 0x0, symName: __RNvYNtNtCsATtFUPiRFW_3syn4item14TraitItemMacroNtNtCs62MdaZFMefA_5quote9to_tokens8ToTokens17into_token_streamB6_, symObjAddr: 0x3DD0, symBinAddr: 0x3078C, symSize: 0x64 }
  - { offset: 0xFCB50, size: 0x8, addend: 0x0, symName: __RNvYNtNtCsATtFUPiRFW_3syn4item15ForeignItemTypeNtNtCs62MdaZFMefA_5quote9to_tokens8ToTokens15to_token_streamB6_, symObjAddr: 0x3EF8, symBinAddr: 0x308B4, symSize: 0x8C }
  - { offset: 0xFCB9A, size: 0x8, addend: 0x0, symName: __RNvYNtNtCsATtFUPiRFW_3syn4item15ForeignItemTypeNtNtCs62MdaZFMefA_5quote9to_tokens8ToTokens17into_token_streamB6_, symObjAddr: 0x3F84, symBinAddr: 0x30940, symSize: 0x64 }
  - { offset: 0xFCBD0, size: 0x8, addend: 0x0, symName: __RNvYNtNtCsATtFUPiRFW_3syn4item15ItemExternCrateNtNtCs62MdaZFMefA_5quote9to_tokens8ToTokens15to_token_streamB6_, symObjAddr: 0x4120, symBinAddr: 0x30ADC, symSize: 0x8C }
  - { offset: 0xFCC1A, size: 0x8, addend: 0x0, symName: __RNvYNtNtCsATtFUPiRFW_3syn4item15ItemExternCrateNtNtCs62MdaZFMefA_5quote9to_tokens8ToTokens17into_token_streamB6_, symObjAddr: 0x41AC, symBinAddr: 0x30B68, symSize: 0x64 }
  - { offset: 0xFCC50, size: 0x8, addend: 0x0, symName: __RNvYNtNtCsATtFUPiRFW_3syn4item16ForeignItemMacroNtNtCs62MdaZFMefA_5quote9to_tokens8ToTokens15to_token_streamB6_, symObjAddr: 0x42D4, symBinAddr: 0x30C90, symSize: 0x8C }
  - { offset: 0xFCC9A, size: 0x8, addend: 0x0, symName: __RNvYNtNtCsATtFUPiRFW_3syn4item16ForeignItemMacroNtNtCs62MdaZFMefA_5quote9to_tokens8ToTokens17into_token_streamB6_, symObjAddr: 0x4360, symBinAddr: 0x30D1C, symSize: 0x64 }
  - { offset: 0xFCCD0, size: 0x8, addend: 0x0, symName: __RNvYNtNtCsATtFUPiRFW_3syn4item16StaticMutabilityNtNtCs62MdaZFMefA_5quote9to_tokens8ToTokens15to_token_streamB6_, symObjAddr: 0x4488, symBinAddr: 0x30E44, symSize: 0x8C }
  - { offset: 0xFCD1A, size: 0x8, addend: 0x0, symName: __RNvYNtNtCsATtFUPiRFW_3syn4item16StaticMutabilityNtNtCs62MdaZFMefA_5quote9to_tokens8ToTokens17into_token_streamB6_, symObjAddr: 0x4514, symBinAddr: 0x30ED0, symSize: 0x58 }
  - { offset: 0xFCD4F, size: 0x8, addend: 0x0, symName: __RNvYNtNtCsATtFUPiRFW_3syn4item17ForeignItemStaticNtNtCs62MdaZFMefA_5quote9to_tokens8ToTokens15to_token_streamB6_, symObjAddr: 0x4600, symBinAddr: 0x30FBC, symSize: 0x8C }
  - { offset: 0xFCD99, size: 0x8, addend: 0x0, symName: __RNvYNtNtCsATtFUPiRFW_3syn4item17ForeignItemStaticNtNtCs62MdaZFMefA_5quote9to_tokens8ToTokens17into_token_streamB6_, symObjAddr: 0x468C, symBinAddr: 0x31048, symSize: 0x64 }
  - { offset: 0xFCDCF, size: 0x8, addend: 0x0, symName: __RNvYNtNtCsATtFUPiRFW_3syn4item4ItemNtNtCs62MdaZFMefA_5quote9to_tokens8ToTokens15to_token_streamB6_, symObjAddr: 0x47B4, symBinAddr: 0x31170, symSize: 0x8C }
  - { offset: 0xFCE19, size: 0x8, addend: 0x0, symName: __RNvYNtNtCsATtFUPiRFW_3syn4item4ItemNtNtCs62MdaZFMefA_5quote9to_tokens8ToTokens17into_token_streamB6_, symObjAddr: 0x4840, symBinAddr: 0x311FC, symSize: 0x64 }
  - { offset: 0xFCE4F, size: 0x8, addend: 0x0, symName: __RNvYNtNtCsATtFUPiRFW_3syn4item5FnArgNtNtCs62MdaZFMefA_5quote9to_tokens8ToTokens15to_token_streamB6_, symObjAddr: 0x4970, symBinAddr: 0x3132C, symSize: 0x8C }
  - { offset: 0xFCE99, size: 0x8, addend: 0x0, symName: __RNvYNtNtCsATtFUPiRFW_3syn4item5FnArgNtNtCs62MdaZFMefA_5quote9to_tokens8ToTokens17into_token_streamB6_, symObjAddr: 0x49FC, symBinAddr: 0x313B8, symSize: 0x64 }
  - { offset: 0xFCECF, size: 0x8, addend: 0x0, symName: __RNvYNtNtCsATtFUPiRFW_3syn4item6ItemFnNtNtCs62MdaZFMefA_5quote9to_tokens8ToTokens15to_token_streamB6_, symObjAddr: 0x4B24, symBinAddr: 0x314E0, symSize: 0x8C }
  - { offset: 0xFCF19, size: 0x8, addend: 0x0, symName: __RNvYNtNtCsATtFUPiRFW_3syn4item6ItemFnNtNtCs62MdaZFMefA_5quote9to_tokens8ToTokens17into_token_streamB6_, symObjAddr: 0x4BB0, symBinAddr: 0x3156C, symSize: 0x64 }
  - { offset: 0xFCF4F, size: 0x8, addend: 0x0, symName: __RNvYNtNtCsATtFUPiRFW_3syn4item7ItemModNtNtCs62MdaZFMefA_5quote9to_tokens8ToTokens15to_token_streamB6_, symObjAddr: 0x4CE0, symBinAddr: 0x3169C, symSize: 0x8C }
  - { offset: 0xFCF99, size: 0x8, addend: 0x0, symName: __RNvYNtNtCsATtFUPiRFW_3syn4item7ItemModNtNtCs62MdaZFMefA_5quote9to_tokens8ToTokens17into_token_streamB6_, symObjAddr: 0x4D6C, symBinAddr: 0x31728, symSize: 0x64 }
  - { offset: 0xFCFCF, size: 0x8, addend: 0x0, symName: __RNvYNtNtCsATtFUPiRFW_3syn4item7ItemUseNtNtCs62MdaZFMefA_5quote9to_tokens8ToTokens15to_token_streamB6_, symObjAddr: 0x4E94, symBinAddr: 0x31850, symSize: 0x8C }
  - { offset: 0xFD019, size: 0x8, addend: 0x0, symName: __RNvYNtNtCsATtFUPiRFW_3syn4item7ItemUseNtNtCs62MdaZFMefA_5quote9to_tokens8ToTokens17into_token_streamB6_, symObjAddr: 0x4F20, symBinAddr: 0x318DC, symSize: 0x64 }
  - { offset: 0xFD04F, size: 0x8, addend: 0x0, symName: __RNvYNtNtCsATtFUPiRFW_3syn4item7UseGlobNtNtCs62MdaZFMefA_5quote9to_tokens8ToTokens15to_token_streamB6_, symObjAddr: 0x5048, symBinAddr: 0x31A04, symSize: 0x8C }
  - { offset: 0xFD099, size: 0x8, addend: 0x0, symName: __RNvYNtNtCsATtFUPiRFW_3syn4item7UseGlobNtNtCs62MdaZFMefA_5quote9to_tokens8ToTokens17into_token_streamB6_, symObjAddr: 0x50D4, symBinAddr: 0x31A90, symSize: 0x58 }
  - { offset: 0xFD0CE, size: 0x8, addend: 0x0, symName: __RNvYNtNtCsATtFUPiRFW_3syn4item7UseNameNtNtCs62MdaZFMefA_5quote9to_tokens8ToTokens15to_token_streamB6_, symObjAddr: 0x51BC, symBinAddr: 0x31B78, symSize: 0x8C }
  - { offset: 0xFD118, size: 0x8, addend: 0x0, symName: __RNvYNtNtCsATtFUPiRFW_3syn4item7UseNameNtNtCs62MdaZFMefA_5quote9to_tokens8ToTokens17into_token_streamB6_, symObjAddr: 0x5248, symBinAddr: 0x31C04, symSize: 0x64 }
  - { offset: 0xFD14E, size: 0x8, addend: 0x0, symName: __RNvYNtNtCsATtFUPiRFW_3syn4item7UsePathNtNtCs62MdaZFMefA_5quote9to_tokens8ToTokens15to_token_streamB6_, symObjAddr: 0x5370, symBinAddr: 0x31D2C, symSize: 0x8C }
  - { offset: 0xFD198, size: 0x8, addend: 0x0, symName: __RNvYNtNtCsATtFUPiRFW_3syn4item7UsePathNtNtCs62MdaZFMefA_5quote9to_tokens8ToTokens17into_token_streamB6_, symObjAddr: 0x53FC, symBinAddr: 0x31DB8, symSize: 0x64 }
  - { offset: 0xFD1CE, size: 0x8, addend: 0x0, symName: __RNvYNtNtCsATtFUPiRFW_3syn4item7UseTreeNtNtCs62MdaZFMefA_5quote9to_tokens8ToTokens15to_token_streamB6_, symObjAddr: 0x5524, symBinAddr: 0x31EE0, symSize: 0x8C }
  - { offset: 0xFD218, size: 0x8, addend: 0x0, symName: __RNvYNtNtCsATtFUPiRFW_3syn4item7UseTreeNtNtCs62MdaZFMefA_5quote9to_tokens8ToTokens17into_token_streamB6_, symObjAddr: 0x55B0, symBinAddr: 0x31F6C, symSize: 0x64 }
  - { offset: 0xFD24E, size: 0x8, addend: 0x0, symName: __RNvYNtNtCsATtFUPiRFW_3syn4item8ImplItemNtNtCs62MdaZFMefA_5quote9to_tokens8ToTokens15to_token_streamB6_, symObjAddr: 0x56D8, symBinAddr: 0x32094, symSize: 0x8C }
  - { offset: 0xFD298, size: 0x8, addend: 0x0, symName: __RNvYNtNtCsATtFUPiRFW_3syn4item8ImplItemNtNtCs62MdaZFMefA_5quote9to_tokens8ToTokens17into_token_streamB6_, symObjAddr: 0x5764, symBinAddr: 0x32120, symSize: 0x64 }
  - { offset: 0xFD2CE, size: 0x8, addend: 0x0, symName: __RNvYNtNtCsATtFUPiRFW_3syn4item8ItemEnumNtNtCs62MdaZFMefA_5quote9to_tokens8ToTokens15to_token_streamB6_, symObjAddr: 0x5894, symBinAddr: 0x32250, symSize: 0x8C }
  - { offset: 0xFD318, size: 0x8, addend: 0x0, symName: __RNvYNtNtCsATtFUPiRFW_3syn4item8ItemEnumNtNtCs62MdaZFMefA_5quote9to_tokens8ToTokens17into_token_streamB6_, symObjAddr: 0x5920, symBinAddr: 0x322DC, symSize: 0x64 }
  - { offset: 0xFD34E, size: 0x8, addend: 0x0, symName: __RNvYNtNtCsATtFUPiRFW_3syn4item8ItemImplNtNtCs62MdaZFMefA_5quote9to_tokens8ToTokens15to_token_streamB6_, symObjAddr: 0x5A50, symBinAddr: 0x3240C, symSize: 0x8C }
  - { offset: 0xFD398, size: 0x8, addend: 0x0, symName: __RNvYNtNtCsATtFUPiRFW_3syn4item8ItemImplNtNtCs62MdaZFMefA_5quote9to_tokens8ToTokens17into_token_streamB6_, symObjAddr: 0x5ADC, symBinAddr: 0x32498, symSize: 0x64 }
  - { offset: 0xFD3CE, size: 0x8, addend: 0x0, symName: __RNvYNtNtCsATtFUPiRFW_3syn4item8ItemTypeNtNtCs62MdaZFMefA_5quote9to_tokens8ToTokens15to_token_streamB6_, symObjAddr: 0x5C0C, symBinAddr: 0x325C8, symSize: 0x8C }
  - { offset: 0xFD418, size: 0x8, addend: 0x0, symName: __RNvYNtNtCsATtFUPiRFW_3syn4item8ItemTypeNtNtCs62MdaZFMefA_5quote9to_tokens8ToTokens17into_token_streamB6_, symObjAddr: 0x5C98, symBinAddr: 0x32654, symSize: 0x64 }
  - { offset: 0xFD44E, size: 0x8, addend: 0x0, symName: __RNvYNtNtCsATtFUPiRFW_3syn4item8ReceiverNtNtCs62MdaZFMefA_5quote9to_tokens8ToTokens15to_token_streamB6_, symObjAddr: 0x5DC8, symBinAddr: 0x32784, symSize: 0x8C }
  - { offset: 0xFD498, size: 0x8, addend: 0x0, symName: __RNvYNtNtCsATtFUPiRFW_3syn4item8ReceiverNtNtCs62MdaZFMefA_5quote9to_tokens8ToTokens17into_token_streamB6_, symObjAddr: 0x5E54, symBinAddr: 0x32810, symSize: 0x64 }
  - { offset: 0xFD4CE, size: 0x8, addend: 0x0, symName: __RNvYNtNtCsATtFUPiRFW_3syn4item8UseGroupNtNtCs62MdaZFMefA_5quote9to_tokens8ToTokens15to_token_streamB6_, symObjAddr: 0x5F7C, symBinAddr: 0x32938, symSize: 0x8C }
  - { offset: 0xFD518, size: 0x8, addend: 0x0, symName: __RNvYNtNtCsATtFUPiRFW_3syn4item8UseGroupNtNtCs62MdaZFMefA_5quote9to_tokens8ToTokens17into_token_streamB6_, symObjAddr: 0x6008, symBinAddr: 0x329C4, symSize: 0x64 }
  - { offset: 0xFD54E, size: 0x8, addend: 0x0, symName: __RNvYNtNtCsATtFUPiRFW_3syn4item8VariadicNtNtCs62MdaZFMefA_5quote9to_tokens8ToTokens15to_token_streamB6_, symObjAddr: 0x6130, symBinAddr: 0x32AEC, symSize: 0x8C }
  - { offset: 0xFD598, size: 0x8, addend: 0x0, symName: __RNvYNtNtCsATtFUPiRFW_3syn4item8VariadicNtNtCs62MdaZFMefA_5quote9to_tokens8ToTokens17into_token_streamB6_, symObjAddr: 0x61BC, symBinAddr: 0x32B78, symSize: 0x64 }
  - { offset: 0xFD5CE, size: 0x8, addend: 0x0, symName: __RNvYNtNtCsATtFUPiRFW_3syn4item9ItemConstNtNtCs62MdaZFMefA_5quote9to_tokens8ToTokens15to_token_streamB6_, symObjAddr: 0x62E4, symBinAddr: 0x32CA0, symSize: 0x8C }
  - { offset: 0xFD618, size: 0x8, addend: 0x0, symName: __RNvYNtNtCsATtFUPiRFW_3syn4item9ItemConstNtNtCs62MdaZFMefA_5quote9to_tokens8ToTokens17into_token_streamB6_, symObjAddr: 0x6370, symBinAddr: 0x32D2C, symSize: 0x64 }
  - { offset: 0xFD64E, size: 0x8, addend: 0x0, symName: __RNvYNtNtCsATtFUPiRFW_3syn4item9ItemMacroNtNtCs62MdaZFMefA_5quote9to_tokens8ToTokens15to_token_streamB6_, symObjAddr: 0x64A0, symBinAddr: 0x32E5C, symSize: 0x8C }
  - { offset: 0xFD698, size: 0x8, addend: 0x0, symName: __RNvYNtNtCsATtFUPiRFW_3syn4item9ItemMacroNtNtCs62MdaZFMefA_5quote9to_tokens8ToTokens17into_token_streamB6_, symObjAddr: 0x652C, symBinAddr: 0x32EE8, symSize: 0x64 }
  - { offset: 0xFD6CE, size: 0x8, addend: 0x0, symName: __RNvYNtNtCsATtFUPiRFW_3syn4item9ItemTraitNtNtCs62MdaZFMefA_5quote9to_tokens8ToTokens15to_token_streamB6_, symObjAddr: 0x6654, symBinAddr: 0x33010, symSize: 0x8C }
  - { offset: 0xFD718, size: 0x8, addend: 0x0, symName: __RNvYNtNtCsATtFUPiRFW_3syn4item9ItemTraitNtNtCs62MdaZFMefA_5quote9to_tokens8ToTokens17into_token_streamB6_, symObjAddr: 0x66E0, symBinAddr: 0x3309C, symSize: 0x64 }
  - { offset: 0xFD74E, size: 0x8, addend: 0x0, symName: __RNvYNtNtCsATtFUPiRFW_3syn4item9ItemUnionNtNtCs62MdaZFMefA_5quote9to_tokens8ToTokens15to_token_streamB6_, symObjAddr: 0x6810, symBinAddr: 0x331CC, symSize: 0x8C }
  - { offset: 0xFD798, size: 0x8, addend: 0x0, symName: __RNvYNtNtCsATtFUPiRFW_3syn4item9ItemUnionNtNtCs62MdaZFMefA_5quote9to_tokens8ToTokens17into_token_streamB6_, symObjAddr: 0x689C, symBinAddr: 0x33258, symSize: 0x64 }
  - { offset: 0xFD7CE, size: 0x8, addend: 0x0, symName: __RNvYNtNtCsATtFUPiRFW_3syn4item9SignatureNtNtCs62MdaZFMefA_5quote9to_tokens8ToTokens15to_token_streamB6_, symObjAddr: 0x69CC, symBinAddr: 0x33388, symSize: 0x8C }
  - { offset: 0xFD818, size: 0x8, addend: 0x0, symName: __RNvYNtNtCsATtFUPiRFW_3syn4item9SignatureNtNtCs62MdaZFMefA_5quote9to_tokens8ToTokens17into_token_streamB6_, symObjAddr: 0x6A58, symBinAddr: 0x33414, symSize: 0x64 }
  - { offset: 0xFD84E, size: 0x8, addend: 0x0, symName: __RNvYNtNtCsATtFUPiRFW_3syn4item9TraitItemNtNtCs62MdaZFMefA_5quote9to_tokens8ToTokens15to_token_streamB6_, symObjAddr: 0x6B88, symBinAddr: 0x33544, symSize: 0x8C }
  - { offset: 0xFD898, size: 0x8, addend: 0x0, symName: __RNvYNtNtCsATtFUPiRFW_3syn4item9TraitItemNtNtCs62MdaZFMefA_5quote9to_tokens8ToTokens17into_token_streamB6_, symObjAddr: 0x6C14, symBinAddr: 0x335D0, symSize: 0x64 }
  - { offset: 0xFD8CE, size: 0x8, addend: 0x0, symName: __RNvYNtNtCsATtFUPiRFW_3syn4item9UseRenameNtNtCs62MdaZFMefA_5quote9to_tokens8ToTokens15to_token_streamB6_, symObjAddr: 0x6D44, symBinAddr: 0x33700, symSize: 0x8C }
  - { offset: 0xFD918, size: 0x8, addend: 0x0, symName: __RNvYNtNtCsATtFUPiRFW_3syn4item9UseRenameNtNtCs62MdaZFMefA_5quote9to_tokens8ToTokens17into_token_streamB6_, symObjAddr: 0x6DD0, symBinAddr: 0x3378C, symSize: 0x64 }
  - { offset: 0xFDB9D, size: 0x8, addend: 0x0, symName: __RNvMNtCsATtFUPiRFW_3syn4itemNtB2_4Item13replace_attrs, symObjAddr: 0x6EF8, symBinAddr: 0x338B4, symSize: 0x328 }
  - { offset: 0xFDC00, size: 0x8, addend: 0x0, symName: __RNvMs3_NtCsATtFUPiRFW_3syn4itemNtB5_9Signature8receiver, symObjAddr: 0x764C, symBinAddr: 0x34008, symSize: 0xE8 }
  - { offset: 0xFDC81, size: 0x8, addend: 0x0, symName: __RNvMs4_NtCsATtFUPiRFW_3syn4itemNtB5_8Receiver8lifetime, symObjAddr: 0x7734, symBinAddr: 0x340F0, symSize: 0x90 }
  - { offset: 0xFDDA3, size: 0x8, addend: 0x0, symName: __RNvMs1Q_NtNtCsATtFUPiRFW_3syn3gen5debugNtNtBa_4item13ForeignItemFn5debug, symObjAddr: 0x1FC2C, symBinAddr: 0x4C5E8, symSize: 0x104 }
  - { offset: 0xFDE0F, size: 0x8, addend: 0x0, symName: __RNvMs1S_NtNtCsATtFUPiRFW_3syn3gen5debugNtNtBa_4item16ForeignItemMacro5debug, symObjAddr: 0x1FD7C, symBinAddr: 0x4C738, symSize: 0xDC }
  - { offset: 0xFDE7B, size: 0x8, addend: 0x0, symName: __RNvMs1U_NtNtCsATtFUPiRFW_3syn3gen5debugNtNtBa_4item17ForeignItemStatic5debug, symObjAddr: 0x1FEA4, symBinAddr: 0x4C860, symSize: 0x1A4 }
  - { offset: 0xFDEE7, size: 0x8, addend: 0x0, symName: __RNvMs1W_NtNtCsATtFUPiRFW_3syn3gen5debugNtNtBa_4item15ForeignItemType5debug, symObjAddr: 0x20094, symBinAddr: 0x4CA50, symSize: 0x154 }
  - { offset: 0xFDF53, size: 0x8, addend: 0x0, symName: __RNvMs22_NtNtCsATtFUPiRFW_3syn3gen5debugNtNtBa_4item13ImplItemConst5debug, symObjAddr: 0x2049C, symBinAddr: 0x4CE58, symSize: 0x218 }
  - { offset: 0xFDFBF, size: 0x8, addend: 0x0, symName: __RNvMs24_NtNtCsATtFUPiRFW_3syn3gen5debugNtNtBa_4item10ImplItemFn5debug, symObjAddr: 0x20700, symBinAddr: 0x4D0BC, symSize: 0x12C }
  - { offset: 0xFE02B, size: 0x8, addend: 0x0, symName: __RNvMs26_NtNtCsATtFUPiRFW_3syn3gen5debugNtNtBa_4item13ImplItemMacro5debug, symObjAddr: 0x20878, symBinAddr: 0x4D234, symSize: 0xDC }
  - { offset: 0xFE097, size: 0x8, addend: 0x0, symName: __RNvMs28_NtNtCsATtFUPiRFW_3syn3gen5debugNtNtBa_4item12ImplItemType5debug, symObjAddr: 0x209A0, symBinAddr: 0x4D35C, symSize: 0x1CC }
  - { offset: 0xFE103, size: 0x8, addend: 0x0, symName: __RNvMs2d_NtNtCsATtFUPiRFW_3syn3gen5debugNtNtBa_4item9ItemConst5debug, symObjAddr: 0x21128, symBinAddr: 0x4DAE4, symSize: 0x1F4 }
  - { offset: 0xFE16F, size: 0x8, addend: 0x0, symName: __RNvMs2f_NtNtCsATtFUPiRFW_3syn3gen5debugNtNtBa_4item8ItemEnum5debug, symObjAddr: 0x21368, symBinAddr: 0x4DD24, symSize: 0x17C }
  - { offset: 0xFE1DB, size: 0x8, addend: 0x0, symName: __RNvMs2h_NtNtCsATtFUPiRFW_3syn3gen5debugNtNtBa_4item15ItemExternCrate5debug, symObjAddr: 0x21530, symBinAddr: 0x4DEEC, symSize: 0x17C }
  - { offset: 0xFE247, size: 0x8, addend: 0x0, symName: __RNvMs2j_NtNtCsATtFUPiRFW_3syn3gen5debugNtNtBa_4item6ItemFn5debug, symObjAddr: 0x216F8, symBinAddr: 0x4E0B4, symSize: 0x104 }
  - { offset: 0xFE2B3, size: 0x8, addend: 0x0, symName: __RNvMs2l_NtNtCsATtFUPiRFW_3syn3gen5debugNtNtBa_4item14ItemForeignMod5debug, symObjAddr: 0x21848, symBinAddr: 0x4E204, symSize: 0x12C }
  - { offset: 0xFE31F, size: 0x8, addend: 0x0, symName: __RNvMs2n_NtNtCsATtFUPiRFW_3syn3gen5debugNtNtBa_4item8ItemImpl5debug, symObjAddr: 0x219C0, symBinAddr: 0x4E37C, symSize: 0x1CC }
  - { offset: 0xFE38B, size: 0x8, addend: 0x0, symName: __RNvMs2p_NtNtCsATtFUPiRFW_3syn3gen5debugNtNtBa_4item9ItemMacro5debug, symObjAddr: 0x21BD8, symBinAddr: 0x4E594, symSize: 0x104 }
  - { offset: 0xFE3F7, size: 0x8, addend: 0x0, symName: __RNvMs2r_NtNtCsATtFUPiRFW_3syn3gen5debugNtNtBa_4item7ItemMod5debug, symObjAddr: 0x21D28, symBinAddr: 0x4E6E4, symSize: 0x17C }
  - { offset: 0xFE463, size: 0x8, addend: 0x0, symName: __RNvMs2t_NtNtCsATtFUPiRFW_3syn3gen5debugNtNtBa_4item10ItemStatic5debug, symObjAddr: 0x21EF0, symBinAddr: 0x4E8AC, symSize: 0x1F4 }
  - { offset: 0xFE4CF, size: 0x8, addend: 0x0, symName: __RNvMs2v_NtNtCsATtFUPiRFW_3syn3gen5debugNtNtBa_4item10ItemStruct5debug, symObjAddr: 0x22130, symBinAddr: 0x4EAEC, symSize: 0x17C }
  - { offset: 0xFE53B, size: 0x8, addend: 0x0, symName: __RNvMs2x_NtNtCsATtFUPiRFW_3syn3gen5debugNtNtBa_4item9ItemTrait5debug, symObjAddr: 0x222F8, symBinAddr: 0x4ECB4, symSize: 0x234 }
  - { offset: 0xFE5A7, size: 0x8, addend: 0x0, symName: __RNvMs2z_NtNtCsATtFUPiRFW_3syn3gen5debugNtNtBa_4item14ItemTraitAlias5debug, symObjAddr: 0x22578, symBinAddr: 0x4EF34, symSize: 0x1A4 }
  - { offset: 0xFE613, size: 0x8, addend: 0x0, symName: __RNvMs2B_NtNtCsATtFUPiRFW_3syn3gen5debugNtNtBa_4item8ItemType5debug, symObjAddr: 0x22768, symBinAddr: 0x4F124, symSize: 0x1A4 }
  - { offset: 0xFE67F, size: 0x8, addend: 0x0, symName: __RNvMs2D_NtNtCsATtFUPiRFW_3syn3gen5debugNtNtBa_4item9ItemUnion5debug, symObjAddr: 0x22958, symBinAddr: 0x4F314, symSize: 0x154 }
  - { offset: 0xFE6EB, size: 0x8, addend: 0x0, symName: __RNvMs2F_NtNtCsATtFUPiRFW_3syn3gen5debugNtNtBa_4item7ItemUse5debug, symObjAddr: 0x22AF8, symBinAddr: 0x4F4B4, symSize: 0x154 }
  - { offset: 0xFE757, size: 0x8, addend: 0x0, symName: __RNvMs3G_NtNtCsATtFUPiRFW_3syn3gen5debugNtNtBa_4item14TraitItemConst5debug, symObjAddr: 0x233A4, symBinAddr: 0x4FD60, symSize: 0x1A4 }
  - { offset: 0xFE7C3, size: 0x8, addend: 0x0, symName: __RNvMs3I_NtNtCsATtFUPiRFW_3syn3gen5debugNtNtBa_4item11TraitItemFn5debug, symObjAddr: 0x23594, symBinAddr: 0x4FF50, symSize: 0x104 }
  - { offset: 0xFE82F, size: 0x8, addend: 0x0, symName: __RNvMs3K_NtNtCsATtFUPiRFW_3syn3gen5debugNtNtBa_4item14TraitItemMacro5debug, symObjAddr: 0x236E4, symBinAddr: 0x500A0, symSize: 0xDC }
  - { offset: 0xFE89B, size: 0x8, addend: 0x0, symName: __RNvMs3M_NtNtCsATtFUPiRFW_3syn3gen5debugNtNtBa_4item13TraitItemType5debug, symObjAddr: 0x2380C, symBinAddr: 0x501C8, symSize: 0x1A4 }
  - { offset: 0xFF04F, size: 0x8, addend: 0x0, symName: __RINvXNtNtCsdze8u8oDPro_5alloc5slice4hackNtNtCsATtFUPiRFW_3syn4expr3ArmNtB3_10ConvertVec6to_vecNtNtB7_5alloc6GlobalEBG_, symObjAddr: 0x0, symBinAddr: 0x54A84, symSize: 0x2C0 }
  - { offset: 0x100043, size: 0x8, addend: 0x0, symName: __RINvXNtNtCsdze8u8oDPro_5alloc5slice4hackNtNtCsATtFUPiRFW_3syn4expr3ArmNtB3_10ConvertVec6to_vecNtNtB7_5alloc6GlobalEBG_, symObjAddr: 0x0, symBinAddr: 0x54A84, symSize: 0x2C0 }
  - { offset: 0x100393, size: 0x8, addend: 0x0, symName: __RINvXNtNtCsdze8u8oDPro_5alloc5slice4hackTNtNtCsATtFUPiRFW_3syn4expr10FieldValueNtNtBH_5token5CommaENtB3_10ConvertVec6to_vecNtNtB7_5alloc6GlobalEBH_, symObjAddr: 0x2C0, symBinAddr: 0x54D44, symSize: 0x2C0 }
  - { offset: 0x1006E3, size: 0x8, addend: 0x0, symName: __RINvXNtNtCsdze8u8oDPro_5alloc5slice4hackTNtNtCsATtFUPiRFW_3syn4expr4ExprNtNtBH_5token5CommaENtB3_10ConvertVec6to_vecNtNtB7_5alloc6GlobalEBH_, symObjAddr: 0x580, symBinAddr: 0x55004, symSize: 0x2BC }
  - { offset: 0x1035AA, size: 0x8, addend: 0x0, symName: __RNvXs_NtCsATtFUPiRFW_3syn4exprNtB4_6MemberINtNtCs9f3LFPSIp77_4core7convert4FromNtCs475r2uZUTuc_11proc_macro25IdentE4from, symObjAddr: 0x72C4, symBinAddr: 0x5BD48, symSize: 0x28 }
  - { offset: 0x1035DE, size: 0x8, addend: 0x0, symName: __RNvXs0_NtCsATtFUPiRFW_3syn4exprNtB5_6MemberINtNtCs9f3LFPSIp77_4core7convert4FromNtB5_5IndexE4from, symObjAddr: 0x72EC, symBinAddr: 0x5BD70, symSize: 0x38 }
  - { offset: 0x103612, size: 0x8, addend: 0x0, symName: __RNvXs1_NtCsATtFUPiRFW_3syn4exprNtB5_6MemberINtNtCs9f3LFPSIp77_4core7convert4FromjE4from, symObjAddr: 0x7324, symBinAddr: 0x5BDA8, symSize: 0x48 }
  - { offset: 0x103646, size: 0x8, addend: 0x0, symName: __RNvXs3_NtCsATtFUPiRFW_3syn4exprNtB5_6MemberNtNtCs9f3LFPSIp77_4core3cmp9PartialEq2eq, symObjAddr: 0x736C, symBinAddr: 0x5BDF0, symSize: 0x15C }
  - { offset: 0x1036E5, size: 0x8, addend: 0x0, symName: __RNvXs5_NtCsATtFUPiRFW_3syn4exprNtB5_6MemberNtNtCs62MdaZFMefA_5quote14ident_fragment13IdentFragment3fmt, symObjAddr: 0x74C8, symBinAddr: 0x5BF4C, symSize: 0xA8 }
  - { offset: 0x103756, size: 0x8, addend: 0x0, symName: __RNvXs5_NtCsATtFUPiRFW_3syn4exprNtB5_6MemberNtNtCs62MdaZFMefA_5quote14ident_fragment13IdentFragment4span, symObjAddr: 0x7570, symBinAddr: 0x5BFF4, symSize: 0xA8 }
  - { offset: 0x1037C6, size: 0x8, addend: 0x0, symName: __RNvXs7_NtCsATtFUPiRFW_3syn4exprNtB5_5IndexINtNtCs9f3LFPSIp77_4core7convert4FromjE4from, symObjAddr: 0x7684, symBinAddr: 0x5C108, symSize: 0x84 }
  - { offset: 0x1037FA, size: 0x8, addend: 0x0, symName: __RNvXs9_NtCsATtFUPiRFW_3syn4exprNtB5_5IndexNtNtCs9f3LFPSIp77_4core3cmp9PartialEq2eq, symObjAddr: 0x7708, symBinAddr: 0x5C18C, symSize: 0x3C }
  - { offset: 0x10383D, size: 0x8, addend: 0x0, symName: __RNvXsb_NtCsATtFUPiRFW_3syn4exprNtB5_5IndexNtNtCs62MdaZFMefA_5quote14ident_fragment13IdentFragment3fmt, symObjAddr: 0x7744, symBinAddr: 0x5C1C8, symSize: 0x3C }
  - { offset: 0x10387A, size: 0x8, addend: 0x0, symName: __RNvXsb_NtCsATtFUPiRFW_3syn4exprNtB5_5IndexNtNtCs62MdaZFMefA_5quote14ident_fragment13IdentFragment4span, symObjAddr: 0x7780, symBinAddr: 0x5C204, symSize: 0x3C }
  - { offset: 0x1038B3, size: 0x8, addend: 0x0, symName: __RNvXNtNtCsATtFUPiRFW_3syn4expr7parsingNtB4_4ExprNtNtB6_5parse5Parse5parse, symObjAddr: 0x77BC, symBinAddr: 0x5C240, symSize: 0x3C }
  - { offset: 0x1038E7, size: 0x8, addend: 0x0, symName: __RNvXs1_NtNtCsATtFUPiRFW_3syn4expr7parsingNtB7_9ExprMacroNtNtB9_5parse5Parse5parse, symObjAddr: 0x77F8, symBinAddr: 0x5C27C, symSize: 0x16C }
  - { offset: 0x10393A, size: 0x8, addend: 0x0, symName: __RNvXs2_NtNtCsATtFUPiRFW_3syn4expr7parsingNtB7_9ExprArrayNtNtB9_5parse5Parse5parse, symObjAddr: 0x7964, symBinAddr: 0x5C3E8, symSize: 0x488 }
  - { offset: 0x103A6B, size: 0x8, addend: 0x0, symName: __RNvXs3_NtNtCsATtFUPiRFW_3syn4expr7parsingNtB7_10ExprRepeatNtNtB9_5parse5Parse5parse, symObjAddr: 0x7DEC, symBinAddr: 0x5C870, symSize: 0x48C }
  - { offset: 0x103B66, size: 0x8, addend: 0x0, symName: __RNvXs4_NtNtCsATtFUPiRFW_3syn4expr7parsingNtB7_7ExprLitNtNtB9_5parse5Parse5parse, symObjAddr: 0x8278, symBinAddr: 0x5CCFC, symSize: 0x14C }
  - { offset: 0x103BB9, size: 0x8, addend: 0x0, symName: __RNvXs5_NtNtCsATtFUPiRFW_3syn4expr7parsingNtB7_9ExprParenNtNtB9_5parse5Parse5parse, symObjAddr: 0x83C4, symBinAddr: 0x5CE48, symSize: 0x2B4 }
  - { offset: 0x103C56, size: 0x8, addend: 0x0, symName: __RNvXs6_NtNtCsATtFUPiRFW_3syn4expr7parsingNtB7_7ExprLetNtNtB9_5parse5Parse5parse, symObjAddr: 0x8678, symBinAddr: 0x5D0FC, symSize: 0x44 }
  - { offset: 0x103C9F, size: 0x8, addend: 0x0, symName: __RNvXs7_NtNtCsATtFUPiRFW_3syn4expr7parsingNtB7_6ExprIfNtNtB9_5parse5Parse5parse, symObjAddr: 0x86BC, symBinAddr: 0x5D140, symSize: 0x1018 }
  - { offset: 0x103F14, size: 0x8, addend: 0x0, symName: __RNvXs8_NtNtCsATtFUPiRFW_3syn4expr7parsingNtB7_9ExprInferNtNtB9_5parse5Parse5parse, symObjAddr: 0x96D4, symBinAddr: 0x5E158, symSize: 0x1E0 }
  - { offset: 0x103FA5, size: 0x8, addend: 0x0, symName: __RNvXs9_NtNtCsATtFUPiRFW_3syn4expr7parsingNtB7_11ExprForLoopNtNtB9_5parse5Parse5parse, symObjAddr: 0x98B4, symBinAddr: 0x5E338, symSize: 0x9B8 }
  - { offset: 0x104271, size: 0x8, addend: 0x0, symName: __RNvXsa_NtNtCsATtFUPiRFW_3syn4expr7parsingNtB7_8ExprLoopNtNtB9_5parse5Parse5parse, symObjAddr: 0xA26C, symBinAddr: 0x5ECF0, symSize: 0x5A4 }
  - { offset: 0x104422, size: 0x8, addend: 0x0, symName: __RNvXsb_NtNtCsATtFUPiRFW_3syn4expr7parsingNtB7_9ExprMatchNtNtB9_5parse5Parse5parse, symObjAddr: 0xA810, symBinAddr: 0x5F294, symSize: 0x620 }
  - { offset: 0x104609, size: 0x8, addend: 0x0, symName: __RNvXsc_NtNtCsATtFUPiRFW_3syn4expr7parsingNtB7_9ExprUnaryNtNtB9_5parse5Parse5parse, symObjAddr: 0xAE30, symBinAddr: 0x5F8B4, symSize: 0x60 }
  - { offset: 0x104678, size: 0x8, addend: 0x0, symName: __RNvXsd_NtNtCsATtFUPiRFW_3syn4expr7parsingNtB7_11ExprClosureNtNtB9_5parse5Parse5parse, symObjAddr: 0xAE90, symBinAddr: 0x5F914, symSize: 0x44 }
  - { offset: 0x1046C1, size: 0x8, addend: 0x0, symName: __RNvXse_NtNtCsATtFUPiRFW_3syn4expr7parsingNtB7_11ExprRawAddrNtNtB9_5parse5Parse5parse, symObjAddr: 0xAED4, symBinAddr: 0x5F958, symSize: 0x40C }
  - { offset: 0x1047A7, size: 0x8, addend: 0x0, symName: __RNvXsf_NtNtCsATtFUPiRFW_3syn4expr7parsingNtB7_13ExprReferenceNtNtB9_5parse5Parse5parse, symObjAddr: 0xB2E0, symBinAddr: 0x5FD64, symSize: 0x35C }
  - { offset: 0x10486D, size: 0x8, addend: 0x0, symName: __RNvXsg_NtNtCsATtFUPiRFW_3syn4expr7parsingNtB7_9ExprBreakNtNtB9_5parse5Parse5parse, symObjAddr: 0xB63C, symBinAddr: 0x600C0, symSize: 0x44 }
  - { offset: 0x1048B6, size: 0x8, addend: 0x0, symName: __RNvXsh_NtNtCsATtFUPiRFW_3syn4expr7parsingNtB7_10ExprReturnNtNtB9_5parse5Parse5parse, symObjAddr: 0xB680, symBinAddr: 0x60104, symSize: 0x224 }
  - { offset: 0x104918, size: 0x8, addend: 0x0, symName: __RNvXsi_NtNtCsATtFUPiRFW_3syn4expr7parsingNtB7_12ExprTryBlockNtNtB9_5parse5Parse5parse, symObjAddr: 0xB8A4, symBinAddr: 0x60328, symSize: 0x230 }
  - { offset: 0x10498A, size: 0x8, addend: 0x0, symName: __RNvXsj_NtNtCsATtFUPiRFW_3syn4expr7parsingNtB7_9ExprYieldNtNtB9_5parse5Parse5parse, symObjAddr: 0xBAD4, symBinAddr: 0x60558, symSize: 0x224 }
  - { offset: 0x1049EC, size: 0x8, addend: 0x0, symName: __RNvXsk_NtNtCsATtFUPiRFW_3syn4expr7parsingNtB7_9ExprAsyncNtNtB9_5parse5Parse5parse, symObjAddr: 0xBCF8, symBinAddr: 0x6077C, symSize: 0x2F4 }
  - { offset: 0x104A7D, size: 0x8, addend: 0x0, symName: __RNvXsl_NtNtCsATtFUPiRFW_3syn4expr7parsingNtB7_9ExprWhileNtNtB9_5parse5Parse5parse, symObjAddr: 0xBFEC, symBinAddr: 0x60A70, symSize: 0x774 }
  - { offset: 0x104CB1, size: 0x8, addend: 0x0, symName: __RNvXsm_NtNtCsATtFUPiRFW_3syn4expr7parsingNtB7_9ExprConstNtNtB9_5parse5Parse5parse, symObjAddr: 0xC760, symBinAddr: 0x611E4, symSize: 0x3C8 }
  - { offset: 0x104E05, size: 0x8, addend: 0x0, symName: __RNvXsn_NtNtCsATtFUPiRFW_3syn4expr7parsingNtB7_5LabelNtNtB9_5parse5Parse5parse, symObjAddr: 0xCB28, symBinAddr: 0x615AC, symSize: 0x1E4 }
  - { offset: 0x104E96, size: 0x8, addend: 0x0, symName: __RNvXsp_NtNtCsATtFUPiRFW_3syn4expr7parsingNtB7_12ExprContinueNtNtB9_5parse5Parse5parse, symObjAddr: 0xCD0C, symBinAddr: 0x61790, symSize: 0x210 }
  - { offset: 0x104F08, size: 0x8, addend: 0x0, symName: __RNvXsq_NtNtCsATtFUPiRFW_3syn4expr7parsingNtB7_10FieldValueNtNtB9_5parse5Parse5parse, symObjAddr: 0xCF1C, symBinAddr: 0x619A0, symSize: 0x56C }
  - { offset: 0x1050A5, size: 0x8, addend: 0x0, symName: __RNvXsr_NtNtCsATtFUPiRFW_3syn4expr7parsingNtB7_10ExprStructNtNtB9_5parse5Parse5parse, symObjAddr: 0xD488, symBinAddr: 0x61F0C, symSize: 0x1C0 }
  - { offset: 0x10513D, size: 0x8, addend: 0x0, symName: __RNvXss_NtNtCsATtFUPiRFW_3syn4expr7parsingNtB7_10ExprUnsafeNtNtB9_5parse5Parse5parse, symObjAddr: 0xD648, symBinAddr: 0x620CC, symSize: 0x3C8 }
  - { offset: 0x105291, size: 0x8, addend: 0x0, symName: __RNvXst_NtNtCsATtFUPiRFW_3syn4expr7parsingNtB7_9ExprBlockNtNtB9_5parse5Parse5parse, symObjAddr: 0xDA10, symBinAddr: 0x62494, symSize: 0x510 }
  - { offset: 0x105416, size: 0x8, addend: 0x0, symName: __RNvXsu_NtNtCsATtFUPiRFW_3syn4expr7parsingNtB7_11RangeLimitsNtNtB9_5parse5Parse5parse, symObjAddr: 0xDF20, symBinAddr: 0x629A4, symSize: 0x24C }
  - { offset: 0x1054A1, size: 0x8, addend: 0x0, symName: __RNvXsw_NtNtCsATtFUPiRFW_3syn4expr7parsingNtB7_8ExprPathNtNtB9_5parse5Parse5parse, symObjAddr: 0xE4C0, symBinAddr: 0x62F44, symSize: 0x248 }
  - { offset: 0x10558E, size: 0x8, addend: 0x0, symName: __RNvXsx_NtNtCsATtFUPiRFW_3syn4expr7parsingNtB7_6MemberNtNtB9_5parse5Parse5parse, symObjAddr: 0xE708, symBinAddr: 0x6318C, symSize: 0x110 }
  - { offset: 0x1055C2, size: 0x8, addend: 0x0, symName: __RNvXsz_NtNtCsATtFUPiRFW_3syn4expr7parsingNtB7_3ArmNtNtB9_5parse5Parse5parse, symObjAddr: 0xE9E8, symBinAddr: 0x6346C, symSize: 0x91C }
  - { offset: 0x1057F7, size: 0x8, addend: 0x0, symName: __RNvXsA_NtNtCsATtFUPiRFW_3syn4expr7parsingNtB7_5IndexNtNtB9_5parse5Parse5parse, symObjAddr: 0xF304, symBinAddr: 0x63D88, symSize: 0x29C }
  - { offset: 0x10589F, size: 0x8, addend: 0x0, symName: __RNvXsB_NtNtCsATtFUPiRFW_3syn4expr7parsingNtB7_17PointerMutabilityNtNtB9_5parse5Parse5parse, symObjAddr: 0xF5A0, symBinAddr: 0x64024, symSize: 0x2DC }
  - { offset: 0x10591F, size: 0x8, addend: 0x0, symName: __RNvXsC_NtNtCsATtFUPiRFW_3syn4expr7parsingNtB7_10ExprAssignNtNtB9_5parse5Parse5parse, symObjAddr: 0x12638, symBinAddr: 0x670BC, symSize: 0x44C }
  - { offset: 0x1059DE, size: 0x8, addend: 0x0, symName: __RNvXsD_NtNtCsATtFUPiRFW_3syn4expr7parsingNtB7_9ExprAwaitNtNtB9_5parse5Parse5parse, symObjAddr: 0x12A84, symBinAddr: 0x67508, symSize: 0x44C }
  - { offset: 0x105A9D, size: 0x8, addend: 0x0, symName: __RNvXsE_NtNtCsATtFUPiRFW_3syn4expr7parsingNtB7_10ExprBinaryNtNtB9_5parse5Parse5parse, symObjAddr: 0x12ED0, symBinAddr: 0x67954, symSize: 0x44C }
  - { offset: 0x105B5C, size: 0x8, addend: 0x0, symName: __RNvXsF_NtNtCsATtFUPiRFW_3syn4expr7parsingNtB7_8ExprCallNtNtB9_5parse5Parse5parse, symObjAddr: 0x1331C, symBinAddr: 0x67DA0, symSize: 0x44C }
  - { offset: 0x105C1B, size: 0x8, addend: 0x0, symName: __RNvXsG_NtNtCsATtFUPiRFW_3syn4expr7parsingNtB7_8ExprCastNtNtB9_5parse5Parse5parse, symObjAddr: 0x13768, symBinAddr: 0x681EC, symSize: 0x44C }
  - { offset: 0x105CDA, size: 0x8, addend: 0x0, symName: __RNvXsH_NtNtCsATtFUPiRFW_3syn4expr7parsingNtB7_9ExprFieldNtNtB9_5parse5Parse5parse, symObjAddr: 0x13BB4, symBinAddr: 0x68638, symSize: 0x44C }
  - { offset: 0x105D99, size: 0x8, addend: 0x0, symName: __RNvXsI_NtNtCsATtFUPiRFW_3syn4expr7parsingNtB7_9ExprIndexNtNtB9_5parse5Parse5parse, symObjAddr: 0x14000, symBinAddr: 0x68A84, symSize: 0x44C }
  - { offset: 0x105E58, size: 0x8, addend: 0x0, symName: __RNvXsJ_NtNtCsATtFUPiRFW_3syn4expr7parsingNtB7_14ExprMethodCallNtNtB9_5parse5Parse5parse, symObjAddr: 0x1444C, symBinAddr: 0x68ED0, symSize: 0x44C }
  - { offset: 0x105F17, size: 0x8, addend: 0x0, symName: __RNvXsK_NtNtCsATtFUPiRFW_3syn4expr7parsingNtB7_9ExprRangeNtNtB9_5parse5Parse5parse, symObjAddr: 0x14898, symBinAddr: 0x6931C, symSize: 0x44C }
  - { offset: 0x105FD6, size: 0x8, addend: 0x0, symName: __RNvXsL_NtNtCsATtFUPiRFW_3syn4expr7parsingNtB7_7ExprTryNtNtB9_5parse5Parse5parse, symObjAddr: 0x14CE4, symBinAddr: 0x69768, symSize: 0x44C }
  - { offset: 0x106095, size: 0x8, addend: 0x0, symName: __RNvXsM_NtNtCsATtFUPiRFW_3syn4expr7parsingNtB7_9ExprTupleNtNtB9_5parse5Parse5parse, symObjAddr: 0x15130, symBinAddr: 0x69BB4, symSize: 0x44C }
  - { offset: 0x10616F, size: 0x8, addend: 0x0, symName: __RNvXNtNtCsATtFUPiRFW_3syn4expr8printingNtB4_9ExprArrayNtNtCs62MdaZFMefA_5quote9to_tokens8ToTokens9to_tokens, symObjAddr: 0xF87C, symBinAddr: 0x64300, symSize: 0x58 }
  - { offset: 0x1061AE, size: 0x8, addend: 0x0, symName: __RNvXs_NtNtCsATtFUPiRFW_3syn4expr8printingNtB6_10ExprAssignNtNtCs62MdaZFMefA_5quote9to_tokens8ToTokens9to_tokens, symObjAddr: 0xF8D4, symBinAddr: 0x64358, symSize: 0x58 }
  - { offset: 0x1061ED, size: 0x8, addend: 0x0, symName: __RNvXs0_NtNtCsATtFUPiRFW_3syn4expr8printingNtB7_9ExprAsyncNtNtCs62MdaZFMefA_5quote9to_tokens8ToTokens9to_tokens, symObjAddr: 0xF92C, symBinAddr: 0x643B0, symSize: 0x74 }
  - { offset: 0x10622C, size: 0x8, addend: 0x0, symName: __RNvXs1_NtNtCsATtFUPiRFW_3syn4expr8printingNtB7_9ExprAwaitNtNtCs62MdaZFMefA_5quote9to_tokens8ToTokens9to_tokens, symObjAddr: 0xF9A0, symBinAddr: 0x64424, symSize: 0x58 }
  - { offset: 0x10626B, size: 0x8, addend: 0x0, symName: __RNvXs2_NtNtCsATtFUPiRFW_3syn4expr8printingNtB7_10ExprBinaryNtNtCs62MdaZFMefA_5quote9to_tokens8ToTokens9to_tokens, symObjAddr: 0xF9F8, symBinAddr: 0x6447C, symSize: 0x58 }
  - { offset: 0x1062AA, size: 0x8, addend: 0x0, symName: __RNvXs3_NtNtCsATtFUPiRFW_3syn4expr8printingNtB7_9ExprBlockNtNtCs62MdaZFMefA_5quote9to_tokens8ToTokens9to_tokens, symObjAddr: 0xFA50, symBinAddr: 0x644D4, symSize: 0x68 }
  - { offset: 0x1062E9, size: 0x8, addend: 0x0, symName: __RNvXs4_NtNtCsATtFUPiRFW_3syn4expr8printingNtB7_9ExprBreakNtNtCs62MdaZFMefA_5quote9to_tokens8ToTokens9to_tokens, symObjAddr: 0xFAB8, symBinAddr: 0x6453C, symSize: 0x58 }
  - { offset: 0x106328, size: 0x8, addend: 0x0, symName: __RNvXs5_NtNtCsATtFUPiRFW_3syn4expr8printingNtB7_8ExprCallNtNtCs62MdaZFMefA_5quote9to_tokens8ToTokens9to_tokens, symObjAddr: 0xFB10, symBinAddr: 0x64594, symSize: 0x58 }
  - { offset: 0x106367, size: 0x8, addend: 0x0, symName: __RNvXs6_NtNtCsATtFUPiRFW_3syn4expr8printingNtB7_8ExprCastNtNtCs62MdaZFMefA_5quote9to_tokens8ToTokens9to_tokens, symObjAddr: 0xFB68, symBinAddr: 0x645EC, symSize: 0x58 }
  - { offset: 0x1063A6, size: 0x8, addend: 0x0, symName: __RNvXs7_NtNtCsATtFUPiRFW_3syn4expr8printingNtB7_11ExprClosureNtNtCs62MdaZFMefA_5quote9to_tokens8ToTokens9to_tokens, symObjAddr: 0xFBC0, symBinAddr: 0x64644, symSize: 0x58 }
  - { offset: 0x1063E5, size: 0x8, addend: 0x0, symName: __RNvXs8_NtNtCsATtFUPiRFW_3syn4expr8printingNtB7_9ExprConstNtNtCs62MdaZFMefA_5quote9to_tokens8ToTokens9to_tokens, symObjAddr: 0xFC18, symBinAddr: 0x6469C, symSize: 0x68 }
  - { offset: 0x106424, size: 0x8, addend: 0x0, symName: __RNvXs9_NtNtCsATtFUPiRFW_3syn4expr8printingNtB7_12ExprContinueNtNtCs62MdaZFMefA_5quote9to_tokens8ToTokens9to_tokens, symObjAddr: 0xFC80, symBinAddr: 0x64704, symSize: 0x64 }
  - { offset: 0x106463, size: 0x8, addend: 0x0, symName: __RNvXsa_NtNtCsATtFUPiRFW_3syn4expr8printingNtB7_9ExprFieldNtNtCs62MdaZFMefA_5quote9to_tokens8ToTokens9to_tokens, symObjAddr: 0xFCE4, symBinAddr: 0x64768, symSize: 0x58 }
  - { offset: 0x1064A2, size: 0x8, addend: 0x0, symName: __RNvXsb_NtNtCsATtFUPiRFW_3syn4expr8printingNtB7_11ExprForLoopNtNtCs62MdaZFMefA_5quote9to_tokens8ToTokens9to_tokens, symObjAddr: 0xFD3C, symBinAddr: 0x647C0, symSize: 0xC0 }
  - { offset: 0x1064E1, size: 0x8, addend: 0x0, symName: __RNvXsc_NtNtCsATtFUPiRFW_3syn4expr8printingNtB7_9ExprGroupNtNtCs62MdaZFMefA_5quote9to_tokens8ToTokens9to_tokens, symObjAddr: 0xFDFC, symBinAddr: 0x64880, symSize: 0x58 }
  - { offset: 0x106520, size: 0x8, addend: 0x0, symName: __RNvXsd_NtNtCsATtFUPiRFW_3syn4expr8printingNtB7_6ExprIfNtNtCs62MdaZFMefA_5quote9to_tokens8ToTokens9to_tokens, symObjAddr: 0xFE54, symBinAddr: 0x648D8, symSize: 0x1DC }
  - { offset: 0x1065F6, size: 0x8, addend: 0x0, symName: __RNvXse_NtNtCsATtFUPiRFW_3syn4expr8printingNtB7_9ExprIndexNtNtCs62MdaZFMefA_5quote9to_tokens8ToTokens9to_tokens, symObjAddr: 0x10030, symBinAddr: 0x64AB4, symSize: 0x58 }
  - { offset: 0x106635, size: 0x8, addend: 0x0, symName: __RNvXsf_NtNtCsATtFUPiRFW_3syn4expr8printingNtB7_9ExprInferNtNtCs62MdaZFMefA_5quote9to_tokens8ToTokens9to_tokens, symObjAddr: 0x10088, symBinAddr: 0x64B0C, symSize: 0x54 }
  - { offset: 0x106674, size: 0x8, addend: 0x0, symName: __RNvXsg_NtNtCsATtFUPiRFW_3syn4expr8printingNtB7_7ExprLetNtNtCs62MdaZFMefA_5quote9to_tokens8ToTokens9to_tokens, symObjAddr: 0x100DC, symBinAddr: 0x64B60, symSize: 0x58 }
  - { offset: 0x1066B3, size: 0x8, addend: 0x0, symName: __RNvXsh_NtNtCsATtFUPiRFW_3syn4expr8printingNtB7_7ExprLitNtNtCs62MdaZFMefA_5quote9to_tokens8ToTokens9to_tokens, symObjAddr: 0x10134, symBinAddr: 0x64BB8, symSize: 0x54 }
  - { offset: 0x1066F2, size: 0x8, addend: 0x0, symName: __RNvXsi_NtNtCsATtFUPiRFW_3syn4expr8printingNtB7_8ExprLoopNtNtCs62MdaZFMefA_5quote9to_tokens8ToTokens9to_tokens, symObjAddr: 0x10188, symBinAddr: 0x64C0C, symSize: 0x78 }
  - { offset: 0x106731, size: 0x8, addend: 0x0, symName: __RNvXsj_NtNtCsATtFUPiRFW_3syn4expr8printingNtB7_9ExprMacroNtNtCs62MdaZFMefA_5quote9to_tokens8ToTokens9to_tokens, symObjAddr: 0x10200, symBinAddr: 0x64C84, symSize: 0x54 }
  - { offset: 0x106770, size: 0x8, addend: 0x0, symName: __RNvXsk_NtNtCsATtFUPiRFW_3syn4expr8printingNtB7_9ExprMatchNtNtCs62MdaZFMefA_5quote9to_tokens8ToTokens9to_tokens, symObjAddr: 0x10254, symBinAddr: 0x64CD8, symSize: 0x90 }
  - { offset: 0x1067AF, size: 0x8, addend: 0x0, symName: __RNvXsl_NtNtCsATtFUPiRFW_3syn4expr8printingNtB7_14ExprMethodCallNtNtCs62MdaZFMefA_5quote9to_tokens8ToTokens9to_tokens, symObjAddr: 0x102E4, symBinAddr: 0x64D68, symSize: 0x58 }
  - { offset: 0x1067EE, size: 0x8, addend: 0x0, symName: __RNvXsm_NtNtCsATtFUPiRFW_3syn4expr8printingNtB7_9ExprParenNtNtCs62MdaZFMefA_5quote9to_tokens8ToTokens9to_tokens, symObjAddr: 0x1033C, symBinAddr: 0x64DC0, symSize: 0x58 }
  - { offset: 0x10682D, size: 0x8, addend: 0x0, symName: __RNvXsn_NtNtCsATtFUPiRFW_3syn4expr8printingNtB7_8ExprPathNtNtCs62MdaZFMefA_5quote9to_tokens8ToTokens9to_tokens, symObjAddr: 0x10394, symBinAddr: 0x64E18, symSize: 0x64 }
  - { offset: 0x10686C, size: 0x8, addend: 0x0, symName: __RNvXso_NtNtCsATtFUPiRFW_3syn4expr8printingNtB7_9ExprRangeNtNtCs62MdaZFMefA_5quote9to_tokens8ToTokens9to_tokens, symObjAddr: 0x103F8, symBinAddr: 0x64E7C, symSize: 0x58 }
  - { offset: 0x1068AB, size: 0x8, addend: 0x0, symName: __RNvXsp_NtNtCsATtFUPiRFW_3syn4expr8printingNtB7_11ExprRawAddrNtNtCs62MdaZFMefA_5quote9to_tokens8ToTokens9to_tokens, symObjAddr: 0x10450, symBinAddr: 0x64ED4, symSize: 0x58 }
  - { offset: 0x1068EA, size: 0x8, addend: 0x0, symName: __RNvXsq_NtNtCsATtFUPiRFW_3syn4expr8printingNtB7_13ExprReferenceNtNtCs62MdaZFMefA_5quote9to_tokens8ToTokens9to_tokens, symObjAddr: 0x104A8, symBinAddr: 0x64F2C, symSize: 0x58 }
  - { offset: 0x106929, size: 0x8, addend: 0x0, symName: __RNvXsr_NtNtCsATtFUPiRFW_3syn4expr8printingNtB7_10ExprRepeatNtNtCs62MdaZFMefA_5quote9to_tokens8ToTokens9to_tokens, symObjAddr: 0x10500, symBinAddr: 0x64F84, symSize: 0x58 }
  - { offset: 0x106968, size: 0x8, addend: 0x0, symName: __RNvXss_NtNtCsATtFUPiRFW_3syn4expr8printingNtB7_10ExprReturnNtNtCs62MdaZFMefA_5quote9to_tokens8ToTokens9to_tokens, symObjAddr: 0x10558, symBinAddr: 0x64FDC, symSize: 0x58 }
  - { offset: 0x1069A7, size: 0x8, addend: 0x0, symName: __RNvXst_NtNtCsATtFUPiRFW_3syn4expr8printingNtB7_10ExprStructNtNtCs62MdaZFMefA_5quote9to_tokens8ToTokens9to_tokens, symObjAddr: 0x105B0, symBinAddr: 0x65034, symSize: 0x78 }
  - { offset: 0x1069E6, size: 0x8, addend: 0x0, symName: __RNvXsu_NtNtCsATtFUPiRFW_3syn4expr8printingNtB7_7ExprTryNtNtCs62MdaZFMefA_5quote9to_tokens8ToTokens9to_tokens, symObjAddr: 0x10628, symBinAddr: 0x650AC, symSize: 0x58 }
  - { offset: 0x106A25, size: 0x8, addend: 0x0, symName: __RNvXsv_NtNtCsATtFUPiRFW_3syn4expr8printingNtB7_12ExprTryBlockNtNtCs62MdaZFMefA_5quote9to_tokens8ToTokens9to_tokens, symObjAddr: 0x10680, symBinAddr: 0x65104, symSize: 0x64 }
  - { offset: 0x106A64, size: 0x8, addend: 0x0, symName: __RNvXsw_NtNtCsATtFUPiRFW_3syn4expr8printingNtB7_9ExprTupleNtNtCs62MdaZFMefA_5quote9to_tokens8ToTokens9to_tokens, symObjAddr: 0x106E4, symBinAddr: 0x65168, symSize: 0x58 }
  - { offset: 0x106AA3, size: 0x8, addend: 0x0, symName: __RNvXsx_NtNtCsATtFUPiRFW_3syn4expr8printingNtB7_9ExprUnaryNtNtCs62MdaZFMefA_5quote9to_tokens8ToTokens9to_tokens, symObjAddr: 0x1073C, symBinAddr: 0x651C0, symSize: 0x58 }
  - { offset: 0x106AE2, size: 0x8, addend: 0x0, symName: __RNvXsy_NtNtCsATtFUPiRFW_3syn4expr8printingNtB7_10ExprUnsafeNtNtCs62MdaZFMefA_5quote9to_tokens8ToTokens9to_tokens, symObjAddr: 0x10794, symBinAddr: 0x65218, symSize: 0x68 }
  - { offset: 0x106B21, size: 0x8, addend: 0x0, symName: __RNvXsz_NtNtCsATtFUPiRFW_3syn4expr8printingNtB7_9ExprWhileNtNtCs62MdaZFMefA_5quote9to_tokens8ToTokens9to_tokens, symObjAddr: 0x107FC, symBinAddr: 0x65280, symSize: 0xA0 }
  - { offset: 0x106B60, size: 0x8, addend: 0x0, symName: __RNvXsA_NtNtCsATtFUPiRFW_3syn4expr8printingNtB7_9ExprYieldNtNtCs62MdaZFMefA_5quote9to_tokens8ToTokens9to_tokens, symObjAddr: 0x1089C, symBinAddr: 0x65320, symSize: 0x58 }
  - { offset: 0x106B9F, size: 0x8, addend: 0x0, symName: __RNvXsB_NtNtCsATtFUPiRFW_3syn4expr8printingNtB7_3ArmNtNtCs62MdaZFMefA_5quote9to_tokens8ToTokens9to_tokens, symObjAddr: 0x108F4, symBinAddr: 0x65378, symSize: 0x10C }
  - { offset: 0x106C0C, size: 0x8, addend: 0x0, symName: __RNvXsC_NtNtCsATtFUPiRFW_3syn4expr8printingNtB7_10FieldValueNtNtCs62MdaZFMefA_5quote9to_tokens8ToTokens9to_tokens, symObjAddr: 0x10A00, symBinAddr: 0x65484, symSize: 0xB0 }
  - { offset: 0x106C69, size: 0x8, addend: 0x0, symName: __RNvXsD_NtNtCsATtFUPiRFW_3syn4expr8printingNtB7_5IndexNtNtCs62MdaZFMefA_5quote9to_tokens8ToTokens9to_tokens, symObjAddr: 0x10AB0, symBinAddr: 0x65534, symSize: 0xD4 }
  - { offset: 0x106CBE, size: 0x8, addend: 0x0, symName: __RNvXsE_NtNtCsATtFUPiRFW_3syn4expr8printingNtB7_5LabelNtNtCs62MdaZFMefA_5quote9to_tokens8ToTokens9to_tokens, symObjAddr: 0x10B84, symBinAddr: 0x65608, symSize: 0x50 }
  - { offset: 0x106CFD, size: 0x8, addend: 0x0, symName: __RNvXsF_NtNtCsATtFUPiRFW_3syn4expr8printingNtB7_6MemberNtNtCs62MdaZFMefA_5quote9to_tokens8ToTokens9to_tokens, symObjAddr: 0x10BD4, symBinAddr: 0x65658, symSize: 0x98 }
  - { offset: 0x106D70, size: 0x8, addend: 0x0, symName: __RNvXsG_NtNtCsATtFUPiRFW_3syn4expr8printingNtB7_11RangeLimitsNtNtCs62MdaZFMefA_5quote9to_tokens8ToTokens9to_tokens, symObjAddr: 0x10C6C, symBinAddr: 0x656F0, symSize: 0x94 }
  - { offset: 0x106DE3, size: 0x8, addend: 0x0, symName: __RNvXsH_NtNtCsATtFUPiRFW_3syn4expr8printingNtB7_17PointerMutabilityNtNtCs62MdaZFMefA_5quote9to_tokens8ToTokens9to_tokens, symObjAddr: 0x10D00, symBinAddr: 0x65784, symSize: 0x94 }
  - { offset: 0x106E5C, size: 0x8, addend: 0x0, symName: __RNcNtNtNtCsATtFUPiRFW_3syn4expr4Expr5Async0B7_, symObjAddr: 0x10D94, symBinAddr: 0x65818, symSize: 0x3C }
  - { offset: 0x106E8B, size: 0x8, addend: 0x0, symName: __RNcNtNtNtCsATtFUPiRFW_3syn4expr4Expr5Block0B7_, symObjAddr: 0x10DD0, symBinAddr: 0x65854, symSize: 0x3C }
  - { offset: 0x106EBA, size: 0x8, addend: 0x0, symName: __RNcNtNtNtCsATtFUPiRFW_3syn4expr4Expr5Break0B7_, symObjAddr: 0x10E0C, symBinAddr: 0x65890, symSize: 0x3C }
  - { offset: 0x106EE9, size: 0x8, addend: 0x0, symName: __RNcNtNtNtCsATtFUPiRFW_3syn4expr4Expr7Closure0B7_, symObjAddr: 0x10E48, symBinAddr: 0x658CC, symSize: 0x3C }
  - { offset: 0x106F18, size: 0x8, addend: 0x0, symName: __RNcNtNtNtCsATtFUPiRFW_3syn4expr4Expr5Const0B7_, symObjAddr: 0x10E84, symBinAddr: 0x65908, symSize: 0x3C }
  - { offset: 0x106F47, size: 0x8, addend: 0x0, symName: __RNcNtNtNtCsATtFUPiRFW_3syn4expr4Expr8Continue0B7_, symObjAddr: 0x10EC0, symBinAddr: 0x65944, symSize: 0x3C }
  - { offset: 0x106F76, size: 0x8, addend: 0x0, symName: __RNcNtNtNtCsATtFUPiRFW_3syn4expr4Expr7ForLoop0B7_, symObjAddr: 0x10EFC, symBinAddr: 0x65980, symSize: 0x3C }
  - { offset: 0x106FA5, size: 0x8, addend: 0x0, symName: __RNcNtNtNtCsATtFUPiRFW_3syn4expr4Expr2If0B7_, symObjAddr: 0x10F38, symBinAddr: 0x659BC, symSize: 0x3C }
  - { offset: 0x106FD4, size: 0x8, addend: 0x0, symName: __RNcNtNtNtCsATtFUPiRFW_3syn4expr4Expr5Infer0B7_, symObjAddr: 0x10F74, symBinAddr: 0x659F8, symSize: 0x20 }
  - { offset: 0x107002, size: 0x8, addend: 0x0, symName: __RNcNtNtNtCsATtFUPiRFW_3syn4expr4Expr3Let0B7_, symObjAddr: 0x10F94, symBinAddr: 0x65A18, symSize: 0x3C }
  - { offset: 0x107031, size: 0x8, addend: 0x0, symName: __RNcNtNtNtCsATtFUPiRFW_3syn4expr4Expr3Lit0B7_, symObjAddr: 0x10FD0, symBinAddr: 0x65A54, symSize: 0x3C }
  - { offset: 0x107060, size: 0x8, addend: 0x0, symName: __RNcNtNtNtCsATtFUPiRFW_3syn4expr4Expr4Loop0B7_, symObjAddr: 0x1100C, symBinAddr: 0x65A90, symSize: 0x3C }
  - { offset: 0x10708F, size: 0x8, addend: 0x0, symName: __RNcNtNtNtCsATtFUPiRFW_3syn4expr4Expr5Match0B7_, symObjAddr: 0x11048, symBinAddr: 0x65ACC, symSize: 0x3C }
  - { offset: 0x1070BE, size: 0x8, addend: 0x0, symName: __RNcNtNtNtCsATtFUPiRFW_3syn4expr4Expr5Range0B7_, symObjAddr: 0x11084, symBinAddr: 0x65B08, symSize: 0x3C }
  - { offset: 0x1070ED, size: 0x8, addend: 0x0, symName: __RNcNtNtNtCsATtFUPiRFW_3syn4expr4Expr6Return0B7_, symObjAddr: 0x110C0, symBinAddr: 0x65B44, symSize: 0x3C }
  - { offset: 0x10711C, size: 0x8, addend: 0x0, symName: __RNcNtNtNtCsATtFUPiRFW_3syn4expr4Expr6Struct0B7_, symObjAddr: 0x110FC, symBinAddr: 0x65B80, symSize: 0x3C }
  - { offset: 0x10714B, size: 0x8, addend: 0x0, symName: __RNcNtNtNtCsATtFUPiRFW_3syn4expr4Expr8TryBlock0B7_, symObjAddr: 0x11138, symBinAddr: 0x65BBC, symSize: 0x3C }
  - { offset: 0x10717A, size: 0x8, addend: 0x0, symName: __RNcNtNtNtCsATtFUPiRFW_3syn4expr4Expr5Unary0B7_, symObjAddr: 0x11174, symBinAddr: 0x65BF8, symSize: 0x3C }
  - { offset: 0x1071A9, size: 0x8, addend: 0x0, symName: __RNcNtNtNtCsATtFUPiRFW_3syn4expr4Expr6Unsafe0B7_, symObjAddr: 0x111B0, symBinAddr: 0x65C34, symSize: 0x3C }
  - { offset: 0x1071D8, size: 0x8, addend: 0x0, symName: __RNcNtNtNtCsATtFUPiRFW_3syn4expr4Expr5While0B7_, symObjAddr: 0x111EC, symBinAddr: 0x65C70, symSize: 0x3C }
  - { offset: 0x107207, size: 0x8, addend: 0x0, symName: __RNcNtNtNtCsATtFUPiRFW_3syn4expr4Expr5Yield0B7_, symObjAddr: 0x11228, symBinAddr: 0x65CAC, symSize: 0x3C }
  - { offset: 0x107237, size: 0x8, addend: 0x0, symName: __RNvXsc_NtCsATtFUPiRFW_3syn4exprNtB5_4ExprINtNtCs9f3LFPSIp77_4core7convert4FromNtB5_9ExprArrayE4from, symObjAddr: 0x11264, symBinAddr: 0x65CE8, symSize: 0x48 }
  - { offset: 0x10726A, size: 0x8, addend: 0x0, symName: __RNvXsd_NtCsATtFUPiRFW_3syn4exprNtB5_4ExprINtNtCs9f3LFPSIp77_4core7convert4FromNtB5_10ExprAssignE4from, symObjAddr: 0x112AC, symBinAddr: 0x65D30, symSize: 0x50 }
  - { offset: 0x10729D, size: 0x8, addend: 0x0, symName: __RNvXse_NtCsATtFUPiRFW_3syn4exprNtB5_4ExprINtNtCs9f3LFPSIp77_4core7convert4FromNtB5_9ExprAsyncE4from, symObjAddr: 0x112FC, symBinAddr: 0x65D80, symSize: 0x4C }
  - { offset: 0x1072D0, size: 0x8, addend: 0x0, symName: __RNvXsf_NtCsATtFUPiRFW_3syn4exprNtB5_4ExprINtNtCs9f3LFPSIp77_4core7convert4FromNtB5_9ExprAwaitE4from, symObjAddr: 0x11348, symBinAddr: 0x65DCC, symSize: 0x4C }
  - { offset: 0x107303, size: 0x8, addend: 0x0, symName: __RNvXsg_NtCsATtFUPiRFW_3syn4exprNtB5_4ExprINtNtCs9f3LFPSIp77_4core7convert4FromNtB5_10ExprBinaryE4from, symObjAddr: 0x11394, symBinAddr: 0x65E18, symSize: 0x4C }
  - { offset: 0x107336, size: 0x8, addend: 0x0, symName: __RNvXsh_NtCsATtFUPiRFW_3syn4exprNtB5_4ExprINtNtCs9f3LFPSIp77_4core7convert4FromNtB5_9ExprBlockE4from, symObjAddr: 0x113E0, symBinAddr: 0x65E64, symSize: 0x4C }
  - { offset: 0x107369, size: 0x8, addend: 0x0, symName: __RNvXsi_NtCsATtFUPiRFW_3syn4exprNtB5_4ExprINtNtCs9f3LFPSIp77_4core7convert4FromNtB5_9ExprBreakE4from, symObjAddr: 0x1142C, symBinAddr: 0x65EB0, symSize: 0x4C }
  - { offset: 0x10739C, size: 0x8, addend: 0x0, symName: __RNvXsj_NtCsATtFUPiRFW_3syn4exprNtB5_4ExprINtNtCs9f3LFPSIp77_4core7convert4FromNtB5_8ExprCallE4from, symObjAddr: 0x11478, symBinAddr: 0x65EFC, symSize: 0x4C }
  - { offset: 0x1073CF, size: 0x8, addend: 0x0, symName: __RNvXsk_NtCsATtFUPiRFW_3syn4exprNtB5_4ExprINtNtCs9f3LFPSIp77_4core7convert4FromNtB5_8ExprCastE4from, symObjAddr: 0x114C4, symBinAddr: 0x65F48, symSize: 0x4C }
  - { offset: 0x107402, size: 0x8, addend: 0x0, symName: __RNvXsl_NtCsATtFUPiRFW_3syn4exprNtB5_4ExprINtNtCs9f3LFPSIp77_4core7convert4FromNtB5_11ExprClosureE4from, symObjAddr: 0x11510, symBinAddr: 0x65F94, symSize: 0x4C }
  - { offset: 0x107435, size: 0x8, addend: 0x0, symName: __RNvXsm_NtCsATtFUPiRFW_3syn4exprNtB5_4ExprINtNtCs9f3LFPSIp77_4core7convert4FromNtB5_9ExprConstE4from, symObjAddr: 0x1155C, symBinAddr: 0x65FE0, symSize: 0x4C }
  - { offset: 0x107468, size: 0x8, addend: 0x0, symName: __RNvXsn_NtCsATtFUPiRFW_3syn4exprNtB5_4ExprINtNtCs9f3LFPSIp77_4core7convert4FromNtB5_12ExprContinueE4from, symObjAddr: 0x115A8, symBinAddr: 0x6602C, symSize: 0x4C }
  - { offset: 0x10749B, size: 0x8, addend: 0x0, symName: __RNvXso_NtCsATtFUPiRFW_3syn4exprNtB5_4ExprINtNtCs9f3LFPSIp77_4core7convert4FromNtB5_9ExprFieldE4from, symObjAddr: 0x115F4, symBinAddr: 0x66078, symSize: 0x4C }
  - { offset: 0x1074CE, size: 0x8, addend: 0x0, symName: __RNvXsp_NtCsATtFUPiRFW_3syn4exprNtB5_4ExprINtNtCs9f3LFPSIp77_4core7convert4FromNtB5_11ExprForLoopE4from, symObjAddr: 0x11640, symBinAddr: 0x660C4, symSize: 0x4C }
  - { offset: 0x107501, size: 0x8, addend: 0x0, symName: __RNvXsq_NtCsATtFUPiRFW_3syn4exprNtB5_4ExprINtNtCs9f3LFPSIp77_4core7convert4FromNtB5_9ExprGroupE4from, symObjAddr: 0x1168C, symBinAddr: 0x66110, symSize: 0x4C }
  - { offset: 0x107534, size: 0x8, addend: 0x0, symName: __RNvXsr_NtCsATtFUPiRFW_3syn4exprNtB5_4ExprINtNtCs9f3LFPSIp77_4core7convert4FromNtB5_6ExprIfE4from, symObjAddr: 0x116D8, symBinAddr: 0x6615C, symSize: 0x4C }
  - { offset: 0x107567, size: 0x8, addend: 0x0, symName: __RNvXss_NtCsATtFUPiRFW_3syn4exprNtB5_4ExprINtNtCs9f3LFPSIp77_4core7convert4FromNtB5_9ExprIndexE4from, symObjAddr: 0x11724, symBinAddr: 0x661A8, symSize: 0x4C }
  - { offset: 0x10759A, size: 0x8, addend: 0x0, symName: __RNvXst_NtCsATtFUPiRFW_3syn4exprNtB5_4ExprINtNtCs9f3LFPSIp77_4core7convert4FromNtB5_9ExprInferE4from, symObjAddr: 0x11770, symBinAddr: 0x661F4, symSize: 0x30 }
  - { offset: 0x1075CC, size: 0x8, addend: 0x0, symName: __RNvXsu_NtCsATtFUPiRFW_3syn4exprNtB5_4ExprINtNtCs9f3LFPSIp77_4core7convert4FromNtB5_7ExprLetE4from, symObjAddr: 0x117A0, symBinAddr: 0x66224, symSize: 0x4C }
  - { offset: 0x1075FF, size: 0x8, addend: 0x0, symName: __RNvXsv_NtCsATtFUPiRFW_3syn4exprNtB5_4ExprINtNtCs9f3LFPSIp77_4core7convert4FromNtB5_7ExprLitE4from, symObjAddr: 0x117EC, symBinAddr: 0x66270, symSize: 0x4C }
  - { offset: 0x107632, size: 0x8, addend: 0x0, symName: __RNvXsw_NtCsATtFUPiRFW_3syn4exprNtB5_4ExprINtNtCs9f3LFPSIp77_4core7convert4FromNtB5_8ExprLoopE4from, symObjAddr: 0x11838, symBinAddr: 0x662BC, symSize: 0x4C }
  - { offset: 0x107665, size: 0x8, addend: 0x0, symName: __RNvXsx_NtCsATtFUPiRFW_3syn4exprNtB5_4ExprINtNtCs9f3LFPSIp77_4core7convert4FromNtB5_9ExprMacroE4from, symObjAddr: 0x11884, symBinAddr: 0x66308, symSize: 0x4C }
  - { offset: 0x107698, size: 0x8, addend: 0x0, symName: __RNvXsy_NtCsATtFUPiRFW_3syn4exprNtB5_4ExprINtNtCs9f3LFPSIp77_4core7convert4FromNtB5_9ExprMatchE4from, symObjAddr: 0x118D0, symBinAddr: 0x66354, symSize: 0x4C }
  - { offset: 0x1076CB, size: 0x8, addend: 0x0, symName: __RNvXsz_NtCsATtFUPiRFW_3syn4exprNtB5_4ExprINtNtCs9f3LFPSIp77_4core7convert4FromNtB5_14ExprMethodCallE4from, symObjAddr: 0x1191C, symBinAddr: 0x663A0, symSize: 0x4C }
  - { offset: 0x1076FE, size: 0x8, addend: 0x0, symName: __RNvXsA_NtCsATtFUPiRFW_3syn4exprNtB5_4ExprINtNtCs9f3LFPSIp77_4core7convert4FromNtB5_9ExprParenE4from, symObjAddr: 0x11968, symBinAddr: 0x663EC, symSize: 0x4C }
  - { offset: 0x107731, size: 0x8, addend: 0x0, symName: __RNvXsB_NtCsATtFUPiRFW_3syn4exprNtB5_4ExprINtNtCs9f3LFPSIp77_4core7convert4FromNtB5_8ExprPathE4from, symObjAddr: 0x119B4, symBinAddr: 0x66438, symSize: 0x4C }
  - { offset: 0x107764, size: 0x8, addend: 0x0, symName: __RNvXsC_NtCsATtFUPiRFW_3syn4exprNtB5_4ExprINtNtCs9f3LFPSIp77_4core7convert4FromNtB5_9ExprRangeE4from, symObjAddr: 0x11A00, symBinAddr: 0x66484, symSize: 0x4C }
  - { offset: 0x107797, size: 0x8, addend: 0x0, symName: __RNvXsD_NtCsATtFUPiRFW_3syn4exprNtB5_4ExprINtNtCs9f3LFPSIp77_4core7convert4FromNtB5_11ExprRawAddrE4from, symObjAddr: 0x11A4C, symBinAddr: 0x664D0, symSize: 0x4C }
  - { offset: 0x1077CA, size: 0x8, addend: 0x0, symName: __RNvXsE_NtCsATtFUPiRFW_3syn4exprNtB5_4ExprINtNtCs9f3LFPSIp77_4core7convert4FromNtB5_13ExprReferenceE4from, symObjAddr: 0x11A98, symBinAddr: 0x6651C, symSize: 0x4C }
  - { offset: 0x1077FD, size: 0x8, addend: 0x0, symName: __RNvXsF_NtCsATtFUPiRFW_3syn4exprNtB5_4ExprINtNtCs9f3LFPSIp77_4core7convert4FromNtB5_10ExprRepeatE4from, symObjAddr: 0x11AE4, symBinAddr: 0x66568, symSize: 0x4C }
  - { offset: 0x107830, size: 0x8, addend: 0x0, symName: __RNvXsG_NtCsATtFUPiRFW_3syn4exprNtB5_4ExprINtNtCs9f3LFPSIp77_4core7convert4FromNtB5_10ExprReturnE4from, symObjAddr: 0x11B30, symBinAddr: 0x665B4, symSize: 0x4C }
  - { offset: 0x107863, size: 0x8, addend: 0x0, symName: __RNvXsH_NtCsATtFUPiRFW_3syn4exprNtB5_4ExprINtNtCs9f3LFPSIp77_4core7convert4FromNtB5_10ExprStructE4from, symObjAddr: 0x11B7C, symBinAddr: 0x66600, symSize: 0x4C }
  - { offset: 0x107896, size: 0x8, addend: 0x0, symName: __RNvXsI_NtCsATtFUPiRFW_3syn4exprNtB5_4ExprINtNtCs9f3LFPSIp77_4core7convert4FromNtB5_7ExprTryE4from, symObjAddr: 0x11BC8, symBinAddr: 0x6664C, symSize: 0x4C }
  - { offset: 0x1078C9, size: 0x8, addend: 0x0, symName: __RNvXsJ_NtCsATtFUPiRFW_3syn4exprNtB5_4ExprINtNtCs9f3LFPSIp77_4core7convert4FromNtB5_12ExprTryBlockE4from, symObjAddr: 0x11C14, symBinAddr: 0x66698, symSize: 0x4C }
  - { offset: 0x1078FC, size: 0x8, addend: 0x0, symName: __RNvXsK_NtCsATtFUPiRFW_3syn4exprNtB5_4ExprINtNtCs9f3LFPSIp77_4core7convert4FromNtB5_9ExprTupleE4from, symObjAddr: 0x11C60, symBinAddr: 0x666E4, symSize: 0x4C }
  - { offset: 0x10792F, size: 0x8, addend: 0x0, symName: __RNvXsL_NtCsATtFUPiRFW_3syn4exprNtB5_4ExprINtNtCs9f3LFPSIp77_4core7convert4FromNtB5_9ExprUnaryE4from, symObjAddr: 0x11CAC, symBinAddr: 0x66730, symSize: 0x4C }
  - { offset: 0x107962, size: 0x8, addend: 0x0, symName: __RNvXsM_NtCsATtFUPiRFW_3syn4exprNtB5_4ExprINtNtCs9f3LFPSIp77_4core7convert4FromNtB5_10ExprUnsafeE4from, symObjAddr: 0x11CF8, symBinAddr: 0x6677C, symSize: 0x4C }
  - { offset: 0x107995, size: 0x8, addend: 0x0, symName: __RNvXsN_NtCsATtFUPiRFW_3syn4exprNtB5_4ExprINtNtCs9f3LFPSIp77_4core7convert4FromNtB5_9ExprWhileE4from, symObjAddr: 0x11D44, symBinAddr: 0x667C8, symSize: 0x4C }
  - { offset: 0x1079C8, size: 0x8, addend: 0x0, symName: __RNvXsO_NtCsATtFUPiRFW_3syn4exprNtB5_4ExprINtNtCs9f3LFPSIp77_4core7convert4FromNtB5_9ExprYieldE4from, symObjAddr: 0x11D90, symBinAddr: 0x66814, symSize: 0x4C }
  - { offset: 0x1079FB, size: 0x8, addend: 0x0, symName: __RNvXsP_NtCsATtFUPiRFW_3syn4exprNtB5_4ExprNtNtCs62MdaZFMefA_5quote9to_tokens8ToTokens9to_tokens, symObjAddr: 0x11DDC, symBinAddr: 0x66860, symSize: 0x7D8 }
  - { offset: 0x107EDC, size: 0x8, addend: 0x0, symName: __RNcNtNtNtCsATtFUPiRFW_3syn4expr6Member5Named0B7_, symObjAddr: 0x125B4, symBinAddr: 0x67038, symSize: 0x18 }
  - { offset: 0x107F0C, size: 0x8, addend: 0x0, symName: __RNcNtNtNtCsATtFUPiRFW_3syn4expr6Member7Unnamed0B7_, symObjAddr: 0x125CC, symBinAddr: 0x67050, symSize: 0x28 }
  - { offset: 0x107F42, size: 0x8, addend: 0x0, symName: __RNcNtNtNtCsATtFUPiRFW_3syn4expr11RangeLimits8HalfOpen0B7_, symObjAddr: 0x125F4, symBinAddr: 0x67078, symSize: 0x24 }
  - { offset: 0x107F72, size: 0x8, addend: 0x0, symName: __RNcNtNtNtCsATtFUPiRFW_3syn4expr11RangeLimits6Closed0B7_, symObjAddr: 0x12618, symBinAddr: 0x6709C, symSize: 0x20 }
  - { offset: 0x10A92A, size: 0x8, addend: 0x0, symName: __RNvXs0_NtNtCsATtFUPiRFW_3syn3gen5cloneNtNtB9_4expr3ArmNtNtCs9f3LFPSIp77_4core5clone5Clone5clone, symObjAddr: 0x1557C, symBinAddr: 0x6A000, symSize: 0x1B4 }
  - { offset: 0x10A95C, size: 0x8, addend: 0x0, symName: __RNvXsk_NtNtCsATtFUPiRFW_3syn3gen5cloneNtNtB9_4expr4ExprNtNtCs9f3LFPSIp77_4core5clone5Clone5clone, symObjAddr: 0x15730, symBinAddr: 0x6A1B4, symSize: 0xE14 }
  - { offset: 0x10AE51, size: 0x8, addend: 0x0, symName: __RNvXsl_NtNtCsATtFUPiRFW_3syn3gen5cloneNtNtB9_4expr9ExprArrayNtNtCs9f3LFPSIp77_4core5clone5Clone5clone, symObjAddr: 0x16544, symBinAddr: 0x6AFC8, symSize: 0xC0 }
  - { offset: 0x10AE85, size: 0x8, addend: 0x0, symName: __RNvXsm_NtNtCsATtFUPiRFW_3syn3gen5cloneNtNtB9_4expr10ExprAssignNtNtCs9f3LFPSIp77_4core5clone5Clone5clone, symObjAddr: 0x16604, symBinAddr: 0x6B088, symSize: 0x100 }
  - { offset: 0x10AEB9, size: 0x8, addend: 0x0, symName: __RNvXsn_NtNtCsATtFUPiRFW_3syn3gen5cloneNtNtB9_4expr9ExprAsyncNtNtCs9f3LFPSIp77_4core5clone5Clone5clone, symObjAddr: 0x16704, symBinAddr: 0x6B188, symSize: 0xE4 }
  - { offset: 0x10AEED, size: 0x8, addend: 0x0, symName: __RNvXso_NtNtCsATtFUPiRFW_3syn3gen5cloneNtNtB9_4expr9ExprAwaitNtNtCs9f3LFPSIp77_4core5clone5Clone5clone, symObjAddr: 0x167E8, symBinAddr: 0x6B26C, symSize: 0x100 }
  - { offset: 0x10AF21, size: 0x8, addend: 0x0, symName: __RNvXsp_NtNtCsATtFUPiRFW_3syn3gen5cloneNtNtB9_4expr10ExprBinaryNtNtCs9f3LFPSIp77_4core5clone5Clone5clone, symObjAddr: 0x168E8, symBinAddr: 0x6B36C, symSize: 0xF0 }
  - { offset: 0x10AF55, size: 0x8, addend: 0x0, symName: __RNvXsq_NtNtCsATtFUPiRFW_3syn3gen5cloneNtNtB9_4expr9ExprBlockNtNtCs9f3LFPSIp77_4core5clone5Clone5clone, symObjAddr: 0x169D8, symBinAddr: 0x6B45C, symSize: 0xE8 }
  - { offset: 0x10AF89, size: 0x8, addend: 0x0, symName: __RNvXsr_NtNtCsATtFUPiRFW_3syn3gen5cloneNtNtB9_4expr9ExprBreakNtNtCs9f3LFPSIp77_4core5clone5Clone5clone, symObjAddr: 0x16AC0, symBinAddr: 0x6B544, symSize: 0xF0 }
  - { offset: 0x10AFBD, size: 0x8, addend: 0x0, symName: __RNvXss_NtNtCsATtFUPiRFW_3syn3gen5cloneNtNtB9_4expr8ExprCallNtNtCs9f3LFPSIp77_4core5clone5Clone5clone, symObjAddr: 0x16BB0, symBinAddr: 0x6B634, symSize: 0x100 }
  - { offset: 0x10AFF1, size: 0x8, addend: 0x0, symName: __RNvXst_NtNtCsATtFUPiRFW_3syn3gen5cloneNtNtB9_4expr8ExprCastNtNtCs9f3LFPSIp77_4core5clone5Clone5clone, symObjAddr: 0x16CB0, symBinAddr: 0x6B734, symSize: 0xF0 }
  - { offset: 0x10B025, size: 0x8, addend: 0x0, symName: __RNvXsu_NtNtCsATtFUPiRFW_3syn3gen5cloneNtNtB9_4expr11ExprClosureNtNtCs9f3LFPSIp77_4core5clone5Clone5clone, symObjAddr: 0x16DA0, symBinAddr: 0x6B824, symSize: 0x254 }
  - { offset: 0x10B059, size: 0x8, addend: 0x0, symName: __RNvXsv_NtNtCsATtFUPiRFW_3syn3gen5cloneNtNtB9_4expr9ExprConstNtNtCs9f3LFPSIp77_4core5clone5Clone5clone, symObjAddr: 0x16FF4, symBinAddr: 0x6BA78, symSize: 0xBC }
  - { offset: 0x10B08D, size: 0x8, addend: 0x0, symName: __RNvXsw_NtNtCsATtFUPiRFW_3syn3gen5cloneNtNtB9_4expr12ExprContinueNtNtCs9f3LFPSIp77_4core5clone5Clone5clone, symObjAddr: 0x170B0, symBinAddr: 0x6BB34, symSize: 0xB8 }
  - { offset: 0x10B0C1, size: 0x8, addend: 0x0, symName: __RNvXsx_NtNtCsATtFUPiRFW_3syn3gen5cloneNtNtB9_4expr9ExprFieldNtNtCs9f3LFPSIp77_4core5clone5Clone5clone, symObjAddr: 0x17168, symBinAddr: 0x6BBEC, symSize: 0x108 }
  - { offset: 0x10B0F5, size: 0x8, addend: 0x0, symName: __RNvXsy_NtNtCsATtFUPiRFW_3syn3gen5cloneNtNtB9_4expr11ExprForLoopNtNtCs9f3LFPSIp77_4core5clone5Clone5clone, symObjAddr: 0x17270, symBinAddr: 0x6BCF4, symSize: 0x1A0 }
  - { offset: 0x10B129, size: 0x8, addend: 0x0, symName: __RNvXsz_NtNtCsATtFUPiRFW_3syn3gen5cloneNtNtB9_4expr9ExprGroupNtNtCs9f3LFPSIp77_4core5clone5Clone5clone, symObjAddr: 0x17410, symBinAddr: 0x6BE94, symSize: 0xB0 }
  - { offset: 0x10B15D, size: 0x8, addend: 0x0, symName: __RNvXsA_NtNtCsATtFUPiRFW_3syn3gen5cloneNtNtB9_4expr6ExprIfNtNtCs9f3LFPSIp77_4core5clone5Clone5clone, symObjAddr: 0x174C0, symBinAddr: 0x6BF44, symSize: 0x144 }
  - { offset: 0x10B191, size: 0x8, addend: 0x0, symName: __RNvXsB_NtNtCsATtFUPiRFW_3syn3gen5cloneNtNtB9_4expr9ExprIndexNtNtCs9f3LFPSIp77_4core5clone5Clone5clone, symObjAddr: 0x17604, symBinAddr: 0x6C088, symSize: 0xF8 }
  - { offset: 0x10B1C5, size: 0x8, addend: 0x0, symName: __RNvXsC_NtNtCsATtFUPiRFW_3syn3gen5cloneNtNtB9_4expr9ExprInferNtNtCs9f3LFPSIp77_4core5clone5Clone5clone, symObjAddr: 0x176FC, symBinAddr: 0x6C180, symSize: 0xA4 }
  - { offset: 0x10B1F9, size: 0x8, addend: 0x0, symName: __RNvXsD_NtNtCsATtFUPiRFW_3syn3gen5cloneNtNtB9_4expr7ExprLetNtNtCs9f3LFPSIp77_4core5clone5Clone5clone, symObjAddr: 0x177A0, symBinAddr: 0x6C224, symSize: 0x11C }
  - { offset: 0x10B22D, size: 0x8, addend: 0x0, symName: __RNvXsE_NtNtCsATtFUPiRFW_3syn3gen5cloneNtNtB9_4expr7ExprLitNtNtCs9f3LFPSIp77_4core5clone5Clone5clone, symObjAddr: 0x178BC, symBinAddr: 0x6C340, symSize: 0x9C }
  - { offset: 0x10B261, size: 0x8, addend: 0x0, symName: __RNvXsF_NtNtCsATtFUPiRFW_3syn3gen5cloneNtNtB9_4expr8ExprLoopNtNtCs9f3LFPSIp77_4core5clone5Clone5clone, symObjAddr: 0x17958, symBinAddr: 0x6C3DC, symSize: 0x104 }
  - { offset: 0x10B295, size: 0x8, addend: 0x0, symName: __RNvXsG_NtNtCsATtFUPiRFW_3syn3gen5cloneNtNtB9_4expr9ExprMacroNtNtCs9f3LFPSIp77_4core5clone5Clone5clone, symObjAddr: 0x17A5C, symBinAddr: 0x6C4E0, symSize: 0xA0 }
  - { offset: 0x10B2C9, size: 0x8, addend: 0x0, symName: __RNvXsH_NtNtCsATtFUPiRFW_3syn3gen5cloneNtNtB9_4expr9ExprMatchNtNtCs9f3LFPSIp77_4core5clone5Clone5clone, symObjAddr: 0x17AFC, symBinAddr: 0x6C580, symSize: 0x11C }
  - { offset: 0x10B2FD, size: 0x8, addend: 0x0, symName: __RNvXsI_NtNtCsATtFUPiRFW_3syn3gen5cloneNtNtB9_4expr14ExprMethodCallNtNtCs9f3LFPSIp77_4core5clone5Clone5clone, symObjAddr: 0x17C18, symBinAddr: 0x6C69C, symSize: 0x1C8 }
  - { offset: 0x10B331, size: 0x8, addend: 0x0, symName: __RNvXsJ_NtNtCsATtFUPiRFW_3syn3gen5cloneNtNtB9_4expr9ExprParenNtNtCs9f3LFPSIp77_4core5clone5Clone5clone, symObjAddr: 0x17DE0, symBinAddr: 0x6C864, symSize: 0xB8 }
  - { offset: 0x10B365, size: 0x8, addend: 0x0, symName: __RNvXsK_NtNtCsATtFUPiRFW_3syn3gen5cloneNtNtB9_4expr8ExprPathNtNtCs9f3LFPSIp77_4core5clone5Clone5clone, symObjAddr: 0x17E98, symBinAddr: 0x6C91C, symSize: 0xE0 }
  - { offset: 0x10B399, size: 0x8, addend: 0x0, symName: __RNvXsL_NtNtCsATtFUPiRFW_3syn3gen5cloneNtNtB9_4expr9ExprRangeNtNtCs9f3LFPSIp77_4core5clone5Clone5clone, symObjAddr: 0x17F78, symBinAddr: 0x6C9FC, symSize: 0xF0 }
  - { offset: 0x10B3CD, size: 0x8, addend: 0x0, symName: __RNvXsM_NtNtCsATtFUPiRFW_3syn3gen5cloneNtNtB9_4expr11ExprRawAddrNtNtCs9f3LFPSIp77_4core5clone5Clone5clone, symObjAddr: 0x18068, symBinAddr: 0x6CAEC, symSize: 0x104 }
  - { offset: 0x10B401, size: 0x8, addend: 0x0, symName: __RNvXsN_NtNtCsATtFUPiRFW_3syn3gen5cloneNtNtB9_4expr13ExprReferenceNtNtCs9f3LFPSIp77_4core5clone5Clone5clone, symObjAddr: 0x1816C, symBinAddr: 0x6CBF0, symSize: 0xE8 }
  - { offset: 0x10B435, size: 0x8, addend: 0x0, symName: __RNvXsO_NtNtCsATtFUPiRFW_3syn3gen5cloneNtNtB9_4expr10ExprRepeatNtNtCs9f3LFPSIp77_4core5clone5Clone5clone, symObjAddr: 0x18254, symBinAddr: 0x6CCD8, symSize: 0x124 }
  - { offset: 0x10B469, size: 0x8, addend: 0x0, symName: __RNvXsP_NtNtCsATtFUPiRFW_3syn3gen5cloneNtNtB9_4expr10ExprReturnNtNtCs9f3LFPSIp77_4core5clone5Clone5clone, symObjAddr: 0x18378, symBinAddr: 0x6CDFC, symSize: 0xB0 }
  - { offset: 0x10B49D, size: 0x8, addend: 0x0, symName: __RNvXsQ_NtNtCsATtFUPiRFW_3syn3gen5cloneNtNtB9_4expr10ExprStructNtNtCs9f3LFPSIp77_4core5clone5Clone5clone, symObjAddr: 0x18428, symBinAddr: 0x6CEAC, symSize: 0x1B0 }
  - { offset: 0x10B4D1, size: 0x8, addend: 0x0, symName: __RNvXsR_NtNtCsATtFUPiRFW_3syn3gen5cloneNtNtB9_4expr7ExprTryNtNtCs9f3LFPSIp77_4core5clone5Clone5clone, symObjAddr: 0x185D8, symBinAddr: 0x6D05C, symSize: 0xE4 }
  - { offset: 0x10B505, size: 0x8, addend: 0x0, symName: __RNvXsS_NtNtCsATtFUPiRFW_3syn3gen5cloneNtNtB9_4expr12ExprTryBlockNtNtCs9f3LFPSIp77_4core5clone5Clone5clone, symObjAddr: 0x186BC, symBinAddr: 0x6D140, symSize: 0xBC }
  - { offset: 0x10B539, size: 0x8, addend: 0x0, symName: __RNvXsT_NtNtCsATtFUPiRFW_3syn3gen5cloneNtNtB9_4expr9ExprTupleNtNtCs9f3LFPSIp77_4core5clone5Clone5clone, symObjAddr: 0x18778, symBinAddr: 0x6D1FC, symSize: 0xC0 }
  - { offset: 0x10B56D, size: 0x8, addend: 0x0, symName: __RNvXsU_NtNtCsATtFUPiRFW_3syn3gen5cloneNtNtB9_4expr9ExprUnaryNtNtCs9f3LFPSIp77_4core5clone5Clone5clone, symObjAddr: 0x18838, symBinAddr: 0x6D2BC, symSize: 0xC0 }
  - { offset: 0x10B5A1, size: 0x8, addend: 0x0, symName: __RNvXsV_NtNtCsATtFUPiRFW_3syn3gen5cloneNtNtB9_4expr10ExprUnsafeNtNtCs9f3LFPSIp77_4core5clone5Clone5clone, symObjAddr: 0x188F8, symBinAddr: 0x6D37C, symSize: 0xBC }
  - { offset: 0x10B5D5, size: 0x8, addend: 0x0, symName: __RNvXsW_NtNtCsATtFUPiRFW_3syn3gen5cloneNtNtB9_4expr9ExprWhileNtNtCs9f3LFPSIp77_4core5clone5Clone5clone, symObjAddr: 0x189B4, symBinAddr: 0x6D438, symSize: 0x144 }
  - { offset: 0x10B609, size: 0x8, addend: 0x0, symName: __RNvXsX_NtNtCsATtFUPiRFW_3syn3gen5cloneNtNtB9_4expr9ExprYieldNtNtCs9f3LFPSIp77_4core5clone5Clone5clone, symObjAddr: 0x18AF8, symBinAddr: 0x6D57C, symSize: 0xB0 }
  - { offset: 0x10B63D, size: 0x8, addend: 0x0, symName: __RNvXs11_NtNtCsATtFUPiRFW_3syn3gen5cloneNtNtBa_4expr10FieldValueNtNtCs9f3LFPSIp77_4core5clone5Clone5clone, symObjAddr: 0x18BA8, symBinAddr: 0x6D62C, symSize: 0x110 }
  - { offset: 0x10B671, size: 0x8, addend: 0x0, symName: __RNvXs1l_NtNtCsATtFUPiRFW_3syn3gen5cloneNtNtBa_4expr5IndexNtNtCs9f3LFPSIp77_4core5clone5Clone5clone, symObjAddr: 0x18CB8, symBinAddr: 0x6D73C, symSize: 0x48 }
  - { offset: 0x10B6A5, size: 0x8, addend: 0x0, symName: __RNvXs1C_NtNtCsATtFUPiRFW_3syn3gen5cloneNtNtBa_4expr5LabelNtNtCs9f3LFPSIp77_4core5clone5Clone5clone, symObjAddr: 0x18D00, symBinAddr: 0x6D784, symSize: 0xA4 }
  - { offset: 0x10B6D9, size: 0x8, addend: 0x0, symName: __RNvXs1K_NtNtCsATtFUPiRFW_3syn3gen5cloneNtNtBa_4expr6MemberNtNtCs9f3LFPSIp77_4core5clone5Clone5clone, symObjAddr: 0x18DA4, symBinAddr: 0x6D828, symSize: 0xB8 }
  - { offset: 0x10B741, size: 0x8, addend: 0x0, symName: __RNvXs24_NtNtCsATtFUPiRFW_3syn3gen5cloneNtNtBa_4expr17PointerMutabilityNtNtCs9f3LFPSIp77_4core5clone5Clone5clone, symObjAddr: 0x18E5C, symBinAddr: 0x6D8E0, symSize: 0xA0 }
  - { offset: 0x10B7A9, size: 0x8, addend: 0x0, symName: __RNvXs2a_NtNtCsATtFUPiRFW_3syn3gen5cloneNtNtBa_4expr11RangeLimitsNtNtCs9f3LFPSIp77_4core5clone5Clone5clone, symObjAddr: 0x18EFC, symBinAddr: 0x6D980, symSize: 0x2C }
  - { offset: 0x10B7E3, size: 0x8, addend: 0x0, symName: __RNvXs1_NtNtCsATtFUPiRFW_3syn3gen5debugNtNtB9_4expr3ArmNtNtCs9f3LFPSIp77_4core3fmt5Debug3fmt, symObjAddr: 0x18F28, symBinAddr: 0x6D9AC, symSize: 0x14C }
  - { offset: 0x10B840, size: 0x8, addend: 0x0, symName: __RNvXsm_NtNtCsATtFUPiRFW_3syn3gen5debugNtNtB9_4expr4ExprNtNtCs9f3LFPSIp77_4core3fmt5Debug3fmt, symObjAddr: 0x19074, symBinAddr: 0x6DAF8, symSize: 0xC14 }
  - { offset: 0x10BD8C, size: 0x8, addend: 0x0, symName: __RNvXsn_NtNtCsATtFUPiRFW_3syn3gen5debugNtNtB9_4expr9ExprArrayNtNtCs9f3LFPSIp77_4core3fmt5Debug3fmt, symObjAddr: 0x19C88, symBinAddr: 0x6E70C, symSize: 0x4C }
  - { offset: 0x10BDCF, size: 0x8, addend: 0x0, symName: __RNvXsp_NtNtCsATtFUPiRFW_3syn3gen5debugNtNtB9_4expr10ExprAssignNtNtCs9f3LFPSIp77_4core3fmt5Debug3fmt, symObjAddr: 0x19DB0, symBinAddr: 0x6E834, symSize: 0x4C }
  - { offset: 0x10BE12, size: 0x8, addend: 0x0, symName: __RNvXsr_NtNtCsATtFUPiRFW_3syn3gen5debugNtNtB9_4expr9ExprAsyncNtNtCs9f3LFPSIp77_4core3fmt5Debug3fmt, symObjAddr: 0x19F00, symBinAddr: 0x6E984, symSize: 0x4C }
  - { offset: 0x10BE55, size: 0x8, addend: 0x0, symName: __RNvXst_NtNtCsATtFUPiRFW_3syn3gen5debugNtNtB9_4expr9ExprAwaitNtNtCs9f3LFPSIp77_4core3fmt5Debug3fmt, symObjAddr: 0x1A050, symBinAddr: 0x6EAD4, symSize: 0x4C }
  - { offset: 0x10BE98, size: 0x8, addend: 0x0, symName: __RNvXsv_NtNtCsATtFUPiRFW_3syn3gen5debugNtNtB9_4expr10ExprBinaryNtNtCs9f3LFPSIp77_4core3fmt5Debug3fmt, symObjAddr: 0x1A1A0, symBinAddr: 0x6EC24, symSize: 0x4C }
  - { offset: 0x10BEDB, size: 0x8, addend: 0x0, symName: __RNvXsx_NtNtCsATtFUPiRFW_3syn3gen5debugNtNtB9_4expr9ExprBlockNtNtCs9f3LFPSIp77_4core3fmt5Debug3fmt, symObjAddr: 0x1A2F0, symBinAddr: 0x6ED74, symSize: 0x4C }
  - { offset: 0x10BF1E, size: 0x8, addend: 0x0, symName: __RNvXsz_NtNtCsATtFUPiRFW_3syn3gen5debugNtNtB9_4expr9ExprBreakNtNtCs9f3LFPSIp77_4core3fmt5Debug3fmt, symObjAddr: 0x1A414, symBinAddr: 0x6EE98, symSize: 0x4C }
  - { offset: 0x10BF61, size: 0x8, addend: 0x0, symName: __RNvXsB_NtNtCsATtFUPiRFW_3syn3gen5debugNtNtB9_4expr8ExprCallNtNtCs9f3LFPSIp77_4core3fmt5Debug3fmt, symObjAddr: 0x1A564, symBinAddr: 0x6EFE8, symSize: 0x4C }
  - { offset: 0x10BFA4, size: 0x8, addend: 0x0, symName: __RNvXsD_NtNtCsATtFUPiRFW_3syn3gen5debugNtNtB9_4expr8ExprCastNtNtCs9f3LFPSIp77_4core3fmt5Debug3fmt, symObjAddr: 0x1A6B4, symBinAddr: 0x6F138, symSize: 0x4C }
  - { offset: 0x10BFE7, size: 0x8, addend: 0x0, symName: __RNvXsF_NtNtCsATtFUPiRFW_3syn3gen5debugNtNtB9_4expr11ExprClosureNtNtCs9f3LFPSIp77_4core3fmt5Debug3fmt, symObjAddr: 0x1A804, symBinAddr: 0x6F288, symSize: 0x4C }
  - { offset: 0x10C02A, size: 0x8, addend: 0x0, symName: __RNvXsH_NtNtCsATtFUPiRFW_3syn3gen5debugNtNtB9_4expr9ExprConstNtNtCs9f3LFPSIp77_4core3fmt5Debug3fmt, symObjAddr: 0x1AA60, symBinAddr: 0x6F4E4, symSize: 0x4C }
  - { offset: 0x10C06D, size: 0x8, addend: 0x0, symName: __RNvXsJ_NtNtCsATtFUPiRFW_3syn3gen5debugNtNtB9_4expr12ExprContinueNtNtCs9f3LFPSIp77_4core3fmt5Debug3fmt, symObjAddr: 0x1AB88, symBinAddr: 0x6F60C, symSize: 0x4C }
  - { offset: 0x10C0B0, size: 0x8, addend: 0x0, symName: __RNvXsL_NtNtCsATtFUPiRFW_3syn3gen5debugNtNtB9_4expr9ExprFieldNtNtCs9f3LFPSIp77_4core3fmt5Debug3fmt, symObjAddr: 0x1ACB0, symBinAddr: 0x6F734, symSize: 0x4C }
  - { offset: 0x10C0F3, size: 0x8, addend: 0x0, symName: __RNvXsN_NtNtCsATtFUPiRFW_3syn3gen5debugNtNtB9_4expr11ExprForLoopNtNtCs9f3LFPSIp77_4core3fmt5Debug3fmt, symObjAddr: 0x1AE00, symBinAddr: 0x6F884, symSize: 0x4C }
  - { offset: 0x10C136, size: 0x8, addend: 0x0, symName: __RNvXsP_NtNtCsATtFUPiRFW_3syn3gen5debugNtNtB9_4expr9ExprGroupNtNtCs9f3LFPSIp77_4core3fmt5Debug3fmt, symObjAddr: 0x1AFC8, symBinAddr: 0x6FA4C, symSize: 0x4C }
  - { offset: 0x10C179, size: 0x8, addend: 0x0, symName: __RNvXsR_NtNtCsATtFUPiRFW_3syn3gen5debugNtNtB9_4expr6ExprIfNtNtCs9f3LFPSIp77_4core3fmt5Debug3fmt, symObjAddr: 0x1B0F0, symBinAddr: 0x6FB74, symSize: 0x4C }
  - { offset: 0x10C1BC, size: 0x8, addend: 0x0, symName: __RNvXsT_NtNtCsATtFUPiRFW_3syn3gen5debugNtNtB9_4expr9ExprIndexNtNtCs9f3LFPSIp77_4core3fmt5Debug3fmt, symObjAddr: 0x1B268, symBinAddr: 0x6FCEC, symSize: 0x4C }
  - { offset: 0x10C1FF, size: 0x8, addend: 0x0, symName: __RNvXsV_NtNtCsATtFUPiRFW_3syn3gen5debugNtNtB9_4expr9ExprInferNtNtCs9f3LFPSIp77_4core3fmt5Debug3fmt, symObjAddr: 0x1B3B8, symBinAddr: 0x6FE3C, symSize: 0x4C }
  - { offset: 0x10C242, size: 0x8, addend: 0x0, symName: __RNvXsX_NtNtCsATtFUPiRFW_3syn3gen5debugNtNtB9_4expr7ExprLetNtNtCs9f3LFPSIp77_4core3fmt5Debug3fmt, symObjAddr: 0x1B4B8, symBinAddr: 0x6FF3C, symSize: 0x4C }
  - { offset: 0x10C285, size: 0x8, addend: 0x0, symName: __RNvXsZ_NtNtCsATtFUPiRFW_3syn3gen5debugNtNtB9_4expr7ExprLitNtNtCs9f3LFPSIp77_4core3fmt5Debug3fmt, symObjAddr: 0x1B630, symBinAddr: 0x700B4, symSize: 0x4C }
  - { offset: 0x10C2C8, size: 0x8, addend: 0x0, symName: __RNvXs11_NtNtCsATtFUPiRFW_3syn3gen5debugNtNtBa_4expr8ExprLoopNtNtCs9f3LFPSIp77_4core3fmt5Debug3fmt, symObjAddr: 0x1B730, symBinAddr: 0x701B4, symSize: 0x4C }
  - { offset: 0x10C30B, size: 0x8, addend: 0x0, symName: __RNvXs13_NtNtCsATtFUPiRFW_3syn3gen5debugNtNtBa_4expr9ExprMacroNtNtCs9f3LFPSIp77_4core3fmt5Debug3fmt, symObjAddr: 0x1B880, symBinAddr: 0x70304, symSize: 0x4C }
  - { offset: 0x10C34E, size: 0x8, addend: 0x0, symName: __RNvXs15_NtNtCsATtFUPiRFW_3syn3gen5debugNtNtBa_4expr9ExprMatchNtNtCs9f3LFPSIp77_4core3fmt5Debug3fmt, symObjAddr: 0x1B980, symBinAddr: 0x70404, symSize: 0x4C }
  - { offset: 0x10C391, size: 0x8, addend: 0x0, symName: __RNvXs17_NtNtCsATtFUPiRFW_3syn3gen5debugNtNtBa_4expr14ExprMethodCallNtNtCs9f3LFPSIp77_4core3fmt5Debug3fmt, symObjAddr: 0x1BAF8, symBinAddr: 0x7057C, symSize: 0x4C }
  - { offset: 0x10C3D4, size: 0x8, addend: 0x0, symName: __RNvXs19_NtNtCsATtFUPiRFW_3syn3gen5debugNtNtBa_4expr9ExprParenNtNtCs9f3LFPSIp77_4core3fmt5Debug3fmt, symObjAddr: 0x1BCC0, symBinAddr: 0x70744, symSize: 0x4C }
  - { offset: 0x10C417, size: 0x8, addend: 0x0, symName: __RNvXs1b_NtNtCsATtFUPiRFW_3syn3gen5debugNtNtBa_4expr8ExprPathNtNtCs9f3LFPSIp77_4core3fmt5Debug3fmt, symObjAddr: 0x1BDE8, symBinAddr: 0x7086C, symSize: 0x4C }
  - { offset: 0x10C45A, size: 0x8, addend: 0x0, symName: __RNvXs1d_NtNtCsATtFUPiRFW_3syn3gen5debugNtNtBa_4expr9ExprRangeNtNtCs9f3LFPSIp77_4core3fmt5Debug3fmt, symObjAddr: 0x1BF10, symBinAddr: 0x70994, symSize: 0x4C }
  - { offset: 0x10C49D, size: 0x8, addend: 0x0, symName: __RNvXs1f_NtNtCsATtFUPiRFW_3syn3gen5debugNtNtBa_4expr11ExprRawAddrNtNtCs9f3LFPSIp77_4core3fmt5Debug3fmt, symObjAddr: 0x1C060, symBinAddr: 0x70AE4, symSize: 0x4C }
  - { offset: 0x10C4E0, size: 0x8, addend: 0x0, symName: __RNvXs1h_NtNtCsATtFUPiRFW_3syn3gen5debugNtNtBa_4expr13ExprReferenceNtNtCs9f3LFPSIp77_4core3fmt5Debug3fmt, symObjAddr: 0x1C1D8, symBinAddr: 0x70C5C, symSize: 0x4C }
