---
triple:          'arm64-apple-darwin'
binary-path:     '/Users/teddy/code/zero_to_production/newsletter_server/target/debug/deps/libtime_macros-ba8bcd00b1d05929.dylib'
relocations:
  - { offset: 0x1E, size: 0x8, addend: 0x0, symName: __RNvXNtNtNtCsk0EuziVMDa8_11time_macros18format_description6public8modifierNtB2_6IgnoreNtNtB8_9to_tokens11ToTokenTree15into_token_tree, symObjAddr: 0x0, symBinAddr: 0x3448, symSize: 0x894 }
  - { offset: 0x554, size: 0x8, addend: 0x0, symName: __RNvXNtNtNtCsk0EuziVMDa8_11time_macros18format_description6public8modifierNtB2_6IgnoreNtNtB8_9to_tokens11ToTokenTree15into_token_tree, symObjAddr: 0x0, symBinAddr: 0x3448, symSize: 0x894 }
  - { offset: 0x5DC, size: 0x8, addend: 0x0, symName: __RNvXs_NtNtNtCsk0EuziVMDa8_11time_macros18format_description6public8modifierNtB4_3DayNtNtBa_9to_tokens11ToTokenTree15into_token_tree, symObjAddr: 0x1498, symBinAddr: 0x48E0, symSize: 0xD78 }
  - { offset: 0x639, size: 0x8, addend: 0x0, symName: __RNvXs0_NtNtNtCsk0EuziVMDa8_11time_macros18format_description6public8modifierNtB5_9MonthReprNtNtBb_9to_tokens13ToTokenStream9append_to, symObjAddr: 0x2210, symBinAddr: 0x5658, symSize: 0x758 }
  - { offset: 0x695, size: 0x8, addend: 0x0, symName: __RNvXs1_NtNtNtCsk0EuziVMDa8_11time_macros18format_description6public8modifierNtB5_5MonthNtNtBb_9to_tokens11ToTokenTree15into_token_tree, symObjAddr: 0x2968, symBinAddr: 0x5DB0, symSize: 0x124C }
  - { offset: 0x710, size: 0x8, addend: 0x0, symName: __RNvXs2_NtNtNtCsk0EuziVMDa8_11time_macros18format_description6public8modifierNtB5_7OrdinalNtNtBb_9to_tokens11ToTokenTree15into_token_tree, symObjAddr: 0x3BB4, symBinAddr: 0x6FFC, symSize: 0xD78 }
  - { offset: 0x76D, size: 0x8, addend: 0x0, symName: __RNvXs3_NtNtNtCsk0EuziVMDa8_11time_macros18format_description6public8modifierNtB5_11WeekdayReprNtNtBb_9to_tokens13ToTokenStream9append_to, symObjAddr: 0x492C, symBinAddr: 0x7D74, symSize: 0x798 }
  - { offset: 0x7C9, size: 0x8, addend: 0x0, symName: __RNvXs4_NtNtNtCsk0EuziVMDa8_11time_macros18format_description6public8modifierNtB5_7WeekdayNtNtBb_9to_tokens11ToTokenTree15into_token_tree, symObjAddr: 0x50C4, symBinAddr: 0x850C, symSize: 0x1258 }
  - { offset: 0x844, size: 0x8, addend: 0x0, symName: __RNvXs5_NtNtNtCsk0EuziVMDa8_11time_macros18format_description6public8modifierNtB5_14WeekNumberReprNtNtBb_9to_tokens13ToTokenStream9append_to, symObjAddr: 0x631C, symBinAddr: 0x9764, symSize: 0x758 }
  - { offset: 0x8A0, size: 0x8, addend: 0x0, symName: __RNvXs6_NtNtNtCsk0EuziVMDa8_11time_macros18format_description6public8modifierNtB5_10WeekNumberNtNtBb_9to_tokens11ToTokenTree15into_token_tree, symObjAddr: 0x6A74, symBinAddr: 0x9EBC, symSize: 0x1008 }
  - { offset: 0x90C, size: 0x8, addend: 0x0, symName: __RNvXs7_NtNtNtCsk0EuziVMDa8_11time_macros18format_description6public8modifierNtB5_8YearReprNtNtBb_9to_tokens13ToTokenStream9append_to, symObjAddr: 0x7A7C, symBinAddr: 0xAEC4, symSize: 0x758 }
  - { offset: 0x968, size: 0x8, addend: 0x0, symName: __RNvXs8_NtNtNtCsk0EuziVMDa8_11time_macros18format_description6public8modifierNtB5_4YearNtNtBb_9to_tokens11ToTokenTree15into_token_tree, symObjAddr: 0x81D4, symBinAddr: 0xB61C, symSize: 0x14C8 }
  - { offset: 0x9F2, size: 0x8, addend: 0x0, symName: __RNvXs9_NtNtNtCsk0EuziVMDa8_11time_macros18format_description6public8modifierNtB5_4HourNtNtBb_9to_tokens11ToTokenTree15into_token_tree, symObjAddr: 0x969C, symBinAddr: 0xCAE4, symSize: 0x1008 }
  - { offset: 0xA5E, size: 0x8, addend: 0x0, symName: __RNvXsa_NtNtNtCsk0EuziVMDa8_11time_macros18format_description6public8modifierNtB5_6MinuteNtNtBb_9to_tokens11ToTokenTree15into_token_tree, symObjAddr: 0xA6A4, symBinAddr: 0xDAEC, symSize: 0xD78 }
  - { offset: 0xABB, size: 0x8, addend: 0x0, symName: __RNvXsb_NtNtNtCsk0EuziVMDa8_11time_macros18format_description6public8modifierNtB5_6PeriodNtNtBb_9to_tokens11ToTokenTree15into_token_tree, symObjAddr: 0xB41C, symBinAddr: 0xE864, symSize: 0x1008 }
  - { offset: 0xB27, size: 0x8, addend: 0x0, symName: __RNvXsc_NtNtNtCsk0EuziVMDa8_11time_macros18format_description6public8modifierNtB5_6SecondNtNtBb_9to_tokens11ToTokenTree15into_token_tree, symObjAddr: 0xC424, symBinAddr: 0xF86C, symSize: 0xD78 }
  - { offset: 0xB84, size: 0x8, addend: 0x0, symName: __RNvXsd_NtNtNtCsk0EuziVMDa8_11time_macros18format_description6public8modifierNtB5_15SubsecondDigitsNtNtBb_9to_tokens13ToTokenStream9append_to, symObjAddr: 0xD19C, symBinAddr: 0x105E4, symSize: 0x918 }
  - { offset: 0xBE0, size: 0x8, addend: 0x0, symName: __RNvXse_NtNtNtCsk0EuziVMDa8_11time_macros18format_description6public8modifierNtB5_9SubsecondNtNtBb_9to_tokens11ToTokenTree15into_token_tree, symObjAddr: 0xDAB4, symBinAddr: 0x10EFC, symSize: 0xD78 }
  - { offset: 0xC3D, size: 0x8, addend: 0x0, symName: __RNvXsf_NtNtNtCsk0EuziVMDa8_11time_macros18format_description6public8modifierNtB5_10OffsetHourNtNtBb_9to_tokens11ToTokenTree15into_token_tree, symObjAddr: 0xE82C, symBinAddr: 0x11C74, symSize: 0x1008 }
  - { offset: 0xCA9, size: 0x8, addend: 0x0, symName: __RNvXsg_NtNtNtCsk0EuziVMDa8_11time_macros18format_description6public8modifierNtB5_12OffsetMinuteNtNtBb_9to_tokens11ToTokenTree15into_token_tree, symObjAddr: 0xF834, symBinAddr: 0x12C7C, symSize: 0xD78 }
  - { offset: 0xD06, size: 0x8, addend: 0x0, symName: __RNvXsh_NtNtNtCsk0EuziVMDa8_11time_macros18format_description6public8modifierNtB5_12OffsetSecondNtNtBb_9to_tokens11ToTokenTree15into_token_tree, symObjAddr: 0x105AC, symBinAddr: 0x139F4, symSize: 0xD78 }
  - { offset: 0xD63, size: 0x8, addend: 0x0, symName: __RNvXsi_NtNtNtCsk0EuziVMDa8_11time_macros18format_description6public8modifierNtB5_7PaddingNtNtBb_9to_tokens13ToTokenStream9append_to, symObjAddr: 0x11324, symBinAddr: 0x1476C, symSize: 0x758 }
  - { offset: 0xDBF, size: 0x8, addend: 0x0, symName: __RNvXsj_NtNtNtCsk0EuziVMDa8_11time_macros18format_description6public8modifierNtB5_22UnixTimestampPrecisionNtNtBb_9to_tokens13ToTokenStream9append_to, symObjAddr: 0x11A7C, symBinAddr: 0x14EC4, symSize: 0x798 }
  - { offset: 0xE1B, size: 0x8, addend: 0x0, symName: __RNvXsk_NtNtNtCsk0EuziVMDa8_11time_macros18format_description6public8modifierNtB5_13UnixTimestampNtNtBb_9to_tokens11ToTokenTree15into_token_tree, symObjAddr: 0x12214, symBinAddr: 0x1565C, symSize: 0x1008 }
  - { offset: 0xE87, size: 0x8, addend: 0x0, symName: __RNvXsl_NtNtNtCsk0EuziVMDa8_11time_macros18format_description6public8modifierNtB5_3EndNtNtBb_9to_tokens11ToTokenTree15into_token_tree, symObjAddr: 0x1321C, symBinAddr: 0x16664, symSize: 0xB00 }
  - { offset: 0x11D1, size: 0x8, addend: 0x0, symName: __RNvXso_NtNtCsk0EuziVMDa8_11time_macros18format_description11format_itemNtNtNtB7_6public8modifier9MonthReprINtNtCs9f3LFPSIp77_4core7convert4FromNtB5_9MonthReprE4from, symObjAddr: 0xEF8, symBinAddr: 0x4340, symSize: 0x90 }
  - { offset: 0x1205, size: 0x8, addend: 0x0, symName: __RNvXsq_NtNtCsk0EuziVMDa8_11time_macros18format_description11format_itemNtNtNtB7_6public8modifier7PaddingINtNtCs9f3LFPSIp77_4core7convert4FromNtB5_7PaddingE4from, symObjAddr: 0xF88, symBinAddr: 0x43D0, symSize: 0x90 }
  - { offset: 0x1239, size: 0x8, addend: 0x0, symName: __RNvXsy_NtNtCsk0EuziVMDa8_11time_macros18format_description11format_itemNtNtNtB7_6public8modifier15SubsecondDigitsINtNtCs9f3LFPSIp77_4core7convert4FromNtB5_15SubsecondDigitsE4from, symObjAddr: 0x1018, symBinAddr: 0x4460, symSize: 0x1E0 }
  - { offset: 0x126D, size: 0x8, addend: 0x0, symName: __RNvXsA_NtNtCsk0EuziVMDa8_11time_macros18format_description11format_itemNtNtNtB7_6public8modifier22UnixTimestampPrecisionINtNtCs9f3LFPSIp77_4core7convert4FromNtB5_22UnixTimestampPrecisionE4from, symObjAddr: 0x11F8, symBinAddr: 0x4640, symSize: 0xC0 }
  - { offset: 0x12A1, size: 0x8, addend: 0x0, symName: __RNvXsC_NtNtCsk0EuziVMDa8_11time_macros18format_description11format_itemNtNtNtB7_6public8modifier14WeekNumberReprINtNtCs9f3LFPSIp77_4core7convert4FromNtB5_14WeekNumberReprE4from, symObjAddr: 0x12B8, symBinAddr: 0x4700, symSize: 0x90 }
  - { offset: 0x12D5, size: 0x8, addend: 0x0, symName: __RNvXsI_NtNtCsk0EuziVMDa8_11time_macros18format_description11format_itemNtNtNtB7_6public8modifier11WeekdayReprINtNtCs9f3LFPSIp77_4core7convert4FromNtB5_11WeekdayReprE4from, symObjAddr: 0x1348, symBinAddr: 0x4790, symSize: 0xC0 }
  - { offset: 0x1309, size: 0x8, addend: 0x0, symName: __RNvXsM_NtNtCsk0EuziVMDa8_11time_macros18format_description11format_itemNtNtNtB7_6public8modifier8YearReprINtNtCs9f3LFPSIp77_4core7convert4FromNtB5_8YearReprE4from, symObjAddr: 0x1408, symBinAddr: 0x4850, symSize: 0x90 }
  - { offset: 0x1344, size: 0x8, addend: 0x0, symName: __RNvXNtCsk0EuziVMDa8_11time_macros9to_tokensNtNtNtNtB4_18format_description6public8modifier10OffsetHourNtB2_13ToTokenStream9append_toB4_, symObjAddr: 0x894, symBinAddr: 0x3CDC, symSize: 0x5C }
  - { offset: 0x1383, size: 0x8, addend: 0x0, symName: __RNvXNtCsk0EuziVMDa8_11time_macros9to_tokensNtNtNtNtB4_18format_description6public8modifier10WeekNumberNtB2_13ToTokenStream9append_toB4_, symObjAddr: 0x8F0, symBinAddr: 0x3D38, symSize: 0x5C }
  - { offset: 0x13C2, size: 0x8, addend: 0x0, symName: __RNvXNtCsk0EuziVMDa8_11time_macros9to_tokensNtNtNtNtB4_18format_description6public8modifier12OffsetMinuteNtB2_13ToTokenStream9append_toB4_, symObjAddr: 0x94C, symBinAddr: 0x3D94, symSize: 0x58 }
  - { offset: 0x1401, size: 0x8, addend: 0x0, symName: __RNvXNtCsk0EuziVMDa8_11time_macros9to_tokensNtNtNtNtB4_18format_description6public8modifier12OffsetSecondNtB2_13ToTokenStream9append_toB4_, symObjAddr: 0x9A4, symBinAddr: 0x3DEC, symSize: 0x58 }
  - { offset: 0x1440, size: 0x8, addend: 0x0, symName: __RNvXNtCsk0EuziVMDa8_11time_macros9to_tokensNtNtNtNtB4_18format_description6public8modifier13UnixTimestampNtB2_13ToTokenStream9append_toB4_, symObjAddr: 0x9FC, symBinAddr: 0x3E44, symSize: 0x5C }
  - { offset: 0x147F, size: 0x8, addend: 0x0, symName: __RNvXNtCsk0EuziVMDa8_11time_macros9to_tokensNtNtNtNtB4_18format_description6public8modifier3DayNtB2_13ToTokenStream9append_toB4_, symObjAddr: 0xA58, symBinAddr: 0x3EA0, symSize: 0x58 }
  - { offset: 0x14BE, size: 0x8, addend: 0x0, symName: __RNvXNtCsk0EuziVMDa8_11time_macros9to_tokensNtNtNtNtB4_18format_description6public8modifier3EndNtB2_13ToTokenStream9append_toB4_, symObjAddr: 0xAB0, symBinAddr: 0x3EF8, symSize: 0x54 }
  - { offset: 0x14FD, size: 0x8, addend: 0x0, symName: __RNvXNtCsk0EuziVMDa8_11time_macros9to_tokensNtNtNtNtB4_18format_description6public8modifier4HourNtB2_13ToTokenStream9append_toB4_, symObjAddr: 0xB04, symBinAddr: 0x3F4C, symSize: 0x5C }
  - { offset: 0x153C, size: 0x8, addend: 0x0, symName: __RNvXNtCsk0EuziVMDa8_11time_macros9to_tokensNtNtNtNtB4_18format_description6public8modifier4YearNtB2_13ToTokenStream9append_toB4_, symObjAddr: 0xB60, symBinAddr: 0x3FA8, symSize: 0x6C }
  - { offset: 0x157B, size: 0x8, addend: 0x0, symName: __RNvXNtCsk0EuziVMDa8_11time_macros9to_tokensNtNtNtNtB4_18format_description6public8modifier5MonthNtB2_13ToTokenStream9append_toB4_, symObjAddr: 0xBCC, symBinAddr: 0x4014, symSize: 0x8C }
  - { offset: 0x15BA, size: 0x8, addend: 0x0, symName: __RNvXNtCsk0EuziVMDa8_11time_macros9to_tokensNtNtNtNtB4_18format_description6public8modifier6IgnoreNtB2_13ToTokenStream9append_toB4_, symObjAddr: 0xC58, symBinAddr: 0x40A0, symSize: 0x58 }
  - { offset: 0x15F9, size: 0x8, addend: 0x0, symName: __RNvXNtCsk0EuziVMDa8_11time_macros9to_tokensNtNtNtNtB4_18format_description6public8modifier6MinuteNtB2_13ToTokenStream9append_toB4_, symObjAddr: 0xCB0, symBinAddr: 0x40F8, symSize: 0x58 }
  - { offset: 0x1638, size: 0x8, addend: 0x0, symName: __RNvXNtCsk0EuziVMDa8_11time_macros9to_tokensNtNtNtNtB4_18format_description6public8modifier6PeriodNtB2_13ToTokenStream9append_toB4_, symObjAddr: 0xD08, symBinAddr: 0x4150, symSize: 0x5C }
  - { offset: 0x1677, size: 0x8, addend: 0x0, symName: __RNvXNtCsk0EuziVMDa8_11time_macros9to_tokensNtNtNtNtB4_18format_description6public8modifier6SecondNtB2_13ToTokenStream9append_toB4_, symObjAddr: 0xD64, symBinAddr: 0x41AC, symSize: 0x58 }
  - { offset: 0x16B6, size: 0x8, addend: 0x0, symName: __RNvXNtCsk0EuziVMDa8_11time_macros9to_tokensNtNtNtNtB4_18format_description6public8modifier7OrdinalNtB2_13ToTokenStream9append_toB4_, symObjAddr: 0xDBC, symBinAddr: 0x4204, symSize: 0x58 }
  - { offset: 0x16F5, size: 0x8, addend: 0x0, symName: __RNvXNtCsk0EuziVMDa8_11time_macros9to_tokensNtNtNtNtB4_18format_description6public8modifier7WeekdayNtB2_13ToTokenStream9append_toB4_, symObjAddr: 0xE14, symBinAddr: 0x425C, symSize: 0x8C }
  - { offset: 0x1734, size: 0x8, addend: 0x0, symName: __RNvXNtCsk0EuziVMDa8_11time_macros9to_tokensNtNtNtNtB4_18format_description6public8modifier9SubsecondNtB2_13ToTokenStream9append_toB4_, symObjAddr: 0xEA0, symBinAddr: 0x42E8, symSize: 0x58 }
  - { offset: 0x1956, size: 0x8, addend: 0x0, symName: __RINvMsi_NtCsdze8u8oDPro_5alloc3vecINtB6_3VecNtNtNtCsk0EuziVMDa8_11time_macros18format_description3ast4ItemE16extend_desugaredINtNtNtCs9f3LFPSIp77_4core4iter8adapters12GenericShuntINtNtNtB24_7sources7from_fn6FromFnNCINvBI_11parse_innerIB2S_NCINvNtBK_5lexer3lexKh1_E0EKb1_KB4a_E0EINtNtB26_6result6ResultNtNtB26_7convert10InfallibleNtBK_5ErrorEEEBM_, symObjAddr: 0x0, symBinAddr: 0x17170, symSize: 0x1F4 }
  - { offset: 0x6D48, size: 0x8, addend: 0x0, symName: __RINvXsd_NtCsdze8u8oDPro_5alloc3vecINtB6_3VecINtNtB8_5boxed3BoxSNtNtNtCsk0EuziVMDa8_11time_macros18format_description11format_item4ItemEEINtNtNtNtCs9f3LFPSIp77_4core4iter6traits7collect12FromIteratorBG_E9from_iterINtNtB2h_8adapters12GenericShuntINtNtB3r_3map3MapINtNtB6_9into_iter8IntoIterNtNtB13_3ast23NestedFormatDescriptionENCNvMB11_BZ_8from_ast0EINtNtB2j_6result6ResultNtNtB2j_7convert10InfallibleNtB13_5ErrorEEEB15_, symObjAddr: 0x934, symBinAddr: 0x17AA4, symSize: 0x34 }
  - { offset: 0x6D89, size: 0x8, addend: 0x0, symName: __RINvXsd_NtCsdze8u8oDPro_5alloc3vecINtB6_3VecNtNtNtCsk0EuziVMDa8_11time_macros18format_description11format_item4ItemEINtNtNtNtCs9f3LFPSIp77_4core4iter6traits7collect12FromIteratorBG_E9from_iterINtNtB1X_8adapters12GenericShuntINtNtB37_3map3MapINtNtB6_9into_iter8IntoIterNtNtBK_3ast4ItemENvMBI_BG_8from_astEINtNtB1Z_6result6ResultNtNtB1Z_7convert10InfallibleNtBK_5ErrorEEEBM_, symObjAddr: 0x968, symBinAddr: 0x17AD8, symSize: 0x34 }
  - { offset: 0x6DCA, size: 0x8, addend: 0x0, symName: __RINvXsd_NtCsdze8u8oDPro_5alloc3vecINtB6_3VecNtNtNtCsk0EuziVMDa8_11time_macros18format_description3ast4ItemEINtNtNtNtCs9f3LFPSIp77_4core4iter6traits7collect12FromIteratorBG_E9from_iterINtNtB1O_8adapters12GenericShuntINtNtNtB1O_7sources7from_fn6FromFnNCINvBI_11parse_innerIB3s_NCINvNtBK_5lexer3lexKh1_E0EKb1_KB4K_E0EINtNtB1Q_6result6ResultNtNtB1Q_7convert10InfallibleNtBK_5ErrorEEEBM_, symObjAddr: 0x99C, symBinAddr: 0x17B0C, symSize: 0x38 }
  - { offset: 0x6E0A, size: 0x8, addend: 0x0, symName: __RINvXsd_NtCsdze8u8oDPro_5alloc3vecINtB6_3VecNtNtNtCsk0EuziVMDa8_11time_macros18format_description3ast4ItemEINtNtNtNtCs9f3LFPSIp77_4core4iter6traits7collect12FromIteratorBG_E9from_iterINtNtB1O_8adapters12GenericShuntINtNtNtB1O_7sources7from_fn6FromFnNCINvBI_11parse_innerIB3s_NCINvNtBK_5lexer3lexKh2_E0EKb1_KB4K_E0EINtNtB1Q_6result6ResultNtNtB1Q_7convert10InfallibleNtBK_5ErrorEEEBM_, symObjAddr: 0x9D4, symBinAddr: 0x17B44, symSize: 0x38 }
  - { offset: 0x6E4A, size: 0x8, addend: 0x0, symName: __RINvXsd_NtCsdze8u8oDPro_5alloc3vecINtB6_3VecNtNtNtCsk0EuziVMDa8_11time_macros18format_description6public15OwnedFormatItemEINtNtNtNtCs9f3LFPSIp77_4core4iter6traits7collect12FromIteratorBG_E9from_iterINtNtB23_8adapters12GenericShuntINtNtB3d_3map3MapIB3H_INtNtNtB23_7sources7from_fn6FromFnNCINvNtBK_3ast11parse_innerIB43_NCINvNtBK_5lexer3lexKh1_E0EKb0_KB5r_E0ENCINvNtBK_11format_item5parseB42_E0ENCINvBK_5parseKB5r_E0EINtNtB25_6result6ResultNtNtB25_7convert10InfallibleNtBK_5ErrorEEEBM_, symObjAddr: 0xA0C, symBinAddr: 0x17B7C, symSize: 0x38 }
  - { offset: 0x6E8A, size: 0x8, addend: 0x0, symName: __RINvXsd_NtCsdze8u8oDPro_5alloc3vecINtB6_3VecNtNtNtCsk0EuziVMDa8_11time_macros18format_description6public15OwnedFormatItemEINtNtNtNtCs9f3LFPSIp77_4core4iter6traits7collect12FromIteratorBG_E9from_iterINtNtB23_8adapters12GenericShuntINtNtB3d_3map3MapIB3H_INtNtNtB23_7sources7from_fn6FromFnNCINvNtBK_3ast11parse_innerIB43_NCINvNtBK_5lexer3lexKh2_E0EKb0_KB5r_E0ENCINvNtBK_11format_item5parseB42_E0ENCINvBK_5parseKB5r_E0EINtNtB25_6result6ResultNtNtB25_7convert10InfallibleNtBK_5ErrorEEEBM_, symObjAddr: 0xA44, symBinAddr: 0x17BB4, symSize: 0x38 }
  - { offset: 0x6ECA, size: 0x8, addend: 0x0, symName: __RINvXsd_NtCsdze8u8oDPro_5alloc3vecINtB6_3VecNtNtNtCsk0EuziVMDa8_11time_macros18format_description6public15OwnedFormatItemEINtNtNtNtCs9f3LFPSIp77_4core4iter6traits7collect12FromIteratorBG_E9from_iterINtNtNtB23_8adapters3map3MapINtNtB6_9into_iter8IntoIterINtNtB8_5boxed3BoxSNtNtBK_11format_item4ItemEENvYB43_INtNtB25_7convert4IntoBG_E4intoEEBM_, symObjAddr: 0xA7C, symBinAddr: 0x17BEC, symSize: 0x34 }
  - { offset: 0x6F0B, size: 0x8, addend: 0x0, symName: __RINvXsd_NtCsdze8u8oDPro_5alloc3vecINtB6_3VecNtNtNtCsk0EuziVMDa8_11time_macros18format_description6public15OwnedFormatItemEINtNtNtNtCs9f3LFPSIp77_4core4iter6traits7collect12FromIteratorBG_E9from_iterINtNtNtB23_8adapters3map3MapINtNtB6_9into_iter8IntoIterNtNtBK_11format_item4ItemENvYB43_INtNtB25_7convert4IntoBG_E4intoEEBM_, symObjAddr: 0xAB0, symBinAddr: 0x17C20, symSize: 0x34 }
  - { offset: 0x6F57, size: 0x8, addend: 0x0, symName: __RNCINvMsi_NtCsdze8u8oDPro_5alloc3vecINtB8_3VecNtNtNtCsk0EuziVMDa8_11time_macros18format_description6public15OwnedFormatItemE14extend_trustedINtNtNtNtCs9f3LFPSIp77_4core4iter8adapters3map3MapINtNtB8_9into_iter8IntoIterINtNtBa_5boxed3BoxSNtNtBM_11format_item4ItemEENvYB3t_INtNtB2n_7convert4IntoBI_E4intoEE0BO_, symObjAddr: 0xAE4, symBinAddr: 0x17C54, symSize: 0x6C }
  - { offset: 0x76E1, size: 0x8, addend: 0x0, symName: __RNvXNtNtCsdze8u8oDPro_5alloc3vec11spec_extendINtB4_3VecNtNtNtCsk0EuziVMDa8_11time_macros18format_description3ast4ItemEINtB2_10SpecExtendBR_INtNtNtCs9f3LFPSIp77_4core4iter8adapters12GenericShuntINtNtNtB2i_7sources7from_fn6FromFnNCINvBT_11parse_innerIB36_NCINvNtBV_5lexer3lexKh1_E0EKb1_KB4o_E0EINtNtB2k_6result6ResultNtNtB2k_7convert10InfallibleNtBV_5ErrorEEE11spec_extendBX_, symObjAddr: 0x1DC4, symBinAddr: 0x18F34, symSize: 0x34 }
  - { offset: 0x7732, size: 0x8, addend: 0x0, symName: __RNvXNtNtCsdze8u8oDPro_5alloc3vec11spec_extendINtB4_3VecNtNtNtCsk0EuziVMDa8_11time_macros18format_description3ast4ItemEINtB2_10SpecExtendBR_INtNtNtCs9f3LFPSIp77_4core4iter8adapters12GenericShuntINtNtNtB2i_7sources7from_fn6FromFnNCINvBT_11parse_innerIB36_NCINvNtBV_5lexer3lexKh2_E0EKb1_KB4o_E0EINtNtB2k_6result6ResultNtNtB2k_7convert10InfallibleNtBV_5ErrorEEE11spec_extendBX_, symObjAddr: 0x1DF8, symBinAddr: 0x18F68, symSize: 0x34 }
  - { offset: 0x7783, size: 0x8, addend: 0x0, symName: __RNvXNtNtCsdze8u8oDPro_5alloc3vec11spec_extendINtB4_3VecNtNtNtCsk0EuziVMDa8_11time_macros18format_description6public15OwnedFormatItemEINtB2_10SpecExtendBR_INtNtNtCs9f3LFPSIp77_4core4iter8adapters12GenericShuntINtNtB2v_3map3MapIB3l_INtNtNtB2x_7sources7from_fn6FromFnNCINvNtBV_3ast11parse_innerIB3H_NCINvNtBV_5lexer3lexKh1_E0EKb0_KB55_E0ENCINvNtBV_11format_item5parseB3G_E0ENCINvBV_5parseKB55_E0EINtNtB2z_6result6ResultNtNtB2z_7convert10InfallibleNtBV_5ErrorEEE11spec_extendBX_, symObjAddr: 0x1E2C, symBinAddr: 0x18F9C, symSize: 0x34 }
  - { offset: 0x77D4, size: 0x8, addend: 0x0, symName: __RNvXNtNtCsdze8u8oDPro_5alloc3vec11spec_extendINtB4_3VecNtNtNtCsk0EuziVMDa8_11time_macros18format_description6public15OwnedFormatItemEINtB2_10SpecExtendBR_INtNtNtCs9f3LFPSIp77_4core4iter8adapters12GenericShuntINtNtB2v_3map3MapIB3l_INtNtNtB2x_7sources7from_fn6FromFnNCINvNtBV_3ast11parse_innerIB3H_NCINvNtBV_5lexer3lexKh2_E0EKb0_KB55_E0ENCINvNtBV_11format_item5parseB3G_E0ENCINvBV_5parseKB55_E0EINtNtB2z_6result6ResultNtNtB2z_7convert10InfallibleNtBV_5ErrorEEE11spec_extendBX_, symObjAddr: 0x1E60, symBinAddr: 0x18FD0, symSize: 0x34 }
  - { offset: 0x782B, size: 0x8, addend: 0x0, symName: __RNvXs_NtNtCsdze8u8oDPro_5alloc3vec11spec_extendINtB6_3VecNtNtNtCsk0EuziVMDa8_11time_macros18format_description6public15OwnedFormatItemEINtB4_10SpecExtendBT_INtNtNtNtCs9f3LFPSIp77_4core4iter8adapters3map3MapINtNtB6_9into_iter8IntoIterINtNtB8_5boxed3BoxSNtNtBX_11format_item4ItemEENvYB3J_INtNtB2D_7convert4IntoBT_E4intoEE11spec_extendBZ_, symObjAddr: 0x2850, symBinAddr: 0x199C0, symSize: 0x24 }
  - { offset: 0x7889, size: 0x8, addend: 0x0, symName: __RNvXNtNtCsdze8u8oDPro_5alloc3vec14spec_from_iterINtB4_3VecNtNtNtCsk0EuziVMDa8_11time_macros18format_description3ast4ItemEINtB2_12SpecFromIterBU_INtNtNtCs9f3LFPSIp77_4core4iter8adapters12GenericShuntINtNtNtB2n_7sources7from_fn6FromFnNCINvBW_11parse_innerIB3b_NCINvNtBY_5lexer3lexKh1_E0EKb1_KB4t_E0EINtNtB2p_6result6ResultNtNtB2p_7convert10InfallibleNtBY_5ErrorEEE9from_iterB10_, symObjAddr: 0x1E94, symBinAddr: 0x19004, symSize: 0x2C }
  - { offset: 0x78C7, size: 0x8, addend: 0x0, symName: __RNvXNtNtCsdze8u8oDPro_5alloc3vec14spec_from_iterINtB4_3VecNtNtNtCsk0EuziVMDa8_11time_macros18format_description3ast4ItemEINtB2_12SpecFromIterBU_INtNtNtCs9f3LFPSIp77_4core4iter8adapters12GenericShuntINtNtNtB2n_7sources7from_fn6FromFnNCINvBW_11parse_innerIB3b_NCINvNtBY_5lexer3lexKh2_E0EKb1_KB4t_E0EINtNtB2p_6result6ResultNtNtB2p_7convert10InfallibleNtBY_5ErrorEEE9from_iterB10_, symObjAddr: 0x1EC0, symBinAddr: 0x19030, symSize: 0x2C }
  - { offset: 0x7905, size: 0x8, addend: 0x0, symName: __RNvXNtNtCsdze8u8oDPro_5alloc3vec14spec_from_iterINtB4_3VecNtNtNtCsk0EuziVMDa8_11time_macros18format_description6public15OwnedFormatItemEINtB2_12SpecFromIterBU_INtNtNtCs9f3LFPSIp77_4core4iter8adapters12GenericShuntINtNtB2A_3map3MapIB3q_INtNtNtB2C_7sources7from_fn6FromFnNCINvNtBY_3ast11parse_innerIB3M_NCINvNtBY_5lexer3lexKh1_E0EKb0_KB5a_E0ENCINvNtBY_11format_item5parseB3L_E0ENCINvBY_5parseKB5a_E0EINtNtB2E_6result6ResultNtNtB2E_7convert10InfallibleNtBY_5ErrorEEE9from_iterB10_, symObjAddr: 0x1EEC, symBinAddr: 0x1905C, symSize: 0x2C }
  - { offset: 0x7943, size: 0x8, addend: 0x0, symName: __RNvXNtNtCsdze8u8oDPro_5alloc3vec14spec_from_iterINtB4_3VecNtNtNtCsk0EuziVMDa8_11time_macros18format_description6public15OwnedFormatItemEINtB2_12SpecFromIterBU_INtNtNtCs9f3LFPSIp77_4core4iter8adapters12GenericShuntINtNtB2A_3map3MapIB3q_INtNtNtB2C_7sources7from_fn6FromFnNCINvNtBY_3ast11parse_innerIB3M_NCINvNtBY_5lexer3lexKh2_E0EKb0_KB5a_E0ENCINvNtBY_11format_item5parseB3L_E0ENCINvBY_5parseKB5a_E0EINtNtB2E_6result6ResultNtNtB2E_7convert10InfallibleNtBY_5ErrorEEE9from_iterB10_, symObjAddr: 0x1F18, symBinAddr: 0x19088, symSize: 0x2C }
  - { offset: 0x798D, size: 0x8, addend: 0x0, symName: __RNvXNtNtCsdze8u8oDPro_5alloc3vec21spec_from_iter_nestedINtB4_3VecNtNtNtCsk0EuziVMDa8_11time_macros18format_description3ast4ItemEINtB2_18SpecFromIterNestedB11_INtNtNtCs9f3LFPSIp77_4core4iter8adapters12GenericShuntINtNtNtB2B_7sources7from_fn6FromFnNCINvB13_11parse_innerIB3p_NCINvNtB15_5lexer3lexKh1_E0EKb1_KB4J_E0EINtNtB2D_6result6ResultNtNtB2D_7convert10InfallibleNtB15_5ErrorEEE9from_iterB17_, symObjAddr: 0x1F44, symBinAddr: 0x190B4, symSize: 0x240 }
  - { offset: 0x7C9F, size: 0x8, addend: 0x0, symName: __RNvXNtNtCsdze8u8oDPro_5alloc3vec21spec_from_iter_nestedINtB4_3VecNtNtNtCsk0EuziVMDa8_11time_macros18format_description3ast4ItemEINtB2_18SpecFromIterNestedB11_INtNtNtCs9f3LFPSIp77_4core4iter8adapters12GenericShuntINtNtNtB2B_7sources7from_fn6FromFnNCINvB13_11parse_innerIB3p_NCINvNtB15_5lexer3lexKh2_E0EKb1_KB4J_E0EINtNtB2D_6result6ResultNtNtB2D_7convert10InfallibleNtB15_5ErrorEEE9from_iterB17_, symObjAddr: 0x2184, symBinAddr: 0x192F4, symSize: 0x240 }
  - { offset: 0x7FB1, size: 0x8, addend: 0x0, symName: __RNvXNtNtCsdze8u8oDPro_5alloc3vec21spec_from_iter_nestedINtB4_3VecNtNtNtCsk0EuziVMDa8_11time_macros18format_description6public15OwnedFormatItemEINtB2_18SpecFromIterNestedB11_INtNtNtCs9f3LFPSIp77_4core4iter8adapters12GenericShuntINtNtB2O_3map3MapIB3E_INtNtNtB2Q_7sources7from_fn6FromFnNCINvNtB15_3ast11parse_innerIB40_NCINvNtB15_5lexer3lexKh1_E0EKb0_KB5q_E0ENCINvNtB15_11format_item5parseB3Z_E0ENCINvB15_5parseKB5q_E0EINtNtB2S_6result6ResultNtNtB2S_7convert10InfallibleNtB15_5ErrorEEE9from_iterB17_, symObjAddr: 0x23C4, symBinAddr: 0x19534, symSize: 0x234 }
  - { offset: 0x82C1, size: 0x8, addend: 0x0, symName: __RNvXNtNtCsdze8u8oDPro_5alloc3vec21spec_from_iter_nestedINtB4_3VecNtNtNtCsk0EuziVMDa8_11time_macros18format_description6public15OwnedFormatItemEINtB2_18SpecFromIterNestedB11_INtNtNtCs9f3LFPSIp77_4core4iter8adapters12GenericShuntINtNtB2O_3map3MapIB3E_INtNtNtB2Q_7sources7from_fn6FromFnNCINvNtB15_3ast11parse_innerIB40_NCINvNtB15_5lexer3lexKh2_E0EKb0_KB5q_E0ENCINvNtB15_11format_item5parseB3Z_E0ENCINvB15_5parseKB5q_E0EINtNtB2S_6result6ResultNtNtB2S_7convert10InfallibleNtB15_5ErrorEEE9from_iterB17_, symObjAddr: 0x25F8, symBinAddr: 0x19768, symSize: 0x234 }
  - { offset: 0x85D7, size: 0x8, addend: 0x0, symName: __RNvXs_NtNtCsdze8u8oDPro_5alloc3vec21spec_from_iter_nestedINtB6_3VecNtNtNtCsk0EuziVMDa8_11time_macros18format_description6public15OwnedFormatItemEINtB4_18SpecFromIterNestedB13_INtNtNtNtCs9f3LFPSIp77_4core4iter8adapters3map3MapINtNtB6_9into_iter8IntoIterINtNtB8_5boxed3BoxSNtNtB17_11format_item4ItemEENvYB42_INtNtB2W_7convert4IntoB13_E4intoEE9from_iterB19_, symObjAddr: 0x2914, symBinAddr: 0x19A84, symSize: 0x16C }
  - { offset: 0x86B5, size: 0x8, addend: 0x0, symName: __RNvXs6_NtCsdze8u8oDPro_5alloc3vecINtB5_3VechENtNtNtCs9f3LFPSIp77_4core3ops5deref5Deref5derefCsk0EuziVMDa8_11time_macros, symObjAddr: 0x282C, symBinAddr: 0x1999C, symSize: 0x24 }
  - { offset: 0x8700, size: 0x8, addend: 0x0, symName: __RNvXs_NtNtCsdze8u8oDPro_5alloc3vec16in_place_collectINtB6_3VecINtNtB8_5boxed3BoxSNtNtNtCsk0EuziVMDa8_11time_macros18format_description11format_item4ItemEEINtNtB6_14spec_from_iter12SpecFromIterBY_INtNtNtCs9f3LFPSIp77_4core4iter8adapters12GenericShuntINtNtB3a_3map3MapINtNtB6_9into_iter8IntoIterNtNtB1l_3ast23NestedFormatDescriptionENCNvMB1j_B1h_8from_ast0EINtNtB3e_6result6ResultNtNtB3e_7convert10InfallibleNtB1l_5ErrorEEE9from_iterB1n_, symObjAddr: 0x2874, symBinAddr: 0x199E4, symSize: 0x28 }
  - { offset: 0x875C, size: 0x8, addend: 0x0, symName: __RNvXs_NtNtCsdze8u8oDPro_5alloc3vec16in_place_collectINtB6_3VecNtNtNtCsk0EuziVMDa8_11time_macros18format_description11format_item4ItemEINtNtB6_14spec_from_iter12SpecFromIterBY_INtNtNtCs9f3LFPSIp77_4core4iter8adapters12GenericShuntINtNtB2Q_3map3MapINtNtB6_9into_iter8IntoIterNtNtB12_3ast4ItemENvMB10_BY_8from_astEINtNtB2U_6result6ResultNtNtB2U_7convert10InfallibleNtB12_5ErrorEEE9from_iterB14_, symObjAddr: 0x289C, symBinAddr: 0x19A0C, symSize: 0x28 }
  - { offset: 0x87B8, size: 0x8, addend: 0x0, symName: __RNvXs_NtNtCsdze8u8oDPro_5alloc3vec16in_place_collectINtB6_3VecNtNtNtCsk0EuziVMDa8_11time_macros18format_description6public15OwnedFormatItemEINtNtB6_14spec_from_iter12SpecFromIterBY_INtNtNtNtCs9f3LFPSIp77_4core4iter8adapters3map3MapINtNtB6_9into_iter8IntoIterINtNtB8_5boxed3BoxSNtNtB12_11format_item4ItemEENvYB48_INtNtB32_7convert4IntoBY_E4intoEE9from_iterB14_, symObjAddr: 0x28C4, symBinAddr: 0x19A34, symSize: 0x28 }
  - { offset: 0x8814, size: 0x8, addend: 0x0, symName: __RNvXs_NtNtCsdze8u8oDPro_5alloc3vec16in_place_collectINtB6_3VecNtNtNtCsk0EuziVMDa8_11time_macros18format_description6public15OwnedFormatItemEINtNtB6_14spec_from_iter12SpecFromIterBY_INtNtNtNtCs9f3LFPSIp77_4core4iter8adapters3map3MapINtNtB6_9into_iter8IntoIterNtNtB12_11format_item4ItemENvYB48_INtNtB32_7convert4IntoBY_E4intoEE9from_iterB14_, symObjAddr: 0x28EC, symBinAddr: 0x19A5C, symSize: 0x28 }
  - { offset: 0x8877, size: 0x8, addend: 0x0, symName: __RNvXse_NtCsdze8u8oDPro_5alloc3vecINtB5_3VecINtNtB7_5boxed3BoxSNtNtNtCsk0EuziVMDa8_11time_macros18format_description11format_item4ItemEENtNtNtNtCs9f3LFPSIp77_4core4iter6traits7collect12IntoIterator9into_iterB14_, symObjAddr: 0x2A80, symBinAddr: 0x19BF0, symSize: 0xF8 }
  - { offset: 0x8B46, size: 0x8, addend: 0x0, symName: __RNvXse_NtCsdze8u8oDPro_5alloc3vecINtB5_3VecNtNtNtCsk0EuziVMDa8_11time_macros18format_description11format_item4ItemENtNtNtNtCs9f3LFPSIp77_4core4iter6traits7collect12IntoIterator9into_iterBL_, symObjAddr: 0x2B78, symBinAddr: 0x19CE8, symSize: 0x100 }
  - { offset: 0x8E15, size: 0x8, addend: 0x0, symName: __RNvXse_NtCsdze8u8oDPro_5alloc3vecINtB5_3VecNtNtNtCsk0EuziVMDa8_11time_macros18format_description3ast23NestedFormatDescriptionENtNtNtNtCs9f3LFPSIp77_4core4iter6traits7collect12IntoIterator9into_iterBL_, symObjAddr: 0x2C78, symBinAddr: 0x19DE8, symSize: 0xF8 }
  - { offset: 0x90E4, size: 0x8, addend: 0x0, symName: __RNvXse_NtCsdze8u8oDPro_5alloc3vecINtB5_3VecNtNtNtCsk0EuziVMDa8_11time_macros18format_description3ast4ItemENtNtNtNtCs9f3LFPSIp77_4core4iter6traits7collect12IntoIterator9into_iterBL_, symObjAddr: 0x2D70, symBinAddr: 0x19EE0, symSize: 0x100 }
  - { offset: 0x93B3, size: 0x8, addend: 0x0, symName: __RNvXse_NtCsdze8u8oDPro_5alloc3vecINtB5_3VecNtNtNtCsk0EuziVMDa8_11time_macros18format_description6public15OwnedFormatItemENtNtNtNtCs9f3LFPSIp77_4core4iter6traits7collect12IntoIterator9into_iterBL_, symObjAddr: 0x2E70, symBinAddr: 0x19FE0, symSize: 0x100 }
  - { offset: 0x9688, size: 0x8, addend: 0x0, symName: __RNvXsn_NtCsdze8u8oDPro_5alloc3vecINtB5_3VecINtNtB7_5boxed3BoxSNtNtNtCsk0EuziVMDa8_11time_macros18format_description11format_item4ItemEENtNtNtCs9f3LFPSIp77_4core3ops4drop4Drop4dropB14_, symObjAddr: 0x2F70, symBinAddr: 0x1A0E0, symSize: 0x50 }
  - { offset: 0x9795, size: 0x8, addend: 0x0, symName: __RNvXsn_NtCsdze8u8oDPro_5alloc3vecINtB5_3VecINtNtCsjLJ1XWNSM6u_10proc_macro6bridge9TokenTreeNtNtBI_6client11TokenStreamNtB1t_4SpanNtNtBI_6symbol6SymbolEENtNtNtCs9f3LFPSIp77_4core3ops4drop4Drop4dropCsk0EuziVMDa8_11time_macros, symObjAddr: 0x2FC0, symBinAddr: 0x1A130, symSize: 0x50 }
  - { offset: 0x98A2, size: 0x8, addend: 0x0, symName: __RNvXsn_NtCsdze8u8oDPro_5alloc3vecINtB5_3VecNtNtNtCsjLJ1XWNSM6u_10proc_macro6bridge6client11TokenStreamENtNtNtCs9f3LFPSIp77_4core3ops4drop4Drop4dropCsk0EuziVMDa8_11time_macros, symObjAddr: 0x3010, symBinAddr: 0x1A180, symSize: 0x50 }
  - { offset: 0x99AF, size: 0x8, addend: 0x0, symName: __RNvXsn_NtCsdze8u8oDPro_5alloc3vecINtB5_3VecNtNtNtCsk0EuziVMDa8_11time_macros18format_description11format_item4ItemENtNtNtCs9f3LFPSIp77_4core3ops4drop4Drop4dropBL_, symObjAddr: 0x3060, symBinAddr: 0x1A1D0, symSize: 0x50 }
  - { offset: 0x9ABC, size: 0x8, addend: 0x0, symName: __RNvXsn_NtCsdze8u8oDPro_5alloc3vecINtB5_3VecNtNtNtCsk0EuziVMDa8_11time_macros18format_description3ast23NestedFormatDescriptionENtNtNtCs9f3LFPSIp77_4core3ops4drop4Drop4dropBL_, symObjAddr: 0x30B0, symBinAddr: 0x1A220, symSize: 0x50 }
  - { offset: 0x9BC9, size: 0x8, addend: 0x0, symName: __RNvXsn_NtCsdze8u8oDPro_5alloc3vecINtB5_3VecNtNtNtCsk0EuziVMDa8_11time_macros18format_description3ast4ItemENtNtNtCs9f3LFPSIp77_4core3ops4drop4Drop4dropBL_, symObjAddr: 0x3100, symBinAddr: 0x1A270, symSize: 0x50 }
  - { offset: 0x9CD6, size: 0x8, addend: 0x0, symName: __RNvXsn_NtCsdze8u8oDPro_5alloc3vecINtB5_3VecNtNtNtCsk0EuziVMDa8_11time_macros18format_description3ast8ModifierENtNtNtCs9f3LFPSIp77_4core3ops4drop4Drop4dropBL_, symObjAddr: 0x3150, symBinAddr: 0x1A2C0, symSize: 0x3C }
  - { offset: 0x9DE3, size: 0x8, addend: 0x0, symName: __RNvXsn_NtCsdze8u8oDPro_5alloc3vecINtB5_3VecNtNtNtCsk0EuziVMDa8_11time_macros18format_description6public15OwnedFormatItemENtNtNtCs9f3LFPSIp77_4core3ops4drop4Drop4dropBL_, symObjAddr: 0x318C, symBinAddr: 0x1A2FC, symSize: 0x50 }
  - { offset: 0xB5E4, size: 0x8, addend: 0x0, symName: __RINvMsi_NtCsdze8u8oDPro_5alloc3vecINtB6_3VecNtNtNtCsk0EuziVMDa8_11time_macros18format_description3ast4ItemE16extend_desugaredINtNtNtCs9f3LFPSIp77_4core4iter8adapters12GenericShuntINtNtNtB24_7sources7from_fn6FromFnNCINvBI_11parse_innerIB2S_NCINvNtBK_5lexer3lexKh1_E0EKb1_KB4a_E0EINtNtB26_6result6ResultNtNtB26_7convert10InfallibleNtBK_5ErrorEEEBM_, symObjAddr: 0x0, symBinAddr: 0x17170, symSize: 0x1F4 }
  - { offset: 0xBA31, size: 0x8, addend: 0x0, symName: __RINvMsi_NtCsdze8u8oDPro_5alloc3vecINtB6_3VecNtNtNtCsk0EuziVMDa8_11time_macros18format_description3ast4ItemE16extend_desugaredINtNtNtCs9f3LFPSIp77_4core4iter8adapters12GenericShuntINtNtNtB24_7sources7from_fn6FromFnNCINvBI_11parse_innerIB2S_NCINvNtBK_5lexer3lexKh2_E0EKb1_KB4a_E0EINtNtB26_6result6ResultNtNtB26_7convert10InfallibleNtBK_5ErrorEEEBM_, symObjAddr: 0x1F4, symBinAddr: 0x17364, symSize: 0x1F4 }
  - { offset: 0xC046, size: 0x8, addend: 0x0, symName: __RINvMsi_NtCsdze8u8oDPro_5alloc3vecINtB6_3VecNtNtNtCsk0EuziVMDa8_11time_macros18format_description6public15OwnedFormatItemE14extend_trustedINtNtNtNtCs9f3LFPSIp77_4core4iter8adapters3map3MapINtNtB6_9into_iter8IntoIterINtNtB8_5boxed3BoxSNtNtBK_11format_item4ItemEENvYB3r_INtNtB2l_7convert4IntoBG_E4intoEEBM_, symObjAddr: 0x3E8, symBinAddr: 0x17558, symSize: 0x19C }
  - { offset: 0xC44B, size: 0x8, addend: 0x0, symName: __RINvMsi_NtCsdze8u8oDPro_5alloc3vecINtB6_3VecNtNtNtCsk0EuziVMDa8_11time_macros18format_description6public15OwnedFormatItemE16extend_desugaredINtNtNtCs9f3LFPSIp77_4core4iter8adapters12GenericShuntINtNtB2h_3map3MapIB37_INtNtNtB2j_7sources7from_fn6FromFnNCINvNtBK_3ast11parse_innerIB3t_NCINvNtBK_5lexer3lexKh1_E0EKb0_KB4R_E0ENCINvNtBK_11format_item5parseB3s_E0ENCINvBK_5parseKB4R_E0EINtNtB2l_6result6ResultNtNtB2l_7convert10InfallibleNtBK_5ErrorEEEBM_, symObjAddr: 0x584, symBinAddr: 0x176F4, symSize: 0x1D8 }
  - { offset: 0xC88A, size: 0x8, addend: 0x0, symName: __RINvMsi_NtCsdze8u8oDPro_5alloc3vecINtB6_3VecNtNtNtCsk0EuziVMDa8_11time_macros18format_description6public15OwnedFormatItemE16extend_desugaredINtNtNtCs9f3LFPSIp77_4core4iter8adapters12GenericShuntINtNtB2h_3map3MapIB37_INtNtNtB2j_7sources7from_fn6FromFnNCINvNtBK_3ast11parse_innerIB3t_NCINvNtBK_5lexer3lexKh2_E0EKb0_KB4R_E0ENCINvNtBK_11format_item5parseB3s_E0ENCINvBK_5parseKB4R_E0EINtNtB2l_6result6ResultNtNtB2l_7convert10InfallibleNtBK_5ErrorEEEBM_, symObjAddr: 0x75C, symBinAddr: 0x178CC, symSize: 0x1D8 }
  - { offset: 0xCBBC, size: 0x8, addend: 0x0, symName: __RNvMNtCsdze8u8oDPro_5alloc3vecINtB2_3VecNtNtNtCsk0EuziVMDa8_11time_macros18format_description3ast23NestedFormatDescriptionE3newBI_, symObjAddr: 0xB50, symBinAddr: 0x17CC0, symSize: 0x28 }
  - { offset: 0xCCB0, size: 0x8, addend: 0x0, symName: __RNvMNtCsdze8u8oDPro_5alloc3vecINtB2_3VecNtNtNtCsk0EuziVMDa8_11time_macros18format_description3ast8ModifierE3newBI_, symObjAddr: 0xB78, symBinAddr: 0x17CE8, symSize: 0x28 }
  - { offset: 0xCDA4, size: 0x8, addend: 0x0, symName: __RNvMNtCsdze8u8oDPro_5alloc3vecINtB2_3VechE3newCsk0EuziVMDa8_11time_macros, symObjAddr: 0xBA0, symBinAddr: 0x17D10, symSize: 0x28 }
  - { offset: 0xD073, size: 0x8, addend: 0x0, symName: __RNvMs_NtCsdze8u8oDPro_5alloc3vecINtB4_3VecINtNtB6_5boxed3BoxSNtNtNtCsk0EuziVMDa8_11time_macros18format_description11format_item4ItemEE16into_boxed_sliceB13_, symObjAddr: 0xBC8, symBinAddr: 0x17D38, symSize: 0x1BC }
  - { offset: 0xD574, size: 0x8, addend: 0x0, symName: __RNvMs_NtCsdze8u8oDPro_5alloc3vecINtB4_3VecNtNtNtCsk0EuziVMDa8_11time_macros18format_description11format_item4ItemE16into_boxed_sliceBK_, symObjAddr: 0xD84, symBinAddr: 0x17EF4, symSize: 0x1BC }
  - { offset: 0xDA75, size: 0x8, addend: 0x0, symName: __RNvMs_NtCsdze8u8oDPro_5alloc3vecINtB4_3VecNtNtNtCsk0EuziVMDa8_11time_macros18format_description3ast23NestedFormatDescriptionE16into_boxed_sliceBK_, symObjAddr: 0xF40, symBinAddr: 0x180B0, symSize: 0x1BC }
  - { offset: 0xDE91, size: 0x8, addend: 0x0, symName: __RNvMs_NtCsdze8u8oDPro_5alloc3vecINtB4_3VecNtNtNtCsk0EuziVMDa8_11time_macros18format_description3ast23NestedFormatDescriptionE4pushBK_, symObjAddr: 0x10FC, symBinAddr: 0x1826C, symSize: 0x104 }
  - { offset: 0xE2A0, size: 0x8, addend: 0x0, symName: __RNvMs_NtCsdze8u8oDPro_5alloc3vecINtB4_3VecNtNtNtCsk0EuziVMDa8_11time_macros18format_description3ast4ItemE16into_boxed_sliceBK_, symObjAddr: 0x1200, symBinAddr: 0x18370, symSize: 0x1BC }
  - { offset: 0xE66C, size: 0x8, addend: 0x0, symName: __RNvMs_NtCsdze8u8oDPro_5alloc3vecINtB4_3VecNtNtNtCsk0EuziVMDa8_11time_macros18format_description3ast4ItemE7reserveBK_, symObjAddr: 0x13BC, symBinAddr: 0x1852C, symSize: 0xC4 }
  - { offset: 0xE9FE, size: 0x8, addend: 0x0, symName: __RNvMs_NtCsdze8u8oDPro_5alloc3vecINtB4_3VecNtNtNtCsk0EuziVMDa8_11time_macros18format_description3ast8ModifierE16into_boxed_sliceBK_, symObjAddr: 0x1480, symBinAddr: 0x185F0, symSize: 0x1BC }
  - { offset: 0xEE1A, size: 0x8, addend: 0x0, symName: __RNvMs_NtCsdze8u8oDPro_5alloc3vecINtB4_3VecNtNtNtCsk0EuziVMDa8_11time_macros18format_description3ast8ModifierE4pushBK_, symObjAddr: 0x163C, symBinAddr: 0x187AC, symSize: 0x10C }
  - { offset: 0xF22F, size: 0x8, addend: 0x0, symName: __RNvMs_NtCsdze8u8oDPro_5alloc3vecINtB4_3VecNtNtNtCsk0EuziVMDa8_11time_macros18format_description6public15OwnedFormatItemE16into_boxed_sliceBK_, symObjAddr: 0x1748, symBinAddr: 0x188B8, symSize: 0x1BC }
  - { offset: 0xF5E1, size: 0x8, addend: 0x0, symName: __RNvMs_NtCsdze8u8oDPro_5alloc3vecINtB4_3VecNtNtNtCsk0EuziVMDa8_11time_macros18format_description6public15OwnedFormatItemE7reserveBK_, symObjAddr: 0x1904, symBinAddr: 0x18A74, symSize: 0xC4 }
  - { offset: 0xF89E, size: 0x8, addend: 0x0, symName: __RNvMs_NtCsdze8u8oDPro_5alloc3vecINtB4_3VechE15append_elementsCsk0EuziVMDa8_11time_macros, symObjAddr: 0x19C8, symBinAddr: 0x18B38, symSize: 0xE4 }
  - { offset: 0xFC54, size: 0x8, addend: 0x0, symName: __RNvMs_NtCsdze8u8oDPro_5alloc3vecINtB4_3VechE16into_boxed_sliceCsk0EuziVMDa8_11time_macros, symObjAddr: 0x1AAC, symBinAddr: 0x18C1C, symSize: 0x1B8 }
  - { offset: 0x10056, size: 0x8, addend: 0x0, symName: __RNvMs_NtCsdze8u8oDPro_5alloc3vecINtB4_3VechE4pushCsk0EuziVMDa8_11time_macros, symObjAddr: 0x1C64, symBinAddr: 0x18DD4, symSize: 0xE8 }
  - { offset: 0x10325, size: 0x8, addend: 0x0, symName: __RNvMs_NtCsdze8u8oDPro_5alloc3vecINtB4_3VechE8as_sliceCsk0EuziVMDa8_11time_macros, symObjAddr: 0x1D4C, symBinAddr: 0x18EBC, symSize: 0x78 }
  - { offset: 0x11E19, size: 0x8, addend: 0x0, symName: __RINvMNtCsdze8u8oDPro_5alloc5sliceSNtNtNtCsk0EuziVMDa8_11time_macros18format_description11format_item4Item8into_vecNtNtB5_5alloc6GlobalEBC_, symObjAddr: 0x0, symBinAddr: 0x1A34C, symSize: 0x28 }
  - { offset: 0x12821, size: 0x8, addend: 0x0, symName: __RINvNtNtCsk0EuziVMDa8_11time_macros18format_description11format_item5parseINtNtNtNtCs9f3LFPSIp77_4core4iter7sources7from_fn6FromFnNCINvNtB4_3ast11parse_innerIB1b_NCINvNtB4_5lexer3lexKh1_E0EKb0_KB2V_E0EEB6_, symObjAddr: 0x344, symBinAddr: 0x1A690, symSize: 0x34 }
  - { offset: 0x12856, size: 0x8, addend: 0x0, symName: __RINvNtNtCsk0EuziVMDa8_11time_macros18format_description11format_item5parseINtNtNtNtCs9f3LFPSIp77_4core4iter7sources7from_fn6FromFnNCINvNtB4_3ast11parse_innerIB1b_NCINvNtB4_5lexer3lexKh2_E0EKb0_KB2V_E0EEB6_, symObjAddr: 0x378, symBinAddr: 0x1A6C4, symSize: 0x34 }
  - { offset: 0x12890, size: 0x8, addend: 0x0, symName: __RNCINvNtNtCsk0EuziVMDa8_11time_macros18format_description11format_item5parseINtNtNtNtCs9f3LFPSIp77_4core4iter7sources7from_fn6FromFnNCINvNtB6_3ast11parse_innerIB1d_NCINvNtB6_5lexer3lexKh1_E0EKb0_KB2X_E0EE0B8_, symObjAddr: 0x3AC, symBinAddr: 0x1A6F8, symSize: 0x38 }
  - { offset: 0x128D0, size: 0x8, addend: 0x0, symName: __RNCINvNtNtCsk0EuziVMDa8_11time_macros18format_description11format_item5parseINtNtNtNtCs9f3LFPSIp77_4core4iter7sources7from_fn6FromFnNCINvNtB6_3ast11parse_innerIB1d_NCINvNtB6_5lexer3lexKh2_E0EKb0_KB2X_E0EE0B8_, symObjAddr: 0x3E4, symBinAddr: 0x1A730, symSize: 0x38 }
  - { offset: 0x12929, size: 0x8, addend: 0x0, symName: __RNCNvMNtNtCsk0EuziVMDa8_11time_macros18format_description11format_itemNtB4_4Item8from_ast0B8_, symObjAddr: 0x9B4, symBinAddr: 0x1AD00, symSize: 0x80 }
  - { offset: 0x12968, size: 0x8, addend: 0x0, symName: __RINvNtNtCsk0EuziVMDa8_11time_macros18format_description11format_item25parse_from_modifier_valueINtNtNtCs9f3LFPSIp77_4core3num7nonzero7NonZerotEEB6_, symObjAddr: 0xA34, symBinAddr: 0x1AD80, symSize: 0x70 }
  - { offset: 0x129A4, size: 0x8, addend: 0x0, symName: __RNCINvNtNtCsk0EuziVMDa8_11time_macros18format_description11format_item25parse_from_modifier_valueINtNtNtCs9f3LFPSIp77_4core3num7nonzero7NonZerotEE0B8_, symObjAddr: 0xAA4, symBinAddr: 0x1ADF0, symSize: 0x54 }
  - { offset: 0x129E6, size: 0x8, addend: 0x0, symName: __RNCINvNtNtCsk0EuziVMDa8_11time_macros18format_description11format_item25parse_from_modifier_valueINtNtNtCs9f3LFPSIp77_4core3num7nonzero7NonZerotEEs_0B8_, symObjAddr: 0xAF8, symBinAddr: 0x1AE44, symSize: 0x28 }
  - { offset: 0x12A28, size: 0x8, addend: 0x0, symName: __RNCINvNtNtCsk0EuziVMDa8_11time_macros18format_description11format_item25parse_from_modifier_valueINtNtNtCs9f3LFPSIp77_4core3num7nonzero7NonZerotEEs0_0B8_, symObjAddr: 0xB20, symBinAddr: 0x1AE6C, symSize: 0x50 }
  - { offset: 0x12A70, size: 0x8, addend: 0x0, symName: __RNvNtNtCsk0EuziVMDa8_11time_macros18format_description11format_item18component_from_ast, symObjAddr: 0x3820, symBinAddr: 0x1DB6C, symSize: 0x1230 }
  - { offset: 0x12CAF, size: 0x8, addend: 0x0, symName: __RNvXsk_NtNtCsk0EuziVMDa8_11time_macros18format_description11format_itembINtNtCs9f3LFPSIp77_4core7convert4FromNtB5_8HourBaseE4from, symObjAddr: 0x4BAC, symBinAddr: 0x1EEF8, symSize: 0x5C }
  - { offset: 0x12CE3, size: 0x8, addend: 0x0, symName: __RNvXsm_NtNtCsk0EuziVMDa8_11time_macros18format_description11format_itembINtNtCs9f3LFPSIp77_4core7convert4FromNtB5_18MonthCaseSensitiveE4from, symObjAddr: 0x4D64, symBinAddr: 0x1F0B0, symSize: 0x5C }
  - { offset: 0x12D17, size: 0x8, addend: 0x0, symName: __RNvXss_NtNtCsk0EuziVMDa8_11time_macros18format_description11format_itembINtNtCs9f3LFPSIp77_4core7convert4FromNtB5_10PeriodCaseE4from, symObjAddr: 0x52BC, symBinAddr: 0x1F608, symSize: 0x5C }
  - { offset: 0x12D4B, size: 0x8, addend: 0x0, symName: __RNvXsu_NtNtCsk0EuziVMDa8_11time_macros18format_description11format_itembINtNtCs9f3LFPSIp77_4core7convert4FromNtB5_19PeriodCaseSensitiveE4from, symObjAddr: 0x5474, symBinAddr: 0x1F7C0, symSize: 0x5C }
  - { offset: 0x12D7F, size: 0x8, addend: 0x0, symName: __RNvXsw_NtNtCsk0EuziVMDa8_11time_macros18format_description11format_itembINtNtCs9f3LFPSIp77_4core7convert4FromNtB5_12SignBehaviorE4from, symObjAddr: 0x562C, symBinAddr: 0x1F978, symSize: 0x5C }
  - { offset: 0x12DB3, size: 0x8, addend: 0x0, symName: __RNvXsE_NtNtCsk0EuziVMDa8_11time_macros18format_description11format_itembINtNtCs9f3LFPSIp77_4core7convert4FromNtB5_20WeekdayCaseSensitiveE4from, symObjAddr: 0x6094, symBinAddr: 0x203E0, symSize: 0x5C }
  - { offset: 0x12DE7, size: 0x8, addend: 0x0, symName: __RNvXsG_NtNtCsk0EuziVMDa8_11time_macros18format_description11format_itembINtNtCs9f3LFPSIp77_4core7convert4FromNtB5_17WeekdayOneIndexedE4from, symObjAddr: 0x624C, symBinAddr: 0x20598, symSize: 0x5C }
  - { offset: 0x12E1B, size: 0x8, addend: 0x0, symName: __RNvXsK_NtNtCsk0EuziVMDa8_11time_macros18format_description11format_itembINtNtCs9f3LFPSIp77_4core7convert4FromNtB5_8YearBaseE4from, symObjAddr: 0x6644, symBinAddr: 0x20990, symSize: 0x5C }
  - { offset: 0x12E4F, size: 0x8, addend: 0x0, symName: __RNvXsN_NtNtCsk0EuziVMDa8_11time_macros18format_description11format_itemNtB5_8HourBaseNtNtCs9f3LFPSIp77_4core7default7Default7defaultB9_, symObjAddr: 0x6870, symBinAddr: 0x20BBC, symSize: 0x1C }
  - { offset: 0x12E73, size: 0x8, addend: 0x0, symName: __RNvXsO_NtNtCsk0EuziVMDa8_11time_macros18format_description11format_itemNtB5_18MonthCaseSensitiveNtNtCs9f3LFPSIp77_4core7default7Default7defaultB9_, symObjAddr: 0x688C, symBinAddr: 0x20BD8, symSize: 0x1C }
  - { offset: 0x12E97, size: 0x8, addend: 0x0, symName: __RNvXsP_NtNtCsk0EuziVMDa8_11time_macros18format_description11format_itemNtB5_9MonthReprNtNtCs9f3LFPSIp77_4core7default7Default7defaultB9_, symObjAddr: 0x68A8, symBinAddr: 0x20BF4, symSize: 0x14 }
  - { offset: 0x12EBB, size: 0x8, addend: 0x0, symName: __RNvXsQ_NtNtCsk0EuziVMDa8_11time_macros18format_description11format_itemNtB5_7PaddingNtNtCs9f3LFPSIp77_4core7default7Default7defaultB9_, symObjAddr: 0x68BC, symBinAddr: 0x20C08, symSize: 0x18 }
  - { offset: 0x12EDF, size: 0x8, addend: 0x0, symName: __RNvXsR_NtNtCsk0EuziVMDa8_11time_macros18format_description11format_itemNtB5_10PeriodCaseNtNtCs9f3LFPSIp77_4core7default7Default7defaultB9_, symObjAddr: 0x68D4, symBinAddr: 0x20C20, symSize: 0x1C }
  - { offset: 0x12F03, size: 0x8, addend: 0x0, symName: __RNvXsS_NtNtCsk0EuziVMDa8_11time_macros18format_description11format_itemNtB5_19PeriodCaseSensitiveNtNtCs9f3LFPSIp77_4core7default7Default7defaultB9_, symObjAddr: 0x68F0, symBinAddr: 0x20C3C, symSize: 0x1C }
  - { offset: 0x12F27, size: 0x8, addend: 0x0, symName: __RNvXsT_NtNtCsk0EuziVMDa8_11time_macros18format_description11format_itemNtB5_12SignBehaviorNtNtCs9f3LFPSIp77_4core7default7Default7defaultB9_, symObjAddr: 0x690C, symBinAddr: 0x20C58, symSize: 0x18 }
  - { offset: 0x12F4B, size: 0x8, addend: 0x0, symName: __RNvXsU_NtNtCsk0EuziVMDa8_11time_macros18format_description11format_itemNtB5_15SubsecondDigitsNtNtCs9f3LFPSIp77_4core7default7Default7defaultB9_, symObjAddr: 0x6924, symBinAddr: 0x20C70, symSize: 0x18 }
  - { offset: 0x12F6F, size: 0x8, addend: 0x0, symName: __RNvXsV_NtNtCsk0EuziVMDa8_11time_macros18format_description11format_itemNtB5_22UnixTimestampPrecisionNtNtCs9f3LFPSIp77_4core7default7Default7defaultB9_, symObjAddr: 0x693C, symBinAddr: 0x20C88, symSize: 0x14 }
  - { offset: 0x12F93, size: 0x8, addend: 0x0, symName: __RNvXsW_NtNtCsk0EuziVMDa8_11time_macros18format_description11format_itemNtB5_14WeekNumberReprNtNtCs9f3LFPSIp77_4core7default7Default7defaultB9_, symObjAddr: 0x6950, symBinAddr: 0x20C9C, symSize: 0x14 }
  - { offset: 0x12FB7, size: 0x8, addend: 0x0, symName: __RNvXsX_NtNtCsk0EuziVMDa8_11time_macros18format_description11format_itemNtB5_20WeekdayCaseSensitiveNtNtCs9f3LFPSIp77_4core7default7Default7defaultB9_, symObjAddr: 0x6964, symBinAddr: 0x20CB0, symSize: 0x1C }
  - { offset: 0x12FDB, size: 0x8, addend: 0x0, symName: __RNvXsY_NtNtCsk0EuziVMDa8_11time_macros18format_description11format_itemNtB5_17WeekdayOneIndexedNtNtCs9f3LFPSIp77_4core7default7Default7defaultB9_, symObjAddr: 0x6980, symBinAddr: 0x20CCC, symSize: 0x1C }
  - { offset: 0x12FFF, size: 0x8, addend: 0x0, symName: __RNvXsZ_NtNtCsk0EuziVMDa8_11time_macros18format_description11format_itemNtB5_11WeekdayReprNtNtCs9f3LFPSIp77_4core7default7Default7defaultB9_, symObjAddr: 0x699C, symBinAddr: 0x20CE8, symSize: 0x18 }
  - { offset: 0x13023, size: 0x8, addend: 0x0, symName: __RNvXs10_NtNtCsk0EuziVMDa8_11time_macros18format_description11format_itemNtB6_8YearBaseNtNtCs9f3LFPSIp77_4core7default7Default7defaultBa_, symObjAddr: 0x69B4, symBinAddr: 0x20D00, symSize: 0x18 }
  - { offset: 0x13047, size: 0x8, addend: 0x0, symName: __RNvXs11_NtNtCsk0EuziVMDa8_11time_macros18format_description11format_itemNtB6_8YearReprNtNtCs9f3LFPSIp77_4core7default7Default7defaultBa_, symObjAddr: 0x69CC, symBinAddr: 0x20D18, symSize: 0x14 }
  - { offset: 0x13B83, size: 0x8, addend: 0x0, symName: __RINvMNtCsdze8u8oDPro_5alloc5sliceSNtNtNtCsk0EuziVMDa8_11time_macros18format_description11format_item4Item8into_vecNtNtB5_5alloc6GlobalEBC_, symObjAddr: 0x0, symBinAddr: 0x1A34C, symSize: 0x28 }
  - { offset: 0x13C7B, size: 0x8, addend: 0x0, symName: __RNvXsD_NtCsdze8u8oDPro_5alloc3vecANtNtNtCsk0EuziVMDa8_11time_macros18format_description11format_item4Itemj1_INtNtCs9f3LFPSIp77_4core7convert7TryFromINtB5_3VecBw_EE8try_fromBC_, symObjAddr: 0x260, symBinAddr: 0x1A5AC, symSize: 0xE4 }
  - { offset: 0x13F04, size: 0x8, addend: 0x0, symName: __RNvXs1_NtCs9f3LFPSIp77_4core7convertNtNtNtCsk0EuziVMDa8_11time_macros18format_description11format_item10PeriodCaseINtB5_4IntobE4intoBE_, symObjAddr: 0x28, symBinAddr: 0x1A374, symSize: 0x20 }
  - { offset: 0x13F44, size: 0x8, addend: 0x0, symName: __RNvXs1_NtCs9f3LFPSIp77_4core7convertNtNtNtCsk0EuziVMDa8_11time_macros18format_description11format_item11WeekdayReprINtB5_4IntoNtNtNtBC_6public8modifier11WeekdayReprE4intoBE_, symObjAddr: 0x48, symBinAddr: 0x1A394, symSize: 0x20 }
  - { offset: 0x13F84, size: 0x8, addend: 0x0, symName: __RNvXs1_NtCs9f3LFPSIp77_4core7convertNtNtNtCsk0EuziVMDa8_11time_macros18format_description11format_item12SignBehaviorINtB5_4IntobE4intoBE_, symObjAddr: 0x68, symBinAddr: 0x1A3B4, symSize: 0x20 }
  - { offset: 0x13FC4, size: 0x8, addend: 0x0, symName: __RNvXs1_NtCs9f3LFPSIp77_4core7convertNtNtNtCsk0EuziVMDa8_11time_macros18format_description11format_item14WeekNumberReprINtB5_4IntoNtNtNtBC_6public8modifier14WeekNumberReprE4intoBE_, symObjAddr: 0x88, symBinAddr: 0x1A3D4, symSize: 0x20 }
  - { offset: 0x14004, size: 0x8, addend: 0x0, symName: __RNvXs1_NtCs9f3LFPSIp77_4core7convertNtNtNtCsk0EuziVMDa8_11time_macros18format_description11format_item15SubsecondDigitsINtB5_4IntoNtNtNtBC_6public8modifier15SubsecondDigitsE4intoBE_, symObjAddr: 0xA8, symBinAddr: 0x1A3F4, symSize: 0x20 }
  - { offset: 0x14044, size: 0x8, addend: 0x0, symName: __RNvXs1_NtCs9f3LFPSIp77_4core7convertNtNtNtCsk0EuziVMDa8_11time_macros18format_description11format_item17WeekdayOneIndexedINtB5_4IntobE4intoBE_, symObjAddr: 0xC8, symBinAddr: 0x1A414, symSize: 0x20 }
  - { offset: 0x14084, size: 0x8, addend: 0x0, symName: __RNvXs1_NtCs9f3LFPSIp77_4core7convertNtNtNtCsk0EuziVMDa8_11time_macros18format_description11format_item18MonthCaseSensitiveINtB5_4IntobE4intoBE_, symObjAddr: 0xE8, symBinAddr: 0x1A434, symSize: 0x20 }
  - { offset: 0x140C4, size: 0x8, addend: 0x0, symName: __RNvXs1_NtCs9f3LFPSIp77_4core7convertNtNtNtCsk0EuziVMDa8_11time_macros18format_description11format_item19PeriodCaseSensitiveINtB5_4IntobE4intoBE_, symObjAddr: 0x108, symBinAddr: 0x1A454, symSize: 0x20 }
  - { offset: 0x14104, size: 0x8, addend: 0x0, symName: __RNvXs1_NtCs9f3LFPSIp77_4core7convertNtNtNtCsk0EuziVMDa8_11time_macros18format_description11format_item20WeekdayCaseSensitiveINtB5_4IntobE4intoBE_, symObjAddr: 0x128, symBinAddr: 0x1A474, symSize: 0x20 }
  - { offset: 0x14144, size: 0x8, addend: 0x0, symName: __RNvXs1_NtCs9f3LFPSIp77_4core7convertNtNtNtCsk0EuziVMDa8_11time_macros18format_description11format_item22UnixTimestampPrecisionINtB5_4IntoNtNtNtBC_6public8modifier22UnixTimestampPrecisionE4intoBE_, symObjAddr: 0x148, symBinAddr: 0x1A494, symSize: 0x20 }
  - { offset: 0x14184, size: 0x8, addend: 0x0, symName: __RNvXs1_NtCs9f3LFPSIp77_4core7convertNtNtNtCsk0EuziVMDa8_11time_macros18format_description11format_item4ItemINtB5_4IntoNtNtBC_6public15OwnedFormatItemE4intoBE_, symObjAddr: 0x168, symBinAddr: 0x1A4B4, symSize: 0x14 }
  - { offset: 0x141C5, size: 0x8, addend: 0x0, symName: __RNvXs1_NtCs9f3LFPSIp77_4core7convertNtNtNtCsk0EuziVMDa8_11time_macros18format_description11format_item7PaddingINtB5_4IntoNtNtNtBC_6public8modifier7PaddingE4intoBE_, symObjAddr: 0x17C, symBinAddr: 0x1A4C8, symSize: 0x20 }
  - { offset: 0x14205, size: 0x8, addend: 0x0, symName: __RNvXs1_NtCs9f3LFPSIp77_4core7convertNtNtNtCsk0EuziVMDa8_11time_macros18format_description11format_item8HourBaseINtB5_4IntobE4intoBE_, symObjAddr: 0x19C, symBinAddr: 0x1A4E8, symSize: 0x20 }
  - { offset: 0x14245, size: 0x8, addend: 0x0, symName: __RNvXs1_NtCs9f3LFPSIp77_4core7convertNtNtNtCsk0EuziVMDa8_11time_macros18format_description11format_item8YearBaseINtB5_4IntobE4intoBE_, symObjAddr: 0x1BC, symBinAddr: 0x1A508, symSize: 0x20 }
  - { offset: 0x14285, size: 0x8, addend: 0x0, symName: __RNvXs1_NtCs9f3LFPSIp77_4core7convertNtNtNtCsk0EuziVMDa8_11time_macros18format_description11format_item8YearReprINtB5_4IntoNtNtNtBC_6public8modifier8YearReprE4intoBE_, symObjAddr: 0x1DC, symBinAddr: 0x1A528, symSize: 0x20 }
  - { offset: 0x142C5, size: 0x8, addend: 0x0, symName: __RNvXs1_NtCs9f3LFPSIp77_4core7convertNtNtNtCsk0EuziVMDa8_11time_macros18format_description11format_item9ComponentINtB5_4IntoNtNtNtBC_6public9component9ComponentE4intoBE_, symObjAddr: 0x1FC, symBinAddr: 0x1A548, symSize: 0x44 }
  - { offset: 0x14305, size: 0x8, addend: 0x0, symName: __RNvXs1_NtCs9f3LFPSIp77_4core7convertNtNtNtCsk0EuziVMDa8_11time_macros18format_description11format_item9MonthReprINtB5_4IntoNtNtNtBC_6public8modifier9MonthReprE4intoBE_, symObjAddr: 0x240, symBinAddr: 0x1A58C, symSize: 0x20 }
  - { offset: 0x16735, size: 0x8, addend: 0x0, symName: __RNvMNtNtCsk0EuziVMDa8_11time_macros18format_description11format_itemNtB2_4Item8from_ast, symObjAddr: 0x41C, symBinAddr: 0x1A768, symSize: 0x598 }
  - { offset: 0x168E0, size: 0x8, addend: 0x0, symName: __RNvMs1_NtNtCsk0EuziVMDa8_11time_macros18format_description11format_itemNtB5_3Day14with_modifiers, symObjAddr: 0xB70, symBinAddr: 0x1AEBC, symSize: 0x1F4 }
  - { offset: 0x16969, size: 0x8, addend: 0x0, symName: __RNvMs2_NtNtCsk0EuziVMDa8_11time_macros18format_description11format_itemNtB5_3End14with_modifiers, symObjAddr: 0xD64, symBinAddr: 0x1B0B0, symSize: 0xD0 }
  - { offset: 0x169D4, size: 0x8, addend: 0x0, symName: __RNvMs3_NtNtCsk0EuziVMDa8_11time_macros18format_description11format_itemNtB5_4Hour14with_modifiers, symObjAddr: 0xE34, symBinAddr: 0x1B180, symSize: 0x304 }
  - { offset: 0x16A7C, size: 0x8, addend: 0x0, symName: __RNvMs4_NtNtCsk0EuziVMDa8_11time_macros18format_description11format_itemNtB5_6Ignore14with_modifiers, symObjAddr: 0x1138, symBinAddr: 0x1B484, symSize: 0x260 }
  - { offset: 0x16B0A, size: 0x8, addend: 0x0, symName: __RNvMs5_NtNtCsk0EuziVMDa8_11time_macros18format_description11format_itemNtB5_6Minute14with_modifiers, symObjAddr: 0x1398, symBinAddr: 0x1B6E4, symSize: 0x1F4 }
  - { offset: 0x16B93, size: 0x8, addend: 0x0, symName: __RNvMs6_NtNtCsk0EuziVMDa8_11time_macros18format_description11format_itemNtB5_5Month14with_modifiers, symObjAddr: 0x158C, symBinAddr: 0x1B8D8, symSize: 0x410 }
  - { offset: 0x16C5C, size: 0x8, addend: 0x0, symName: __RNvMs7_NtNtCsk0EuziVMDa8_11time_macros18format_description11format_itemNtB5_10OffsetHour14with_modifiers, symObjAddr: 0x199C, symBinAddr: 0x1BCE8, symSize: 0x304 }
  - { offset: 0x16D04, size: 0x8, addend: 0x0, symName: __RNvMs8_NtNtCsk0EuziVMDa8_11time_macros18format_description11format_itemNtB5_12OffsetMinute14with_modifiers, symObjAddr: 0x1CA0, symBinAddr: 0x1BFEC, symSize: 0x1F4 }
  - { offset: 0x16D8D, size: 0x8, addend: 0x0, symName: __RNvMs9_NtNtCsk0EuziVMDa8_11time_macros18format_description11format_itemNtB5_12OffsetSecond14with_modifiers, symObjAddr: 0x1E94, symBinAddr: 0x1C1E0, symSize: 0x1F4 }
  - { offset: 0x16E16, size: 0x8, addend: 0x0, symName: __RNvMsa_NtNtCsk0EuziVMDa8_11time_macros18format_description11format_itemNtB5_7Ordinal14with_modifiers, symObjAddr: 0x2088, symBinAddr: 0x1C3D4, symSize: 0x1F4 }
  - { offset: 0x16E9F, size: 0x8, addend: 0x0, symName: __RNvMsb_NtNtCsk0EuziVMDa8_11time_macros18format_description11format_itemNtB5_6Period14with_modifiers, symObjAddr: 0x227C, symBinAddr: 0x1C5C8, symSize: 0x300 }
  - { offset: 0x16F47, size: 0x8, addend: 0x0, symName: __RNvMsc_NtNtCsk0EuziVMDa8_11time_macros18format_description11format_itemNtB5_6Second14with_modifiers, symObjAddr: 0x257C, symBinAddr: 0x1C8C8, symSize: 0x1F4 }
  - { offset: 0x16FD0, size: 0x8, addend: 0x0, symName: __RNvMsd_NtNtCsk0EuziVMDa8_11time_macros18format_description11format_itemNtB5_9Subsecond14with_modifiers, symObjAddr: 0x2770, symBinAddr: 0x1CABC, symSize: 0x1F4 }
  - { offset: 0x17059, size: 0x8, addend: 0x0, symName: __RNvMse_NtNtCsk0EuziVMDa8_11time_macros18format_description11format_itemNtB5_13UnixTimestamp14with_modifiers, symObjAddr: 0x2964, symBinAddr: 0x1CCB0, symSize: 0x304 }
  - { offset: 0x17101, size: 0x8, addend: 0x0, symName: __RNvMsf_NtNtCsk0EuziVMDa8_11time_macros18format_description11format_itemNtB5_7Weekday14with_modifiers, symObjAddr: 0x2C68, symBinAddr: 0x1CFB4, symSize: 0x410 }
  - { offset: 0x171CA, size: 0x8, addend: 0x0, symName: __RNvMsg_NtNtCsk0EuziVMDa8_11time_macros18format_description11format_itemNtB5_10WeekNumber14with_modifiers, symObjAddr: 0x3078, symBinAddr: 0x1D3C4, symSize: 0x300 }
  - { offset: 0x17272, size: 0x8, addend: 0x0, symName: __RNvMsh_NtNtCsk0EuziVMDa8_11time_macros18format_description11format_itemNtB5_4Year14with_modifiers, symObjAddr: 0x3378, symBinAddr: 0x1D6C4, symSize: 0x4A8 }
  - { offset: 0x17366, size: 0x8, addend: 0x0, symName: __RNvMsj_NtNtCsk0EuziVMDa8_11time_macros18format_description11format_itemNtB5_8HourBase19from_modifier_value, symObjAddr: 0x4A50, symBinAddr: 0x1ED9C, symSize: 0x15C }
  - { offset: 0x17389, size: 0x8, addend: 0x0, symName: __RNvMsl_NtNtCsk0EuziVMDa8_11time_macros18format_description11format_itemNtB5_18MonthCaseSensitive19from_modifier_value, symObjAddr: 0x4C08, symBinAddr: 0x1EF54, symSize: 0x15C }
  - { offset: 0x173AC, size: 0x8, addend: 0x0, symName: __RNvMsn_NtNtCsk0EuziVMDa8_11time_macros18format_description11format_itemNtB5_9MonthRepr19from_modifier_value, symObjAddr: 0x4DC0, symBinAddr: 0x1F10C, symSize: 0x1D0 }
  - { offset: 0x173CF, size: 0x8, addend: 0x0, symName: __RNvMsp_NtNtCsk0EuziVMDa8_11time_macros18format_description11format_itemNtB5_7Padding19from_modifier_value, symObjAddr: 0x4F90, symBinAddr: 0x1F2DC, symSize: 0x1D0 }
  - { offset: 0x173F2, size: 0x8, addend: 0x0, symName: __RNvMsr_NtNtCsk0EuziVMDa8_11time_macros18format_description11format_itemNtB5_10PeriodCase19from_modifier_value, symObjAddr: 0x5160, symBinAddr: 0x1F4AC, symSize: 0x15C }
  - { offset: 0x17415, size: 0x8, addend: 0x0, symName: __RNvMst_NtNtCsk0EuziVMDa8_11time_macros18format_description11format_itemNtB5_19PeriodCaseSensitive19from_modifier_value, symObjAddr: 0x5318, symBinAddr: 0x1F664, symSize: 0x15C }
  - { offset: 0x17438, size: 0x8, addend: 0x0, symName: __RNvMsv_NtNtCsk0EuziVMDa8_11time_macros18format_description11format_itemNtB5_12SignBehavior19from_modifier_value, symObjAddr: 0x54D0, symBinAddr: 0x1F81C, symSize: 0x15C }
  - { offset: 0x1745B, size: 0x8, addend: 0x0, symName: __RNvMsx_NtNtCsk0EuziVMDa8_11time_macros18format_description11format_itemNtB5_15SubsecondDigits19from_modifier_value, symObjAddr: 0x5688, symBinAddr: 0x1F9D4, symSize: 0x4A8 }
  - { offset: 0x1747E, size: 0x8, addend: 0x0, symName: __RNvMsz_NtNtCsk0EuziVMDa8_11time_macros18format_description11format_itemNtB5_22UnixTimestampPrecision19from_modifier_value, symObjAddr: 0x5B30, symBinAddr: 0x1FE7C, symSize: 0x238 }
  - { offset: 0x174A1, size: 0x8, addend: 0x0, symName: __RNvMsB_NtNtCsk0EuziVMDa8_11time_macros18format_description11format_itemNtB5_14WeekNumberRepr19from_modifier_value, symObjAddr: 0x5D68, symBinAddr: 0x200B4, symSize: 0x1D0 }
  - { offset: 0x174C4, size: 0x8, addend: 0x0, symName: __RNvMsD_NtNtCsk0EuziVMDa8_11time_macros18format_description11format_itemNtB5_20WeekdayCaseSensitive19from_modifier_value, symObjAddr: 0x5F38, symBinAddr: 0x20284, symSize: 0x15C }
  - { offset: 0x174E7, size: 0x8, addend: 0x0, symName: __RNvMsF_NtNtCsk0EuziVMDa8_11time_macros18format_description11format_itemNtB5_17WeekdayOneIndexed19from_modifier_value, symObjAddr: 0x60F0, symBinAddr: 0x2043C, symSize: 0x15C }
  - { offset: 0x1750A, size: 0x8, addend: 0x0, symName: __RNvMsH_NtNtCsk0EuziVMDa8_11time_macros18format_description11format_itemNtB5_11WeekdayRepr19from_modifier_value, symObjAddr: 0x62A8, symBinAddr: 0x205F4, symSize: 0x238 }
  - { offset: 0x1752D, size: 0x8, addend: 0x0, symName: __RNvMsJ_NtNtCsk0EuziVMDa8_11time_macros18format_description11format_itemNtB5_8YearBase19from_modifier_value, symObjAddr: 0x64E0, symBinAddr: 0x2082C, symSize: 0x164 }
  - { offset: 0x17550, size: 0x8, addend: 0x0, symName: __RNvMsL_NtNtCsk0EuziVMDa8_11time_macros18format_description11format_itemNtB5_8YearRepr19from_modifier_value, symObjAddr: 0x66A0, symBinAddr: 0x209EC, symSize: 0x1D0 }
  - { offset: 0x17670, size: 0x8, addend: 0x0, symName: __RINvXs3_NtNtCsdze8u8oDPro_5alloc3vec9into_iterINtB6_8IntoIterINtNtBa_5boxed3BoxSNtNtNtCsk0EuziVMDa8_11time_macros18format_description11format_item4ItemEENtNtNtNtCs9f3LFPSIp77_4core4iter6traits8iterator8Iterator4folduNCINvNtNtB2x_8adapters3map8map_foldBX_NtNtB1k_6public15OwnedFormatItemuNvYBX_INtNtB2z_7convert4IntoB44_E4intoNCINvNvB2r_8for_each4callB44_NCINvMsi_B8_INtB8_3VecB44_E14extend_trustedINtB3x_3MapBI_B4B_EE0E0E0EB1m_, symObjAddr: 0x0, symBinAddr: 0x20D2C, symSize: 0x138 }
  - { offset: 0x1AF6A, size: 0x8, addend: 0x0, symName: __RINvYINtNtNtCsdze8u8oDPro_5alloc3vec9into_iter8IntoIterINtNtBa_5boxed3BoxSNtNtNtCsk0EuziVMDa8_11time_macros18format_description11format_item4ItemEENtNtNtNtCs9f3LFPSIp77_4core4iter6traits8iterator8Iterator3mapNtNtB1e_6public15OwnedFormatItemNvYBR_INtNtB2t_7convert4IntoB3k_E4intoEB1g_, symObjAddr: 0xA84, symBinAddr: 0x217B0, symSize: 0x1C }
  - { offset: 0x1AFE8, size: 0x8, addend: 0x0, symName: __RINvYINtNtNtCsdze8u8oDPro_5alloc3vec9into_iter8IntoIterNtNtNtCsk0EuziVMDa8_11time_macros18format_description11format_item4ItemENtNtNtNtCs9f3LFPSIp77_4core4iter6traits8iterator8Iterator3mapNtNtBV_6public15OwnedFormatItemNvYBR_INtNtB29_7convert4IntoB30_E4intoEBX_, symObjAddr: 0xAA0, symBinAddr: 0x217CC, symSize: 0x1C }
  - { offset: 0x1B066, size: 0x8, addend: 0x0, symName: __RINvYINtNtNtCsdze8u8oDPro_5alloc3vec9into_iter8IntoIterNtNtNtCsk0EuziVMDa8_11time_macros18format_description3ast23NestedFormatDescriptionENtNtNtNtCs9f3LFPSIp77_4core4iter6traits8iterator8Iterator3mapINtNtB2k_6result6ResultINtNtBa_5boxed3BoxSNtNtBV_11format_item4ItemENtBV_5ErrorENCNvMB3T_B3R_8from_ast0EBX_, symObjAddr: 0xABC, symBinAddr: 0x217E8, symSize: 0x1C }
  - { offset: 0x1B0E4, size: 0x8, addend: 0x0, symName: __RINvYINtNtNtCsdze8u8oDPro_5alloc3vec9into_iter8IntoIterNtNtNtCsk0EuziVMDa8_11time_macros18format_description3ast4ItemENtNtNtNtCs9f3LFPSIp77_4core4iter6traits8iterator8Iterator3mapINtNtB20_6result6ResultNtNtBV_11format_item4ItemNtBV_5ErrorENvMB3g_B3e_8from_astEBX_, symObjAddr: 0xAD8, symBinAddr: 0x21804, symSize: 0x1C }
  - { offset: 0x1B162, size: 0x8, addend: 0x0, symName: __RINvYINtNtNtCsdze8u8oDPro_5alloc3vec9into_iter8IntoIterNtNtNtCsk0EuziVMDa8_11time_macros18format_description6public15OwnedFormatItemENtNtNtNtCs9f3LFPSIp77_4core4iter6traits8iterator8Iterator3mapNtCsjLJ1XWNSM6u_10proc_macro11TokenStreamNCNCNvBX_18format_description0s_0EBX_, symObjAddr: 0xAF4, symBinAddr: 0x21820, symSize: 0x1C }
  - { offset: 0x1B1E0, size: 0x8, addend: 0x0, symName: __RINvYINtNtNtCsdze8u8oDPro_5alloc3vec9into_iter8IntoIterNtNtNtCsk0EuziVMDa8_11time_macros18format_description6public15OwnedFormatItemENtNtNtNtCs9f3LFPSIp77_4core4iter6traits8iterator8Iterator3mapNtCsjLJ1XWNSM6u_10proc_macro11TokenStreamNCNvXBT_BR_NtNtBX_9to_tokens13ToTokenStream9append_to0EBX_, symObjAddr: 0xB10, symBinAddr: 0x2183C, symSize: 0x1C }
  - { offset: 0x1B25E, size: 0x8, addend: 0x0, symName: __RINvYINtNtNtCsdze8u8oDPro_5alloc3vec9into_iter8IntoIterNtNtNtCsk0EuziVMDa8_11time_macros18format_description6public15OwnedFormatItemENtNtNtNtCs9f3LFPSIp77_4core4iter6traits8iterator8Iterator3mapNtCsjLJ1XWNSM6u_10proc_macro11TokenStreamNCNvXBT_BR_NtNtBX_9to_tokens13ToTokenStream9append_tos_0EBX_, symObjAddr: 0xB2C, symBinAddr: 0x21858, symSize: 0x1C }
  - { offset: 0x1B493, size: 0x8, addend: 0x0, symName: __RNvYINtNtNtCsdze8u8oDPro_5alloc3vec9into_iter8IntoIterINtNtB9_5boxed3BoxSNtNtNtCsk0EuziVMDa8_11time_macros18format_description11format_item4ItemEENtNtNtNtCs9f3LFPSIp77_4core4iter6traits10exact_size17ExactSizeIterator3lenB1f_, symObjAddr: 0x1928, symBinAddr: 0x22654, symSize: 0xC4 }
  - { offset: 0x1B585, size: 0x8, addend: 0x0, symName: __RNvYINtNtNtCsdze8u8oDPro_5alloc3vec9into_iter8IntoIterINtNtCsjLJ1XWNSM6u_10proc_macro6bridge9TokenTreeNtNtBT_6client11TokenStreamNtB1E_4SpanNtNtBT_6symbol6SymbolEENtNtNtNtCs9f3LFPSIp77_4core4iter6traits10exact_size17ExactSizeIterator3lenCsk0EuziVMDa8_11time_macros, symObjAddr: 0x19EC, symBinAddr: 0x22718, symSize: 0xC4 }
  - { offset: 0x1B677, size: 0x8, addend: 0x0, symName: __RNvYINtNtNtCsdze8u8oDPro_5alloc3vec9into_iter8IntoIterNtNtNtCsk0EuziVMDa8_11time_macros18format_description11format_item4ItemENtNtNtNtCs9f3LFPSIp77_4core4iter6traits10exact_size17ExactSizeIterator3lenBW_, symObjAddr: 0x1AB0, symBinAddr: 0x227DC, symSize: 0xC4 }
  - { offset: 0x1B769, size: 0x8, addend: 0x0, symName: __RNvYINtNtNtCsdze8u8oDPro_5alloc3vec9into_iter8IntoIterNtNtNtCsk0EuziVMDa8_11time_macros18format_description3ast23NestedFormatDescriptionENtNtNtNtCs9f3LFPSIp77_4core4iter6traits10exact_size17ExactSizeIterator3lenBW_, symObjAddr: 0x1B74, symBinAddr: 0x228A0, symSize: 0xC4 }
  - { offset: 0x1B85B, size: 0x8, addend: 0x0, symName: __RNvYINtNtNtCsdze8u8oDPro_5alloc3vec9into_iter8IntoIterNtNtNtCsk0EuziVMDa8_11time_macros18format_description3ast4ItemENtNtNtNtCs9f3LFPSIp77_4core4iter6traits10exact_size17ExactSizeIterator3lenBW_, symObjAddr: 0x1C38, symBinAddr: 0x22964, symSize: 0xC4 }
  - { offset: 0x1B94D, size: 0x8, addend: 0x0, symName: __RNvYINtNtNtCsdze8u8oDPro_5alloc3vec9into_iter8IntoIterNtNtNtCsk0EuziVMDa8_11time_macros18format_description6public15OwnedFormatItemENtNtNtNtCs9f3LFPSIp77_4core4iter6traits10exact_size17ExactSizeIterator3lenBW_, symObjAddr: 0x1CFC, symBinAddr: 0x22A28, symSize: 0xC4 }
  - { offset: 0x1C1A3, size: 0x8, addend: 0x0, symName: __RINvXs3_NtNtCsdze8u8oDPro_5alloc3vec9into_iterINtB6_8IntoIterINtNtBa_5boxed3BoxSNtNtNtCsk0EuziVMDa8_11time_macros18format_description11format_item4ItemEENtNtNtNtCs9f3LFPSIp77_4core4iter6traits8iterator8Iterator4folduNCINvNtNtB2x_8adapters3map8map_foldBX_NtNtB1k_6public15OwnedFormatItemuNvYBX_INtNtB2z_7convert4IntoB44_E4intoNCINvNvB2r_8for_each4callB44_NCINvMsi_B8_INtB8_3VecB44_E14extend_trustedINtB3x_3MapBI_B4B_EE0E0E0EB1m_, symObjAddr: 0x0, symBinAddr: 0x20D2C, symSize: 0x138 }
  - { offset: 0x1C3AB, size: 0x8, addend: 0x0, symName: __RINvXs3_NtNtCsdze8u8oDPro_5alloc3vec9into_iterINtB6_8IntoIterNtNtNtCsk0EuziVMDa8_11time_macros18format_description11format_item4ItemENtNtNtNtCs9f3LFPSIp77_4core4iter6traits8iterator8Iterator8try_foldINtNtB8_13in_place_drop11InPlaceDropNtNtB11_6public15OwnedFormatItemENCINvNtNtB2d_8adapters3map12map_try_foldBX_B3L_B3b_INtNtB2f_6result6ResultB3b_zENvYBX_INtNtB2f_7convert4IntoB3L_E4intoNCINvNtB8_16in_place_collect24write_in_place_with_dropB3L_E0E0B57_EB13_, symObjAddr: 0x138, symBinAddr: 0x20E64, symSize: 0x1F4 }
  - { offset: 0x1C5C7, size: 0x8, addend: 0x0, symName: __RINvXs3_NtNtCsdze8u8oDPro_5alloc3vec9into_iterINtB6_8IntoIterNtNtNtCsk0EuziVMDa8_11time_macros18format_description3ast23NestedFormatDescriptionENtNtNtNtCs9f3LFPSIp77_4core4iter6traits8iterator8Iterator8try_foldINtNtB8_13in_place_drop11InPlaceDropINtNtBa_5boxed3BoxSNtNtB11_11format_item4ItemEENCINvNtNtB2o_8adapters3map12map_try_foldBX_INtNtB2q_6result6ResultB3W_NtB11_5ErrorEB3m_INtNtNtB2q_3ops12control_flow11ControlFlowIB5p_B3m_zEB3m_ENCNvMB4h_B4f_8from_ast0NCINvXB4O_INtB4O_12GenericShuntINtB4M_3MapBI_B72_EIB5p_NtNtB2q_7convert10InfallibleB5P_EEB2i_8try_foldB3m_NCINvNtB8_16in_place_collect24write_in_place_with_dropB3W_E0B6M_E0E0B66_EB13_, symObjAddr: 0x32C, symBinAddr: 0x21058, symSize: 0x1E0 }
  - { offset: 0x1C801, size: 0x8, addend: 0x0, symName: __RINvXs3_NtNtCsdze8u8oDPro_5alloc3vec9into_iterINtB6_8IntoIterNtNtNtCsk0EuziVMDa8_11time_macros18format_description3ast4ItemENtNtNtNtCs9f3LFPSIp77_4core4iter6traits8iterator8Iterator8try_foldINtNtB8_13in_place_drop11InPlaceDropNtNtB11_11format_item4ItemENCINvNtNtB24_8adapters3map12map_try_foldBX_INtNtB26_6result6ResultB3C_NtB11_5ErrorEB32_INtNtNtB26_3ops12control_flow11ControlFlowIB4L_B32_zEB32_ENvMB3E_B3C_8from_astNCINvXB4a_INtB4a_12GenericShuntINtB48_3MapBI_B6o_EIB4L_NtNtB26_7convert10InfallibleB5b_EEB1Y_8try_foldB32_NCINvNtB8_16in_place_collect24write_in_place_with_dropB3C_E0B68_E0E0B5s_EB13_, symObjAddr: 0x50C, symBinAddr: 0x21238, symSize: 0x1F4 }
  - { offset: 0x1CA3C, size: 0x8, addend: 0x0, symName: __RINvXs3_NtNtCsdze8u8oDPro_5alloc3vec9into_iterINtB6_8IntoIterNtNtNtCsk0EuziVMDa8_11time_macros18format_description6public15OwnedFormatItemENtNtNtNtCs9f3LFPSIp77_4core4iter6traits8iterator8Iterator4folduNCINvNtNtB2j_8adapters3map8map_foldBX_NtCsjLJ1XWNSM6u_10proc_macro11TokenStreamuNCNCNvB13_18format_description0s_0NCINvNvB2d_8for_each4callB3Q_NCINvXsi_B3S_B3Q_INtNtB2h_7collect12FromIteratorB3Q_E9from_iterINtB3j_3MapBI_B4w_EE0E0E0EB13_, symObjAddr: 0x700, symBinAddr: 0x2142C, symSize: 0x12C }
  - { offset: 0x1CC44, size: 0x8, addend: 0x0, symName: __RINvXs3_NtNtCsdze8u8oDPro_5alloc3vec9into_iterINtB6_8IntoIterNtNtNtCsk0EuziVMDa8_11time_macros18format_description6public15OwnedFormatItemENtNtNtNtCs9f3LFPSIp77_4core4iter6traits8iterator8Iterator4folduNCINvNtNtB2j_8adapters3map8map_foldBX_NtCsjLJ1XWNSM6u_10proc_macro11TokenStreamuNCNvXBZ_BX_NtNtB13_9to_tokens13ToTokenStream9append_to0NCINvNvB2d_8for_each4callB3Q_NCINvXsi_B3S_B3Q_INtNtB2h_7collect12FromIteratorB3Q_E9from_iterINtB3j_3MapBI_B4w_EE0E0E0EB13_, symObjAddr: 0x82C, symBinAddr: 0x21558, symSize: 0x12C }
  - { offset: 0x1CE4C, size: 0x8, addend: 0x0, symName: __RINvXs3_NtNtCsdze8u8oDPro_5alloc3vec9into_iterINtB6_8IntoIterNtNtNtCsk0EuziVMDa8_11time_macros18format_description6public15OwnedFormatItemENtNtNtNtCs9f3LFPSIp77_4core4iter6traits8iterator8Iterator4folduNCINvNtNtB2j_8adapters3map8map_foldBX_NtCsjLJ1XWNSM6u_10proc_macro11TokenStreamuNCNvXBZ_BX_NtNtB13_9to_tokens13ToTokenStream9append_tos_0NCINvNvB2d_8for_each4callB3Q_NCINvXsi_B3S_B3Q_INtNtB2h_7collect12FromIteratorB3Q_E9from_iterINtB3j_3MapBI_B4w_EE0E0E0EB13_, symObjAddr: 0x958, symBinAddr: 0x21684, symSize: 0x12C }
  - { offset: 0x1D054, size: 0x8, addend: 0x0, symName: __RNvXs3_NtNtCsdze8u8oDPro_5alloc3vec9into_iterINtB5_8IntoIterINtNtB9_5boxed3BoxSNtNtNtCsk0EuziVMDa8_11time_macros18format_description11format_item4ItemEENtNtNtNtCs9f3LFPSIp77_4core4iter6traits8iterator8Iterator9size_hintB1l_, symObjAddr: 0x10D0, symBinAddr: 0x21DFC, symSize: 0xB8 }
  - { offset: 0x1D125, size: 0x8, addend: 0x0, symName: __RNvXs3_NtNtCsdze8u8oDPro_5alloc3vec9into_iterINtB5_8IntoIterINtNtCsjLJ1XWNSM6u_10proc_macro6bridge9TokenTreeNtNtBZ_6client11TokenStreamNtB1K_4SpanNtNtBZ_6symbol6SymbolEENtNtNtNtCs9f3LFPSIp77_4core4iter6traits8iterator8Iterator9size_hintCsk0EuziVMDa8_11time_macros, symObjAddr: 0x1188, symBinAddr: 0x21EB4, symSize: 0xB8 }
  - { offset: 0x1D1F6, size: 0x8, addend: 0x0, symName: __RNvXs3_NtNtCsdze8u8oDPro_5alloc3vec9into_iterINtB5_8IntoIterNtNtNtCsk0EuziVMDa8_11time_macros18format_description11format_item4ItemENtNtNtNtCs9f3LFPSIp77_4core4iter6traits8iterator8Iterator9size_hintB12_, symObjAddr: 0x1240, symBinAddr: 0x21F6C, symSize: 0xB8 }
  - { offset: 0x1D2C7, size: 0x8, addend: 0x0, symName: __RNvXs3_NtNtCsdze8u8oDPro_5alloc3vec9into_iterINtB5_8IntoIterNtNtNtCsk0EuziVMDa8_11time_macros18format_description3ast23NestedFormatDescriptionENtNtNtNtCs9f3LFPSIp77_4core4iter6traits8iterator8Iterator9size_hintB12_, symObjAddr: 0x12F8, symBinAddr: 0x22024, symSize: 0xB8 }
  - { offset: 0x1D398, size: 0x8, addend: 0x0, symName: __RNvXs3_NtNtCsdze8u8oDPro_5alloc3vec9into_iterINtB5_8IntoIterNtNtNtCsk0EuziVMDa8_11time_macros18format_description3ast4ItemENtNtNtNtCs9f3LFPSIp77_4core4iter6traits8iterator8Iterator9size_hintB12_, symObjAddr: 0x13B0, symBinAddr: 0x220DC, symSize: 0xB8 }
  - { offset: 0x1D469, size: 0x8, addend: 0x0, symName: __RNvXs3_NtNtCsdze8u8oDPro_5alloc3vec9into_iterINtB5_8IntoIterNtNtNtCsk0EuziVMDa8_11time_macros18format_description6public15OwnedFormatItemENtNtNtNtCs9f3LFPSIp77_4core4iter6traits8iterator8Iterator9size_hintB12_, symObjAddr: 0x1468, symBinAddr: 0x22194, symSize: 0xB8 }
  - { offset: 0x1D865, size: 0x8, addend: 0x0, symName: __RNvXNvXsd_NtNtCsdze8u8oDPro_5alloc3vec9into_iterINtB8_8IntoIterppENtNtNtCs9f3LFPSIp77_4core3ops4drop4Drop4dropINtB2_9DropGuardINtNtBc_5boxed3BoxSNtNtNtCsk0EuziVMDa8_11time_macros18format_description11format_item4ItemENtNtBc_5alloc6GlobalEB12_4dropB2p_, symObjAddr: 0xDA0, symBinAddr: 0x21ACC, symSize: 0x88 }
  - { offset: 0x1D972, size: 0x8, addend: 0x0, symName: __RNvXNvXsd_NtNtCsdze8u8oDPro_5alloc3vec9into_iterINtB8_8IntoIterppENtNtNtCs9f3LFPSIp77_4core3ops4drop4Drop4dropINtB2_9DropGuardINtNtCsjLJ1XWNSM6u_10proc_macro6bridge9TokenTreeNtNtB23_6client11TokenStreamNtB2O_4SpanNtNtB23_6symbol6SymbolENtNtBc_5alloc6GlobalEB12_4dropCsk0EuziVMDa8_11time_macros, symObjAddr: 0xE28, symBinAddr: 0x21B54, symSize: 0x88 }
  - { offset: 0x1DA7F, size: 0x8, addend: 0x0, symName: __RNvXNvXsd_NtNtCsdze8u8oDPro_5alloc3vec9into_iterINtB8_8IntoIterppENtNtNtCs9f3LFPSIp77_4core3ops4drop4Drop4dropINtB2_9DropGuardNtNtNtCsk0EuziVMDa8_11time_macros18format_description11format_item4ItemNtNtBc_5alloc6GlobalEB12_4dropB26_, symObjAddr: 0xEB0, symBinAddr: 0x21BDC, symSize: 0x88 }
  - { offset: 0x1DB8C, size: 0x8, addend: 0x0, symName: __RNvXNvXsd_NtNtCsdze8u8oDPro_5alloc3vec9into_iterINtB8_8IntoIterppENtNtNtCs9f3LFPSIp77_4core3ops4drop4Drop4dropINtB2_9DropGuardNtNtNtCsk0EuziVMDa8_11time_macros18format_description3ast23NestedFormatDescriptionNtNtBc_5alloc6GlobalEB12_4dropB26_, symObjAddr: 0xF38, symBinAddr: 0x21C64, symSize: 0x88 }
  - { offset: 0x1DC99, size: 0x8, addend: 0x0, symName: __RNvXNvXsd_NtNtCsdze8u8oDPro_5alloc3vec9into_iterINtB8_8IntoIterppENtNtNtCs9f3LFPSIp77_4core3ops4drop4Drop4dropINtB2_9DropGuardNtNtNtCsk0EuziVMDa8_11time_macros18format_description3ast4ItemNtNtBc_5alloc6GlobalEB12_4dropB26_, symObjAddr: 0xFC0, symBinAddr: 0x21CEC, symSize: 0x88 }
  - { offset: 0x1DDA6, size: 0x8, addend: 0x0, symName: __RNvXNvXsd_NtNtCsdze8u8oDPro_5alloc3vec9into_iterINtB8_8IntoIterppENtNtNtCs9f3LFPSIp77_4core3ops4drop4Drop4dropINtB2_9DropGuardNtNtNtCsk0EuziVMDa8_11time_macros18format_description6public15OwnedFormatItemNtNtBc_5alloc6GlobalEB12_4dropB26_, symObjAddr: 0x1048, symBinAddr: 0x21D74, symSize: 0x88 }
  - { offset: 0x1DF9F, size: 0x8, addend: 0x0, symName: __RNvXsd_NtNtCsdze8u8oDPro_5alloc3vec9into_iterINtB5_8IntoIterINtNtB9_5boxed3BoxSNtNtNtCsk0EuziVMDa8_11time_macros18format_description11format_item4ItemEENtNtNtCs9f3LFPSIp77_4core3ops4drop4Drop4dropB1l_, symObjAddr: 0x1520, symBinAddr: 0x2224C, symSize: 0x98 }
  - { offset: 0x1E039, size: 0x8, addend: 0x0, symName: __RNvXsd_NtNtCsdze8u8oDPro_5alloc3vec9into_iterINtB5_8IntoIterINtNtCsjLJ1XWNSM6u_10proc_macro6bridge9TokenTreeNtNtBZ_6client11TokenStreamNtB1K_4SpanNtNtBZ_6symbol6SymbolEENtNtNtCs9f3LFPSIp77_4core3ops4drop4Drop4dropCsk0EuziVMDa8_11time_macros, symObjAddr: 0x15B8, symBinAddr: 0x222E4, symSize: 0x98 }
  - { offset: 0x1E0D3, size: 0x8, addend: 0x0, symName: __RNvXsd_NtNtCsdze8u8oDPro_5alloc3vec9into_iterINtB5_8IntoIterNtNtNtCsk0EuziVMDa8_11time_macros18format_description11format_item4ItemENtNtNtCs9f3LFPSIp77_4core3ops4drop4Drop4dropB12_, symObjAddr: 0x1650, symBinAddr: 0x2237C, symSize: 0x98 }
  - { offset: 0x1E16D, size: 0x8, addend: 0x0, symName: __RNvXsd_NtNtCsdze8u8oDPro_5alloc3vec9into_iterINtB5_8IntoIterNtNtNtCsk0EuziVMDa8_11time_macros18format_description3ast23NestedFormatDescriptionENtNtNtCs9f3LFPSIp77_4core3ops4drop4Drop4dropB12_, symObjAddr: 0x16E8, symBinAddr: 0x22414, symSize: 0x98 }
  - { offset: 0x1E207, size: 0x8, addend: 0x0, symName: __RNvXsd_NtNtCsdze8u8oDPro_5alloc3vec9into_iterINtB5_8IntoIterNtNtNtCsk0EuziVMDa8_11time_macros18format_description3ast4ItemENtNtNtCs9f3LFPSIp77_4core3ops4drop4Drop4dropB12_, symObjAddr: 0x1780, symBinAddr: 0x224AC, symSize: 0x98 }
  - { offset: 0x1E2A1, size: 0x8, addend: 0x0, symName: __RNvXsd_NtNtCsdze8u8oDPro_5alloc3vec9into_iterINtB5_8IntoIterNtNtNtCsk0EuziVMDa8_11time_macros18format_description6public15OwnedFormatItemENtNtNtCs9f3LFPSIp77_4core3ops4drop4Drop4dropB12_, symObjAddr: 0x1818, symBinAddr: 0x22544, symSize: 0x98 }
  - { offset: 0x1E3CB, size: 0x8, addend: 0x0, symName: __RNvXsf_NtNtCsdze8u8oDPro_5alloc3vec9into_iterINtB5_8IntoIterNtNtNtCsk0EuziVMDa8_11time_macros18format_description11format_item4ItemENtNtNtCs9f3LFPSIp77_4core4iter8adapters10SourceIter8as_innerB12_, symObjAddr: 0x18B0, symBinAddr: 0x225DC, symSize: 0x14 }
  - { offset: 0x1E40B, size: 0x8, addend: 0x0, symName: __RNvXsf_NtNtCsdze8u8oDPro_5alloc3vec9into_iterINtB5_8IntoIterNtNtNtCsk0EuziVMDa8_11time_macros18format_description3ast23NestedFormatDescriptionENtNtNtCs9f3LFPSIp77_4core4iter8adapters10SourceIter8as_innerB12_, symObjAddr: 0x18C4, symBinAddr: 0x225F0, symSize: 0x14 }
  - { offset: 0x1E44B, size: 0x8, addend: 0x0, symName: __RNvXsf_NtNtCsdze8u8oDPro_5alloc3vec9into_iterINtB5_8IntoIterNtNtNtCsk0EuziVMDa8_11time_macros18format_description3ast4ItemENtNtNtCs9f3LFPSIp77_4core4iter8adapters10SourceIter8as_innerB12_, symObjAddr: 0x18D8, symBinAddr: 0x22604, symSize: 0x14 }
  - { offset: 0x1E491, size: 0x8, addend: 0x0, symName: __RNvXsg_NtNtCsdze8u8oDPro_5alloc3vec9into_iterINtB5_8IntoIterNtNtNtCsk0EuziVMDa8_11time_macros18format_description11format_item4ItemENtNtB7_16in_place_collect13AsVecIntoIter12as_into_iterB12_, symObjAddr: 0x18EC, symBinAddr: 0x22618, symSize: 0x14 }
  - { offset: 0x1E4C8, size: 0x8, addend: 0x0, symName: __RNvXsg_NtNtCsdze8u8oDPro_5alloc3vec9into_iterINtB5_8IntoIterNtNtNtCsk0EuziVMDa8_11time_macros18format_description3ast23NestedFormatDescriptionENtNtB7_16in_place_collect13AsVecIntoIter12as_into_iterB12_, symObjAddr: 0x1900, symBinAddr: 0x2262C, symSize: 0x14 }
  - { offset: 0x1E4FF, size: 0x8, addend: 0x0, symName: __RNvXsg_NtNtCsdze8u8oDPro_5alloc3vec9into_iterINtB5_8IntoIterNtNtNtCsk0EuziVMDa8_11time_macros18format_description3ast4ItemENtNtB7_16in_place_collect13AsVecIntoIter12as_into_iterB12_, symObjAddr: 0x1914, symBinAddr: 0x22640, symSize: 0x14 }
  - { offset: 0x1F2EF, size: 0x8, addend: 0x0, symName: __RNvMs_NtNtCsdze8u8oDPro_5alloc3vec9into_iterINtB4_8IntoIterNtNtNtCsk0EuziVMDa8_11time_macros18format_description11format_item4ItemE32forget_allocation_drop_remainingB11_, symObjAddr: 0xB48, symBinAddr: 0x21874, symSize: 0xC8 }
  - { offset: 0x1F650, size: 0x8, addend: 0x0, symName: __RNvMs_NtNtCsdze8u8oDPro_5alloc3vec9into_iterINtB4_8IntoIterNtNtNtCsk0EuziVMDa8_11time_macros18format_description3ast23NestedFormatDescriptionE32forget_allocation_drop_remainingB11_, symObjAddr: 0xC10, symBinAddr: 0x2193C, symSize: 0xC8 }
  - { offset: 0x1F9B1, size: 0x8, addend: 0x0, symName: __RNvMs_NtNtCsdze8u8oDPro_5alloc3vec9into_iterINtB4_8IntoIterNtNtNtCsk0EuziVMDa8_11time_macros18format_description3ast4ItemE32forget_allocation_drop_remainingB11_, symObjAddr: 0xCD8, symBinAddr: 0x21A04, symSize: 0xC8 }
  - { offset: 0x2047B, size: 0x8, addend: 0x0, symName: __RINvNtCs9f3LFPSIp77_4core3ptr13drop_in_placeANtCsjLJ1XWNSM6u_10proc_macro9TokenTreej8_ECsk0EuziVMDa8_11time_macros, symObjAddr: 0x0, symBinAddr: 0x22AEC, symSize: 0xB4 }
  - { offset: 0x20523, size: 0x8, addend: 0x0, symName: __RINvNtNtNtCsjLJ1XWNSM6u_10proc_macro6bridge6client5state3setINtNtCs9f3LFPSIp77_4core6option6OptionNtB4_11TokenStreamENCNCINvB4_10run_clientB1y_BW_NCNCINvMs7_B4_INtB4_6ClientNtB8_11TokenStreamB2L_E7expand1NvCsk0EuziVMDa8_11time_macros18format_descriptionE00E00EB3i_, symObjAddr: 0x2728, symBinAddr: 0x25214, symSize: 0x128 }
  - { offset: 0x20617, size: 0x8, addend: 0x0, symName: __RINvNtNtNtCsjLJ1XWNSM6u_10proc_macro6bridge6client5state3setINtNtCs9f3LFPSIp77_4core6option6OptionNtB4_11TokenStreamENCNCINvB4_10run_clientB1y_BW_NCNCINvMs7_B4_INtB4_6ClientNtB8_11TokenStreamB2L_E7expand1NvCsk0EuziVMDa8_11time_macros4dateE00E00EB3i_, symObjAddr: 0x2850, symBinAddr: 0x2533C, symSize: 0x128 }
  - { offset: 0x2070B, size: 0x8, addend: 0x0, symName: __RINvNtNtNtCsjLJ1XWNSM6u_10proc_macro6bridge6client5state3setINtNtCs9f3LFPSIp77_4core6option6OptionNtB4_11TokenStreamENCNCINvB4_10run_clientB1y_BW_NCNCINvMs7_B4_INtB4_6ClientNtB8_11TokenStreamB2L_E7expand1NvCsk0EuziVMDa8_11time_macros4timeE00E00EB3i_, symObjAddr: 0x2978, symBinAddr: 0x25464, symSize: 0x128 }
  - { offset: 0x207FF, size: 0x8, addend: 0x0, symName: __RINvNtNtNtCsjLJ1XWNSM6u_10proc_macro6bridge6client5state3setINtNtCs9f3LFPSIp77_4core6option6OptionNtB4_11TokenStreamENCNCINvB4_10run_clientB1y_BW_NCNCINvMs7_B4_INtB4_6ClientNtB8_11TokenStreamB2L_E7expand1NvCsk0EuziVMDa8_11time_macros6offsetE00E00EB3i_, symObjAddr: 0x2AA0, symBinAddr: 0x2558C, symSize: 0x128 }
  - { offset: 0x208F3, size: 0x8, addend: 0x0, symName: __RINvNtNtNtCsjLJ1XWNSM6u_10proc_macro6bridge6client5state3setINtNtCs9f3LFPSIp77_4core6option6OptionNtB4_11TokenStreamENCNCINvB4_10run_clientB1y_BW_NCNCINvMs7_B4_INtB4_6ClientNtB8_11TokenStreamB2L_E7expand1NvCsk0EuziVMDa8_11time_macros8datetimeE00E00EB3i_, symObjAddr: 0x2BC8, symBinAddr: 0x256B4, symSize: 0x128 }
  - { offset: 0x209F1, size: 0x8, addend: 0x0, symName: __RNCNkNvNtNtNtCsjLJ1XWNSM6u_10proc_macro6bridge6client5state12BRIDGE_STATE0s_0Csk0EuziVMDa8_11time_macros, symObjAddr: 0x2E44, symBinAddr: 0x25930, symSize: 0x34 }
  - { offset: 0x22213, size: 0x8, addend: 0x0, symName: __RNvNtCsk0EuziVMDa8_11time_macros6offset5parse, symObjAddr: 0x352C, symBinAddr: 0x26018, symSize: 0x8C4 }
  - { offset: 0x22364, size: 0x8, addend: 0x0, symName: __RNvXNtCsk0EuziVMDa8_11time_macros6offsetNtB2_6OffsetNtNtB4_9to_tokens11ToTokenTree15into_token_tree, symObjAddr: 0x3DF0, symBinAddr: 0x268DC, symSize: 0xE6C }
  - { offset: 0x22D7B, size: 0x8, addend: 0x0, symName: __RINvNtCs9f3LFPSIp77_4core3ptr13drop_in_placeANtCsjLJ1XWNSM6u_10proc_macro9TokenTreej8_ECsk0EuziVMDa8_11time_macros, symObjAddr: 0x0, symBinAddr: 0x22AEC, symSize: 0xB4 }
  - { offset: 0x22DAA, size: 0x8, addend: 0x0, symName: __RINvNtCs9f3LFPSIp77_4core3ptr13drop_in_placeDNtNtB4_5error5ErrorNtNtB4_6marker4SendNtB12_4SyncEL_ECsk0EuziVMDa8_11time_macros, symObjAddr: 0xB4, symBinAddr: 0x22BA0, symSize: 0x48 }
  - { offset: 0x22DD9, size: 0x8, addend: 0x0, symName: __RINvNtCs9f3LFPSIp77_4core3ptr13drop_in_placeINtNtB4_4cell10UnsafeCellNtNtNtCsjLJ1XWNSM6u_10proc_macro6bridge6client6BridgeEECsk0EuziVMDa8_11time_macros, symObjAddr: 0xFC, symBinAddr: 0x22BE8, symSize: 0x24 }
  - { offset: 0x22E08, size: 0x8, addend: 0x0, symName: __RINvNtCs9f3LFPSIp77_4core3ptr13drop_in_placeINtNtB4_4cell7RefCellNtNtNtCsjLJ1XWNSM6u_10proc_macro6bridge6client6BridgeEECsk0EuziVMDa8_11time_macros, symObjAddr: 0x120, symBinAddr: 0x22C0C, symSize: 0x24 }
  - { offset: 0x22E37, size: 0x8, addend: 0x0, symName: __RINvNtCs9f3LFPSIp77_4core3ptr13drop_in_placeINtNtB4_6option6OptionIBH_NtCsjLJ1XWNSM6u_10proc_macro9TokenTreeEEECsk0EuziVMDa8_11time_macros, symObjAddr: 0x144, symBinAddr: 0x22C30, symSize: 0x44 }
  - { offset: 0x22E66, size: 0x8, addend: 0x0, symName: __RINvNtCs9f3LFPSIp77_4core3ptr13drop_in_placeINtNtB4_6option6OptionINtNtB4_6result6ResultNtNtNtCsk0EuziVMDa8_11time_macros18format_description3ast4ItemNtB1s_5ErrorEEEB1u_, symObjAddr: 0x188, symBinAddr: 0x22C74, symSize: 0x44 }
  - { offset: 0x22E95, size: 0x8, addend: 0x0, symName: __RINvNtCs9f3LFPSIp77_4core3ptr13drop_in_placeINtNtB4_6option6OptionNtCsjLJ1XWNSM6u_10proc_macro9TokenTreeEECsk0EuziVMDa8_11time_macros, symObjAddr: 0x1CC, symBinAddr: 0x22CB8, symSize: 0x44 }
  - { offset: 0x22EC4, size: 0x8, addend: 0x0, symName: __RINvNtCs9f3LFPSIp77_4core3ptr13drop_in_placeINtNtB4_6option6OptionNtNtNtCsjLJ1XWNSM6u_10proc_macro6bridge6client11TokenStreamEECsk0EuziVMDa8_11time_macros, symObjAddr: 0x210, symBinAddr: 0x22CFC, symSize: 0x44 }
  - { offset: 0x22EF3, size: 0x8, addend: 0x0, symName: __RINvNtCs9f3LFPSIp77_4core3ptr13drop_in_placeINtNtB4_6option6OptionNtNtNtCsk0EuziVMDa8_11time_macros18format_description3ast4ItemEEB18_, symObjAddr: 0x254, symBinAddr: 0x22D40, symSize: 0x44 }
  - { offset: 0x22F22, size: 0x8, addend: 0x0, symName: __RINvNtCs9f3LFPSIp77_4core3ptr13drop_in_placeINtNtB4_6option6OptionNtNtNtCsk0EuziVMDa8_11time_macros18format_description6public15OwnedFormatItemEEB18_, symObjAddr: 0x298, symBinAddr: 0x22D84, symSize: 0x44 }
  - { offset: 0x22F51, size: 0x8, addend: 0x0, symName: __RINvNtCs9f3LFPSIp77_4core3ptr13drop_in_placeINtNtB4_6result6ResultNtCsjLJ1XWNSM6u_10proc_macro4SpanNtNtCsk0EuziVMDa8_11time_macros5error5ErrorEEB1D_, symObjAddr: 0x2DC, symBinAddr: 0x22DC8, symSize: 0x4C }
  - { offset: 0x22F80, size: 0x8, addend: 0x0, symName: __RINvNtCs9f3LFPSIp77_4core3ptr13drop_in_placeINtNtB4_6result6ResultNtNtNtCsk0EuziVMDa8_11time_macros18format_description3ast23NestedFormatDescriptionNtB16_5ErrorEEB18_, symObjAddr: 0x328, symBinAddr: 0x22E14, symSize: 0x48 }
  - { offset: 0x22FAF, size: 0x8, addend: 0x0, symName: __RINvNtCs9f3LFPSIp77_4core3ptr13drop_in_placeINtNtB4_6result6ResultNtNtNtCsk0EuziVMDa8_11time_macros18format_description3ast4ItemNtB16_5ErrorEEB18_, symObjAddr: 0x370, symBinAddr: 0x22E5C, symSize: 0x48 }
  - { offset: 0x22FDE, size: 0x8, addend: 0x0, symName: __RINvNtCs9f3LFPSIp77_4core3ptr13drop_in_placeINtNtCsdze8u8oDPro_5alloc3vec3VecINtNtBL_5boxed3BoxSNtNtNtCsk0EuziVMDa8_11time_macros18format_description11format_item4ItemEEEB1C_, symObjAddr: 0x3B8, symBinAddr: 0x22EA4, symSize: 0x5C }
  - { offset: 0x2300D, size: 0x8, addend: 0x0, symName: __RINvNtCs9f3LFPSIp77_4core3ptr13drop_in_placeINtNtCsdze8u8oDPro_5alloc3vec3VecINtNtCsjLJ1XWNSM6u_10proc_macro6bridge9TokenTreeNtNtB1g_6client11TokenStreamNtB21_4SpanNtNtB1g_6symbol6SymbolEEECsk0EuziVMDa8_11time_macros, symObjAddr: 0x414, symBinAddr: 0x22F00, symSize: 0x5C }
  - { offset: 0x2303C, size: 0x8, addend: 0x0, symName: __RINvNtCs9f3LFPSIp77_4core3ptr13drop_in_placeINtNtCsdze8u8oDPro_5alloc3vec3VecNtNtNtCsjLJ1XWNSM6u_10proc_macro6bridge6client11TokenStreamEECsk0EuziVMDa8_11time_macros, symObjAddr: 0x470, symBinAddr: 0x22F5C, symSize: 0x5C }
  - { offset: 0x2306B, size: 0x8, addend: 0x0, symName: __RINvNtCs9f3LFPSIp77_4core3ptr13drop_in_placeINtNtCsdze8u8oDPro_5alloc3vec3VecNtNtNtCsk0EuziVMDa8_11time_macros18format_description11format_item4ItemEEB1j_, symObjAddr: 0x4CC, symBinAddr: 0x22FB8, symSize: 0x5C }
  - { offset: 0x2309A, size: 0x8, addend: 0x0, symName: __RINvNtCs9f3LFPSIp77_4core3ptr13drop_in_placeINtNtCsdze8u8oDPro_5alloc3vec3VecNtNtNtCsk0EuziVMDa8_11time_macros18format_description3ast23NestedFormatDescriptionEEB1j_, symObjAddr: 0x528, symBinAddr: 0x23014, symSize: 0x5C }
  - { offset: 0x230C9, size: 0x8, addend: 0x0, symName: __RINvNtCs9f3LFPSIp77_4core3ptr13drop_in_placeINtNtCsdze8u8oDPro_5alloc3vec3VecNtNtNtCsk0EuziVMDa8_11time_macros18format_description3ast4ItemEEB1j_, symObjAddr: 0x584, symBinAddr: 0x23070, symSize: 0x5C }
  - { offset: 0x230F8, size: 0x8, addend: 0x0, symName: __RINvNtCs9f3LFPSIp77_4core3ptr13drop_in_placeINtNtCsdze8u8oDPro_5alloc3vec3VecNtNtNtCsk0EuziVMDa8_11time_macros18format_description3ast8ModifierEEB1j_, symObjAddr: 0x5E0, symBinAddr: 0x230CC, symSize: 0x5C }
  - { offset: 0x23127, size: 0x8, addend: 0x0, symName: __RINvNtCs9f3LFPSIp77_4core3ptr13drop_in_placeINtNtCsdze8u8oDPro_5alloc3vec3VecNtNtNtCsk0EuziVMDa8_11time_macros18format_description6public15OwnedFormatItemEEB1j_, symObjAddr: 0x63C, symBinAddr: 0x23128, symSize: 0x5C }
  - { offset: 0x23156, size: 0x8, addend: 0x0, symName: __RINvNtCs9f3LFPSIp77_4core3ptr13drop_in_placeINtNtCsdze8u8oDPro_5alloc3vec3VechEECsk0EuziVMDa8_11time_macros, symObjAddr: 0x698, symBinAddr: 0x23184, symSize: 0x5C }
  - { offset: 0x23185, size: 0x8, addend: 0x0, symName: __RINvNtCs9f3LFPSIp77_4core3ptr13drop_in_placeINtNtCsdze8u8oDPro_5alloc5boxed3BoxDNtNtB4_5error5ErrorNtNtB4_6marker4SendNtB1B_4SyncEL_EECsk0EuziVMDa8_11time_macros, symObjAddr: 0x6F4, symBinAddr: 0x231E0, symSize: 0x80 }
  - { offset: 0x231B4, size: 0x8, addend: 0x0, symName: __RINvNtCs9f3LFPSIp77_4core3ptr13drop_in_placeINtNtCsdze8u8oDPro_5alloc5boxed3BoxNtNtNtCs27l1GJC5rMQ_3std2io5error6CustomEECsk0EuziVMDa8_11time_macros, symObjAddr: 0x774, symBinAddr: 0x23260, symSize: 0x60 }
  - { offset: 0x231E3, size: 0x8, addend: 0x0, symName: __RINvNtCs9f3LFPSIp77_4core3ptr13drop_in_placeINtNtCsdze8u8oDPro_5alloc5boxed3BoxNtNtNtCsk0EuziVMDa8_11time_macros18format_description6public15OwnedFormatItemEEB1l_, symObjAddr: 0x7D4, symBinAddr: 0x232C0, symSize: 0x60 }
  - { offset: 0x23212, size: 0x8, addend: 0x0, symName: __RINvNtCs9f3LFPSIp77_4core3ptr13drop_in_placeINtNtCsdze8u8oDPro_5alloc5boxed3BoxSIBH_SNtNtNtCsk0EuziVMDa8_11time_macros18format_description11format_item4ItemEEEB1r_, symObjAddr: 0x834, symBinAddr: 0x23320, symSize: 0x68 }
  - { offset: 0x23241, size: 0x8, addend: 0x0, symName: __RINvNtCs9f3LFPSIp77_4core3ptr13drop_in_placeINtNtCsdze8u8oDPro_5alloc5boxed3BoxSNtNtNtCsk0EuziVMDa8_11time_macros18format_description11format_item4ItemEEB1m_, symObjAddr: 0x89C, symBinAddr: 0x23388, symSize: 0x68 }
  - { offset: 0x23270, size: 0x8, addend: 0x0, symName: __RINvNtCs9f3LFPSIp77_4core3ptr13drop_in_placeINtNtCsdze8u8oDPro_5alloc5boxed3BoxSNtNtNtCsk0EuziVMDa8_11time_macros18format_description3ast23NestedFormatDescriptionEEB1m_, symObjAddr: 0x904, symBinAddr: 0x233F0, symSize: 0x68 }
  - { offset: 0x2329F, size: 0x8, addend: 0x0, symName: __RINvNtCs9f3LFPSIp77_4core3ptr13drop_in_placeINtNtCsdze8u8oDPro_5alloc5boxed3BoxSNtNtNtCsk0EuziVMDa8_11time_macros18format_description3ast4ItemEEB1m_, symObjAddr: 0x96C, symBinAddr: 0x23458, symSize: 0x68 }
  - { offset: 0x232CE, size: 0x8, addend: 0x0, symName: __RINvNtCs9f3LFPSIp77_4core3ptr13drop_in_placeINtNtCsdze8u8oDPro_5alloc5boxed3BoxSNtNtNtCsk0EuziVMDa8_11time_macros18format_description3ast8ModifierEEB1m_, symObjAddr: 0x9D4, symBinAddr: 0x234C0, symSize: 0x2C }
  - { offset: 0x232FD, size: 0x8, addend: 0x0, symName: __RINvNtCs9f3LFPSIp77_4core3ptr13drop_in_placeINtNtCsdze8u8oDPro_5alloc5boxed3BoxSNtNtNtCsk0EuziVMDa8_11time_macros18format_description6public15OwnedFormatItemEEB1m_, symObjAddr: 0xA00, symBinAddr: 0x234EC, symSize: 0x68 }
  - { offset: 0x2332C, size: 0x8, addend: 0x0, symName: __RINvNtCs9f3LFPSIp77_4core3ptr13drop_in_placeINtNtCsdze8u8oDPro_5alloc5boxed3BoxShEECsk0EuziVMDa8_11time_macros, symObjAddr: 0xA68, symBinAddr: 0x23554, symSize: 0x2C }
  - { offset: 0x2335B, size: 0x8, addend: 0x0, symName: __RINvNtCs9f3LFPSIp77_4core3ptr13drop_in_placeINtNtCsdze8u8oDPro_5alloc6borrow3CoweEECsk0EuziVMDa8_11time_macros, symObjAddr: 0xA94, symBinAddr: 0x23580, symSize: 0x48 }
  - { offset: 0x2338A, size: 0x8, addend: 0x0, symName: __RINvNtCs9f3LFPSIp77_4core3ptr13drop_in_placeINtNtCsdze8u8oDPro_5alloc7raw_vec6RawVecINtNtBL_5boxed3BoxSNtNtNtCsk0EuziVMDa8_11time_macros18format_description11format_item4ItemEEEB1J_, symObjAddr: 0xADC, symBinAddr: 0x235C8, symSize: 0x24 }
  - { offset: 0x233B9, size: 0x8, addend: 0x0, symName: __RINvNtCs9f3LFPSIp77_4core3ptr13drop_in_placeINtNtCsdze8u8oDPro_5alloc7raw_vec6RawVecINtNtCsjLJ1XWNSM6u_10proc_macro6bridge9TokenTreeNtNtB1n_6client11TokenStreamNtB28_4SpanNtNtB1n_6symbol6SymbolEEECsk0EuziVMDa8_11time_macros, symObjAddr: 0xB00, symBinAddr: 0x235EC, symSize: 0x24 }
  - { offset: 0x233E8, size: 0x8, addend: 0x0, symName: __RINvNtCs9f3LFPSIp77_4core3ptr13drop_in_placeINtNtCsdze8u8oDPro_5alloc7raw_vec6RawVecNtNtNtCsjLJ1XWNSM6u_10proc_macro6bridge6client11TokenStreamEECsk0EuziVMDa8_11time_macros, symObjAddr: 0xB24, symBinAddr: 0x23610, symSize: 0x24 }
  - { offset: 0x23417, size: 0x8, addend: 0x0, symName: __RINvNtCs9f3LFPSIp77_4core3ptr13drop_in_placeINtNtCsdze8u8oDPro_5alloc7raw_vec6RawVecNtNtNtCsk0EuziVMDa8_11time_macros18format_description11format_item4ItemEEB1q_, symObjAddr: 0xB48, symBinAddr: 0x23634, symSize: 0x24 }
  - { offset: 0x23446, size: 0x8, addend: 0x0, symName: __RINvNtCs9f3LFPSIp77_4core3ptr13drop_in_placeINtNtCsdze8u8oDPro_5alloc7raw_vec6RawVecNtNtNtCsk0EuziVMDa8_11time_macros18format_description3ast23NestedFormatDescriptionEEB1q_, symObjAddr: 0xB6C, symBinAddr: 0x23658, symSize: 0x24 }
  - { offset: 0x23475, size: 0x8, addend: 0x0, symName: __RINvNtCs9f3LFPSIp77_4core3ptr13drop_in_placeINtNtCsdze8u8oDPro_5alloc7raw_vec6RawVecNtNtNtCsk0EuziVMDa8_11time_macros18format_description3ast4ItemEEB1q_, symObjAddr: 0xB90, symBinAddr: 0x2367C, symSize: 0x24 }
  - { offset: 0x234A4, size: 0x8, addend: 0x0, symName: __RINvNtCs9f3LFPSIp77_4core3ptr13drop_in_placeINtNtCsdze8u8oDPro_5alloc7raw_vec6RawVecNtNtNtCsk0EuziVMDa8_11time_macros18format_description3ast8ModifierEEB1q_, symObjAddr: 0xBB4, symBinAddr: 0x236A0, symSize: 0x24 }
  - { offset: 0x234D3, size: 0x8, addend: 0x0, symName: __RINvNtCs9f3LFPSIp77_4core3ptr13drop_in_placeINtNtCsdze8u8oDPro_5alloc7raw_vec6RawVecNtNtNtCsk0EuziVMDa8_11time_macros18format_description6public15OwnedFormatItemEEB1q_, symObjAddr: 0xBD8, symBinAddr: 0x236C4, symSize: 0x24 }
  - { offset: 0x23502, size: 0x8, addend: 0x0, symName: __RINvNtCs9f3LFPSIp77_4core3ptr13drop_in_placeINtNtCsdze8u8oDPro_5alloc7raw_vec6RawVechEECsk0EuziVMDa8_11time_macros, symObjAddr: 0xBFC, symBinAddr: 0x236E8, symSize: 0x24 }
  - { offset: 0x23531, size: 0x8, addend: 0x0, symName: __RINvNtCs9f3LFPSIp77_4core3ptr13drop_in_placeINtNtCsjLJ1XWNSM6u_10proc_macro6bridge5GroupNtNtBJ_6client11TokenStreamNtB1q_4SpanEECsk0EuziVMDa8_11time_macros, symObjAddr: 0xC20, symBinAddr: 0x2370C, symSize: 0x24 }
  - { offset: 0x23560, size: 0x8, addend: 0x0, symName: __RINvNtCs9f3LFPSIp77_4core3ptr13drop_in_placeINtNtCsjLJ1XWNSM6u_10proc_macro6bridge9TokenTreeNtNtBJ_6client11TokenStreamNtB1u_4SpanNtNtBJ_6symbol6SymbolEECsk0EuziVMDa8_11time_macros, symObjAddr: 0xC44, symBinAddr: 0x23730, symSize: 0x58 }
  - { offset: 0x2358F, size: 0x8, addend: 0x0, symName: __RINvNtCs9f3LFPSIp77_4core3ptr13drop_in_placeINtNtNtB4_3ops12control_flow11ControlFlowNtNtNtCsk0EuziVMDa8_11time_macros18format_description3ast4ItemEEB1r_, symObjAddr: 0xC9C, symBinAddr: 0x23788, symSize: 0x44 }
  - { offset: 0x235BE, size: 0x8, addend: 0x0, symName: __RINvNtCs9f3LFPSIp77_4core3ptr13drop_in_placeINtNtNtB4_3ops12control_flow11ControlFlowNtNtNtCsk0EuziVMDa8_11time_macros18format_description6public15OwnedFormatItemEEB1r_, symObjAddr: 0xCE0, symBinAddr: 0x237CC, symSize: 0x44 }
  - { offset: 0x235ED, size: 0x8, addend: 0x0, symName: __RINvNtCs9f3LFPSIp77_4core3ptr13drop_in_placeINtNtNtB4_4iter8adapters12GenericShuntINtNtBJ_3map3MapINtNtNtCsdze8u8oDPro_5alloc3vec9into_iter8IntoIterNtNtNtCsk0EuziVMDa8_11time_macros18format_description3ast23NestedFormatDescriptionENCNvMNtB2q_11format_itemNtB3M_4Item8from_ast0EINtNtB4_6result6ResultNtNtB4_7convert10InfallibleNtB2q_5ErrorEEEB2s_, symObjAddr: 0xD24, symBinAddr: 0x23810, symSize: 0x24 }
  - { offset: 0x2361C, size: 0x8, addend: 0x0, symName: __RINvNtCs9f3LFPSIp77_4core3ptr13drop_in_placeINtNtNtB4_4iter8adapters12GenericShuntINtNtBJ_3map3MapINtNtNtCsdze8u8oDPro_5alloc3vec9into_iter8IntoIterNtNtNtCsk0EuziVMDa8_11time_macros18format_description3ast4ItemENvMNtB2q_11format_itemNtB3q_4Item8from_astEINtNtB4_6result6ResultNtNtB4_7convert10InfallibleNtB2q_5ErrorEEEB2s_, symObjAddr: 0xD48, symBinAddr: 0x23834, symSize: 0x24 }
  - { offset: 0x2364B, size: 0x8, addend: 0x0, symName: __RINvNtCs9f3LFPSIp77_4core3ptr13drop_in_placeINtNtNtB4_5array4iter8IntoIterNtCsjLJ1XWNSM6u_10proc_macro9TokenTreeKj1_EECsk0EuziVMDa8_11time_macros, symObjAddr: 0xD6C, symBinAddr: 0x23858, symSize: 0x24 }
  - { offset: 0x2367A, size: 0x8, addend: 0x0, symName: __RINvNtCs9f3LFPSIp77_4core3ptr13drop_in_placeINtNtNtB4_5array4iter8IntoIterNtCsjLJ1XWNSM6u_10proc_macro9TokenTreeKj2_EECsk0EuziVMDa8_11time_macros, symObjAddr: 0xD90, symBinAddr: 0x2387C, symSize: 0x24 }
  - { offset: 0x236A9, size: 0x8, addend: 0x0, symName: __RINvNtCs9f3LFPSIp77_4core3ptr13drop_in_placeINtNtNtCs27l1GJC5rMQ_3std2io5error9ErrorDataINtNtCsdze8u8oDPro_5alloc5boxed3BoxNtBJ_6CustomEEECsk0EuziVMDa8_11time_macros, symObjAddr: 0xDB4, symBinAddr: 0x238A0, symSize: 0x48 }
  - { offset: 0x236D8, size: 0x8, addend: 0x0, symName: __RINvNtCs9f3LFPSIp77_4core3ptr13drop_in_placeINtNtNtCsdze8u8oDPro_5alloc3vec13in_place_drop11InPlaceDropINtNtBN_5boxed3BoxSNtNtNtCsk0EuziVMDa8_11time_macros18format_description11format_item4ItemEEEB22_, symObjAddr: 0xDFC, symBinAddr: 0x238E8, symSize: 0x24 }
  - { offset: 0x23707, size: 0x8, addend: 0x0, symName: __RINvNtCs9f3LFPSIp77_4core3ptr13drop_in_placeINtNtNtCsdze8u8oDPro_5alloc3vec13in_place_drop11InPlaceDropNtNtNtCsk0EuziVMDa8_11time_macros18format_description11format_item4ItemEEB1J_, symObjAddr: 0xE20, symBinAddr: 0x2390C, symSize: 0x24 }
  - { offset: 0x23736, size: 0x8, addend: 0x0, symName: __RINvNtCs9f3LFPSIp77_4core3ptr13drop_in_placeINtNtNtCsdze8u8oDPro_5alloc3vec13in_place_drop11InPlaceDropNtNtNtCsk0EuziVMDa8_11time_macros18format_description6public15OwnedFormatItemEEB1J_, symObjAddr: 0xE44, symBinAddr: 0x23930, symSize: 0x24 }
  - { offset: 0x23765, size: 0x8, addend: 0x0, symName: __RINvNtCs9f3LFPSIp77_4core3ptr13drop_in_placeINtNtNtCsdze8u8oDPro_5alloc3vec13in_place_drop24InPlaceDstDataSrcBufDropNtNtNtCsk0EuziVMDa8_11time_macros18format_description11format_item4ItemNtNtB1U_6public15OwnedFormatItemEEB1W_, symObjAddr: 0xE68, symBinAddr: 0x23954, symSize: 0x24 }
  - { offset: 0x23794, size: 0x8, addend: 0x0, symName: __RINvNtCs9f3LFPSIp77_4core3ptr13drop_in_placeINtNtNtCsdze8u8oDPro_5alloc3vec13in_place_drop24InPlaceDstDataSrcBufDropNtNtNtCsk0EuziVMDa8_11time_macros18format_description3ast23NestedFormatDescriptionINtNtBN_5boxed3BoxSNtNtB1U_11format_item4ItemEEEB1W_, symObjAddr: 0xE8C, symBinAddr: 0x23978, symSize: 0x24 }
  - { offset: 0x237C3, size: 0x8, addend: 0x0, symName: __RINvNtCs9f3LFPSIp77_4core3ptr13drop_in_placeINtNtNtCsdze8u8oDPro_5alloc3vec13in_place_drop24InPlaceDstDataSrcBufDropNtNtNtCsk0EuziVMDa8_11time_macros18format_description3ast4ItemNtNtB1U_11format_item4ItemEEB1W_, symObjAddr: 0xEB0, symBinAddr: 0x2399C, symSize: 0x24 }
  - { offset: 0x237F2, size: 0x8, addend: 0x0, symName: __RINvNtCs9f3LFPSIp77_4core3ptr13drop_in_placeINtNtNtCsdze8u8oDPro_5alloc3vec9into_iter8IntoIterINtNtBN_5boxed3BoxSNtNtNtCsk0EuziVMDa8_11time_macros18format_description11format_item4ItemEEEB1T_, symObjAddr: 0xED4, symBinAddr: 0x239C0, symSize: 0x24 }
  - { offset: 0x23821, size: 0x8, addend: 0x0, symName: __RINvNtCs9f3LFPSIp77_4core3ptr13drop_in_placeINtNtNtCsdze8u8oDPro_5alloc3vec9into_iter8IntoIterINtNtCsjLJ1XWNSM6u_10proc_macro6bridge9TokenTreeNtNtB1x_6client11TokenStreamNtB2i_4SpanNtNtB1x_6symbol6SymbolEEECsk0EuziVMDa8_11time_macros, symObjAddr: 0xEF8, symBinAddr: 0x239E4, symSize: 0x24 }
  - { offset: 0x23850, size: 0x8, addend: 0x0, symName: __RINvNtCs9f3LFPSIp77_4core3ptr13drop_in_placeINtNtNtCsdze8u8oDPro_5alloc3vec9into_iter8IntoIterNtNtNtCsk0EuziVMDa8_11time_macros18format_description11format_item4ItemEEB1A_, symObjAddr: 0xF1C, symBinAddr: 0x23A08, symSize: 0x24 }
  - { offset: 0x2387F, size: 0x8, addend: 0x0, symName: __RINvNtCs9f3LFPSIp77_4core3ptr13drop_in_placeINtNtNtCsdze8u8oDPro_5alloc3vec9into_iter8IntoIterNtNtNtCsk0EuziVMDa8_11time_macros18format_description3ast23NestedFormatDescriptionEEB1A_, symObjAddr: 0xF40, symBinAddr: 0x23A2C, symSize: 0x24 }
  - { offset: 0x238AE, size: 0x8, addend: 0x0, symName: __RINvNtCs9f3LFPSIp77_4core3ptr13drop_in_placeINtNtNtCsdze8u8oDPro_5alloc3vec9into_iter8IntoIterNtNtNtCsk0EuziVMDa8_11time_macros18format_description3ast4ItemEEB1A_, symObjAddr: 0xF64, symBinAddr: 0x23A50, symSize: 0x24 }
  - { offset: 0x238DD, size: 0x8, addend: 0x0, symName: __RINvNtCs9f3LFPSIp77_4core3ptr13drop_in_placeINtNtNtCsdze8u8oDPro_5alloc3vec9into_iter8IntoIterNtNtNtCsk0EuziVMDa8_11time_macros18format_description6public15OwnedFormatItemEEB1A_, symObjAddr: 0xF88, symBinAddr: 0x23A74, symSize: 0x24 }
  - { offset: 0x2390C, size: 0x8, addend: 0x0, symName: __RINvNtCs9f3LFPSIp77_4core3ptr13drop_in_placeINtNtNtNtB4_4iter8adapters3map3MapINtNtNtCsdze8u8oDPro_5alloc3vec9into_iter8IntoIterINtNtB1l_5boxed3BoxSNtNtNtCsk0EuziVMDa8_11time_macros18format_description11format_item4ItemEENvYB22_INtNtB4_7convert4IntoNtNtB2q_6public15OwnedFormatItemE4intoEEB2s_, symObjAddr: 0xFAC, symBinAddr: 0x23A98, symSize: 0x24 }
  - { offset: 0x2393B, size: 0x8, addend: 0x0, symName: __RINvNtCs9f3LFPSIp77_4core3ptr13drop_in_placeINtNtNtNtB4_4iter8adapters3map3MapINtNtNtCsdze8u8oDPro_5alloc3vec9into_iter8IntoIterNtNtNtCsk0EuziVMDa8_11time_macros18format_description11format_item4ItemENvYB22_INtNtB4_7convert4IntoNtNtB26_6public15OwnedFormatItemE4intoEEB28_, symObjAddr: 0xFD0, symBinAddr: 0x23ABC, symSize: 0x24 }
  - { offset: 0x2396A, size: 0x8, addend: 0x0, symName: __RINvNtCs9f3LFPSIp77_4core3ptr13drop_in_placeINtNtNtNtB4_4iter8adapters3map3MapINtNtNtCsdze8u8oDPro_5alloc3vec9into_iter8IntoIterNtNtNtCsk0EuziVMDa8_11time_macros18format_description3ast23NestedFormatDescriptionENCNvMNtB26_11format_itemNtB3s_4Item8from_ast0EEB28_, symObjAddr: 0xFF4, symBinAddr: 0x23AE0, symSize: 0x24 }
  - { offset: 0x23999, size: 0x8, addend: 0x0, symName: __RINvNtCs9f3LFPSIp77_4core3ptr13drop_in_placeINtNtNtNtB4_4iter8adapters3map3MapINtNtNtCsdze8u8oDPro_5alloc3vec9into_iter8IntoIterNtNtNtCsk0EuziVMDa8_11time_macros18format_description3ast4ItemENvMNtB26_11format_itemNtB36_4Item8from_astEEB28_, symObjAddr: 0x1018, symBinAddr: 0x23B04, symSize: 0x24 }
  - { offset: 0x239C8, size: 0x8, addend: 0x0, symName: __RINvNtCs9f3LFPSIp77_4core3ptr13drop_in_placeINtNtNtNtB4_4iter8adapters3map3MapINtNtNtCsdze8u8oDPro_5alloc3vec9into_iter8IntoIterNtNtNtCsk0EuziVMDa8_11time_macros18format_description6public15OwnedFormatItemENCNCNvB28_18format_description0s_0EEB28_, symObjAddr: 0x103C, symBinAddr: 0x23B28, symSize: 0x24 }
  - { offset: 0x239F7, size: 0x8, addend: 0x0, symName: __RINvNtCs9f3LFPSIp77_4core3ptr13drop_in_placeINtNtNtNtB4_4iter8adapters3map3MapINtNtNtCsdze8u8oDPro_5alloc3vec9into_iter8IntoIterNtNtNtCsk0EuziVMDa8_11time_macros18format_description6public15OwnedFormatItemENCNvXB24_B22_NtNtB28_9to_tokens13ToTokenStream9append_to0EEB28_, symObjAddr: 0x1060, symBinAddr: 0x23B4C, symSize: 0x24 }
  - { offset: 0x23A26, size: 0x8, addend: 0x0, symName: __RINvNtCs9f3LFPSIp77_4core3ptr13drop_in_placeINtNtNtNtB4_4iter8adapters3map3MapINtNtNtCsdze8u8oDPro_5alloc3vec9into_iter8IntoIterNtNtNtCsk0EuziVMDa8_11time_macros18format_description6public15OwnedFormatItemENCNvXB24_B22_NtNtB28_9to_tokens13ToTokenStream9append_tos_0EEB28_, symObjAddr: 0x1084, symBinAddr: 0x23B70, symSize: 0x24 }
  - { offset: 0x23A55, size: 0x8, addend: 0x0, symName: __RINvNtCs9f3LFPSIp77_4core3ptr13drop_in_placeINtNtNtNtB4_4iter8adapters8peekable8PeekableNtNtCsjLJ1XWNSM6u_10proc_macro12token_stream8IntoIterEECsk0EuziVMDa8_11time_macros, symObjAddr: 0x10A8, symBinAddr: 0x23B94, symSize: 0x60 }
  - { offset: 0x23A84, size: 0x8, addend: 0x0, symName: __RINvNtCs9f3LFPSIp77_4core3ptr13drop_in_placeINtNvXsd_NtNtCsdze8u8oDPro_5alloc3vec9into_iterINtBP_8IntoIterppENtNtNtB4_3ops4drop4Drop4drop9DropGuardINtNtBT_5boxed3BoxSNtNtNtCsk0EuziVMDa8_11time_macros18format_description11format_item4ItemENtNtBT_5alloc6GlobalEEB2K_, symObjAddr: 0x1108, symBinAddr: 0x23BF4, symSize: 0x24 }
  - { offset: 0x23AB3, size: 0x8, addend: 0x0, symName: __RINvNtCs9f3LFPSIp77_4core3ptr13drop_in_placeINtNvXsd_NtNtCsdze8u8oDPro_5alloc3vec9into_iterINtBP_8IntoIterppENtNtNtB4_3ops4drop4Drop4drop9DropGuardINtNtCsjLJ1XWNSM6u_10proc_macro6bridge9TokenTreeNtNtB2o_6client11TokenStreamNtB39_4SpanNtNtB2o_6symbol6SymbolENtNtBT_5alloc6GlobalEECsk0EuziVMDa8_11time_macros, symObjAddr: 0x112C, symBinAddr: 0x23C18, symSize: 0x24 }
  - { offset: 0x23AE2, size: 0x8, addend: 0x0, symName: __RINvNtCs9f3LFPSIp77_4core3ptr13drop_in_placeINtNvXsd_NtNtCsdze8u8oDPro_5alloc3vec9into_iterINtBP_8IntoIterppENtNtNtB4_3ops4drop4Drop4drop9DropGuardNtNtNtCsk0EuziVMDa8_11time_macros18format_description11format_item4ItemNtNtBT_5alloc6GlobalEEB2r_, symObjAddr: 0x1150, symBinAddr: 0x23C3C, symSize: 0x24 }
  - { offset: 0x23B11, size: 0x8, addend: 0x0, symName: __RINvNtCs9f3LFPSIp77_4core3ptr13drop_in_placeINtNvXsd_NtNtCsdze8u8oDPro_5alloc3vec9into_iterINtBP_8IntoIterppENtNtNtB4_3ops4drop4Drop4drop9DropGuardNtNtNtCsk0EuziVMDa8_11time_macros18format_description3ast23NestedFormatDescriptionNtNtBT_5alloc6GlobalEEB2r_, symObjAddr: 0x1174, symBinAddr: 0x23C60, symSize: 0x24 }
  - { offset: 0x23B40, size: 0x8, addend: 0x0, symName: __RINvNtCs9f3LFPSIp77_4core3ptr13drop_in_placeINtNvXsd_NtNtCsdze8u8oDPro_5alloc3vec9into_iterINtBP_8IntoIterppENtNtNtB4_3ops4drop4Drop4drop9DropGuardNtNtNtCsk0EuziVMDa8_11time_macros18format_description3ast4ItemNtNtBT_5alloc6GlobalEEB2r_, symObjAddr: 0x1198, symBinAddr: 0x23C84, symSize: 0x24 }
  - { offset: 0x23B6F, size: 0x8, addend: 0x0, symName: __RINvNtCs9f3LFPSIp77_4core3ptr13drop_in_placeINtNvXsd_NtNtCsdze8u8oDPro_5alloc3vec9into_iterINtBP_8IntoIterppENtNtNtB4_3ops4drop4Drop4drop9DropGuardNtNtNtCsk0EuziVMDa8_11time_macros18format_description6public15OwnedFormatItemNtNtBT_5alloc6GlobalEEB2r_, symObjAddr: 0x11BC, symBinAddr: 0x23CA8, symSize: 0x24 }
  - { offset: 0x23B9E, size: 0x8, addend: 0x0, symName: __RINvNtCs9f3LFPSIp77_4core3ptr13drop_in_placeNCINvMsi_NtCsdze8u8oDPro_5alloc3vecINtBP_3VecNtNtNtCsk0EuziVMDa8_11time_macros18format_description6public15OwnedFormatItemE14extend_trustedINtNtNtNtB4_4iter8adapters3map3MapINtNtBP_9into_iter8IntoIterINtNtBR_5boxed3BoxSNtNtB1t_11format_item4ItemEENvYB3U_INtNtB4_7convert4IntoB1p_E4intoEE0EB1v_, symObjAddr: 0x11E0, symBinAddr: 0x23CCC, symSize: 0x24 }
  - { offset: 0x23BCD, size: 0x8, addend: 0x0, symName: __RINvNtCs9f3LFPSIp77_4core3ptr13drop_in_placeNCINvNtNtNtB4_4iter8adapters3map8map_foldINtNtCsdze8u8oDPro_5alloc5boxed3BoxSNtNtNtCsk0EuziVMDa8_11time_macros18format_description11format_item4ItemENtNtB1Z_6public15OwnedFormatItemuNvYB1l_INtNtB4_7convert4IntoB35_E4intoNCINvNvNtNtNtBP_6traits8iterator8Iterator8for_each4callB35_NCINvMsi_NtB1q_3vecINtB5k_3VecB35_E14extend_trustedINtBL_3MapINtNtB5k_9into_iter8IntoIterB1l_EB3C_EE0E0E0EB21_, symObjAddr: 0x1204, symBinAddr: 0x23CF0, symSize: 0x24 }
  - { offset: 0x23BFC, size: 0x8, addend: 0x0, symName: __RINvNtCs9f3LFPSIp77_4core3ptr13drop_in_placeNCINvNvNtNtNtNtB4_4iter6traits8iterator8Iterator8for_each4callNtNtNtCsk0EuziVMDa8_11time_macros18format_description6public15OwnedFormatItemNCINvMsi_NtCsdze8u8oDPro_5alloc3vecINtB34_3VecB1G_E14extend_trustedINtNtNtBT_8adapters3map3MapINtNtB34_9into_iter8IntoIterINtNtB36_5boxed3BoxSNtNtB1K_11format_item4ItemEENvYB4T_INtNtB4_7convert4IntoB1G_E4intoEE0E0EB1M_, symObjAddr: 0x1228, symBinAddr: 0x23D14, symSize: 0x24 }
  - { offset: 0x23C2B, size: 0x8, addend: 0x0, symName: __RINvNtCs9f3LFPSIp77_4core3ptr13drop_in_placeNCNCINvNtNtCsjLJ1XWNSM6u_10proc_macro6bridge6client10run_clientNtBN_11TokenStreamINtNtB4_6option6OptionB1H_ENCNCINvMs7_BN_INtBN_6ClientNtBR_11TokenStreamB2R_E7expand1NvCsk0EuziVMDa8_11time_macros18format_descriptionE00E00EB3o_, symObjAddr: 0x124C, symBinAddr: 0x23D38, symSize: 0x24 }
  - { offset: 0x23C5A, size: 0x8, addend: 0x0, symName: __RINvNtCs9f3LFPSIp77_4core3ptr13drop_in_placeNCNCINvNtNtCsjLJ1XWNSM6u_10proc_macro6bridge6client10run_clientNtBN_11TokenStreamINtNtB4_6option6OptionB1H_ENCNCINvMs7_BN_INtBN_6ClientNtBR_11TokenStreamB2R_E7expand1NvCsk0EuziVMDa8_11time_macros4dateE00E00EB3o_, symObjAddr: 0x1270, symBinAddr: 0x23D5C, symSize: 0x24 }
  - { offset: 0x23C89, size: 0x8, addend: 0x0, symName: __RINvNtCs9f3LFPSIp77_4core3ptr13drop_in_placeNCNCINvNtNtCsjLJ1XWNSM6u_10proc_macro6bridge6client10run_clientNtBN_11TokenStreamINtNtB4_6option6OptionB1H_ENCNCINvMs7_BN_INtBN_6ClientNtBR_11TokenStreamB2R_E7expand1NvCsk0EuziVMDa8_11time_macros4timeE00E00EB3o_, symObjAddr: 0x1294, symBinAddr: 0x23D80, symSize: 0x24 }
  - { offset: 0x23CB8, size: 0x8, addend: 0x0, symName: __RINvNtCs9f3LFPSIp77_4core3ptr13drop_in_placeNCNCINvNtNtCsjLJ1XWNSM6u_10proc_macro6bridge6client10run_clientNtBN_11TokenStreamINtNtB4_6option6OptionB1H_ENCNCINvMs7_BN_INtBN_6ClientNtBR_11TokenStreamB2R_E7expand1NvCsk0EuziVMDa8_11time_macros6offsetE00E00EB3o_, symObjAddr: 0x12B8, symBinAddr: 0x23DA4, symSize: 0x24 }
  - { offset: 0x23CE7, size: 0x8, addend: 0x0, symName: __RINvNtCs9f3LFPSIp77_4core3ptr13drop_in_placeNCNCINvNtNtCsjLJ1XWNSM6u_10proc_macro6bridge6client10run_clientNtBN_11TokenStreamINtNtB4_6option6OptionB1H_ENCNCINvMs7_BN_INtBN_6ClientNtBR_11TokenStreamB2R_E7expand1NvCsk0EuziVMDa8_11time_macros8datetimeE00E00EB3o_, symObjAddr: 0x12DC, symBinAddr: 0x23DC8, symSize: 0x24 }
  - { offset: 0x23D16, size: 0x8, addend: 0x0, symName: __RINvNtCs9f3LFPSIp77_4core3ptr13drop_in_placeNtCsjLJ1XWNSM6u_10proc_macro11TokenStreamECsk0EuziVMDa8_11time_macros, symObjAddr: 0x1300, symBinAddr: 0x23DEC, symSize: 0x24 }
  - { offset: 0x23D45, size: 0x8, addend: 0x0, symName: __RINvNtCs9f3LFPSIp77_4core3ptr13drop_in_placeNtCsjLJ1XWNSM6u_10proc_macro17ConcatTreesHelperECsk0EuziVMDa8_11time_macros, symObjAddr: 0x1324, symBinAddr: 0x23E10, symSize: 0x24 }
  - { offset: 0x23D74, size: 0x8, addend: 0x0, symName: __RINvNtCs9f3LFPSIp77_4core3ptr13drop_in_placeNtCsjLJ1XWNSM6u_10proc_macro19ConcatStreamsHelperECsk0EuziVMDa8_11time_macros, symObjAddr: 0x1348, symBinAddr: 0x23E34, symSize: 0x24 }
  - { offset: 0x23DA3, size: 0x8, addend: 0x0, symName: __RINvNtCs9f3LFPSIp77_4core3ptr13drop_in_placeNtCsjLJ1XWNSM6u_10proc_macro5GroupECsk0EuziVMDa8_11time_macros, symObjAddr: 0x136C, symBinAddr: 0x23E58, symSize: 0x24 }
  - { offset: 0x23DD2, size: 0x8, addend: 0x0, symName: __RINvNtCs9f3LFPSIp77_4core3ptr13drop_in_placeNtCsjLJ1XWNSM6u_10proc_macro9TokenTreeECsk0EuziVMDa8_11time_macros, symObjAddr: 0x1390, symBinAddr: 0x23E7C, symSize: 0x58 }
  - { offset: 0x23E01, size: 0x8, addend: 0x0, symName: __RINvNtCs9f3LFPSIp77_4core3ptr13drop_in_placeNtNtB4_3fmt5ErrorECsk0EuziVMDa8_11time_macros, symObjAddr: 0x13E8, symBinAddr: 0x23ED4, symSize: 0x10 }
  - { offset: 0x23E30, size: 0x8, addend: 0x0, symName: __RINvNtCs9f3LFPSIp77_4core3ptr13drop_in_placeNtNtCsdze8u8oDPro_5alloc6string6StringECsk0EuziVMDa8_11time_macros, symObjAddr: 0x13F8, symBinAddr: 0x23EE4, symSize: 0x24 }
  - { offset: 0x23E5F, size: 0x8, addend: 0x0, symName: __RINvNtCs9f3LFPSIp77_4core3ptr13drop_in_placeNtNtCsjLJ1XWNSM6u_10proc_macro12token_stream8IntoIterECsk0EuziVMDa8_11time_macros, symObjAddr: 0x141C, symBinAddr: 0x23F08, symSize: 0x24 }
  - { offset: 0x23E8E, size: 0x8, addend: 0x0, symName: __RINvNtCs9f3LFPSIp77_4core3ptr13drop_in_placeNtNtCsk0EuziVMDa8_11time_macros5error5ErrorEBK_, symObjAddr: 0x1440, symBinAddr: 0x23F2C, symSize: 0xB0 }
  - { offset: 0x23EBD, size: 0x8, addend: 0x0, symName: __RINvNtCs9f3LFPSIp77_4core3ptr13drop_in_placeNtNtNtB4_3num5error15TryFromIntErrorECsk0EuziVMDa8_11time_macros, symObjAddr: 0x14F0, symBinAddr: 0x23FDC, symSize: 0x10 }
  - { offset: 0x23EEC, size: 0x8, addend: 0x0, symName: __RINvNtCs9f3LFPSIp77_4core3ptr13drop_in_placeNtNtNtCs27l1GJC5rMQ_3std2io5error5ErrorECsk0EuziVMDa8_11time_macros, symObjAddr: 0x1500, symBinAddr: 0x23FEC, symSize: 0x24 }
  - { offset: 0x23F1B, size: 0x8, addend: 0x0, symName: __RINvNtCs9f3LFPSIp77_4core3ptr13drop_in_placeNtNtNtCs27l1GJC5rMQ_3std2io5error6CustomECsk0EuziVMDa8_11time_macros, symObjAddr: 0x1524, symBinAddr: 0x24010, symSize: 0x24 }
  - { offset: 0x23F4A, size: 0x8, addend: 0x0, symName: __RINvNtCs9f3LFPSIp77_4core3ptr13drop_in_placeNtNtNtCs27l1GJC5rMQ_3std6thread5local11AccessErrorECsk0EuziVMDa8_11time_macros, symObjAddr: 0x1548, symBinAddr: 0x24034, symSize: 0x10 }
  - { offset: 0x23F79, size: 0x8, addend: 0x0, symName: __RINvNtCs9f3LFPSIp77_4core3ptr13drop_in_placeNtNtNtCsdze8u8oDPro_5alloc3vec15set_len_on_drop12SetLenOnDropECsk0EuziVMDa8_11time_macros, symObjAddr: 0x1558, symBinAddr: 0x24044, symSize: 0x24 }
  - { offset: 0x23FA8, size: 0x8, addend: 0x0, symName: __RINvNtCs9f3LFPSIp77_4core3ptr13drop_in_placeNtNtNtCsjLJ1XWNSM6u_10proc_macro6bridge3rpc12PanicMessageECsk0EuziVMDa8_11time_macros, symObjAddr: 0x157C, symBinAddr: 0x24068, symSize: 0x50 }
  - { offset: 0x23FD7, size: 0x8, addend: 0x0, symName: __RINvNtCs9f3LFPSIp77_4core3ptr13drop_in_placeNtNtNtCsjLJ1XWNSM6u_10proc_macro6bridge6buffer6BufferECsk0EuziVMDa8_11time_macros, symObjAddr: 0x15CC, symBinAddr: 0x240B8, symSize: 0x24 }
  - { offset: 0x24006, size: 0x8, addend: 0x0, symName: __RINvNtCs9f3LFPSIp77_4core3ptr13drop_in_placeNtNtNtCsjLJ1XWNSM6u_10proc_macro6bridge6client11TokenStreamECsk0EuziVMDa8_11time_macros, symObjAddr: 0x15F0, symBinAddr: 0x240DC, symSize: 0x24 }
  - { offset: 0x24035, size: 0x8, addend: 0x0, symName: __RINvNtCs9f3LFPSIp77_4core3ptr13drop_in_placeNtNtNtCsjLJ1XWNSM6u_10proc_macro6bridge6client6BridgeECsk0EuziVMDa8_11time_macros, symObjAddr: 0x1614, symBinAddr: 0x24100, symSize: 0x24 }
  - { offset: 0x24064, size: 0x8, addend: 0x0, symName: __RINvNtCs9f3LFPSIp77_4core3ptr13drop_in_placeNtNtNtCsk0EuziVMDa8_11time_macros18format_description11format_item4ItemEBM_, symObjAddr: 0x1638, symBinAddr: 0x24124, symSize: 0x6C }
  - { offset: 0x24093, size: 0x8, addend: 0x0, symName: __RINvNtCs9f3LFPSIp77_4core3ptr13drop_in_placeNtNtNtCsk0EuziVMDa8_11time_macros18format_description3ast23NestedFormatDescriptionEBM_, symObjAddr: 0x16A4, symBinAddr: 0x24190, symSize: 0x24 }
  - { offset: 0x240C2, size: 0x8, addend: 0x0, symName: __RINvNtCs9f3LFPSIp77_4core3ptr13drop_in_placeNtNtNtCsk0EuziVMDa8_11time_macros18format_description3ast4ItemEBM_, symObjAddr: 0x16C8, symBinAddr: 0x241B4, symSize: 0x8C }
  - { offset: 0x240F1, size: 0x8, addend: 0x0, symName: __RINvNtCs9f3LFPSIp77_4core3ptr13drop_in_placeNtNtNtCsk0EuziVMDa8_11time_macros18format_description6public15OwnedFormatItemEBM_, symObjAddr: 0x1754, symBinAddr: 0x24240, symSize: 0xA4 }
  - { offset: 0x24120, size: 0x8, addend: 0x0, symName: __RINvNtCs9f3LFPSIp77_4core3ptr13drop_in_placeNtNtNtNtCs27l1GJC5rMQ_3std2io5error14repr_bitpacked4ReprECsk0EuziVMDa8_11time_macros, symObjAddr: 0x17F8, symBinAddr: 0x242E4, symSize: 0x24 }
  - { offset: 0x2414F, size: 0x8, addend: 0x0, symName: __RINvNtCs9f3LFPSIp77_4core3ptr13drop_in_placeNtNvNtNtNtCsjLJ1XWNSM6u_10proc_macro6bridge6client5state3set13RestoreOnDropECsk0EuziVMDa8_11time_macros, symObjAddr: 0x181C, symBinAddr: 0x24308, symSize: 0x24 }
  - { offset: 0x2417E, size: 0x8, addend: 0x0, symName: __RINvNtCs9f3LFPSIp77_4core3ptr13drop_in_placeRINtNtB4_6option6OptionjEECsk0EuziVMDa8_11time_macros, symObjAddr: 0x1840, symBinAddr: 0x2432C, symSize: 0x10 }
  - { offset: 0x241AD, size: 0x8, addend: 0x0, symName: __RINvNtCs9f3LFPSIp77_4core3ptr13drop_in_placeRjECsk0EuziVMDa8_11time_macros, symObjAddr: 0x1850, symBinAddr: 0x2433C, symSize: 0x10 }
  - { offset: 0x241DC, size: 0x8, addend: 0x0, symName: __RINvNtCs9f3LFPSIp77_4core3ptr13drop_in_placeRuECsk0EuziVMDa8_11time_macros, symObjAddr: 0x1860, symBinAddr: 0x2434C, symSize: 0x10 }
  - { offset: 0x2420B, size: 0x8, addend: 0x0, symName: __RINvNtCs9f3LFPSIp77_4core3ptr13drop_in_placeSINtNtCsdze8u8oDPro_5alloc5boxed3BoxSNtNtNtCsk0EuziVMDa8_11time_macros18format_description11format_item4ItemEEB1n_, symObjAddr: 0x1870, symBinAddr: 0x2435C, symSize: 0xB4 }
  - { offset: 0x2423A, size: 0x8, addend: 0x0, symName: __RINvNtCs9f3LFPSIp77_4core3ptr13drop_in_placeSINtNtCsjLJ1XWNSM6u_10proc_macro6bridge9TokenTreeNtNtBK_6client11TokenStreamNtB1v_4SpanNtNtBK_6symbol6SymbolEECsk0EuziVMDa8_11time_macros, symObjAddr: 0x1924, symBinAddr: 0x24410, symSize: 0xC4 }
  - { offset: 0x24269, size: 0x8, addend: 0x0, symName: __RINvNtCs9f3LFPSIp77_4core3ptr13drop_in_placeSNtCsjLJ1XWNSM6u_10proc_macro9TokenTreeECsk0EuziVMDa8_11time_macros, symObjAddr: 0x19E8, symBinAddr: 0x244D4, symSize: 0xC4 }
  - { offset: 0x24298, size: 0x8, addend: 0x0, symName: __RINvNtCs9f3LFPSIp77_4core3ptr13drop_in_placeSNtNtNtCsjLJ1XWNSM6u_10proc_macro6bridge6client11TokenStreamECsk0EuziVMDa8_11time_macros, symObjAddr: 0x1AAC, symBinAddr: 0x24598, symSize: 0xB4 }
  - { offset: 0x242C7, size: 0x8, addend: 0x0, symName: __RINvNtCs9f3LFPSIp77_4core3ptr13drop_in_placeSNtNtNtCsk0EuziVMDa8_11time_macros18format_description11format_item4ItemEBN_, symObjAddr: 0x1B60, symBinAddr: 0x2464C, symSize: 0xC4 }
  - { offset: 0x242F6, size: 0x8, addend: 0x0, symName: __RINvNtCs9f3LFPSIp77_4core3ptr13drop_in_placeSNtNtNtCsk0EuziVMDa8_11time_macros18format_description3ast23NestedFormatDescriptionEBN_, symObjAddr: 0x1C24, symBinAddr: 0x24710, symSize: 0xB4 }
  - { offset: 0x24325, size: 0x8, addend: 0x0, symName: __RINvNtCs9f3LFPSIp77_4core3ptr13drop_in_placeSNtNtNtCsk0EuziVMDa8_11time_macros18format_description3ast4ItemEBN_, symObjAddr: 0x1CD8, symBinAddr: 0x247C4, symSize: 0xC4 }
  - { offset: 0x24354, size: 0x8, addend: 0x0, symName: __RINvNtCs9f3LFPSIp77_4core3ptr13drop_in_placeSNtNtNtCsk0EuziVMDa8_11time_macros18format_description6public15OwnedFormatItemEBN_, symObjAddr: 0x1D9C, symBinAddr: 0x24888, symSize: 0xC4 }
  - { offset: 0x25EB7, size: 0x8, addend: 0x0, symName: __RNvNvMNtNtCs9f3LFPSIp77_4core5alloc6layoutNtB4_6Layout25from_size_align_unchecked18precondition_checkCsk0EuziVMDa8_11time_macros, symObjAddr: 0x2FE8, symBinAddr: 0x25AD4, symSize: 0x50 }
  - { offset: 0x25FD3, size: 0x8, addend: 0x0, symName: __RNCNvMNtNtCs9f3LFPSIp77_4core5slice5asciiSh20eq_ignore_ascii_case0Csk0EuziVMDa8_11time_macros, symObjAddr: 0x2E78, symBinAddr: 0x25964, symSize: 0xD0 }
  - { offset: 0x260D6, size: 0x8, addend: 0x0, symName: __RNvMNtNtCs9f3LFPSIp77_4core5slice5asciiSh20eq_ignore_ascii_caseCsk0EuziVMDa8_11time_macros, symObjAddr: 0x2F48, symBinAddr: 0x25A34, symSize: 0xA0 }
  - { offset: 0x264C8, size: 0x8, addend: 0x0, symName: __RNvNvXs5_NtNtCs9f3LFPSIp77_4core3str6traitsINtNtNtBb_3ops5range5RangejEINtNtNtBb_5slice5index10SliceIndexeE13get_unchecked18precondition_checkCsk0EuziVMDa8_11time_macros, symObjAddr: 0x3038, symBinAddr: 0x25B24, symSize: 0x60 }
  - { offset: 0x26513, size: 0x8, addend: 0x0, symName: __RNvXs2_NtNtCs9f3LFPSIp77_4core3str6traitseINtNtNtB9_3ops5index5IndexINtNtBJ_5range9RangeFromjEE5indexCsk0EuziVMDa8_11time_macros, symObjAddr: 0x3118, symBinAddr: 0x25C04, symSize: 0x44 }
  - { offset: 0x2655C, size: 0x8, addend: 0x0, symName: __RNvXs_NtNtCs9f3LFPSIp77_4core3str6traitseNtNtB8_3cmp9PartialEq2eqCsk0EuziVMDa8_11time_macros, symObjAddr: 0x315C, symBinAddr: 0x25C48, symSize: 0x64 }
  - { offset: 0x2664C, size: 0x8, addend: 0x0, symName: __RNvXNtCs9f3LFPSIp77_4core7convertRShINtB2_5AsRefBw_E6as_refCsk0EuziVMDa8_11time_macros, symObjAddr: 0x3098, symBinAddr: 0x25B84, symSize: 0x28 }
  - { offset: 0x2668C, size: 0x8, addend: 0x0, symName: __RNvXNtCs9f3LFPSIp77_4core7convertReINtB2_5AsRefShE6as_refCsk0EuziVMDa8_11time_macros, symObjAddr: 0x30C0, symBinAddr: 0x25BAC, symSize: 0x30 }
  - { offset: 0x266D2, size: 0x8, addend: 0x0, symName: __RNvXs1_NtCs9f3LFPSIp77_4core7convertReINtB5_4IntoINtNtCsdze8u8oDPro_5alloc6borrow3CoweEE4intoCsk0EuziVMDa8_11time_macros, symObjAddr: 0x30F0, symBinAddr: 0x25BDC, symSize: 0x28 }
  - { offset: 0x2672D, size: 0x8, addend: 0x0, symName: __RNvYNCNkNvNtNtNtCsjLJ1XWNSM6u_10proc_macro6bridge6client5state12BRIDGE_STATE0s_0INtNtNtCs9f3LFPSIp77_4core3ops8function6FnOnceTINtNtB1n_6option6OptionQIB22_INtNtB1n_4cell4CellPuEEEEE9call_onceCsk0EuziVMDa8_11time_macros, symObjAddr: 0x31C0, symBinAddr: 0x25CAC, symSize: 0x4C }
  - { offset: 0x26771, size: 0x8, addend: 0x0, symName: __RNvYNvMNtNtCsk0EuziVMDa8_11time_macros18format_description11format_itemNtB5_4Item8from_astINtNtNtCs9f3LFPSIp77_4core3ops8function6FnOnceTNtNtB7_3ast4ItemEE9call_onceB9_, symObjAddr: 0x339C, symBinAddr: 0x25E88, symSize: 0x40 }
  - { offset: 0x267B5, size: 0x8, addend: 0x0, symName: __RNvYNvMsn_CsjLJ1XWNSM6u_10proc_macroNtB8_4Span10mixed_siteINtNtNtCs9f3LFPSIp77_4core3ops8function6FnOnceuE9call_onceCsk0EuziVMDa8_11time_macros, symObjAddr: 0x33DC, symBinAddr: 0x25EC8, symSize: 0x1C }
  - { offset: 0x267F9, size: 0x8, addend: 0x0, symName: __RNvYNvYNtNtNtCsjLJ1XWNSM6u_10proc_macro6bridge3rpc12PanicMessageINtNtCs9f3LFPSIp77_4core7convert4FromINtNtCsdze8u8oDPro_5alloc5boxed3BoxDNtNtB15_3any3AnyNtNtB15_6marker4SendEL_EE4fromINtNtNtB15_3ops8function6FnOnceTB1B_EE9call_onceCsk0EuziVMDa8_11time_macros, symObjAddr: 0x3458, symBinAddr: 0x25F44, symSize: 0x2C }
  - { offset: 0x2683D, size: 0x8, addend: 0x0, symName: __RNvYNvYNtNtNtCsk0EuziVMDa8_11time_macros18format_description11format_item4ItemINtNtCs9f3LFPSIp77_4core7convert4IntoNtNtB9_6public15OwnedFormatItemE4intoINtNtNtB1j_3ops8function6FnOnceTB5_EE9call_onceBb_, symObjAddr: 0x34C4, symBinAddr: 0x25FB0, symSize: 0x3C }
  - { offset: 0x26881, size: 0x8, addend: 0x0, symName: __RNvYNvYjNtNtCs9f3LFPSIp77_4core3cmp3Ord3cmpINtNtNtBa_3ops8function6FnOnceTRjB1a_EE9call_onceCsk0EuziVMDa8_11time_macros, symObjAddr: 0x3500, symBinAddr: 0x25FEC, symSize: 0x2C }
  - { offset: 0x268CB, size: 0x8, addend: 0x0, symName: __RNvYNcNtINtNtNtCs9f3LFPSIp77_4core3ops12control_flow11ControlFlowNtNtNtCsk0EuziVMDa8_11time_macros18format_description3ast4ItemE5Break0INtNtBb_8function5FnMutTB11_EE8call_mutB17_, symObjAddr: 0x320C, symBinAddr: 0x25CF8, symSize: 0x48 }
  - { offset: 0x2690F, size: 0x8, addend: 0x0, symName: __RNvYNcNtINtNtNtCs9f3LFPSIp77_4core3ops12control_flow11ControlFlowNtNtNtCsk0EuziVMDa8_11time_macros18format_description6public15OwnedFormatItemE5Break0INtNtBb_8function5FnMutTB11_EE8call_mutB17_, symObjAddr: 0x3254, symBinAddr: 0x25D40, symSize: 0x38 }
  - { offset: 0x26953, size: 0x8, addend: 0x0, symName: __RNvYNvMNtNtCsk0EuziVMDa8_11time_macros18format_description11format_itemNtB5_4Item8from_astINtNtNtCs9f3LFPSIp77_4core3ops8function5FnMutTNtNtB7_3ast4ItemEE8call_mutB9_, symObjAddr: 0x3354, symBinAddr: 0x25E40, symSize: 0x48 }
  - { offset: 0x26997, size: 0x8, addend: 0x0, symName: __RNvYNvYINtNtCsdze8u8oDPro_5alloc5boxed3BoxSNtNtNtCsk0EuziVMDa8_11time_macros18format_description11format_item4ItemEINtNtCs9f3LFPSIp77_4core7convert4IntoNtNtBJ_6public15OwnedFormatItemE4intoINtNtNtB1U_3ops8function5FnMutTB5_EE8call_mutBL_, symObjAddr: 0x33F8, symBinAddr: 0x25EE4, symSize: 0x38 }
  - { offset: 0x269DB, size: 0x8, addend: 0x0, symName: __RNvYNvYNtCsjLJ1XWNSM6u_10proc_macro9TokenTreeNtNtCs9f3LFPSIp77_4core5clone5Clone5cloneINtNtNtBL_3ops8function5FnMutTRB5_EE8call_mutCsk0EuziVMDa8_11time_macros, symObjAddr: 0x3430, symBinAddr: 0x25F1C, symSize: 0x28 }
  - { offset: 0x26A1F, size: 0x8, addend: 0x0, symName: __RNvYNvYNtNtNtCsk0EuziVMDa8_11time_macros18format_description11format_item4ItemINtNtCs9f3LFPSIp77_4core7convert4IntoNtNtB9_6public15OwnedFormatItemE4intoINtNtNtB1j_3ops8function5FnMutTB5_EE8call_mutBb_, symObjAddr: 0x3484, symBinAddr: 0x25F70, symSize: 0x40 }
  - { offset: 0x26A69, size: 0x8, addend: 0x0, symName: __RNvYNvCsk0EuziVMDa8_11time_macros18format_descriptionINtNtNtCs9f3LFPSIp77_4core3ops8function2FnTNtCsjLJ1XWNSM6u_10proc_macro11TokenStreamEE4callB4_, symObjAddr: 0x328C, symBinAddr: 0x25D78, symSize: 0x28 }
  - { offset: 0x26AAD, size: 0x8, addend: 0x0, symName: __RNvYNvCsk0EuziVMDa8_11time_macros4dateINtNtNtCs9f3LFPSIp77_4core3ops8function2FnTNtCsjLJ1XWNSM6u_10proc_macro11TokenStreamEE4callB4_, symObjAddr: 0x32B4, symBinAddr: 0x25DA0, symSize: 0x28 }
  - { offset: 0x26AF1, size: 0x8, addend: 0x0, symName: __RNvYNvCsk0EuziVMDa8_11time_macros4timeINtNtNtCs9f3LFPSIp77_4core3ops8function2FnTNtCsjLJ1XWNSM6u_10proc_macro11TokenStreamEE4callB4_, symObjAddr: 0x32DC, symBinAddr: 0x25DC8, symSize: 0x28 }
  - { offset: 0x26B35, size: 0x8, addend: 0x0, symName: __RNvYNvCsk0EuziVMDa8_11time_macros6offsetINtNtNtCs9f3LFPSIp77_4core3ops8function2FnTNtCsjLJ1XWNSM6u_10proc_macro11TokenStreamEE4callB4_, symObjAddr: 0x3304, symBinAddr: 0x25DF0, symSize: 0x28 }
  - { offset: 0x26B79, size: 0x8, addend: 0x0, symName: __RNvYNvCsk0EuziVMDa8_11time_macros8datetimeINtNtNtCs9f3LFPSIp77_4core3ops8function2FnTNtCsjLJ1XWNSM6u_10proc_macro11TokenStreamEE4callB4_, symObjAddr: 0x332C, symBinAddr: 0x25E18, symSize: 0x28 }
  - { offset: 0x26F3F, size: 0x8, addend: 0x0, symName: __RINvNtNtCsdze8u8oDPro_5alloc3vec16in_place_collect18from_iter_in_placeINtNtNtCs9f3LFPSIp77_4core4iter8adapters12GenericShuntINtNtB19_3map3MapINtNtB4_9into_iter8IntoIterNtNtNtCsk0EuziVMDa8_11time_macros18format_description3ast23NestedFormatDescriptionENCNvMNtB2K_11format_itemNtB46_4Item8from_ast0EINtNtB1d_6result6ResultNtNtB1d_7convert10InfallibleNtB2K_5ErrorEEINtNtB6_5boxed3BoxSB4p_EEB2M_, symObjAddr: 0x1E60, symBinAddr: 0x2494C, symSize: 0x264 }
  - { offset: 0x273A2, size: 0x8, addend: 0x0, symName: __RINvNtNtCsdze8u8oDPro_5alloc3vec16in_place_collect18from_iter_in_placeINtNtNtCs9f3LFPSIp77_4core4iter8adapters12GenericShuntINtNtB19_3map3MapINtNtB4_9into_iter8IntoIterNtNtNtCsk0EuziVMDa8_11time_macros18format_description3ast4ItemENvMNtB2K_11format_itemNtB3K_4Item8from_astEINtNtB1d_6result6ResultNtNtB1d_7convert10InfallibleNtB2K_5ErrorEEB43_EB2M_, symObjAddr: 0x20C4, symBinAddr: 0x24BB0, symSize: 0x3FC }
  - { offset: 0x2796C, size: 0x8, addend: 0x0, symName: __RINvNtNtCsdze8u8oDPro_5alloc3vec16in_place_collect18from_iter_in_placeINtNtNtNtCs9f3LFPSIp77_4core4iter8adapters3map3MapINtNtB4_9into_iter8IntoIterNtNtNtCsk0EuziVMDa8_11time_macros18format_description11format_item4ItemENvYB2l_INtNtB1f_7convert4IntoNtNtB2p_6public15OwnedFormatItemE4intoEB3Y_EB2r_, symObjAddr: 0x24C0, symBinAddr: 0x24FAC, symSize: 0x268 }
  - { offset: 0x27D9B, size: 0x8, addend: 0x0, symName: __RNCINvNtNtCsdze8u8oDPro_5alloc3vec16in_place_collect24write_in_place_with_dropINtNtB8_5boxed3BoxSNtNtNtCsk0EuziVMDa8_11time_macros18format_description11format_item4ItemEE0B1D_, symObjAddr: 0x2CF0, symBinAddr: 0x257DC, symSize: 0x74 }
  - { offset: 0x27E57, size: 0x8, addend: 0x0, symName: __RNCINvNtNtCsdze8u8oDPro_5alloc3vec16in_place_collect24write_in_place_with_dropNtNtNtCsk0EuziVMDa8_11time_macros18format_description11format_item4ItemE0B1k_, symObjAddr: 0x2D64, symBinAddr: 0x25850, symSize: 0x70 }
  - { offset: 0x27F11, size: 0x8, addend: 0x0, symName: __RNCINvNtNtCsdze8u8oDPro_5alloc3vec16in_place_collect24write_in_place_with_dropNtNtNtCsk0EuziVMDa8_11time_macros18format_description6public15OwnedFormatItemE0B1k_, symObjAddr: 0x2DD4, symBinAddr: 0x258C0, symSize: 0x70 }
  - { offset: 0x29EE9, size: 0x8, addend: 0x0, symName: __RINvMNtCs5CUYdSNmugS_9time_core7convertNtB3_10Nanosecond3perNtB3_6SecondECsk0EuziVMDa8_11time_macros, symObjAddr: 0x0, symBinAddr: 0x27748, symSize: 0x24 }
  - { offset: 0x2A533, size: 0x8, addend: 0x0, symName: __RNvXNtNtCsk0EuziVMDa8_11time_macros18format_description6publicNtB2_15OwnedFormatItemNtNtB6_9to_tokens13ToTokenStream9append_to, symObjAddr: 0x1D4C, symBinAddr: 0x29494, symSize: 0x2850 }
  - { offset: 0x2A732, size: 0x8, addend: 0x0, symName: __RNCNvXNtNtCsk0EuziVMDa8_11time_macros18format_description6publicNtB4_15OwnedFormatItemNtNtB8_9to_tokens13ToTokenStream9append_to0B8_, symObjAddr: 0x459C, symBinAddr: 0x2BCE4, symSize: 0x148 }
  - { offset: 0x2A792, size: 0x8, addend: 0x0, symName: __RNCNvXNtNtCsk0EuziVMDa8_11time_macros18format_description6publicNtB4_15OwnedFormatItemNtNtB8_9to_tokens13ToTokenStream9append_tos_0B8_, symObjAddr: 0x46E4, symBinAddr: 0x2BE2C, symSize: 0x148 }
  - { offset: 0x2AB7C, size: 0x8, addend: 0x0, symName: __RNvXs_NtNtCsk0EuziVMDa8_11time_macros18format_description11format_itemNtNtB6_6public15OwnedFormatItemINtNtCs9f3LFPSIp77_4core7convert4FromNtB4_4ItemE4from, symObjAddr: 0x1A30, symBinAddr: 0x29178, symSize: 0x218 }
  - { offset: 0x2AC3A, size: 0x8, addend: 0x0, symName: __RNvXs0_NtNtCsk0EuziVMDa8_11time_macros18format_description11format_itemNtNtB7_6public15OwnedFormatItemINtNtCs9f3LFPSIp77_4core7convert4FromINtNtCsdze8u8oDPro_5alloc5boxed3BoxSNtB5_4ItemEE4from, symObjAddr: 0x1C48, symBinAddr: 0x29390, symSize: 0x104 }
  - { offset: 0x2B4F5, size: 0x8, addend: 0x0, symName: __RNvNtCsk0EuziVMDa8_11time_macros4time5parse, symObjAddr: 0x482C, symBinAddr: 0x2BF74, symSize: 0x980 }
  - { offset: 0x2B726, size: 0x8, addend: 0x0, symName: __RNvNvNtCsk0EuziVMDa8_11time_macros4time5parse14consume_period, symObjAddr: 0x51AC, symBinAddr: 0x2C8F4, symSize: 0x194 }
  - { offset: 0x2B788, size: 0x8, addend: 0x0, symName: __RNvXNtCsk0EuziVMDa8_11time_macros4timeNtB2_4TimeNtNtB4_9to_tokens11ToTokenTree15into_token_tree, symObjAddr: 0x5340, symBinAddr: 0x2CA88, symSize: 0xDE8 }
  - { offset: 0x2C01F, size: 0x8, addend: 0x0, symName: __RNvXNtNtCs9f3LFPSIp77_4core3cmp5implsuNtB4_9PartialEq2eqCsk0EuziVMDa8_11time_macros, symObjAddr: 0x1480, symBinAddr: 0x28BC8, symSize: 0x1C }
  - { offset: 0x2C062, size: 0x8, addend: 0x0, symName: __RNvXs7_NtNtCs9f3LFPSIp77_4core3cmp5implsRShINtB7_9PartialEqRAhj5_E2eqCsk0EuziVMDa8_11time_macros, symObjAddr: 0x1594, symBinAddr: 0x28CDC, symSize: 0x40 }
  - { offset: 0x2C0B1, size: 0x8, addend: 0x0, symName: __RNvXs7_NtNtCs9f3LFPSIp77_4core3cmp5implsRShINtB7_9PartialEqRAhj8_E2eqCsk0EuziVMDa8_11time_macros, symObjAddr: 0x15D4, symBinAddr: 0x28D1C, symSize: 0x40 }
  - { offset: 0x2C100, size: 0x8, addend: 0x0, symName: __RNvXs7_NtNtCs9f3LFPSIp77_4core3cmp5implsReNtB7_9PartialEq2eqCsk0EuziVMDa8_11time_macros, symObjAddr: 0x1614, symBinAddr: 0x28D5C, symSize: 0x44 }
  - { offset: 0x2C155, size: 0x8, addend: 0x0, symName: __RNvXsV_NtNtCs9f3LFPSIp77_4core3cmp5implsjNtB7_3Ord3cmpCsk0EuziVMDa8_11time_macros, symObjAddr: 0x1658, symBinAddr: 0x28DA0, symSize: 0x38 }
  - { offset: 0x2C2DB, size: 0x8, addend: 0x0, symName: __RNvXs_NtNtNtCs9f3LFPSIp77_4core4iter8adapters8peekableINtB4_8PeekableINtNtB6_3map3MapINtNtNtBa_5slice4iter4IterhENCINvNtNtCsk0EuziVMDa8_11time_macros18format_description5lexer15attach_locationB1l_E0EENtNtNtB8_6traits8iterator8Iterator4nextB1W_, symObjAddr: 0x177C, symBinAddr: 0x28EC4, symSize: 0x90 }
  - { offset: 0x2C3CA, size: 0x8, addend: 0x0, symName: __RNvXs_NtNtNtCs9f3LFPSIp77_4core4iter8adapters8peekableINtB4_8PeekableINtNtNtB8_7sources7from_fn6FromFnNCINvNtNtCsk0EuziVMDa8_11time_macros18format_description5lexer3lexKh1_E0EENtNtNtB8_6traits8iterator8Iterator4nextB1L_, symObjAddr: 0x180C, symBinAddr: 0x28F54, symSize: 0xC0 }
  - { offset: 0x2C4BA, size: 0x8, addend: 0x0, symName: __RNvXs_NtNtNtCs9f3LFPSIp77_4core4iter8adapters8peekableINtB4_8PeekableINtNtNtB8_7sources7from_fn6FromFnNCINvNtNtCsk0EuziVMDa8_11time_macros18format_description5lexer3lexKh2_E0EENtNtNtB8_6traits8iterator8Iterator4nextB1L_, symObjAddr: 0x18CC, symBinAddr: 0x29014, symSize: 0xC0 }
  - { offset: 0x2C5AA, size: 0x8, addend: 0x0, symName: __RNvXs_NtNtNtCs9f3LFPSIp77_4core4iter8adapters8peekableINtB4_8PeekableNtNtCsjLJ1XWNSM6u_10proc_macro12token_stream8IntoIterENtNtNtB8_6traits8iterator8Iterator4nextCsk0EuziVMDa8_11time_macros, symObjAddr: 0x198C, symBinAddr: 0x290D4, symSize: 0xA4 }
  - { offset: 0x2C7DB, size: 0x8, addend: 0x0, symName: __RNCNvMs3_NtNtNtCs9f3LFPSIp77_4core4iter8adapters8peekableINtB7_8PeekableINtNtNtBb_7sources7from_fn6FromFnNCINvNtNtCsk0EuziVMDa8_11time_macros18format_description5lexer3lexKh1_E0EE4peek0B1O_, symObjAddr: 0x129C, symBinAddr: 0x289E4, symSize: 0x24 }
  - { offset: 0x2C812, size: 0x8, addend: 0x0, symName: __RNCNvMs3_NtNtNtCs9f3LFPSIp77_4core4iter8adapters8peekableINtB7_8PeekableINtNtNtBb_7sources7from_fn6FromFnNCINvNtNtCsk0EuziVMDa8_11time_macros18format_description5lexer3lexKh2_E0EE4peek0B1O_, symObjAddr: 0x12C0, symBinAddr: 0x28A08, symSize: 0x24 }
  - { offset: 0x2C849, size: 0x8, addend: 0x0, symName: __RNCNvMs3_NtNtNtCs9f3LFPSIp77_4core4iter8adapters8peekableINtB7_8PeekableNtNtCsjLJ1XWNSM6u_10proc_macro12token_stream8IntoIterE4peek0Csk0EuziVMDa8_11time_macros, symObjAddr: 0x12E4, symBinAddr: 0x28A2C, symSize: 0x24 }
  - { offset: 0x2C9A4, size: 0x8, addend: 0x0, symName: __RINvYNtNtNtCs9f3LFPSIp77_4core3ops11index_range10IndexRangeNtNtNtNtB9_4iter6traits8iterator8Iterator8try_folduNCINvMNtB7_9try_traitINtB1Q_17NeverShortCircuituE10wrap_mut_2ujNCINvXs0_NtNtB9_5array4iterINtB2U_8IntoIterNtCsjLJ1XWNSM6u_10proc_macro9TokenTreeKj1_EBV_4folduNCINvNvBV_8for_each4callB3s_NCINvXsj_B3u_NtB3u_11TokenStreamINtNtBZ_7collect6ExtendB3s_E6extendAB3s_B45_E0E0E0E0B25_ECsk0EuziVMDa8_11time_macros, symObjAddr: 0xE2C, symBinAddr: 0x28574, symSize: 0xF8 }
  - { offset: 0x2CA3B, size: 0x8, addend: 0x0, symName: __RINvYNtNtNtCs9f3LFPSIp77_4core3ops11index_range10IndexRangeNtNtNtNtB9_4iter6traits8iterator8Iterator8try_folduNCINvMNtB7_9try_traitINtB1Q_17NeverShortCircuituE10wrap_mut_2ujNCINvXs0_NtNtB9_5array4iterINtB2U_8IntoIterNtCsjLJ1XWNSM6u_10proc_macro9TokenTreeKj2_EBV_4folduNCINvNvBV_8for_each4callB3s_NCINvXsj_B3u_NtB3u_11TokenStreamINtNtBZ_7collect6ExtendB3s_E6extendAB3s_B45_E0E0E0E0B25_ECsk0EuziVMDa8_11time_macros, symObjAddr: 0xF24, symBinAddr: 0x2866C, symSize: 0xF8 }
  - { offset: 0x2CADC, size: 0x8, addend: 0x0, symName: __RNCINvNvNtNtNtNtCs9f3LFPSIp77_4core4iter6traits8iterator8Iterator12try_for_each4callNtNtNtCsk0EuziVMDa8_11time_macros18format_description3ast4ItemINtNtNtBe_3ops12control_flow11ControlFlowB1k_ENcNtB2k_5Break0E0B1q_, symObjAddr: 0x101C, symBinAddr: 0x28764, symSize: 0x48 }
  - { offset: 0x2CB41, size: 0x8, addend: 0x0, symName: __RNCINvNvNtNtNtNtCs9f3LFPSIp77_4core4iter6traits8iterator8Iterator12try_for_each4callNtNtNtCsk0EuziVMDa8_11time_macros18format_description6public15OwnedFormatItemINtNtNtBe_3ops12control_flow11ControlFlowB1k_ENcNtB2z_5Break0E0B1q_, symObjAddr: 0x1064, symBinAddr: 0x287AC, symSize: 0x3C }
  - { offset: 0x2CBB2, size: 0x8, addend: 0x0, symName: __RNCINvNvNtNtNtNtCs9f3LFPSIp77_4core4iter6traits8iterator8Iterator3all5checkTRhB1c_ENCNvMNtNtBe_5slice5asciiSh20eq_ignore_ascii_case0E0Csk0EuziVMDa8_11time_macros, symObjAddr: 0x10A0, symBinAddr: 0x287E8, symSize: 0x58 }
  - { offset: 0x2CC19, size: 0x8, addend: 0x0, symName: __RNCINvNvNtNtNtNtCs9f3LFPSIp77_4core4iter6traits8iterator8Iterator8for_each4callNtCsjLJ1XWNSM6u_10proc_macro11TokenStreamNCINvXsi_B1h_B1f_INtNtBa_7collect12FromIteratorB1f_E9from_iterINtNtNtBc_8adapters3map3MapINtNtNtCsdze8u8oDPro_5alloc3vec9into_iter8IntoIterNtNtNtCsk0EuziVMDa8_11time_macros18format_description6public15OwnedFormatItemENCNCNvB4f_18format_description0s_0EE0E0B4f_, symObjAddr: 0x10F8, symBinAddr: 0x28840, symSize: 0x28 }
  - { offset: 0x2CC71, size: 0x8, addend: 0x0, symName: __RNCINvNvNtNtNtNtCs9f3LFPSIp77_4core4iter6traits8iterator8Iterator8for_each4callNtCsjLJ1XWNSM6u_10proc_macro11TokenStreamNCINvXsi_B1h_B1f_INtNtBa_7collect12FromIteratorB1f_E9from_iterINtNtNtBc_8adapters3map3MapINtNtNtCsdze8u8oDPro_5alloc3vec9into_iter8IntoIterNtNtNtCsk0EuziVMDa8_11time_macros18format_description6public15OwnedFormatItemENCNvXB4b_B49_NtNtB4f_9to_tokens13ToTokenStream9append_to0EE0E0B4f_, symObjAddr: 0x1120, symBinAddr: 0x28868, symSize: 0x28 }
  - { offset: 0x2CCC9, size: 0x8, addend: 0x0, symName: __RNCINvNvNtNtNtNtCs9f3LFPSIp77_4core4iter6traits8iterator8Iterator8for_each4callNtCsjLJ1XWNSM6u_10proc_macro11TokenStreamNCINvXsi_B1h_B1f_INtNtBa_7collect12FromIteratorB1f_E9from_iterINtNtNtBc_8adapters3map3MapINtNtNtCsdze8u8oDPro_5alloc3vec9into_iter8IntoIterNtNtNtCsk0EuziVMDa8_11time_macros18format_description6public15OwnedFormatItemENCNvXB4b_B49_NtNtB4f_9to_tokens13ToTokenStream9append_tos_0EE0E0B4f_, symObjAddr: 0x1148, symBinAddr: 0x28890, symSize: 0x28 }
  - { offset: 0x2CD21, size: 0x8, addend: 0x0, symName: __RNCINvNvNtNtNtNtCs9f3LFPSIp77_4core4iter6traits8iterator8Iterator8for_each4callNtCsjLJ1XWNSM6u_10proc_macro9TokenTreeNCINvXsh_B1h_NtB1h_11TokenStreamINtNtBa_7collect12FromIteratorB1f_E9from_iterINtNtNtBc_8adapters6cloned6ClonedINtNtNtBe_5slice4iter4IterB1f_EEE0E0Csk0EuziVMDa8_11time_macros, symObjAddr: 0x1170, symBinAddr: 0x288B8, symSize: 0x3C }
  - { offset: 0x2CD7A, size: 0x8, addend: 0x0, symName: __RNCINvNvNtNtNtNtCs9f3LFPSIp77_4core4iter6traits8iterator8Iterator8for_each4callNtCsjLJ1XWNSM6u_10proc_macro9TokenTreeNCINvXsj_B1h_NtB1h_11TokenStreamINtNtBa_7collect6ExtendB1f_E6extendAB1f_j1_E0E0Csk0EuziVMDa8_11time_macros, symObjAddr: 0x11AC, symBinAddr: 0x288F4, symSize: 0x3C }
  - { offset: 0x2CDD3, size: 0x8, addend: 0x0, symName: __RNCINvNvNtNtNtNtCs9f3LFPSIp77_4core4iter6traits8iterator8Iterator8for_each4callNtCsjLJ1XWNSM6u_10proc_macro9TokenTreeNCINvXsj_B1h_NtB1h_11TokenStreamINtNtBa_7collect6ExtendB1f_E6extendAB1f_j2_E0E0Csk0EuziVMDa8_11time_macros, symObjAddr: 0x11E8, symBinAddr: 0x28930, symSize: 0x3C }
  - { offset: 0x2CE2C, size: 0x8, addend: 0x0, symName: __RNCINvNvNtNtNtNtCs9f3LFPSIp77_4core4iter6traits8iterator8Iterator8for_each4callNtCsjLJ1XWNSM6u_10proc_macro9TokenTreeNCINvXsj_B1h_NtB1h_11TokenStreamINtNtBa_7collect6ExtendB1f_E6extendB24_E0E0Csk0EuziVMDa8_11time_macros, symObjAddr: 0x1224, symBinAddr: 0x2896C, symSize: 0x3C }
  - { offset: 0x2CE85, size: 0x8, addend: 0x0, symName: __RNCINvNvNtNtNtNtCs9f3LFPSIp77_4core4iter6traits8iterator8Iterator8for_each4callNtNtNtCsk0EuziVMDa8_11time_macros18format_description6public15OwnedFormatItemNCINvMsi_NtCsdze8u8oDPro_5alloc3vecINtB2D_3VecB1f_E14extend_trustedINtNtNtBc_8adapters3map3MapINtNtB2D_9into_iter8IntoIterINtNtB2F_5boxed3BoxSNtNtB1j_11format_item4ItemEENvYB4s_INtNtBe_7convert4IntoB1f_E4intoEE0E0B1l_, symObjAddr: 0x1260, symBinAddr: 0x289A8, symSize: 0x3C }
  - { offset: 0x2D055, size: 0x8, addend: 0x0, symName: __RNvXs1_NtNtCs9f3LFPSIp77_4core5slice5indexNtNtNtB9_3ops11index_range10IndexRangeINtB5_10SliceIndexSINtNtNtB9_3mem12maybe_uninit11MaybeUninitNtCsjLJ1XWNSM6u_10proc_macro9TokenTreeEE17get_unchecked_mutCsk0EuziVMDa8_11time_macros, symObjAddr: 0x149C, symBinAddr: 0x28BE4, symSize: 0xD0 }
  - { offset: 0x2E8F9, size: 0x8, addend: 0x0, symName: __RNvXs_NtNtCs9f3LFPSIp77_4core3ops11index_rangeNtB4_10IndexRangeNtNtNtNtB8_4iter6traits8iterator8Iterator4nextCsk0EuziVMDa8_11time_macros, symObjAddr: 0x1690, symBinAddr: 0x28DD8, symSize: 0xEC }
  - { offset: 0x2ECE1, size: 0x8, addend: 0x0, symName: __RINvMNtCs5CUYdSNmugS_9time_core7convertNtB3_10Nanosecond3perNtB3_6SecondECsk0EuziVMDa8_11time_macros, symObjAddr: 0x0, symBinAddr: 0x27748, symSize: 0x24 }
  - { offset: 0x2ED1B, size: 0x8, addend: 0x0, symName: __RINvMNtCsdze8u8oDPro_5alloc5sliceSNtNtNtCsk0EuziVMDa8_11time_macros18format_description6public15OwnedFormatItem8into_vecNtNtB5_5alloc6GlobalEBC_, symObjAddr: 0x24, symBinAddr: 0x2776C, symSize: 0x28 }
  - { offset: 0x2ED97, size: 0x8, addend: 0x0, symName: __RNvMNtCsdze8u8oDPro_5alloc5sliceSh6to_vecCsk0EuziVMDa8_11time_macros, symObjAddr: 0x1308, symBinAddr: 0x28A50, symSize: 0x28 }
  - { offset: 0x2EEFB, size: 0x8, addend: 0x0, symName: __RNvXs7_NtCsdze8u8oDPro_5alloc5sliceShNtNtB7_6borrow7ToOwned8to_ownedCsk0EuziVMDa8_11time_macros, symObjAddr: 0x156C, symBinAddr: 0x28CB4, symSize: 0x28 }
  - { offset: 0x2F457, size: 0x8, addend: 0x0, symName: __RINvMs3_NtNtNtCs9f3LFPSIp77_4core4iter8adapters8peekableINtB6_8PeekableINtNtB8_3map3MapINtNtNtBc_5slice4iter4IterhENCINvNtNtCsk0EuziVMDa8_11time_macros18format_description5lexer15attach_locationB1n_E0EE7next_ifNCNCINvB1U_3lexKh1_E00EB1Y_, symObjAddr: 0x4C, symBinAddr: 0x27794, symSize: 0x23C }
  - { offset: 0x2F64C, size: 0x8, addend: 0x0, symName: __RINvMs3_NtNtNtCs9f3LFPSIp77_4core4iter8adapters8peekableINtB6_8PeekableINtNtB8_3map3MapINtNtNtBc_5slice4iter4IterhENCINvNtNtCsk0EuziVMDa8_11time_macros18format_description5lexer15attach_locationB1n_E0EE7next_ifNCNCINvB1U_3lexKh1_E0s0_0EB1Y_, symObjAddr: 0x288, symBinAddr: 0x279D0, symSize: 0x248 }
  - { offset: 0x2F834, size: 0x8, addend: 0x0, symName: __RINvMs3_NtNtNtCs9f3LFPSIp77_4core4iter8adapters8peekableINtB6_8PeekableINtNtB8_3map3MapINtNtNtBc_5slice4iter4IterhENCINvNtNtCsk0EuziVMDa8_11time_macros18format_description5lexer15attach_locationB1n_E0EE7next_ifNCNCINvB1U_3lexKh1_E0s_0EB1Y_, symObjAddr: 0x4D0, symBinAddr: 0x27C18, symSize: 0x23C }
  - { offset: 0x2FA1C, size: 0x8, addend: 0x0, symName: __RINvMs3_NtNtNtCs9f3LFPSIp77_4core4iter8adapters8peekableINtB6_8PeekableINtNtB8_3map3MapINtNtNtBc_5slice4iter4IterhENCINvNtNtCsk0EuziVMDa8_11time_macros18format_description5lexer15attach_locationB1n_E0EE7next_ifNCNCINvB1U_3lexKh2_E00EB1Y_, symObjAddr: 0x70C, symBinAddr: 0x27E54, symSize: 0x23C }
  - { offset: 0x2FC04, size: 0x8, addend: 0x0, symName: __RINvMs3_NtNtNtCs9f3LFPSIp77_4core4iter8adapters8peekableINtB6_8PeekableINtNtB8_3map3MapINtNtNtBc_5slice4iter4IterhENCINvNtNtCsk0EuziVMDa8_11time_macros18format_description5lexer15attach_locationB1n_E0EE7next_ifNCNCINvB1U_3lexKh2_E0s0_0EB1Y_, symObjAddr: 0x948, symBinAddr: 0x28090, symSize: 0x248 }
  - { offset: 0x2FDEC, size: 0x8, addend: 0x0, symName: __RINvMs3_NtNtNtCs9f3LFPSIp77_4core4iter8adapters8peekableINtB6_8PeekableINtNtB8_3map3MapINtNtNtBc_5slice4iter4IterhENCINvNtNtCsk0EuziVMDa8_11time_macros18format_description5lexer15attach_locationB1n_E0EE7next_ifNCNCINvB1U_3lexKh2_E0s_0EB1Y_, symObjAddr: 0xB90, symBinAddr: 0x282D8, symSize: 0x23C }
  - { offset: 0x2FF80, size: 0x8, addend: 0x0, symName: __RINvMsm_NtCs5CUYdSNmugS_9time_core7convertNtB6_6Second3perNtB6_6MinuteECsk0EuziVMDa8_11time_macros, symObjAddr: 0xDCC, symBinAddr: 0x28514, symSize: 0x20 }
  - { offset: 0x2FFAB, size: 0x8, addend: 0x0, symName: __RINvMss_NtCs5CUYdSNmugS_9time_core7convertNtB6_6Minute3perNtB6_4HourECsk0EuziVMDa8_11time_macros, symObjAddr: 0xDEC, symBinAddr: 0x28534, symSize: 0x20 }
  - { offset: 0x2FFD6, size: 0x8, addend: 0x0, symName: __RINvMsx_NtCs5CUYdSNmugS_9time_core7convertNtB6_4Hour3perNtB6_3DayECsk0EuziVMDa8_11time_macros, symObjAddr: 0xE0C, symBinAddr: 0x28554, symSize: 0x20 }
  - { offset: 0x300AC, size: 0x8, addend: 0x0, symName: __RNvMs3_NtNtNtCs9f3LFPSIp77_4core4iter8adapters8peekableINtB5_8PeekableINtNtNtB9_7sources7from_fn6FromFnNCINvNtNtCsk0EuziVMDa8_11time_macros18format_description5lexer3lexKh1_E0EE4peekB1M_, symObjAddr: 0x1330, symBinAddr: 0x28A78, symSize: 0x70 }
  - { offset: 0x3015F, size: 0x8, addend: 0x0, symName: __RNvMs3_NtNtNtCs9f3LFPSIp77_4core4iter8adapters8peekableINtB5_8PeekableINtNtNtB9_7sources7from_fn6FromFnNCINvNtNtCsk0EuziVMDa8_11time_macros18format_description5lexer3lexKh2_E0EE4peekB1M_, symObjAddr: 0x13A0, symBinAddr: 0x28AE8, symSize: 0x70 }
  - { offset: 0x30246, size: 0x8, addend: 0x0, symName: __RNvMs3_NtNtNtCs9f3LFPSIp77_4core4iter8adapters8peekableINtB5_8PeekableNtNtCsjLJ1XWNSM6u_10proc_macro12token_stream8IntoIterE4peekCsk0EuziVMDa8_11time_macros, symObjAddr: 0x1410, symBinAddr: 0x28B58, symSize: 0x70 }
  - { offset: 0x3073F, size: 0x8, addend: 0x0, symName: __RINvMNtCs9f3LFPSIp77_4core6resultINtB3_6ResultNtCsjLJ1XWNSM6u_10proc_macro11TokenStreamNtNtCsk0EuziVMDa8_11time_macros5error5ErrorE14unwrap_or_elseNCNvB1r_18format_descriptions_0EB1r_, symObjAddr: 0x0, symBinAddr: 0x2D870, symSize: 0x90 }
  - { offset: 0x307EF, size: 0x8, addend: 0x0, symName: __RNCNvMs3_NtNtCs27l1GJC5rMQ_3std6thread5localINtB7_8LocalKeyINtNtCs9f3LFPSIp77_4core4cell4CellPuEE7replace0Csk0EuziVMDa8_11time_macros, symObjAddr: 0x538, symBinAddr: 0x2DDA8, symSize: 0x44 }
  - { offset: 0x30967, size: 0x8, addend: 0x0, symName: __RNvXs5_NtNtCs9f3LFPSIp77_4core3num5errorNtB5_15TryFromIntErrorNtNtB9_3fmt5Debug3fmtCsk0EuziVMDa8_11time_macros, symObjAddr: 0xF0C, symBinAddr: 0x2E77C, symSize: 0x54 }
  - { offset: 0x30E2D, size: 0x8, addend: 0x0, symName: __RNvXsp_NtCs9f3LFPSIp77_4core6resultINtB5_6ResultINtNtB7_6option6OptionNtCsk0EuziVMDa8_11time_macros19VersionOrModuleNameENtNtB18_5error5ErrorEINtNtNtB7_3ops9try_trait12FromResidualIBy_NtNtB7_7convert10InfallibleB1V_EE13from_residualB18_, symObjAddr: 0x3294, symBinAddr: 0x30B04, symSize: 0x5C }
  - { offset: 0x30EB3, size: 0x8, addend: 0x0, symName: __RNvXsp_NtCs9f3LFPSIp77_4core6resultINtB5_6ResultINtNtCsdze8u8oDPro_5alloc3vec3VecNtNtNtCsk0EuziVMDa8_11time_macros18format_description6public15OwnedFormatItemENtB1l_5ErrorEINtNtNtB7_3ops9try_trait12FromResidualIBy_NtNtB7_7convert10InfallibleB2x_EE13from_residualB1n_, symObjAddr: 0x32F0, symBinAddr: 0x30B60, symSize: 0x48 }
  - { offset: 0x30F38, size: 0x8, addend: 0x0, symName: __RNvXsp_NtCs9f3LFPSIp77_4core6resultINtB5_6ResultINtNtCsdze8u8oDPro_5alloc3vec3VecNtNtNtCsk0EuziVMDa8_11time_macros18format_description6public15OwnedFormatItemENtNtB1n_5error5ErrorEINtNtNtB7_3ops9try_trait12FromResidualIBy_NtNtB7_7convert10InfallibleNtB1l_5ErrorEE13from_residualB1n_, symObjAddr: 0x3338, symBinAddr: 0x30BA8, symSize: 0x54 }
  - { offset: 0x30FA0, size: 0x8, addend: 0x0, symName: __RNvXsp_NtCs9f3LFPSIp77_4core6resultINtB5_6ResultINtNtCsdze8u8oDPro_5alloc5boxed3BoxSIBL_SNtNtNtCsk0EuziVMDa8_11time_macros18format_description11format_item4ItemEENtB1t_5ErrorEINtNtNtB7_3ops9try_trait12FromResidualIBy_NtNtB7_7convert10InfallibleB2A_EE13from_residualB1v_, symObjAddr: 0x338C, symBinAddr: 0x30BFC, symSize: 0x40 }
  - { offset: 0x31025, size: 0x8, addend: 0x0, symName: __RNvXsp_NtCs9f3LFPSIp77_4core6resultINtB5_6ResultINtNtCsdze8u8oDPro_5alloc5boxed3BoxSNtNtNtCsk0EuziVMDa8_11time_macros18format_description11format_item4ItemENtB1o_5ErrorEINtNtNtB7_3ops9try_trait12FromResidualIBy_NtNtB7_7convert10InfallibleB2u_EE13from_residualB1q_, symObjAddr: 0x33CC, symBinAddr: 0x30C3C, symSize: 0x40 }
  - { offset: 0x310AA, size: 0x8, addend: 0x0, symName: __RNvXsp_NtCs9f3LFPSIp77_4core6resultINtB5_6ResultINtNtCsdze8u8oDPro_5alloc5boxed3BoxSNtNtNtCsk0EuziVMDa8_11time_macros18format_description3ast4ItemENtB1o_5ErrorEINtNtNtB7_3ops9try_trait12FromResidualIBy_NtNtB7_7convert10InfallibleB2l_EE13from_residualB1q_, symObjAddr: 0x340C, symBinAddr: 0x30C7C, symSize: 0x40 }
  - { offset: 0x3112F, size: 0x8, addend: 0x0, symName: __RNvXsp_NtCs9f3LFPSIp77_4core6resultINtB5_6ResultINtNtNtCsdze8u8oDPro_5alloc3vec13in_place_drop11InPlaceDropINtNtBR_5boxed3BoxSNtNtNtCsk0EuziVMDa8_11time_macros18format_description11format_item4ItemEEzEINtNtNtB7_3ops9try_trait12FromResidualIBy_NtNtB7_7convert10InfalliblezEE13from_residualB26_, symObjAddr: 0x344C, symBinAddr: 0x30CBC, symSize: 0x8 }
  - { offset: 0x311AA, size: 0x8, addend: 0x0, symName: __RNvXsp_NtCs9f3LFPSIp77_4core6resultINtB5_6ResultINtNtNtCsdze8u8oDPro_5alloc3vec13in_place_drop11InPlaceDropNtNtNtCsk0EuziVMDa8_11time_macros18format_description11format_item4ItemEzEINtNtNtB7_3ops9try_trait12FromResidualIBy_NtNtB7_7convert10InfalliblezEE13from_residualB1N_, symObjAddr: 0x3454, symBinAddr: 0x30CC4, symSize: 0x8 }
  - { offset: 0x31225, size: 0x8, addend: 0x0, symName: __RNvXsp_NtCs9f3LFPSIp77_4core6resultINtB5_6ResultINtNtNtCsdze8u8oDPro_5alloc3vec13in_place_drop11InPlaceDropNtNtNtCsk0EuziVMDa8_11time_macros18format_description6public15OwnedFormatItemEzEINtNtNtB7_3ops9try_trait12FromResidualIBy_NtNtB7_7convert10InfalliblezEE13from_residualB1N_, symObjAddr: 0x345C, symBinAddr: 0x30CCC, symSize: 0x8 }
  - { offset: 0x312A0, size: 0x8, addend: 0x0, symName: __RNvXsp_NtCs9f3LFPSIp77_4core6resultINtB5_6ResultNtCsjLJ1XWNSM6u_10proc_macro11TokenStreamNtNtCsk0EuziVMDa8_11time_macros5error5ErrorEINtNtNtB7_3ops9try_trait12FromResidualIBy_NtNtB7_7convert10InfallibleB1p_EE13from_residualB1t_, symObjAddr: 0x3464, symBinAddr: 0x30CD4, symSize: 0x5C }
  - { offset: 0x31326, size: 0x8, addend: 0x0, symName: __RNvXsp_NtCs9f3LFPSIp77_4core6resultINtB5_6ResultNtNtCsk0EuziVMDa8_11time_macros4date4DateNtNtBO_5error5ErrorEINtNtNtB7_3ops9try_trait12FromResidualIBy_NtNtB7_7convert10InfallibleB1p_EE13from_residualBO_, symObjAddr: 0x34C0, symBinAddr: 0x30D30, symSize: 0x5C }
  - { offset: 0x313AC, size: 0x8, addend: 0x0, symName: __RNvXsp_NtCs9f3LFPSIp77_4core6resultINtB5_6ResultNtNtCsk0EuziVMDa8_11time_macros4time4TimeNtNtBO_5error5ErrorEINtNtNtB7_3ops9try_trait12FromResidualIBy_NtNtB7_7convert10InfallibleB1p_EE13from_residualBO_, symObjAddr: 0x351C, symBinAddr: 0x30D8C, symSize: 0x5C }
  - { offset: 0x31432, size: 0x8, addend: 0x0, symName: __RNvXsp_NtCs9f3LFPSIp77_4core6resultINtB5_6ResultNtNtCsk0EuziVMDa8_11time_macros6offset6OffsetNtNtBO_5error5ErrorEINtNtNtB7_3ops9try_trait12FromResidualIBy_NtNtB7_7convert10InfallibleB1t_EE13from_residualBO_, symObjAddr: 0x3578, symBinAddr: 0x30DE8, symSize: 0x5C }
  - { offset: 0x314B8, size: 0x8, addend: 0x0, symName: __RNvXsp_NtCs9f3LFPSIp77_4core6resultINtB5_6ResultNtNtCsk0EuziVMDa8_11time_macros8datetime8DateTimeNtNtBO_5error5ErrorEINtNtNtB7_3ops9try_trait12FromResidualIBy_NtNtB7_7convert10InfallibleB1x_EE13from_residualBO_, symObjAddr: 0x35D4, symBinAddr: 0x30E44, symSize: 0x5C }
  - { offset: 0x3153E, size: 0x8, addend: 0x0, symName: __RNvXsp_NtCs9f3LFPSIp77_4core6resultINtB5_6ResultNtNtNtCsk0EuziVMDa8_11time_macros18format_description11format_item10OffsetHourNtBO_5ErrorEINtNtNtB7_3ops9try_trait12FromResidualIBy_NtNtB7_7convert10InfallibleB20_EE13from_residualBQ_, symObjAddr: 0x3630, symBinAddr: 0x30EA0, symSize: 0x40 }
  - { offset: 0x315C3, size: 0x8, addend: 0x0, symName: __RNvXsp_NtCs9f3LFPSIp77_4core6resultINtB5_6ResultNtNtNtCsk0EuziVMDa8_11time_macros18format_description11format_item10WeekNumberNtBO_5ErrorEINtNtNtB7_3ops9try_trait12FromResidualIBy_NtNtB7_7convert10InfallibleB20_EE13from_residualBQ_, symObjAddr: 0x3670, symBinAddr: 0x30EE0, symSize: 0x40 }
  - { offset: 0x31648, size: 0x8, addend: 0x0, symName: __RNvXsp_NtCs9f3LFPSIp77_4core6resultINtB5_6ResultNtNtNtCsk0EuziVMDa8_11time_macros18format_description11format_item12OffsetMinuteNtBO_5ErrorEINtNtNtB7_3ops9try_trait12FromResidualIBy_NtNtB7_7convert10InfallibleB22_EE13from_residualBQ_, symObjAddr: 0x36B0, symBinAddr: 0x30F20, symSize: 0x40 }
  - { offset: 0x316CD, size: 0x8, addend: 0x0, symName: __RNvXsp_NtCs9f3LFPSIp77_4core6resultINtB5_6ResultNtNtNtCsk0EuziVMDa8_11time_macros18format_description11format_item12OffsetSecondNtBO_5ErrorEINtNtNtB7_3ops9try_trait12FromResidualIBy_NtNtB7_7convert10InfallibleB22_EE13from_residualBQ_, symObjAddr: 0x36F0, symBinAddr: 0x30F60, symSize: 0x40 }
  - { offset: 0x31752, size: 0x8, addend: 0x0, symName: __RNvXsp_NtCs9f3LFPSIp77_4core6resultINtB5_6ResultNtNtNtCsk0EuziVMDa8_11time_macros18format_description11format_item13UnixTimestampNtBO_5ErrorEINtNtNtB7_3ops9try_trait12FromResidualIBy_NtNtB7_7convert10InfallibleB23_EE13from_residualBQ_, symObjAddr: 0x3730, symBinAddr: 0x30FA0, symSize: 0x40 }
  - { offset: 0x317D7, size: 0x8, addend: 0x0, symName: __RNvXsp_NtCs9f3LFPSIp77_4core6resultINtB5_6ResultNtNtNtCsk0EuziVMDa8_11time_macros18format_description11format_item3DayNtBO_5ErrorEINtNtNtB7_3ops9try_trait12FromResidualIBy_NtNtB7_7convert10InfallibleB1S_EE13from_residualBQ_, symObjAddr: 0x3770, symBinAddr: 0x30FE0, symSize: 0x40 }
  - { offset: 0x3185C, size: 0x8, addend: 0x0, symName: __RNvXsp_NtCs9f3LFPSIp77_4core6resultINtB5_6ResultNtNtNtCsk0EuziVMDa8_11time_macros18format_description11format_item4HourNtBO_5ErrorEINtNtNtB7_3ops9try_trait12FromResidualIBy_NtNtB7_7convert10InfallibleB1T_EE13from_residualBQ_, symObjAddr: 0x37B0, symBinAddr: 0x31020, symSize: 0x40 }
  - { offset: 0x318E1, size: 0x8, addend: 0x0, symName: __RNvXsp_NtCs9f3LFPSIp77_4core6resultINtB5_6ResultNtNtNtCsk0EuziVMDa8_11time_macros18format_description11format_item4ItemNtBO_5ErrorEINtNtNtB7_3ops9try_trait12FromResidualIBy_NtNtB7_7convert10InfallibleB1T_EE13from_residualBQ_, symObjAddr: 0x37F0, symBinAddr: 0x31060, symSize: 0x48 }
  - { offset: 0x31966, size: 0x8, addend: 0x0, symName: __RNvXsp_NtCs9f3LFPSIp77_4core6resultINtB5_6ResultNtNtNtCsk0EuziVMDa8_11time_macros18format_description11format_item4YearNtBO_5ErrorEINtNtNtB7_3ops9try_trait12FromResidualIBy_NtNtB7_7convert10InfallibleB1T_EE13from_residualBQ_, symObjAddr: 0x3838, symBinAddr: 0x310A8, symSize: 0x40 }
  - { offset: 0x319EB, size: 0x8, addend: 0x0, symName: __RNvXsp_NtCs9f3LFPSIp77_4core6resultINtB5_6ResultNtNtNtCsk0EuziVMDa8_11time_macros18format_description11format_item5MonthNtBO_5ErrorEINtNtNtB7_3ops9try_trait12FromResidualIBy_NtNtB7_7convert10InfallibleB1U_EE13from_residualBQ_, symObjAddr: 0x3878, symBinAddr: 0x310E8, symSize: 0x40 }
  - { offset: 0x31A70, size: 0x8, addend: 0x0, symName: __RNvXsp_NtCs9f3LFPSIp77_4core6resultINtB5_6ResultNtNtNtCsk0EuziVMDa8_11time_macros18format_description11format_item6IgnoreNtBO_5ErrorEINtNtNtB7_3ops9try_trait12FromResidualIBy_NtNtB7_7convert10InfallibleB1V_EE13from_residualBQ_, symObjAddr: 0x38B8, symBinAddr: 0x31128, symSize: 0x40 }
  - { offset: 0x31AF5, size: 0x8, addend: 0x0, symName: __RNvXsp_NtCs9f3LFPSIp77_4core6resultINtB5_6ResultNtNtNtCsk0EuziVMDa8_11time_macros18format_description11format_item6MinuteNtBO_5ErrorEINtNtNtB7_3ops9try_trait12FromResidualIBy_NtNtB7_7convert10InfallibleB1V_EE13from_residualBQ_, symObjAddr: 0x38F8, symBinAddr: 0x31168, symSize: 0x40 }
  - { offset: 0x31B7A, size: 0x8, addend: 0x0, symName: __RNvXsp_NtCs9f3LFPSIp77_4core6resultINtB5_6ResultNtNtNtCsk0EuziVMDa8_11time_macros18format_description11format_item6PeriodNtBO_5ErrorEINtNtNtB7_3ops9try_trait12FromResidualIBy_NtNtB7_7convert10InfallibleB1V_EE13from_residualBQ_, symObjAddr: 0x3938, symBinAddr: 0x311A8, symSize: 0x40 }
  - { offset: 0x31BFF, size: 0x8, addend: 0x0, symName: __RNvXsp_NtCs9f3LFPSIp77_4core6resultINtB5_6ResultNtNtNtCsk0EuziVMDa8_11time_macros18format_description11format_item6SecondNtBO_5ErrorEINtNtNtB7_3ops9try_trait12FromResidualIBy_NtNtB7_7convert10InfallibleB1V_EE13from_residualBQ_, symObjAddr: 0x3978, symBinAddr: 0x311E8, symSize: 0x40 }
  - { offset: 0x31C84, size: 0x8, addend: 0x0, symName: __RNvXsp_NtCs9f3LFPSIp77_4core6resultINtB5_6ResultNtNtNtCsk0EuziVMDa8_11time_macros18format_description11format_item7OrdinalNtBO_5ErrorEINtNtNtB7_3ops9try_trait12FromResidualIBy_NtNtB7_7convert10InfallibleB1W_EE13from_residualBQ_, symObjAddr: 0x39B8, symBinAddr: 0x31228, symSize: 0x40 }
  - { offset: 0x31D09, size: 0x8, addend: 0x0, symName: __RNvXsp_NtCs9f3LFPSIp77_4core6resultINtB5_6ResultNtNtNtCsk0EuziVMDa8_11time_macros18format_description11format_item7WeekdayNtBO_5ErrorEINtNtNtB7_3ops9try_trait12FromResidualIBy_NtNtB7_7convert10InfallibleB1W_EE13from_residualBQ_, symObjAddr: 0x39F8, symBinAddr: 0x31268, symSize: 0x40 }
  - { offset: 0x31D8E, size: 0x8, addend: 0x0, symName: __RNvXsp_NtCs9f3LFPSIp77_4core6resultINtB5_6ResultNtNtNtCsk0EuziVMDa8_11time_macros18format_description11format_item9ComponentNtBO_5ErrorEINtNtNtB7_3ops9try_trait12FromResidualIBy_NtNtB7_7convert10InfallibleB1Y_EE13from_residualBQ_, symObjAddr: 0x3A38, symBinAddr: 0x312A8, symSize: 0x40 }
  - { offset: 0x31E13, size: 0x8, addend: 0x0, symName: __RNvXsp_NtCs9f3LFPSIp77_4core6resultINtB5_6ResultNtNtNtCsk0EuziVMDa8_11time_macros18format_description11format_item9SubsecondNtBO_5ErrorEINtNtNtB7_3ops9try_trait12FromResidualIBy_NtNtB7_7convert10InfallibleB1Y_EE13from_residualBQ_, symObjAddr: 0x3A78, symBinAddr: 0x312E8, symSize: 0x40 }
  - { offset: 0x31E98, size: 0x8, addend: 0x0, symName: __RNvXsp_NtCs9f3LFPSIp77_4core6resultINtB5_6ResultNtNtNtCsk0EuziVMDa8_11time_macros18format_description3ast23NestedFormatDescriptionNtBO_5ErrorEINtNtNtB7_3ops9try_trait12FromResidualIBy_NtNtB7_7convert10InfallibleB24_EE13from_residualBQ_, symObjAddr: 0x3AB8, symBinAddr: 0x31328, symSize: 0x40 }
  - { offset: 0x31F1D, size: 0x8, addend: 0x0, symName: __RNvXsp_NtCs9f3LFPSIp77_4core6resultINtB5_6ResultNtNtNtCsk0EuziVMDa8_11time_macros18format_description3ast4ItemNtBO_5ErrorEINtNtNtB7_3ops9try_trait12FromResidualIBy_NtNtB7_7convert10InfallibleB1K_EE13from_residualBQ_, symObjAddr: 0x3AF8, symBinAddr: 0x31368, symSize: 0x48 }
  - { offset: 0x3211A, size: 0x8, addend: 0x0, symName: __RNvXso_NtCs9f3LFPSIp77_4core6resultINtB5_6ResultINtNtB7_6option6OptionINtNtNtB7_3num7nonzero7NonZerotEENtNtCsk0EuziVMDa8_11time_macros18format_description5ErrorENtNtNtB7_3ops9try_trait3Try6branchB1H_, symObjAddr: 0x1350, symBinAddr: 0x2EBC0, symSize: 0x80 }
  - { offset: 0x32197, size: 0x8, addend: 0x0, symName: __RNvXso_NtCs9f3LFPSIp77_4core6resultINtB5_6ResultINtNtB7_6option6OptionNtCsk0EuziVMDa8_11time_macros19VersionOrModuleNameENtNtB18_5error5ErrorENtNtNtB7_3ops9try_trait3Try6branchB18_, symObjAddr: 0x13D0, symBinAddr: 0x2EC40, symSize: 0xB8 }
  - { offset: 0x32214, size: 0x8, addend: 0x0, symName: __RNvXso_NtCs9f3LFPSIp77_4core6resultINtB5_6ResultINtNtB7_6option6OptionNtNtNtCsk0EuziVMDa8_11time_macros18format_description11format_item10PeriodCaseENtB1a_5ErrorENtNtNtB7_3ops9try_trait3Try6branchB1c_, symObjAddr: 0x1488, symBinAddr: 0x2ECF8, symSize: 0x80 }
  - { offset: 0x32291, size: 0x8, addend: 0x0, symName: __RNvXso_NtCs9f3LFPSIp77_4core6resultINtB5_6ResultINtNtB7_6option6OptionNtNtNtCsk0EuziVMDa8_11time_macros18format_description11format_item11WeekdayReprENtB1a_5ErrorENtNtNtB7_3ops9try_trait3Try6branchB1c_, symObjAddr: 0x1508, symBinAddr: 0x2ED78, symSize: 0x80 }
  - { offset: 0x3230E, size: 0x8, addend: 0x0, symName: __RNvXso_NtCs9f3LFPSIp77_4core6resultINtB5_6ResultINtNtB7_6option6OptionNtNtNtCsk0EuziVMDa8_11time_macros18format_description11format_item12SignBehaviorENtB1a_5ErrorENtNtNtB7_3ops9try_trait3Try6branchB1c_, symObjAddr: 0x1588, symBinAddr: 0x2EDF8, symSize: 0x80 }
  - { offset: 0x3238B, size: 0x8, addend: 0x0, symName: __RNvXso_NtCs9f3LFPSIp77_4core6resultINtB5_6ResultINtNtB7_6option6OptionNtNtNtCsk0EuziVMDa8_11time_macros18format_description11format_item14WeekNumberReprENtB1a_5ErrorENtNtNtB7_3ops9try_trait3Try6branchB1c_, symObjAddr: 0x1608, symBinAddr: 0x2EE78, symSize: 0x80 }
  - { offset: 0x32408, size: 0x8, addend: 0x0, symName: __RNvXso_NtCs9f3LFPSIp77_4core6resultINtB5_6ResultINtNtB7_6option6OptionNtNtNtCsk0EuziVMDa8_11time_macros18format_description11format_item15SubsecondDigitsENtB1a_5ErrorENtNtNtB7_3ops9try_trait3Try6branchB1c_, symObjAddr: 0x1688, symBinAddr: 0x2EEF8, symSize: 0x80 }
  - { offset: 0x32485, size: 0x8, addend: 0x0, symName: __RNvXso_NtCs9f3LFPSIp77_4core6resultINtB5_6ResultINtNtB7_6option6OptionNtNtNtCsk0EuziVMDa8_11time_macros18format_description11format_item17WeekdayOneIndexedENtB1a_5ErrorENtNtNtB7_3ops9try_trait3Try6branchB1c_, symObjAddr: 0x1708, symBinAddr: 0x2EF78, symSize: 0x80 }
  - { offset: 0x32502, size: 0x8, addend: 0x0, symName: __RNvXso_NtCs9f3LFPSIp77_4core6resultINtB5_6ResultINtNtB7_6option6OptionNtNtNtCsk0EuziVMDa8_11time_macros18format_description11format_item18MonthCaseSensitiveENtB1a_5ErrorENtNtNtB7_3ops9try_trait3Try6branchB1c_, symObjAddr: 0x1788, symBinAddr: 0x2EFF8, symSize: 0x80 }
  - { offset: 0x3257F, size: 0x8, addend: 0x0, symName: __RNvXso_NtCs9f3LFPSIp77_4core6resultINtB5_6ResultINtNtB7_6option6OptionNtNtNtCsk0EuziVMDa8_11time_macros18format_description11format_item19PeriodCaseSensitiveENtB1a_5ErrorENtNtNtB7_3ops9try_trait3Try6branchB1c_, symObjAddr: 0x1808, symBinAddr: 0x2F078, symSize: 0x80 }
  - { offset: 0x325FC, size: 0x8, addend: 0x0, symName: __RNvXso_NtCs9f3LFPSIp77_4core6resultINtB5_6ResultINtNtB7_6option6OptionNtNtNtCsk0EuziVMDa8_11time_macros18format_description11format_item20WeekdayCaseSensitiveENtB1a_5ErrorENtNtNtB7_3ops9try_trait3Try6branchB1c_, symObjAddr: 0x1888, symBinAddr: 0x2F0F8, symSize: 0x80 }
  - { offset: 0x32679, size: 0x8, addend: 0x0, symName: __RNvXso_NtCs9f3LFPSIp77_4core6resultINtB5_6ResultINtNtB7_6option6OptionNtNtNtCsk0EuziVMDa8_11time_macros18format_description11format_item22UnixTimestampPrecisionENtB1a_5ErrorENtNtNtB7_3ops9try_trait3Try6branchB1c_, symObjAddr: 0x1908, symBinAddr: 0x2F178, symSize: 0x80 }
  - { offset: 0x326F6, size: 0x8, addend: 0x0, symName: __RNvXso_NtCs9f3LFPSIp77_4core6resultINtB5_6ResultINtNtB7_6option6OptionNtNtNtCsk0EuziVMDa8_11time_macros18format_description11format_item7PaddingENtB1a_5ErrorENtNtNtB7_3ops9try_trait3Try6branchB1c_, symObjAddr: 0x1988, symBinAddr: 0x2F1F8, symSize: 0x80 }
  - { offset: 0x32773, size: 0x8, addend: 0x0, symName: __RNvXso_NtCs9f3LFPSIp77_4core6resultINtB5_6ResultINtNtB7_6option6OptionNtNtNtCsk0EuziVMDa8_11time_macros18format_description11format_item8HourBaseENtB1a_5ErrorENtNtNtB7_3ops9try_trait3Try6branchB1c_, symObjAddr: 0x1A08, symBinAddr: 0x2F278, symSize: 0x80 }
  - { offset: 0x327F0, size: 0x8, addend: 0x0, symName: __RNvXso_NtCs9f3LFPSIp77_4core6resultINtB5_6ResultINtNtB7_6option6OptionNtNtNtCsk0EuziVMDa8_11time_macros18format_description11format_item8YearBaseENtB1a_5ErrorENtNtNtB7_3ops9try_trait3Try6branchB1c_, symObjAddr: 0x1A88, symBinAddr: 0x2F2F8, symSize: 0x80 }
  - { offset: 0x3286D, size: 0x8, addend: 0x0, symName: __RNvXso_NtCs9f3LFPSIp77_4core6resultINtB5_6ResultINtNtB7_6option6OptionNtNtNtCsk0EuziVMDa8_11time_macros18format_description11format_item8YearReprENtB1a_5ErrorENtNtNtB7_3ops9try_trait3Try6branchB1c_, symObjAddr: 0x1B08, symBinAddr: 0x2F378, symSize: 0x80 }
  - { offset: 0x328EA, size: 0x8, addend: 0x0, symName: __RNvXso_NtCs9f3LFPSIp77_4core6resultINtB5_6ResultINtNtB7_6option6OptionNtNtNtCsk0EuziVMDa8_11time_macros18format_description11format_item9MonthReprENtB1a_5ErrorENtNtNtB7_3ops9try_trait3Try6branchB1c_, symObjAddr: 0x1B88, symBinAddr: 0x2F3F8, symSize: 0x80 }
  - { offset: 0x32967, size: 0x8, addend: 0x0, symName: __RNvXso_NtCs9f3LFPSIp77_4core6resultINtB5_6ResultINtNtCsdze8u8oDPro_5alloc3vec3VecNtNtNtCsk0EuziVMDa8_11time_macros18format_description6public15OwnedFormatItemENtB1l_5ErrorENtNtNtB7_3ops9try_trait3Try11from_outputB1n_, symObjAddr: 0x1C08, symBinAddr: 0x2F478, symSize: 0x18 }
  - { offset: 0x329A7, size: 0x8, addend: 0x0, symName: __RNvXso_NtCs9f3LFPSIp77_4core6resultINtB5_6ResultINtNtCsdze8u8oDPro_5alloc3vec3VecNtNtNtCsk0EuziVMDa8_11time_macros18format_description6public15OwnedFormatItemENtB1l_5ErrorENtNtNtB7_3ops9try_trait3Try6branchB1n_, symObjAddr: 0x1C20, symBinAddr: 0x2F490, symSize: 0x94 }
  - { offset: 0x32A24, size: 0x8, addend: 0x0, symName: __RNvXso_NtCs9f3LFPSIp77_4core6resultINtB5_6ResultINtNtCsdze8u8oDPro_5alloc3vec3VecNtNtNtCsk0EuziVMDa8_11time_macros18format_description6public15OwnedFormatItemENtNtB1n_5error5ErrorENtNtNtB7_3ops9try_trait3Try6branchB1n_, symObjAddr: 0x1CB4, symBinAddr: 0x2F524, symSize: 0xB8 }
  - { offset: 0x32AA2, size: 0x8, addend: 0x0, symName: __RNvXso_NtCs9f3LFPSIp77_4core6resultINtB5_6ResultINtNtCsdze8u8oDPro_5alloc5boxed3BoxSIBL_SNtNtNtCsk0EuziVMDa8_11time_macros18format_description11format_item4ItemEENtB1t_5ErrorENtNtNtB7_3ops9try_trait3Try11from_outputB1v_, symObjAddr: 0x1D6C, symBinAddr: 0x2F5DC, symSize: 0x24 }
  - { offset: 0x32AE2, size: 0x8, addend: 0x0, symName: __RNvXso_NtCs9f3LFPSIp77_4core6resultINtB5_6ResultINtNtCsdze8u8oDPro_5alloc5boxed3BoxSIBL_SNtNtNtCsk0EuziVMDa8_11time_macros18format_description11format_item4ItemEENtB1t_5ErrorENtNtNtB7_3ops9try_trait3Try6branchB1v_, symObjAddr: 0x1D90, symBinAddr: 0x2F600, symSize: 0x8C }
  - { offset: 0x32B60, size: 0x8, addend: 0x0, symName: __RNvXso_NtCs9f3LFPSIp77_4core6resultINtB5_6ResultINtNtCsdze8u8oDPro_5alloc5boxed3BoxSNtNtNtCsk0EuziVMDa8_11time_macros18format_description11format_item4ItemENtB1o_5ErrorENtNtNtB7_3ops9try_trait3Try11from_outputB1q_, symObjAddr: 0x1E1C, symBinAddr: 0x2F68C, symSize: 0x24 }
  - { offset: 0x32BA0, size: 0x8, addend: 0x0, symName: __RNvXso_NtCs9f3LFPSIp77_4core6resultINtB5_6ResultINtNtCsdze8u8oDPro_5alloc5boxed3BoxSNtNtNtCsk0EuziVMDa8_11time_macros18format_description11format_item4ItemENtB1o_5ErrorENtNtNtB7_3ops9try_trait3Try6branchB1q_, symObjAddr: 0x1E40, symBinAddr: 0x2F6B0, symSize: 0x8C }
  - { offset: 0x32C1E, size: 0x8, addend: 0x0, symName: __RNvXso_NtCs9f3LFPSIp77_4core6resultINtB5_6ResultINtNtCsdze8u8oDPro_5alloc5boxed3BoxSNtNtNtCsk0EuziVMDa8_11time_macros18format_description3ast4ItemENtB1o_5ErrorENtNtNtB7_3ops9try_trait3Try11from_outputB1q_, symObjAddr: 0x1ECC, symBinAddr: 0x2F73C, symSize: 0x24 }
  - { offset: 0x32C5E, size: 0x8, addend: 0x0, symName: __RNvXso_NtCs9f3LFPSIp77_4core6resultINtB5_6ResultINtNtCsdze8u8oDPro_5alloc5boxed3BoxSNtNtNtCsk0EuziVMDa8_11time_macros18format_description3ast4ItemENtB1o_5ErrorENtNtNtB7_3ops9try_trait3Try6branchB1q_, symObjAddr: 0x1EF0, symBinAddr: 0x2F760, symSize: 0x8C }
  - { offset: 0x32CDC, size: 0x8, addend: 0x0, symName: __RNvXso_NtCs9f3LFPSIp77_4core6resultINtB5_6ResultINtNtNtCsdze8u8oDPro_5alloc3vec13in_place_drop11InPlaceDropINtNtBR_5boxed3BoxSNtNtNtCsk0EuziVMDa8_11time_macros18format_description11format_item4ItemEEzENtNtNtB7_3ops9try_trait3Try11from_outputB26_, symObjAddr: 0x1F7C, symBinAddr: 0x2F7EC, symSize: 0x2C }
  - { offset: 0x32D1C, size: 0x8, addend: 0x0, symName: __RNvXso_NtCs9f3LFPSIp77_4core6resultINtB5_6ResultINtNtNtCsdze8u8oDPro_5alloc3vec13in_place_drop11InPlaceDropINtNtBR_5boxed3BoxSNtNtNtCsk0EuziVMDa8_11time_macros18format_description11format_item4ItemEEzENtNtNtB7_3ops9try_trait3Try6branchB26_, symObjAddr: 0x1FA8, symBinAddr: 0x2F818, symSize: 0x3C }
  - { offset: 0x32D7A, size: 0x8, addend: 0x0, symName: __RNvXso_NtCs9f3LFPSIp77_4core6resultINtB5_6ResultINtNtNtCsdze8u8oDPro_5alloc3vec13in_place_drop11InPlaceDropNtNtNtCsk0EuziVMDa8_11time_macros18format_description11format_item4ItemEzENtNtNtB7_3ops9try_trait3Try11from_outputB1N_, symObjAddr: 0x1FE4, symBinAddr: 0x2F854, symSize: 0x2C }
  - { offset: 0x32DBA, size: 0x8, addend: 0x0, symName: __RNvXso_NtCs9f3LFPSIp77_4core6resultINtB5_6ResultINtNtNtCsdze8u8oDPro_5alloc3vec13in_place_drop11InPlaceDropNtNtNtCsk0EuziVMDa8_11time_macros18format_description11format_item4ItemEzENtNtNtB7_3ops9try_trait3Try6branchB1N_, symObjAddr: 0x2010, symBinAddr: 0x2F880, symSize: 0x3C }
  - { offset: 0x32E18, size: 0x8, addend: 0x0, symName: __RNvXso_NtCs9f3LFPSIp77_4core6resultINtB5_6ResultINtNtNtCsdze8u8oDPro_5alloc3vec13in_place_drop11InPlaceDropNtNtNtCsk0EuziVMDa8_11time_macros18format_description6public15OwnedFormatItemEzENtNtNtB7_3ops9try_trait3Try11from_outputB1N_, symObjAddr: 0x204C, symBinAddr: 0x2F8BC, symSize: 0x2C }
  - { offset: 0x32E58, size: 0x8, addend: 0x0, symName: __RNvXso_NtCs9f3LFPSIp77_4core6resultINtB5_6ResultINtNtNtCsdze8u8oDPro_5alloc3vec13in_place_drop11InPlaceDropNtNtNtCsk0EuziVMDa8_11time_macros18format_description6public15OwnedFormatItemEzENtNtNtB7_3ops9try_trait3Try6branchB1N_, symObjAddr: 0x2078, symBinAddr: 0x2F8E8, symSize: 0x3C }
  - { offset: 0x32EB6, size: 0x8, addend: 0x0, symName: __RNvXso_NtCs9f3LFPSIp77_4core6resultINtB5_6ResultNtCsjLJ1XWNSM6u_10proc_macro4SpanNtNtCsk0EuziVMDa8_11time_macros5error5ErrorENtNtNtB7_3ops9try_trait3Try6branchB1l_, symObjAddr: 0x20B4, symBinAddr: 0x2F924, symSize: 0xA4 }
  - { offset: 0x32F32, size: 0x8, addend: 0x0, symName: __RNvXso_NtCs9f3LFPSIp77_4core6resultINtB5_6ResultNtNtCsk0EuziVMDa8_11time_macros4date4DateNtNtBO_5error5ErrorENtNtNtB7_3ops9try_trait3Try6branchBO_, symObjAddr: 0x2158, symBinAddr: 0x2F9C8, symSize: 0xB0 }
  - { offset: 0x32FAE, size: 0x8, addend: 0x0, symName: __RNvXso_NtCs9f3LFPSIp77_4core6resultINtB5_6ResultNtNtCsk0EuziVMDa8_11time_macros4time4TimeNtNtBO_5error5ErrorENtNtNtB7_3ops9try_trait3Try6branchBO_, symObjAddr: 0x2208, symBinAddr: 0x2FA78, symSize: 0xA8 }
  - { offset: 0x3302A, size: 0x8, addend: 0x0, symName: __RNvXso_NtCs9f3LFPSIp77_4core6resultINtB5_6ResultNtNtNtCsk0EuziVMDa8_11time_macros18format_description11format_item10OffsetHourNtBO_5ErrorENtNtNtB7_3ops9try_trait3Try6branchBQ_, symObjAddr: 0x22B0, symBinAddr: 0x2FB20, symSize: 0x8C }
  - { offset: 0x330A7, size: 0x8, addend: 0x0, symName: __RNvXso_NtCs9f3LFPSIp77_4core6resultINtB5_6ResultNtNtNtCsk0EuziVMDa8_11time_macros18format_description11format_item10WeekNumberNtBO_5ErrorENtNtNtB7_3ops9try_trait3Try6branchBQ_, symObjAddr: 0x233C, symBinAddr: 0x2FBAC, symSize: 0x8C }
  - { offset: 0x33124, size: 0x8, addend: 0x0, symName: __RNvXso_NtCs9f3LFPSIp77_4core6resultINtB5_6ResultNtNtNtCsk0EuziVMDa8_11time_macros18format_description11format_item12OffsetMinuteNtBO_5ErrorENtNtNtB7_3ops9try_trait3Try6branchBQ_, symObjAddr: 0x23C8, symBinAddr: 0x2FC38, symSize: 0x80 }
  - { offset: 0x331A1, size: 0x8, addend: 0x0, symName: __RNvXso_NtCs9f3LFPSIp77_4core6resultINtB5_6ResultNtNtNtCsk0EuziVMDa8_11time_macros18format_description11format_item12OffsetSecondNtBO_5ErrorENtNtNtB7_3ops9try_trait3Try6branchBQ_, symObjAddr: 0x2448, symBinAddr: 0x2FCB8, symSize: 0x80 }
  - { offset: 0x3321E, size: 0x8, addend: 0x0, symName: __RNvXso_NtCs9f3LFPSIp77_4core6resultINtB5_6ResultNtNtNtCsk0EuziVMDa8_11time_macros18format_description11format_item13UnixTimestampNtBO_5ErrorENtNtNtB7_3ops9try_trait3Try6branchBQ_, symObjAddr: 0x24C8, symBinAddr: 0x2FD38, symSize: 0x8C }
  - { offset: 0x3329B, size: 0x8, addend: 0x0, symName: __RNvXso_NtCs9f3LFPSIp77_4core6resultINtB5_6ResultNtNtNtCsk0EuziVMDa8_11time_macros18format_description11format_item3DayNtBO_5ErrorENtNtNtB7_3ops9try_trait3Try6branchBQ_, symObjAddr: 0x2554, symBinAddr: 0x2FDC4, symSize: 0x80 }
  - { offset: 0x33318, size: 0x8, addend: 0x0, symName: __RNvXso_NtCs9f3LFPSIp77_4core6resultINtB5_6ResultNtNtNtCsk0EuziVMDa8_11time_macros18format_description11format_item3EndNtBO_5ErrorENtNtNtB7_3ops9try_trait3Try6branchBQ_, symObjAddr: 0x25D4, symBinAddr: 0x2FE44, symSize: 0x70 }
  - { offset: 0x33395, size: 0x8, addend: 0x0, symName: __RNvXso_NtCs9f3LFPSIp77_4core6resultINtB5_6ResultNtNtNtCsk0EuziVMDa8_11time_macros18format_description11format_item4HourNtBO_5ErrorENtNtNtB7_3ops9try_trait3Try6branchBQ_, symObjAddr: 0x2644, symBinAddr: 0x2FEB4, symSize: 0x8C }
  - { offset: 0x33412, size: 0x8, addend: 0x0, symName: __RNvXso_NtCs9f3LFPSIp77_4core6resultINtB5_6ResultNtNtNtCsk0EuziVMDa8_11time_macros18format_description11format_item4ItemNtBO_5ErrorENtNtNtB7_3ops9try_trait3Try6branchBQ_, symObjAddr: 0x26D0, symBinAddr: 0x2FF40, symSize: 0x94 }
  - { offset: 0x3348F, size: 0x8, addend: 0x0, symName: __RNvXso_NtCs9f3LFPSIp77_4core6resultINtB5_6ResultNtNtNtCsk0EuziVMDa8_11time_macros18format_description11format_item4YearNtBO_5ErrorENtNtNtB7_3ops9try_trait3Try6branchBQ_, symObjAddr: 0x2764, symBinAddr: 0x2FFD4, symSize: 0x84 }
  - { offset: 0x3350B, size: 0x8, addend: 0x0, symName: __RNvXso_NtCs9f3LFPSIp77_4core6resultINtB5_6ResultNtNtNtCsk0EuziVMDa8_11time_macros18format_description11format_item5MonthNtBO_5ErrorENtNtNtB7_3ops9try_trait3Try6branchBQ_, symObjAddr: 0x27E8, symBinAddr: 0x30058, symSize: 0x94 }
  - { offset: 0x33587, size: 0x8, addend: 0x0, symName: __RNvXso_NtCs9f3LFPSIp77_4core6resultINtB5_6ResultNtNtNtCsk0EuziVMDa8_11time_macros18format_description11format_item6IgnoreNtBO_5ErrorENtNtNtB7_3ops9try_trait3Try6branchBQ_, symObjAddr: 0x287C, symBinAddr: 0x300EC, symSize: 0x80 }
  - { offset: 0x33604, size: 0x8, addend: 0x0, symName: __RNvXso_NtCs9f3LFPSIp77_4core6resultINtB5_6ResultNtNtNtCsk0EuziVMDa8_11time_macros18format_description11format_item6MinuteNtBO_5ErrorENtNtNtB7_3ops9try_trait3Try6branchBQ_, symObjAddr: 0x28FC, symBinAddr: 0x3016C, symSize: 0x80 }
  - { offset: 0x33681, size: 0x8, addend: 0x0, symName: __RNvXso_NtCs9f3LFPSIp77_4core6resultINtB5_6ResultNtNtNtCsk0EuziVMDa8_11time_macros18format_description11format_item6PeriodNtBO_5ErrorENtNtNtB7_3ops9try_trait3Try6branchBQ_, symObjAddr: 0x297C, symBinAddr: 0x301EC, symSize: 0x8C }
  - { offset: 0x336FE, size: 0x8, addend: 0x0, symName: __RNvXso_NtCs9f3LFPSIp77_4core6resultINtB5_6ResultNtNtNtCsk0EuziVMDa8_11time_macros18format_description11format_item6SecondNtBO_5ErrorENtNtNtB7_3ops9try_trait3Try6branchBQ_, symObjAddr: 0x2A08, symBinAddr: 0x30278, symSize: 0x80 }
  - { offset: 0x3377B, size: 0x8, addend: 0x0, symName: __RNvXso_NtCs9f3LFPSIp77_4core6resultINtB5_6ResultNtNtNtCsk0EuziVMDa8_11time_macros18format_description11format_item7OrdinalNtBO_5ErrorENtNtNtB7_3ops9try_trait3Try6branchBQ_, symObjAddr: 0x2A88, symBinAddr: 0x302F8, symSize: 0x80 }
  - { offset: 0x337F8, size: 0x8, addend: 0x0, symName: __RNvXso_NtCs9f3LFPSIp77_4core6resultINtB5_6ResultNtNtNtCsk0EuziVMDa8_11time_macros18format_description11format_item7WeekdayNtBO_5ErrorENtNtNtB7_3ops9try_trait3Try6branchBQ_, symObjAddr: 0x2B08, symBinAddr: 0x30378, symSize: 0x94 }
  - { offset: 0x33874, size: 0x8, addend: 0x0, symName: __RNvXso_NtCs9f3LFPSIp77_4core6resultINtB5_6ResultNtNtNtCsk0EuziVMDa8_11time_macros18format_description11format_item9ComponentNtBO_5ErrorENtNtNtB7_3ops9try_trait3Try6branchBQ_, symObjAddr: 0x2B9C, symBinAddr: 0x3040C, symSize: 0x84 }
  - { offset: 0x338F0, size: 0x8, addend: 0x0, symName: __RNvXso_NtCs9f3LFPSIp77_4core6resultINtB5_6ResultNtNtNtCsk0EuziVMDa8_11time_macros18format_description11format_item9SubsecondNtBO_5ErrorENtNtNtB7_3ops9try_trait3Try6branchBQ_, symObjAddr: 0x2C20, symBinAddr: 0x30490, symSize: 0x80 }
  - { offset: 0x3396D, size: 0x8, addend: 0x0, symName: __RNvXso_NtCs9f3LFPSIp77_4core6resultINtB5_6ResultNtNtNtCsk0EuziVMDa8_11time_macros18format_description3ast23NestedFormatDescriptionNtBO_5ErrorENtNtNtB7_3ops9try_trait3Try6branchBQ_, symObjAddr: 0x2CA0, symBinAddr: 0x30510, symSize: 0x8C }
  - { offset: 0x339EB, size: 0x8, addend: 0x0, symName: __RNvXso_NtCs9f3LFPSIp77_4core6resultINtB5_6ResultNtNtNtCsk0EuziVMDa8_11time_macros18format_description3ast4ItemNtBO_5ErrorENtNtNtB7_3ops9try_trait3Try6branchBQ_, symObjAddr: 0x2D2C, symBinAddr: 0x3059C, symSize: 0xAC }
  - { offset: 0x33A68, size: 0x8, addend: 0x0, symName: __RNvXso_NtCs9f3LFPSIp77_4core6resultINtB5_6ResultNtNtNtCsk0EuziVMDa8_11time_macros18format_description6public15OwnedFormatItemNtBO_5ErrorENtNtNtB7_3ops9try_trait3Try6branchBQ_, symObjAddr: 0x2DD8, symBinAddr: 0x30648, symSize: 0x94 }
  - { offset: 0x33AE5, size: 0x8, addend: 0x0, symName: __RNvXso_NtCs9f3LFPSIp77_4core6resultINtB5_6ResultTNtCsjLJ1XWNSM6u_10proc_macro4SpanINtNtCsdze8u8oDPro_5alloc3vec3VechEENtNtCsk0EuziVMDa8_11time_macros5error5ErrorENtNtNtB7_3ops9try_trait3Try6branchB1W_, symObjAddr: 0x2E6C, symBinAddr: 0x306DC, symSize: 0xB8 }
  - { offset: 0x33B63, size: 0x8, addend: 0x0, symName: __RNvXso_NtCs9f3LFPSIp77_4core6resultINtB5_6ResultTNtCsjLJ1XWNSM6u_10proc_macro4SpanaENtNtCsk0EuziVMDa8_11time_macros5error5ErrorENtNtNtB7_3ops9try_trait3Try6branchB1o_, symObjAddr: 0x2F24, symBinAddr: 0x30794, symSize: 0xB0 }
  - { offset: 0x33BDF, size: 0x8, addend: 0x0, symName: __RNvXso_NtCs9f3LFPSIp77_4core6resultINtB5_6ResultTNtCsjLJ1XWNSM6u_10proc_macro4SpandENtNtCsk0EuziVMDa8_11time_macros5error5ErrorENtNtNtB7_3ops9try_trait3Try6branchB1o_, symObjAddr: 0x2FD4, symBinAddr: 0x30844, symSize: 0xB0 }
  - { offset: 0x33C5C, size: 0x8, addend: 0x0, symName: __RNvXso_NtCs9f3LFPSIp77_4core6resultINtB5_6ResultTNtCsjLJ1XWNSM6u_10proc_macro4SpanhENtNtCsk0EuziVMDa8_11time_macros5error5ErrorENtNtNtB7_3ops9try_trait3Try6branchB1o_, symObjAddr: 0x3084, symBinAddr: 0x308F4, symSize: 0xB0 }
  - { offset: 0x33CD8, size: 0x8, addend: 0x0, symName: __RNvXso_NtCs9f3LFPSIp77_4core6resultINtB5_6ResultTNtCsjLJ1XWNSM6u_10proc_macro4SpanlENtNtCsk0EuziVMDa8_11time_macros5error5ErrorENtNtNtB7_3ops9try_trait3Try6branchB1o_, symObjAddr: 0x3134, symBinAddr: 0x309A4, symSize: 0xB0 }
  - { offset: 0x33D54, size: 0x8, addend: 0x0, symName: __RNvXso_NtCs9f3LFPSIp77_4core6resultINtB5_6ResultTNtCsjLJ1XWNSM6u_10proc_macro4SpantENtNtCsk0EuziVMDa8_11time_macros5error5ErrorENtNtNtB7_3ops9try_trait3Try6branchB1o_, symObjAddr: 0x31E4, symBinAddr: 0x30A54, symSize: 0xB0 }
  - { offset: 0x33DD6, size: 0x8, addend: 0x0, symName: __RINvXsn_NtCs9f3LFPSIp77_4core6resultINtB6_6ResultINtNtCsdze8u8oDPro_5alloc3vec3VecNtNtNtCsk0EuziVMDa8_11time_macros18format_description6public15OwnedFormatItemENtB1m_5ErrorEINtNtNtNtB8_4iter6traits7collect12FromIteratorIBz_B1i_B2y_EE9from_iterINtNtNtB2S_8adapters3map3MapIB3U_INtNtNtB2S_7sources7from_fn6FromFnNCINvNtB1m_3ast11parse_innerIB4r_NCINvNtB1m_5lexer3lexKh1_E0EKb0_KB5R_E0ENCINvNtB1m_11format_item5parseB4q_E0ENCINvB1m_5parseKB5R_E0EEB1o_, symObjAddr: 0x2D0, symBinAddr: 0x2DB40, symSize: 0x30 }
  - { offset: 0x33E28, size: 0x8, addend: 0x0, symName: __RINvXsn_NtCs9f3LFPSIp77_4core6resultINtB6_6ResultINtNtCsdze8u8oDPro_5alloc3vec3VecNtNtNtCsk0EuziVMDa8_11time_macros18format_description6public15OwnedFormatItemENtB1m_5ErrorEINtNtNtNtB8_4iter6traits7collect12FromIteratorIBz_B1i_B2y_EE9from_iterINtNtNtB2S_8adapters3map3MapIB3U_INtNtNtB2S_7sources7from_fn6FromFnNCINvNtB1m_3ast11parse_innerIB4r_NCINvNtB1m_5lexer3lexKh2_E0EKb0_KB5R_E0ENCINvNtB1m_11format_item5parseB4q_E0ENCINvB1m_5parseKB5R_E0EEB1o_, symObjAddr: 0x300, symBinAddr: 0x2DB70, symSize: 0x30 }
  - { offset: 0x33E7A, size: 0x8, addend: 0x0, symName: __RINvXsn_NtCs9f3LFPSIp77_4core6resultINtB6_6ResultINtNtCsdze8u8oDPro_5alloc5boxed3BoxSIBM_SNtNtNtCsk0EuziVMDa8_11time_macros18format_description11format_item4ItemEENtB1u_5ErrorEINtNtNtNtB8_4iter6traits7collect12FromIteratorIBz_B1l_B2B_EE9from_iterINtNtNtB2V_8adapters3map3MapINtNtNtBQ_3vec9into_iter8IntoIterNtNtB1u_3ast23NestedFormatDescriptionENCNvMB1s_B1q_8from_ast0EEB1w_, symObjAddr: 0x330, symBinAddr: 0x2DBA0, symSize: 0x34 }
  - { offset: 0x33ECD, size: 0x8, addend: 0x0, symName: __RINvXsn_NtCs9f3LFPSIp77_4core6resultINtB6_6ResultINtNtCsdze8u8oDPro_5alloc5boxed3BoxSNtNtNtCsk0EuziVMDa8_11time_macros18format_description11format_item4ItemENtB1p_5ErrorEINtNtNtNtB8_4iter6traits7collect12FromIteratorIBz_B1l_B2v_EE9from_iterINtNtNtB2P_8adapters3map3MapINtNtNtBQ_3vec9into_iter8IntoIterNtNtB1p_3ast4ItemENvMB1n_B1l_8from_astEEB1r_, symObjAddr: 0x364, symBinAddr: 0x2DBD4, symSize: 0x34 }
  - { offset: 0x33F20, size: 0x8, addend: 0x0, symName: __RINvXsn_NtCs9f3LFPSIp77_4core6resultINtB6_6ResultINtNtCsdze8u8oDPro_5alloc5boxed3BoxSNtNtNtCsk0EuziVMDa8_11time_macros18format_description3ast4ItemENtB1p_5ErrorEINtNtNtNtB8_4iter6traits7collect12FromIteratorIBz_B1l_B2m_EE9from_iterINtNtNtB2G_7sources7from_fn6FromFnNCINvB1n_11parse_innerIB3I_NCINvNtB1p_5lexer3lexKh1_E0EKb1_KB52_E0EEB1r_, symObjAddr: 0x398, symBinAddr: 0x2DC08, symSize: 0x30 }
  - { offset: 0x33F72, size: 0x8, addend: 0x0, symName: __RINvXsn_NtCs9f3LFPSIp77_4core6resultINtB6_6ResultINtNtCsdze8u8oDPro_5alloc5boxed3BoxSNtNtNtCsk0EuziVMDa8_11time_macros18format_description3ast4ItemENtB1p_5ErrorEINtNtNtNtB8_4iter6traits7collect12FromIteratorIBz_B1l_B2m_EE9from_iterINtNtNtB2G_7sources7from_fn6FromFnNCINvB1n_11parse_innerIB3I_NCINvNtB1p_5lexer3lexKh2_E0EKb1_KB52_E0EEB1r_, symObjAddr: 0x3C8, symBinAddr: 0x2DC38, symSize: 0x30 }
  - { offset: 0x33FC9, size: 0x8, addend: 0x0, symName: __RNCINvXsn_NtCs9f3LFPSIp77_4core6resultINtB8_6ResultINtNtCsdze8u8oDPro_5alloc3vec3VecNtNtNtCsk0EuziVMDa8_11time_macros18format_description6public15OwnedFormatItemENtB1o_5ErrorEINtNtNtNtBa_4iter6traits7collect12FromIteratorIBB_B1k_B2A_EE9from_iterINtNtNtB2U_8adapters3map3MapIB3W_INtNtNtB2U_7sources7from_fn6FromFnNCINvNtB1o_3ast11parse_innerIB4t_NCINvNtB1o_5lexer3lexKh1_E0EKb0_KB5T_E0ENCINvNtB1o_11format_item5parseB4s_E0ENCINvB1o_5parseKB5T_E0EE0B1q_, symObjAddr: 0x3F8, symBinAddr: 0x2DC68, symSize: 0x3C }
  - { offset: 0x34044, size: 0x8, addend: 0x0, symName: __RNCINvXsn_NtCs9f3LFPSIp77_4core6resultINtB8_6ResultINtNtCsdze8u8oDPro_5alloc3vec3VecNtNtNtCsk0EuziVMDa8_11time_macros18format_description6public15OwnedFormatItemENtB1o_5ErrorEINtNtNtNtBa_4iter6traits7collect12FromIteratorIBB_B1k_B2A_EE9from_iterINtNtNtB2U_8adapters3map3MapIB3W_INtNtNtB2U_7sources7from_fn6FromFnNCINvNtB1o_3ast11parse_innerIB4t_NCINvNtB1o_5lexer3lexKh2_E0EKb0_KB5T_E0ENCINvNtB1o_11format_item5parseB4s_E0ENCINvB1o_5parseKB5T_E0EE0B1q_, symObjAddr: 0x434, symBinAddr: 0x2DCA4, symSize: 0x3C }
  - { offset: 0x340BF, size: 0x8, addend: 0x0, symName: __RNCINvXsn_NtCs9f3LFPSIp77_4core6resultINtB8_6ResultINtNtCsdze8u8oDPro_5alloc5boxed3BoxSIBO_SNtNtNtCsk0EuziVMDa8_11time_macros18format_description11format_item4ItemEENtB1w_5ErrorEINtNtNtNtBa_4iter6traits7collect12FromIteratorIBB_B1n_B2D_EE9from_iterINtNtNtB2X_8adapters3map3MapINtNtNtBS_3vec9into_iter8IntoIterNtNtB1w_3ast23NestedFormatDescriptionENCNvMB1u_B1s_8from_ast0EE0B1y_, symObjAddr: 0x470, symBinAddr: 0x2DCE0, symSize: 0x28 }
  - { offset: 0x3413B, size: 0x8, addend: 0x0, symName: __RNCINvXsn_NtCs9f3LFPSIp77_4core6resultINtB8_6ResultINtNtCsdze8u8oDPro_5alloc5boxed3BoxSNtNtNtCsk0EuziVMDa8_11time_macros18format_description11format_item4ItemENtB1r_5ErrorEINtNtNtNtBa_4iter6traits7collect12FromIteratorIBB_B1n_B2x_EE9from_iterINtNtNtB2R_8adapters3map3MapINtNtNtBS_3vec9into_iter8IntoIterNtNtB1r_3ast4ItemENvMB1p_B1n_8from_astEE0B1t_, symObjAddr: 0x498, symBinAddr: 0x2DD08, symSize: 0x28 }
  - { offset: 0x341B7, size: 0x8, addend: 0x0, symName: __RNCINvXsn_NtCs9f3LFPSIp77_4core6resultINtB8_6ResultINtNtCsdze8u8oDPro_5alloc5boxed3BoxSNtNtNtCsk0EuziVMDa8_11time_macros18format_description3ast4ItemENtB1r_5ErrorEINtNtNtNtBa_4iter6traits7collect12FromIteratorIBB_B1n_B2o_EE9from_iterINtNtNtB2I_7sources7from_fn6FromFnNCINvB1p_11parse_innerIB3K_NCINvNtB1r_5lexer3lexKh1_E0EKb1_KB54_E0EE0B1t_, symObjAddr: 0x4C0, symBinAddr: 0x2DD30, symSize: 0x3C }
  - { offset: 0x34232, size: 0x8, addend: 0x0, symName: __RNCINvXsn_NtCs9f3LFPSIp77_4core6resultINtB8_6ResultINtNtCsdze8u8oDPro_5alloc5boxed3BoxSNtNtNtCsk0EuziVMDa8_11time_macros18format_description3ast4ItemENtB1r_5ErrorEINtNtNtNtBa_4iter6traits7collect12FromIteratorIBB_B1n_B2o_EE9from_iterINtNtNtB2I_7sources7from_fn6FromFnNCINvB1p_11parse_innerIB3K_NCINvNtB1r_5lexer3lexKh2_E0EKb1_KB54_E0EE0B1t_, symObjAddr: 0x4FC, symBinAddr: 0x2DD6C, symSize: 0x3C }
  - { offset: 0x37545, size: 0x8, addend: 0x0, symName: __RNvXsn_NtNtCs9f3LFPSIp77_4core5panic11unwind_safeINtB5_16AssertUnwindSafeNCINvNtNtCsjLJ1XWNSM6u_10proc_macro6bridge6client10run_clientNtB1e_11TokenStreamINtNtB9_6option6OptionB28_ENCNCINvMs7_B1e_INtB1e_6ClientNtB1i_11TokenStreamB3l_E7expand1NvCsk0EuziVMDa8_11time_macros18format_descriptionE00E0EINtNtNtB9_3ops8function6FnOnceuE9call_onceB3T_, symObjAddr: 0x1238, symBinAddr: 0x2EAA8, symSize: 0x38 }
  - { offset: 0x3759C, size: 0x8, addend: 0x0, symName: __RNvXsn_NtNtCs9f3LFPSIp77_4core5panic11unwind_safeINtB5_16AssertUnwindSafeNCINvNtNtCsjLJ1XWNSM6u_10proc_macro6bridge6client10run_clientNtB1e_11TokenStreamINtNtB9_6option6OptionB28_ENCNCINvMs7_B1e_INtB1e_6ClientNtB1i_11TokenStreamB3l_E7expand1NvCsk0EuziVMDa8_11time_macros4dateE00E0EINtNtNtB9_3ops8function6FnOnceuE9call_onceB3T_, symObjAddr: 0x1270, symBinAddr: 0x2EAE0, symSize: 0x38 }
  - { offset: 0x375F3, size: 0x8, addend: 0x0, symName: __RNvXsn_NtNtCs9f3LFPSIp77_4core5panic11unwind_safeINtB5_16AssertUnwindSafeNCINvNtNtCsjLJ1XWNSM6u_10proc_macro6bridge6client10run_clientNtB1e_11TokenStreamINtNtB9_6option6OptionB28_ENCNCINvMs7_B1e_INtB1e_6ClientNtB1i_11TokenStreamB3l_E7expand1NvCsk0EuziVMDa8_11time_macros4timeE00E0EINtNtNtB9_3ops8function6FnOnceuE9call_onceB3T_, symObjAddr: 0x12A8, symBinAddr: 0x2EB18, symSize: 0x38 }
  - { offset: 0x3764A, size: 0x8, addend: 0x0, symName: __RNvXsn_NtNtCs9f3LFPSIp77_4core5panic11unwind_safeINtB5_16AssertUnwindSafeNCINvNtNtCsjLJ1XWNSM6u_10proc_macro6bridge6client10run_clientNtB1e_11TokenStreamINtNtB9_6option6OptionB28_ENCNCINvMs7_B1e_INtB1e_6ClientNtB1i_11TokenStreamB3l_E7expand1NvCsk0EuziVMDa8_11time_macros6offsetE00E0EINtNtNtB9_3ops8function6FnOnceuE9call_onceB3T_, symObjAddr: 0x12E0, symBinAddr: 0x2EB50, symSize: 0x38 }
  - { offset: 0x376A1, size: 0x8, addend: 0x0, symName: __RNvXsn_NtNtCs9f3LFPSIp77_4core5panic11unwind_safeINtB5_16AssertUnwindSafeNCINvNtNtCsjLJ1XWNSM6u_10proc_macro6bridge6client10run_clientNtB1e_11TokenStreamINtNtB9_6option6OptionB28_ENCNCINvMs7_B1e_INtB1e_6ClientNtB1i_11TokenStreamB3l_E7expand1NvCsk0EuziVMDa8_11time_macros8datetimeE00E0EINtNtNtB9_3ops8function6FnOnceuE9call_onceB3T_, symObjAddr: 0x1318, symBinAddr: 0x2EB88, symSize: 0x38 }
  - { offset: 0x39BB2, size: 0x8, addend: 0x0, symName: __RNvMNtNtCs9f3LFPSIp77_4core4char7methodsc13is_whitespaceCsk0EuziVMDa8_11time_macros, symObjAddr: 0x7F8, symBinAddr: 0x2E068, symSize: 0x90 }
  - { offset: 0x39BF5, size: 0x8, addend: 0x0, symName: __RNvMNtNtCs9f3LFPSIp77_4core4char7methodsc8from_u32Csk0EuziVMDa8_11time_macros, symObjAddr: 0x888, symBinAddr: 0x2E0F8, symSize: 0x20 }
  - { offset: 0x39C21, size: 0x8, addend: 0x0, symName: __RNvMNtNtCs9f3LFPSIp77_4core4char7methodsc8len_utf8Csk0EuziVMDa8_11time_macros, symObjAddr: 0x8A8, symBinAddr: 0x2E118, symSize: 0x20 }
  - { offset: 0x39C6E, size: 0x8, addend: 0x0, symName: __RNvNtNtCs9f3LFPSIp77_4core4char7methods15encode_utf8_rawCsk0EuziVMDa8_11time_macros, symObjAddr: 0x8C8, symBinAddr: 0x2E138, symSize: 0x21C }
  - { offset: 0x39DEF, size: 0x8, addend: 0x0, symName: __RNvNtNtCs9f3LFPSIp77_4core4char7methods8len_utf8Csk0EuziVMDa8_11time_macros, symObjAddr: 0xAE4, symBinAddr: 0x2E354, symSize: 0x74 }
  - { offset: 0x3A2AA, size: 0x8, addend: 0x0, symName: __RNvXs10_NtCsjLJ1XWNSM6u_10proc_macro6bridgeINtB6_9DelimSpanNtNtB6_6client4SpanENtNtCs9f3LFPSIp77_4core5clone5Clone5cloneCsk0EuziVMDa8_11time_macros, symObjAddr: 0xB58, symBinAddr: 0x2E3C8, symSize: 0xA0 }
  - { offset: 0x3A2E7, size: 0x8, addend: 0x0, symName: __RNvXs15_NtCsjLJ1XWNSM6u_10proc_macro6bridgeINtB6_5GroupNtNtB6_6client11TokenStreamNtBT_4SpanENtNtCs9f3LFPSIp77_4core5clone5Clone5cloneCsk0EuziVMDa8_11time_macros, symObjAddr: 0xBF8, symBinAddr: 0x2E468, symSize: 0xD4 }
  - { offset: 0x3A37F, size: 0x8, addend: 0x0, symName: __RNvXs1J_NtCsjLJ1XWNSM6u_10proc_macro6bridgeINtB6_11ExpnGlobalsNtNtB6_6client4SpanEINtNtB6_3rpc9DecodeMutuE6decodeCsk0EuziVMDa8_11time_macros, symObjAddr: 0xCCC, symBinAddr: 0x2E53C, symSize: 0xB0 }
  - { offset: 0x3A3D1, size: 0x8, addend: 0x0, symName: __RNvXs1g_NtCsjLJ1XWNSM6u_10proc_macro6bridgeINtB6_5IdentNtNtB6_6client4SpanNtNtB6_6symbol6SymbolENtNtCs9f3LFPSIp77_4core5clone5Clone5cloneCsk0EuziVMDa8_11time_macros, symObjAddr: 0xD7C, symBinAddr: 0x2E5EC, symSize: 0x88 }
  - { offset: 0x3A43B, size: 0x8, addend: 0x0, symName: __RNvXs1o_NtCsjLJ1XWNSM6u_10proc_macro6bridgeINtB6_7LiteralNtNtB6_6client4SpanNtNtB6_6symbol6SymbolENtNtCs9f3LFPSIp77_4core5clone5Clone5cloneCsk0EuziVMDa8_11time_macros, symObjAddr: 0xE04, symBinAddr: 0x2E674, symSize: 0x108 }
  - { offset: 0x3A4C8, size: 0x8, addend: 0x0, symName: __RNvXs9_NtNtCsjLJ1XWNSM6u_10proc_macro6bridge3rpcTINtB7_11ExpnGlobalsNtNtB7_6client4SpanENtB16_11TokenStreamEINtB5_9DecodeMutuE6decodeCsk0EuziVMDa8_11time_macros, symObjAddr: 0xF60, symBinAddr: 0x2E7D0, symSize: 0x84 }
  - { offset: 0x3A64C, size: 0x8, addend: 0x0, symName: __RNvXsV_NtCsjLJ1XWNSM6u_10proc_macro6bridgeINtNtCs9f3LFPSIp77_4core6result6ResultINtNtBJ_6option6OptionNtNtB5_6client11TokenStreamEuEINtNtB5_3rpc6EncodeuE6encodeCsk0EuziVMDa8_11time_macros, symObjAddr: 0xFE4, symBinAddr: 0x2E854, symSize: 0x108 }
  - { offset: 0x3A70D, size: 0x8, addend: 0x0, symName: __RNvXsV_NtCsjLJ1XWNSM6u_10proc_macro6bridgeINtNtCs9f3LFPSIp77_4core6result6ResultuNtNtB5_3rpc12PanicMessageEINtB1j_6EncodeuE6encodeCsk0EuziVMDa8_11time_macros, symObjAddr: 0x10EC, symBinAddr: 0x2E95C, symSize: 0x12C }
  - { offset: 0x3BE82, size: 0x8, addend: 0x0, symName: __RNvNtCsk0EuziVMDa8_11time_macros4date5parse, symObjAddr: 0x3B40, symBinAddr: 0x313B0, symSize: 0xDD0 }
  - { offset: 0x3C149, size: 0x8, addend: 0x0, symName: __RNvXNtCsk0EuziVMDa8_11time_macros4dateNtB2_4DateNtNtB4_9to_tokens11ToTokenTree15into_token_tree, symObjAddr: 0x4910, symBinAddr: 0x32180, symSize: 0xD90 }
  - { offset: 0x3C521, size: 0x8, addend: 0x0, symName: __RNvXs_NtNtCsdze8u8oDPro_5alloc3vec15set_len_on_dropNtB4_12SetLenOnDropNtNtNtCs9f3LFPSIp77_4core3ops4drop4Drop4dropCsk0EuziVMDa8_11time_macros, symObjAddr: 0x1218, symBinAddr: 0x2EA88, symSize: 0x20 }
  - { offset: 0x3C752, size: 0x8, addend: 0x0, symName: __RINvMNtCs9f3LFPSIp77_4core6resultINtB3_6ResultNtCsjLJ1XWNSM6u_10proc_macro11TokenStreamNtNtCsk0EuziVMDa8_11time_macros5error5ErrorE14unwrap_or_elseNCNvB1r_18format_descriptions_0EB1r_, symObjAddr: 0x0, symBinAddr: 0x2D870, symSize: 0x90 }
  - { offset: 0x3C8B8, size: 0x8, addend: 0x0, symName: __RINvMNtCs9f3LFPSIp77_4core6resultINtB3_6ResultNtNtNtCsk0EuziVMDa8_11time_macros18format_description11format_item4ItemNtBM_5ErrorE3mapNtNtBM_6public15OwnedFormatItemNvYBI_INtNtB5_7convert4IntoB27_E4intoEBO_, symObjAddr: 0x90, symBinAddr: 0x2D900, symSize: 0xAC }
  - { offset: 0x3C9D8, size: 0x8, addend: 0x0, symName: __RINvMNtCs9f3LFPSIp77_4core6resultINtB3_6ResultNtNtNtCsk0EuziVMDa8_11time_macros18format_description3ast4ItemNtBM_5ErrorE8and_thenNtNtBM_11format_item4ItemNvMB25_B23_8from_astEBO_, symObjAddr: 0x13C, symBinAddr: 0x2D9AC, symSize: 0xAC }
  - { offset: 0x3CAF7, size: 0x8, addend: 0x0, symName: __RINvMs2_NtNtCs27l1GJC5rMQ_3std6thread5localINtB6_8LocalKeyINtNtCs9f3LFPSIp77_4core4cell4CellPuEE8try_withNCNvMs3_B6_BF_7replace0B1s_ECsk0EuziVMDa8_11time_macros, symObjAddr: 0x1E8, symBinAddr: 0x2DA58, symSize: 0xE8 }
  - { offset: 0x3CD14, size: 0x8, addend: 0x0, symName: __RNvMNtCs9f3LFPSIp77_4core6resultINtB2_6ResultINtNtNtB4_3num7nonzero7NonZerotENtNtBM_5error13ParseIntErrorE2okCsk0EuziVMDa8_11time_macros, symObjAddr: 0x57C, symBinAddr: 0x2DDEC, symSize: 0x50 }
  - { offset: 0x3CD73, size: 0x8, addend: 0x0, symName: __RNvMNtCs9f3LFPSIp77_4core6resultINtB2_6ResultNtCsjLJ1XWNSM6u_10proc_macro4SpanNtNtCsk0EuziVMDa8_11time_macros5error5ErrorE5is_okB1i_, symObjAddr: 0x5CC, symBinAddr: 0x2DE3C, symSize: 0x4C }
  - { offset: 0x3CDA8, size: 0x8, addend: 0x0, symName: __RNvMNtCs9f3LFPSIp77_4core6resultINtB2_6ResultPuNtNtNtCs27l1GJC5rMQ_3std6thread5local11AccessErrorE6expectCsk0EuziVMDa8_11time_macros, symObjAddr: 0x618, symBinAddr: 0x2DE88, symSize: 0x84 }
  - { offset: 0x3CE09, size: 0x8, addend: 0x0, symName: __RNvMNtCs9f3LFPSIp77_4core6resultINtB2_6ResultReNtNtNtB4_3str5error9Utf8ErrorE2okCsk0EuziVMDa8_11time_macros, symObjAddr: 0x69C, symBinAddr: 0x2DF0C, symSize: 0x60 }
  - { offset: 0x3CE5D, size: 0x8, addend: 0x0, symName: __RNvMNtCs9f3LFPSIp77_4core6resultINtB2_6ResulthNtNtNtB4_3num5error15TryFromIntErrorE6expectCsk0EuziVMDa8_11time_macros, symObjAddr: 0x6FC, symBinAddr: 0x2DF6C, symSize: 0x84 }
  - { offset: 0x3CEBE, size: 0x8, addend: 0x0, symName: __RNvMNtCs9f3LFPSIp77_4core6resultINtB2_6ResultuNtNtB4_3fmt5ErrorE6expectCsk0EuziVMDa8_11time_macros, symObjAddr: 0x780, symBinAddr: 0x2DFF0, symSize: 0x78 }
  - { offset: 0x3D2CC, size: 0x8, addend: 0x0, symName: __RINvMNtCs9f3LFPSIp77_4core5sliceSh3getjECsk0EuziVMDa8_11time_macros, symObjAddr: 0x0, symBinAddr: 0x32F10, symSize: 0x44 }
  - { offset: 0x3D328, size: 0x8, addend: 0x0, symName: __RNvXsu_NtCsdze8u8oDPro_5alloc6stringNtNtCsk0EuziVMDa8_11time_macros5error5ErrorNtB5_8ToString9to_stringBC_, symObjAddr: 0x2400, symBinAddr: 0x35310, symSize: 0x124 }
  - { offset: 0x3DD50, size: 0x8, addend: 0x0, symName: __RNvNvMNtNtCs9f3LFPSIp77_4core3ptr9const_ptrPp7sub_ptr18precondition_checkCsk0EuziVMDa8_11time_macros, symObjAddr: 0x2268, symBinAddr: 0x35178, symSize: 0x40 }
  - { offset: 0x3E002, size: 0x8, addend: 0x0, symName: __RINvMNtCs9f3LFPSIp77_4core5sliceSh3getjECsk0EuziVMDa8_11time_macros, symObjAddr: 0x0, symBinAddr: 0x32F10, symSize: 0x44 }
  - { offset: 0x3E051, size: 0x8, addend: 0x0, symName: __RNvMNtCs9f3LFPSIp77_4core5sliceSRe8containsCsk0EuziVMDa8_11time_macros, symObjAddr: 0x20C4, symBinAddr: 0x34FD4, symSize: 0x48 }
  - { offset: 0x3E0E5, size: 0x8, addend: 0x0, symName: __RNvMNtCs9f3LFPSIp77_4core5sliceSh15copy_from_sliceCsk0EuziVMDa8_11time_macros, symObjAddr: 0x210C, symBinAddr: 0x3501C, symSize: 0xA4 }
  - { offset: 0x3E189, size: 0x8, addend: 0x0, symName: __RNvMNtCs9f3LFPSIp77_4core5sliceSh4iterCsk0EuziVMDa8_11time_macros, symObjAddr: 0x21B0, symBinAddr: 0x350C0, symSize: 0x28 }
  - { offset: 0x3E1C0, size: 0x8, addend: 0x0, symName: __RNvMNtCs9f3LFPSIp77_4core5sliceSh8is_emptyCsk0EuziVMDa8_11time_macros, symObjAddr: 0x21D8, symBinAddr: 0x350E8, symSize: 0x1C }
  - { offset: 0x3FD7E, size: 0x8, addend: 0x0, symName: __RNvNtNtCs9f3LFPSIp77_4core4char7convert8from_u32Csk0EuziVMDa8_11time_macros, symObjAddr: 0x2200, symBinAddr: 0x35110, symSize: 0x68 }
  - { offset: 0x3FE21, size: 0x8, addend: 0x0, symName: __RNvNvNtNtCs9f3LFPSIp77_4core4char7convert18from_u32_unchecked18precondition_checkCsk0EuziVMDa8_11time_macros, symObjAddr: 0x22A8, symBinAddr: 0x351B8, symSize: 0x98 }
  - { offset: 0x3FEAD, size: 0x8, addend: 0x0, symName: __RNvYNtNtCsk0EuziVMDa8_11time_macros18format_description4SpanNtNtCs9f3LFPSIp77_4core5clone5Clone10clone_fromB6_, symObjAddr: 0x2524, symBinAddr: 0x35434, symSize: 0x48 }
  - { offset: 0x3FEEC, size: 0x8, addend: 0x0, symName: __RNvYNtNtCsk0EuziVMDa8_11time_macros18format_description8LocationNtNtCs9f3LFPSIp77_4core5clone5Clone10clone_fromB6_, symObjAddr: 0x256C, symBinAddr: 0x3547C, symSize: 0x54 }
  - { offset: 0x403E3, size: 0x8, addend: 0x0, symName: __RNCINvNtNtCsjLJ1XWNSM6u_10proc_macro6bridge6client10run_clientNtB4_11TokenStreamINtNtCs9f3LFPSIp77_4core6option6OptionBY_ENCNCINvMs7_B4_INtB4_6ClientNtB8_11TokenStreamB2n_E7expand1NvCsk0EuziVMDa8_11time_macros18format_descriptionE00E0B2U_, symObjAddr: 0xBC0, symBinAddr: 0x33AD0, symSize: 0x3DC }
  - { offset: 0x4093D, size: 0x8, addend: 0x0, symName: __RNCINvNtNtCsjLJ1XWNSM6u_10proc_macro6bridge6client10run_clientNtB4_11TokenStreamINtNtCs9f3LFPSIp77_4core6option6OptionBY_ENCNCINvMs7_B4_INtB4_6ClientNtB8_11TokenStreamB2n_E7expand1NvCsk0EuziVMDa8_11time_macros4dateE00E0B2U_, symObjAddr: 0xF9C, symBinAddr: 0x33EAC, symSize: 0x3DC }
  - { offset: 0x40E97, size: 0x8, addend: 0x0, symName: __RNCINvNtNtCsjLJ1XWNSM6u_10proc_macro6bridge6client10run_clientNtB4_11TokenStreamINtNtCs9f3LFPSIp77_4core6option6OptionBY_ENCNCINvMs7_B4_INtB4_6ClientNtB8_11TokenStreamB2n_E7expand1NvCsk0EuziVMDa8_11time_macros4timeE00E0B2U_, symObjAddr: 0x1378, symBinAddr: 0x34288, symSize: 0x3DC }
  - { offset: 0x413F1, size: 0x8, addend: 0x0, symName: __RNCINvNtNtCsjLJ1XWNSM6u_10proc_macro6bridge6client10run_clientNtB4_11TokenStreamINtNtCs9f3LFPSIp77_4core6option6OptionBY_ENCNCINvMs7_B4_INtB4_6ClientNtB8_11TokenStreamB2n_E7expand1NvCsk0EuziVMDa8_11time_macros6offsetE00E0B2U_, symObjAddr: 0x1754, symBinAddr: 0x34664, symSize: 0x3DC }
  - { offset: 0x4194B, size: 0x8, addend: 0x0, symName: __RNCINvNtNtCsjLJ1XWNSM6u_10proc_macro6bridge6client10run_clientNtB4_11TokenStreamINtNtCs9f3LFPSIp77_4core6option6OptionBY_ENCNCINvMs7_B4_INtB4_6ClientNtB8_11TokenStreamB2n_E7expand1NvCsk0EuziVMDa8_11time_macros8datetimeE00E0B2U_, symObjAddr: 0x1B30, symBinAddr: 0x34A40, symSize: 0x3DC }
  - { offset: 0x41EAA, size: 0x8, addend: 0x0, symName: __RNCNCINvNtNtCsjLJ1XWNSM6u_10proc_macro6bridge6client10run_clientNtB6_11TokenStreamINtNtCs9f3LFPSIp77_4core6option6OptionB10_ENCNCINvMs7_B6_INtB6_6ClientNtBa_11TokenStreamB2q_E7expand1NvCsk0EuziVMDa8_11time_macros18format_descriptionE00E00B2X_, symObjAddr: 0x1FFC, symBinAddr: 0x34F0C, symSize: 0x28 }
  - { offset: 0x41F03, size: 0x8, addend: 0x0, symName: __RNCNCINvNtNtCsjLJ1XWNSM6u_10proc_macro6bridge6client10run_clientNtB6_11TokenStreamINtNtCs9f3LFPSIp77_4core6option6OptionB10_ENCNCINvMs7_B6_INtB6_6ClientNtBa_11TokenStreamB2q_E7expand1NvCsk0EuziVMDa8_11time_macros4dateE00E00B2X_, symObjAddr: 0x2024, symBinAddr: 0x34F34, symSize: 0x28 }
  - { offset: 0x41F5C, size: 0x8, addend: 0x0, symName: __RNCNCINvNtNtCsjLJ1XWNSM6u_10proc_macro6bridge6client10run_clientNtB6_11TokenStreamINtNtCs9f3LFPSIp77_4core6option6OptionB10_ENCNCINvMs7_B6_INtB6_6ClientNtBa_11TokenStreamB2q_E7expand1NvCsk0EuziVMDa8_11time_macros4timeE00E00B2X_, symObjAddr: 0x204C, symBinAddr: 0x34F5C, symSize: 0x28 }
  - { offset: 0x41FB5, size: 0x8, addend: 0x0, symName: __RNCNCINvNtNtCsjLJ1XWNSM6u_10proc_macro6bridge6client10run_clientNtB6_11TokenStreamINtNtCs9f3LFPSIp77_4core6option6OptionB10_ENCNCINvMs7_B6_INtB6_6ClientNtBa_11TokenStreamB2q_E7expand1NvCsk0EuziVMDa8_11time_macros6offsetE00E00B2X_, symObjAddr: 0x2074, symBinAddr: 0x34F84, symSize: 0x28 }
  - { offset: 0x4200E, size: 0x8, addend: 0x0, symName: __RNCNCINvNtNtCsjLJ1XWNSM6u_10proc_macro6bridge6client10run_clientNtB6_11TokenStreamINtNtCs9f3LFPSIp77_4core6option6OptionB10_ENCNCINvMs7_B6_INtB6_6ClientNtBa_11TokenStreamB2q_E7expand1NvCsk0EuziVMDa8_11time_macros8datetimeE00E00B2X_, symObjAddr: 0x209C, symBinAddr: 0x34FAC, symSize: 0x28 }
  - { offset: 0x420D7, size: 0x8, addend: 0x0, symName: __RNCNCINvMs7_NtNtCsjLJ1XWNSM6u_10proc_macro6bridge6clientINtBa_6ClientNtBe_11TokenStreamB15_E7expand1NvCsk0EuziVMDa8_11time_macros18format_descriptionE00B1C_, symObjAddr: 0x1F0C, symBinAddr: 0x34E1C, symSize: 0x30 }
  - { offset: 0x4211E, size: 0x8, addend: 0x0, symName: __RNCNCINvMs7_NtNtCsjLJ1XWNSM6u_10proc_macro6bridge6clientINtBa_6ClientNtBe_11TokenStreamB15_E7expand1NvCsk0EuziVMDa8_11time_macros4dateE00B1C_, symObjAddr: 0x1F3C, symBinAddr: 0x34E4C, symSize: 0x30 }
  - { offset: 0x42165, size: 0x8, addend: 0x0, symName: __RNCNCINvMs7_NtNtCsjLJ1XWNSM6u_10proc_macro6bridge6clientINtBa_6ClientNtBe_11TokenStreamB15_E7expand1NvCsk0EuziVMDa8_11time_macros4timeE00B1C_, symObjAddr: 0x1F6C, symBinAddr: 0x34E7C, symSize: 0x30 }
  - { offset: 0x421AC, size: 0x8, addend: 0x0, symName: __RNCNCINvMs7_NtNtCsjLJ1XWNSM6u_10proc_macro6bridge6clientINtBa_6ClientNtBe_11TokenStreamB15_E7expand1NvCsk0EuziVMDa8_11time_macros6offsetE00B1C_, symObjAddr: 0x1F9C, symBinAddr: 0x34EAC, symSize: 0x30 }
  - { offset: 0x421F3, size: 0x8, addend: 0x0, symName: __RNCNCINvMs7_NtNtCsjLJ1XWNSM6u_10proc_macro6bridge6clientINtBa_6ClientNtBe_11TokenStreamB15_E7expand1NvCsk0EuziVMDa8_11time_macros8datetimeE00B1C_, symObjAddr: 0x1FCC, symBinAddr: 0x34EDC, symSize: 0x30 }
  - { offset: 0x4223B, size: 0x8, addend: 0x0, symName: __RNCINvMs7_NtNtCsjLJ1XWNSM6u_10proc_macro6bridge6clientINtB8_6ClientNtBc_11TokenStreamB13_E7expand1NvCsk0EuziVMDa8_11time_macros18format_descriptionE0B1A_, symObjAddr: 0xAD0, symBinAddr: 0x339E0, symSize: 0x30 }
  - { offset: 0x42283, size: 0x8, addend: 0x0, symName: __RNCINvMs7_NtNtCsjLJ1XWNSM6u_10proc_macro6bridge6clientINtB8_6ClientNtBc_11TokenStreamB13_E7expand1NvCsk0EuziVMDa8_11time_macros4dateE0B1A_, symObjAddr: 0xB00, symBinAddr: 0x33A10, symSize: 0x30 }
  - { offset: 0x422CB, size: 0x8, addend: 0x0, symName: __RNCINvMs7_NtNtCsjLJ1XWNSM6u_10proc_macro6bridge6clientINtB8_6ClientNtBc_11TokenStreamB13_E7expand1NvCsk0EuziVMDa8_11time_macros4timeE0B1A_, symObjAddr: 0xB30, symBinAddr: 0x33A40, symSize: 0x30 }
  - { offset: 0x42313, size: 0x8, addend: 0x0, symName: __RNCINvMs7_NtNtCsjLJ1XWNSM6u_10proc_macro6bridge6clientINtB8_6ClientNtBc_11TokenStreamB13_E7expand1NvCsk0EuziVMDa8_11time_macros6offsetE0B1A_, symObjAddr: 0xB60, symBinAddr: 0x33A70, symSize: 0x30 }
  - { offset: 0x4235B, size: 0x8, addend: 0x0, symName: __RNCINvMs7_NtNtCsjLJ1XWNSM6u_10proc_macro6bridge6clientINtB8_6ClientNtBc_11TokenStreamB13_E7expand1NvCsk0EuziVMDa8_11time_macros8datetimeE0B1A_, symObjAddr: 0xB90, symBinAddr: 0x33AA0, symSize: 0x30 }
  - { offset: 0x423C6, size: 0x8, addend: 0x0, symName: __RINvNtNtCsjLJ1XWNSM6u_10proc_macro6bridge6client10run_clientNtB2_11TokenStreamINtNtCs9f3LFPSIp77_4core6option6OptionBW_ENCNCINvMs7_B2_INtB2_6ClientNtB6_11TokenStreamB2l_E7expand1NvCsk0EuziVMDa8_11time_macros18format_descriptionE00EB2S_, symObjAddr: 0x44, symBinAddr: 0x32F54, symSize: 0x21C }
  - { offset: 0x42585, size: 0x8, addend: 0x0, symName: __RINvNtNtCsjLJ1XWNSM6u_10proc_macro6bridge6client10run_clientNtB2_11TokenStreamINtNtCs9f3LFPSIp77_4core6option6OptionBW_ENCNCINvMs7_B2_INtB2_6ClientNtB6_11TokenStreamB2l_E7expand1NvCsk0EuziVMDa8_11time_macros4dateE00EB2S_, symObjAddr: 0x260, symBinAddr: 0x33170, symSize: 0x21C }
  - { offset: 0x42744, size: 0x8, addend: 0x0, symName: __RINvNtNtCsjLJ1XWNSM6u_10proc_macro6bridge6client10run_clientNtB2_11TokenStreamINtNtCs9f3LFPSIp77_4core6option6OptionBW_ENCNCINvMs7_B2_INtB2_6ClientNtB6_11TokenStreamB2l_E7expand1NvCsk0EuziVMDa8_11time_macros4timeE00EB2S_, symObjAddr: 0x47C, symBinAddr: 0x3338C, symSize: 0x21C }
  - { offset: 0x42903, size: 0x8, addend: 0x0, symName: __RINvNtNtCsjLJ1XWNSM6u_10proc_macro6bridge6client10run_clientNtB2_11TokenStreamINtNtCs9f3LFPSIp77_4core6option6OptionBW_ENCNCINvMs7_B2_INtB2_6ClientNtB6_11TokenStreamB2l_E7expand1NvCsk0EuziVMDa8_11time_macros6offsetE00EB2S_, symObjAddr: 0x698, symBinAddr: 0x335A8, symSize: 0x21C }
  - { offset: 0x42AC2, size: 0x8, addend: 0x0, symName: __RINvNtNtCsjLJ1XWNSM6u_10proc_macro6bridge6client10run_clientNtB2_11TokenStreamINtNtCs9f3LFPSIp77_4core6option6OptionBW_ENCNCINvMs7_B2_INtB2_6ClientNtB6_11TokenStreamB2l_E7expand1NvCsk0EuziVMDa8_11time_macros8datetimeE00EB2S_, symObjAddr: 0x8B4, symBinAddr: 0x337C4, symSize: 0x21C }
  - { offset: 0x42D1C, size: 0x8, addend: 0x0, symName: __RNvXsh_NtNtCsjLJ1XWNSM6u_10proc_macro6bridge6clientNtB5_11TokenStreamINtNtB7_3rpc6EncodeuE6encodeCsk0EuziVMDa8_11time_macros, symObjAddr: 0x2340, symBinAddr: 0x35250, symSize: 0x50 }
  - { offset: 0x42E36, size: 0x8, addend: 0x0, symName: __RNvXsk_NtNtCsjLJ1XWNSM6u_10proc_macro6bridge6clientNtB5_11TokenStreamINtNtB7_3rpc9DecodeMutuE6decodeCsk0EuziVMDa8_11time_macros, symObjAddr: 0x2390, symBinAddr: 0x352A0, symSize: 0x2C }
  - { offset: 0x42E7F, size: 0x8, addend: 0x0, symName: __RNvXsr_NtNtCsjLJ1XWNSM6u_10proc_macro6bridge6clientNtB5_4SpanINtNtB7_3rpc9DecodeMutuE6decodeCsk0EuziVMDa8_11time_macros, symObjAddr: 0x23BC, symBinAddr: 0x352CC, symSize: 0x2C }
  - { offset: 0x42EC8, size: 0x8, addend: 0x0, symName: __RNvXst_NtNtCsjLJ1XWNSM6u_10proc_macro6bridge6clientNtB5_4SpanNtNtCs9f3LFPSIp77_4core5clone5Clone5cloneCsk0EuziVMDa8_11time_macros, symObjAddr: 0x23E8, symBinAddr: 0x352F8, symSize: 0x18 }
  - { offset: 0x445F5, size: 0x8, addend: 0x0, symName: __RNvNtCsk0EuziVMDa8_11time_macros18format_description18parse_with_version, symObjAddr: 0x31D0, symBinAddr: 0x360E0, symSize: 0xD8 }
  - { offset: 0x4463D, size: 0x8, addend: 0x0, symName: __RINvNtCsk0EuziVMDa8_11time_macros18format_description5parseKh1_EB4_, symObjAddr: 0x32A8, symBinAddr: 0x361B8, symSize: 0x11C }
  - { offset: 0x446D4, size: 0x8, addend: 0x0, symName: __RINvNtCsk0EuziVMDa8_11time_macros18format_description5parseKh2_EB4_, symObjAddr: 0x33C4, symBinAddr: 0x362D4, symSize: 0x11C }
  - { offset: 0x44770, size: 0x8, addend: 0x0, symName: __RNCINvNtCsk0EuziVMDa8_11time_macros18format_description5parseKh1_E0B6_, symObjAddr: 0x34E0, symBinAddr: 0x363F0, symSize: 0x38 }
  - { offset: 0x447A7, size: 0x8, addend: 0x0, symName: __RNCINvNtCsk0EuziVMDa8_11time_macros18format_description5parseKh2_E0B6_, symObjAddr: 0x3518, symBinAddr: 0x36428, symSize: 0x38 }
  - { offset: 0x44945, size: 0x8, addend: 0x0, symName: __RNvXs0_NtCsk0EuziVMDa8_11time_macros18format_descriptionINtB5_7SpannedRShENtNtNtCs9f3LFPSIp77_4core3ops5deref5Deref5derefB7_, symObjAddr: 0x38DC, symBinAddr: 0x367EC, symSize: 0x24 }
  - { offset: 0x44980, size: 0x8, addend: 0x0, symName: __RNvXs1_NtCsk0EuziVMDa8_11time_macros18format_descriptionRShNtB5_12SpannedValue7spannedB7_, symObjAddr: 0x3900, symBinAddr: 0x36810, symSize: 0x38 }
  - { offset: 0x449C9, size: 0x8, addend: 0x0, symName: __RNvXs2_NtCsk0EuziVMDa8_11time_macros18format_descriptionNtNtB7_5error5ErrorINtNtCs9f3LFPSIp77_4core7convert4FromNtB5_5ErrorE4from, symObjAddr: 0x3938, symBinAddr: 0x36848, symSize: 0x90 }
  - { offset: 0x449F7, size: 0x8, addend: 0x0, symName: __RINvNtCsk0EuziVMDa8_11time_macros18format_description6unusedINtB2_7SpannedRShEEB4_, symObjAddr: 0x39C8, symBinAddr: 0x368D8, symSize: 0x14 }
  - { offset: 0x44A21, size: 0x8, addend: 0x0, symName: __RINvNtCsk0EuziVMDa8_11time_macros18format_description6unusedINtNtCs9f3LFPSIp77_4core6option6OptionINtB2_7SpannedRShEEEB4_, symObjAddr: 0x39DC, symBinAddr: 0x368EC, symSize: 0x14 }
  - { offset: 0x44A4B, size: 0x8, addend: 0x0, symName: __RINvNtCsk0EuziVMDa8_11time_macros18format_description6unusedNtB2_4SpanEB4_, symObjAddr: 0x39F0, symBinAddr: 0x36900, symSize: 0x14 }
  - { offset: 0x44A75, size: 0x8, addend: 0x0, symName: __RINvNtCsk0EuziVMDa8_11time_macros18format_description6unusedNtB2_8LocationEB4_, symObjAddr: 0x3A04, symBinAddr: 0x36914, symSize: 0x24 }
  - { offset: 0x44AA7, size: 0x8, addend: 0x0, symName: __RNvXs3_NtCsk0EuziVMDa8_11time_macros18format_descriptionNtB5_8LocationNtNtCs9f3LFPSIp77_4core5clone5Clone5cloneB7_, symObjAddr: 0x3A28, symBinAddr: 0x36938, symSize: 0x20 }
  - { offset: 0x44AD9, size: 0x8, addend: 0x0, symName: __RNvXs5_NtCsk0EuziVMDa8_11time_macros18format_descriptionNtB5_4SpanNtNtCs9f3LFPSIp77_4core5clone5Clone5cloneB7_, symObjAddr: 0x3A48, symBinAddr: 0x36958, symSize: 0x1C }
  - { offset: 0x44B85, size: 0x8, addend: 0x0, symName: __RNvXs_NtCsk0EuziVMDa8_11time_macros5errorNtB4_5ErrorNtNtCs9f3LFPSIp77_4core3fmt7Display3fmt, symObjAddr: 0x25C0, symBinAddr: 0x354D0, symSize: 0x348 }
  - { offset: 0x44F70, size: 0x8, addend: 0x0, symName: __RNCNvMs0_NtCsk0EuziVMDa8_11time_macros5errorNtB7_5Error8span_end0B9_, symObjAddr: 0x2C24, symBinAddr: 0x35B34, symSize: 0x34 }
  - { offset: 0x467C5, size: 0x8, addend: 0x0, symName: __RNvMsa_NtNtCsjLJ1XWNSM6u_10proc_macro6bridge6clientNtB5_14HandleCounters3getCsk0EuziVMDa8_11time_macros, symObjAddr: 0x21F4, symBinAddr: 0x35104, symSize: 0xC }
  - { offset: 0x46B05, size: 0x8, addend: 0x0, symName: __RNvMs0_NtCsk0EuziVMDa8_11time_macros5errorNtB5_5Error10span_start, symObjAddr: 0x2908, symBinAddr: 0x35818, symSize: 0x18C }
  - { offset: 0x46B7E, size: 0x8, addend: 0x0, symName: __RNvMs0_NtCsk0EuziVMDa8_11time_macros5errorNtB5_5Error8span_end, symObjAddr: 0x2A94, symBinAddr: 0x359A4, symSize: 0x190 }
  - { offset: 0x46BF7, size: 0x8, addend: 0x0, symName: __RNvMs0_NtCsk0EuziVMDa8_11time_macros5errorNtB5_5Error16to_compile_error, symObjAddr: 0x2C58, symBinAddr: 0x35B68, symSize: 0x578 }
  - { offset: 0x46C3E, size: 0x8, addend: 0x0, symName: __RNvMNtCsk0EuziVMDa8_11time_macros18format_descriptionNtB2_8Location2to, symObjAddr: 0x3550, symBinAddr: 0x36460, symSize: 0x3C }
  - { offset: 0x46C7B, size: 0x8, addend: 0x0, symName: __RNvMNtCsk0EuziVMDa8_11time_macros18format_descriptionNtB2_8Location6offset, symObjAddr: 0x358C, symBinAddr: 0x3649C, symSize: 0x68 }
  - { offset: 0x46CAB, size: 0x8, addend: 0x0, symName: __RNvMNtCsk0EuziVMDa8_11time_macros18format_descriptionNtB2_8Location5error, symObjAddr: 0x35F4, symBinAddr: 0x36504, symSize: 0x80 }
  - { offset: 0x46CE8, size: 0x8, addend: 0x0, symName: __RNvMs_NtCsk0EuziVMDa8_11time_macros18format_descriptionNtB4_4Span15shrink_to_start, symObjAddr: 0x3674, symBinAddr: 0x36584, symSize: 0x48 }
  - { offset: 0x46D0A, size: 0x8, addend: 0x0, symName: __RNvMs_NtCsk0EuziVMDa8_11time_macros18format_descriptionNtB4_4Span13shrink_to_end, symObjAddr: 0x36BC, symBinAddr: 0x365CC, symSize: 0x48 }
  - { offset: 0x46D2C, size: 0x8, addend: 0x0, symName: __RNvMs_NtCsk0EuziVMDa8_11time_macros18format_descriptionNtB4_4Span16shrink_to_before, symObjAddr: 0x3704, symBinAddr: 0x36614, symSize: 0xBC }
  - { offset: 0x46D5C, size: 0x8, addend: 0x0, symName: __RNvMs_NtCsk0EuziVMDa8_11time_macros18format_descriptionNtB4_4Span15shrink_to_after, symObjAddr: 0x37C0, symBinAddr: 0x366D0, symSize: 0xAC }
  - { offset: 0x46D8C, size: 0x8, addend: 0x0, symName: __RNvMs_NtCsk0EuziVMDa8_11time_macros18format_descriptionNtB4_4Span5error, symObjAddr: 0x386C, symBinAddr: 0x3677C, symSize: 0x70 }
  - { offset: 0x46F70, size: 0x8, addend: 0x0, symName: __RINvMNtCs9f3LFPSIp77_4core3stre18trim_start_matchesNCNCNvCsk0EuziVMDa8_11time_macros18format_description00EBT_, symObjAddr: 0x0, symBinAddr: 0x369C8, symSize: 0xD8 }
  - { offset: 0x46F92, size: 0x8, addend: 0x0, symName: ___rustc_proc_macro_decls_e913379b4327fda2__, symObjAddr: 0x4C18, symBinAddr: 0x174D58, symSize: 0x0 }
  - { offset: 0x47CAC, size: 0x8, addend: 0x0, symName: __RNCNvCsk0EuziVMDa8_11time_macros18format_description0B3_, symObjAddr: 0x2700, symBinAddr: 0x390C8, symSize: 0xFDC }
  - { offset: 0x47E83, size: 0x8, addend: 0x0, symName: __RNCNvCsk0EuziVMDa8_11time_macros18format_descriptions_0B3_, symObjAddr: 0x36DC, symBinAddr: 0x3A0A4, symSize: 0x6C }
  - { offset: 0x47EBF, size: 0x8, addend: 0x0, symName: __RNCNCNvCsk0EuziVMDa8_11time_macros18format_description00B5_, symObjAddr: 0x40EC, symBinAddr: 0x3AAB4, symSize: 0x2C }
  - { offset: 0x47EF5, size: 0x8, addend: 0x0, symName: __RNCNCNvCsk0EuziVMDa8_11time_macros18format_description0s_0B5_, symObjAddr: 0x4118, symBinAddr: 0x3AAE0, symSize: 0x148 }
  - { offset: 0x48265, size: 0x8, addend: 0x0, symName: __RINvCsk0EuziVMDa8_11time_macros32parse_format_description_versionKb0_EB2_, symObjAddr: 0x1D68, symBinAddr: 0x38730, symSize: 0x950 }
  - { offset: 0x48390, size: 0x8, addend: 0x0, symName: __RNvCsk0EuziVMDa8_11time_macros18format_description, symObjAddr: 0x26B8, symBinAddr: 0x39080, symSize: 0x48 }
  - { offset: 0x483BC, size: 0x8, addend: 0x0, symName: __RNvCsk0EuziVMDa8_11time_macros4date, symObjAddr: 0x3748, symBinAddr: 0x3A110, symSize: 0x268 }
  - { offset: 0x4843D, size: 0x8, addend: 0x0, symName: __RNvCsk0EuziVMDa8_11time_macros8datetime, symObjAddr: 0x39B0, symBinAddr: 0x3A378, symSize: 0x264 }
  - { offset: 0x484BF, size: 0x8, addend: 0x0, symName: __RNvCsk0EuziVMDa8_11time_macros6offset, symObjAddr: 0x3C14, symBinAddr: 0x3A5DC, symSize: 0x274 }
  - { offset: 0x48541, size: 0x8, addend: 0x0, symName: __RNvCsk0EuziVMDa8_11time_macros4time, symObjAddr: 0x3E88, symBinAddr: 0x3A850, symSize: 0x264 }
  - { offset: 0x4AB37, size: 0x8, addend: 0x0, symName: __RINvMNtCs9f3LFPSIp77_4core3stre18trim_start_matchesNCNCNvCsk0EuziVMDa8_11time_macros18format_description00EBT_, symObjAddr: 0x0, symBinAddr: 0x369C8, symSize: 0xD8 }
  - { offset: 0x4ACC7, size: 0x8, addend: 0x0, symName: __RINvMNtCs9f3LFPSIp77_4core3stre5parseINtNtNtB5_3num7nonzero7NonZerotEECsk0EuziVMDa8_11time_macros, symObjAddr: 0xD8, symBinAddr: 0x36AA0, symSize: 0x38 }
  - { offset: 0x4ACFE, size: 0x8, addend: 0x0, symName: __RINvMNtCs9f3LFPSIp77_4core3stre5parseaECsk0EuziVMDa8_11time_macros, symObjAddr: 0x110, symBinAddr: 0x36AD8, symSize: 0x2C }
  - { offset: 0x4AD35, size: 0x8, addend: 0x0, symName: __RINvMNtCs9f3LFPSIp77_4core3stre5parsedECsk0EuziVMDa8_11time_macros, symObjAddr: 0x13C, symBinAddr: 0x36B04, symSize: 0x28 }
  - { offset: 0x4AD6C, size: 0x8, addend: 0x0, symName: __RINvMNtCs9f3LFPSIp77_4core3stre5parsehECsk0EuziVMDa8_11time_macros, symObjAddr: 0x164, symBinAddr: 0x36B2C, symSize: 0x2C }
  - { offset: 0x4ADA3, size: 0x8, addend: 0x0, symName: __RINvMNtCs9f3LFPSIp77_4core3stre5parselECsk0EuziVMDa8_11time_macros, symObjAddr: 0x190, symBinAddr: 0x36B58, symSize: 0x38 }
  - { offset: 0x4ADDA, size: 0x8, addend: 0x0, symName: __RINvMNtCs9f3LFPSIp77_4core3stre5parsetECsk0EuziVMDa8_11time_macros, symObjAddr: 0x1C8, symBinAddr: 0x36B90, symSize: 0x38 }
  - { offset: 0x4AE2F, size: 0x8, addend: 0x0, symName: __RNvMNtCs9f3LFPSIp77_4core3stre5charsCsk0EuziVMDa8_11time_macros, symObjAddr: 0x540, symBinAddr: 0x36F08, symSize: 0x38 }
  - { offset: 0x4AFBB, size: 0x8, addend: 0x0, symName: __RNvXs3_NtNtCs9f3LFPSIp77_4core3str7patternNCNCNvCsk0EuziVMDa8_11time_macros18format_description00NtB5_11MultiCharEq7matchesBK_, symObjAddr: 0x14E8, symBinAddr: 0x37EB0, symSize: 0x28 }
  - { offset: 0x4B007, size: 0x8, addend: 0x0, symName: __RNvXsr_NtNtCs9f3LFPSIp77_4core3str7patternNCNCNvCsk0EuziVMDa8_11time_macros18format_description00NtB5_7Pattern13into_searcherBK_, symObjAddr: 0x1D20, symBinAddr: 0x386E8, symSize: 0x48 }
  - { offset: 0x4B0A8, size: 0x8, addend: 0x0, symName: __RNvXs_NtCs9f3LFPSIp77_4core3streINtNtB6_7convert5AsRefShE6as_refCsk0EuziVMDa8_11time_macros, symObjAddr: 0x1628, symBinAddr: 0x37FF0, symSize: 0x18 }
  - { offset: 0x4B158, size: 0x8, addend: 0x0, symName: __RNcNtINtNtNtCs9f3LFPSIp77_4core3ops12control_flow11ControlFlowNtNtNtCsk0EuziVMDa8_11time_macros18format_description3ast4ItemE5Break0B14_, symObjAddr: 0x4F8, symBinAddr: 0x36EC0, symSize: 0x30 }
  - { offset: 0x4B193, size: 0x8, addend: 0x0, symName: __RNcNtINtNtNtCs9f3LFPSIp77_4core3ops12control_flow11ControlFlowNtNtNtCsk0EuziVMDa8_11time_macros18format_description6public15OwnedFormatItemE5Break0B14_, symObjAddr: 0x528, symBinAddr: 0x36EF0, symSize: 0x18 }
  - { offset: 0x4B253, size: 0x8, addend: 0x0, symName: __RNvXNtNtCs9f3LFPSIp77_4core3ops12control_flowINtB2_11ControlFlowIBI_NtNtNtCsk0EuziVMDa8_11time_macros18format_description3ast4ItemEENtNtB4_9try_trait3Try11from_outputB1a_, symObjAddr: 0x1030, symBinAddr: 0x379F8, symSize: 0x18 }
  - { offset: 0x4B291, size: 0x8, addend: 0x0, symName: __RNvXNtNtCs9f3LFPSIp77_4core3ops12control_flowINtB2_11ControlFlowIBI_NtNtNtCsk0EuziVMDa8_11time_macros18format_description3ast4ItemEENtNtB4_9try_trait3Try6branchB1a_, symObjAddr: 0x1048, symBinAddr: 0x37A10, symSize: 0x88 }
  - { offset: 0x4B309, size: 0x8, addend: 0x0, symName: __RNvXNtNtCs9f3LFPSIp77_4core3ops12control_flowINtB2_11ControlFlowIBI_NtNtNtCsk0EuziVMDa8_11time_macros18format_description6public15OwnedFormatItemEENtNtB4_9try_trait3Try11from_outputB1a_, symObjAddr: 0x10D0, symBinAddr: 0x37A98, symSize: 0x18 }
  - { offset: 0x4B347, size: 0x8, addend: 0x0, symName: __RNvXNtNtCs9f3LFPSIp77_4core3ops12control_flowINtB2_11ControlFlowIBI_NtNtNtCsk0EuziVMDa8_11time_macros18format_description6public15OwnedFormatItemEENtNtB4_9try_trait3Try6branchB1a_, symObjAddr: 0x10E8, symBinAddr: 0x37AB0, symSize: 0x74 }
  - { offset: 0x4B3C0, size: 0x8, addend: 0x0, symName: __RNvXNtNtCs9f3LFPSIp77_4core3ops12control_flowINtB2_11ControlFlowINtNtB6_6result6ResultINtNtNtCsdze8u8oDPro_5alloc3vec13in_place_drop11InPlaceDropINtNtB1t_5boxed3BoxSNtNtNtCsk0EuziVMDa8_11time_macros18format_description11format_item4ItemEEzEB1m_ENtNtB4_9try_trait3Try11from_outputB2J_, symObjAddr: 0x115C, symBinAddr: 0x37B24, symSize: 0x28 }
  - { offset: 0x4B3FE, size: 0x8, addend: 0x0, symName: __RNvXNtNtCs9f3LFPSIp77_4core3ops12control_flowINtB2_11ControlFlowINtNtB6_6result6ResultINtNtNtCsdze8u8oDPro_5alloc3vec13in_place_drop11InPlaceDropINtNtB1t_5boxed3BoxSNtNtNtCsk0EuziVMDa8_11time_macros18format_description11format_item4ItemEEzEB1m_ENtNtB4_9try_trait3Try6branchB2J_, symObjAddr: 0x1184, symBinAddr: 0x37B4C, symSize: 0x84 }
  - { offset: 0x4B477, size: 0x8, addend: 0x0, symName: __RNvXNtNtCs9f3LFPSIp77_4core3ops12control_flowINtB2_11ControlFlowINtNtB6_6result6ResultINtNtNtCsdze8u8oDPro_5alloc3vec13in_place_drop11InPlaceDropNtNtNtCsk0EuziVMDa8_11time_macros18format_description11format_item4ItemEzEB1m_ENtNtB4_9try_trait3Try11from_outputB2p_, symObjAddr: 0x1208, symBinAddr: 0x37BD0, symSize: 0x28 }
  - { offset: 0x4B4B5, size: 0x8, addend: 0x0, symName: __RNvXNtNtCs9f3LFPSIp77_4core3ops12control_flowINtB2_11ControlFlowINtNtB6_6result6ResultINtNtNtCsdze8u8oDPro_5alloc3vec13in_place_drop11InPlaceDropNtNtNtCsk0EuziVMDa8_11time_macros18format_description11format_item4ItemEzEB1m_ENtNtB4_9try_trait3Try6branchB2p_, symObjAddr: 0x1230, symBinAddr: 0x37BF8, symSize: 0x84 }
  - { offset: 0x4B52E, size: 0x8, addend: 0x0, symName: __RNvXNtNtCs9f3LFPSIp77_4core3ops12control_flowINtB2_11ControlFlowNtNtNtCsk0EuziVMDa8_11time_macros18format_description3ast4ItemENtNtB4_9try_trait3Try11from_outputB16_, symObjAddr: 0x12B4, symBinAddr: 0x37C7C, symSize: 0x18 }
  - { offset: 0x4B56C, size: 0x8, addend: 0x0, symName: __RNvXNtNtCs9f3LFPSIp77_4core3ops12control_flowINtB2_11ControlFlowNtNtNtCsk0EuziVMDa8_11time_macros18format_description3ast4ItemENtNtB4_9try_trait3Try6branchB16_, symObjAddr: 0x12CC, symBinAddr: 0x37C94, symSize: 0x88 }
  - { offset: 0x4B5E4, size: 0x8, addend: 0x0, symName: __RNvXNtNtCs9f3LFPSIp77_4core3ops12control_flowINtB2_11ControlFlowNtNtNtCsk0EuziVMDa8_11time_macros18format_description6public15OwnedFormatItemENtNtB4_9try_trait3Try11from_outputB16_, symObjAddr: 0x1354, symBinAddr: 0x37D1C, symSize: 0x18 }
  - { offset: 0x4B622, size: 0x8, addend: 0x0, symName: __RNvXNtNtCs9f3LFPSIp77_4core3ops12control_flowINtB2_11ControlFlowNtNtNtCsk0EuziVMDa8_11time_macros18format_description6public15OwnedFormatItemENtNtB4_9try_trait3Try6branchB16_, symObjAddr: 0x136C, symBinAddr: 0x37D34, symSize: 0x74 }
  - { offset: 0x4B69B, size: 0x8, addend: 0x0, symName: __RNvXNtNtCs9f3LFPSIp77_4core3ops12control_flowINtB2_11ControlFlowuENtNtB4_9try_trait3Try11from_outputCsk0EuziVMDa8_11time_macros, symObjAddr: 0x13E0, symBinAddr: 0x37DA8, symSize: 0x18 }
  - { offset: 0x4B6D9, size: 0x8, addend: 0x0, symName: __RNvXNtNtCs9f3LFPSIp77_4core3ops12control_flowINtB2_11ControlFlowuENtNtB4_9try_trait3Try6branchCsk0EuziVMDa8_11time_macros, symObjAddr: 0x13F8, symBinAddr: 0x37DC0, symSize: 0x38 }
  - { offset: 0x4B755, size: 0x8, addend: 0x0, symName: __RNvXs7_NtNtCs9f3LFPSIp77_4core3ops12control_flowINtB5_11ControlFlowuENtNtB9_3cmp9PartialEq2eqCsk0EuziVMDa8_11time_macros, symObjAddr: 0x1510, symBinAddr: 0x37ED8, symSize: 0xEC }
  - { offset: 0x4B8F3, size: 0x8, addend: 0x0, symName: __RNvXs_NtNtCs9f3LFPSIp77_4core3ops12control_flowINtB4_11ControlFlowIBK_NtNtNtCsk0EuziVMDa8_11time_macros18format_description3ast4ItemEEINtNtB6_9try_trait12FromResidualIBK_B12_NtNtB8_7convert10InfallibleEE13from_residualB1c_, symObjAddr: 0x1BA4, symBinAddr: 0x3856C, symSize: 0x48 }
  - { offset: 0x4B94F, size: 0x8, addend: 0x0, symName: __RNvXs_NtNtCs9f3LFPSIp77_4core3ops12control_flowINtB4_11ControlFlowIBK_NtNtNtCsk0EuziVMDa8_11time_macros18format_description6public15OwnedFormatItemEEINtNtB6_9try_trait12FromResidualIBK_B12_NtNtB8_7convert10InfallibleEE13from_residualB1c_, symObjAddr: 0x1BEC, symBinAddr: 0x385B4, symSize: 0x30 }
  - { offset: 0x4B9AA, size: 0x8, addend: 0x0, symName: __RNvXs_NtNtCs9f3LFPSIp77_4core3ops12control_flowINtB4_11ControlFlowINtNtB8_6result6ResultINtNtNtCsdze8u8oDPro_5alloc3vec13in_place_drop11InPlaceDropINtNtB1v_5boxed3BoxSNtNtNtCsk0EuziVMDa8_11time_macros18format_description11format_item4ItemEEzEB1o_EINtNtB6_9try_trait12FromResidualIBK_B12_NtNtB8_7convert10InfallibleEE13from_residualB2L_, symObjAddr: 0x1C1C, symBinAddr: 0x385E4, symSize: 0x38 }
  - { offset: 0x4BA05, size: 0x8, addend: 0x0, symName: __RNvXs_NtNtCs9f3LFPSIp77_4core3ops12control_flowINtB4_11ControlFlowINtNtB8_6result6ResultINtNtNtCsdze8u8oDPro_5alloc3vec13in_place_drop11InPlaceDropNtNtNtCsk0EuziVMDa8_11time_macros18format_description11format_item4ItemEzEB1o_EINtNtB6_9try_trait12FromResidualIBK_B12_NtNtB8_7convert10InfallibleEE13from_residualB2r_, symObjAddr: 0x1C54, symBinAddr: 0x3861C, symSize: 0x38 }
  - { offset: 0x4BA60, size: 0x8, addend: 0x0, symName: __RNvXs_NtNtCs9f3LFPSIp77_4core3ops12control_flowINtB4_11ControlFlowNtNtNtCsk0EuziVMDa8_11time_macros18format_description3ast4ItemEINtNtB6_9try_trait12FromResidualIBK_B12_NtNtB8_7convert10InfallibleEE13from_residualB18_, symObjAddr: 0x1C8C, symBinAddr: 0x38654, symSize: 0x48 }
  - { offset: 0x4BABC, size: 0x8, addend: 0x0, symName: __RNvXs_NtNtCs9f3LFPSIp77_4core3ops12control_flowINtB4_11ControlFlowNtNtNtCsk0EuziVMDa8_11time_macros18format_description6public15OwnedFormatItemEINtNtB6_9try_trait12FromResidualIBK_B12_NtNtB8_7convert10InfallibleEE13from_residualB18_, symObjAddr: 0x1CD4, symBinAddr: 0x3869C, symSize: 0x30 }
  - { offset: 0x4BB17, size: 0x8, addend: 0x0, symName: __RNvXs_NtNtCs9f3LFPSIp77_4core3ops12control_flowINtB4_11ControlFlowuEINtNtB6_9try_trait12FromResidualIBK_uNtNtB8_7convert10InfallibleEE13from_residualCsk0EuziVMDa8_11time_macros, symObjAddr: 0x1D04, symBinAddr: 0x386CC, symSize: 0x1C }
  - { offset: 0x4D019, size: 0x8, addend: 0x0, symName: __RNvNtNtNtCs9f3LFPSIp77_4core7unicode12unicode_data11white_space6lookupCsk0EuziVMDa8_11time_macros, symObjAddr: 0xEE4, symBinAddr: 0x378AC, symSize: 0x14C }
  - { offset: 0x4D3D9, size: 0x8, addend: 0x0, symName: __RNCNvXs1_NtNtNtCs27l1GJC5rMQ_3std2io5error14repr_bitpackedNtB7_4ReprNtNtNtCs9f3LFPSIp77_4core3ops4drop4Drop4drop0Csk0EuziVMDa8_11time_macros, symObjAddr: 0x4C4, symBinAddr: 0x36E8C, symSize: 0x34 }
  - { offset: 0x4D48E, size: 0x8, addend: 0x0, symName: __RNvXs1_NtNtNtCs27l1GJC5rMQ_3std2io5error14repr_bitpackedNtB5_4ReprNtNtNtCs9f3LFPSIp77_4core3ops4drop4Drop4dropCsk0EuziVMDa8_11time_macros, symObjAddr: 0x1430, symBinAddr: 0x37DF8, symSize: 0x38 }
  - { offset: 0x4D4B7, size: 0x8, addend: 0x0, symName: __RINvNtNtNtCs27l1GJC5rMQ_3std2io5error14repr_bitpacked11decode_reprINtNtCsdze8u8oDPro_5alloc5boxed3BoxNtB4_6CustomENCNvXs1_B2_NtB2_4ReprNtNtNtCs9f3LFPSIp77_4core3ops4drop4Drop4drop0ECsk0EuziVMDa8_11time_macros, symObjAddr: 0x200, symBinAddr: 0x36BC8, symSize: 0x234 }
  - { offset: 0x4D780, size: 0x8, addend: 0x0, symName: __RNvNtNtNtCs27l1GJC5rMQ_3std2io5error14repr_bitpacked14kind_from_primCsk0EuziVMDa8_11time_macros, symObjAddr: 0x8DC, symBinAddr: 0x372A4, symSize: 0x608 }
  - { offset: 0x4E233, size: 0x8, addend: 0x0, symName: __RINvXCs1BFEHwsCJmt_8num_convhNtB3_6Extend6extendjECsk0EuziVMDa8_11time_macros, symObjAddr: 0x434, symBinAddr: 0x36DFC, symSize: 0x30 }
  - { offset: 0x4E277, size: 0x8, addend: 0x0, symName: __RINvXs_Cs1BFEHwsCJmt_8num_convmNtB5_8Truncate8truncatehECsk0EuziVMDa8_11time_macros, symObjAddr: 0x464, symBinAddr: 0x36E2C, symSize: 0x30 }
  - { offset: 0x4E2B5, size: 0x8, addend: 0x0, symName: __RINvXs_Cs1BFEHwsCJmt_8num_convtNtB5_8Truncate8truncatehECsk0EuziVMDa8_11time_macros, symObjAddr: 0x494, symBinAddr: 0x36E5C, symSize: 0x30 }
  - { offset: 0x4E3DF, size: 0x8, addend: 0x0, symName: __RNvNtCsdze8u8oDPro_5alloc5alloc12alloc_zeroedCsk0EuziVMDa8_11time_macros, symObjAddr: 0x734, symBinAddr: 0x370FC, symSize: 0x80 }
  - { offset: 0x4E4AC, size: 0x8, addend: 0x0, symName: __RNvXs_NtCsdze8u8oDPro_5alloc5allocNtB4_6GlobalNtNtCs9f3LFPSIp77_4core5alloc9Allocator10deallocateCsk0EuziVMDa8_11time_macros, symObjAddr: 0x1640, symBinAddr: 0x38008, symSize: 0x8C }
  - { offset: 0x4E5E9, size: 0x8, addend: 0x0, symName: __RNvXs_NtCsdze8u8oDPro_5alloc5allocNtB4_6GlobalNtNtCs9f3LFPSIp77_4core5alloc9Allocator6shrinkCsk0EuziVMDa8_11time_macros, symObjAddr: 0x16CC, symBinAddr: 0x38094, symSize: 0x4D8 }
  - { offset: 0x4EE46, size: 0x8, addend: 0x0, symName: __RNvNtCsdze8u8oDPro_5alloc5alloc15exchange_mallocCsk0EuziVMDa8_11time_macros, symObjAddr: 0x7B4, symBinAddr: 0x3717C, symSize: 0xA8 }
  - { offset: 0x4EF55, size: 0x8, addend: 0x0, symName: __RNvNtCsdze8u8oDPro_5alloc5alloc5allocCsk0EuziVMDa8_11time_macros, symObjAddr: 0x85C, symBinAddr: 0x37224, symSize: 0x80 }
  - { offset: 0x4F078, size: 0x8, addend: 0x0, symName: __RNvXs2_NtCsdze8u8oDPro_5alloc6borrowINtB5_3CoweENtNtNtCs9f3LFPSIp77_4core3ops5deref5Deref5derefCsk0EuziVMDa8_11time_macros, symObjAddr: 0x1468, symBinAddr: 0x37E30, symSize: 0x80 }
  - { offset: 0x4F16B, size: 0x8, addend: 0x0, symName: __RNvXsM_NtCsdze8u8oDPro_5alloc6stringINtNtB7_6borrow3CoweEINtNtCs9f3LFPSIp77_4core7convert4FromReE4fromCsk0EuziVMDa8_11time_macros, symObjAddr: 0x15FC, symBinAddr: 0x37FC4, symSize: 0x2C }
  - { offset: 0x4F5AA, size: 0x8, addend: 0x0, symName: __RNvMNtCsdze8u8oDPro_5alloc5allocNtB2_6Global10alloc_implCsk0EuziVMDa8_11time_macros, symObjAddr: 0x578, symBinAddr: 0x36F40, symSize: 0x1BC }
  - { offset: 0x4FF69, size: 0x8, addend: 0x0, symName: __RINvMs3_NtNtCsjLJ1XWNSM6u_10proc_macro6bridge6bufferNtB6_6Buffer17extend_from_arrayKj4_ECsk0EuziVMDa8_11time_macros, symObjAddr: 0x0, symBinAddr: 0x3AC28, symSize: 0x210 }
  - { offset: 0x5157F, size: 0x8, addend: 0x0, symName: __RNvXs0_NtNtCsdze8u8oDPro_5alloc3vec16in_place_collectINtNtNtCs9f3LFPSIp77_4core4iter8adapters12GenericShuntINtNtBS_3map3MapINtNtB7_9into_iter8IntoIterNtNtNtCsk0EuziVMDa8_11time_macros18format_description3ast23NestedFormatDescriptionENCNvMNtB2s_11format_itemNtB3O_4Item8from_ast0EINtNtBW_6result6ResultNtNtBW_7convert10InfallibleNtB2s_5ErrorEEINtB5_18SpecInPlaceCollectINtNtB9_5boxed3BoxSB47_EBP_E16collect_in_placeB2u_, symObjAddr: 0x3170, symBinAddr: 0x3DD98, symSize: 0xC8 }
  - { offset: 0x516CE, size: 0x8, addend: 0x0, symName: __RNvXs0_NtNtCsdze8u8oDPro_5alloc3vec16in_place_collectINtNtNtCs9f3LFPSIp77_4core4iter8adapters12GenericShuntINtNtBS_3map3MapINtNtB7_9into_iter8IntoIterNtNtNtCsk0EuziVMDa8_11time_macros18format_description3ast4ItemENvMNtB2s_11format_itemNtB3s_4Item8from_astEINtNtBW_6result6ResultNtNtBW_7convert10InfallibleNtB2s_5ErrorEEINtB5_18SpecInPlaceCollectB3L_BP_E16collect_in_placeB2u_, symObjAddr: 0x3238, symBinAddr: 0x3DE60, symSize: 0xC8 }
  - { offset: 0x525E8, size: 0x8, addend: 0x0, symName: __RNvNvXs0_NtNtCs9f3LFPSIp77_4core5slice5indexjINtB7_10SliceIndexSpE13get_unchecked18precondition_checkCsk0EuziVMDa8_11time_macros, symObjAddr: 0x2A58, symBinAddr: 0x3D680, symSize: 0x40 }
  - { offset: 0x5261F, size: 0x8, addend: 0x0, symName: __RNvXs0_NtNtCs9f3LFPSIp77_4core5slice5indexjINtB5_10SliceIndexShE3getCsk0EuziVMDa8_11time_macros, symObjAddr: 0x3120, symBinAddr: 0x3DD48, symSize: 0x50 }
  - { offset: 0x526A8, size: 0x8, addend: 0x0, symName: __RNvNvXs1_NtNtCs9f3LFPSIp77_4core5slice5indexNtNtNtBb_3ops11index_range10IndexRangeINtB7_10SliceIndexSpE17get_unchecked_mut18precondition_checkCsk0EuziVMDa8_11time_macros, symObjAddr: 0x2A98, symBinAddr: 0x3D6C0, symSize: 0x40 }
  - { offset: 0x526EA, size: 0x8, addend: 0x0, symName: __RNvNvXs2_NtNtCs9f3LFPSIp77_4core5slice5indexINtNtNtBb_3ops5range5RangejEINtB7_10SliceIndexSpE13get_unchecked18precondition_checkCsk0EuziVMDa8_11time_macros, symObjAddr: 0x2AD8, symBinAddr: 0x3D700, symSize: 0x60 }
  - { offset: 0x527B6, size: 0x8, addend: 0x0, symName: __RINvNtNtCs9f3LFPSIp77_4core4iter8adapters11try_processINtNtB2_3map3MapIBR_INtNtNtB4_7sources7from_fn6FromFnNCINvNtNtCsk0EuziVMDa8_11time_macros18format_description3ast11parse_innerIB1b_NCINvNtB1O_5lexer3lexKh1_E0EKb0_KB3j_E0ENCINvNtB1O_11format_item5parseB1a_E0ENCINvB1O_5parseKB3j_E0ENtNtB1O_6public15OwnedFormatItemINtNtB6_6result6ResultNtNtB6_7convert10InfallibleNtB1O_5ErrorENCINvXsn_B58_IB56_INtNtCsdze8u8oDPro_5alloc3vec3VecB4z_EB5S_EINtNtNtB4_6traits7collect12FromIteratorIB56_B4z_B5S_EE9from_iterBQ_E0B6n_EB1Q_, symObjAddr: 0x420, symBinAddr: 0x3B048, symSize: 0x154 }
  - { offset: 0x5287A, size: 0x8, addend: 0x0, symName: __RINvNtNtCs9f3LFPSIp77_4core4iter8adapters11try_processINtNtB2_3map3MapIBR_INtNtNtB4_7sources7from_fn6FromFnNCINvNtNtCsk0EuziVMDa8_11time_macros18format_description3ast11parse_innerIB1b_NCINvNtB1O_5lexer3lexKh2_E0EKb0_KB3j_E0ENCINvNtB1O_11format_item5parseB1a_E0ENCINvB1O_5parseKB3j_E0ENtNtB1O_6public15OwnedFormatItemINtNtB6_6result6ResultNtNtB6_7convert10InfallibleNtB1O_5ErrorENCINvXsn_B58_IB56_INtNtCsdze8u8oDPro_5alloc3vec3VecB4z_EB5S_EINtNtNtB4_6traits7collect12FromIteratorIB56_B4z_B5S_EE9from_iterBQ_E0B6n_EB1Q_, symObjAddr: 0x574, symBinAddr: 0x3B19C, symSize: 0x154 }
  - { offset: 0x5293E, size: 0x8, addend: 0x0, symName: __RINvNtNtCs9f3LFPSIp77_4core4iter8adapters11try_processINtNtB2_3map3MapINtNtNtCsdze8u8oDPro_5alloc3vec9into_iter8IntoIterNtNtNtCsk0EuziVMDa8_11time_macros18format_description3ast23NestedFormatDescriptionENCNvMNtB1Y_11format_itemNtB3k_4Item8from_ast0EINtNtB1d_5boxed3BoxSB3D_EINtNtB6_6result6ResultNtNtB6_7convert10InfallibleNtB1Y_5ErrorENCINvXsn_B4r_IB4p_IB40_SB3Z_EB5b_EINtNtNtB4_6traits7collect12FromIteratorIB4p_B3Z_B5b_EE9from_iterBQ_E0B5G_EB20_, symObjAddr: 0x6C8, symBinAddr: 0x3B2F0, symSize: 0x174 }
  - { offset: 0x52A04, size: 0x8, addend: 0x0, symName: __RINvNtNtCs9f3LFPSIp77_4core4iter8adapters11try_processINtNtB2_3map3MapINtNtNtCsdze8u8oDPro_5alloc3vec9into_iter8IntoIterNtNtNtCsk0EuziVMDa8_11time_macros18format_description3ast4ItemENvMNtB1Y_11format_itemNtB2Y_4Item8from_astEB3h_INtNtB6_6result6ResultNtNtB6_7convert10InfallibleNtB1Y_5ErrorENCINvXsn_B3J_IB3H_INtNtB1d_5boxed3BoxSB3h_EB4t_EINtNtNtB4_6traits7collect12FromIteratorIB3H_B3h_B4t_EE9from_iterBQ_E0B4Y_EB20_, symObjAddr: 0x83C, symBinAddr: 0x3B464, symSize: 0x174 }
  - { offset: 0x52ACA, size: 0x8, addend: 0x0, symName: __RINvNtNtCs9f3LFPSIp77_4core4iter8adapters11try_processINtNtNtB4_7sources7from_fn6FromFnNCINvNtNtCsk0EuziVMDa8_11time_macros18format_description3ast11parse_innerIBR_NCINvNtB1u_5lexer3lexKh1_E0EKb1_KB2Y_E0ENtB1s_4ItemINtNtB6_6result6ResultNtNtB6_7convert10InfallibleNtB1u_5ErrorENCINvXsn_B3u_IB3s_INtNtCsdze8u8oDPro_5alloc5boxed3BoxSB3g_EB4e_EINtNtNtB4_6traits7collect12FromIteratorIB3s_B3g_B4e_EE9from_iterBQ_E0B4J_EB1w_, symObjAddr: 0x9B0, symBinAddr: 0x3B5D8, symSize: 0x148 }
  - { offset: 0x52B8F, size: 0x8, addend: 0x0, symName: __RINvNtNtCs9f3LFPSIp77_4core4iter8adapters11try_processINtNtNtB4_7sources7from_fn6FromFnNCINvNtNtCsk0EuziVMDa8_11time_macros18format_description3ast11parse_innerIBR_NCINvNtB1u_5lexer3lexKh2_E0EKb1_KB2Y_E0ENtB1s_4ItemINtNtB6_6result6ResultNtNtB6_7convert10InfallibleNtB1u_5ErrorENCINvXsn_B3u_IB3s_INtNtCsdze8u8oDPro_5alloc5boxed3BoxSB3g_EB4e_EINtNtNtB4_6traits7collect12FromIteratorIB3s_B3g_B4e_EE9from_iterBQ_E0B4J_EB1w_, symObjAddr: 0xAF8, symBinAddr: 0x3B720, symSize: 0x148 }
  - { offset: 0x52C59, size: 0x8, addend: 0x0, symName: __RINvXNtNtCs9f3LFPSIp77_4core4iter8adaptersINtB3_12GenericShuntINtNtB3_3map3MapIBZ_INtNtNtB5_7sources7from_fn6FromFnNCINvNtNtCsk0EuziVMDa8_11time_macros18format_description3ast11parse_innerIB1j_NCINvNtB1W_5lexer3lexKh1_E0EKb0_KB3r_E0ENCINvNtB1W_11format_item5parseB1i_E0ENCINvB1W_5parseKB3r_E0EINtNtB7_6result6ResultNtNtB7_7convert10InfallibleNtB1W_5ErrorEENtNtNtB5_6traits8iterator8Iterator8try_folduNCINvNvB5I_12try_for_each4callNtNtB1W_6public15OwnedFormatItemINtNtNtB7_3ops12control_flow11ControlFlowB6U_ENcNtB7q_5Break0E0B7q_EB1Y_, symObjAddr: 0xCF0, symBinAddr: 0x3B918, symSize: 0x9C }
  - { offset: 0x52D0F, size: 0x8, addend: 0x0, symName: __RINvXNtNtCs9f3LFPSIp77_4core4iter8adaptersINtB3_12GenericShuntINtNtB3_3map3MapIBZ_INtNtNtB5_7sources7from_fn6FromFnNCINvNtNtCsk0EuziVMDa8_11time_macros18format_description3ast11parse_innerIB1j_NCINvNtB1W_5lexer3lexKh2_E0EKb0_KB3r_E0ENCINvNtB1W_11format_item5parseB1i_E0ENCINvB1W_5parseKB3r_E0EINtNtB7_6result6ResultNtNtB7_7convert10InfallibleNtB1W_5ErrorEENtNtNtB5_6traits8iterator8Iterator8try_folduNCINvNvB5I_12try_for_each4callNtNtB1W_6public15OwnedFormatItemINtNtNtB7_3ops12control_flow11ControlFlowB6U_ENcNtB7q_5Break0E0B7q_EB1Y_, symObjAddr: 0xD8C, symBinAddr: 0x3B9B4, symSize: 0x9C }
  - { offset: 0x52DC5, size: 0x8, addend: 0x0, symName: __RINvXNtNtCs9f3LFPSIp77_4core4iter8adaptersINtB3_12GenericShuntINtNtB3_3map3MapINtNtNtCsdze8u8oDPro_5alloc3vec9into_iter8IntoIterNtNtNtCsk0EuziVMDa8_11time_macros18format_description3ast23NestedFormatDescriptionENCNvMNtB26_11format_itemNtB3s_4Item8from_ast0EINtNtB7_6result6ResultNtNtB7_7convert10InfallibleNtB26_5ErrorEENtNtNtB5_6traits8iterator8Iterator8try_foldINtNtB1j_13in_place_drop11InPlaceDropINtNtB1l_5boxed3BoxSB3L_EENCINvNtB1j_16in_place_collect24write_in_place_with_dropB6q_E0IB48_B5P_zEEB28_, symObjAddr: 0xE28, symBinAddr: 0x3BA50, symSize: 0xC8 }
  - { offset: 0x52E7C, size: 0x8, addend: 0x0, symName: __RINvXNtNtCs9f3LFPSIp77_4core4iter8adaptersINtB3_12GenericShuntINtNtB3_3map3MapINtNtNtCsdze8u8oDPro_5alloc3vec9into_iter8IntoIterNtNtNtCsk0EuziVMDa8_11time_macros18format_description3ast4ItemENvMNtB26_11format_itemNtB36_4Item8from_astEINtNtB7_6result6ResultNtNtB7_7convert10InfallibleNtB26_5ErrorEENtNtNtB5_6traits8iterator8Iterator8try_foldINtNtB1j_13in_place_drop11InPlaceDropB3p_ENCINvNtB1j_16in_place_collect24write_in_place_with_dropB3p_E0IB3L_B5s_zEEB28_, symObjAddr: 0xEF0, symBinAddr: 0x3BB18, symSize: 0xC8 }
  - { offset: 0x52F33, size: 0x8, addend: 0x0, symName: __RINvXNtNtCs9f3LFPSIp77_4core4iter8adaptersINtB3_12GenericShuntINtNtNtB5_7sources7from_fn6FromFnNCINvNtNtCsk0EuziVMDa8_11time_macros18format_description3ast11parse_innerIBZ_NCINvNtB1C_5lexer3lexKh1_E0EKb1_KB36_E0EINtNtB7_6result6ResultNtNtB7_7convert10InfallibleNtB1C_5ErrorEENtNtNtB5_6traits8iterator8Iterator8try_folduNCINvNvB4p_12try_for_each4callNtB1A_4ItemINtNtNtB7_3ops12control_flow11ControlFlowB5B_ENcNtB5M_5Break0E0B5M_EB1E_, symObjAddr: 0xFB8, symBinAddr: 0x3BBE0, symSize: 0xB4 }
  - { offset: 0x52FEA, size: 0x8, addend: 0x0, symName: __RINvXNtNtCs9f3LFPSIp77_4core4iter8adaptersINtB3_12GenericShuntINtNtNtB5_7sources7from_fn6FromFnNCINvNtNtCsk0EuziVMDa8_11time_macros18format_description3ast11parse_innerIBZ_NCINvNtB1C_5lexer3lexKh2_E0EKb1_KB36_E0EINtNtB7_6result6ResultNtNtB7_7convert10InfallibleNtB1C_5ErrorEENtNtNtB5_6traits8iterator8Iterator8try_folduNCINvNvB4p_12try_for_each4callNtB1A_4ItemINtNtNtB7_3ops12control_flow11ControlFlowB5B_ENcNtB5M_5Break0E0B5M_EB1E_, symObjAddr: 0x106C, symBinAddr: 0x3BC94, symSize: 0xB4 }
  - { offset: 0x530A6, size: 0x8, addend: 0x0, symName: __RNCINvXNtNtCs9f3LFPSIp77_4core4iter8adaptersINtB5_12GenericShuntINtNtB5_3map3MapIB11_INtNtNtB7_7sources7from_fn6FromFnNCINvNtNtCsk0EuziVMDa8_11time_macros18format_description3ast11parse_innerIB1m_NCINvNtB1Z_5lexer3lexKh1_E0EKb0_KB3u_E0ENCINvNtB1Z_11format_item5parseB1l_E0ENCINvB1Z_5parseKB3u_E0EINtNtB9_6result6ResultNtNtB9_7convert10InfallibleNtB1Z_5ErrorEENtNtNtB7_6traits8iterator8Iterator8try_folduNCINvNvB5L_12try_for_each4callNtNtB1Z_6public15OwnedFormatItemINtNtNtB9_3ops12control_flow11ControlFlowB6X_ENcNtB7t_5Break0E0B7t_E0B21_, symObjAddr: 0x17D8, symBinAddr: 0x3C400, symSize: 0x1A8 }
  - { offset: 0x53198, size: 0x8, addend: 0x0, symName: __RNCINvXNtNtCs9f3LFPSIp77_4core4iter8adaptersINtB5_12GenericShuntINtNtB5_3map3MapIB11_INtNtNtB7_7sources7from_fn6FromFnNCINvNtNtCsk0EuziVMDa8_11time_macros18format_description3ast11parse_innerIB1m_NCINvNtB1Z_5lexer3lexKh2_E0EKb0_KB3u_E0ENCINvNtB1Z_11format_item5parseB1l_E0ENCINvB1Z_5parseKB3u_E0EINtNtB9_6result6ResultNtNtB9_7convert10InfallibleNtB1Z_5ErrorEENtNtNtB7_6traits8iterator8Iterator8try_folduNCINvNvB5L_12try_for_each4callNtNtB1Z_6public15OwnedFormatItemINtNtNtB9_3ops12control_flow11ControlFlowB6X_ENcNtB7t_5Break0E0B7t_E0B21_, symObjAddr: 0x1980, symBinAddr: 0x3C5A8, symSize: 0x1A8 }
  - { offset: 0x5328A, size: 0x8, addend: 0x0, symName: __RNCINvXNtNtCs9f3LFPSIp77_4core4iter8adaptersINtB5_12GenericShuntINtNtB5_3map3MapINtNtNtCsdze8u8oDPro_5alloc3vec9into_iter8IntoIterNtNtNtCsk0EuziVMDa8_11time_macros18format_description3ast23NestedFormatDescriptionENCNvMNtB28_11format_itemNtB3u_4Item8from_ast0EINtNtB9_6result6ResultNtNtB9_7convert10InfallibleNtB28_5ErrorEENtNtNtB7_6traits8iterator8Iterator8try_foldINtNtB1l_13in_place_drop11InPlaceDropINtNtB1n_5boxed3BoxSB3N_EENCINvNtB1l_16in_place_collect24write_in_place_with_dropB6s_E0IB4a_B5R_zEE0B2a_, symObjAddr: 0x1B28, symBinAddr: 0x3C750, symSize: 0x1C8 }
  - { offset: 0x53377, size: 0x8, addend: 0x0, symName: __RNCINvXNtNtCs9f3LFPSIp77_4core4iter8adaptersINtB5_12GenericShuntINtNtB5_3map3MapINtNtNtCsdze8u8oDPro_5alloc3vec9into_iter8IntoIterNtNtNtCsk0EuziVMDa8_11time_macros18format_description3ast4ItemENvMNtB28_11format_itemNtB38_4Item8from_astEINtNtB9_6result6ResultNtNtB9_7convert10InfallibleNtB28_5ErrorEENtNtNtB7_6traits8iterator8Iterator8try_foldINtNtB1l_13in_place_drop11InPlaceDropB3r_ENCINvNtB1l_16in_place_collect24write_in_place_with_dropB3r_E0IB3N_B5u_zEE0B2a_, symObjAddr: 0x1CF0, symBinAddr: 0x3C918, symSize: 0x1D0 }
  - { offset: 0x53465, size: 0x8, addend: 0x0, symName: __RNCINvXNtNtCs9f3LFPSIp77_4core4iter8adaptersINtB5_12GenericShuntINtNtNtB7_7sources7from_fn6FromFnNCINvNtNtCsk0EuziVMDa8_11time_macros18format_description3ast11parse_innerIB11_NCINvNtB1E_5lexer3lexKh1_E0EKb1_KB39_E0EINtNtB9_6result6ResultNtNtB9_7convert10InfallibleNtB1E_5ErrorEENtNtNtB7_6traits8iterator8Iterator8try_folduNCINvNvB4s_12try_for_each4callNtB1C_4ItemINtNtNtB9_3ops12control_flow11ControlFlowB5E_ENcNtB5P_5Break0E0B5P_E0B1G_, symObjAddr: 0x1EC0, symBinAddr: 0x3CAE8, symSize: 0x1BC }
  - { offset: 0x53557, size: 0x8, addend: 0x0, symName: __RNCINvXNtNtCs9f3LFPSIp77_4core4iter8adaptersINtB5_12GenericShuntINtNtNtB7_7sources7from_fn6FromFnNCINvNtNtCsk0EuziVMDa8_11time_macros18format_description3ast11parse_innerIB11_NCINvNtB1E_5lexer3lexKh2_E0EKb1_KB39_E0EINtNtB9_6result6ResultNtNtB9_7convert10InfallibleNtB1E_5ErrorEENtNtNtB7_6traits8iterator8Iterator8try_folduNCINvNvB4s_12try_for_each4callNtB1C_4ItemINtNtNtB9_3ops12control_flow11ControlFlowB5E_ENcNtB5P_5Break0E0B5P_E0B1G_, symObjAddr: 0x207C, symBinAddr: 0x3CCA4, symSize: 0x1BC }
  - { offset: 0x536C2, size: 0x8, addend: 0x0, symName: __RNvXNtNtCs9f3LFPSIp77_4core4iter8adaptersINtB2_12GenericShuntINtNtB2_3map3MapIBY_INtNtNtB4_7sources7from_fn6FromFnNCINvNtNtCsk0EuziVMDa8_11time_macros18format_description3ast11parse_innerIB1i_NCINvNtB1V_5lexer3lexKh1_E0EKb0_KB3q_E0ENCINvNtB1V_11format_item5parseB1h_E0ENCINvB1V_5parseKB3q_E0EINtNtB6_6result6ResultNtNtB6_7convert10InfallibleNtB1V_5ErrorEENtNtNtB4_6traits8iterator8Iterator4nextB1X_, symObjAddr: 0x2B38, symBinAddr: 0x3D760, symSize: 0x9C }
  - { offset: 0x53750, size: 0x8, addend: 0x0, symName: __RNvXNtNtCs9f3LFPSIp77_4core4iter8adaptersINtB2_12GenericShuntINtNtB2_3map3MapIBY_INtNtNtB4_7sources7from_fn6FromFnNCINvNtNtCsk0EuziVMDa8_11time_macros18format_description3ast11parse_innerIB1i_NCINvNtB1V_5lexer3lexKh1_E0EKb0_KB3q_E0ENCINvNtB1V_11format_item5parseB1h_E0ENCINvB1V_5parseKB3q_E0EINtNtB6_6result6ResultNtNtB6_7convert10InfallibleNtB1V_5ErrorEENtNtNtB4_6traits8iterator8Iterator9size_hintB1X_, symObjAddr: 0x2BD4, symBinAddr: 0x3D7FC, symSize: 0xA4 }
  - { offset: 0x537C8, size: 0x8, addend: 0x0, symName: __RNvXNtNtCs9f3LFPSIp77_4core4iter8adaptersINtB2_12GenericShuntINtNtB2_3map3MapIBY_INtNtNtB4_7sources7from_fn6FromFnNCINvNtNtCsk0EuziVMDa8_11time_macros18format_description3ast11parse_innerIB1i_NCINvNtB1V_5lexer3lexKh2_E0EKb0_KB3q_E0ENCINvNtB1V_11format_item5parseB1h_E0ENCINvB1V_5parseKB3q_E0EINtNtB6_6result6ResultNtNtB6_7convert10InfallibleNtB1V_5ErrorEENtNtNtB4_6traits8iterator8Iterator4nextB1X_, symObjAddr: 0x2C78, symBinAddr: 0x3D8A0, symSize: 0x9C }
  - { offset: 0x53856, size: 0x8, addend: 0x0, symName: __RNvXNtNtCs9f3LFPSIp77_4core4iter8adaptersINtB2_12GenericShuntINtNtB2_3map3MapIBY_INtNtNtB4_7sources7from_fn6FromFnNCINvNtNtCsk0EuziVMDa8_11time_macros18format_description3ast11parse_innerIB1i_NCINvNtB1V_5lexer3lexKh2_E0EKb0_KB3q_E0ENCINvNtB1V_11format_item5parseB1h_E0ENCINvB1V_5parseKB3q_E0EINtNtB6_6result6ResultNtNtB6_7convert10InfallibleNtB1V_5ErrorEENtNtNtB4_6traits8iterator8Iterator9size_hintB1X_, symObjAddr: 0x2D14, symBinAddr: 0x3D93C, symSize: 0xA4 }
  - { offset: 0x538CE, size: 0x8, addend: 0x0, symName: __RNvXNtNtCs9f3LFPSIp77_4core4iter8adaptersINtB2_12GenericShuntINtNtNtB4_7sources7from_fn6FromFnNCINvNtNtCsk0EuziVMDa8_11time_macros18format_description3ast11parse_innerIBY_NCINvNtB1B_5lexer3lexKh1_E0EKb1_KB35_E0EINtNtB6_6result6ResultNtNtB6_7convert10InfallibleNtB1B_5ErrorEENtNtNtB4_6traits8iterator8Iterator4nextB1D_, symObjAddr: 0x2DB8, symBinAddr: 0x3D9E0, symSize: 0xA4 }
  - { offset: 0x5395D, size: 0x8, addend: 0x0, symName: __RNvXNtNtCs9f3LFPSIp77_4core4iter8adaptersINtB2_12GenericShuntINtNtNtB4_7sources7from_fn6FromFnNCINvNtNtCsk0EuziVMDa8_11time_macros18format_description3ast11parse_innerIBY_NCINvNtB1B_5lexer3lexKh1_E0EKb1_KB35_E0EINtNtB6_6result6ResultNtNtB6_7convert10InfallibleNtB1B_5ErrorEENtNtNtB4_6traits8iterator8Iterator9size_hintB1D_, symObjAddr: 0x2E5C, symBinAddr: 0x3DA84, symSize: 0xA4 }
  - { offset: 0x539D5, size: 0x8, addend: 0x0, symName: __RNvXNtNtCs9f3LFPSIp77_4core4iter8adaptersINtB2_12GenericShuntINtNtNtB4_7sources7from_fn6FromFnNCINvNtNtCsk0EuziVMDa8_11time_macros18format_description3ast11parse_innerIBY_NCINvNtB1B_5lexer3lexKh2_E0EKb1_KB35_E0EINtNtB6_6result6ResultNtNtB6_7convert10InfallibleNtB1B_5ErrorEENtNtNtB4_6traits8iterator8Iterator4nextB1D_, symObjAddr: 0x2F00, symBinAddr: 0x3DB28, symSize: 0xA4 }
  - { offset: 0x53A64, size: 0x8, addend: 0x0, symName: __RNvXNtNtCs9f3LFPSIp77_4core4iter8adaptersINtB2_12GenericShuntINtNtNtB4_7sources7from_fn6FromFnNCINvNtNtCsk0EuziVMDa8_11time_macros18format_description3ast11parse_innerIBY_NCINvNtB1B_5lexer3lexKh2_E0EKb1_KB35_E0EINtNtB6_6result6ResultNtNtB6_7convert10InfallibleNtB1B_5ErrorEENtNtNtB4_6traits8iterator8Iterator9size_hintB1D_, symObjAddr: 0x2FA4, symBinAddr: 0x3DBCC, symSize: 0xA4 }
  - { offset: 0x53E57, size: 0x8, addend: 0x0, symName: __RNvXs_NtNtCs9f3LFPSIp77_4core4iter8adaptersINtB4_12GenericShuntINtNtB4_3map3MapINtNtNtCsdze8u8oDPro_5alloc3vec9into_iter8IntoIterNtNtNtCsk0EuziVMDa8_11time_macros18format_description3ast23NestedFormatDescriptionENCNvMNtB27_11format_itemNtB3t_4Item8from_ast0EINtNtB8_6result6ResultNtNtB8_7convert10InfallibleNtB27_5ErrorEENtB4_10SourceIter8as_innerB29_, symObjAddr: 0x3438, symBinAddr: 0x3E060, symSize: 0x24 }
  - { offset: 0x53E95, size: 0x8, addend: 0x0, symName: __RNvXs_NtNtCs9f3LFPSIp77_4core4iter8adaptersINtB4_12GenericShuntINtNtB4_3map3MapINtNtNtCsdze8u8oDPro_5alloc3vec9into_iter8IntoIterNtNtNtCsk0EuziVMDa8_11time_macros18format_description3ast4ItemENvMNtB27_11format_itemNtB37_4Item8from_astEINtNtB8_6result6ResultNtNtB8_7convert10InfallibleNtB27_5ErrorEENtB4_10SourceIter8as_innerB29_, symObjAddr: 0x345C, symBinAddr: 0x3E084, symSize: 0x24 }
  - { offset: 0x53F45, size: 0x8, addend: 0x0, symName: __RINvNtNtNtCs9f3LFPSIp77_4core4iter7sources7from_fn7from_fnINtNtB8_6result6ResultNtNtNtCsk0EuziVMDa8_11time_macros18format_description3ast4ItemNtB1k_5ErrorENCINvB1i_11parse_innerINtB2_6FromFnNCINvNtB1k_5lexer3lexKh1_E0EKb0_KB3o_E0EB1m_, symObjAddr: 0xC40, symBinAddr: 0x3B868, symSize: 0x14 }
  - { offset: 0x53F83, size: 0x8, addend: 0x0, symName: __RINvNtNtNtCs9f3LFPSIp77_4core4iter7sources7from_fn7from_fnINtNtB8_6result6ResultNtNtNtCsk0EuziVMDa8_11time_macros18format_description3ast4ItemNtB1k_5ErrorENCINvB1i_11parse_innerINtB2_6FromFnNCINvNtB1k_5lexer3lexKh1_E0EKb1_KB3o_E0EB1m_, symObjAddr: 0xC54, symBinAddr: 0x3B87C, symSize: 0x14 }
  - { offset: 0x53FC1, size: 0x8, addend: 0x0, symName: __RINvNtNtNtCs9f3LFPSIp77_4core4iter7sources7from_fn7from_fnINtNtB8_6result6ResultNtNtNtCsk0EuziVMDa8_11time_macros18format_description3ast4ItemNtB1k_5ErrorENCINvB1i_11parse_innerINtB2_6FromFnNCINvNtB1k_5lexer3lexKh2_E0EKb0_KB3o_E0EB1m_, symObjAddr: 0xC68, symBinAddr: 0x3B890, symSize: 0x14 }
  - { offset: 0x53FFF, size: 0x8, addend: 0x0, symName: __RINvNtNtNtCs9f3LFPSIp77_4core4iter7sources7from_fn7from_fnINtNtB8_6result6ResultNtNtNtCsk0EuziVMDa8_11time_macros18format_description3ast4ItemNtB1k_5ErrorENCINvB1i_11parse_innerINtB2_6FromFnNCINvNtB1k_5lexer3lexKh2_E0EKb1_KB3o_E0EB1m_, symObjAddr: 0xC7C, symBinAddr: 0x3B8A4, symSize: 0x14 }
  - { offset: 0x5403D, size: 0x8, addend: 0x0, symName: __RINvNtNtNtCs9f3LFPSIp77_4core4iter7sources7from_fn7from_fnINtNtB8_6result6ResultNtNtNtCsk0EuziVMDa8_11time_macros18format_description5lexer5TokenNtB1k_5ErrorENCINvB1i_3lexKh1_E0EB1m_, symObjAddr: 0xC90, symBinAddr: 0x3B8B8, symSize: 0x30 }
  - { offset: 0x5407C, size: 0x8, addend: 0x0, symName: __RINvNtNtNtCs9f3LFPSIp77_4core4iter7sources7from_fn7from_fnINtNtB8_6result6ResultNtNtNtCsk0EuziVMDa8_11time_macros18format_description5lexer5TokenNtB1k_5ErrorENCINvB1i_3lexKh2_E0EB1m_, symObjAddr: 0xCC0, symBinAddr: 0x3B8E8, symSize: 0x30 }
  - { offset: 0x54174, size: 0x8, addend: 0x0, symName: __RNvXNtNtNtCs9f3LFPSIp77_4core4iter7sources7from_fnINtB2_6FromFnNCINvNtNtCsk0EuziVMDa8_11time_macros18format_description3ast11parse_innerIBN_NCINvNtB16_5lexer3lexKh1_E0EKb0_KB2A_E0ENtNtNtB6_6traits8iterator8Iterator4nextB18_, symObjAddr: 0x3048, symBinAddr: 0x3DC70, symSize: 0x24 }
  - { offset: 0x541B2, size: 0x8, addend: 0x0, symName: __RNvXNtNtNtCs9f3LFPSIp77_4core4iter7sources7from_fnINtB2_6FromFnNCINvNtNtCsk0EuziVMDa8_11time_macros18format_description3ast11parse_innerIBN_NCINvNtB16_5lexer3lexKh1_E0EKb1_KB2A_E0ENtNtNtB6_6traits8iterator8Iterator4nextB18_, symObjAddr: 0x306C, symBinAddr: 0x3DC94, symSize: 0x24 }
  - { offset: 0x541F0, size: 0x8, addend: 0x0, symName: __RNvXNtNtNtCs9f3LFPSIp77_4core4iter7sources7from_fnINtB2_6FromFnNCINvNtNtCsk0EuziVMDa8_11time_macros18format_description3ast11parse_innerIBN_NCINvNtB16_5lexer3lexKh2_E0EKb0_KB2A_E0ENtNtNtB6_6traits8iterator8Iterator4nextB18_, symObjAddr: 0x3090, symBinAddr: 0x3DCB8, symSize: 0x24 }
  - { offset: 0x5422E, size: 0x8, addend: 0x0, symName: __RNvXNtNtNtCs9f3LFPSIp77_4core4iter7sources7from_fnINtB2_6FromFnNCINvNtNtCsk0EuziVMDa8_11time_macros18format_description3ast11parse_innerIBN_NCINvNtB16_5lexer3lexKh2_E0EKb1_KB2A_E0ENtNtNtB6_6traits8iterator8Iterator4nextB18_, symObjAddr: 0x30B4, symBinAddr: 0x3DCDC, symSize: 0x24 }
  - { offset: 0x5426C, size: 0x8, addend: 0x0, symName: __RNvXNtNtNtCs9f3LFPSIp77_4core4iter7sources7from_fnINtB2_6FromFnNCINvNtNtCsk0EuziVMDa8_11time_macros18format_description5lexer3lexKh1_E0ENtNtNtB6_6traits8iterator8Iterator4nextB18_, symObjAddr: 0x30D8, symBinAddr: 0x3DD00, symSize: 0x24 }
  - { offset: 0x542AA, size: 0x8, addend: 0x0, symName: __RNvXNtNtNtCs9f3LFPSIp77_4core4iter7sources7from_fnINtB2_6FromFnNCINvNtNtCsk0EuziVMDa8_11time_macros18format_description5lexer3lexKh2_E0ENtNtNtB6_6traits8iterator8Iterator4nextB18_, symObjAddr: 0x30FC, symBinAddr: 0x3DD24, symSize: 0x24 }
  - { offset: 0x542FA, size: 0x8, addend: 0x0, symName: __RINvYINtNtNtCs9f3LFPSIp77_4core4iter8adapters12GenericShuntINtNtB6_3map3MapINtNtNtCsdze8u8oDPro_5alloc3vec9into_iter8IntoIterNtNtNtCsk0EuziVMDa8_11time_macros18format_description3ast23NestedFormatDescriptionENCNvMNtB23_11format_itemNtB3p_4Item8from_ast0EINtNtBa_6result6ResultNtNtBa_7convert10InfallibleNtB23_5ErrorEENtNtNtB8_6traits8iterator8Iterator7collectINtB1g_3VecINtNtB1i_5boxed3BoxSB3I_EEEB25_, symObjAddr: 0x1120, symBinAddr: 0x3BD48, symSize: 0x14 }
  - { offset: 0x5433B, size: 0x8, addend: 0x0, symName: __RINvYINtNtNtCs9f3LFPSIp77_4core4iter8adapters12GenericShuntINtNtB6_3map3MapINtNtNtCsdze8u8oDPro_5alloc3vec9into_iter8IntoIterNtNtNtCsk0EuziVMDa8_11time_macros18format_description3ast4ItemENvMNtB23_11format_itemNtB33_4Item8from_astEINtNtBa_6result6ResultNtNtBa_7convert10InfallibleNtB23_5ErrorEENtNtNtB8_6traits8iterator8Iterator7collectINtB1g_3VecB3m_EEB25_, symObjAddr: 0x1134, symBinAddr: 0x3BD5C, symSize: 0x14 }
  - { offset: 0x5437C, size: 0x8, addend: 0x0, symName: __RINvYINtNtNtCs9f3LFPSIp77_4core4iter8adapters12GenericShuntINtNtNtB8_7sources7from_fn6FromFnNCINvNtNtCsk0EuziVMDa8_11time_macros18format_description3ast11parse_innerIBW_NCINvNtB1z_5lexer3lexKh1_E0EKb1_KB33_E0EINtNtBa_6result6ResultNtNtBa_7convert10InfallibleNtB1z_5ErrorEENtNtNtB8_6traits8iterator8Iterator7collectINtNtCsdze8u8oDPro_5alloc3vec3VecNtB1x_4ItemEEB1B_, symObjAddr: 0x1148, symBinAddr: 0x3BD70, symSize: 0x2C }
  - { offset: 0x543BC, size: 0x8, addend: 0x0, symName: __RINvYINtNtNtCs9f3LFPSIp77_4core4iter8adapters12GenericShuntINtNtNtB8_7sources7from_fn6FromFnNCINvNtNtCsk0EuziVMDa8_11time_macros18format_description3ast11parse_innerIBW_NCINvNtB1z_5lexer3lexKh2_E0EKb1_KB33_E0EINtNtBa_6result6ResultNtNtBa_7convert10InfallibleNtB1z_5ErrorEENtNtNtB8_6traits8iterator8Iterator7collectINtNtCsdze8u8oDPro_5alloc3vec3VecNtB1x_4ItemEEB1B_, symObjAddr: 0x1174, symBinAddr: 0x3BD9C, symSize: 0x2C }
  - { offset: 0x543FC, size: 0x8, addend: 0x0, symName: __RINvYINtNtNtNtCs9f3LFPSIp77_4core4iter7sources7from_fn6FromFnNCINvNtNtCsk0EuziVMDa8_11time_macros18format_description3ast11parse_innerIB4_NCINvNtB14_5lexer3lexKh1_E0EKb0_KB2y_E0ENtNtNtBa_6traits8iterator8Iterator3mapINtNtBc_6result6ResultNtNtB14_11format_item4ItemNtB14_5ErrorENCINvB3Q_5parseB3_E0EB16_, symObjAddr: 0x11A0, symBinAddr: 0x3BDC8, symSize: 0x14 }
  - { offset: 0x54454, size: 0x8, addend: 0x0, symName: __RINvYINtNtNtNtCs9f3LFPSIp77_4core4iter7sources7from_fn6FromFnNCINvNtNtCsk0EuziVMDa8_11time_macros18format_description3ast11parse_innerIB4_NCINvNtB14_5lexer3lexKh1_E0EKb0_KB2y_E0ENtNtNtBa_6traits8iterator8Iterator8try_folduNCINvNtNtBa_8adapters3map12map_try_foldINtNtBc_6result6ResultNtB12_4ItemNtB14_5ErrorEIB4c_NtNtB14_11format_item4ItemB4I_EuINtNtNtBc_3ops12control_flow11ControlFlowIB5x_NtNtB14_6public15OwnedFormatItemEENCINvB52_5parseB3_E0NCIB3B_B4V_IB4c_B6g_B4I_EuB5w_NCINvB14_5parseKB2y_E0NCINvXB3F_INtB3F_12GenericShuntINtB3D_3MapIB8u_B3_B6O_EB7C_EIB4c_NtNtBc_7convert10InfallibleB4I_EEB2Q_8try_folduNCINvNvB2Q_12try_for_each4callB6g_B6b_NcNtB6b_5Break0E0B6b_E0E0E0B5w_EB16_, symObjAddr: 0x11B4, symBinAddr: 0x3BDDC, symSize: 0x16C }
  - { offset: 0x54510, size: 0x8, addend: 0x0, symName: __RINvYINtNtNtNtCs9f3LFPSIp77_4core4iter7sources7from_fn6FromFnNCINvNtNtCsk0EuziVMDa8_11time_macros18format_description3ast11parse_innerIB4_NCINvNtB14_5lexer3lexKh1_E0EKb1_KB2y_E0ENtNtNtBa_6traits8iterator8Iterator7collectINtNtBc_6result6ResultINtNtCsdze8u8oDPro_5alloc5boxed3BoxSNtB12_4ItemENtB14_5ErrorEEB16_, symObjAddr: 0x1320, symBinAddr: 0x3BF48, symSize: 0x24 }
  - { offset: 0x54550, size: 0x8, addend: 0x0, symName: __RINvYINtNtNtNtCs9f3LFPSIp77_4core4iter7sources7from_fn6FromFnNCINvNtNtCsk0EuziVMDa8_11time_macros18format_description3ast11parse_innerIB4_NCINvNtB14_5lexer3lexKh1_E0EKb1_KB2y_E0ENtNtNtBa_6traits8iterator8Iterator8try_folduNCINvXNtBa_8adaptersINtB3E_12GenericShuntB3_INtNtBc_6result6ResultNtNtBc_7convert10InfallibleNtB14_5ErrorEEB2Q_8try_folduNCINvNvB2Q_12try_for_each4callNtB12_4ItemINtNtNtBc_3ops12control_flow11ControlFlowB5Z_ENcNtB6a_5Break0E0B6a_E0IB6b_B6a_EEB16_, symObjAddr: 0x1344, symBinAddr: 0x3BF6C, symSize: 0x178 }
  - { offset: 0x5460C, size: 0x8, addend: 0x0, symName: __RINvYINtNtNtNtCs9f3LFPSIp77_4core4iter7sources7from_fn6FromFnNCINvNtNtCsk0EuziVMDa8_11time_macros18format_description3ast11parse_innerIB4_NCINvNtB14_5lexer3lexKh2_E0EKb0_KB2y_E0ENtNtNtBa_6traits8iterator8Iterator3mapINtNtBc_6result6ResultNtNtB14_11format_item4ItemNtB14_5ErrorENCINvB3Q_5parseB3_E0EB16_, symObjAddr: 0x14BC, symBinAddr: 0x3C0E4, symSize: 0x14 }
  - { offset: 0x54664, size: 0x8, addend: 0x0, symName: __RINvYINtNtNtNtCs9f3LFPSIp77_4core4iter7sources7from_fn6FromFnNCINvNtNtCsk0EuziVMDa8_11time_macros18format_description3ast11parse_innerIB4_NCINvNtB14_5lexer3lexKh2_E0EKb0_KB2y_E0ENtNtNtBa_6traits8iterator8Iterator8try_folduNCINvNtNtBa_8adapters3map12map_try_foldINtNtBc_6result6ResultNtB12_4ItemNtB14_5ErrorEIB4c_NtNtB14_11format_item4ItemB4I_EuINtNtNtBc_3ops12control_flow11ControlFlowIB5x_NtNtB14_6public15OwnedFormatItemEENCINvB52_5parseB3_E0NCIB3B_B4V_IB4c_B6g_B4I_EuB5w_NCINvB14_5parseKB2y_E0NCINvXB3F_INtB3F_12GenericShuntINtB3D_3MapIB8u_B3_B6O_EB7C_EIB4c_NtNtBc_7convert10InfallibleB4I_EEB2Q_8try_folduNCINvNvB2Q_12try_for_each4callB6g_B6b_NcNtB6b_5Break0E0B6b_E0E0E0B5w_EB16_, symObjAddr: 0x14D0, symBinAddr: 0x3C0F8, symSize: 0x16C }
  - { offset: 0x54720, size: 0x8, addend: 0x0, symName: __RINvYINtNtNtNtCs9f3LFPSIp77_4core4iter7sources7from_fn6FromFnNCINvNtNtCsk0EuziVMDa8_11time_macros18format_description3ast11parse_innerIB4_NCINvNtB14_5lexer3lexKh2_E0EKb1_KB2y_E0ENtNtNtBa_6traits8iterator8Iterator7collectINtNtBc_6result6ResultINtNtCsdze8u8oDPro_5alloc5boxed3BoxSNtB12_4ItemENtB14_5ErrorEEB16_, symObjAddr: 0x163C, symBinAddr: 0x3C264, symSize: 0x24 }
  - { offset: 0x54760, size: 0x8, addend: 0x0, symName: __RINvYINtNtNtNtCs9f3LFPSIp77_4core4iter7sources7from_fn6FromFnNCINvNtNtCsk0EuziVMDa8_11time_macros18format_description3ast11parse_innerIB4_NCINvNtB14_5lexer3lexKh2_E0EKb1_KB2y_E0ENtNtNtBa_6traits8iterator8Iterator8try_folduNCINvXNtBa_8adaptersINtB3E_12GenericShuntB3_INtNtBc_6result6ResultNtNtBc_7convert10InfallibleNtB14_5ErrorEEB2Q_8try_folduNCINvNvB2Q_12try_for_each4callNtB12_4ItemINtNtNtBc_3ops12control_flow11ControlFlowB5Z_ENcNtB6a_5Break0E0B6a_E0IB6b_B6a_EEB16_, symObjAddr: 0x1660, symBinAddr: 0x3C288, symSize: 0x178 }
  - { offset: 0x54930, size: 0x8, addend: 0x0, symName: __RNvYINtNtNtNtCs9f3LFPSIp77_4core4iter7sources7from_fn6FromFnNCINvNtNtCsk0EuziVMDa8_11time_macros18format_description3ast11parse_innerIB3_NCINvNtB13_5lexer3lexKh1_E0EKb0_KB2x_E0ENtNtNtB9_6traits8iterator8Iterator9size_hintB15_, symObjAddr: 0x3578, symBinAddr: 0x3E1A0, symSize: 0x34 }
  - { offset: 0x54965, size: 0x8, addend: 0x0, symName: __RNvYINtNtNtNtCs9f3LFPSIp77_4core4iter7sources7from_fn6FromFnNCINvNtNtCsk0EuziVMDa8_11time_macros18format_description3ast11parse_innerIB3_NCINvNtB13_5lexer3lexKh1_E0EKb1_KB2x_E0ENtNtNtB9_6traits8iterator8Iterator9size_hintB15_, symObjAddr: 0x35AC, symBinAddr: 0x3E1D4, symSize: 0x34 }
  - { offset: 0x5499A, size: 0x8, addend: 0x0, symName: __RNvYINtNtNtNtCs9f3LFPSIp77_4core4iter7sources7from_fn6FromFnNCINvNtNtCsk0EuziVMDa8_11time_macros18format_description3ast11parse_innerIB3_NCINvNtB13_5lexer3lexKh2_E0EKb0_KB2x_E0ENtNtNtB9_6traits8iterator8Iterator9size_hintB15_, symObjAddr: 0x35E0, symBinAddr: 0x3E208, symSize: 0x34 }
  - { offset: 0x549CF, size: 0x8, addend: 0x0, symName: __RNvYINtNtNtNtCs9f3LFPSIp77_4core4iter7sources7from_fn6FromFnNCINvNtNtCsk0EuziVMDa8_11time_macros18format_description3ast11parse_innerIB3_NCINvNtB13_5lexer3lexKh2_E0EKb1_KB2x_E0ENtNtNtB9_6traits8iterator8Iterator9size_hintB15_, symObjAddr: 0x3614, symBinAddr: 0x3E23C, symSize: 0x34 }
  - { offset: 0x54A04, size: 0x8, addend: 0x0, symName: __RNvYINtNtNtNtCs9f3LFPSIp77_4core4iter7sources7from_fn6FromFnNCINvNtNtCsk0EuziVMDa8_11time_macros18format_description5lexer3lexKh1_E0ENtNtNtB9_6traits8iterator8Iterator8peekableB15_, symObjAddr: 0x3648, symBinAddr: 0x3E270, symSize: 0x58 }
  - { offset: 0x54A5B, size: 0x8, addend: 0x0, symName: __RNvYINtNtNtNtCs9f3LFPSIp77_4core4iter7sources7from_fn6FromFnNCINvNtNtCsk0EuziVMDa8_11time_macros18format_description5lexer3lexKh2_E0ENtNtNtB9_6traits8iterator8Iterator8peekableB15_, symObjAddr: 0x36A0, symBinAddr: 0x3E2C8, symSize: 0x58 }
  - { offset: 0x54AF0, size: 0x8, addend: 0x0, symName: __RNvXs_NtNtNtCs9f3LFPSIp77_4core4iter6traits7collectINtNtB8_8adapters12GenericShuntINtNtBQ_3map3MapIB1j_INtNtNtB8_7sources7from_fn6FromFnNCINvNtNtCsk0EuziVMDa8_11time_macros18format_description3ast11parse_innerIB1E_NCINvNtB2h_5lexer3lexKh1_E0EKb0_KB3M_E0ENCINvNtB2h_11format_item5parseB1D_E0ENCINvB2h_5parseKB3M_E0EINtNtBa_6result6ResultNtNtBa_7convert10InfallibleNtB2h_5ErrorEENtB4_12IntoIterator9into_iterB2j_, symObjAddr: 0x3480, symBinAddr: 0x3E0A8, symSize: 0x1C }
  - { offset: 0x54B27, size: 0x8, addend: 0x0, symName: __RNvXs_NtNtNtCs9f3LFPSIp77_4core4iter6traits7collectINtNtB8_8adapters12GenericShuntINtNtBQ_3map3MapIB1j_INtNtNtB8_7sources7from_fn6FromFnNCINvNtNtCsk0EuziVMDa8_11time_macros18format_description3ast11parse_innerIB1E_NCINvNtB2h_5lexer3lexKh2_E0EKb0_KB3M_E0ENCINvNtB2h_11format_item5parseB1D_E0ENCINvB2h_5parseKB3M_E0EINtNtBa_6result6ResultNtNtBa_7convert10InfallibleNtB2h_5ErrorEENtB4_12IntoIterator9into_iterB2j_, symObjAddr: 0x349C, symBinAddr: 0x3E0C4, symSize: 0x1C }
  - { offset: 0x54B5E, size: 0x8, addend: 0x0, symName: __RNvXs_NtNtNtCs9f3LFPSIp77_4core4iter6traits7collectINtNtB8_8adapters12GenericShuntINtNtBQ_3map3MapINtNtNtCsdze8u8oDPro_5alloc3vec9into_iter8IntoIterNtNtNtCsk0EuziVMDa8_11time_macros18format_description3ast23NestedFormatDescriptionENCNvMNtB2q_11format_itemNtB3M_4Item8from_ast0EINtNtBa_6result6ResultNtNtBa_7convert10InfallibleNtB2q_5ErrorEENtB4_12IntoIterator9into_iterB2s_, symObjAddr: 0x34B8, symBinAddr: 0x3E0E0, symSize: 0x30 }
  - { offset: 0x54B96, size: 0x8, addend: 0x0, symName: __RNvXs_NtNtNtCs9f3LFPSIp77_4core4iter6traits7collectINtNtB8_8adapters12GenericShuntINtNtBQ_3map3MapINtNtNtCsdze8u8oDPro_5alloc3vec9into_iter8IntoIterNtNtNtCsk0EuziVMDa8_11time_macros18format_description3ast4ItemENvMNtB2q_11format_itemNtB3q_4Item8from_astEINtNtBa_6result6ResultNtNtBa_7convert10InfallibleNtB2q_5ErrorEENtB4_12IntoIterator9into_iterB2s_, symObjAddr: 0x34E8, symBinAddr: 0x3E110, symSize: 0x30 }
  - { offset: 0x54BCE, size: 0x8, addend: 0x0, symName: __RNvXs_NtNtNtCs9f3LFPSIp77_4core4iter6traits7collectINtNtB8_8adapters12GenericShuntINtNtNtB8_7sources7from_fn6FromFnNCINvNtNtCsk0EuziVMDa8_11time_macros18format_description3ast11parse_innerIB1j_NCINvNtB1W_5lexer3lexKh1_E0EKb1_KB3r_E0EINtNtBa_6result6ResultNtNtBa_7convert10InfallibleNtB1W_5ErrorEENtB4_12IntoIterator9into_iterB1Y_, symObjAddr: 0x3518, symBinAddr: 0x3E140, symSize: 0x1C }
  - { offset: 0x54C05, size: 0x8, addend: 0x0, symName: __RNvXs_NtNtNtCs9f3LFPSIp77_4core4iter6traits7collectINtNtB8_8adapters12GenericShuntINtNtNtB8_7sources7from_fn6FromFnNCINvNtNtCsk0EuziVMDa8_11time_macros18format_description3ast11parse_innerIB1j_NCINvNtB1W_5lexer3lexKh2_E0EKb1_KB3r_E0EINtNtBa_6result6ResultNtNtBa_7convert10InfallibleNtB1W_5ErrorEENtB4_12IntoIterator9into_iterB1Y_, symObjAddr: 0x3534, symBinAddr: 0x3E15C, symSize: 0x1C }
  - { offset: 0x54C3C, size: 0x8, addend: 0x0, symName: __RNvXs_NtNtNtCs9f3LFPSIp77_4core4iter6traits7collectINtNtNtB8_7sources7from_fn6FromFnNCINvNtNtCsk0EuziVMDa8_11time_macros18format_description3ast11parse_innerIBO_NCINvNtB1r_5lexer3lexKh1_E0EKb1_KB2V_E0ENtB4_12IntoIterator9into_iterB1t_, symObjAddr: 0x3550, symBinAddr: 0x3E178, symSize: 0x14 }
  - { offset: 0x54C73, size: 0x8, addend: 0x0, symName: __RNvXs_NtNtNtCs9f3LFPSIp77_4core4iter6traits7collectINtNtNtB8_7sources7from_fn6FromFnNCINvNtNtCsk0EuziVMDa8_11time_macros18format_description3ast11parse_innerIBO_NCINvNtB1r_5lexer3lexKh2_E0EKb1_KB2V_E0ENtB4_12IntoIterator9into_iterB1t_, symObjAddr: 0x3564, symBinAddr: 0x3E18C, symSize: 0x14 }
  - { offset: 0x553CC, size: 0x8, addend: 0x0, symName: __RNvMs0_NtCs9f3LFPSIp77_4core3numl10rem_euclidCsk0EuziVMDa8_11time_macros, symObjAddr: 0x2238, symBinAddr: 0x3CE60, symSize: 0xE0 }
  - { offset: 0x5548E, size: 0x8, addend: 0x0, symName: __RNvMs0_NtCs9f3LFPSIp77_4core3numl3absCsk0EuziVMDa8_11time_macros, symObjAddr: 0x2318, symBinAddr: 0x3CF40, symSize: 0x6C }
  - { offset: 0x554C2, size: 0x8, addend: 0x0, symName: __RNvMs4_NtCs9f3LFPSIp77_4core3numh19is_ascii_whitespaceCsk0EuziVMDa8_11time_macros, symObjAddr: 0x276C, symBinAddr: 0x3D394, symSize: 0x74 }
  - { offset: 0x55519, size: 0x8, addend: 0x0, symName: __RNvNvMs3_NtCs9f3LFPSIp77_4core3numi13unchecked_neg18precondition_checkCsk0EuziVMDa8_11time_macros, symObjAddr: 0x27E0, symBinAddr: 0x3D408, symSize: 0x4C }
  - { offset: 0x555B0, size: 0x8, addend: 0x0, symName: __RNvNvMs9_NtCs9f3LFPSIp77_4core3numj13unchecked_add18precondition_checkCsk0EuziVMDa8_11time_macros, symObjAddr: 0x282C, symBinAddr: 0x3D454, symSize: 0x4C }
  - { offset: 0x55657, size: 0x8, addend: 0x0, symName: __RNvNvMs9_NtCs9f3LFPSIp77_4core3numj13unchecked_mul18precondition_checkCsk0EuziVMDa8_11time_macros, symObjAddr: 0x2878, symBinAddr: 0x3D4A0, symSize: 0x54 }
  - { offset: 0x556FE, size: 0x8, addend: 0x0, symName: __RNvNvMs9_NtCs9f3LFPSIp77_4core3numj13unchecked_sub18precondition_checkCsk0EuziVMDa8_11time_macros, symObjAddr: 0x28CC, symBinAddr: 0x3D4F4, symSize: 0x54 }
  - { offset: 0x56941, size: 0x8, addend: 0x0, symName: __RNvNvNtCs9f3LFPSIp77_4core4hint16assert_unchecked18precondition_checkCsk0EuziVMDa8_11time_macros, symObjAddr: 0x2920, symBinAddr: 0x3D548, symSize: 0x38 }
  - { offset: 0x5696F, size: 0x8, addend: 0x0, symName: __RNvNvNtCs9f3LFPSIp77_4core4hint21unreachable_unchecked18precondition_checkCsk0EuziVMDa8_11time_macros, symObjAddr: 0x2958, symBinAddr: 0x3D580, symSize: 0x1C }
  - { offset: 0x56994, size: 0x8, addend: 0x0, symName: __RNvNvNtCs9f3LFPSIp77_4core9ub_checks17is_nonoverlapping7runtimeCsk0EuziVMDa8_11time_macros, symObjAddr: 0x2974, symBinAddr: 0x3D59C, symSize: 0xE4 }
  - { offset: 0x56E7E, size: 0x8, addend: 0x0, symName: __RNvXs5_NtNtCsjLJ1XWNSM6u_10proc_macro6bridge6bufferNtB5_6BufferNtNtNtCs9f3LFPSIp77_4core3ops4drop4Drop4dropCsk0EuziVMDa8_11time_macros, symObjAddr: 0x3300, symBinAddr: 0x3DF28, symSize: 0x138 }
  - { offset: 0x574FC, size: 0x8, addend: 0x0, symName: __RINvMs3_NtNtCsjLJ1XWNSM6u_10proc_macro6bridge6bufferNtB6_6Buffer17extend_from_arrayKj4_ECsk0EuziVMDa8_11time_macros, symObjAddr: 0x0, symBinAddr: 0x3AC28, symSize: 0x210 }
  - { offset: 0x57B6E, size: 0x8, addend: 0x0, symName: __RINvMs3_NtNtCsjLJ1XWNSM6u_10proc_macro6bridge6bufferNtB6_6Buffer17extend_from_arrayKj8_ECsk0EuziVMDa8_11time_macros, symObjAddr: 0x210, symBinAddr: 0x3AE38, symSize: 0x210 }
  - { offset: 0x585BD, size: 0x8, addend: 0x0, symName: __RNvMs3_NtNtCsjLJ1XWNSM6u_10proc_macro6bridge6bufferNtB5_6Buffer17extend_from_sliceCsk0EuziVMDa8_11time_macros, symObjAddr: 0x2384, symBinAddr: 0x3CFAC, symSize: 0x208 }
  - { offset: 0x58C27, size: 0x8, addend: 0x0, symName: __RNvMs3_NtNtCsjLJ1XWNSM6u_10proc_macro6bridge6bufferNtB5_6Buffer4pushCsk0EuziVMDa8_11time_macros, symObjAddr: 0x258C, symBinAddr: 0x3D1B4, symSize: 0x1E0 }
  - { offset: 0x59708, size: 0x8, addend: 0x0, symName: __RINvMs0_NtCs9f3LFPSIp77_4core3fmtNtB6_9Arguments6new_v1Kj1_KBS_ECsk0EuziVMDa8_11time_macros, symObjAddr: 0x0, symBinAddr: 0x3E320, symSize: 0x50 }
  - { offset: 0x599B7, size: 0x8, addend: 0x0, symName: __RNvXsF_NtCs9f3LFPSIp77_4core3fmtNtB5_5ErrorNtB5_5Debug3fmtCsk0EuziVMDa8_11time_macros, symObjAddr: 0xD9C, symBinAddr: 0x3F0BC, symSize: 0x40 }
  - { offset: 0x599F7, size: 0x8, addend: 0x0, symName: __RNvXsP_NtCs9f3LFPSIp77_4core3fmtRjNtB5_5Debug3fmtCsk0EuziVMDa8_11time_macros, symObjAddr: 0xDDC, symBinAddr: 0x3F0FC, symSize: 0x30 }
  - { offset: 0x59A3D, size: 0x8, addend: 0x0, symName: __RNvXsP_NtCs9f3LFPSIp77_4core3fmtRuNtB5_5Debug3fmtCsk0EuziVMDa8_11time_macros, symObjAddr: 0xE0C, symBinAddr: 0x3F12C, symSize: 0x30 }
  - { offset: 0x59A89, size: 0x8, addend: 0x0, symName: __RNvXsR_NtCs9f3LFPSIp77_4core3fmtRReNtB5_7Display3fmtCsk0EuziVMDa8_11time_macros, symObjAddr: 0xE3C, symBinAddr: 0x3F15C, symSize: 0x30 }
  - { offset: 0x59ACF, size: 0x8, addend: 0x0, symName: __RNvXsR_NtCs9f3LFPSIp77_4core3fmtReNtB5_7Display3fmtCsk0EuziVMDa8_11time_macros, symObjAddr: 0xE6C, symBinAddr: 0x3F18C, symSize: 0x3C }
  - { offset: 0x59B1B, size: 0x8, addend: 0x0, symName: __RNvXsp_NtCs9f3LFPSIp77_4core3fmtuNtB5_5Debug3fmtCsk0EuziVMDa8_11time_macros, symObjAddr: 0x13F0, symBinAddr: 0x3F710, symSize: 0x40 }
  - { offset: 0x5B13F, size: 0x8, addend: 0x0, symName: __RINvNtCs9f3LFPSIp77_4core3mem4dropINtNtB4_6option6OptionNtCsjLJ1XWNSM6u_10proc_macro9TokenTreeEECsk0EuziVMDa8_11time_macros, symObjAddr: 0xEC, symBinAddr: 0x3E40C, symSize: 0x14 }
  - { offset: 0x5B218, size: 0x8, addend: 0x0, symName: __RINvYNtNtCsjLJ1XWNSM6u_10proc_macro12token_stream8IntoIterNtNtNtNtCs9f3LFPSIp77_4core4iter6traits8iterator8Iterator4folduNCINvNvBU_8for_each4callNtB7_9TokenTreeNCINvXsj_B7_NtB7_11TokenStreamINtNtBY_7collect6ExtendB2j_E6extendB2K_E0E0ECsk0EuziVMDa8_11time_macros, symObjAddr: 0x100, symBinAddr: 0x3E420, symSize: 0x10C }
  - { offset: 0x5B2A7, size: 0x8, addend: 0x0, symName: __RINvYNtNtCsjLJ1XWNSM6u_10proc_macro12token_stream8IntoIterNtNtNtNtCs9f3LFPSIp77_4core4iter6traits8iterator8Iterator8for_eachNCINvXsj_B7_NtB7_11TokenStreamINtNtBY_7collect6ExtendNtB7_9TokenTreeE6extendB2a_E0ECsk0EuziVMDa8_11time_macros, symObjAddr: 0x20C, symBinAddr: 0x3E52C, symSize: 0x24 }
  - { offset: 0x5B2F3, size: 0x8, addend: 0x0, symName: __RNvYNtNtCsjLJ1XWNSM6u_10proc_macro12token_stream8IntoIterNtNtNtNtCs9f3LFPSIp77_4core4iter6traits8iterator8Iterator8peekableCsk0EuziVMDa8_11time_macros, symObjAddr: 0x14C0, symBinAddr: 0x3F7E0, symSize: 0x38 }
  - { offset: 0x5B5B4, size: 0x8, addend: 0x0, symName: __RNCNvMsp_NtNtCs9f3LFPSIp77_4core3str4iterINtB7_20MatchIndicesInternalcE4next0Csk0EuziVMDa8_11time_macros, symObjAddr: 0x230, symBinAddr: 0x3E550, symSize: 0xA0 }
  - { offset: 0x5B73C, size: 0x8, addend: 0x0, symName: __RNvXNtNtCs9f3LFPSIp77_4core3str4iterNtB2_5CharsNtNtNtNtB6_4iter6traits8iterator8Iterator4nextCsk0EuziVMDa8_11time_macros, symObjAddr: 0x5F0, symBinAddr: 0x3E910, symSize: 0x70 }
  - { offset: 0x5B80A, size: 0x8, addend: 0x0, symName: __RNvXs3_NtNtCs9f3LFPSIp77_4core3str4iterNtB5_11CharIndicesNtNtNtNtB9_4iter6traits8iterator8Iterator4nextCsk0EuziVMDa8_11time_macros, symObjAddr: 0x9C8, symBinAddr: 0x3ECE8, symSize: 0x194 }
  - { offset: 0x5BAD6, size: 0x8, addend: 0x0, symName: __RNvXs2_NtNtCs9f3LFPSIp77_4core3str7patterncNtB5_7Pattern13into_searcherCsk0EuziVMDa8_11time_macros, symObjAddr: 0x888, symBinAddr: 0x3EBA8, symSize: 0x114 }
  - { offset: 0x5BBF2, size: 0x8, addend: 0x0, symName: __RNvXs7_NtNtCs9f3LFPSIp77_4core3str7patternINtB5_18MultiCharEqPatternNCNCNvCsk0EuziVMDa8_11time_macros18format_description00ENtB5_7Pattern13into_searcherB1a_, symObjAddr: 0xB5C, symBinAddr: 0x3EE7C, symSize: 0x90 }
  - { offset: 0x5BC54, size: 0x8, addend: 0x0, symName: __RNvXs8_NtNtCs9f3LFPSIp77_4core3str7patternINtB5_19MultiCharEqSearcherNCNCNvCsk0EuziVMDa8_11time_macros18format_description00ENtB5_8Searcher4nextB1b_, symObjAddr: 0xBEC, symBinAddr: 0x3EF0C, symSize: 0x1B0 }
  - { offset: 0x5BED8, size: 0x8, addend: 0x0, symName: __RNvXs_NtNtCs9f3LFPSIp77_4core3str7patternNtB4_12CharSearcherNtB4_8Searcher10next_matchCsk0EuziVMDa8_11time_macros, symObjAddr: 0xEA8, symBinAddr: 0x3F1C8, symSize: 0x3CC }
  - { offset: 0x5C450, size: 0x8, addend: 0x0, symName: __RNvXs_NtNtCs9f3LFPSIp77_4core3str7patternNtB4_12CharSearcherNtB4_8Searcher8haystackCsk0EuziVMDa8_11time_macros, symObjAddr: 0x1274, symBinAddr: 0x3F594, symSize: 0x20 }
  - { offset: 0x5C484, size: 0x8, addend: 0x0, symName: __RNvXso_NtNtCs9f3LFPSIp77_4core3str7patternINtB5_21CharPredicateSearcherNCNCNvCsk0EuziVMDa8_11time_macros18format_description00ENtB5_8Searcher11next_rejectB1d_, symObjAddr: 0x13CC, symBinAddr: 0x3F6EC, symSize: 0x24 }
  - { offset: 0x5C4C1, size: 0x8, addend: 0x0, symName: __RNvYINtNtNtCs9f3LFPSIp77_4core3str7pattern19MultiCharEqSearcherNCNCNvCsk0EuziVMDa8_11time_macros18format_description00ENtB5_8Searcher11next_rejectB15_, symObjAddr: 0x1430, symBinAddr: 0x3F750, symSize: 0x90 }
  - { offset: 0x5C6A1, size: 0x8, addend: 0x0, symName: __RNvXs2_NtNtNtCs9f3LFPSIp77_4core3ops8function5implsQNCINvNtNtCsk0EuziVMDa8_11time_macros18format_description5lexer15attach_locationINtNtNtBb_5slice4iter4IterhEE0INtB7_6FnOnceTRhEE9call_onceBX_, symObjAddr: 0x99C, symBinAddr: 0x3ECBC, symSize: 0x2C }
  - { offset: 0x5E1ED, size: 0x8, addend: 0x0, symName: __RNvXNtNtCsk0EuziVMDa8_11time_macros18format_description5lexerINtB2_5LexedINtNtNtNtCs9f3LFPSIp77_4core4iter7sources7from_fn6FromFnNCINvB2_3lexKh1_E0EENtNtNtB1g_6traits8iterator8Iterator4nextB6_, symObjAddr: 0x14F8, symBinAddr: 0x3F818, symSize: 0x34 }
  - { offset: 0x5E222, size: 0x8, addend: 0x0, symName: __RNvXNtNtCsk0EuziVMDa8_11time_macros18format_description5lexerINtB2_5LexedINtNtNtNtCs9f3LFPSIp77_4core4iter7sources7from_fn6FromFnNCINvB2_3lexKh2_E0EENtNtNtB1g_6traits8iterator8Iterator4nextB6_, symObjAddr: 0x152C, symBinAddr: 0x3F84C, symSize: 0x34 }
  - { offset: 0x5E397, size: 0x8, addend: 0x0, symName: __RNCINvNtNtCsk0EuziVMDa8_11time_macros18format_description5lexer3lexKh1_E0B8_, symObjAddr: 0x269C, symBinAddr: 0x409BC, symSize: 0xD50 }
  - { offset: 0x5EAA7, size: 0x8, addend: 0x0, symName: __RNCINvNtNtCsk0EuziVMDa8_11time_macros18format_description5lexer3lexKh2_E0B8_, symObjAddr: 0x33EC, symBinAddr: 0x4170C, symSize: 0xD54 }
  - { offset: 0x5F1BC, size: 0x8, addend: 0x0, symName: __RNCNCINvNtNtCsk0EuziVMDa8_11time_macros18format_description5lexer3lexKh1_E00Ba_, symObjAddr: 0x4140, symBinAddr: 0x42460, symSize: 0x38 }
  - { offset: 0x5F20A, size: 0x8, addend: 0x0, symName: __RNCNCINvNtNtCsk0EuziVMDa8_11time_macros18format_description5lexer3lexKh2_E00Ba_, symObjAddr: 0x4178, symBinAddr: 0x42498, symSize: 0x38 }
  - { offset: 0x5F258, size: 0x8, addend: 0x0, symName: __RNCNCINvNtNtCsk0EuziVMDa8_11time_macros18format_description5lexer3lexKh1_E0s_0Ba_, symObjAddr: 0x41B0, symBinAddr: 0x424D0, symSize: 0xD8 }
  - { offset: 0x5F29E, size: 0x8, addend: 0x0, symName: __RNCNCINvNtNtCsk0EuziVMDa8_11time_macros18format_description5lexer3lexKh2_E0s_0Ba_, symObjAddr: 0x4288, symBinAddr: 0x425A8, symSize: 0xD4 }
  - { offset: 0x5F2E4, size: 0x8, addend: 0x0, symName: __RNCNCINvNtNtCsk0EuziVMDa8_11time_macros18format_description5lexer3lexKh1_E0s0_0Ba_, symObjAddr: 0x435C, symBinAddr: 0x4267C, symSize: 0xF4 }
  - { offset: 0x5F330, size: 0x8, addend: 0x0, symName: __RNCNCINvNtNtCsk0EuziVMDa8_11time_macros18format_description5lexer3lexKh2_E0s0_0Ba_, symObjAddr: 0x4450, symBinAddr: 0x42770, symSize: 0xF4 }
  - { offset: 0x5F3BD, size: 0x8, addend: 0x0, symName: __RNCINvNtNtCsk0EuziVMDa8_11time_macros18format_description5lexer15attach_locationINtNtNtCs9f3LFPSIp77_4core5slice4iter4IterhEE0B8_, symObjAddr: 0x2320, symBinAddr: 0x40640, symSize: 0xA4 }
  - { offset: 0x5F590, size: 0x8, addend: 0x0, symName: __RINvNtNtCsk0EuziVMDa8_11time_macros18format_description5lexer15attach_locationINtNtNtCs9f3LFPSIp77_4core5slice4iter4IterhEEB6_, symObjAddr: 0x22D8, symBinAddr: 0x405F8, symSize: 0x48 }
  - { offset: 0x5F5EF, size: 0x8, addend: 0x0, symName: __RINvNtNtCsk0EuziVMDa8_11time_macros18format_description5lexer3lexKh1_EB6_, symObjAddr: 0x23C4, symBinAddr: 0x406E4, symSize: 0x16C }
  - { offset: 0x5F696, size: 0x8, addend: 0x0, symName: __RINvNtNtCsk0EuziVMDa8_11time_macros18format_description5lexer3lexKh2_EB6_, symObjAddr: 0x2530, symBinAddr: 0x40850, symSize: 0x16C }
  - { offset: 0x5FA64, size: 0x8, addend: 0x0, symName: __RNvXNtCsk0EuziVMDa8_11time_macros9to_tokensbNtB2_13ToTokenStream9append_toB4_, symObjAddr: 0x4544, symBinAddr: 0x42864, symSize: 0x58 }
  - { offset: 0x5FAA9, size: 0x8, addend: 0x0, symName: __RNvXs_NtCsk0EuziVMDa8_11time_macros9to_tokensbNtB4_11ToTokenTree15into_token_tree, symObjAddr: 0x459C, symBinAddr: 0x428BC, symSize: 0xC0 }
  - { offset: 0x5FAF8, size: 0x8, addend: 0x0, symName: __RNvXs2_NtCsk0EuziVMDa8_11time_macros9to_tokensReNtB5_11ToTokenTree15into_token_tree, symObjAddr: 0x465C, symBinAddr: 0x4297C, symSize: 0x54 }
  - { offset: 0x5FB2A, size: 0x8, addend: 0x0, symName: __RNvXs8_NtCsk0EuziVMDa8_11time_macros9to_tokensaNtB5_11ToTokenTree15into_token_tree, symObjAddr: 0x46B0, symBinAddr: 0x429D0, symSize: 0x48 }
  - { offset: 0x5FB5C, size: 0x8, addend: 0x0, symName: __RNvXs9_NtCsk0EuziVMDa8_11time_macros9to_tokenshNtB5_11ToTokenTree15into_token_tree, symObjAddr: 0x46F8, symBinAddr: 0x42A18, symSize: 0x48 }
  - { offset: 0x5FB8E, size: 0x8, addend: 0x0, symName: __RNvXsa_NtCsk0EuziVMDa8_11time_macros9to_tokenstNtB5_11ToTokenTree15into_token_tree, symObjAddr: 0x4740, symBinAddr: 0x42A60, symSize: 0x48 }
  - { offset: 0x5FBC0, size: 0x8, addend: 0x0, symName: __RNvXsb_NtCsk0EuziVMDa8_11time_macros9to_tokenslNtB5_11ToTokenTree15into_token_tree, symObjAddr: 0x4788, symBinAddr: 0x42AA8, symSize: 0x48 }
  - { offset: 0x5FBF2, size: 0x8, addend: 0x0, symName: __RNvXsc_NtCsk0EuziVMDa8_11time_macros9to_tokensmNtB5_11ToTokenTree15into_token_tree, symObjAddr: 0x47D0, symBinAddr: 0x42AF0, symSize: 0x48 }
  - { offset: 0x5FDA7, size: 0x8, addend: 0x0, symName: __RINvMs0_NtCs9f3LFPSIp77_4core3fmtNtB6_9Arguments6new_v1Kj1_KBS_ECsk0EuziVMDa8_11time_macros, symObjAddr: 0x0, symBinAddr: 0x3E320, symSize: 0x50 }
  - { offset: 0x5FDF3, size: 0x8, addend: 0x0, symName: __RINvMs0_NtCs9f3LFPSIp77_4core3fmtNtB6_9Arguments6new_v1Kj1_Kj0_ECsk0EuziVMDa8_11time_macros, symObjAddr: 0x50, symBinAddr: 0x3E370, symSize: 0x4C }
  - { offset: 0x5FE59, size: 0x8, addend: 0x0, symName: __RINvMs0_NtCs9f3LFPSIp77_4core3fmtNtB6_9Arguments6new_v1Kj2_KBS_ECsk0EuziVMDa8_11time_macros, symObjAddr: 0x9C, symBinAddr: 0x3E3BC, symSize: 0x50 }
  - { offset: 0x6005A, size: 0x8, addend: 0x0, symName: __RNvXs0_NtNtCsdze8u8oDPro_5alloc3vec13in_place_dropINtB5_24InPlaceDstDataSrcBufDropNtNtNtCsk0EuziVMDa8_11time_macros18format_description11format_item4ItemNtNtB1m_6public15OwnedFormatItemENtNtNtCs9f3LFPSIp77_4core3ops4drop4Drop4dropB1o_, symObjAddr: 0x660, symBinAddr: 0x3E980, symSize: 0xB8 }
  - { offset: 0x60183, size: 0x8, addend: 0x0, symName: __RNvXs0_NtNtCsdze8u8oDPro_5alloc3vec13in_place_dropINtB5_24InPlaceDstDataSrcBufDropNtNtNtCsk0EuziVMDa8_11time_macros18format_description3ast23NestedFormatDescriptionINtNtB9_5boxed3BoxSNtNtB1m_11format_item4ItemEENtNtNtCs9f3LFPSIp77_4core3ops4drop4Drop4dropB1o_, symObjAddr: 0x718, symBinAddr: 0x3EA38, symSize: 0xB8 }
  - { offset: 0x602AC, size: 0x8, addend: 0x0, symName: __RNvXs0_NtNtCsdze8u8oDPro_5alloc3vec13in_place_dropINtB5_24InPlaceDstDataSrcBufDropNtNtNtCsk0EuziVMDa8_11time_macros18format_description3ast4ItemNtNtB1m_11format_item4ItemENtNtNtCs9f3LFPSIp77_4core3ops4drop4Drop4dropB1o_, symObjAddr: 0x7D0, symBinAddr: 0x3EAF0, symSize: 0xB8 }
  - { offset: 0x603DB, size: 0x8, addend: 0x0, symName: __RNvXs_NtNtCsdze8u8oDPro_5alloc3vec13in_place_dropINtB4_11InPlaceDropINtNtB8_5boxed3BoxSNtNtNtCsk0EuziVMDa8_11time_macros18format_description11format_item4ItemEENtNtNtCs9f3LFPSIp77_4core3ops4drop4Drop4dropB1t_, symObjAddr: 0x1294, symBinAddr: 0x3F5B4, symSize: 0x68 }
  - { offset: 0x60431, size: 0x8, addend: 0x0, symName: __RNvXs_NtNtCsdze8u8oDPro_5alloc3vec13in_place_dropINtB4_11InPlaceDropNtNtNtCsk0EuziVMDa8_11time_macros18format_description11format_item4ItemENtNtNtCs9f3LFPSIp77_4core3ops4drop4Drop4dropB1a_, symObjAddr: 0x12FC, symBinAddr: 0x3F61C, symSize: 0x68 }
  - { offset: 0x60487, size: 0x8, addend: 0x0, symName: __RNvXs_NtNtCsdze8u8oDPro_5alloc3vec13in_place_dropINtB4_11InPlaceDropNtNtNtCsk0EuziVMDa8_11time_macros18format_description6public15OwnedFormatItemENtNtNtCs9f3LFPSIp77_4core3ops4drop4Drop4dropB1a_, symObjAddr: 0x1364, symBinAddr: 0x3F684, symSize: 0x68 }
  - { offset: 0x60886, size: 0x8, addend: 0x0, symName: __RNvMNtNtCsdze8u8oDPro_5alloc3vec13in_place_dropINtB2_11InPlaceDropINtNtB6_5boxed3BoxSNtNtNtCsk0EuziVMDa8_11time_macros18format_description11format_item4ItemEE3lenB1r_, symObjAddr: 0x2D0, symBinAddr: 0x3E5F0, symSize: 0x7C }
  - { offset: 0x6094E, size: 0x8, addend: 0x0, symName: __RNvMNtNtCsdze8u8oDPro_5alloc3vec13in_place_dropINtB2_11InPlaceDropNtNtNtCsk0EuziVMDa8_11time_macros18format_description11format_item4ItemE3lenB18_, symObjAddr: 0x34C, symBinAddr: 0x3E66C, symSize: 0x7C }
  - { offset: 0x60A6F, size: 0x8, addend: 0x0, symName: __RNvMNtNtCsdze8u8oDPro_5alloc3vec13in_place_dropINtB2_11InPlaceDropNtNtNtCsk0EuziVMDa8_11time_macros18format_description6public15OwnedFormatItemE3lenB18_, symObjAddr: 0x3C8, symBinAddr: 0x3E6E8, symSize: 0x7C }
  - { offset: 0x60B97, size: 0x8, addend: 0x0, symName: __RNvMs7_NtCs9f3LFPSIp77_4core3fmtNtB5_9Formatter9write_fmtCsk0EuziVMDa8_11time_macros, symObjAddr: 0x444, symBinAddr: 0x3E764, symSize: 0x1AC }
  - { offset: 0x611D4, size: 0x8, addend: 0x0, symName: __RNvMs_NtNtCsk0EuziVMDa8_11time_macros18format_description5lexerINtB4_5LexedINtNtNtNtCs9f3LFPSIp77_4core4iter7sources7from_fn6FromFnNCINvB4_3lexKh1_E0EE4peekB8_, symObjAddr: 0x1560, symBinAddr: 0x3F880, symSize: 0x34 }
  - { offset: 0x6120C, size: 0x8, addend: 0x0, symName: __RNvMs_NtNtCsk0EuziVMDa8_11time_macros18format_description5lexerINtB4_5LexedINtNtNtNtCs9f3LFPSIp77_4core4iter7sources7from_fn6FromFnNCINvB4_3lexKh2_E0EE4peekB8_, symObjAddr: 0x1594, symBinAddr: 0x3F8B4, symSize: 0x34 }
  - { offset: 0x61237, size: 0x8, addend: 0x0, symName: __RNvMs_NtNtCsk0EuziVMDa8_11time_macros18format_description5lexerINtB4_5LexedINtNtNtNtCs9f3LFPSIp77_4core4iter7sources7from_fn6FromFnNCINvB4_3lexKh1_E0EE18next_if_whitespaceB8_, symObjAddr: 0x15C8, symBinAddr: 0x3F8E8, symSize: 0x150 }
  - { offset: 0x61277, size: 0x8, addend: 0x0, symName: __RNvMs_NtNtCsk0EuziVMDa8_11time_macros18format_description5lexerINtB4_5LexedINtNtNtNtCs9f3LFPSIp77_4core4iter7sources7from_fn6FromFnNCINvB4_3lexKh2_E0EE18next_if_whitespaceB8_, symObjAddr: 0x1718, symBinAddr: 0x3FA38, symSize: 0x150 }
  - { offset: 0x612B7, size: 0x8, addend: 0x0, symName: __RNvMs_NtNtCsk0EuziVMDa8_11time_macros18format_description5lexerINtB4_5LexedINtNtNtNtCs9f3LFPSIp77_4core4iter7sources7from_fn6FromFnNCINvB4_3lexKh1_E0EE22next_if_not_whitespaceB8_, symObjAddr: 0x1868, symBinAddr: 0x3FB88, symSize: 0x158 }
  - { offset: 0x612F7, size: 0x8, addend: 0x0, symName: __RNvMs_NtNtCsk0EuziVMDa8_11time_macros18format_description5lexerINtB4_5LexedINtNtNtNtCs9f3LFPSIp77_4core4iter7sources7from_fn6FromFnNCINvB4_3lexKh2_E0EE22next_if_not_whitespaceB8_, symObjAddr: 0x19C0, symBinAddr: 0x3FCE0, symSize: 0x158 }
  - { offset: 0x61337, size: 0x8, addend: 0x0, symName: __RNvMs_NtNtCsk0EuziVMDa8_11time_macros18format_description5lexerINtB4_5LexedINtNtNtNtCs9f3LFPSIp77_4core4iter7sources7from_fn6FromFnNCINvB4_3lexKh1_E0EE23next_if_opening_bracketB8_, symObjAddr: 0x1B18, symBinAddr: 0x3FE38, symSize: 0x154 }
  - { offset: 0x61376, size: 0x8, addend: 0x0, symName: __RNvMs_NtNtCsk0EuziVMDa8_11time_macros18format_description5lexerINtB4_5LexedINtNtNtNtCs9f3LFPSIp77_4core4iter7sources7from_fn6FromFnNCINvB4_3lexKh2_E0EE23next_if_opening_bracketB8_, symObjAddr: 0x1C6C, symBinAddr: 0x3FF8C, symSize: 0x154 }
  - { offset: 0x613C2, size: 0x8, addend: 0x0, symName: __RNvMs_NtNtCsk0EuziVMDa8_11time_macros18format_description5lexerINtB4_5LexedINtNtNtNtCs9f3LFPSIp77_4core4iter7sources7from_fn6FromFnNCINvB4_3lexKh1_E0EE20peek_closing_bracketB8_, symObjAddr: 0x1DC0, symBinAddr: 0x400E0, symSize: 0x130 }
  - { offset: 0x61402, size: 0x8, addend: 0x0, symName: __RNvMs_NtNtCsk0EuziVMDa8_11time_macros18format_description5lexerINtB4_5LexedINtNtNtNtCs9f3LFPSIp77_4core4iter7sources7from_fn6FromFnNCINvB4_3lexKh2_E0EE20peek_closing_bracketB8_, symObjAddr: 0x1EF0, symBinAddr: 0x40210, symSize: 0x130 }
  - { offset: 0x61442, size: 0x8, addend: 0x0, symName: __RNvMs_NtNtCsk0EuziVMDa8_11time_macros18format_description5lexerINtB4_5LexedINtNtNtNtCs9f3LFPSIp77_4core4iter7sources7from_fn6FromFnNCINvB4_3lexKh1_E0EE23next_if_closing_bracketB8_, symObjAddr: 0x2020, symBinAddr: 0x40340, symSize: 0x15C }
  - { offset: 0x61481, size: 0x8, addend: 0x0, symName: __RNvMs_NtNtCsk0EuziVMDa8_11time_macros18format_description5lexerINtB4_5LexedINtNtNtNtCs9f3LFPSIp77_4core4iter7sources7from_fn6FromFnNCINvB4_3lexKh2_E0EE23next_if_closing_bracketB8_, symObjAddr: 0x217C, symBinAddr: 0x4049C, symSize: 0x15C }
  - { offset: 0x61625, size: 0x8, addend: 0x0, symName: __RINvNvNtCs27l1GJC5rMQ_3std9panicking3try7do_callINtNtNtCs9f3LFPSIp77_4core5panic11unwind_safe16AssertUnwindSafeNCINvNtNtCsjLJ1XWNSM6u_10proc_macro6bridge6client10run_clientNtB1Q_11TokenStreamINtNtBR_6option6OptionB2K_ENCNCINvMs7_B1Q_INtB1Q_6ClientNtB1U_11TokenStreamB3X_E7expand1NvCsk0EuziVMDa8_11time_macros18format_descriptionE00E0EuEB4v_, symObjAddr: 0x0, symBinAddr: 0x42B38, symSize: 0x58 }
  - { offset: 0x619CF, size: 0x8, addend: 0x0, symName: __RNvXsa_NtNtCsjLJ1XWNSM6u_10proc_macro6bridge6symbolNtB5_6SymbolNtNtCs9f3LFPSIp77_4core5clone5Clone5cloneCsk0EuziVMDa8_11time_macros, symObjAddr: 0x2088, symBinAddr: 0x44BC0, symSize: 0x18 }
  - { offset: 0x61EFD, size: 0x8, addend: 0x0, symName: __RINvXsh_CsjLJ1XWNSM6u_10proc_macroNtB6_11TokenStreamINtNtNtNtCs9f3LFPSIp77_4core4iter6traits7collect12FromIteratorNtB6_9TokenTreeE9from_iterINtNtNtBV_8adapters6cloned6ClonedINtNtNtBX_5slice4iter4IterB1O_EEECsk0EuziVMDa8_11time_macros, symObjAddr: 0xB88, symBinAddr: 0x436C0, symSize: 0xFC }
  - { offset: 0x61F65, size: 0x8, addend: 0x0, symName: __RNCINvXsh_CsjLJ1XWNSM6u_10proc_macroNtB8_11TokenStreamINtNtNtNtCs9f3LFPSIp77_4core4iter6traits7collect12FromIteratorNtB8_9TokenTreeE9from_iterINtNtNtBX_8adapters6cloned6ClonedINtNtNtBZ_5slice4iter4IterB1Q_EEE0Csk0EuziVMDa8_11time_macros, symObjAddr: 0x1318, symBinAddr: 0x43E50, symSize: 0x28 }
  - { offset: 0x61FC5, size: 0x8, addend: 0x0, symName: __RINvXsi_CsjLJ1XWNSM6u_10proc_macroNtB6_11TokenStreamINtNtNtNtCs9f3LFPSIp77_4core4iter6traits7collect12FromIteratorBw_E9from_iterINtNtNtBV_8adapters3map3MapINtNtNtCsdze8u8oDPro_5alloc3vec9into_iter8IntoIterNtNtNtCsk0EuziVMDa8_11time_macros18format_description6public15OwnedFormatItemENCNCNvB3n_18format_description0s_0EEB3n_, symObjAddr: 0xC84, symBinAddr: 0x437BC, symSize: 0xFC }
  - { offset: 0x62029, size: 0x8, addend: 0x0, symName: __RINvXsi_CsjLJ1XWNSM6u_10proc_macroNtB6_11TokenStreamINtNtNtNtCs9f3LFPSIp77_4core4iter6traits7collect12FromIteratorBw_E9from_iterINtNtNtBV_8adapters3map3MapINtNtNtCsdze8u8oDPro_5alloc3vec9into_iter8IntoIterNtNtNtCsk0EuziVMDa8_11time_macros18format_description6public15OwnedFormatItemENCNvXB3j_B3h_NtNtB3n_9to_tokens13ToTokenStream9append_to0EEB3n_, symObjAddr: 0xD80, symBinAddr: 0x438B8, symSize: 0xFC }
  - { offset: 0x6208D, size: 0x8, addend: 0x0, symName: __RINvXsi_CsjLJ1XWNSM6u_10proc_macroNtB6_11TokenStreamINtNtNtNtCs9f3LFPSIp77_4core4iter6traits7collect12FromIteratorBw_E9from_iterINtNtNtBV_8adapters3map3MapINtNtNtCsdze8u8oDPro_5alloc3vec9into_iter8IntoIterNtNtNtCsk0EuziVMDa8_11time_macros18format_description6public15OwnedFormatItemENCNvXB3j_B3h_NtNtB3n_9to_tokens13ToTokenStream9append_tos_0EEB3n_, symObjAddr: 0xE7C, symBinAddr: 0x439B4, symSize: 0xFC }
  - { offset: 0x620F6, size: 0x8, addend: 0x0, symName: __RNCINvXsi_CsjLJ1XWNSM6u_10proc_macroNtB8_11TokenStreamINtNtNtNtCs9f3LFPSIp77_4core4iter6traits7collect12FromIteratorBy_E9from_iterINtNtNtBX_8adapters3map3MapINtNtNtCsdze8u8oDPro_5alloc3vec9into_iter8IntoIterNtNtNtCsk0EuziVMDa8_11time_macros18format_description6public15OwnedFormatItemENCNCNvB3p_18format_description0s_0EE0B3p_, symObjAddr: 0x1340, symBinAddr: 0x43E78, symSize: 0x2C }
  - { offset: 0x6213B, size: 0x8, addend: 0x0, symName: __RNCINvXsi_CsjLJ1XWNSM6u_10proc_macroNtB8_11TokenStreamINtNtNtNtCs9f3LFPSIp77_4core4iter6traits7collect12FromIteratorBy_E9from_iterINtNtNtBX_8adapters3map3MapINtNtNtCsdze8u8oDPro_5alloc3vec9into_iter8IntoIterNtNtNtCsk0EuziVMDa8_11time_macros18format_description6public15OwnedFormatItemENCNvXB3l_B3j_NtNtB3p_9to_tokens13ToTokenStream9append_to0EE0B3p_, symObjAddr: 0x136C, symBinAddr: 0x43EA4, symSize: 0x2C }
  - { offset: 0x62180, size: 0x8, addend: 0x0, symName: __RNCINvXsi_CsjLJ1XWNSM6u_10proc_macroNtB8_11TokenStreamINtNtNtNtCs9f3LFPSIp77_4core4iter6traits7collect12FromIteratorBy_E9from_iterINtNtNtBX_8adapters3map3MapINtNtNtCsdze8u8oDPro_5alloc3vec9into_iter8IntoIterNtNtNtCsk0EuziVMDa8_11time_macros18format_description6public15OwnedFormatItemENCNvXB3l_B3j_NtNtB3p_9to_tokens13ToTokenStream9append_tos_0EE0B3p_, symObjAddr: 0x1398, symBinAddr: 0x43ED0, symSize: 0x2C }
  - { offset: 0x621CC, size: 0x8, addend: 0x0, symName: __RINvXsj_CsjLJ1XWNSM6u_10proc_macroNtB6_11TokenStreamINtNtNtNtCs9f3LFPSIp77_4core4iter6traits7collect6ExtendNtB6_9TokenTreeE6extendAB1H_j1_ECsk0EuziVMDa8_11time_macros, symObjAddr: 0xF78, symBinAddr: 0x43AB0, symSize: 0x110 }
  - { offset: 0x6223C, size: 0x8, addend: 0x0, symName: __RINvXsj_CsjLJ1XWNSM6u_10proc_macroNtB6_11TokenStreamINtNtNtNtCs9f3LFPSIp77_4core4iter6traits7collect6ExtendNtB6_9TokenTreeE6extendAB1H_j2_ECsk0EuziVMDa8_11time_macros, symObjAddr: 0x1088, symBinAddr: 0x43BC0, symSize: 0x118 }
  - { offset: 0x622AC, size: 0x8, addend: 0x0, symName: __RINvXsj_CsjLJ1XWNSM6u_10proc_macroNtB6_11TokenStreamINtNtNtNtCs9f3LFPSIp77_4core4iter6traits7collect6ExtendNtB6_9TokenTreeE6extendBw_ECsk0EuziVMDa8_11time_macros, symObjAddr: 0x11A0, symBinAddr: 0x43CD8, symSize: 0x10C }
  - { offset: 0x6231F, size: 0x8, addend: 0x0, symName: __RNCINvXsj_CsjLJ1XWNSM6u_10proc_macroNtB8_11TokenStreamINtNtNtNtCs9f3LFPSIp77_4core4iter6traits7collect6ExtendNtB8_9TokenTreeE6extendAB1J_j1_E0Csk0EuziVMDa8_11time_macros, symObjAddr: 0x13C4, symBinAddr: 0x43EFC, symSize: 0x28 }
  - { offset: 0x62365, size: 0x8, addend: 0x0, symName: __RNCINvXsj_CsjLJ1XWNSM6u_10proc_macroNtB8_11TokenStreamINtNtNtNtCs9f3LFPSIp77_4core4iter6traits7collect6ExtendNtB8_9TokenTreeE6extendAB1J_j2_E0Csk0EuziVMDa8_11time_macros, symObjAddr: 0x13EC, symBinAddr: 0x43F24, symSize: 0x28 }
  - { offset: 0x623AB, size: 0x8, addend: 0x0, symName: __RNCINvXsj_CsjLJ1XWNSM6u_10proc_macroNtB8_11TokenStreamINtNtNtNtCs9f3LFPSIp77_4core4iter6traits7collect6ExtendNtB8_9TokenTreeE6extendBy_E0Csk0EuziVMDa8_11time_macros, symObjAddr: 0x1414, symBinAddr: 0x43F4C, symSize: 0x28 }
  - { offset: 0x6249D, size: 0x8, addend: 0x0, symName: __RNvXs16_CsjLJ1XWNSM6u_10proc_macroNtB6_9TokenTreeNtNtCs9f3LFPSIp77_4core5clone5Clone5cloneCsk0EuziVMDa8_11time_macros, symObjAddr: 0x1920, symBinAddr: 0x44458, symSize: 0x184 }
  - { offset: 0x625FD, size: 0x8, addend: 0x0, symName: __RNvXsA_CsjLJ1XWNSM6u_10proc_macroNtB5_9TokenTreeINtNtCs9f3LFPSIp77_4core7convert4FromNtB5_7LiteralE4fromCsk0EuziVMDa8_11time_macros, symObjAddr: 0x1FC4, symBinAddr: 0x44AFC, symSize: 0x18 }
  - { offset: 0x62631, size: 0x8, addend: 0x0, symName: __RNvXsP_CsjLJ1XWNSM6u_10proc_macroNtB5_5PunctINtNtCs9f3LFPSIp77_4core3cmp9PartialEqcE2eqCsk0EuziVMDa8_11time_macros, symObjAddr: 0x1FDC, symBinAddr: 0x44B14, symSize: 0x2C }
  - { offset: 0x62692, size: 0x8, addend: 0x0, symName: __RNvXsx_CsjLJ1XWNSM6u_10proc_macroNtB5_9TokenTreeINtNtCs9f3LFPSIp77_4core7convert4FromNtB5_5GroupE4fromCsk0EuziVMDa8_11time_macros, symObjAddr: 0x2118, symBinAddr: 0x44C50, symSize: 0x18 }
  - { offset: 0x626C6, size: 0x8, addend: 0x0, symName: __RNvXsy_CsjLJ1XWNSM6u_10proc_macroNtB5_9TokenTreeINtNtCs9f3LFPSIp77_4core7convert4FromNtB5_5IdentE4fromCsk0EuziVMDa8_11time_macros, symObjAddr: 0x2130, symBinAddr: 0x44C68, symSize: 0x20 }
  - { offset: 0x626FA, size: 0x8, addend: 0x0, symName: __RNvXsz_CsjLJ1XWNSM6u_10proc_macroNtB5_9TokenTreeINtNtCs9f3LFPSIp77_4core7convert4FromNtB5_5PunctE4fromCsk0EuziVMDa8_11time_macros, symObjAddr: 0x2150, symBinAddr: 0x44C88, symSize: 0x2C }
  - { offset: 0x62F01, size: 0x8, addend: 0x0, symName: __RNvNtCsk0EuziVMDa8_11time_macros8datetime5parse, symObjAddr: 0x21A8, symBinAddr: 0x44CE0, symSize: 0x430 }
  - { offset: 0x62FFC, size: 0x8, addend: 0x0, symName: __RNvXNtCsk0EuziVMDa8_11time_macros8datetimeNtB2_8DateTimeNtNtB4_9to_tokens11ToTokenTree15into_token_tree, symObjAddr: 0x25D8, symBinAddr: 0x45110, symSize: 0xEB0 }
  - { offset: 0x63147, size: 0x8, addend: 0x0, symName: __RNvXNtCsk0EuziVMDa8_11time_macros5errorNtCsjLJ1XWNSM6u_10proc_macro9TokenTreeNtB2_8WithSpan9with_span, symObjAddr: 0x3488, symBinAddr: 0x45FC0, symSize: 0x7C }
  - { offset: 0x632EB, size: 0x8, addend: 0x0, symName: __RNvXs0_NtCsk0EuziVMDa8_11time_macros9to_tokensNtCsjLJ1XWNSM6u_10proc_macro11TokenStreamNtB5_13ToTokenStream9append_to, symObjAddr: 0x3504, symBinAddr: 0x4603C, symSize: 0x44 }
  - { offset: 0x63327, size: 0x8, addend: 0x0, symName: __RNvXs1_NtCsk0EuziVMDa8_11time_macros9to_tokensNtCsjLJ1XWNSM6u_10proc_macro9TokenTreeNtB5_11ToTokenTree15into_token_tree, symObjAddr: 0x3548, symBinAddr: 0x46080, symSize: 0x28 }
  - { offset: 0x63359, size: 0x8, addend: 0x0, symName: __RNvXs4_NtCsk0EuziVMDa8_11time_macros9to_tokensNtCsjLJ1XWNSM6u_10proc_macro5IdentNtB5_11ToTokenTree15into_token_tree, symObjAddr: 0x3570, symBinAddr: 0x460A8, symSize: 0x24 }
  - { offset: 0x6338C, size: 0x8, addend: 0x0, symName: __RNvXs5_NtCsk0EuziVMDa8_11time_macros9to_tokensNtCsjLJ1XWNSM6u_10proc_macro7LiteralNtB5_11ToTokenTree15into_token_tree, symObjAddr: 0x3594, symBinAddr: 0x460CC, symSize: 0x24 }
  - { offset: 0x633BF, size: 0x8, addend: 0x0, symName: __RNvXs6_NtCsk0EuziVMDa8_11time_macros9to_tokensNtCsjLJ1XWNSM6u_10proc_macro5GroupNtB5_11ToTokenTree15into_token_tree, symObjAddr: 0x35B8, symBinAddr: 0x460F0, symSize: 0x24 }
  - { offset: 0x633F2, size: 0x8, addend: 0x0, symName: __RNvXs7_NtCsk0EuziVMDa8_11time_macros9to_tokensNtCsjLJ1XWNSM6u_10proc_macro5PunctNtB5_11ToTokenTree15into_token_tree, symObjAddr: 0x35DC, symBinAddr: 0x46114, symSize: 0x44 }
  - { offset: 0x6350C, size: 0x8, addend: 0x0, symName: __RNvXsR_NtCs9f3LFPSIp77_4core3fmtRNtCsjLJ1XWNSM6u_10proc_macro9TokenTreeNtB5_7Display3fmtCsk0EuziVMDa8_11time_macros, symObjAddr: 0x2008, symBinAddr: 0x44B40, symSize: 0x30 }
  - { offset: 0x647DB, size: 0x8, addend: 0x0, symName: __RINvXs2U_NtNtCs9f3LFPSIp77_4core5slice4iterINtB7_4IterNtCsjLJ1XWNSM6u_10proc_macro9TokenTreeENtNtNtNtBb_4iter6traits8iterator8Iterator4folduNCINvNtNtB1z_8adapters3map8map_foldRBQ_BQ_uNvYBQ_NtNtBb_5clone5Clone5cloneNCINvNvB1t_8for_each4callBQ_NCINvXsh_BS_NtBS_11TokenStreamINtNtB1x_7collect12FromIteratorBQ_E9from_iterINtNtB2l_6cloned6ClonedBF_EE0E0E0ECsk0EuziVMDa8_11time_macros, symObjAddr: 0x3E8, symBinAddr: 0x42F20, symSize: 0x1D4 }
  - { offset: 0x649BC, size: 0x8, addend: 0x0, symName: __RINvXs2U_NtNtCs9f3LFPSIp77_4core5slice4iterINtB7_4IterReENtNtNtNtBb_4iter6traits8iterator8Iterator3anyNCNvXsd_NtB9_3cmpBQ_NtB1K_13SliceContains14slice_contains0ECsk0EuziVMDa8_11time_macros, symObjAddr: 0x5BC, symBinAddr: 0x430F4, symSize: 0xB4 }
  - { offset: 0x64A21, size: 0x8, addend: 0x0, symName: __RINvXs2U_NtNtCs9f3LFPSIp77_4core5slice4iterINtB7_4IterhENtNtNtNtBb_4iter6traits8iterator8Iterator8positionNCINvNtNtCsk0EuziVMDa8_11time_macros18format_description3ast15parse_componentINtNtNtBY_7sources7from_fn6FromFnNCINvNtB1N_5lexer3lexKh1_E0EKB3O_E0EB1P_, symObjAddr: 0x670, symBinAddr: 0x431A8, symSize: 0x1C4 }
  - { offset: 0x64B61, size: 0x8, addend: 0x0, symName: __RINvXs2U_NtNtCs9f3LFPSIp77_4core5slice4iterINtB7_4IterhENtNtNtNtBb_4iter6traits8iterator8Iterator8positionNCINvNtNtCsk0EuziVMDa8_11time_macros18format_description3ast15parse_componentINtNtNtBY_7sources7from_fn6FromFnNCINvNtB1N_5lexer3lexKh2_E0EKB3O_E0EB1P_, symObjAddr: 0x834, symBinAddr: 0x4336C, symSize: 0x1C4 }
  - { offset: 0x64CA1, size: 0x8, addend: 0x0, symName: __RINvXs2U_NtNtCs9f3LFPSIp77_4core5slice4iterINtB7_4IterhENtNtNtNtBb_4iter6traits8iterator8Iterator9rpositionNCNvNtNtCsk0EuziVMDa8_11time_macros7helpers6string17parse_lit_str_raw0EB1P_, symObjAddr: 0x9F8, symBinAddr: 0x43530, symSize: 0x190 }
  - { offset: 0x64DE8, size: 0x8, addend: 0x0, symName: __RNvXs2U_NtNtCs9f3LFPSIp77_4core5slice4iterINtB6_4IterNtCsjLJ1XWNSM6u_10proc_macro9TokenTreeENtNtNtNtBa_4iter6traits8iterator8Iterator9size_hintCsk0EuziVMDa8_11time_macros, symObjAddr: 0x1AA4, symBinAddr: 0x445DC, symSize: 0xC0 }
  - { offset: 0x64ECD, size: 0x8, addend: 0x0, symName: __RNvXs2U_NtNtCs9f3LFPSIp77_4core5slice4iterINtB6_4IterNtNtNtCsk0EuziVMDa8_11time_macros18format_description3ast8ModifierENtNtNtNtBa_4iter6traits8iterator8Iterator4nextBV_, symObjAddr: 0x1B64, symBinAddr: 0x4469C, symSize: 0xCC }
  - { offset: 0x6502E, size: 0x8, addend: 0x0, symName: __RNvXs2U_NtNtCs9f3LFPSIp77_4core5slice4iterINtB6_4IterReENtNtNtNtBa_4iter6traits8iterator8Iterator4nextCsk0EuziVMDa8_11time_macros, symObjAddr: 0x1C30, symBinAddr: 0x44768, symSize: 0xCC }
  - { offset: 0x6518F, size: 0x8, addend: 0x0, symName: __RNvXs2U_NtNtCs9f3LFPSIp77_4core5slice4iterINtB6_4IterhENtNtNtNtBa_4iter6traits8iterator8Iterator24___iterator_get_uncheckedCsk0EuziVMDa8_11time_macros, symObjAddr: 0x1CFC, symBinAddr: 0x44834, symSize: 0x28 }
  - { offset: 0x65219, size: 0x8, addend: 0x0, symName: __RNvXs2U_NtNtCs9f3LFPSIp77_4core5slice4iterINtB6_4IterhENtNtNtNtBa_4iter6traits8iterator8Iterator4nextCsk0EuziVMDa8_11time_macros, symObjAddr: 0x1D24, symBinAddr: 0x4485C, symSize: 0xCC }
  - { offset: 0x6537A, size: 0x8, addend: 0x0, symName: __RNvXs2U_NtNtCs9f3LFPSIp77_4core5slice4iterINtB6_4IterhENtNtNtNtBa_4iter6traits8iterator8Iterator9size_hintCsk0EuziVMDa8_11time_macros, symObjAddr: 0x1DF0, symBinAddr: 0x44928, symSize: 0xC0 }
  - { offset: 0x656BC, size: 0x8, addend: 0x0, symName: __RNvXs2V_NtNtCs9f3LFPSIp77_4core5slice4iterINtB6_4IterhENtNtNtNtBa_4iter6traits12double_ended19DoubleEndedIterator9next_backCsk0EuziVMDa8_11time_macros, symObjAddr: 0x1EB0, symBinAddr: 0x449E8, symSize: 0x114 }
  - { offset: 0x65848, size: 0x8, addend: 0x0, symName: __RNvXs_NtNtCs9f3LFPSIp77_4core5slice4iterRShNtNtNtNtB8_4iter6traits7collect12IntoIterator9into_iterCsk0EuziVMDa8_11time_macros, symObjAddr: 0x2038, symBinAddr: 0x44B70, symSize: 0x50 }
  - { offset: 0x6598A, size: 0x8, addend: 0x0, symName: __RNCNvXsd_NtNtCs9f3LFPSIp77_4core5slice3cmpReNtB7_13SliceContains14slice_contains0Csk0EuziVMDa8_11time_macros, symObjAddr: 0x143C, symBinAddr: 0x43F74, symSize: 0x38 }
  - { offset: 0x659E4, size: 0x8, addend: 0x0, symName: __RNvXsd_NtNtCs9f3LFPSIp77_4core5slice3cmpReNtB5_13SliceContains14slice_containsCsk0EuziVMDa8_11time_macros, symObjAddr: 0x20A0, symBinAddr: 0x44BD8, symSize: 0x78 }
  - { offset: 0x65B27, size: 0x8, addend: 0x0, symName: __RNvMNtCs9f3LFPSIp77_4core5sliceSNtCsjLJ1XWNSM6u_10proc_macro9TokenTree4iterCsk0EuziVMDa8_11time_macros, symObjAddr: 0x1474, symBinAddr: 0x43FAC, symSize: 0x28 }
  - { offset: 0x65BE7, size: 0x8, addend: 0x0, symName: __RNvNtNtCs9f3LFPSIp77_4core5slice6memchr6memchrCsk0EuziVMDa8_11time_macros, symObjAddr: 0x1764, symBinAddr: 0x4429C, symSize: 0x114 }
  - { offset: 0x65CB0, size: 0x8, addend: 0x0, symName: __RINvYINtNtNtCs9f3LFPSIp77_4core5slice4iter4IterNtCsjLJ1XWNSM6u_10proc_macro9TokenTreeENtNtNtNtBa_4iter6traits8iterator8Iterator3mapBJ_NvYBJ_NtNtBa_5clone5Clone5cloneECsk0EuziVMDa8_11time_macros, symObjAddr: 0x12AC, symBinAddr: 0x43DE4, symSize: 0x1C }
  - { offset: 0x65D08, size: 0x8, addend: 0x0, symName: __RINvYINtNtNtCs9f3LFPSIp77_4core5slice4iter4IterNtCsjLJ1XWNSM6u_10proc_macro9TokenTreeENtNtNtNtBa_4iter6traits8iterator8Iterator6clonedBJ_ECsk0EuziVMDa8_11time_macros, symObjAddr: 0x12C8, symBinAddr: 0x43E00, symSize: 0x1C }
  - { offset: 0x65D48, size: 0x8, addend: 0x0, symName: __RINvYINtNtNtCs9f3LFPSIp77_4core5slice4iter4IterhENtNtNtNtBa_4iter6traits8iterator8Iterator3mapTRhNtNtCsk0EuziVMDa8_11time_macros18format_description8LocationENCINvNtB1z_5lexer15attach_locationB3_E0EB1B_, symObjAddr: 0x12E4, symBinAddr: 0x43E1C, symSize: 0x34 }
  - { offset: 0x65F4C, size: 0x8, addend: 0x0, symName: __RNvYINtNtNtCs9f3LFPSIp77_4core5slice4iter4IterhENtNtNtNtB9_4iter8adapters3zip27TrustedRandomAccessNoCoerce4sizeCsk0EuziVMDa8_11time_macros, symObjAddr: 0x217C, symBinAddr: 0x44CB4, symSize: 0x2C }
  - { offset: 0x6602C, size: 0x8, addend: 0x0, symName: __RNvXNtNtCs9f3LFPSIp77_4core5array4iterANtCsjLJ1XWNSM6u_10proc_macro9TokenTreej1_NtNtNtNtB6_4iter6traits7collect12IntoIterator9into_iterCsk0EuziVMDa8_11time_macros, symObjAddr: 0x1878, symBinAddr: 0x443B0, symSize: 0x40 }
  - { offset: 0x66092, size: 0x8, addend: 0x0, symName: __RNvXNtNtCs9f3LFPSIp77_4core5array4iterANtCsjLJ1XWNSM6u_10proc_macro9TokenTreej2_NtNtNtNtB6_4iter6traits7collect12IntoIterator9into_iterCsk0EuziVMDa8_11time_macros, symObjAddr: 0x18B8, symBinAddr: 0x443F0, symSize: 0x68 }
  - { offset: 0x6640E, size: 0x8, addend: 0x0, symName: __RINvNvNtCs27l1GJC5rMQ_3std9panicking3try7do_callINtNtNtCs9f3LFPSIp77_4core5panic11unwind_safe16AssertUnwindSafeNCINvNtNtCsjLJ1XWNSM6u_10proc_macro6bridge6client10run_clientNtB1Q_11TokenStreamINtNtBR_6option6OptionB2K_ENCNCINvMs7_B1Q_INtB1Q_6ClientNtB1U_11TokenStreamB3X_E7expand1NvCsk0EuziVMDa8_11time_macros18format_descriptionE00E0EuEB4v_, symObjAddr: 0x0, symBinAddr: 0x42B38, symSize: 0x58 }
  - { offset: 0x664DF, size: 0x8, addend: 0x0, symName: __RINvNvNtCs27l1GJC5rMQ_3std9panicking3try7do_callINtNtNtCs9f3LFPSIp77_4core5panic11unwind_safe16AssertUnwindSafeNCINvNtNtCsjLJ1XWNSM6u_10proc_macro6bridge6client10run_clientNtB1Q_11TokenStreamINtNtBR_6option6OptionB2K_ENCNCINvMs7_B1Q_INtB1Q_6ClientNtB1U_11TokenStreamB3X_E7expand1NvCsk0EuziVMDa8_11time_macros4dateE00E0EuEB4v_, symObjAddr: 0x58, symBinAddr: 0x42B90, symSize: 0x58 }
  - { offset: 0x665B0, size: 0x8, addend: 0x0, symName: __RINvNvNtCs27l1GJC5rMQ_3std9panicking3try7do_callINtNtNtCs9f3LFPSIp77_4core5panic11unwind_safe16AssertUnwindSafeNCINvNtNtCsjLJ1XWNSM6u_10proc_macro6bridge6client10run_clientNtB1Q_11TokenStreamINtNtBR_6option6OptionB2K_ENCNCINvMs7_B1Q_INtB1Q_6ClientNtB1U_11TokenStreamB3X_E7expand1NvCsk0EuziVMDa8_11time_macros4timeE00E0EuEB4v_, symObjAddr: 0xB0, symBinAddr: 0x42BE8, symSize: 0x58 }
  - { offset: 0x66681, size: 0x8, addend: 0x0, symName: __RINvNvNtCs27l1GJC5rMQ_3std9panicking3try7do_callINtNtNtCs9f3LFPSIp77_4core5panic11unwind_safe16AssertUnwindSafeNCINvNtNtCsjLJ1XWNSM6u_10proc_macro6bridge6client10run_clientNtB1Q_11TokenStreamINtNtBR_6option6OptionB2K_ENCNCINvMs7_B1Q_INtB1Q_6ClientNtB1U_11TokenStreamB3X_E7expand1NvCsk0EuziVMDa8_11time_macros6offsetE00E0EuEB4v_, symObjAddr: 0x108, symBinAddr: 0x42C40, symSize: 0x58 }
  - { offset: 0x66752, size: 0x8, addend: 0x0, symName: __RINvNvNtCs27l1GJC5rMQ_3std9panicking3try7do_callINtNtNtCs9f3LFPSIp77_4core5panic11unwind_safe16AssertUnwindSafeNCINvNtNtCsjLJ1XWNSM6u_10proc_macro6bridge6client10run_clientNtB1Q_11TokenStreamINtNtBR_6option6OptionB2K_ENCNCINvMs7_B1Q_INtB1Q_6ClientNtB1U_11TokenStreamB3X_E7expand1NvCsk0EuziVMDa8_11time_macros8datetimeE00E0EuEB4v_, symObjAddr: 0x160, symBinAddr: 0x42C98, symSize: 0x58 }
  - { offset: 0x66823, size: 0x8, addend: 0x0, symName: __RINvNvNtCs27l1GJC5rMQ_3std9panicking3try8do_catchINtNtNtCs9f3LFPSIp77_4core5panic11unwind_safe16AssertUnwindSafeNCINvNtNtCsjLJ1XWNSM6u_10proc_macro6bridge6client10run_clientNtB1R_11TokenStreamINtNtBS_6option6OptionB2L_ENCNCINvMs7_B1R_INtB1R_6ClientNtB1V_11TokenStreamB3Y_E7expand1NvCsk0EuziVMDa8_11time_macros18format_descriptionE00E0EuEB4w_, symObjAddr: 0x1B8, symBinAddr: 0x42CF0, symSize: 0x70 }
  - { offset: 0x668B8, size: 0x8, addend: 0x0, symName: __RINvNvNtCs27l1GJC5rMQ_3std9panicking3try8do_catchINtNtNtCs9f3LFPSIp77_4core5panic11unwind_safe16AssertUnwindSafeNCINvNtNtCsjLJ1XWNSM6u_10proc_macro6bridge6client10run_clientNtB1R_11TokenStreamINtNtBS_6option6OptionB2L_ENCNCINvMs7_B1R_INtB1R_6ClientNtB1V_11TokenStreamB3Y_E7expand1NvCsk0EuziVMDa8_11time_macros4dateE00E0EuEB4w_, symObjAddr: 0x228, symBinAddr: 0x42D60, symSize: 0x70 }
  - { offset: 0x6694D, size: 0x8, addend: 0x0, symName: __RINvNvNtCs27l1GJC5rMQ_3std9panicking3try8do_catchINtNtNtCs9f3LFPSIp77_4core5panic11unwind_safe16AssertUnwindSafeNCINvNtNtCsjLJ1XWNSM6u_10proc_macro6bridge6client10run_clientNtB1R_11TokenStreamINtNtBS_6option6OptionB2L_ENCNCINvMs7_B1R_INtB1R_6ClientNtB1V_11TokenStreamB3Y_E7expand1NvCsk0EuziVMDa8_11time_macros4timeE00E0EuEB4w_, symObjAddr: 0x298, symBinAddr: 0x42DD0, symSize: 0x70 }
  - { offset: 0x669E2, size: 0x8, addend: 0x0, symName: __RINvNvNtCs27l1GJC5rMQ_3std9panicking3try8do_catchINtNtNtCs9f3LFPSIp77_4core5panic11unwind_safe16AssertUnwindSafeNCINvNtNtCsjLJ1XWNSM6u_10proc_macro6bridge6client10run_clientNtB1R_11TokenStreamINtNtBS_6option6OptionB2L_ENCNCINvMs7_B1R_INtB1R_6ClientNtB1V_11TokenStreamB3Y_E7expand1NvCsk0EuziVMDa8_11time_macros6offsetE00E0EuEB4w_, symObjAddr: 0x308, symBinAddr: 0x42E40, symSize: 0x70 }
  - { offset: 0x66A77, size: 0x8, addend: 0x0, symName: __RINvNvNtCs27l1GJC5rMQ_3std9panicking3try8do_catchINtNtNtCs9f3LFPSIp77_4core5panic11unwind_safe16AssertUnwindSafeNCINvNtNtCsjLJ1XWNSM6u_10proc_macro6bridge6client10run_clientNtB1R_11TokenStreamINtNtBS_6option6OptionB2L_ENCNCINvMs7_B1R_INtB1R_6ClientNtB1V_11TokenStreamB3Y_E7expand1NvCsk0EuziVMDa8_11time_macros8datetimeE00E0EuEB4w_, symObjAddr: 0x378, symBinAddr: 0x42EB0, symSize: 0x70 }
  - { offset: 0x66EF1, size: 0x8, addend: 0x0, symName: __RNvMs4_NtNtCs9f3LFPSIp77_4core5slice4iterINtB5_4IterNtCsjLJ1XWNSM6u_10proc_macro9TokenTreeE3newCsk0EuziVMDa8_11time_macros, symObjAddr: 0x149C, symBinAddr: 0x43FD4, symSize: 0x58 }
  - { offset: 0x67078, size: 0x8, addend: 0x0, symName: __RNvMs4_NtNtCs9f3LFPSIp77_4core5slice4iterINtB5_4IterhE3newCsk0EuziVMDa8_11time_macros, symObjAddr: 0x14F4, symBinAddr: 0x4402C, symSize: 0x50 }
  - { offset: 0x67179, size: 0x8, addend: 0x0, symName: __RNvMs8_CsjLJ1XWNSM6u_10proc_macroNtB5_11TokenStream3newCsk0EuziVMDa8_11time_macros, symObjAddr: 0x1544, symBinAddr: 0x4407C, symSize: 0x8 }
  - { offset: 0x67199, size: 0x8, addend: 0x0, symName: __RNvMsL_CsjLJ1XWNSM6u_10proc_macroNtB5_5Punct4spanCsk0EuziVMDa8_11time_macros, symObjAddr: 0x154C, symBinAddr: 0x44084, symSize: 0x18 }
  - { offset: 0x671C3, size: 0x8, addend: 0x0, symName: __RNvMsL_CsjLJ1XWNSM6u_10proc_macroNtB5_5Punct7as_charCsk0EuziVMDa8_11time_macros, symObjAddr: 0x1564, symBinAddr: 0x4409C, symSize: 0x18 }
  - { offset: 0x671F3, size: 0x8, addend: 0x0, symName: __RNvMsR_CsjLJ1XWNSM6u_10proc_macroNtB5_5Ident4spanCsk0EuziVMDa8_11time_macros, symObjAddr: 0x157C, symBinAddr: 0x440B4, symSize: 0x18 }
  - { offset: 0x67223, size: 0x8, addend: 0x0, symName: __RNvMsV_CsjLJ1XWNSM6u_10proc_macroNtB5_7Literal4spanCsk0EuziVMDa8_11time_macros, symObjAddr: 0x1594, symBinAddr: 0x440CC, symSize: 0x18 }
  - { offset: 0x6729F, size: 0x8, addend: 0x0, symName: __RNvMsv_CsjLJ1XWNSM6u_10proc_macroNtB5_9TokenTree4spanCsk0EuziVMDa8_11time_macros, symObjAddr: 0x15AC, symBinAddr: 0x440E4, symSize: 0xCC }
  - { offset: 0x6748B, size: 0x8, addend: 0x0, symName: __RNvMsv_CsjLJ1XWNSM6u_10proc_macroNtB5_9TokenTree8set_spanCsk0EuziVMDa8_11time_macros, symObjAddr: 0x1678, symBinAddr: 0x441B0, symSize: 0xEC }
  - { offset: 0x68195, size: 0x8, addend: 0x0, symName: __RINvMNtCs9f3LFPSIp77_4core6optionINtB3_6OptionIBw_INtNtB5_6result6ResultNtNtNtCsk0EuziVMDa8_11time_macros18format_description5lexer5TokenNtB1c_5ErrorEEE18get_or_insert_withNCNvMs3_NtNtNtB5_4iter8adapters8peekableINtB2S_8PeekableINtNtNtB2W_7sources7from_fn6FromFnNCINvB1a_3lexKh1_E0EE4peek0EB1e_, symObjAddr: 0x0, symBinAddr: 0x46158, symSize: 0x10C }
  - { offset: 0x68284, size: 0x8, addend: 0x0, symName: __RNvXs1i_NtCsdze8u8oDPro_5alloc6stringNtB6_6StringINtNtCs9f3LFPSIp77_4core3cmp9PartialEqReE2eqCsk0EuziVMDa8_11time_macros, symObjAddr: 0x1CD4, symBinAddr: 0x47E2C, symSize: 0x88 }
  - { offset: 0x68372, size: 0x8, addend: 0x0, symName: __RNvXsT_NtCsdze8u8oDPro_5alloc6stringNtB5_6StringNtNtCs9f3LFPSIp77_4core3fmt5Write10write_charCsk0EuziVMDa8_11time_macros, symObjAddr: 0x2840, symBinAddr: 0x48998, symSize: 0x30 }
  - { offset: 0x683AF, size: 0x8, addend: 0x0, symName: __RNvXsT_NtCsdze8u8oDPro_5alloc6stringNtB5_6StringNtNtCs9f3LFPSIp77_4core3fmt5Write9write_strCsk0EuziVMDa8_11time_macros, symObjAddr: 0x2870, symBinAddr: 0x489C8, symSize: 0x38 }
  - { offset: 0x68410, size: 0x8, addend: 0x0, symName: __RNvXsq_NtCsdze8u8oDPro_5alloc6stringNtB5_6StringNtNtNtCs9f3LFPSIp77_4core3ops5deref5Deref5derefCsk0EuziVMDa8_11time_macros, symObjAddr: 0x2C44, symBinAddr: 0x48D9C, symSize: 0x24 }
  - { offset: 0x68444, size: 0x8, addend: 0x0, symName: __RNvXsj_NtCsdze8u8oDPro_5alloc6stringNtB5_6StringNtNtCs9f3LFPSIp77_4core3fmt7Display3fmtCsk0EuziVMDa8_11time_macros, symObjAddr: 0x2A78, symBinAddr: 0x48BD0, symSize: 0x98 }
  - { offset: 0x68623, size: 0x8, addend: 0x0, symName: __RNvXso_NtCsdze8u8oDPro_5alloc6stringNtB5_6StringINtNtNtCs9f3LFPSIp77_4core3ops5index5IndexINtNtBP_5range9RangeFromjEE5indexCsk0EuziVMDa8_11time_macros, symObjAddr: 0x2B10, symBinAddr: 0x48C68, symSize: 0xA0 }
  - { offset: 0x687E8, size: 0x8, addend: 0x0, symName: __RNvXso_NtCsdze8u8oDPro_5alloc6stringNtB5_6StringINtNtNtCs9f3LFPSIp77_4core3ops5index5IndexNtNtBP_5range9RangeFullE5indexCsk0EuziVMDa8_11time_macros, symObjAddr: 0x2BB0, symBinAddr: 0x48D08, symSize: 0x94 }
  - { offset: 0x689B2, size: 0x8, addend: 0x0, symName: __RNvXsu_NtCsdze8u8oDPro_5alloc6stringdNtB5_8ToString9to_stringCsk0EuziVMDa8_11time_macros, symObjAddr: 0x2C68, symBinAddr: 0x48DC0, symSize: 0x124 }
  - { offset: 0x68ACD, size: 0x8, addend: 0x0, symName: __RNvXsu_NtCsdze8u8oDPro_5alloc6stringlNtB5_8ToString9to_stringCsk0EuziVMDa8_11time_macros, symObjAddr: 0x2D8C, symBinAddr: 0x48EE4, symSize: 0x124 }
  - { offset: 0x68BE8, size: 0x8, addend: 0x0, symName: __RNvXsu_NtCsdze8u8oDPro_5alloc6stringtNtB5_8ToString9to_stringCsk0EuziVMDa8_11time_macros, symObjAddr: 0x2EB0, symBinAddr: 0x49008, symSize: 0x124 }
  - { offset: 0x68D09, size: 0x8, addend: 0x0, symName: __RNvXsy_NtCsdze8u8oDPro_5alloc6stringhNtB5_8ToString9to_stringCsk0EuziVMDa8_11time_macros, symObjAddr: 0x2FD4, symBinAddr: 0x4912C, symSize: 0x16C }
  - { offset: 0x68DF1, size: 0x8, addend: 0x0, symName: __RNvXsz_NtCsdze8u8oDPro_5alloc6stringaNtB5_8ToString9to_stringCsk0EuziVMDa8_11time_macros, symObjAddr: 0x3140, symBinAddr: 0x49298, symSize: 0x1A4 }
  - { offset: 0x69620, size: 0x8, addend: 0x0, symName: __RINvMNtCsdze8u8oDPro_5alloc5sliceSINtNtB5_5boxed3BoxSNtNtNtCsk0EuziVMDa8_11time_macros18format_description11format_item4ItemE8into_vecNtNtB5_5alloc6GlobalEBV_, symObjAddr: 0x528, symBinAddr: 0x46680, symSize: 0x28 }
  - { offset: 0x6966C, size: 0x8, addend: 0x0, symName: __RINvMs3_NtCsdze8u8oDPro_5alloc3stre7replacecECsk0EuziVMDa8_11time_macros, symObjAddr: 0x550, symBinAddr: 0x466A8, symSize: 0x50C }
  - { offset: 0x6A34D, size: 0x8, addend: 0x0, symName: __RNvXs0_NtCsdze8u8oDPro_5alloc3strNtNtB7_6string6StringINtNtCs9f3LFPSIp77_4core6borrow6BorroweE6borrowCsk0EuziVMDa8_11time_macros, symObjAddr: 0x1C60, symBinAddr: 0x47DB8, symSize: 0x2C }
  - { offset: 0x6A385, size: 0x8, addend: 0x0, symName: __RINvXsS_NtCsdze8u8oDPro_5alloc5boxedINtB6_3BoxSIBz_SNtNtNtCsk0EuziVMDa8_11time_macros18format_description11format_item4ItemEEINtNtNtNtCs9f3LFPSIp77_4core4iter6traits7collect12FromIteratorBJ_E9from_iterINtNtB26_8adapters12GenericShuntINtNtB3g_3map3MapINtNtNtB8_3vec9into_iter8IntoIterNtNtBS_3ast23NestedFormatDescriptionENCNvMBQ_BO_8from_ast0EINtNtB28_6result6ResultNtNtB28_7convert10InfallibleNtBS_5ErrorEEEBU_, symObjAddr: 0xBE4, symBinAddr: 0x46D3C, symSize: 0x3C }
  - { offset: 0x6A3C6, size: 0x8, addend: 0x0, symName: __RINvXsS_NtCsdze8u8oDPro_5alloc5boxedINtB6_3BoxSNtNtNtCsk0EuziVMDa8_11time_macros18format_description11format_item4ItemEINtNtNtNtCs9f3LFPSIp77_4core4iter6traits7collect12FromIteratorBJ_E9from_iterINtNtB20_8adapters12GenericShuntINtNtB3a_3map3MapINtNtNtB8_3vec9into_iter8IntoIterNtNtBN_3ast4ItemENvMBL_BJ_8from_astEINtNtB22_6result6ResultNtNtB22_7convert10InfallibleNtBN_5ErrorEEEBP_, symObjAddr: 0xC20, symBinAddr: 0x46D78, symSize: 0x3C }
  - { offset: 0x6A407, size: 0x8, addend: 0x0, symName: __RINvXsS_NtCsdze8u8oDPro_5alloc5boxedINtB6_3BoxSNtNtNtCsk0EuziVMDa8_11time_macros18format_description3ast4ItemEINtNtNtNtCs9f3LFPSIp77_4core4iter6traits7collect12FromIteratorBJ_E9from_iterINtNtB1R_8adapters12GenericShuntINtNtNtB1R_7sources7from_fn6FromFnNCINvBL_11parse_innerIB3v_NCINvNtBN_5lexer3lexKh1_E0EKb1_KB4N_E0EINtNtB1T_6result6ResultNtNtB1T_7convert10InfallibleNtBN_5ErrorEEEBP_, symObjAddr: 0xC5C, symBinAddr: 0x46DB4, symSize: 0x40 }
  - { offset: 0x6A447, size: 0x8, addend: 0x0, symName: __RINvXsS_NtCsdze8u8oDPro_5alloc5boxedINtB6_3BoxSNtNtNtCsk0EuziVMDa8_11time_macros18format_description3ast4ItemEINtNtNtNtCs9f3LFPSIp77_4core4iter6traits7collect12FromIteratorBJ_E9from_iterINtNtB1R_8adapters12GenericShuntINtNtNtB1R_7sources7from_fn6FromFnNCINvBL_11parse_innerIB3v_NCINvNtBN_5lexer3lexKh2_E0EKb1_KB4N_E0EINtNtB1T_6result6ResultNtNtB1T_7convert10InfallibleNtBN_5ErrorEEEBP_, symObjAddr: 0xC9C, symBinAddr: 0x46DF4, symSize: 0x40 }
  - { offset: 0x6A487, size: 0x8, addend: 0x0, symName: __RINvXsS_NtCsdze8u8oDPro_5alloc5boxedINtB6_3BoxSNtNtNtCsk0EuziVMDa8_11time_macros18format_description6public15OwnedFormatItemEINtNtNtNtCs9f3LFPSIp77_4core4iter6traits7collect12FromIteratorBJ_E9from_iterINtNtNtB26_8adapters3map3MapINtNtNtB8_3vec9into_iter8IntoIterIBz_SNtNtBN_11format_item4ItemEENvYB4c_INtNtB28_7convert4IntoBJ_E4intoEEBP_, symObjAddr: 0xCDC, symBinAddr: 0x46E34, symSize: 0x3C }
  - { offset: 0x6A4C8, size: 0x8, addend: 0x0, symName: __RINvXsS_NtCsdze8u8oDPro_5alloc5boxedINtB6_3BoxSNtNtNtCsk0EuziVMDa8_11time_macros18format_description6public15OwnedFormatItemEINtNtNtNtCs9f3LFPSIp77_4core4iter6traits7collect12FromIteratorBJ_E9from_iterINtNtNtB26_8adapters3map3MapINtNtNtB8_3vec9into_iter8IntoIterNtNtBN_11format_item4ItemENvYB4c_INtNtB28_7convert4IntoBJ_E4intoEEBP_, symObjAddr: 0xD18, symBinAddr: 0x46E70, symSize: 0x3C }
  - { offset: 0x6A50F, size: 0x8, addend: 0x0, symName: __RNvXs18_NtCsdze8u8oDPro_5alloc5boxedINtB6_3BoxShEINtNtCs9f3LFPSIp77_4core7convert5AsRefBI_E6as_refCsk0EuziVMDa8_11time_macros, symObjAddr: 0x1C8C, symBinAddr: 0x47DE4, symSize: 0x20 }
  - { offset: 0x6A555, size: 0x8, addend: 0x0, symName: __RNvXs6_NtCsdze8u8oDPro_5alloc5boxedINtB5_3BoxDNtNtCs9f3LFPSIp77_4core5error5ErrorNtNtBM_6marker4SendNtB1j_4SyncEL_ENtNtNtBM_3ops4drop4Drop4dropCsk0EuziVMDa8_11time_macros, symObjAddr: 0x1D5C, symBinAddr: 0x47EB4, symSize: 0xC4 }
  - { offset: 0x6A6D3, size: 0x8, addend: 0x0, symName: __RNvXs6_NtCsdze8u8oDPro_5alloc5boxedINtB5_3BoxNtNtNtCs27l1GJC5rMQ_3std2io5error6CustomENtNtNtCs9f3LFPSIp77_4core3ops4drop4Drop4dropCsk0EuziVMDa8_11time_macros, symObjAddr: 0x1E20, symBinAddr: 0x47F78, symSize: 0xB0 }
  - { offset: 0x6A851, size: 0x8, addend: 0x0, symName: __RNvXs6_NtCsdze8u8oDPro_5alloc5boxedINtB5_3BoxNtNtNtCsk0EuziVMDa8_11time_macros18format_description6public15OwnedFormatItemENtNtNtCs9f3LFPSIp77_4core3ops4drop4Drop4dropBN_, symObjAddr: 0x1ED0, symBinAddr: 0x48028, symSize: 0xB0 }
  - { offset: 0x6A9CF, size: 0x8, addend: 0x0, symName: __RNvXs6_NtCsdze8u8oDPro_5alloc5boxedINtB5_3BoxSIBy_SNtNtNtCsk0EuziVMDa8_11time_macros18format_description11format_item4ItemEENtNtNtCs9f3LFPSIp77_4core3ops4drop4Drop4dropBT_, symObjAddr: 0x1F80, symBinAddr: 0x480D8, symSize: 0xBC }
  - { offset: 0x6AB4D, size: 0x8, addend: 0x0, symName: __RNvXs6_NtCsdze8u8oDPro_5alloc5boxedINtB5_3BoxSNtNtNtCsk0EuziVMDa8_11time_macros18format_description11format_item4ItemENtNtNtCs9f3LFPSIp77_4core3ops4drop4Drop4dropBO_, symObjAddr: 0x203C, symBinAddr: 0x48194, symSize: 0xC0 }
  - { offset: 0x6ACCB, size: 0x8, addend: 0x0, symName: __RNvXs6_NtCsdze8u8oDPro_5alloc5boxedINtB5_3BoxSNtNtNtCsk0EuziVMDa8_11time_macros18format_description3ast23NestedFormatDescriptionENtNtNtCs9f3LFPSIp77_4core3ops4drop4Drop4dropBO_, symObjAddr: 0x20FC, symBinAddr: 0x48254, symSize: 0xBC }
  - { offset: 0x6AE49, size: 0x8, addend: 0x0, symName: __RNvXs6_NtCsdze8u8oDPro_5alloc5boxedINtB5_3BoxSNtNtNtCsk0EuziVMDa8_11time_macros18format_description3ast4ItemENtNtNtCs9f3LFPSIp77_4core3ops4drop4Drop4dropBO_, symObjAddr: 0x21B8, symBinAddr: 0x48310, symSize: 0xC0 }
  - { offset: 0x6AFC7, size: 0x8, addend: 0x0, symName: __RNvXs6_NtCsdze8u8oDPro_5alloc5boxedINtB5_3BoxSNtNtNtCsk0EuziVMDa8_11time_macros18format_description3ast8ModifierENtNtNtCs9f3LFPSIp77_4core3ops4drop4Drop4dropBO_, symObjAddr: 0x2278, symBinAddr: 0x483D0, symSize: 0xBC }
  - { offset: 0x6B145, size: 0x8, addend: 0x0, symName: __RNvXs6_NtCsdze8u8oDPro_5alloc5boxedINtB5_3BoxSNtNtNtCsk0EuziVMDa8_11time_macros18format_description6public15OwnedFormatItemENtNtNtCs9f3LFPSIp77_4core3ops4drop4Drop4dropBO_, symObjAddr: 0x2334, symBinAddr: 0x4848C, symSize: 0xC0 }
  - { offset: 0x6B2C3, size: 0x8, addend: 0x0, symName: __RNvXs6_NtCsdze8u8oDPro_5alloc5boxedINtB5_3BoxShENtNtNtCs9f3LFPSIp77_4core3ops4drop4Drop4dropCsk0EuziVMDa8_11time_macros, symObjAddr: 0x23F4, symBinAddr: 0x4854C, symSize: 0xBC }
  - { offset: 0x6C82B, size: 0x8, addend: 0x0, symName: __RINvNtCs9f3LFPSIp77_4core3cmp6max_byjNvYjNtB2_3Ord3cmpECsk0EuziVMDa8_11time_macros, symObjAddr: 0xA5C, symBinAddr: 0x46BB4, symSize: 0xC0 }
  - { offset: 0x6C889, size: 0x8, addend: 0x0, symName: __RINvNtCs9f3LFPSIp77_4core3cmp6min_byjNvYjNtB2_3Ord3cmpECsk0EuziVMDa8_11time_macros, symObjAddr: 0xB1C, symBinAddr: 0x46C74, symSize: 0xC8 }
  - { offset: 0x6CB8D, size: 0x8, addend: 0x0, symName: __RNvXsP_NtCs9f3LFPSIp77_4core3fmtRINtNtB7_6option6OptionjENtB5_5Debug3fmtCsk0EuziVMDa8_11time_macros, symObjAddr: 0x263C, symBinAddr: 0x48794, symSize: 0x30 }
  - { offset: 0x6CBD9, size: 0x8, addend: 0x0, symName: __RNvXsR_NtCs9f3LFPSIp77_4core3fmtRNtNtCsdze8u8oDPro_5alloc6string6StringNtB5_7Display3fmtCsk0EuziVMDa8_11time_macros, symObjAddr: 0x266C, symBinAddr: 0x487C4, symSize: 0x30 }
  - { offset: 0x6CC2F, size: 0x8, addend: 0x0, symName: __RNvXs_NvNtNtCs9f3LFPSIp77_4core3fmt5Write9write_fmtQNtNtCsdze8u8oDPro_5alloc6string6StringNtB4_12SpecWriteFmt14spec_write_fmtCsk0EuziVMDa8_11time_macros, symObjAddr: 0x28E8, symBinAddr: 0x48A40, symSize: 0x190 }
  - { offset: 0x6CCF5, size: 0x8, addend: 0x0, symName: __RNvYNtNtCsdze8u8oDPro_5alloc6string6StringNtNtCs9f3LFPSIp77_4core3fmt5Write9write_fmtCsk0EuziVMDa8_11time_macros, symObjAddr: 0x32E4, symBinAddr: 0x4943C, symSize: 0x24 }
  - { offset: 0x6E19C, size: 0x8, addend: 0x0, symName: __RNvXsB_NtCs9f3LFPSIp77_4core6optionINtB5_6OptionINtNtB7_6result6ResultNtNtNtCsk0EuziVMDa8_11time_macros18format_description5lexer5TokenNtB1a_5ErrorEENtNtNtB7_3ops9try_trait3Try6branchB1c_, symObjAddr: 0x24B0, symBinAddr: 0x48608, symSize: 0x74 }
  - { offset: 0x6E1F2, size: 0x8, addend: 0x0, symName: __RNvXsB_NtCs9f3LFPSIp77_4core6optionINtB5_6OptionTRhNtNtCsk0EuziVMDa8_11time_macros18format_description8LocationEENtNtNtB7_3ops9try_trait3Try6branchBR_, symObjAddr: 0x2524, symBinAddr: 0x4867C, symSize: 0x50 }
  - { offset: 0x6E24E, size: 0x8, addend: 0x0, symName: __RNvXsC_NtCs9f3LFPSIp77_4core6optionINtB5_6OptionINtNtB7_6result6ResultNtNtNtCsk0EuziVMDa8_11time_macros18format_description3ast4ItemNtB1a_5ErrorEEINtNtNtB7_3ops9try_trait12FromResidualIBy_NtNtB7_7convert10InfallibleEE13from_residualB1c_, symObjAddr: 0x2574, symBinAddr: 0x486CC, symSize: 0x18 }
  - { offset: 0x6E290, size: 0x8, addend: 0x0, symName: __RNvXsC_NtCs9f3LFPSIp77_4core6optionINtB5_6OptionINtNtB7_6result6ResultNtNtNtCsk0EuziVMDa8_11time_macros18format_description5lexer5TokenNtB1a_5ErrorEEINtNtNtB7_3ops9try_trait12FromResidualIBy_NtNtB7_7convert10InfallibleEE13from_residualB1c_, symObjAddr: 0x258C, symBinAddr: 0x486E4, symSize: 0x18 }
  - { offset: 0x6E2D8, size: 0x8, addend: 0x0, symName: __RNvXsI_NtCs9f3LFPSIp77_4core6optionINtB5_6OptionjENtNtB7_3fmt5Debug3fmtCsk0EuziVMDa8_11time_macros, symObjAddr: 0x25A4, symBinAddr: 0x486FC, symSize: 0x98 }
  - { offset: 0x6EBBE, size: 0x8, addend: 0x0, symName: __RINvXs_NtNtNtCs9f3LFPSIp77_4core4iter8adapters6clonedINtB5_6ClonedINtNtNtBb_5slice4iter4IterNtCsjLJ1XWNSM6u_10proc_macro9TokenTreeEENtNtNtB9_6traits8iterator8Iterator4folduNCINvNvB26_8for_each4callB1s_NCINvXsh_B1u_NtB1u_11TokenStreamINtNtB2a_7collect12FromIteratorB1s_E9from_iterBP_E0E0ECsk0EuziVMDa8_11time_macros, symObjAddr: 0xD54, symBinAddr: 0x46EAC, symSize: 0xB8 }
  - { offset: 0x6EC53, size: 0x8, addend: 0x0, symName: __RNvXs_NtNtNtCs9f3LFPSIp77_4core4iter8adapters6clonedINtB4_6ClonedINtNtNtBa_5slice4iter4IterNtCsjLJ1XWNSM6u_10proc_macro9TokenTreeEENtNtNtB8_6traits8iterator8Iterator9size_hintCsk0EuziVMDa8_11time_macros, symObjAddr: 0x28C4, symBinAddr: 0x48A1C, symSize: 0x24 }
  - { offset: 0x6EE30, size: 0x8, addend: 0x0, symName: __RINvYINtNtNtNtCs9f3LFPSIp77_4core4iter8adapters6cloned6ClonedINtNtNtBc_5slice4iter4IterNtCsjLJ1XWNSM6u_10proc_macro9TokenTreeEENtNtNtBa_6traits8iterator8Iterator7collectNtB1p_11TokenStreamECsk0EuziVMDa8_11time_macros, symObjAddr: 0xE0C, symBinAddr: 0x46F64, symSize: 0x2C }
  - { offset: 0x6EE70, size: 0x8, addend: 0x0, symName: __RINvYINtNtNtNtCs9f3LFPSIp77_4core4iter8adapters6cloned6ClonedINtNtNtBc_5slice4iter4IterNtCsjLJ1XWNSM6u_10proc_macro9TokenTreeEENtNtNtBa_6traits8iterator8Iterator8for_eachNCINvXsh_B1p_NtB1p_11TokenStreamINtNtB25_7collect12FromIteratorB1n_E9from_iterB3_E0ECsk0EuziVMDa8_11time_macros, symObjAddr: 0xE38, symBinAddr: 0x46F90, symSize: 0x34 }
  - { offset: 0x6EEC7, size: 0x8, addend: 0x0, symName: __RNvXs_NtNtNtCs9f3LFPSIp77_4core4iter6traits7collectINtNtNtB8_8adapters6cloned6ClonedINtNtNtBa_5slice4iter4IterNtCsjLJ1XWNSM6u_10proc_macro9TokenTreeEENtB4_12IntoIterator9into_iterCsk0EuziVMDa8_11time_macros, symObjAddr: 0x28A8, symBinAddr: 0x48A00, symSize: 0x1C }
  - { offset: 0x6F0B8, size: 0x8, addend: 0x0, symName: __RNvNvNtNtCs9f3LFPSIp77_4core5slice3raw14from_raw_parts18precondition_checkCsk0EuziVMDa8_11time_macros, symObjAddr: 0x1998, symBinAddr: 0x47AF0, symSize: 0x164 }
  - { offset: 0x6F212, size: 0x8, addend: 0x0, symName: __RNvNvNtNtCs9f3LFPSIp77_4core5slice3raw18from_raw_parts_mut18precondition_checkCsk0EuziVMDa8_11time_macros, symObjAddr: 0x1AFC, symBinAddr: 0x47C54, symSize: 0x164 }
  - { offset: 0x6FD36, size: 0x8, addend: 0x0, symName: __RNvXs1_NtCs9f3LFPSIp77_4core7convertINtNtCsdze8u8oDPro_5alloc5boxed3BoxSNtNtNtCsk0EuziVMDa8_11time_macros18format_description11format_item4ItemEINtB5_4IntoNtNtB1c_6public15OwnedFormatItemE4intoB1e_, symObjAddr: 0x1CAC, symBinAddr: 0x47E04, symSize: 0x28 }
  - { offset: 0x71772, size: 0x8, addend: 0x0, symName: __RNvXsR_NtCsjLJ1XWNSM6u_10proc_macro6bridgeINtNtCs9f3LFPSIp77_4core6option6OptionNtNtB5_6client11TokenStreamEINtNtB5_3rpc6EncodeuE6encodeCsk0EuziVMDa8_11time_macros, symObjAddr: 0x269C, symBinAddr: 0x487F4, symSize: 0xCC }
  - { offset: 0x71816, size: 0x8, addend: 0x0, symName: __RNvXsR_NtCsjLJ1XWNSM6u_10proc_macro6bridgeINtNtCs9f3LFPSIp77_4core6option6OptionReEINtNtB5_3rpc6EncodeuE6encodeCsk0EuziVMDa8_11time_macros, symObjAddr: 0x2768, symBinAddr: 0x488C0, symSize: 0xD8 }
  - { offset: 0x71C6E, size: 0x8, addend: 0x0, symName: __RINvMNtCs9f3LFPSIp77_4core6optionINtB3_6OptionIBw_INtNtB5_6result6ResultNtNtNtCsk0EuziVMDa8_11time_macros18format_description5lexer5TokenNtB1c_5ErrorEEE18get_or_insert_withNCNvMs3_NtNtNtB5_4iter8adapters8peekableINtB2S_8PeekableINtNtNtB2W_7sources7from_fn6FromFnNCINvB1a_3lexKh1_E0EE4peek0EB1e_, symObjAddr: 0x0, symBinAddr: 0x46158, symSize: 0x10C }
  - { offset: 0x71D6C, size: 0x8, addend: 0x0, symName: __RINvMNtCs9f3LFPSIp77_4core6optionINtB3_6OptionIBw_INtNtB5_6result6ResultNtNtNtCsk0EuziVMDa8_11time_macros18format_description5lexer5TokenNtB1c_5ErrorEEE18get_or_insert_withNCNvMs3_NtNtNtB5_4iter8adapters8peekableINtB2S_8PeekableINtNtNtB2W_7sources7from_fn6FromFnNCINvB1a_3lexKh2_E0EE4peek0EB1e_, symObjAddr: 0x10C, symBinAddr: 0x46264, symSize: 0x10C }
  - { offset: 0x71E1B, size: 0x8, addend: 0x0, symName: __RINvMNtCs9f3LFPSIp77_4core6optionINtB3_6OptionIBw_INtNtNtB5_3num7nonzero7NonZerotEEE10ok_or_elseNtNtCsk0EuziVMDa8_11time_macros18format_description5ErrorNCINvNtB1y_11format_item25parse_from_modifier_valueBM_Es0_0EB1A_, symObjAddr: 0x218, symBinAddr: 0x46370, symSize: 0x74 }
  - { offset: 0x71F16, size: 0x8, addend: 0x0, symName: __RINvMNtCs9f3LFPSIp77_4core6optionINtB3_6OptionIBw_NtCsjLJ1XWNSM6u_10proc_macro9TokenTreeEE18get_or_insert_withNCNvMs3_NtNtNtB5_4iter8adapters8peekableINtB1S_8PeekableNtNtBO_12token_stream8IntoIterE4peek0ECsk0EuziVMDa8_11time_macros, symObjAddr: 0x28C, symBinAddr: 0x463E4, symSize: 0x138 }
  - { offset: 0x71FB1, size: 0x8, addend: 0x0, symName: __RINvMNtCs9f3LFPSIp77_4core6optionINtB3_6OptionINtNtNtB5_3num7nonzero7NonZerotEE3mapBv_NCINvNtNtCsk0EuziVMDa8_11time_macros18format_description11format_item25parse_from_modifier_valueBI_Es_0EB1v_, symObjAddr: 0x3C4, symBinAddr: 0x4651C, symSize: 0x5C }
  - { offset: 0x72028, size: 0x8, addend: 0x0, symName: __RINvMNtCs9f3LFPSIp77_4core6optionINtB3_6OptionNtCsjLJ1XWNSM6u_10proc_macro4SpanE14unwrap_or_elseNCNvMs0_NtCsk0EuziVMDa8_11time_macros5errorNtB1E_5Error8span_end0EB1G_, symObjAddr: 0x420, symBinAddr: 0x46578, symSize: 0x5C }
  - { offset: 0x7209B, size: 0x8, addend: 0x0, symName: __RINvMNtCs9f3LFPSIp77_4core6optionINtB3_6OptionNtCsjLJ1XWNSM6u_10proc_macro4SpanE14unwrap_or_elseNvMsn_BK_BI_10mixed_siteECsk0EuziVMDa8_11time_macros, symObjAddr: 0x47C, symBinAddr: 0x465D4, symSize: 0x50 }
  - { offset: 0x720FC, size: 0x8, addend: 0x0, symName: __RINvMNtCs9f3LFPSIp77_4core6optionINtB3_6OptionReE8and_thenINtNtNtB5_3num7nonzero7NonZerotENCINvNtNtCsk0EuziVMDa8_11time_macros18format_description11format_item25parse_from_modifier_valueBU_E0EB1z_, symObjAddr: 0x4CC, symBinAddr: 0x46624, symSize: 0x5C }
  - { offset: 0x72564, size: 0x8, addend: 0x0, symName: __RNvMNtCs9f3LFPSIp77_4core6optionINtB2_6OptionINtNtNtB4_3num7nonzero7NonZerotEE7is_noneCsk0EuziVMDa8_11time_macros, symObjAddr: 0xE6C, symBinAddr: 0x46FC4, symSize: 0x4C }
  - { offset: 0x725AE, size: 0x8, addend: 0x0, symName: __RNvMNtCs9f3LFPSIp77_4core6optionINtB2_6OptionNtCsjLJ1XWNSM6u_10proc_macro4SpanE9unwrap_orCsk0EuziVMDa8_11time_macros, symObjAddr: 0xEB8, symBinAddr: 0x47010, symSize: 0x4C }
  - { offset: 0x72613, size: 0x8, addend: 0x0, symName: __RNvMNtCs9f3LFPSIp77_4core6optionINtB2_6OptionNtNtCsk0EuziVMDa8_11time_macros18format_description8LocationE4takeBL_, symObjAddr: 0xF04, symBinAddr: 0x4705C, symSize: 0x3C }
  - { offset: 0x726BF, size: 0x8, addend: 0x0, symName: __RNvMNtCs9f3LFPSIp77_4core6optionINtB2_6OptionNtNtNtCsk0EuziVMDa8_11time_macros18format_description11format_item10PeriodCaseE17unwrap_or_defaultBN_, symObjAddr: 0xF40, symBinAddr: 0x47098, symSize: 0x60 }
  - { offset: 0x72708, size: 0x8, addend: 0x0, symName: __RNvMNtCs9f3LFPSIp77_4core6optionINtB2_6OptionNtNtNtCsk0EuziVMDa8_11time_macros18format_description11format_item11WeekdayReprE17unwrap_or_defaultBN_, symObjAddr: 0xFA0, symBinAddr: 0x470F8, symSize: 0x50 }
  - { offset: 0x72751, size: 0x8, addend: 0x0, symName: __RNvMNtCs9f3LFPSIp77_4core6optionINtB2_6OptionNtNtNtCsk0EuziVMDa8_11time_macros18format_description11format_item12SignBehaviorE17unwrap_or_defaultBN_, symObjAddr: 0xFF0, symBinAddr: 0x47148, symSize: 0x60 }
  - { offset: 0x7279A, size: 0x8, addend: 0x0, symName: __RNvMNtCs9f3LFPSIp77_4core6optionINtB2_6OptionNtNtNtCsk0EuziVMDa8_11time_macros18format_description11format_item14WeekNumberReprE17unwrap_or_defaultBN_, symObjAddr: 0x1050, symBinAddr: 0x471A8, symSize: 0x50 }
  - { offset: 0x727E3, size: 0x8, addend: 0x0, symName: __RNvMNtCs9f3LFPSIp77_4core6optionINtB2_6OptionNtNtNtCsk0EuziVMDa8_11time_macros18format_description11format_item15SubsecondDigitsE17unwrap_or_defaultBN_, symObjAddr: 0x10A0, symBinAddr: 0x471F8, symSize: 0x50 }
  - { offset: 0x7282C, size: 0x8, addend: 0x0, symName: __RNvMNtCs9f3LFPSIp77_4core6optionINtB2_6OptionNtNtNtCsk0EuziVMDa8_11time_macros18format_description11format_item17WeekdayOneIndexedE17unwrap_or_defaultBN_, symObjAddr: 0x10F0, symBinAddr: 0x47248, symSize: 0x60 }
  - { offset: 0x72875, size: 0x8, addend: 0x0, symName: __RNvMNtCs9f3LFPSIp77_4core6optionINtB2_6OptionNtNtNtCsk0EuziVMDa8_11time_macros18format_description11format_item18MonthCaseSensitiveE17unwrap_or_defaultBN_, symObjAddr: 0x1150, symBinAddr: 0x472A8, symSize: 0x60 }
  - { offset: 0x728BE, size: 0x8, addend: 0x0, symName: __RNvMNtCs9f3LFPSIp77_4core6optionINtB2_6OptionNtNtNtCsk0EuziVMDa8_11time_macros18format_description11format_item19PeriodCaseSensitiveE17unwrap_or_defaultBN_, symObjAddr: 0x11B0, symBinAddr: 0x47308, symSize: 0x60 }
  - { offset: 0x72907, size: 0x8, addend: 0x0, symName: __RNvMNtCs9f3LFPSIp77_4core6optionINtB2_6OptionNtNtNtCsk0EuziVMDa8_11time_macros18format_description11format_item20WeekdayCaseSensitiveE17unwrap_or_defaultBN_, symObjAddr: 0x1210, symBinAddr: 0x47368, symSize: 0x60 }
  - { offset: 0x72950, size: 0x8, addend: 0x0, symName: __RNvMNtCs9f3LFPSIp77_4core6optionINtB2_6OptionNtNtNtCsk0EuziVMDa8_11time_macros18format_description11format_item22UnixTimestampPrecisionE17unwrap_or_defaultBN_, symObjAddr: 0x1270, symBinAddr: 0x473C8, symSize: 0x50 }
  - { offset: 0x72999, size: 0x8, addend: 0x0, symName: __RNvMNtCs9f3LFPSIp77_4core6optionINtB2_6OptionNtNtNtCsk0EuziVMDa8_11time_macros18format_description11format_item7PaddingE17unwrap_or_defaultBN_, symObjAddr: 0x12C0, symBinAddr: 0x47418, symSize: 0x50 }
  - { offset: 0x729E2, size: 0x8, addend: 0x0, symName: __RNvMNtCs9f3LFPSIp77_4core6optionINtB2_6OptionNtNtNtCsk0EuziVMDa8_11time_macros18format_description11format_item8HourBaseE17unwrap_or_defaultBN_, symObjAddr: 0x1310, symBinAddr: 0x47468, symSize: 0x60 }
  - { offset: 0x72A2B, size: 0x8, addend: 0x0, symName: __RNvMNtCs9f3LFPSIp77_4core6optionINtB2_6OptionNtNtNtCsk0EuziVMDa8_11time_macros18format_description11format_item8YearBaseE17unwrap_or_defaultBN_, symObjAddr: 0x1370, symBinAddr: 0x474C8, symSize: 0x60 }
  - { offset: 0x72A74, size: 0x8, addend: 0x0, symName: __RNvMNtCs9f3LFPSIp77_4core6optionINtB2_6OptionNtNtNtCsk0EuziVMDa8_11time_macros18format_description11format_item8YearReprE17unwrap_or_defaultBN_, symObjAddr: 0x13D0, symBinAddr: 0x47528, symSize: 0x50 }
  - { offset: 0x72ABD, size: 0x8, addend: 0x0, symName: __RNvMNtCs9f3LFPSIp77_4core6optionINtB2_6OptionNtNtNtCsk0EuziVMDa8_11time_macros18format_description11format_item9MonthReprE17unwrap_or_defaultBN_, symObjAddr: 0x1420, symBinAddr: 0x47578, symSize: 0x50 }
  - { offset: 0x72B20, size: 0x8, addend: 0x0, symName: __RNvMNtCs9f3LFPSIp77_4core6optionINtB2_6OptionRNtNtCsk0EuziVMDa8_11time_macros18format_description8LocationE7is_someBM_, symObjAddr: 0x1470, symBinAddr: 0x475C8, symSize: 0x48 }
  - { offset: 0x72B4C, size: 0x8, addend: 0x0, symName: __RNvMNtCs9f3LFPSIp77_4core6optionINtB2_6OptioncE17unwrap_or_defaultCsk0EuziVMDa8_11time_macros, symObjAddr: 0x14B8, symBinAddr: 0x47610, symSize: 0x40 }
  - { offset: 0x72B95, size: 0x8, addend: 0x0, symName: __RNvMNtCs9f3LFPSIp77_4core6optionINtB2_6OptioncE6expectCsk0EuziVMDa8_11time_macros, symObjAddr: 0x14F8, symBinAddr: 0x47650, symSize: 0x5C }
  - { offset: 0x72BD0, size: 0x8, addend: 0x0, symName: __RNvMNtCs9f3LFPSIp77_4core6optionINtB2_6OptionhE17unwrap_or_defaultCsk0EuziVMDa8_11time_macros, symObjAddr: 0x1554, symBinAddr: 0x476AC, symSize: 0x3C }
  - { offset: 0x72C19, size: 0x8, addend: 0x0, symName: __RNvMNtCs9f3LFPSIp77_4core6optionINtB2_6OptionjE6expectCsk0EuziVMDa8_11time_macros, symObjAddr: 0x1590, symBinAddr: 0x476E8, symSize: 0x58 }
  - { offset: 0x72C54, size: 0x8, addend: 0x0, symName: __RNvMNtCsdze8u8oDPro_5alloc6stringNtB2_6String10into_bytesCsk0EuziVMDa8_11time_macros, symObjAddr: 0x15E8, symBinAddr: 0x47740, symSize: 0x18 }
  - { offset: 0x72CF3, size: 0x8, addend: 0x0, symName: __RNvMNtCsdze8u8oDPro_5alloc6stringNtB2_6String3newCsk0EuziVMDa8_11time_macros, symObjAddr: 0x1600, symBinAddr: 0x47758, symSize: 0x3C }
  - { offset: 0x72EB7, size: 0x8, addend: 0x0, symName: __RNvMNtCsdze8u8oDPro_5alloc6stringNtB2_6String4pushCsk0EuziVMDa8_11time_macros, symObjAddr: 0x163C, symBinAddr: 0x47794, symSize: 0x180 }
  - { offset: 0x73394, size: 0x8, addend: 0x0, symName: __RNvMNtCsdze8u8oDPro_5alloc6stringNtB2_6String6as_strCsk0EuziVMDa8_11time_macros, symObjAddr: 0x17BC, symBinAddr: 0x47914, symSize: 0x88 }
  - { offset: 0x73517, size: 0x8, addend: 0x0, symName: __RNvMNtCsdze8u8oDPro_5alloc6stringNtB2_6String8as_bytesCsk0EuziVMDa8_11time_macros, symObjAddr: 0x1844, symBinAddr: 0x4799C, symSize: 0x24 }
  - { offset: 0x7360C, size: 0x8, addend: 0x0, symName: __RNvMNtCsdze8u8oDPro_5alloc6stringNtB2_6String8push_strCsk0EuziVMDa8_11time_macros, symObjAddr: 0x1868, symBinAddr: 0x479C0, symSize: 0xDC }
  - { offset: 0x7391A, size: 0x8, addend: 0x0, symName: __RNvMs0_NtCs9f3LFPSIp77_4core6optionINtB5_6OptionRhE6copiedCsk0EuziVMDa8_11time_macros, symObjAddr: 0x1944, symBinAddr: 0x47A9C, symSize: 0x54 }
  - { offset: 0x74F9C, size: 0x8, addend: 0x0, symName: __RINvNtNtCsdze8u8oDPro_5alloc5slice4hack8into_vecINtNtB6_5boxed3BoxSNtNtNtCsk0EuziVMDa8_11time_macros18format_description11format_item4ItemENtNtB6_5alloc6GlobalEB19_, symObjAddr: 0x0, symBinAddr: 0x49460, symSize: 0xB8 }
  - { offset: 0x75FA6, size: 0x8, addend: 0x0, symName: __RNvNtNtCsk0EuziVMDa8_11time_macros7helpers6string5parse, symObjAddr: 0xA90, symBinAddr: 0x49EF0, symSize: 0x3AC }
  - { offset: 0x7602F, size: 0x8, addend: 0x0, symName: __RINvNtNtCsk0EuziVMDa8_11time_macros7helpers6string4byteRShEB6_, symObjAddr: 0xE3C, symBinAddr: 0x4A29C, symSize: 0xB0 }
  - { offset: 0x76072, size: 0x8, addend: 0x0, symName: __RINvNtNtCsk0EuziVMDa8_11time_macros7helpers6string4byteReEB6_, symObjAddr: 0xEEC, symBinAddr: 0x4A34C, symSize: 0xB0 }
  - { offset: 0x760B5, size: 0x8, addend: 0x0, symName: __RNvNtNtCsk0EuziVMDa8_11time_macros7helpers6string20parse_lit_str_cooked, symObjAddr: 0xF9C, symBinAddr: 0x4A3FC, symSize: 0x6C4 }
  - { offset: 0x761DB, size: 0x8, addend: 0x0, symName: __RNvNtNtCsk0EuziVMDa8_11time_macros7helpers6string17parse_lit_str_raw, symObjAddr: 0x1660, symBinAddr: 0x4AAC0, symSize: 0x1D0 }
  - { offset: 0x76322, size: 0x8, addend: 0x0, symName: __RNCNvNtNtCsk0EuziVMDa8_11time_macros7helpers6string17parse_lit_str_raw0B7_, symObjAddr: 0x1830, symBinAddr: 0x4AC90, symSize: 0x38 }
  - { offset: 0x76378, size: 0x8, addend: 0x0, symName: __RNvNtNtCsk0EuziVMDa8_11time_macros7helpers6string25parse_lit_byte_str_cooked, symObjAddr: 0x1868, symBinAddr: 0x4ACC8, symSize: 0x5C4 }
  - { offset: 0x7651B, size: 0x8, addend: 0x0, symName: __RINvNtNtCsk0EuziVMDa8_11time_macros7helpers6string11backslash_xShEB6_, symObjAddr: 0x1E2C, symBinAddr: 0x4B28C, symSize: 0x3AC }
  - { offset: 0x765B2, size: 0x8, addend: 0x0, symName: __RINvNtNtCsk0EuziVMDa8_11time_macros7helpers6string11backslash_xeEB6_, symObjAddr: 0x21D8, symBinAddr: 0x4B638, symSize: 0x39C }
  - { offset: 0x76624, size: 0x8, addend: 0x0, symName: __RNvNtNtCsk0EuziVMDa8_11time_macros7helpers6string11backslash_u, symObjAddr: 0x2574, symBinAddr: 0x4B9D4, symSize: 0x488 }
  - { offset: 0x766A2, size: 0x8, addend: 0x0, symName: __RINvNtCsk0EuziVMDa8_11time_macros7helpers18get_string_literalINtNtNtNtCs9f3LFPSIp77_4core4iter8adapters8peekable8PeekableNtNtCsjLJ1XWNSM6u_10proc_macro12token_stream8IntoIterEEB4_, symObjAddr: 0x29FC, symBinAddr: 0x4BE5C, symSize: 0x3C8 }
  - { offset: 0x7671F, size: 0x8, addend: 0x0, symName: __RINvNtCsk0EuziVMDa8_11time_macros7helpers14consume_numberaEB4_, symObjAddr: 0x2DC4, symBinAddr: 0x4C224, symSize: 0x3E8 }
  - { offset: 0x767CC, size: 0x8, addend: 0x0, symName: __RINvNtCsk0EuziVMDa8_11time_macros7helpers14consume_numberdEB4_, symObjAddr: 0x31AC, symBinAddr: 0x4C60C, symSize: 0x3D0 }
  - { offset: 0x7687B, size: 0x8, addend: 0x0, symName: __RINvNtCsk0EuziVMDa8_11time_macros7helpers14consume_numberhEB4_, symObjAddr: 0x357C, symBinAddr: 0x4C9DC, symSize: 0x3E8 }
  - { offset: 0x76928, size: 0x8, addend: 0x0, symName: __RINvNtCsk0EuziVMDa8_11time_macros7helpers14consume_numberlEB4_, symObjAddr: 0x3964, symBinAddr: 0x4CDC4, symSize: 0x3E0 }
  - { offset: 0x769D6, size: 0x8, addend: 0x0, symName: __RINvNtCsk0EuziVMDa8_11time_macros7helpers14consume_numbertEB4_, symObjAddr: 0x3D44, symBinAddr: 0x4D1A4, symSize: 0x3E0 }
  - { offset: 0x76A84, size: 0x8, addend: 0x0, symName: __RNvNtCsk0EuziVMDa8_11time_macros7helpers17consume_any_ident, symObjAddr: 0x4124, symBinAddr: 0x4D584, symSize: 0x280 }
  - { offset: 0x76B17, size: 0x8, addend: 0x0, symName: __RNvNtCsk0EuziVMDa8_11time_macros7helpers13consume_punct, symObjAddr: 0x43A4, symBinAddr: 0x4D804, symSize: 0x228 }
  - { offset: 0x76BA7, size: 0x8, addend: 0x0, symName: __RNvNtCsk0EuziVMDa8_11time_macros7helpers11jan_weekday, symObjAddr: 0x45CC, symBinAddr: 0x4DA2C, symSize: 0x4BC }
  - { offset: 0x76C5B, size: 0x8, addend: 0x0, symName: __RNvNtCsk0EuziVMDa8_11time_macros7helpers18days_in_year_month, symObjAddr: 0x4A88, symBinAddr: 0x4DEE8, symSize: 0x158 }
  - { offset: 0x76C95, size: 0x8, addend: 0x0, symName: __RNvNtCsk0EuziVMDa8_11time_macros7helpers9ywd_to_yo, symObjAddr: 0x4BE0, symBinAddr: 0x4E040, symSize: 0x288 }
  - { offset: 0x76D5D, size: 0x8, addend: 0x0, symName: __RNvNtCsk0EuziVMDa8_11time_macros7helpers9ymd_to_yo, symObjAddr: 0x4E68, symBinAddr: 0x4E2C8, symSize: 0x1B8 }
  - { offset: 0x77073, size: 0x8, addend: 0x0, symName: __RNvXs1p_NtNtCs9f3LFPSIp77_4core3fmt3numjNtB8_5Debug3fmtCsk0EuziVMDa8_11time_macros, symObjAddr: 0x860, symBinAddr: 0x49CC0, symSize: 0x90 }
  - { offset: 0x77FDF, size: 0x8, addend: 0x0, symName: __RNvNvMs1_NtNtCs9f3LFPSIp77_4core3ptr8non_nullINtB7_7NonNullpE13new_unchecked18precondition_checkCsk0EuziVMDa8_11time_macros, symObjAddr: 0x820, symBinAddr: 0x49C80, symSize: 0x40 }
  - { offset: 0x78119, size: 0x8, addend: 0x0, symName: __RINvNtNtNtCs9f3LFPSIp77_4core4iter8adapters3zip3zipRShBN_ECsk0EuziVMDa8_11time_macros, symObjAddr: 0x398, symBinAddr: 0x497F8, symSize: 0xDC }
  - { offset: 0x7816A, size: 0x8, addend: 0x0, symName: __RNvXs3_NtNtNtCs9f3LFPSIp77_4core4iter8adapters3zipINtB5_3ZipINtNtNtBb_5slice4iter4IterhEBW_EINtB5_7ZipImplBW_BW_E3newCsk0EuziVMDa8_11time_macros, symObjAddr: 0x8F0, symBinAddr: 0x49D50, symSize: 0xC4 }
  - { offset: 0x78241, size: 0x8, addend: 0x0, symName: __RNvXs3_NtNtNtCs9f3LFPSIp77_4core4iter8adapters3zipINtB5_3ZipINtNtNtBb_5slice4iter4IterhEBW_EINtB5_7ZipImplBW_BW_E4nextCsk0EuziVMDa8_11time_macros, symObjAddr: 0x9B4, symBinAddr: 0x49E14, symSize: 0xB8 }
  - { offset: 0x7829D, size: 0x8, addend: 0x0, symName: __RNvXs_NtNtNtCs9f3LFPSIp77_4core4iter8adapters3zipINtB4_3ZipINtNtNtBa_5slice4iter4IterhEBV_ENtNtNtB8_6traits8iterator8Iterator4nextCsk0EuziVMDa8_11time_macros, symObjAddr: 0xA6C, symBinAddr: 0x49ECC, symSize: 0x24 }
  - { offset: 0x78374, size: 0x8, addend: 0x0, symName: __RINvYINtNtNtNtCs9f3LFPSIp77_4core4iter8adapters3zip3ZipINtNtNtBc_5slice4iter4IterhEBR_ENtNtNtBa_6traits8iterator8Iterator8try_folduNCINvNvB1n_3all5checkTRhB2r_ENCNvMNtBW_5asciiSh20eq_ignore_ascii_case0E0INtNtNtBc_3ops12control_flow11ControlFlowuEECsk0EuziVMDa8_11time_macros, symObjAddr: 0x6D8, symBinAddr: 0x49B38, symSize: 0x148 }
  - { offset: 0x78D8E, size: 0x8, addend: 0x0, symName: __RINvNvNtNtCsjLJ1XWNSM6u_10proc_macro6bridge14selfless_reify31reify_to_extern_c_fn_hrt_bridge7wrapperNtNtB6_6buffer6BufferNCINvMs7_NtB6_6clientINtB24_6ClientNtB8_11TokenStreamB2u_E7expand1NvCsk0EuziVMDa8_11time_macros18format_descriptionE0EB31_, symObjAddr: 0x474, symBinAddr: 0x498D4, symSize: 0x4C }
  - { offset: 0x78DE9, size: 0x8, addend: 0x0, symName: __RINvNvNtNtCsjLJ1XWNSM6u_10proc_macro6bridge14selfless_reify31reify_to_extern_c_fn_hrt_bridge7wrapperNtNtB6_6buffer6BufferNCINvMs7_NtB6_6clientINtB24_6ClientNtB8_11TokenStreamB2u_E7expand1NvCsk0EuziVMDa8_11time_macros4dateE0EB31_, symObjAddr: 0x4C0, symBinAddr: 0x49920, symSize: 0x4C }
  - { offset: 0x78E44, size: 0x8, addend: 0x0, symName: __RINvNvNtNtCsjLJ1XWNSM6u_10proc_macro6bridge14selfless_reify31reify_to_extern_c_fn_hrt_bridge7wrapperNtNtB6_6buffer6BufferNCINvMs7_NtB6_6clientINtB24_6ClientNtB8_11TokenStreamB2u_E7expand1NvCsk0EuziVMDa8_11time_macros4timeE0EB31_, symObjAddr: 0x50C, symBinAddr: 0x4996C, symSize: 0x4C }
  - { offset: 0x78E9F, size: 0x8, addend: 0x0, symName: __RINvNvNtNtCsjLJ1XWNSM6u_10proc_macro6bridge14selfless_reify31reify_to_extern_c_fn_hrt_bridge7wrapperNtNtB6_6buffer6BufferNCINvMs7_NtB6_6clientINtB24_6ClientNtB8_11TokenStreamB2u_E7expand1NvCsk0EuziVMDa8_11time_macros6offsetE0EB31_, symObjAddr: 0x558, symBinAddr: 0x499B8, symSize: 0x4C }
  - { offset: 0x78EFA, size: 0x8, addend: 0x0, symName: __RINvNvNtNtCsjLJ1XWNSM6u_10proc_macro6bridge14selfless_reify31reify_to_extern_c_fn_hrt_bridge7wrapperNtNtB6_6buffer6BufferNCINvMs7_NtB6_6clientINtB24_6ClientNtB8_11TokenStreamB2u_E7expand1NvCsk0EuziVMDa8_11time_macros8datetimeE0EB31_, symObjAddr: 0x5A4, symBinAddr: 0x49A04, symSize: 0x4C }
  - { offset: 0x79E96, size: 0x8, addend: 0x0, symName: __RINvNtNtCsdze8u8oDPro_5alloc5slice4hack8into_vecINtNtB6_5boxed3BoxSNtNtNtCsk0EuziVMDa8_11time_macros18format_description11format_item4ItemENtNtB6_5alloc6GlobalEB19_, symObjAddr: 0x0, symBinAddr: 0x49460, symSize: 0xB8 }
  - { offset: 0x7A0C2, size: 0x8, addend: 0x0, symName: __RINvNtNtCsdze8u8oDPro_5alloc5slice4hack8into_vecNtNtNtCsk0EuziVMDa8_11time_macros18format_description11format_item4ItemNtNtB6_5alloc6GlobalEBQ_, symObjAddr: 0xB8, symBinAddr: 0x49518, symSize: 0xB8 }
  - { offset: 0x7A2EE, size: 0x8, addend: 0x0, symName: __RINvNtNtCsdze8u8oDPro_5alloc5slice4hack8into_vecNtNtNtCsk0EuziVMDa8_11time_macros18format_description3ast23NestedFormatDescriptionNtNtB6_5alloc6GlobalEBQ_, symObjAddr: 0x170, symBinAddr: 0x495D0, symSize: 0xB8 }
  - { offset: 0x7A51A, size: 0x8, addend: 0x0, symName: __RINvNtNtCsdze8u8oDPro_5alloc5slice4hack8into_vecNtNtNtCsk0EuziVMDa8_11time_macros18format_description3ast4ItemNtNtB6_5alloc6GlobalEBQ_, symObjAddr: 0x228, symBinAddr: 0x49688, symSize: 0xB8 }
  - { offset: 0x7A746, size: 0x8, addend: 0x0, symName: __RINvNtNtCsdze8u8oDPro_5alloc5slice4hack8into_vecNtNtNtCsk0EuziVMDa8_11time_macros18format_description6public15OwnedFormatItemNtNtB6_5alloc6GlobalEBQ_, symObjAddr: 0x2E0, symBinAddr: 0x49740, symSize: 0xB8 }
  - { offset: 0x7A977, size: 0x8, addend: 0x0, symName: __RINvXs_NtNtCsdze8u8oDPro_5alloc5slice4hackhNtB5_10ConvertVec6to_vecNtNtB9_5alloc6GlobalECsk0EuziVMDa8_11time_macros, symObjAddr: 0x5F0, symBinAddr: 0x49A50, symSize: 0xE8 }
  - { offset: 0x7BA68, size: 0x8, addend: 0x0, symName: __RINvMNtCsdze8u8oDPro_5alloc5sliceSNtNtNtCsk0EuziVMDa8_11time_macros18format_description3ast23NestedFormatDescription8into_vecNtNtB5_5alloc6GlobalEBC_, symObjAddr: 0x0, symBinAddr: 0x4E480, symSize: 0x28 }
  - { offset: 0x7BD13, size: 0x8, addend: 0x0, symName: __RNvMNtCs27l1GJC5rMQ_3std3f64d5fractCsk0EuziVMDa8_11time_macros, symObjAddr: 0x380, symBinAddr: 0x4E800, symSize: 0x20 }
  - { offset: 0x7BD5C, size: 0x8, addend: 0x0, symName: __RNvMNtCs27l1GJC5rMQ_3std3f64d5roundCsk0EuziVMDa8_11time_macros, symObjAddr: 0x3A0, symBinAddr: 0x4E820, symSize: 0x1C }
  - { offset: 0x7BD88, size: 0x8, addend: 0x0, symName: __RNvMNtCs27l1GJC5rMQ_3std3f64d5truncCsk0EuziVMDa8_11time_macros, symObjAddr: 0x3BC, symBinAddr: 0x4E83C, symSize: 0x1C }
  - { offset: 0x7C451, size: 0x8, addend: 0x0, symName: __RINvNtCs9f3LFPSIp77_4core10intrinsics23is_val_statically_knownbECsk0EuziVMDa8_11time_macros, symObjAddr: 0x50, symBinAddr: 0x4E4D0, symSize: 0x18 }
  - { offset: 0x7C488, size: 0x8, addend: 0x0, symName: __RNvNtCs9f3LFPSIp77_4core10intrinsics8unlikelyCsk0EuziVMDa8_11time_macros, symObjAddr: 0x3E8, symBinAddr: 0x4E868, symSize: 0x10 }
  - { offset: 0x7C4BB, size: 0x8, addend: 0x0, symName: __RNvNvNtCs9f3LFPSIp77_4core10intrinsics19copy_nonoverlapping18precondition_checkCsk0EuziVMDa8_11time_macros, symObjAddr: 0x3F8, symBinAddr: 0x4E878, symSize: 0x1EC }
  - { offset: 0x7C8CD, size: 0x8, addend: 0x0, symName: __RINvYINtNtNtCs9f3LFPSIp77_4core5array4iter8IntoIterNtCsjLJ1XWNSM6u_10proc_macro9TokenTreeKj1_ENtNtNtNtBa_4iter6traits8iterator8Iterator8for_eachNCINvXsj_BP_NtBP_11TokenStreamINtNtB1y_7collect6ExtendBN_E6extendABN_B1q_E0ECsk0EuziVMDa8_11time_macros, symObjAddr: 0x188, symBinAddr: 0x4E608, symSize: 0x24 }
  - { offset: 0x7C919, size: 0x8, addend: 0x0, symName: __RINvYINtNtNtCs9f3LFPSIp77_4core5array4iter8IntoIterNtCsjLJ1XWNSM6u_10proc_macro9TokenTreeKj2_ENtNtNtNtBa_4iter6traits8iterator8Iterator8for_eachNCINvXsj_BP_NtBP_11TokenStreamINtNtB1y_7collect6ExtendBN_E6extendABN_B1q_E0ECsk0EuziVMDa8_11time_macros, symObjAddr: 0x1AC, symBinAddr: 0x4E62C, symSize: 0x24 }
  - { offset: 0x7CAB7, size: 0x8, addend: 0x0, symName: __RNCINvMNtNtCs9f3LFPSIp77_4core3ops9try_traitINtB5_17NeverShortCircuituE10wrap_mut_2ujNCINvXs0_NtNtB9_5array4iterINtB1u_8IntoIterNtCsjLJ1XWNSM6u_10proc_macro9TokenTreeKj1_ENtNtNtNtB9_4iter6traits8iterator8Iterator4folduNCINvNvB2J_8for_each4callB22_NCINvXsj_B24_NtB24_11TokenStreamINtNtB2N_7collect6ExtendB22_E6extendAB22_B2F_E0E0E0E0Csk0EuziVMDa8_11time_macros, symObjAddr: 0x1D0, symBinAddr: 0x4E650, symSize: 0x28 }
  - { offset: 0x7CB25, size: 0x8, addend: 0x0, symName: __RNCINvMNtNtCs9f3LFPSIp77_4core3ops9try_traitINtB5_17NeverShortCircuituE10wrap_mut_2ujNCINvXs0_NtNtB9_5array4iterINtB1u_8IntoIterNtCsjLJ1XWNSM6u_10proc_macro9TokenTreeKj2_ENtNtNtNtB9_4iter6traits8iterator8Iterator4folduNCINvNvB2J_8for_each4callB22_NCINvXsj_B24_NtB24_11TokenStreamINtNtB2N_7collect6ExtendB22_E6extendAB22_B2F_E0E0E0E0Csk0EuziVMDa8_11time_macros, symObjAddr: 0x1F8, symBinAddr: 0x4E678, symSize: 0x28 }
  - { offset: 0x7CB9A, size: 0x8, addend: 0x0, symName: __RNvXs0_NtNtCs9f3LFPSIp77_4core3ops9try_traitINtB5_17NeverShortCircuituEINtB5_12FromResidualNtB5_25NeverShortCircuitResidualE13from_residualCsk0EuziVMDa8_11time_macros, symObjAddr: 0x5F8, symBinAddr: 0x4EA78, symSize: 0x8 }
  - { offset: 0x7CBDE, size: 0x8, addend: 0x0, symName: __RNvXs_NtNtCs9f3LFPSIp77_4core3ops9try_traitINtB4_17NeverShortCircuituENtB4_3Try11from_outputCsk0EuziVMDa8_11time_macros, symObjAddr: 0x858, symBinAddr: 0x4ECD8, symSize: 0xC }
  - { offset: 0x7CC11, size: 0x8, addend: 0x0, symName: __RNvXs_NtNtCs9f3LFPSIp77_4core3ops9try_traitINtB4_17NeverShortCircuituENtB4_3Try6branchCsk0EuziVMDa8_11time_macros, symObjAddr: 0x864, symBinAddr: 0x4ECE4, symSize: 0xC }
  - { offset: 0x7CD2B, size: 0x8, addend: 0x0, symName: __RNCINvXs0_NtNtCs9f3LFPSIp77_4core5array4iterINtB8_8IntoIterNtCsjLJ1XWNSM6u_10proc_macro9TokenTreeKj1_ENtNtNtNtBc_4iter6traits8iterator8Iterator4folduNCINvNvB1C_8for_each4callBV_NCINvXsj_BX_NtBX_11TokenStreamINtNtB1G_7collect6ExtendBV_E6extendABV_B1y_E0E0E0Csk0EuziVMDa8_11time_macros, symObjAddr: 0x220, symBinAddr: 0x4E6A0, symSize: 0xB0 }
  - { offset: 0x7CEA4, size: 0x8, addend: 0x0, symName: __RNCINvXs0_NtNtCs9f3LFPSIp77_4core5array4iterINtB8_8IntoIterNtCsjLJ1XWNSM6u_10proc_macro9TokenTreeKj2_ENtNtNtNtBc_4iter6traits8iterator8Iterator4folduNCINvNvB1C_8for_each4callBV_NCINvXsj_BX_NtBX_11TokenStreamINtNtB1G_7collect6ExtendBV_E6extendABV_B1y_E0E0E0Csk0EuziVMDa8_11time_macros, symObjAddr: 0x2D0, symBinAddr: 0x4E750, symSize: 0xB0 }
  - { offset: 0x7D01E, size: 0x8, addend: 0x0, symName: __RINvXs0_NtNtCs9f3LFPSIp77_4core5array4iterINtB6_8IntoIterNtCsjLJ1XWNSM6u_10proc_macro9TokenTreeKj1_ENtNtNtNtBa_4iter6traits8iterator8Iterator4folduNCINvNvB1A_8for_each4callBT_NCINvXsj_BV_NtBV_11TokenStreamINtNtB1E_7collect6ExtendBT_E6extendABT_B1w_E0E0ECsk0EuziVMDa8_11time_macros, symObjAddr: 0x68, symBinAddr: 0x4E4E8, symSize: 0x90 }
  - { offset: 0x7D0CE, size: 0x8, addend: 0x0, symName: __RINvXs0_NtNtCs9f3LFPSIp77_4core5array4iterINtB6_8IntoIterNtCsjLJ1XWNSM6u_10proc_macro9TokenTreeKj2_ENtNtNtNtBa_4iter6traits8iterator8Iterator4folduNCINvNvB1A_8for_each4callBT_NCINvXsj_BV_NtBV_11TokenStreamINtNtB1E_7collect6ExtendBT_E6extendABT_B1w_E0E0ECsk0EuziVMDa8_11time_macros, symObjAddr: 0xF8, symBinAddr: 0x4E578, symSize: 0x90 }
  - { offset: 0x7D17E, size: 0x8, addend: 0x0, symName: __RNvXs0_NtNtCs9f3LFPSIp77_4core5array4iterINtB5_8IntoIterNtCsjLJ1XWNSM6u_10proc_macro9TokenTreeKj1_ENtNtNtNtB9_4iter6traits8iterator8Iterator9size_hintCsk0EuziVMDa8_11time_macros, symObjAddr: 0x600, symBinAddr: 0x4EA80, symSize: 0x8C }
  - { offset: 0x7D230, size: 0x8, addend: 0x0, symName: __RNvXs0_NtNtCs9f3LFPSIp77_4core5array4iterINtB5_8IntoIterNtCsjLJ1XWNSM6u_10proc_macro9TokenTreeKj2_ENtNtNtNtB9_4iter6traits8iterator8Iterator9size_hintCsk0EuziVMDa8_11time_macros, symObjAddr: 0x68C, symBinAddr: 0x4EB0C, symSize: 0x8C }
  - { offset: 0x7D3CC, size: 0x8, addend: 0x0, symName: __RNvXs2_NtNtCs9f3LFPSIp77_4core5array4iterINtB5_8IntoIterNtCsjLJ1XWNSM6u_10proc_macro9TokenTreeKj1_ENtNtNtB9_3ops4drop4Drop4dropCsk0EuziVMDa8_11time_macros, symObjAddr: 0x72C, symBinAddr: 0x4EBAC, symSize: 0x68 }
  - { offset: 0x7D45F, size: 0x8, addend: 0x0, symName: __RNvXs2_NtNtCs9f3LFPSIp77_4core5array4iterINtB5_8IntoIterNtCsjLJ1XWNSM6u_10proc_macro9TokenTreeKj2_ENtNtNtB9_3ops4drop4Drop4dropCsk0EuziVMDa8_11time_macros, symObjAddr: 0x794, symBinAddr: 0x4EC14, symSize: 0x68 }
  - { offset: 0x7E795, size: 0x8, addend: 0x0, symName: __RNvXs_NtNtCs9f3LFPSIp77_4core5slice4iterRSNtNtNtCsk0EuziVMDa8_11time_macros18format_description3ast8ModifierNtNtNtNtB8_4iter6traits7collect12IntoIterator9into_iterBK_, symObjAddr: 0x870, symBinAddr: 0x4ECF0, symSize: 0x50 }
  - { offset: 0x7ED00, size: 0x8, addend: 0x0, symName: __RNvXs1_NtCs9f3LFPSIp77_4core7convertINtNtNtB7_3num7nonzero7NonZerotEINtB5_4IntoBy_E4intoCsk0EuziVMDa8_11time_macros, symObjAddr: 0x718, symBinAddr: 0x4EB98, symSize: 0x14 }
  - { offset: 0x7F23E, size: 0x8, addend: 0x0, symName: __RNvXNtNtCsjLJ1XWNSM6u_10proc_macro6bridge3rpcuINtB2_6EncodeuE6encodeCsk0EuziVMDa8_11time_macros, symObjAddr: 0x5E4, symBinAddr: 0x4EA64, symSize: 0x14 }
  - { offset: 0x7F293, size: 0x8, addend: 0x0, symName: __RNvXs7_NtNtCsjLJ1XWNSM6u_10proc_macro6bridge3rpcINtNtNtCs9f3LFPSIp77_4core3num7nonzero7NonZeromEINtB5_9DecodeMutuE6decodeCsk0EuziVMDa8_11time_macros, symObjAddr: 0x7FC, symBinAddr: 0x4EC7C, symSize: 0x5C }
  - { offset: 0x7F348, size: 0x8, addend: 0x0, symName: __RNvXsa_NtNtCsjLJ1XWNSM6u_10proc_macro6bridge3rpcRShINtB5_6EncodeuE6encodeCsk0EuziVMDa8_11time_macros, symObjAddr: 0x8C0, symBinAddr: 0x4ED40, symSize: 0xD0 }
  - { offset: 0x7F453, size: 0x8, addend: 0x0, symName: __RNvXsc_NtNtCsjLJ1XWNSM6u_10proc_macro6bridge3rpcReINtB5_6EncodeuE6encodeCsk0EuziVMDa8_11time_macros, symObjAddr: 0x990, symBinAddr: 0x4EE10, symSize: 0x38 }
  - { offset: 0x7F53B, size: 0x8, addend: 0x0, symName: __RNvXsl_NtNtCsjLJ1XWNSM6u_10proc_macro6bridge3rpcNtB5_12PanicMessageINtB5_6EncodeuE6encodeCsk0EuziVMDa8_11time_macros, symObjAddr: 0x9C8, symBinAddr: 0x4EE48, symSize: 0x140 }
  - { offset: 0x7F783, size: 0x8, addend: 0x0, symName: __RNvXso_NtNtCsjLJ1XWNSM6u_10proc_macro6bridge3rpcmINtB5_9DecodeMutuE6decodeCsk0EuziVMDa8_11time_macros, symObjAddr: 0xB08, symBinAddr: 0x4EF88, symSize: 0x114 }
  - { offset: 0x7FF80, size: 0x8, addend: 0x0, symName: __RNvXNtNtNtCsk0EuziVMDa8_11time_macros18format_description6public9componentNtB2_9ComponentNtNtB8_9to_tokens13ToTokenStream9append_to, symObjAddr: 0x52C8, symBinAddr: 0x53748, symSize: 0xBF4 }
  - { offset: 0x805CC, size: 0x8, addend: 0x0, symName: __RNvXsi_NtNtCsk0EuziVMDa8_11time_macros18format_description11format_itemNtNtNtB7_6public9component9ComponentINtNtCs9f3LFPSIp77_4core7convert4FromNtB5_9ComponentE4from, symObjAddr: 0x4BB8, symBinAddr: 0x53038, symSize: 0x710 }
  - { offset: 0x80CFE, size: 0x8, addend: 0x0, symName: __RINvNtNtCsk0EuziVMDa8_11time_macros18format_description3ast5parseINtNtNtNtCs9f3LFPSIp77_4core4iter7sources7from_fn6FromFnNCINvNtB4_5lexer3lexKh1_E0EKB2g_EB6_, symObjAddr: 0xC1C, symBinAddr: 0x4F09C, symSize: 0x84 }
  - { offset: 0x80D33, size: 0x8, addend: 0x0, symName: __RINvNtNtCsk0EuziVMDa8_11time_macros18format_description3ast5parseINtNtNtNtCs9f3LFPSIp77_4core4iter7sources7from_fn6FromFnNCINvNtB4_5lexer3lexKh2_E0EKB2g_EB6_, symObjAddr: 0xCA0, symBinAddr: 0x4F120, symSize: 0x84 }
  - { offset: 0x80D68, size: 0x8, addend: 0x0, symName: __RINvNtNtCsk0EuziVMDa8_11time_macros18format_description3ast11parse_innerINtNtNtNtCs9f3LFPSIp77_4core4iter7sources7from_fn6FromFnNCINvNtB4_5lexer3lexKh1_E0EKb0_KB2n_EB6_, symObjAddr: 0xD24, symBinAddr: 0x4F1A4, symSize: 0x34 }
  - { offset: 0x80D9D, size: 0x8, addend: 0x0, symName: __RINvNtNtCsk0EuziVMDa8_11time_macros18format_description3ast11parse_innerINtNtNtNtCs9f3LFPSIp77_4core4iter7sources7from_fn6FromFnNCINvNtB4_5lexer3lexKh1_E0EKb1_KB2n_EB6_, symObjAddr: 0xD58, symBinAddr: 0x4F1D8, symSize: 0x34 }
  - { offset: 0x80DD2, size: 0x8, addend: 0x0, symName: __RINvNtNtCsk0EuziVMDa8_11time_macros18format_description3ast11parse_innerINtNtNtNtCs9f3LFPSIp77_4core4iter7sources7from_fn6FromFnNCINvNtB4_5lexer3lexKh2_E0EKb0_KB2n_EB6_, symObjAddr: 0xD8C, symBinAddr: 0x4F20C, symSize: 0x34 }
  - { offset: 0x80E07, size: 0x8, addend: 0x0, symName: __RINvNtNtCsk0EuziVMDa8_11time_macros18format_description3ast11parse_innerINtNtNtNtCs9f3LFPSIp77_4core4iter7sources7from_fn6FromFnNCINvNtB4_5lexer3lexKh2_E0EKb1_KB2n_EB6_, symObjAddr: 0xDC0, symBinAddr: 0x4F240, symSize: 0x34 }
  - { offset: 0x80E41, size: 0x8, addend: 0x0, symName: __RNCINvNtNtCsk0EuziVMDa8_11time_macros18format_description3ast11parse_innerINtNtNtNtCs9f3LFPSIp77_4core4iter7sources7from_fn6FromFnNCINvNtB6_5lexer3lexKh1_E0EKb0_KB2p_E0B8_, symObjAddr: 0xDF4, symBinAddr: 0x4F274, symSize: 0x3F4 }
  - { offset: 0x80F2C, size: 0x8, addend: 0x0, symName: __RNCINvNtNtCsk0EuziVMDa8_11time_macros18format_description3ast11parse_innerINtNtNtNtCs9f3LFPSIp77_4core4iter7sources7from_fn6FromFnNCINvNtB6_5lexer3lexKh1_E0EKb1_KB2p_E0B8_, symObjAddr: 0x11E8, symBinAddr: 0x4F668, symSize: 0x458 }
  - { offset: 0x81016, size: 0x8, addend: 0x0, symName: __RNCINvNtNtCsk0EuziVMDa8_11time_macros18format_description3ast11parse_innerINtNtNtNtCs9f3LFPSIp77_4core4iter7sources7from_fn6FromFnNCINvNtB6_5lexer3lexKh2_E0EKb0_KB2p_E0B8_, symObjAddr: 0x1640, symBinAddr: 0x4FAC0, symSize: 0x3F8 }
  - { offset: 0x81101, size: 0x8, addend: 0x0, symName: __RNCINvNtNtCsk0EuziVMDa8_11time_macros18format_description3ast11parse_innerINtNtNtNtCs9f3LFPSIp77_4core4iter7sources7from_fn6FromFnNCINvNtB6_5lexer3lexKh2_E0EKb1_KB2p_E0B8_, symObjAddr: 0x1A38, symBinAddr: 0x4FEB8, symSize: 0x45C }
  - { offset: 0x81238, size: 0x8, addend: 0x0, symName: __RINvNtNtCsk0EuziVMDa8_11time_macros18format_description3ast15parse_componentINtNtNtNtCs9f3LFPSIp77_4core4iter7sources7from_fn6FromFnNCINvNtB4_5lexer3lexKh1_E0EKB2r_EB6_, symObjAddr: 0x1E94, symBinAddr: 0x50314, symSize: 0xF28 }
  - { offset: 0x815DE, size: 0x8, addend: 0x0, symName: __RINvNtNtCsk0EuziVMDa8_11time_macros18format_description3ast15parse_componentINtNtNtNtCs9f3LFPSIp77_4core4iter7sources7from_fn6FromFnNCINvNtB4_5lexer3lexKh2_E0EKB2r_EB6_, symObjAddr: 0x2DBC, symBinAddr: 0x5123C, symSize: 0xF28 }
  - { offset: 0x81989, size: 0x8, addend: 0x0, symName: __RNCINvNtNtCsk0EuziVMDa8_11time_macros18format_description3ast15parse_componentINtNtNtNtCs9f3LFPSIp77_4core4iter7sources7from_fn6FromFnNCINvNtB6_5lexer3lexKh1_E0EKB2t_E0B8_, symObjAddr: 0x3CE4, symBinAddr: 0x52164, symSize: 0x38 }
  - { offset: 0x819E0, size: 0x8, addend: 0x0, symName: __RNCINvNtNtCsk0EuziVMDa8_11time_macros18format_description3ast15parse_componentINtNtNtNtCs9f3LFPSIp77_4core4iter7sources7from_fn6FromFnNCINvNtB6_5lexer3lexKh2_E0EKB2t_E0B8_, symObjAddr: 0x3D1C, symBinAddr: 0x5219C, symSize: 0x38 }
  - { offset: 0x81A46, size: 0x8, addend: 0x0, symName: __RINvNtNtCsk0EuziVMDa8_11time_macros18format_description3ast12parse_nestedINtNtNtNtCs9f3LFPSIp77_4core4iter7sources7from_fn6FromFnNCINvNtB4_5lexer3lexKh1_E0EKB2o_EB6_, symObjAddr: 0x3D54, symBinAddr: 0x521D4, symSize: 0x318 }
  - { offset: 0x81B24, size: 0x8, addend: 0x0, symName: __RINvNtNtCsk0EuziVMDa8_11time_macros18format_description3ast12parse_nestedINtNtNtNtCs9f3LFPSIp77_4core4iter7sources7from_fn6FromFnNCINvNtB4_5lexer3lexKh2_E0EKB2o_EB6_, symObjAddr: 0x406C, symBinAddr: 0x524EC, symSize: 0x318 }
  - { offset: 0x81EDD, size: 0x8, addend: 0x0, symName: __RNvXs3_NtCsk0EuziVMDa8_11time_macros9to_tokensINtNtNtCs9f3LFPSIp77_4core3num7nonzero7NonZerotENtB5_11ToTokenTree15into_token_tree, symObjAddr: 0x4384, symBinAddr: 0x52804, symSize: 0x834 }
  - { offset: 0x81F9C, size: 0x8, addend: 0x0, symName: __RINvMNtCsdze8u8oDPro_5alloc5sliceSNtNtNtCsk0EuziVMDa8_11time_macros18format_description3ast23NestedFormatDescription8into_vecNtNtB5_5alloc6GlobalEBC_, symObjAddr: 0x0, symBinAddr: 0x4E480, symSize: 0x28 }
  - { offset: 0x81FDC, size: 0x8, addend: 0x0, symName: __RINvMNtCsdze8u8oDPro_5alloc5sliceSNtNtNtCsk0EuziVMDa8_11time_macros18format_description3ast4Item8into_vecNtNtB5_5alloc6GlobalEBC_, symObjAddr: 0x28, symBinAddr: 0x4E4A8, symSize: 0x28 }
  - { offset: 0x82508, size: 0x8, addend: 0x0, symName: __RNvMsc_NtNtCs9f3LFPSIp77_4core3num7nonzeroINtB5_7NonZerotE3getCsk0EuziVMDa8_11time_macros, symObjAddr: 0x3D8, symBinAddr: 0x4E858, symSize: 0x10 }
  - { offset: 0x82C9F, size: 0x8, addend: 0x0, symName: __RINvMs2_NtNtCs9f3LFPSIp77_4core3ops5rangeINtB6_9RangeFromhE8containshECsk0EuziVMDa8_11time_macros, symObjAddr: 0x0, symBinAddr: 0x5433C, symSize: 0x2C }
  - { offset: 0x83A3D, size: 0x8, addend: 0x0, symName: __RINvNtCs9f3LFPSIp77_4core9panicking13assert_failedINtNtB4_6option6OptionjEBM_ECsk0EuziVMDa8_11time_macros, symObjAddr: 0x84, symBinAddr: 0x10B310, symSize: 0x3C }
  - { offset: 0x84C95, size: 0x8, addend: 0x0, symName: __RNvNvNtCs9f3LFPSIp77_4core3ptr13read_volatile18precondition_checkCsk0EuziVMDa8_11time_macros, symObjAddr: 0x21D8, symBinAddr: 0x564D8, symSize: 0xEC }
  - { offset: 0x84EE2, size: 0x8, addend: 0x0, symName: __RINvYINtNtNtCs9f3LFPSIp77_4core3ops5range14RangeInclusivehEINtB6_11RangeBoundshE8containshECsk0EuziVMDa8_11time_macros, symObjAddr: 0x620, symBinAddr: 0x54920, symSize: 0x204 }
  - { offset: 0x850F0, size: 0x8, addend: 0x0, symName: __RINvYINtNtNtCs9f3LFPSIp77_4core3ops5range16RangeToInclusivehEINtB6_11RangeBoundshE8containshECsk0EuziVMDa8_11time_macros, symObjAddr: 0x824, symBinAddr: 0x54B24, symSize: 0x204 }
  - { offset: 0x852FE, size: 0x8, addend: 0x0, symName: __RINvYINtNtNtCs9f3LFPSIp77_4core3ops5range9RangeFromhEINtB6_11RangeBoundshE8containshECsk0EuziVMDa8_11time_macros, symObjAddr: 0xA28, symBinAddr: 0x54D28, symSize: 0x204 }
  - { offset: 0x8555A, size: 0x8, addend: 0x0, symName: __RNvXse_NtNtCs9f3LFPSIp77_4core3ops5rangeINtB5_9RangeFromhEINtB5_11RangeBoundshE11start_boundCsk0EuziVMDa8_11time_macros, symObjAddr: 0x2BC4, symBinAddr: 0x56EC4, symSize: 0x24 }
  - { offset: 0x85591, size: 0x8, addend: 0x0, symName: __RNvXse_NtNtCs9f3LFPSIp77_4core3ops5rangeINtB5_9RangeFromhEINtB5_11RangeBoundshE9end_boundCsk0EuziVMDa8_11time_macros, symObjAddr: 0x2BE8, symBinAddr: 0x56EE8, symSize: 0x24 }
  - { offset: 0x855CE, size: 0x8, addend: 0x0, symName: __RNvXsh_NtNtCs9f3LFPSIp77_4core3ops5rangeINtB5_14RangeInclusivehEINtB5_11RangeBoundshE11start_boundCsk0EuziVMDa8_11time_macros, symObjAddr: 0x2C0C, symBinAddr: 0x56F0C, symSize: 0x24 }
  - { offset: 0x85605, size: 0x8, addend: 0x0, symName: __RNvXsh_NtNtCs9f3LFPSIp77_4core3ops5rangeINtB5_14RangeInclusivehEINtB5_11RangeBoundshE9end_boundCsk0EuziVMDa8_11time_macros, symObjAddr: 0x2C30, symBinAddr: 0x56F30, symSize: 0x58 }
  - { offset: 0x85642, size: 0x8, addend: 0x0, symName: __RNvXsi_NtNtCs9f3LFPSIp77_4core3ops5rangeINtB5_16RangeToInclusivehEINtB5_11RangeBoundshE11start_boundCsk0EuziVMDa8_11time_macros, symObjAddr: 0x2C88, symBinAddr: 0x56F88, symSize: 0x24 }
  - { offset: 0x85679, size: 0x8, addend: 0x0, symName: __RNvXsi_NtNtCs9f3LFPSIp77_4core3ops5rangeINtB5_16RangeToInclusivehEINtB5_11RangeBoundshE9end_boundCsk0EuziVMDa8_11time_macros, symObjAddr: 0x2CAC, symBinAddr: 0x56FAC, symSize: 0x24 }
  - { offset: 0x85AA4, size: 0x8, addend: 0x0, symName: __RINvNtNtCs9f3LFPSIp77_4core3str11validations15next_code_pointINtNtNtB6_5slice4iter4IterhEECsk0EuziVMDa8_11time_macros, symObjAddr: 0xC0, symBinAddr: 0x543C0, symSize: 0x20C }
  - { offset: 0x85CFD, size: 0x8, addend: 0x0, symName: __RNvXs4_NtNtCs9f3LFPSIp77_4core3str6traitsNtNtNtB9_3ops5range9RangeFullINtNtNtB9_5slice5index10SliceIndexeE5indexCsk0EuziVMDa8_11time_macros, symObjAddr: 0x27B4, symBinAddr: 0x56AB4, symSize: 0x18 }
  - { offset: 0x85D81, size: 0x8, addend: 0x0, symName: __RNvXs9_NtNtCs9f3LFPSIp77_4core3str6traitsINtNtNtB9_3ops5range9RangeFromjEINtNtNtB9_5slice5index10SliceIndexeE3getCsk0EuziVMDa8_11time_macros, symObjAddr: 0x28EC, symBinAddr: 0x56BEC, symSize: 0x130 }
  - { offset: 0x85F9E, size: 0x8, addend: 0x0, symName: __RNvXs9_NtNtCs9f3LFPSIp77_4core3str6traitsINtNtNtB9_3ops5range9RangeFromjEINtNtNtB9_5slice5index10SliceIndexeE5indexCsk0EuziVMDa8_11time_macros, symObjAddr: 0x2A1C, symBinAddr: 0x56D1C, symSize: 0x88 }
  - { offset: 0x862E6, size: 0x8, addend: 0x0, symName: __RNCINvNtNtNtCs9f3LFPSIp77_4core4iter8adapters3map12map_try_foldINtNtBa_6result6ResultNtNtNtCsk0EuziVMDa8_11time_macros18format_description11format_item4ItemNtB1p_5ErrorEIB10_NtNtB1p_6public15OwnedFormatItemB2u_EuINtNtNtBa_3ops12control_flow11ControlFlowIB3p_B2M_EENCINvB1p_5parseKh1_E0NCINvXB6_INtB6_12GenericShuntINtB4_3MapIB53_INtNtNtB8_7sources7from_fn6FromFnNCINvNtB1p_3ast11parse_innerIB5i_NCINvNtB1p_5lexer3lexKB4u_E0EKb0_KB4u_E0ENCINvB1n_5parseB5h_E0EB4e_EIB10_NtNtBa_7convert10InfallibleB2u_EENtNtNtB8_6traits8iterator8Iterator8try_folduNCINvNvB83_12try_for_each4callB2M_B43_NcNtB43_5Break0E0B43_E0E0B1r_, symObjAddr: 0xDF0, symBinAddr: 0x550F0, symSize: 0xA8 }
  - { offset: 0x86379, size: 0x8, addend: 0x0, symName: __RNCINvNtNtNtCs9f3LFPSIp77_4core4iter8adapters3map12map_try_foldINtNtBa_6result6ResultNtNtNtCsk0EuziVMDa8_11time_macros18format_description11format_item4ItemNtB1p_5ErrorEIB10_NtNtB1p_6public15OwnedFormatItemB2u_EuINtNtNtBa_3ops12control_flow11ControlFlowIB3p_B2M_EENCINvB1p_5parseKh2_E0NCINvXB6_INtB6_12GenericShuntINtB4_3MapIB53_INtNtNtB8_7sources7from_fn6FromFnNCINvNtB1p_3ast11parse_innerIB5i_NCINvNtB1p_5lexer3lexKB4u_E0EKb0_KB4u_E0ENCINvB1n_5parseB5h_E0EB4e_EIB10_NtNtBa_7convert10InfallibleB2u_EENtNtNtB8_6traits8iterator8Iterator8try_folduNCINvNvB83_12try_for_each4callB2M_B43_NcNtB43_5Break0E0B43_E0E0B1r_, symObjAddr: 0xE98, symBinAddr: 0x55198, symSize: 0xA8 }
  - { offset: 0x8640C, size: 0x8, addend: 0x0, symName: __RNCINvNtNtNtCs9f3LFPSIp77_4core4iter8adapters3map12map_try_foldINtNtBa_6result6ResultNtNtNtCsk0EuziVMDa8_11time_macros18format_description3ast4ItemNtB1p_5ErrorEIB10_NtNtB1p_11format_item4ItemB2l_EuINtNtNtBa_3ops12control_flow11ControlFlowIB3a_NtNtB1p_6public15OwnedFormatItemEENCINvB2F_5parseINtNtNtB8_7sources7from_fn6FromFnNCINvB1n_11parse_innerIB4H_NCINvNtB1p_5lexer3lexKh1_E0EKb0_KB60_E0EE0NCIB2_B2y_IB10_B3T_B2l_EuB39_NCINvB1p_5parseKB60_E0NCINvXB6_INtB6_12GenericShuntINtB4_3MapIB7D_B4G_B4r_EB6N_EIB10_NtNtBa_7convert10InfallibleB2l_EENtNtNtB8_6traits8iterator8Iterator8try_folduNCINvNvB8H_12try_for_each4callB3T_B3O_NcNtB3O_5Break0E0B3O_E0E0E0B1r_, symObjAddr: 0xF40, symBinAddr: 0x55240, symSize: 0xB0 }
  - { offset: 0x8649F, size: 0x8, addend: 0x0, symName: __RNCINvNtNtNtCs9f3LFPSIp77_4core4iter8adapters3map12map_try_foldINtNtBa_6result6ResultNtNtNtCsk0EuziVMDa8_11time_macros18format_description3ast4ItemNtB1p_5ErrorEIB10_NtNtB1p_11format_item4ItemB2l_EuINtNtNtBa_3ops12control_flow11ControlFlowIB3a_NtNtB1p_6public15OwnedFormatItemEENCINvB2F_5parseINtNtNtB8_7sources7from_fn6FromFnNCINvB1n_11parse_innerIB4H_NCINvNtB1p_5lexer3lexKh2_E0EKb0_KB60_E0EE0NCIB2_B2y_IB10_B3T_B2l_EuB39_NCINvB1p_5parseKB60_E0NCINvXB6_INtB6_12GenericShuntINtB4_3MapIB7D_B4G_B4r_EB6N_EIB10_NtNtBa_7convert10InfallibleB2l_EENtNtNtB8_6traits8iterator8Iterator8try_folduNCINvNvB8H_12try_for_each4callB3T_B3O_NcNtB3O_5Break0E0B3O_E0E0E0B1r_, symObjAddr: 0xFF0, symBinAddr: 0x552F0, symSize: 0xB0 }
  - { offset: 0x86532, size: 0x8, addend: 0x0, symName: __RNCINvNtNtNtCs9f3LFPSIp77_4core4iter8adapters3map12map_try_foldNtNtNtCsk0EuziVMDa8_11time_macros18format_description11format_item4ItemNtNtB13_6public15OwnedFormatItemINtNtNtCsdze8u8oDPro_5alloc3vec13in_place_drop11InPlaceDropB28_EINtNtBa_6result6ResultB2E_zENvYBZ_INtNtBa_7convert4IntoB28_E4intoNCINvNtB2J_16in_place_collect24write_in_place_with_dropB28_E0E0B15_, symObjAddr: 0x10A0, symBinAddr: 0x553A0, symSize: 0xF0 }
  - { offset: 0x865C5, size: 0x8, addend: 0x0, symName: __RNCINvNtNtNtCs9f3LFPSIp77_4core4iter8adapters3map12map_try_foldNtNtNtCsk0EuziVMDa8_11time_macros18format_description3ast23NestedFormatDescriptionINtNtBa_6result6ResultINtNtCsdze8u8oDPro_5alloc5boxed3BoxSNtNtB13_11format_item4ItemENtB13_5ErrorEINtNtNtB2K_3vec13in_place_drop11InPlaceDropB2F_EINtNtNtBa_3ops12control_flow11ControlFlowIB2k_B3T_zEB3T_ENCNvMB3h_B3f_8from_ast0NCINvXB6_INtB6_12GenericShuntINtB4_3MapINtNtB3Y_9into_iter8IntoIterBZ_EB5A_EIB2k_NtNtBa_7convert10InfallibleB3G_EENtNtNtB8_6traits8iterator8Iterator8try_foldB3T_NCINvNtB3Y_16in_place_collect24write_in_place_with_dropB2F_E0B5k_E0E0B15_, symObjAddr: 0x1190, symBinAddr: 0x55490, symSize: 0xEC }
  - { offset: 0x86657, size: 0x8, addend: 0x0, symName: __RNCINvNtNtNtCs9f3LFPSIp77_4core4iter8adapters3map12map_try_foldNtNtNtCsk0EuziVMDa8_11time_macros18format_description3ast4ItemINtNtBa_6result6ResultNtNtB13_11format_item4ItemNtB13_5ErrorEINtNtNtCsdze8u8oDPro_5alloc3vec13in_place_drop11InPlaceDropB2l_EINtNtNtBa_3ops12control_flow11ControlFlowIB20_B2Y_zEB2Y_ENvMB2n_B2l_8from_astNCINvXB6_INtB6_12GenericShuntINtB4_3MapINtNtB33_9into_iter8IntoIterBZ_EB4V_EIB20_NtNtBa_7convert10InfallibleB2L_EENtNtNtB8_6traits8iterator8Iterator8try_foldB2Y_NCINvNtB33_16in_place_collect24write_in_place_with_dropB2l_E0B4F_E0E0B15_, symObjAddr: 0x127C, symBinAddr: 0x5557C, symSize: 0x100 }
  - { offset: 0x866F0, size: 0x8, addend: 0x0, symName: __RINvXs0_NtNtNtCs9f3LFPSIp77_4core4iter8adapters3mapINtB6_3MapIBO_INtNtNtBa_7sources7from_fn6FromFnNCINvNtNtCsk0EuziVMDa8_11time_macros18format_description3ast11parse_innerIB12_NCINvNtB1F_5lexer3lexKh1_E0EKb0_KB3a_E0ENCINvNtB1F_11format_item5parseB11_E0ENCINvB1F_5parseKB3a_E0ENtNtNtBa_6traits8iterator8Iterator8try_folduNCINvXB8_INtB8_12GenericShuntBN_INtNtBc_6result6ResultNtNtBc_7convert10InfallibleNtB1F_5ErrorEEB4q_8try_folduNCINvNvB4q_12try_for_each4callNtNtB1F_6public15OwnedFormatItemINtNtNtBc_3ops12control_flow11ControlFlowB7n_ENcNtB7T_5Break0E0B7T_E0IB7U_B7T_EEB1H_, symObjAddr: 0x2CC, symBinAddr: 0x545CC, symSize: 0x54 }
  - { offset: 0x86793, size: 0x8, addend: 0x0, symName: __RINvXs0_NtNtNtCs9f3LFPSIp77_4core4iter8adapters3mapINtB6_3MapIBO_INtNtNtBa_7sources7from_fn6FromFnNCINvNtNtCsk0EuziVMDa8_11time_macros18format_description3ast11parse_innerIB12_NCINvNtB1F_5lexer3lexKh2_E0EKb0_KB3a_E0ENCINvNtB1F_11format_item5parseB11_E0ENCINvB1F_5parseKB3a_E0ENtNtNtBa_6traits8iterator8Iterator8try_folduNCINvXB8_INtB8_12GenericShuntBN_INtNtBc_6result6ResultNtNtBc_7convert10InfallibleNtB1F_5ErrorEEB4q_8try_folduNCINvNvB4q_12try_for_each4callNtNtB1F_6public15OwnedFormatItemINtNtNtBc_3ops12control_flow11ControlFlowB7n_ENcNtB7T_5Break0E0B7T_E0IB7U_B7T_EEB1H_, symObjAddr: 0x320, symBinAddr: 0x54620, symSize: 0x54 }
  - { offset: 0x86836, size: 0x8, addend: 0x0, symName: __RINvXs0_NtNtNtCs9f3LFPSIp77_4core4iter8adapters3mapINtB6_3MapINtNtNtBa_7sources7from_fn6FromFnNCINvNtNtCsk0EuziVMDa8_11time_macros18format_description3ast11parse_innerIBY_NCINvNtB1B_5lexer3lexKh1_E0EKb0_KB35_E0ENCINvNtB1B_11format_item5parseBX_E0ENtNtNtBa_6traits8iterator8Iterator8try_folduNCINvB6_12map_try_foldINtNtBc_6result6ResultNtB3s_4ItemNtB1B_5ErrorEIB52_NtNtB1B_6public15OwnedFormatItemB5y_EuINtNtNtBc_3ops12control_flow11ControlFlowIB6t_B5Q_EENCINvB1B_5parseKB35_E0NCINvXB8_INtB8_12GenericShuntIBO_BN_B7i_EIB52_NtNtBc_7convert10InfallibleB5y_EEB3X_8try_folduNCINvNvB3X_12try_for_each4callB5Q_B77_NcNtB77_5Break0E0B77_E0E0B6s_EB1D_, symObjAddr: 0x374, symBinAddr: 0x54674, symSize: 0x4C }
  - { offset: 0x868DB, size: 0x8, addend: 0x0, symName: __RINvXs0_NtNtNtCs9f3LFPSIp77_4core4iter8adapters3mapINtB6_3MapINtNtNtBa_7sources7from_fn6FromFnNCINvNtNtCsk0EuziVMDa8_11time_macros18format_description3ast11parse_innerIBY_NCINvNtB1B_5lexer3lexKh2_E0EKb0_KB35_E0ENCINvNtB1B_11format_item5parseBX_E0ENtNtNtBa_6traits8iterator8Iterator8try_folduNCINvB6_12map_try_foldINtNtBc_6result6ResultNtB3s_4ItemNtB1B_5ErrorEIB52_NtNtB1B_6public15OwnedFormatItemB5y_EuINtNtNtBc_3ops12control_flow11ControlFlowIB6t_B5Q_EENCINvB1B_5parseKB35_E0NCINvXB8_INtB8_12GenericShuntIBO_BN_B7i_EIB52_NtNtBc_7convert10InfallibleB5y_EEB3X_8try_folduNCINvNvB3X_12try_for_each4callB5Q_B77_NcNtB77_5Break0E0B77_E0E0B6s_EB1D_, symObjAddr: 0x3C0, symBinAddr: 0x546C0, symSize: 0x4C }
  - { offset: 0x86980, size: 0x8, addend: 0x0, symName: __RINvXs0_NtNtNtCs9f3LFPSIp77_4core4iter8adapters3mapINtB6_3MapINtNtNtCsdze8u8oDPro_5alloc3vec9into_iter8IntoIterINtNtB14_5boxed3BoxSNtNtNtCsk0EuziVMDa8_11time_macros18format_description11format_item4ItemEENvYB1L_INtNtBc_7convert4IntoNtNtB29_6public15OwnedFormatItemE4intoENtNtNtBa_6traits8iterator8Iterator4folduNCINvNvB4l_8for_each4callB3I_NCINvMsi_B12_INtB12_3VecB3I_E14extend_trustedBN_E0E0EB2b_, symObjAddr: 0x40C, symBinAddr: 0x5470C, symSize: 0x4C }
  - { offset: 0x86A19, size: 0x8, addend: 0x0, symName: __RINvXs0_NtNtNtCs9f3LFPSIp77_4core4iter8adapters3mapINtB6_3MapINtNtNtCsdze8u8oDPro_5alloc3vec9into_iter8IntoIterNtNtNtCsk0EuziVMDa8_11time_macros18format_description11format_item4ItemENvYB1L_INtNtBc_7convert4IntoNtNtB1P_6public15OwnedFormatItemE4intoENtNtNtBa_6traits8iterator8Iterator8try_foldINtNtB12_13in_place_drop11InPlaceDropB3n_ENCINvNtB12_16in_place_collect24write_in_place_with_dropB3n_E0INtNtBc_6result6ResultB4H_zEEB1R_, symObjAddr: 0x458, symBinAddr: 0x54758, symSize: 0x4C }
  - { offset: 0x86A97, size: 0x8, addend: 0x0, symName: __RINvXs0_NtNtNtCs9f3LFPSIp77_4core4iter8adapters3mapINtB6_3MapINtNtNtCsdze8u8oDPro_5alloc3vec9into_iter8IntoIterNtNtNtCsk0EuziVMDa8_11time_macros18format_description3ast23NestedFormatDescriptionENCNvMNtB1P_11format_itemNtB3b_4Item8from_ast0ENtNtNtBa_6traits8iterator8Iterator8try_foldINtNtB12_13in_place_drop11InPlaceDropINtNtB14_5boxed3BoxSB3u_EENCINvXB8_INtB8_12GenericShuntBN_INtNtBc_6result6ResultNtNtBc_7convert10InfallibleNtB1P_5ErrorEEB3Q_8try_foldB4x_NCINvNtB12_16in_place_collect24write_in_place_with_dropB58_E0IB65_B4x_zEE0INtNtNtBc_3ops12control_flow11ControlFlowB8l_B4x_EEB1R_, symObjAddr: 0x4A4, symBinAddr: 0x547A4, symSize: 0x64 }
  - { offset: 0x86B3A, size: 0x8, addend: 0x0, symName: __RINvXs0_NtNtNtCs9f3LFPSIp77_4core4iter8adapters3mapINtB6_3MapINtNtNtCsdze8u8oDPro_5alloc3vec9into_iter8IntoIterNtNtNtCsk0EuziVMDa8_11time_macros18format_description3ast4ItemENvMNtB1P_11format_itemNtB2P_4Item8from_astENtNtNtBa_6traits8iterator8Iterator8try_foldINtNtB12_13in_place_drop11InPlaceDropB38_ENCINvXB8_INtB8_12GenericShuntBN_INtNtBc_6result6ResultNtNtBc_7convert10InfallibleNtB1P_5ErrorEEB3t_8try_foldB4a_NCINvNtB12_16in_place_collect24write_in_place_with_dropB38_E0IB5n_B4a_zEE0INtNtNtBc_3ops12control_flow11ControlFlowB7D_B4a_EEB1R_, symObjAddr: 0x508, symBinAddr: 0x54808, symSize: 0x64 }
  - { offset: 0x86BDD, size: 0x8, addend: 0x0, symName: __RINvXs0_NtNtNtCs9f3LFPSIp77_4core4iter8adapters3mapINtB6_3MapINtNtNtCsdze8u8oDPro_5alloc3vec9into_iter8IntoIterNtNtNtCsk0EuziVMDa8_11time_macros18format_description6public15OwnedFormatItemENCNCNvB1R_18format_description0s_0ENtNtNtBa_6traits8iterator8Iterator4folduNCINvNvB3A_8for_each4callNtCsjLJ1XWNSM6u_10proc_macro11TokenStreamNCINvXsi_B4F_B4D_INtNtB3E_7collect12FromIteratorB4D_E9from_iterBN_E0E0EB1R_, symObjAddr: 0x56C, symBinAddr: 0x5486C, symSize: 0x3C }
  - { offset: 0x86C4F, size: 0x8, addend: 0x0, symName: __RINvXs0_NtNtNtCs9f3LFPSIp77_4core4iter8adapters3mapINtB6_3MapINtNtNtCsdze8u8oDPro_5alloc3vec9into_iter8IntoIterNtNtNtCsk0EuziVMDa8_11time_macros18format_description6public15OwnedFormatItemENCNvXB1N_B1L_NtNtB1R_9to_tokens13ToTokenStream9append_to0ENtNtNtBa_6traits8iterator8Iterator4folduNCINvNvB3X_8for_each4callNtCsjLJ1XWNSM6u_10proc_macro11TokenStreamNCINvXsi_B52_B50_INtNtB41_7collect12FromIteratorB50_E9from_iterBN_E0E0EB1R_, symObjAddr: 0x5A8, symBinAddr: 0x548A8, symSize: 0x3C }
  - { offset: 0x86CC1, size: 0x8, addend: 0x0, symName: __RINvXs0_NtNtNtCs9f3LFPSIp77_4core4iter8adapters3mapINtB6_3MapINtNtNtCsdze8u8oDPro_5alloc3vec9into_iter8IntoIterNtNtNtCsk0EuziVMDa8_11time_macros18format_description6public15OwnedFormatItemENCNvXB1N_B1L_NtNtB1R_9to_tokens13ToTokenStream9append_tos_0ENtNtNtBa_6traits8iterator8Iterator4folduNCINvNvB3Z_8for_each4callNtCsjLJ1XWNSM6u_10proc_macro11TokenStreamNCINvXsi_B54_B52_INtNtB43_7collect12FromIteratorB52_E9from_iterBN_E0E0EB1R_, symObjAddr: 0x5E4, symBinAddr: 0x548E4, symSize: 0x3C }
  - { offset: 0x86D33, size: 0x8, addend: 0x0, symName: __RNvXs0_NtNtNtCs9f3LFPSIp77_4core4iter8adapters3mapINtB5_3MapIBN_INtNtNtB9_7sources7from_fn6FromFnNCINvNtNtCsk0EuziVMDa8_11time_macros18format_description3ast11parse_innerIB11_NCINvNtB1E_5lexer3lexKh1_E0EKb0_KB39_E0ENCINvNtB1E_11format_item5parseB10_E0ENCINvB1E_5parseKB39_E0ENtNtNtB9_6traits8iterator8Iterator9size_hintB1G_, symObjAddr: 0x2474, symBinAddr: 0x56774, symSize: 0x24 }
  - { offset: 0x86D7A, size: 0x8, addend: 0x0, symName: __RNvXs0_NtNtNtCs9f3LFPSIp77_4core4iter8adapters3mapINtB5_3MapIBN_INtNtNtB9_7sources7from_fn6FromFnNCINvNtNtCsk0EuziVMDa8_11time_macros18format_description3ast11parse_innerIB11_NCINvNtB1E_5lexer3lexKh2_E0EKb0_KB39_E0ENCINvNtB1E_11format_item5parseB10_E0ENCINvB1E_5parseKB39_E0ENtNtNtB9_6traits8iterator8Iterator9size_hintB1G_, symObjAddr: 0x2498, symBinAddr: 0x56798, symSize: 0x24 }
  - { offset: 0x86DC1, size: 0x8, addend: 0x0, symName: __RNvXs0_NtNtNtCs9f3LFPSIp77_4core4iter8adapters3mapINtB5_3MapINtNtNtB9_7sources7from_fn6FromFnNCINvNtNtCsk0EuziVMDa8_11time_macros18format_description3ast11parse_innerIBX_NCINvNtB1A_5lexer3lexKh1_E0EKb0_KB34_E0ENCINvNtB1A_11format_item5parseBW_E0ENtNtNtB9_6traits8iterator8Iterator9size_hintB1C_, symObjAddr: 0x24BC, symBinAddr: 0x567BC, symSize: 0x24 }
  - { offset: 0x86E08, size: 0x8, addend: 0x0, symName: __RNvXs0_NtNtNtCs9f3LFPSIp77_4core4iter8adapters3mapINtB5_3MapINtNtNtB9_7sources7from_fn6FromFnNCINvNtNtCsk0EuziVMDa8_11time_macros18format_description3ast11parse_innerIBX_NCINvNtB1A_5lexer3lexKh2_E0EKb0_KB34_E0ENCINvNtB1A_11format_item5parseBW_E0ENtNtNtB9_6traits8iterator8Iterator9size_hintB1C_, symObjAddr: 0x24E0, symBinAddr: 0x567E0, symSize: 0x24 }
  - { offset: 0x86E4F, size: 0x8, addend: 0x0, symName: __RNvXs0_NtNtNtCs9f3LFPSIp77_4core4iter8adapters3mapINtB5_3MapINtNtNtBb_5slice4iter4IterhENCINvNtNtCsk0EuziVMDa8_11time_macros18format_description5lexer15attach_locationBW_E0ENtNtNtB9_6traits8iterator8Iterator4nextB1x_, symObjAddr: 0x2504, symBinAddr: 0x56804, symSize: 0x84 }
  - { offset: 0x86EC9, size: 0x8, addend: 0x0, symName: __RNvXs0_NtNtNtCs9f3LFPSIp77_4core4iter8adapters3mapINtB5_3MapINtNtNtCsdze8u8oDPro_5alloc3vec9into_iter8IntoIterINtNtB13_5boxed3BoxSNtNtNtCsk0EuziVMDa8_11time_macros18format_description11format_item4ItemEENvYB1K_INtNtBb_7convert4IntoNtNtB28_6public15OwnedFormatItemE4intoENtNtNtB9_6traits8iterator8Iterator9size_hintB2a_, symObjAddr: 0x2588, symBinAddr: 0x56888, symSize: 0x24 }
  - { offset: 0x86F10, size: 0x8, addend: 0x0, symName: __RNvXs0_NtNtNtCs9f3LFPSIp77_4core4iter8adapters3mapINtB5_3MapINtNtNtCsdze8u8oDPro_5alloc3vec9into_iter8IntoIterNtNtNtCsk0EuziVMDa8_11time_macros18format_description6public15OwnedFormatItemENCNCNvB1Q_18format_description0s_0ENtNtNtB9_6traits8iterator8Iterator9size_hintB1Q_, symObjAddr: 0x25AC, symBinAddr: 0x568AC, symSize: 0x24 }
  - { offset: 0x86F57, size: 0x8, addend: 0x0, symName: __RNvXs0_NtNtNtCs9f3LFPSIp77_4core4iter8adapters3mapINtB5_3MapINtNtNtCsdze8u8oDPro_5alloc3vec9into_iter8IntoIterNtNtNtCsk0EuziVMDa8_11time_macros18format_description6public15OwnedFormatItemENCNvXB1M_B1K_NtNtB1Q_9to_tokens13ToTokenStream9append_to0ENtNtNtB9_6traits8iterator8Iterator9size_hintB1Q_, symObjAddr: 0x25D0, symBinAddr: 0x568D0, symSize: 0x24 }
  - { offset: 0x86F9E, size: 0x8, addend: 0x0, symName: __RNvXs0_NtNtNtCs9f3LFPSIp77_4core4iter8adapters3mapINtB5_3MapINtNtNtCsdze8u8oDPro_5alloc3vec9into_iter8IntoIterNtNtNtCsk0EuziVMDa8_11time_macros18format_description6public15OwnedFormatItemENCNvXB1M_B1K_NtNtB1Q_9to_tokens13ToTokenStream9append_tos_0ENtNtNtB9_6traits8iterator8Iterator9size_hintB1Q_, symObjAddr: 0x25F4, symBinAddr: 0x568F4, symSize: 0x24 }
  - { offset: 0x87174, size: 0x8, addend: 0x0, symName: __RNCINvNtNtNtCs9f3LFPSIp77_4core4iter8adapters3map8map_foldINtNtCsdze8u8oDPro_5alloc5boxed3BoxSNtNtNtCsk0EuziVMDa8_11time_macros18format_description11format_item4ItemENtNtB1y_6public15OwnedFormatItemuNvYBU_INtNtBa_7convert4IntoB2E_E4intoNCINvNvNtNtNtB8_6traits8iterator8Iterator8for_each4callB2E_NCINvMsi_NtBZ_3vecINtB4S_3VecB2E_E14extend_trustedINtB4_3MapINtNtB4S_9into_iter8IntoIterBU_EB3b_EE0E0E0B1A_, symObjAddr: 0x137C, symBinAddr: 0x5567C, symSize: 0x90 }
  - { offset: 0x871F8, size: 0x8, addend: 0x0, symName: __RNCINvNtNtNtCs9f3LFPSIp77_4core4iter8adapters3map8map_foldNtNtNtCsk0EuziVMDa8_11time_macros18format_description6public15OwnedFormatItemNtCsjLJ1XWNSM6u_10proc_macro11TokenStreamuNCNCNvB10_18format_description0s_0NCINvNvNtNtNtB8_6traits8iterator8Iterator8for_each4callB29_NCINvXsi_B2b_B29_INtNtB3y_7collect12FromIteratorB29_E9from_iterINtB4_3MapINtNtNtCsdze8u8oDPro_5alloc3vec9into_iter8IntoIterBU_EB2P_EE0E0E0B10_, symObjAddr: 0x140C, symBinAddr: 0x5570C, symSize: 0x8C }
  - { offset: 0x8727D, size: 0x8, addend: 0x0, symName: __RNCINvNtNtNtCs9f3LFPSIp77_4core4iter8adapters3map8map_foldNtNtNtCsk0EuziVMDa8_11time_macros18format_description6public15OwnedFormatItemNtCsjLJ1XWNSM6u_10proc_macro11TokenStreamuNCNvXBW_BU_NtNtB10_9to_tokens13ToTokenStream9append_to0NCINvNvNtNtNtB8_6traits8iterator8Iterator8for_each4callB29_NCINvXsi_B2b_B29_INtNtB3T_7collect12FromIteratorB29_E9from_iterINtB4_3MapINtNtNtCsdze8u8oDPro_5alloc3vec9into_iter8IntoIterBU_EB2P_EE0E0E0B10_, symObjAddr: 0x1498, symBinAddr: 0x55798, symSize: 0x8C }
  - { offset: 0x87302, size: 0x8, addend: 0x0, symName: __RNCINvNtNtNtCs9f3LFPSIp77_4core4iter8adapters3map8map_foldNtNtNtCsk0EuziVMDa8_11time_macros18format_description6public15OwnedFormatItemNtCsjLJ1XWNSM6u_10proc_macro11TokenStreamuNCNvXBW_BU_NtNtB10_9to_tokens13ToTokenStream9append_tos_0NCINvNvNtNtNtB8_6traits8iterator8Iterator8for_each4callB29_NCINvXsi_B2b_B29_INtNtB3V_7collect12FromIteratorB29_E9from_iterINtB4_3MapINtNtNtCsdze8u8oDPro_5alloc3vec9into_iter8IntoIterBU_EB2P_EE0E0E0B10_, symObjAddr: 0x1524, symBinAddr: 0x55824, symSize: 0x8C }
  - { offset: 0x87387, size: 0x8, addend: 0x0, symName: __RNCINvNtNtNtCs9f3LFPSIp77_4core4iter8adapters3map8map_foldRNtCsjLJ1XWNSM6u_10proc_macro9TokenTreeBV_uNvYBV_NtNtBa_5clone5Clone5cloneNCINvNvNtNtNtB8_6traits8iterator8Iterator8for_each4callBV_NCINvXsh_BX_NtBX_11TokenStreamINtNtB2h_7collect12FromIteratorBV_E9from_iterINtNtB6_6cloned6ClonedINtNtNtBa_5slice4iter4IterBV_EEE0E0E0Csk0EuziVMDa8_11time_macros, symObjAddr: 0x15B0, symBinAddr: 0x558B0, symSize: 0x8C }
  - { offset: 0x874CB, size: 0x8, addend: 0x0, symName: __RNvXs9_NtNtNtCs9f3LFPSIp77_4core4iter8adapters3mapINtB5_3MapINtNtNtCsdze8u8oDPro_5alloc3vec9into_iter8IntoIterNtNtNtCsk0EuziVMDa8_11time_macros18format_description11format_item4ItemENvYB1K_INtNtBb_7convert4IntoNtNtB1O_6public15OwnedFormatItemE4intoENtB7_10SourceIter8as_innerB1Q_, symObjAddr: 0x2AA4, symBinAddr: 0x56DA4, symSize: 0x24 }
  - { offset: 0x87509, size: 0x8, addend: 0x0, symName: __RNvXs9_NtNtNtCs9f3LFPSIp77_4core4iter8adapters3mapINtB5_3MapINtNtNtCsdze8u8oDPro_5alloc3vec9into_iter8IntoIterNtNtNtCsk0EuziVMDa8_11time_macros18format_description3ast23NestedFormatDescriptionENCNvMNtB1O_11format_itemNtB3a_4Item8from_ast0ENtB7_10SourceIter8as_innerB1Q_, symObjAddr: 0x2AC8, symBinAddr: 0x56DC8, symSize: 0x24 }
  - { offset: 0x87547, size: 0x8, addend: 0x0, symName: __RNvXs9_NtNtNtCs9f3LFPSIp77_4core4iter8adapters3mapINtB5_3MapINtNtNtCsdze8u8oDPro_5alloc3vec9into_iter8IntoIterNtNtNtCsk0EuziVMDa8_11time_macros18format_description3ast4ItemENvMNtB1O_11format_itemNtB2O_4Item8from_astENtB7_10SourceIter8as_innerB1Q_, symObjAddr: 0x2AEC, symBinAddr: 0x56DEC, symSize: 0x24 }
  - { offset: 0x879DB, size: 0x8, addend: 0x0, symName: __RINvYINtNtNtNtCs9f3LFPSIp77_4core4iter8adapters3map3MapIB4_INtNtNtBa_7sources7from_fn6FromFnNCINvNtNtCsk0EuziVMDa8_11time_macros18format_description3ast11parse_innerIBW_NCINvNtB1z_5lexer3lexKh1_E0EKb0_KB33_E0ENCINvNtB1z_11format_item5parseBV_E0ENCINvB1z_5parseKB33_E0ENtNtNtBa_6traits8iterator8Iterator7collectINtNtBc_6result6ResultINtNtCsdze8u8oDPro_5alloc3vec3VecNtNtB1z_6public15OwnedFormatItemENtB1z_5ErrorEEB1B_, symObjAddr: 0xC2C, symBinAddr: 0x54F2C, symSize: 0x24 }
  - { offset: 0x87A1B, size: 0x8, addend: 0x0, symName: __RINvYINtNtNtNtCs9f3LFPSIp77_4core4iter8adapters3map3MapIB4_INtNtNtBa_7sources7from_fn6FromFnNCINvNtNtCsk0EuziVMDa8_11time_macros18format_description3ast11parse_innerIBW_NCINvNtB1z_5lexer3lexKh2_E0EKb0_KB33_E0ENCINvNtB1z_11format_item5parseBV_E0ENCINvB1z_5parseKB33_E0ENtNtNtBa_6traits8iterator8Iterator7collectINtNtBc_6result6ResultINtNtCsdze8u8oDPro_5alloc3vec3VecNtNtB1z_6public15OwnedFormatItemENtB1z_5ErrorEEB1B_, symObjAddr: 0xC50, symBinAddr: 0x54F50, symSize: 0x24 }
  - { offset: 0x87A5B, size: 0x8, addend: 0x0, symName: __RINvYINtNtNtNtCs9f3LFPSIp77_4core4iter8adapters3map3MapINtNtNtBa_7sources7from_fn6FromFnNCINvNtNtCsk0EuziVMDa8_11time_macros18format_description3ast11parse_innerIBS_NCINvNtB1v_5lexer3lexKh1_E0EKb0_KB2Z_E0ENCINvNtB1v_11format_item5parseBR_E0ENtNtNtBa_6traits8iterator8Iterator3mapINtNtBc_6result6ResultNtNtB1v_6public15OwnedFormatItemNtB1v_5ErrorENCINvB1v_5parseKB2Z_E0EB1x_, symObjAddr: 0xC74, symBinAddr: 0x54F74, symSize: 0x14 }
  - { offset: 0x87AB3, size: 0x8, addend: 0x0, symName: __RINvYINtNtNtNtCs9f3LFPSIp77_4core4iter8adapters3map3MapINtNtNtBa_7sources7from_fn6FromFnNCINvNtNtCsk0EuziVMDa8_11time_macros18format_description3ast11parse_innerIBS_NCINvNtB1v_5lexer3lexKh2_E0EKb0_KB2Z_E0ENCINvNtB1v_11format_item5parseBR_E0ENtNtNtBa_6traits8iterator8Iterator3mapINtNtBc_6result6ResultNtNtB1v_6public15OwnedFormatItemNtB1v_5ErrorENCINvB1v_5parseKB2Z_E0EB1x_, symObjAddr: 0xC88, symBinAddr: 0x54F88, symSize: 0x14 }
  - { offset: 0x87B0B, size: 0x8, addend: 0x0, symName: __RINvYINtNtNtNtCs9f3LFPSIp77_4core4iter8adapters3map3MapINtNtNtCsdze8u8oDPro_5alloc3vec9into_iter8IntoIterINtNtBY_5boxed3BoxSNtNtNtCsk0EuziVMDa8_11time_macros18format_description11format_item4ItemEENvYB1F_INtNtBc_7convert4IntoNtNtB22_6public15OwnedFormatItemE4intoENtNtNtBa_6traits8iterator8Iterator7collectIB1G_SB3B_EEB24_, symObjAddr: 0xC9C, symBinAddr: 0x54F9C, symSize: 0x14 }
  - { offset: 0x87B4C, size: 0x8, addend: 0x0, symName: __RINvYINtNtNtNtCs9f3LFPSIp77_4core4iter8adapters3map3MapINtNtNtCsdze8u8oDPro_5alloc3vec9into_iter8IntoIterINtNtBY_5boxed3BoxSNtNtNtCsk0EuziVMDa8_11time_macros18format_description11format_item4ItemEENvYB1F_INtNtBc_7convert4IntoNtNtB22_6public15OwnedFormatItemE4intoENtNtNtBa_6traits8iterator8Iterator7collectINtBW_3VecB3B_EEB24_, symObjAddr: 0xCB0, symBinAddr: 0x54FB0, symSize: 0x14 }
  - { offset: 0x87B8D, size: 0x8, addend: 0x0, symName: __RINvYINtNtNtNtCs9f3LFPSIp77_4core4iter8adapters3map3MapINtNtNtCsdze8u8oDPro_5alloc3vec9into_iter8IntoIterINtNtBY_5boxed3BoxSNtNtNtCsk0EuziVMDa8_11time_macros18format_description11format_item4ItemEENvYB1F_INtNtBc_7convert4IntoNtNtB22_6public15OwnedFormatItemE4intoENtNtNtBa_6traits8iterator8Iterator8for_eachNCINvMsi_BW_INtBW_3VecB3B_E14extend_trustedB3_E0EB24_, symObjAddr: 0xCC4, symBinAddr: 0x54FC4, symSize: 0x34 }
  - { offset: 0x87BF9, size: 0x8, addend: 0x0, symName: __RINvYINtNtNtNtCs9f3LFPSIp77_4core4iter8adapters3map3MapINtNtNtCsdze8u8oDPro_5alloc3vec9into_iter8IntoIterNtNtNtCsk0EuziVMDa8_11time_macros18format_description11format_item4ItemENvYB1F_INtNtBc_7convert4IntoNtNtB1J_6public15OwnedFormatItemE4intoENtNtNtBa_6traits8iterator8Iterator7collectINtBW_3VecB3h_EEB1L_, symObjAddr: 0xCF8, symBinAddr: 0x54FF8, symSize: 0x14 }
  - { offset: 0x87C3A, size: 0x8, addend: 0x0, symName: __RINvYINtNtNtNtCs9f3LFPSIp77_4core4iter8adapters3map3MapINtNtNtCsdze8u8oDPro_5alloc3vec9into_iter8IntoIterNtNtNtCsk0EuziVMDa8_11time_macros18format_description11format_item4ItemENvYB1F_INtNtBc_7convert4IntoNtNtB1J_6public15OwnedFormatItemE4intoENtNtNtBa_6traits8iterator8Iterator7collectINtNtBY_5boxed3BoxSB3h_EEB1L_, symObjAddr: 0xD0C, symBinAddr: 0x5500C, symSize: 0x14 }
  - { offset: 0x87C7B, size: 0x8, addend: 0x0, symName: __RINvYINtNtNtNtCs9f3LFPSIp77_4core4iter8adapters3map3MapINtNtNtCsdze8u8oDPro_5alloc3vec9into_iter8IntoIterNtNtNtCsk0EuziVMDa8_11time_macros18format_description3ast23NestedFormatDescriptionENCNvMNtB1J_11format_itemNtB35_4Item8from_ast0ENtNtNtBa_6traits8iterator8Iterator7collectINtNtBc_6result6ResultINtNtBY_5boxed3BoxSIB4N_SB3o_EENtB1J_5ErrorEEB1L_, symObjAddr: 0xD20, symBinAddr: 0x55020, symSize: 0x14 }
  - { offset: 0x87CBC, size: 0x8, addend: 0x0, symName: __RINvYINtNtNtNtCs9f3LFPSIp77_4core4iter8adapters3map3MapINtNtNtCsdze8u8oDPro_5alloc3vec9into_iter8IntoIterNtNtNtCsk0EuziVMDa8_11time_macros18format_description3ast4ItemENvMNtB1J_11format_itemNtB2J_4Item8from_astENtNtNtBa_6traits8iterator8Iterator7collectINtNtBc_6result6ResultINtNtBY_5boxed3BoxSB32_ENtB1J_5ErrorEEB1L_, symObjAddr: 0xD34, symBinAddr: 0x55034, symSize: 0x14 }
  - { offset: 0x87CFD, size: 0x8, addend: 0x0, symName: __RINvYINtNtNtNtCs9f3LFPSIp77_4core4iter8adapters3map3MapINtNtNtCsdze8u8oDPro_5alloc3vec9into_iter8IntoIterNtNtNtCsk0EuziVMDa8_11time_macros18format_description6public15OwnedFormatItemENCNCNvB1L_18format_description0s_0ENtNtNtBa_6traits8iterator8Iterator7collectNtCsjLJ1XWNSM6u_10proc_macro11TokenStreamEB1L_, symObjAddr: 0xD48, symBinAddr: 0x55048, symSize: 0x14 }
  - { offset: 0x87D3E, size: 0x8, addend: 0x0, symName: __RINvYINtNtNtNtCs9f3LFPSIp77_4core4iter8adapters3map3MapINtNtNtCsdze8u8oDPro_5alloc3vec9into_iter8IntoIterNtNtNtCsk0EuziVMDa8_11time_macros18format_description6public15OwnedFormatItemENCNCNvB1L_18format_description0s_0ENtNtNtBa_6traits8iterator8Iterator8for_eachNCINvXsi_CsjLJ1XWNSM6u_10proc_macroNtB4k_11TokenStreamINtNtB3y_7collect12FromIteratorB4K_E9from_iterB3_E0EB1L_, symObjAddr: 0xD5C, symBinAddr: 0x5505C, symSize: 0x24 }
  - { offset: 0x87D8A, size: 0x8, addend: 0x0, symName: __RINvYINtNtNtNtCs9f3LFPSIp77_4core4iter8adapters3map3MapINtNtNtCsdze8u8oDPro_5alloc3vec9into_iter8IntoIterNtNtNtCsk0EuziVMDa8_11time_macros18format_description6public15OwnedFormatItemENCNvXB1H_B1F_NtNtB1L_9to_tokens13ToTokenStream9append_to0ENtNtNtBa_6traits8iterator8Iterator7collectNtCsjLJ1XWNSM6u_10proc_macro11TokenStreamEB1L_, symObjAddr: 0xD80, symBinAddr: 0x55080, symSize: 0x14 }
  - { offset: 0x87DCB, size: 0x8, addend: 0x0, symName: __RINvYINtNtNtNtCs9f3LFPSIp77_4core4iter8adapters3map3MapINtNtNtCsdze8u8oDPro_5alloc3vec9into_iter8IntoIterNtNtNtCsk0EuziVMDa8_11time_macros18format_description6public15OwnedFormatItemENCNvXB1H_B1F_NtNtB1L_9to_tokens13ToTokenStream9append_to0ENtNtNtBa_6traits8iterator8Iterator8for_eachNCINvXsi_CsjLJ1XWNSM6u_10proc_macroNtB4H_11TokenStreamINtNtB3V_7collect12FromIteratorB57_E9from_iterB3_E0EB1L_, symObjAddr: 0xD94, symBinAddr: 0x55094, symSize: 0x24 }
  - { offset: 0x87E17, size: 0x8, addend: 0x0, symName: __RINvYINtNtNtNtCs9f3LFPSIp77_4core4iter8adapters3map3MapINtNtNtCsdze8u8oDPro_5alloc3vec9into_iter8IntoIterNtNtNtCsk0EuziVMDa8_11time_macros18format_description6public15OwnedFormatItemENCNvXB1H_B1F_NtNtB1L_9to_tokens13ToTokenStream9append_tos_0ENtNtNtBa_6traits8iterator8Iterator7collectNtCsjLJ1XWNSM6u_10proc_macro11TokenStreamEB1L_, symObjAddr: 0xDB8, symBinAddr: 0x550B8, symSize: 0x14 }
  - { offset: 0x87E58, size: 0x8, addend: 0x0, symName: __RINvYINtNtNtNtCs9f3LFPSIp77_4core4iter8adapters3map3MapINtNtNtCsdze8u8oDPro_5alloc3vec9into_iter8IntoIterNtNtNtCsk0EuziVMDa8_11time_macros18format_description6public15OwnedFormatItemENCNvXB1H_B1F_NtNtB1L_9to_tokens13ToTokenStream9append_tos_0ENtNtNtBa_6traits8iterator8Iterator8for_eachNCINvXsi_CsjLJ1XWNSM6u_10proc_macroNtB4J_11TokenStreamINtNtB3X_7collect12FromIteratorB59_E9from_iterB3_E0EB1L_, symObjAddr: 0xDCC, symBinAddr: 0x550CC, symSize: 0x24 }
  - { offset: 0x87EA4, size: 0x8, addend: 0x0, symName: __RNvYINtNtNtNtCs9f3LFPSIp77_4core4iter8adapters3map3MapINtNtNtBb_5slice4iter4IterhENCINvNtNtCsk0EuziVMDa8_11time_macros18format_description5lexer15attach_locationBQ_E0ENtNtNtB9_6traits8iterator8Iterator8peekableB1r_, symObjAddr: 0x2CD0, symBinAddr: 0x56FD0, symSize: 0x34 }
  - { offset: 0x87F05, size: 0x8, addend: 0x0, symName: __RNvXs_NtNtNtCs9f3LFPSIp77_4core4iter6traits7collectINtNtNtB8_8adapters3map3MapIBO_INtNtNtB8_7sources7from_fn6FromFnNCINvNtNtCsk0EuziVMDa8_11time_macros18format_description3ast11parse_innerIB1j_NCINvNtB1W_5lexer3lexKh1_E0EKb0_KB3r_E0ENCINvNtB1W_11format_item5parseB1i_E0ENCINvB1W_5parseKB3r_E0ENtB4_12IntoIterator9into_iterB1Y_, symObjAddr: 0x2B10, symBinAddr: 0x56E10, symSize: 0x14 }
  - { offset: 0x87F3C, size: 0x8, addend: 0x0, symName: __RNvXs_NtNtNtCs9f3LFPSIp77_4core4iter6traits7collectINtNtNtB8_8adapters3map3MapIBO_INtNtNtB8_7sources7from_fn6FromFnNCINvNtNtCsk0EuziVMDa8_11time_macros18format_description3ast11parse_innerIB1j_NCINvNtB1W_5lexer3lexKh2_E0EKb0_KB3r_E0ENCINvNtB1W_11format_item5parseB1i_E0ENCINvB1W_5parseKB3r_E0ENtB4_12IntoIterator9into_iterB1Y_, symObjAddr: 0x2B24, symBinAddr: 0x56E24, symSize: 0x14 }
  - { offset: 0x87F73, size: 0x8, addend: 0x0, symName: __RNvXs_NtNtNtCs9f3LFPSIp77_4core4iter6traits7collectINtNtNtB8_8adapters3map3MapINtNtNtCsdze8u8oDPro_5alloc3vec9into_iter8IntoIterINtNtB1l_5boxed3BoxSNtNtNtCsk0EuziVMDa8_11time_macros18format_description11format_item4ItemEENvYB22_INtNtBa_7convert4IntoNtNtB2q_6public15OwnedFormatItemE4intoENtB4_12IntoIterator9into_iterB2s_, symObjAddr: 0x2B38, symBinAddr: 0x56E38, symSize: 0x14 }
  - { offset: 0x87FAA, size: 0x8, addend: 0x0, symName: __RNvXs_NtNtNtCs9f3LFPSIp77_4core4iter6traits7collectINtNtNtB8_8adapters3map3MapINtNtNtCsdze8u8oDPro_5alloc3vec9into_iter8IntoIterNtNtNtCsk0EuziVMDa8_11time_macros18format_description11format_item4ItemENvYB22_INtNtBa_7convert4IntoNtNtB26_6public15OwnedFormatItemE4intoENtB4_12IntoIterator9into_iterB28_, symObjAddr: 0x2B4C, symBinAddr: 0x56E4C, symSize: 0x14 }
  - { offset: 0x87FE1, size: 0x8, addend: 0x0, symName: __RNvXs_NtNtNtCs9f3LFPSIp77_4core4iter6traits7collectINtNtNtB8_8adapters3map3MapINtNtNtCsdze8u8oDPro_5alloc3vec9into_iter8IntoIterNtNtNtCsk0EuziVMDa8_11time_macros18format_description3ast23NestedFormatDescriptionENCNvMNtB26_11format_itemNtB3s_4Item8from_ast0ENtB4_12IntoIterator9into_iterB28_, symObjAddr: 0x2B60, symBinAddr: 0x56E60, symSize: 0x14 }
  - { offset: 0x88018, size: 0x8, addend: 0x0, symName: __RNvXs_NtNtNtCs9f3LFPSIp77_4core4iter6traits7collectINtNtNtB8_8adapters3map3MapINtNtNtCsdze8u8oDPro_5alloc3vec9into_iter8IntoIterNtNtNtCsk0EuziVMDa8_11time_macros18format_description3ast4ItemENvMNtB26_11format_itemNtB36_4Item8from_astENtB4_12IntoIterator9into_iterB28_, symObjAddr: 0x2B74, symBinAddr: 0x56E74, symSize: 0x14 }
  - { offset: 0x8804F, size: 0x8, addend: 0x0, symName: __RNvXs_NtNtNtCs9f3LFPSIp77_4core4iter6traits7collectINtNtNtB8_8adapters3map3MapINtNtNtCsdze8u8oDPro_5alloc3vec9into_iter8IntoIterNtNtNtCsk0EuziVMDa8_11time_macros18format_description6public15OwnedFormatItemENCNCNvB28_18format_description0s_0ENtB4_12IntoIterator9into_iterB28_, symObjAddr: 0x2B88, symBinAddr: 0x56E88, symSize: 0x14 }
  - { offset: 0x88086, size: 0x8, addend: 0x0, symName: __RNvXs_NtNtNtCs9f3LFPSIp77_4core4iter6traits7collectINtNtNtB8_8adapters3map3MapINtNtNtCsdze8u8oDPro_5alloc3vec9into_iter8IntoIterNtNtNtCsk0EuziVMDa8_11time_macros18format_description6public15OwnedFormatItemENCNvXB24_B22_NtNtB28_9to_tokens13ToTokenStream9append_to0ENtB4_12IntoIterator9into_iterB28_, symObjAddr: 0x2B9C, symBinAddr: 0x56E9C, symSize: 0x14 }
  - { offset: 0x880BD, size: 0x8, addend: 0x0, symName: __RNvXs_NtNtNtCs9f3LFPSIp77_4core4iter6traits7collectINtNtNtB8_8adapters3map3MapINtNtNtCsdze8u8oDPro_5alloc3vec9into_iter8IntoIterNtNtNtCsk0EuziVMDa8_11time_macros18format_description6public15OwnedFormatItemENCNvXB24_B22_NtNtB28_9to_tokens13ToTokenStream9append_tos_0ENtB4_12IntoIterator9into_iterB28_, symObjAddr: 0x2BB0, symBinAddr: 0x56EB0, symSize: 0x14 }
  - { offset: 0x896F5, size: 0x8, addend: 0x0, symName: __RNvXs0_NtNtCs9f3LFPSIp77_4core5array8equalityShINtNtB9_3cmp9PartialEqAhj5_E2eqCsk0EuziVMDa8_11time_macros, symObjAddr: 0x22C4, symBinAddr: 0x565C4, symSize: 0x74 }
  - { offset: 0x897D9, size: 0x8, addend: 0x0, symName: __RNvXs0_NtNtCs9f3LFPSIp77_4core5array8equalityShINtNtB9_3cmp9PartialEqAhj8_E2eqCsk0EuziVMDa8_11time_macros, symObjAddr: 0x2338, symBinAddr: 0x56638, symSize: 0x74 }
  - { offset: 0x898C3, size: 0x8, addend: 0x0, symName: __RNvXs7_NtNtCs9f3LFPSIp77_4core5array8equalityhINtB5_11SpecArrayEqhKj5_E7spec_eqCsk0EuziVMDa8_11time_macros, symObjAddr: 0x285C, symBinAddr: 0x56B5C, symSize: 0x58 }
  - { offset: 0x8990F, size: 0x8, addend: 0x0, symName: __RNvXs7_NtNtCs9f3LFPSIp77_4core5array8equalityhINtB5_11SpecArrayEqhKj8_E7spec_eqCsk0EuziVMDa8_11time_macros, symObjAddr: 0x28B4, symBinAddr: 0x56BB4, symSize: 0x38 }
  - { offset: 0x899EA, size: 0x8, addend: 0x0, symName: __RNvXs5_NtNtCs9f3LFPSIp77_4core5slice5indexINtNtNtB9_3ops5range9RangeFromjEINtB5_10SliceIndexShE5indexCsk0EuziVMDa8_11time_macros, symObjAddr: 0x27CC, symBinAddr: 0x56ACC, symSize: 0x90 }
  - { offset: 0x8B498, size: 0x8, addend: 0x0, symName: __RINvMs2_NtNtCs9f3LFPSIp77_4core3ops5rangeINtB6_9RangeFromhE8containshECsk0EuziVMDa8_11time_macros, symObjAddr: 0x0, symBinAddr: 0x5433C, symSize: 0x2C }
  - { offset: 0x8B4E7, size: 0x8, addend: 0x0, symName: __RINvMs8_NtNtCs9f3LFPSIp77_4core3ops5rangeINtB6_14RangeInclusivehE8containshECsk0EuziVMDa8_11time_macros, symObjAddr: 0x2C, symBinAddr: 0x54368, symSize: 0x2C }
  - { offset: 0x8B538, size: 0x8, addend: 0x0, symName: __RINvMsa_NtNtCs9f3LFPSIp77_4core3ops5rangeINtB6_16RangeToInclusivehE8containshECsk0EuziVMDa8_11time_macros, symObjAddr: 0x58, symBinAddr: 0x54394, symSize: 0x2C }
  - { offset: 0x8B8ED, size: 0x8, addend: 0x0, symName: __RNvXs0_NtNtCsdze8u8oDPro_5alloc3vec16in_place_collectINtNtNtNtCs9f3LFPSIp77_4core4iter8adapters3map3MapINtNtB7_9into_iter8IntoIterNtNtNtCsk0EuziVMDa8_11time_macros18format_description11format_item4ItemENvYB24_INtNtBY_7convert4IntoNtNtB28_6public15OwnedFormatItemE4intoEINtB5_18SpecInPlaceCollectB3G_BP_E16collect_in_placeB2a_, symObjAddr: 0x23AC, symBinAddr: 0x566AC, symSize: 0xC8 }
  - { offset: 0x8C4ED, size: 0x8, addend: 0x0, symName: __RNvXs2_NtCsdze8u8oDPro_5alloc7raw_vecINtB5_6RawVecINtNtB7_5boxed3BoxSNtNtNtCsk0EuziVMDa8_11time_macros18format_description11format_item4ItemEENtNtNtCs9f3LFPSIp77_4core3ops4drop4Drop4dropB1b_, symObjAddr: 0x2618, symBinAddr: 0x56918, symSize: 0x34 }
  - { offset: 0x8C529, size: 0x8, addend: 0x0, symName: __RNvXs2_NtCsdze8u8oDPro_5alloc7raw_vecINtB5_6RawVecINtNtCsjLJ1XWNSM6u_10proc_macro6bridge9TokenTreeNtNtBP_6client11TokenStreamNtB1A_4SpanNtNtBP_6symbol6SymbolEENtNtNtCs9f3LFPSIp77_4core3ops4drop4Drop4dropCsk0EuziVMDa8_11time_macros, symObjAddr: 0x264C, symBinAddr: 0x5694C, symSize: 0x34 }
  - { offset: 0x8C565, size: 0x8, addend: 0x0, symName: __RNvXs2_NtCsdze8u8oDPro_5alloc7raw_vecINtB5_6RawVecNtNtNtCsjLJ1XWNSM6u_10proc_macro6bridge6client11TokenStreamENtNtNtCs9f3LFPSIp77_4core3ops4drop4Drop4dropCsk0EuziVMDa8_11time_macros, symObjAddr: 0x2680, symBinAddr: 0x56980, symSize: 0x30 }
  - { offset: 0x8C5A1, size: 0x8, addend: 0x0, symName: __RNvXs2_NtCsdze8u8oDPro_5alloc7raw_vecINtB5_6RawVecNtNtNtCsk0EuziVMDa8_11time_macros18format_description11format_item4ItemENtNtNtCs9f3LFPSIp77_4core3ops4drop4Drop4dropBS_, symObjAddr: 0x26B0, symBinAddr: 0x569B0, symSize: 0x34 }
  - { offset: 0x8C5DD, size: 0x8, addend: 0x0, symName: __RNvXs2_NtCsdze8u8oDPro_5alloc7raw_vecINtB5_6RawVecNtNtNtCsk0EuziVMDa8_11time_macros18format_description3ast23NestedFormatDescriptionENtNtNtCs9f3LFPSIp77_4core3ops4drop4Drop4dropBS_, symObjAddr: 0x26E4, symBinAddr: 0x569E4, symSize: 0x34 }
  - { offset: 0x8C619, size: 0x8, addend: 0x0, symName: __RNvXs2_NtCsdze8u8oDPro_5alloc7raw_vecINtB5_6RawVecNtNtNtCsk0EuziVMDa8_11time_macros18format_description3ast4ItemENtNtNtCs9f3LFPSIp77_4core3ops4drop4Drop4dropBS_, symObjAddr: 0x2718, symBinAddr: 0x56A18, symSize: 0x34 }
  - { offset: 0x8C655, size: 0x8, addend: 0x0, symName: __RNvXs2_NtCsdze8u8oDPro_5alloc7raw_vecINtB5_6RawVecNtNtNtCsk0EuziVMDa8_11time_macros18format_description3ast8ModifierENtNtNtCs9f3LFPSIp77_4core3ops4drop4Drop4dropBS_, symObjAddr: 0x274C, symBinAddr: 0x56A4C, symSize: 0x34 }
  - { offset: 0x8C691, size: 0x8, addend: 0x0, symName: __RNvXs2_NtCsdze8u8oDPro_5alloc7raw_vecINtB5_6RawVecNtNtNtCsk0EuziVMDa8_11time_macros18format_description6public15OwnedFormatItemENtNtNtCs9f3LFPSIp77_4core3ops4drop4Drop4dropBS_, symObjAddr: 0x2780, symBinAddr: 0x56A80, symSize: 0x34 }
  - { offset: 0x8CCF5, size: 0x8, addend: 0x0, symName: __RNvMs1_NtCsdze8u8oDPro_5alloc7raw_vecINtB5_6RawVecINtNtB7_5boxed3BoxSNtNtNtCsk0EuziVMDa8_11time_macros18format_description11format_item4ItemEE8into_boxB1b_, symObjAddr: 0x163C, symBinAddr: 0x5593C, symSize: 0xA0 }
  - { offset: 0x8D0B3, size: 0x8, addend: 0x0, symName: __RNvMs1_NtCsdze8u8oDPro_5alloc7raw_vecINtB5_6RawVecNtNtNtCsk0EuziVMDa8_11time_macros18format_description11format_item4ItemE8into_boxBS_, symObjAddr: 0x16DC, symBinAddr: 0x559DC, symSize: 0xA0 }
  - { offset: 0x8D31B, size: 0x8, addend: 0x0, symName: __RNvMs1_NtCsdze8u8oDPro_5alloc7raw_vecINtB5_6RawVecNtNtNtCsk0EuziVMDa8_11time_macros18format_description3ast23NestedFormatDescriptionE8grow_oneBS_, symObjAddr: 0x177C, symBinAddr: 0x55A7C, symSize: 0x88 }
  - { offset: 0x8D546, size: 0x8, addend: 0x0, symName: __RNvMs1_NtCsdze8u8oDPro_5alloc7raw_vecINtB5_6RawVecNtNtNtCsk0EuziVMDa8_11time_macros18format_description3ast23NestedFormatDescriptionE8into_boxBS_, symObjAddr: 0x1804, symBinAddr: 0x55B04, symSize: 0xA0 }
  - { offset: 0x8D91E, size: 0x8, addend: 0x0, symName: __RNvMs1_NtCsdze8u8oDPro_5alloc7raw_vecINtB5_6RawVecNtNtNtCsk0EuziVMDa8_11time_macros18format_description3ast4ItemE8into_boxBS_, symObjAddr: 0x18A4, symBinAddr: 0x55BA4, symSize: 0xA0 }
  - { offset: 0x8DB79, size: 0x8, addend: 0x0, symName: __RNvMs1_NtCsdze8u8oDPro_5alloc7raw_vecINtB5_6RawVecNtNtNtCsk0EuziVMDa8_11time_macros18format_description3ast8ModifierE8grow_oneBS_, symObjAddr: 0x1944, symBinAddr: 0x55C44, symSize: 0x88 }
  - { offset: 0x8DDA4, size: 0x8, addend: 0x0, symName: __RNvMs1_NtCsdze8u8oDPro_5alloc7raw_vecINtB5_6RawVecNtNtNtCsk0EuziVMDa8_11time_macros18format_description3ast8ModifierE8into_boxBS_, symObjAddr: 0x19CC, symBinAddr: 0x55CCC, symSize: 0xA0 }
  - { offset: 0x8E16F, size: 0x8, addend: 0x0, symName: __RNvMs1_NtCsdze8u8oDPro_5alloc7raw_vecINtB5_6RawVecNtNtNtCsk0EuziVMDa8_11time_macros18format_description6public15OwnedFormatItemE8into_boxBS_, symObjAddr: 0x1A6C, symBinAddr: 0x55D6C, symSize: 0xA0 }
  - { offset: 0x8E53A, size: 0x8, addend: 0x0, symName: __RNvMs1_NtCsdze8u8oDPro_5alloc7raw_vecINtB5_6RawVechE8into_boxCsk0EuziVMDa8_11time_macros, symObjAddr: 0x1B0C, symBinAddr: 0x55E0C, symSize: 0xA0 }
  - { offset: 0x8E7DF, size: 0x8, addend: 0x0, symName: __RNvMs3_NtCsdze8u8oDPro_5alloc7raw_vecNtB5_11RawVecInner13shrink_to_fitCsk0EuziVMDa8_11time_macros, symObjAddr: 0x1BAC, symBinAddr: 0x55EAC, symSize: 0x128 }
  - { offset: 0x8E93A, size: 0x8, addend: 0x0, symName: __RNvMs3_NtCsdze8u8oDPro_5alloc7raw_vecNtB5_11RawVecInner14current_memoryCsk0EuziVMDa8_11time_macros, symObjAddr: 0x1CD4, symBinAddr: 0x55FD4, symSize: 0x118 }
  - { offset: 0x8EBB3, size: 0x8, addend: 0x0, symName: __RNvMs3_NtCsdze8u8oDPro_5alloc7raw_vecNtB5_11RawVecInner16shrink_uncheckedCsk0EuziVMDa8_11time_macros, symObjAddr: 0x1DEC, symBinAddr: 0x560EC, symSize: 0x2F4 }
  - { offset: 0x8EF99, size: 0x8, addend: 0x0, symName: __RNvMs3_NtCsdze8u8oDPro_5alloc7raw_vecNtB5_11RawVecInner16with_capacity_inCsk0EuziVMDa8_11time_macros, symObjAddr: 0x20E0, symBinAddr: 0x563E0, symSize: 0xF8 }
  - { offset: 0x8F43B, size: 0x8, addend: 0x0, symName: __RNvMs0_NtCs9f3LFPSIp77_4core3numl10rem_euclidCs5CUYdSNmugS_9time_core, symObjAddr: 0x0, symBinAddr: 0x57018, symSize: 0xE0 }
  - { offset: 0x8F570, size: 0x8, addend: 0x0, symName: __RNvMs0_NtCs9f3LFPSIp77_4core3numl10rem_euclidCs5CUYdSNmugS_9time_core, symObjAddr: 0x0, symBinAddr: 0x57018, symSize: 0xE0 }
  - { offset: 0x8F63E, size: 0x8, addend: 0x0, symName: __RNvYNtNtCs5CUYdSNmugS_9time_core7convert10NanosecondNtNtCs9f3LFPSIp77_4core5clone5Clone10clone_fromB6_, symObjAddr: 0xE0, symBinAddr: 0x570F8, symSize: 0x34 }
  - { offset: 0x8F67D, size: 0x8, addend: 0x0, symName: __RNvYNtNtCs5CUYdSNmugS_9time_core7convert11MicrosecondNtNtCs9f3LFPSIp77_4core5clone5Clone10clone_fromB6_, symObjAddr: 0x114, symBinAddr: 0x5712C, symSize: 0x34 }
  - { offset: 0x8F6BC, size: 0x8, addend: 0x0, symName: __RNvYNtNtCs5CUYdSNmugS_9time_core7convert11MillisecondNtNtCs9f3LFPSIp77_4core5clone5Clone10clone_fromB6_, symObjAddr: 0x148, symBinAddr: 0x57160, symSize: 0x34 }
  - { offset: 0x8F6FB, size: 0x8, addend: 0x0, symName: __RNvYNtNtCs5CUYdSNmugS_9time_core7convert3DayNtNtCs9f3LFPSIp77_4core5clone5Clone10clone_fromB6_, symObjAddr: 0x17C, symBinAddr: 0x57194, symSize: 0x34 }
  - { offset: 0x8F73A, size: 0x8, addend: 0x0, symName: __RNvYNtNtCs5CUYdSNmugS_9time_core7convert4HourNtNtCs9f3LFPSIp77_4core5clone5Clone10clone_fromB6_, symObjAddr: 0x1B0, symBinAddr: 0x571C8, symSize: 0x34 }
  - { offset: 0x8F779, size: 0x8, addend: 0x0, symName: __RNvYNtNtCs5CUYdSNmugS_9time_core7convert4WeekNtNtCs9f3LFPSIp77_4core5clone5Clone10clone_fromB6_, symObjAddr: 0x1E4, symBinAddr: 0x571FC, symSize: 0x34 }
  - { offset: 0x8F7B8, size: 0x8, addend: 0x0, symName: __RNvYNtNtCs5CUYdSNmugS_9time_core7convert6MinuteNtNtCs9f3LFPSIp77_4core5clone5Clone10clone_fromB6_, symObjAddr: 0x218, symBinAddr: 0x57230, symSize: 0x34 }
  - { offset: 0x8F7F7, size: 0x8, addend: 0x0, symName: __RNvYNtNtCs5CUYdSNmugS_9time_core7convert6SecondNtNtCs9f3LFPSIp77_4core5clone5Clone10clone_fromB6_, symObjAddr: 0x24C, symBinAddr: 0x57264, symSize: 0x34 }
  - { offset: 0x8F93F, size: 0x8, addend: 0x0, symName: __RNvNtCs5CUYdSNmugS_9time_core4util12is_leap_year, symObjAddr: 0x280, symBinAddr: 0x57298, symSize: 0x168 }
  - { offset: 0x8F96B, size: 0x8, addend: 0x0, symName: __RNvNtCs5CUYdSNmugS_9time_core4util12days_in_year, symObjAddr: 0x3E8, symBinAddr: 0x57400, symSize: 0x68 }
  - { offset: 0x8F997, size: 0x8, addend: 0x0, symName: __RNvNtCs5CUYdSNmugS_9time_core4util13weeks_in_year, symObjAddr: 0x450, symBinAddr: 0x57468, symSize: 0x9C }
  - { offset: 0x8F9CE, size: 0x8, addend: 0x0, symName: __RNvXsG_NtCs5CUYdSNmugS_9time_core7convertNtB5_10NanosecondNtNtCs9f3LFPSIp77_4core3fmt5Debug3fmtB7_, symObjAddr: 0x4EC, symBinAddr: 0x57504, symSize: 0x40 }
  - { offset: 0x8FA0E, size: 0x8, addend: 0x0, symName: __RNvXsH_NtCs5CUYdSNmugS_9time_core7convertNtB5_10NanosecondNtNtCs9f3LFPSIp77_4core5clone5Clone5cloneB7_, symObjAddr: 0x52C, symBinAddr: 0x57544, symSize: 0x10 }
  - { offset: 0x8FA3C, size: 0x8, addend: 0x0, symName: __RNvXsJ_NtCs5CUYdSNmugS_9time_core7convertNtB5_11MicrosecondNtNtCs9f3LFPSIp77_4core3fmt5Debug3fmtB7_, symObjAddr: 0x53C, symBinAddr: 0x57554, symSize: 0x40 }
  - { offset: 0x8FA7C, size: 0x8, addend: 0x0, symName: __RNvXsK_NtCs5CUYdSNmugS_9time_core7convertNtB5_11MicrosecondNtNtCs9f3LFPSIp77_4core5clone5Clone5cloneB7_, symObjAddr: 0x57C, symBinAddr: 0x57594, symSize: 0x10 }
  - { offset: 0x8FAAA, size: 0x8, addend: 0x0, symName: __RNvXsM_NtCs5CUYdSNmugS_9time_core7convertNtB5_11MillisecondNtNtCs9f3LFPSIp77_4core3fmt5Debug3fmtB7_, symObjAddr: 0x58C, symBinAddr: 0x575A4, symSize: 0x40 }
  - { offset: 0x8FAEA, size: 0x8, addend: 0x0, symName: __RNvXsN_NtCs5CUYdSNmugS_9time_core7convertNtB5_11MillisecondNtNtCs9f3LFPSIp77_4core5clone5Clone5cloneB7_, symObjAddr: 0x5CC, symBinAddr: 0x575E4, symSize: 0x10 }
  - { offset: 0x8FB18, size: 0x8, addend: 0x0, symName: __RNvXsP_NtCs5CUYdSNmugS_9time_core7convertNtB5_6SecondNtNtCs9f3LFPSIp77_4core3fmt5Debug3fmtB7_, symObjAddr: 0x5DC, symBinAddr: 0x575F4, symSize: 0x40 }
  - { offset: 0x8FB58, size: 0x8, addend: 0x0, symName: __RNvXsQ_NtCs5CUYdSNmugS_9time_core7convertNtB5_6SecondNtNtCs9f3LFPSIp77_4core5clone5Clone5cloneB7_, symObjAddr: 0x61C, symBinAddr: 0x57634, symSize: 0x10 }
  - { offset: 0x8FB86, size: 0x8, addend: 0x0, symName: __RNvXsS_NtCs5CUYdSNmugS_9time_core7convertNtB5_6MinuteNtNtCs9f3LFPSIp77_4core3fmt5Debug3fmtB7_, symObjAddr: 0x62C, symBinAddr: 0x57644, symSize: 0x40 }
  - { offset: 0x8FBC6, size: 0x8, addend: 0x0, symName: __RNvXsT_NtCs5CUYdSNmugS_9time_core7convertNtB5_6MinuteNtNtCs9f3LFPSIp77_4core5clone5Clone5cloneB7_, symObjAddr: 0x66C, symBinAddr: 0x57684, symSize: 0x10 }
  - { offset: 0x8FBF4, size: 0x8, addend: 0x0, symName: __RNvXsV_NtCs5CUYdSNmugS_9time_core7convertNtB5_4HourNtNtCs9f3LFPSIp77_4core3fmt5Debug3fmtB7_, symObjAddr: 0x67C, symBinAddr: 0x57694, symSize: 0x40 }
  - { offset: 0x8FC34, size: 0x8, addend: 0x0, symName: __RNvXsW_NtCs5CUYdSNmugS_9time_core7convertNtB5_4HourNtNtCs9f3LFPSIp77_4core5clone5Clone5cloneB7_, symObjAddr: 0x6BC, symBinAddr: 0x576D4, symSize: 0x10 }
  - { offset: 0x8FC62, size: 0x8, addend: 0x0, symName: __RNvXsY_NtCs5CUYdSNmugS_9time_core7convertNtB5_3DayNtNtCs9f3LFPSIp77_4core3fmt5Debug3fmtB7_, symObjAddr: 0x6CC, symBinAddr: 0x576E4, symSize: 0x40 }
  - { offset: 0x8FCA2, size: 0x8, addend: 0x0, symName: __RNvXsZ_NtCs5CUYdSNmugS_9time_core7convertNtB5_3DayNtNtCs9f3LFPSIp77_4core5clone5Clone5cloneB7_, symObjAddr: 0x70C, symBinAddr: 0x57724, symSize: 0x10 }
  - { offset: 0x8FCD0, size: 0x8, addend: 0x0, symName: __RNvXs11_NtCs5CUYdSNmugS_9time_core7convertNtB6_4WeekNtNtCs9f3LFPSIp77_4core3fmt5Debug3fmtB8_, symObjAddr: 0x71C, symBinAddr: 0x57734, symSize: 0x40 }
  - { offset: 0x8FD10, size: 0x8, addend: 0x0, symName: __RNvXs12_NtCs5CUYdSNmugS_9time_core7convertNtB6_4WeekNtNtCs9f3LFPSIp77_4core5clone5Clone5cloneB8_, symObjAddr: 0x75C, symBinAddr: 0x57774, symSize: 0x10 }
  - { offset: 0x8FEF6, size: 0x8, addend: 0x0, symName: '__ZN36_$LT$T$u20$as$u20$core..any..Any$GT$7type_id17h21e4e8d2fad3819fE', symObjAddr: 0x0, symBinAddr: 0x57784, symSize: 0x30 }
  - { offset: 0x8FF12, size: 0x8, addend: 0x0, symName: '__ZN36_$LT$T$u20$as$u20$core..any..Any$GT$7type_id17h21e4e8d2fad3819fE', symObjAddr: 0x0, symBinAddr: 0x57784, symSize: 0x30 }
  - { offset: 0x8FF2B, size: 0x8, addend: 0x0, symName: '__ZN36_$LT$T$u20$as$u20$core..any..Any$GT$7type_id17h4bdd119c075af887E', symObjAddr: 0x30, symBinAddr: 0x577B4, symSize: 0x30 }
  - { offset: 0x8FF44, size: 0x8, addend: 0x0, symName: '__ZN36_$LT$T$u20$as$u20$core..any..Any$GT$7type_id17hcb91cee7acc095eaE', symObjAddr: 0x60, symBinAddr: 0x577E4, symSize: 0x30 }
  - { offset: 0x9032D, size: 0x8, addend: 0x0, symName: '__ZN66_$LT$core..option..Option$LT$T$GT$$u20$as$u20$core..fmt..Debug$GT$3fmt17hcdb1625c51a882bfE', symObjAddr: 0x3134, symBinAddr: 0x5A6D4, symSize: 0x5C }
  - { offset: 0x9069F, size: 0x8, addend: 0x0, symName: '__ZN4core3ptr101drop_in_place$LT$$u5b$proc_macro..bridge..Diagnostic$LT$proc_macro..bridge..client..Span$GT$$u5d$$GT$17h1393771f5c3b2fafE', symObjAddr: 0x794, symBinAddr: 0x57DD4, symSize: 0xDC }
  - { offset: 0x90991, size: 0x8, addend: 0x0, symName: '__ZN4core3ptr103drop_in_place$LT$proc_macro..bridge..client..TokenStream..concat_trees..$u7b$$u7b$closure$u7d$$u7d$$GT$17hf104043ff4e29281E', symObjAddr: 0x870, symBinAddr: 0x57EB0, symSize: 0x84 }
  - { offset: 0x90B2E, size: 0x8, addend: 0x0, symName: '__ZN4core3ptr105drop_in_place$LT$proc_macro..bridge..client..TokenStream..concat_streams..$u7b$$u7b$closure$u7d$$u7d$$GT$17hc35b86c47bb30550E', symObjAddr: 0x8F4, symBinAddr: 0x57F34, symSize: 0x84 }
  - { offset: 0x90EEA, size: 0x8, addend: 0x0, symName: '__ZN4core3ptr130drop_in_place$LT$alloc..vec..into_iter..IntoIter$LT$proc_macro..bridge..Diagnostic$LT$proc_macro..bridge..client..Span$GT$$GT$$GT$17h6d504460d4d942c4E', symObjAddr: 0x978, symBinAddr: 0x57FB8, symSize: 0x88 }
  - { offset: 0x910D3, size: 0x8, addend: 0x0, symName: '__ZN4core3ptr131drop_in_place$LT$proc_macro..bridge..client..maybe_install_panic_hook..$u7b$$u7b$closure$u7d$$u7d$..$u7b$$u7b$closure$u7d$$u7d$$GT$17h87700cc4f87e5cdeE', symObjAddr: 0xA00, symBinAddr: 0x58040, symSize: 0x6C }
  - { offset: 0x9128E, size: 0x8, addend: 0x0, symName: '__ZN4core3ptr146drop_in_place$LT$std..sys..thread_local..native..lazy..State$LT$core..cell..RefCell$LT$proc_macro..bridge..symbol..Interner$GT$$C$$LP$$RP$$GT$$GT$17h844ebdcdba5a183eE', symObjAddr: 0xA6C, symBinAddr: 0x580AC, symSize: 0xD0 }
  - { offset: 0x91601, size: 0x8, addend: 0x0, symName: '__ZN4core3ptr187drop_in_place$LT$alloc..vec..in_place_drop..InPlaceDstDataSrcBufDrop$LT$proc_macro..diagnostic..Diagnostic$C$proc_macro..bridge..Diagnostic$LT$proc_macro..bridge..client..Span$GT$$GT$$GT$17h98c29205f1c5f3acE', symObjAddr: 0xB3C, symBinAddr: 0x5817C, symSize: 0x70 }
  - { offset: 0x91772, size: 0x8, addend: 0x0, symName: '__ZN4core3ptr188drop_in_place$LT$core..iter..adapters..map..Map$LT$alloc..vec..into_iter..IntoIter$LT$proc_macro..diagnostic..Diagnostic$GT$$C$proc_macro..diagnostic..Diagnostic..emit..to_internal$GT$$GT$17hfad2858eb8582b20E', symObjAddr: 0xBAC, symBinAddr: 0x581EC, symSize: 0x88 }
  - { offset: 0x919A4, size: 0x8, addend: 0x0, symName: '__ZN4core3ptr192drop_in_place$LT$alloc..vec..Vec$LT$proc_macro..bridge..TokenTree$LT$proc_macro..bridge..client..TokenStream$C$proc_macro..bridge..client..Span$C$proc_macro..bridge..symbol..Symbol$GT$$GT$$GT$17h911d4916351d114cE', symObjAddr: 0xC34, symBinAddr: 0x58274, symSize: 0x148 }
  - { offset: 0x91CEA, size: 0x8, addend: 0x0, symName: '__ZN4core3ptr208drop_in_place$LT$alloc..vec..into_iter..IntoIter$LT$proc_macro..bridge..TokenTree$LT$proc_macro..bridge..client..TokenStream$C$proc_macro..bridge..client..Span$C$proc_macro..bridge..symbol..Symbol$GT$$GT$$GT$17h5e5f315eba8a11f4E', symObjAddr: 0xD7C, symBinAddr: 0x583BC, symSize: 0x144 }
  - { offset: 0x920D4, size: 0x8, addend: 0x0, symName: '__ZN4core3ptr39drop_in_place$LT$std..path..PathBuf$GT$17hc109b5ed94d546fcE', symObjAddr: 0xEC0, symBinAddr: 0x58500, symSize: 0x28 }
  - { offset: 0x92189, size: 0x8, addend: 0x0, symName: '__ZN4core3ptr42drop_in_place$LT$proc_macro..TokenTree$GT$17h37b5771b8427ee16E', symObjAddr: 0xEE8, symBinAddr: 0x58528, symSize: 0x40 }
  - { offset: 0x9228A, size: 0x8, addend: 0x0, symName: '__ZN4core3ptr44drop_in_place$LT$proc_macro..TokenStream$GT$17h55740d6a252e049fE', symObjAddr: 0xF28, symBinAddr: 0x58568, symSize: 0x34 }
  - { offset: 0x92386, size: 0x8, addend: 0x0, symName: '__ZN4core3ptr55drop_in_place$LT$proc_macro..diagnostic..Diagnostic$GT$17hb2a71a3745e915b5E', symObjAddr: 0xF5C, symBinAddr: 0x5859C, symSize: 0xAC }
  - { offset: 0x92666, size: 0x8, addend: 0x0, symName: '__ZN4core3ptr63drop_in_place$LT$$u5b$proc_macro..TokenTree$u3b$$u20$2$u5d$$GT$17heb6ae23ecb22880fE', symObjAddr: 0x1008, symBinAddr: 0x58648, symSize: 0xCC }
  - { offset: 0x92835, size: 0x8, addend: 0x0, symName: '__ZN4core3ptr65drop_in_place$LT$$u5b$proc_macro..TokenStream$u3b$$u20$2$u5d$$GT$17hfdbc0351499e9398E', symObjAddr: 0x10D4, symBinAddr: 0x58714, symSize: 0xA4 }
  - { offset: 0x929AF, size: 0x8, addend: 0x0, symName: '__ZN4core3ptr65drop_in_place$LT$$u5b$proc_macro..TokenStream$u3b$$u20$3$u5d$$GT$17hb50942f5ebd9b2ffE', symObjAddr: 0x1178, symBinAddr: 0x587B8, symSize: 0xFC }
  - { offset: 0x92AE0, size: 0x8, addend: 0x0, symName: '__ZN4core3ptr65drop_in_place$LT$$u5b$proc_macro..TokenStream$u3b$$u20$4$u5d$$GT$17hd470142623cadfc8E', symObjAddr: 0x1274, symBinAddr: 0x588B4, symSize: 0x14C }
  - { offset: 0x92C11, size: 0x8, addend: 0x0, symName: '__ZN4core3ptr65drop_in_place$LT$$u5b$proc_macro..TokenStream$u3b$$u20$5$u5d$$GT$17hd15f9e1fd4e153e9E', symObjAddr: 0x13C0, symBinAddr: 0x58A00, symSize: 0x19C }
  - { offset: 0x92D42, size: 0x8, addend: 0x0, symName: '__ZN4core3ptr65drop_in_place$LT$$u5b$proc_macro..TokenStream$u3b$$u20$6$u5d$$GT$17hf4e44ac1327a3551E', symObjAddr: 0x155C, symBinAddr: 0x58B9C, symSize: 0x1EC }
  - { offset: 0x92E73, size: 0x8, addend: 0x0, symName: '__ZN4core3ptr65drop_in_place$LT$$u5b$proc_macro..TokenStream$u3b$$u20$7$u5d$$GT$17h52d7e2d770bbf755E', symObjAddr: 0x1748, symBinAddr: 0x58D88, symSize: 0x23C }
  - { offset: 0x92FA4, size: 0x8, addend: 0x0, symName: '__ZN4core3ptr65drop_in_place$LT$$u5b$proc_macro..TokenStream$u3b$$u20$9$u5d$$GT$17h5f338fb6237a92bbE', symObjAddr: 0x1984, symBinAddr: 0x58FC4, symSize: 0x2DC }
  - { offset: 0x930E2, size: 0x8, addend: 0x0, symName: '__ZN4core3ptr65drop_in_place$LT$$u5b$proc_macro..diagnostic..Diagnostic$u5d$$GT$17ha150572694d463d0E', symObjAddr: 0x1C60, symBinAddr: 0x592A0, symSize: 0xDC }
  - { offset: 0x933BA, size: 0x8, addend: 0x0, symName: '__ZN4core3ptr66drop_in_place$LT$$u5b$proc_macro..TokenStream$u3b$$u20$11$u5d$$GT$17h5a11e63a945d7575E', symObjAddr: 0x1D3C, symBinAddr: 0x5937C, symSize: 0x218 }
  - { offset: 0x9352B, size: 0x8, addend: 0x0, symName: '__ZN4core3ptr66drop_in_place$LT$$u5b$proc_macro..TokenStream$u3b$$u20$16$u5d$$GT$17h8079d21b49007fa9E', symObjAddr: 0x1F54, symBinAddr: 0x59594, symSize: 0x2CC }
  - { offset: 0x9369C, size: 0x8, addend: 0x0, symName: '__ZN4core3ptr66drop_in_place$LT$$u5b$proc_macro..TokenStream$u3b$$u20$29$u5d$$GT$17h903ce022fe1df87aE', symObjAddr: 0x2220, symBinAddr: 0x59860, symSize: 0x4A0 }
  - { offset: 0x93827, size: 0x8, addend: 0x0, symName: '__ZN4core3ptr83drop_in_place$LT$alloc..vec..Vec$LT$proc_macro..bridge..client..TokenStream$GT$$GT$17hb7cafeb4c3e7d8f9E', symObjAddr: 0x26C0, symBinAddr: 0x59D00, symSize: 0xF4 }
  - { offset: 0x93AE4, size: 0x8, addend: 0x0, symName: '__ZN4core3ptr91drop_in_place$LT$alloc..boxed..Box$LT$dyn$u20$core..any..Any$u2b$core..marker..Send$GT$$GT$17h25daacde3cfc5e86E', symObjAddr: 0x27B4, symBinAddr: 0x59DF4, symSize: 0x78 }
  - { offset: 0x93BCE, size: 0x8, addend: 0x0, symName: '__ZN4core3ptr91drop_in_place$LT$proc_macro..bridge..Diagnostic$LT$proc_macro..bridge..client..Span$GT$$GT$17h4e9bae3551639223E', symObjAddr: 0x282C, symBinAddr: 0x59E6C, symSize: 0xAC }
  - { offset: 0x94C35, size: 0x8, addend: 0x0, symName: '__ZN4core3ops8function6FnOnce40call_once$u7b$$u7b$vtable.shim$u7d$$u7d$17h08221703fa375a29E', symObjAddr: 0x618, symBinAddr: 0x57C58, symSize: 0xA8 }
  - { offset: 0x94D63, size: 0x8, addend: 0x0, symName: '__ZN4core3ops8function6FnOnce40call_once$u7b$$u7b$vtable.shim$u7d$$u7d$17hf8f80c22252cf66cE', symObjAddr: 0x6C0, symBinAddr: 0x57D00, symSize: 0xD4 }
  - { offset: 0x951FB, size: 0x8, addend: 0x0, symName: '__ZN41_$LT$bool$u20$as$u20$core..fmt..Debug$GT$3fmt17h9e9b2eff902fdd93E', symObjAddr: 0x2C4, symBinAddr: 0x57904, symSize: 0x10 }
  - { offset: 0x9521B, size: 0x8, addend: 0x0, symName: '__ZN42_$LT$$RF$T$u20$as$u20$core..fmt..Debug$GT$3fmt17h51a656df8639341cE', symObjAddr: 0x2D4, symBinAddr: 0x57914, symSize: 0x1C }
  - { offset: 0x95235, size: 0x8, addend: 0x0, symName: '__ZN42_$LT$$RF$T$u20$as$u20$core..fmt..Debug$GT$3fmt17h7514063eee4df562E', symObjAddr: 0x2F0, symBinAddr: 0x57930, symSize: 0x30 }
  - { offset: 0x9527A, size: 0x8, addend: 0x0, symName: '__ZN42_$LT$$RF$T$u20$as$u20$core..fmt..Debug$GT$3fmt17h7959a1118bd54ce5E', symObjAddr: 0x320, symBinAddr: 0x57960, symSize: 0x14 }
  - { offset: 0x95294, size: 0x8, addend: 0x0, symName: '__ZN42_$LT$$RF$T$u20$as$u20$core..fmt..Debug$GT$3fmt17hc71c7cbea73d16a2E', symObjAddr: 0x334, symBinAddr: 0x57974, symSize: 0x64 }
  - { offset: 0x953A2, size: 0x8, addend: 0x0, symName: '__ZN4core3fmt3num52_$LT$impl$u20$core..fmt..Debug$u20$for$u20$usize$GT$3fmt17hbcf940b80966635eE', symObjAddr: 0x5D0, symBinAddr: 0x57C10, symSize: 0x2C }
  - { offset: 0x953D7, size: 0x8, addend: 0x0, symName: '__ZN44_$LT$$RF$T$u20$as$u20$core..fmt..Display$GT$3fmt17h24a9dcff090f1c77E', symObjAddr: 0x398, symBinAddr: 0x579D8, symSize: 0x1C }
  - { offset: 0x9541C, size: 0x8, addend: 0x0, symName: __ZN4core3fmt5Write9write_fmt17hc847918b387a1827E, symObjAddr: 0x5FC, symBinAddr: 0x57C3C, symSize: 0x1C }
  - { offset: 0x95450, size: 0x8, addend: 0x0, symName: '__ZN53_$LT$core..fmt..Error$u20$as$u20$core..fmt..Debug$GT$3fmt17he86a5143693380e6E', symObjAddr: 0x28D8, symBinAddr: 0x59F18, symSize: 0x20 }
  - { offset: 0x976D6, size: 0x8, addend: 0x0, symName: '__ZN64_$LT$core..str..error..Utf8Error$u20$as$u20$core..fmt..Debug$GT$3fmt17h67e66537ef126eedE', symObjAddr: 0x30C4, symBinAddr: 0x5A664, symSize: 0x70 }
  - { offset: 0x97CA0, size: 0x8, addend: 0x0, symName: __ZN10proc_macro6bridge6symbol8Interner3get17hc6f58f610795eb19E, symObjAddr: 0x61D8, symBinAddr: 0x5D02C, symSize: 0x5C }
  - { offset: 0x97DC9, size: 0x8, addend: 0x0, symName: __ZN10proc_macro6bridge6symbol6Symbol3new17h7c5dcb74576d64daE, symObjAddr: 0x4C34, symBinAddr: 0x5BA88, symSize: 0x678 }
  - { offset: 0x99126, size: 0x8, addend: 0x0, symName: __ZN10proc_macro6bridge6symbol6Symbol9new_ident17h75c03e9570bb140aE, symObjAddr: 0x52AC, symBinAddr: 0x5C100, symSize: 0x628 }
  - { offset: 0x99D9E, size: 0x8, addend: 0x0, symName: __ZN10proc_macro6bridge6symbol6Symbol14invalidate_all17ha75a1aedd0781effE, symObjAddr: 0x58D4, symBinAddr: 0x5C728, symSize: 0x1A8 }
  - { offset: 0x9A334, size: 0x8, addend: 0x0, symName: '__ZN71_$LT$proc_macro..bridge..symbol..Symbol$u20$as$u20$core..fmt..Debug$GT$3fmt17hea15f79d4742721cE', symObjAddr: 0x5A7C, symBinAddr: 0x5C8D0, symSize: 0x174 }
  - { offset: 0x9A663, size: 0x8, addend: 0x0, symName: '__ZN78_$LT$proc_macro..bridge..symbol..Symbol$u20$as$u20$alloc..string..ToString$GT$9to_string17h190df9340fff9187E', symObjAddr: 0x5BF0, symBinAddr: 0x5CA44, symSize: 0x1D8 }
  - { offset: 0x9AABB, size: 0x8, addend: 0x0, symName: '__ZN73_$LT$proc_macro..bridge..symbol..Symbol$u20$as$u20$core..fmt..Display$GT$3fmt17haad6e6c72ee42d0cE', symObjAddr: 0x5DC8, symBinAddr: 0x5CC1C, symSize: 0x174 }
  - { offset: 0x9ADEA, size: 0x8, addend: 0x0, symName: '__ZN95_$LT$proc_macro..bridge..symbol..Symbol$u20$as$u20$proc_macro..bridge..rpc..Encode$LT$S$GT$$GT$6encode17hc6736302cb0e29a4E', symObjAddr: 0x5F3C, symBinAddr: 0x5CD90, symSize: 0x29C }
  - { offset: 0x9B3E7, size: 0x8, addend: 0x0, symName: '__ZN10proc_macro6bridge6client24maybe_install_panic_hook28_$u7b$$u7b$closure$u7d$$u7d$28_$u7b$$u7b$closure$u7d$$u7d$17hf925219c7ea418b0E', symObjAddr: 0x4840, symBinAddr: 0x5B694, symSize: 0x50 }
  - { offset: 0x9B466, size: 0x8, addend: 0x0, symName: '__ZN95_$LT$proc_macro..bridge..client..state..set..RestoreOnDrop$u20$as$u20$core..ops..drop..Drop$GT$4drop17h86ced5f08e8f852aE', symObjAddr: 0x4108, symBinAddr: 0x5AF5C, symSize: 0x28 }
  - { offset: 0x9B922, size: 0x8, addend: 0x0, symName: __ZN10proc_macro6bridge6client11TokenStream12concat_trees17h68480a020efbde22E, symObjAddr: 0x202A4, symBinAddr: 0x770F8, symSize: 0x3D4 }
  - { offset: 0x9BFF3, size: 0x8, addend: 0x0, symName: __ZN10proc_macro6bridge6client11TokenStream14concat_streams17hf8557c2b38f07c33E, symObjAddr: 0x20678, symBinAddr: 0x774CC, symSize: 0x490 }
  - { offset: 0x9CBA4, size: 0x8, addend: 0x0, symName: '__ZN81_$LT$proc_macro..bridge..client..TokenStream$u20$as$u20$core..ops..drop..Drop$GT$4drop17ha05bdd1c561470c2E', symObjAddr: 0x1F5C4, symBinAddr: 0x76418, symSize: 0x2C }
  - { offset: 0x9CC66, size: 0x8, addend: 0x0, symName: '__ZN10proc_macro6bridge6client6Bridge4with28_$u7b$$u7b$closure$u7d$$u7d$17h7841b5b666137055E', symObjAddr: 0x4130, symBinAddr: 0x5AF84, symSize: 0x354 }
  - { offset: 0x9D3BA, size: 0x8, addend: 0x0, symName: '__ZN10proc_macro6bridge6client6Bridge4with28_$u7b$$u7b$closure$u7d$$u7d$17habeccb47f6797608E', symObjAddr: 0x4484, symBinAddr: 0x5B2D8, symSize: 0x354 }
  - { offset: 0x9DE5D, size: 0x8, addend: 0x0, symName: '__ZN78_$LT$proc_macro..bridge..client..TokenStream$u20$as$u20$core..clone..Clone$GT$5clone17h2e0376df6e69cf4eE', symObjAddr: 0x3978, symBinAddr: 0x5A7CC, symSize: 0x274 }
  - { offset: 0x9E526, size: 0x8, addend: 0x0, symName: '__ZN77_$LT$proc_macro..bridge..client..SourceFile$u20$as$u20$core..clone..Clone$GT$5clone17h936a1d06178c39c1E', symObjAddr: 0x3BEC, symBinAddr: 0x5AA40, symSize: 0x274 }
  - { offset: 0x9EB89, size: 0x8, addend: 0x0, symName: __ZN10proc_macro6bridge6client4Span7subspan17hda4d2579f0256c05E, symObjAddr: 0x20B08, symBinAddr: 0x7795C, symSize: 0x2B4 }
  - { offset: 0x9F3EF, size: 0x8, addend: 0x0, symName: '__ZN69_$LT$proc_macro..bridge..client..Span$u20$as$u20$core..fmt..Debug$GT$3fmt17haf5dc91869f1d788E', symObjAddr: 0x3E60, symBinAddr: 0x5ACB4, symSize: 0x2A8 }
  - { offset: 0x9FB3E, size: 0x8, addend: 0x0, symName: '__ZN80_$LT$proc_macro..bridge..client..SourceFile$u20$as$u20$core..ops..drop..Drop$GT$4drop17h9ba818fcafe95145E', symObjAddr: 0x1F5F0, symBinAddr: 0x76444, symSize: 0x2C }
  - { offset: 0x9FBFC, size: 0x8, addend: 0x0, symName: __ZN10proc_macro6bridge6client24maybe_install_panic_hook17hdb50640cb4fe52bcE, symObjAddr: 0x47D8, symBinAddr: 0x5B62C, symSize: 0x68 }
  - { offset: 0x9FCB7, size: 0x8, addend: 0x0, symName: __ZN10proc_macro6bridge6client13FreeFunctions16injected_env_var17h3767e66b92b4a6beE, symObjAddr: 0x1F61C, symBinAddr: 0x76470, symSize: 0x3A4 }
  - { offset: 0xA0428, size: 0x8, addend: 0x0, symName: __ZN10proc_macro6bridge6client13FreeFunctions13track_env_var17h8857cdb5ee4c7a95E, symObjAddr: 0x1F9C0, symBinAddr: 0x76814, symSize: 0x584 }
  - { offset: 0xA1050, size: 0x8, addend: 0x0, symName: __ZN10proc_macro6bridge6client13FreeFunctions10track_path17h03272103aef2986eE, symObjAddr: 0x1FF44, symBinAddr: 0x76D98, symSize: 0x360 }
  - { offset: 0xA1901, size: 0x8, addend: 0x0, symName: '__ZN83_$LT$proc_macro..bridge..client..FreeFunctions$u20$as$u20$core..ops..drop..Drop$GT$4drop17hf884e93c4b705a31E', symObjAddr: 0x1F264, symBinAddr: 0x760B8, symSize: 0x360 }
  - { offset: 0xA1FFF, size: 0x8, addend: 0x0, symName: __ZN10proc_macro6bridge5arena5Arena4grow17h6a1ce91c314c8fb2E, symObjAddr: 0x3780, symBinAddr: 0x10BB20, symSize: 0x15C }
  - { offset: 0xA250A, size: 0x8, addend: 0x0, symName: '__ZN107_$LT$proc_macro..bridge..buffer..Buffer$u20$as$u20$core..convert..From$LT$alloc..vec..Vec$LT$u8$GT$$GT$$GT$4from7reserve17hb30bd2b6b4b12458E', symObjAddr: 0x38DC, symBinAddr: 0x5A730, symSize: 0x74 }
  - { offset: 0xA25EF, size: 0x8, addend: 0x0, symName: '__ZN107_$LT$proc_macro..bridge..buffer..Buffer$u20$as$u20$core..convert..From$LT$alloc..vec..Vec$LT$u8$GT$$GT$$GT$4from4drop17h1c337db37d8e1827E', symObjAddr: 0x3950, symBinAddr: 0x5A7A4, symSize: 0x28 }
  - { offset: 0xA2F78, size: 0x8, addend: 0x0, symName: '__ZN71_$LT$$RF$str$u20$as$u20$proc_macro..bridge..rpc..DecodeMut$LT$S$GT$$GT$6decode17h8a4e0d14f1ca7a32E', symObjAddr: 0x4890, symBinAddr: 0x5B6E4, symSize: 0xB4 }
  - { offset: 0xA3111, size: 0x8, addend: 0x0, symName: '__ZN155_$LT$proc_macro..bridge..rpc..PanicMessage$u20$as$u20$core..convert..From$LT$alloc..boxed..Box$LT$dyn$u20$core..any..Any$u2b$core..marker..Send$GT$$GT$$GT$4from17h221bf1b045012433E', symObjAddr: 0x4944, symBinAddr: 0x5B798, symSize: 0x180 }
  - { offset: 0xA3304, size: 0x8, addend: 0x0, symName: '__ZN10proc_macro6bridge3rpc165_$LT$impl$u20$core..convert..From$LT$proc_macro..bridge..rpc..PanicMessage$GT$$u20$for$u20$alloc..boxed..Box$LT$dyn$u20$core..any..Any$u2b$core..marker..Send$GT$$GT$4from17h06ee9e8ba1997835E', symObjAddr: 0x4AC4, symBinAddr: 0x5B918, symSize: 0xE8 }
  - { offset: 0xA3928, size: 0x8, addend: 0x0, symName: '__ZN10proc_macro6bridge107_$LT$impl$u20$proc_macro..bridge..rpc..DecodeMut$LT$S$GT$$u20$for$u20$core..result..Result$LT$T$C$E$GT$$GT$6decode17h1eff07ca79ef9e3fE', symObjAddr: 0x220C4, symBinAddr: 0x78F18, symSize: 0xFC }
  - { offset: 0xA3AB4, size: 0x8, addend: 0x0, symName: '__ZN10proc_macro6bridge107_$LT$impl$u20$proc_macro..bridge..rpc..DecodeMut$LT$S$GT$$u20$for$u20$core..result..Result$LT$T$C$E$GT$$GT$6decode17h53fc671fc3ec5bf6E', symObjAddr: 0x221C0, symBinAddr: 0x79014, symSize: 0x13C }
  - { offset: 0xA3CEA, size: 0x8, addend: 0x0, symName: '__ZN10proc_macro6bridge107_$LT$impl$u20$proc_macro..bridge..rpc..DecodeMut$LT$S$GT$$u20$for$u20$core..result..Result$LT$T$C$E$GT$$GT$6decode17h9556fca4a1f9cd67E', symObjAddr: 0x222FC, symBinAddr: 0x79150, symSize: 0x138 }
  - { offset: 0xA3ECB, size: 0x8, addend: 0x0, symName: '__ZN10proc_macro6bridge107_$LT$impl$u20$proc_macro..bridge..rpc..DecodeMut$LT$S$GT$$u20$for$u20$core..result..Result$LT$T$C$E$GT$$GT$6decode17ha253651f739d0f53E', symObjAddr: 0x22434, symBinAddr: 0x79288, symSize: 0x104 }
  - { offset: 0xA3FFD, size: 0x8, addend: 0x0, symName: '__ZN10proc_macro6bridge107_$LT$impl$u20$proc_macro..bridge..rpc..DecodeMut$LT$S$GT$$u20$for$u20$core..result..Result$LT$T$C$E$GT$$GT$6decode17hc35c76475c26aee5E', symObjAddr: 0x22538, symBinAddr: 0x7938C, symSize: 0xE8 }
  - { offset: 0xA416E, size: 0x8, addend: 0x0, symName: __ZN10proc_macro6bridge6server22RunningSameThreadGuard3new17h4216d44c843c2824E, symObjAddr: 0x4BAC, symBinAddr: 0x5BA00, symSize: 0x64 }
  - { offset: 0xA424F, size: 0x8, addend: 0x0, symName: '__ZN92_$LT$proc_macro..bridge..server..RunningSameThreadGuard$u20$as$u20$core..ops..drop..Drop$GT$4drop17h28e0c44f183c8259E', symObjAddr: 0x4C10, symBinAddr: 0x5BA64, symSize: 0x24 }
  - { offset: 0xA435C, size: 0x8, addend: 0x0, symName: '__ZN10proc_macro6bridge103_$LT$impl$u20$proc_macro..bridge..rpc..DecodeMut$LT$S$GT$$u20$for$u20$core..option..Option$LT$T$GT$$GT$6decode17hd5c88443684bc83dE', symObjAddr: 0x21FD0, symBinAddr: 0x78E24, symSize: 0xF4 }
  - { offset: 0xA45B7, size: 0x8, addend: 0x0, symName: '__ZN10proc_macro6bridge100_$LT$impl$u20$proc_macro..bridge..rpc..Encode$LT$S$GT$$u20$for$u20$core..option..Option$LT$T$GT$$GT$6encode17h1ec0de485cb34fa9E', symObjAddr: 0x21DF8, symBinAddr: 0x78C4C, symSize: 0x1D8 }
  - { offset: 0xA49D2, size: 0x8, addend: 0x0, symName: '__ZN97_$LT$proc_macro..bridge..api_tags..Method$u20$as$u20$proc_macro..bridge..rpc..Encode$LT$S$GT$$GT$6encode17h39a1fd7d37702b72E', symObjAddr: 0x20DBC, symBinAddr: 0x77C10, symSize: 0xC3C }
  - { offset: 0xA5541, size: 0x8, addend: 0x0, symName: '__ZN64_$LT$proc_macro..bridge..LitKind$u20$as$u20$core..fmt..Debug$GT$3fmt17h75156b0e0c057f2dE', symObjAddr: 0x219F8, symBinAddr: 0x7884C, symSize: 0x174 }
  - { offset: 0xA5561, size: 0x8, addend: 0x0, symName: '__ZN10proc_macro6bridge103_$LT$impl$u20$proc_macro..bridge..rpc..Encode$LT$S$GT$$u20$for$u20$core..ops..range..Bound$LT$T$GT$$GT$6encode17hb116228638604803E', symObjAddr: 0x21B6C, symBinAddr: 0x789C0, symSize: 0x28C }
  - { offset: 0xA5A01, size: 0x8, addend: 0x0, symName: '__ZN106_$LT$proc_macro..bridge..Literal$LT$Sp$C$Sy$GT$$u20$as$u20$proc_macro..bridge..rpc..DecodeMut$LT$S$GT$$GT$6decode17ha57724b2a140c3dcE', symObjAddr: 0x22620, symBinAddr: 0x79474, symSize: 0x188 }
  - { offset: 0xA5D23, size: 0x8, addend: 0x0, symName: '__ZN125_$LT$proc_macro..bridge..TokenTree$LT$TokenStream$C$Span$C$Symbol$GT$$u20$as$u20$proc_macro..bridge..rpc..Encode$LT$S$GT$$GT$6encode17hdd6d53b1bbee7d83E', symObjAddr: 0x227A8, symBinAddr: 0x795FC, symSize: 0x12D4 }
  - { offset: 0xA8052, size: 0x8, addend: 0x0, symName: '__ZN103_$LT$proc_macro..bridge..Diagnostic$LT$Span$GT$$u20$as$u20$proc_macro..bridge..rpc..Encode$LT$S$GT$$GT$6encode17h1a11e91b196fda97E', symObjAddr: 0x23A7C, symBinAddr: 0x7A8D0, symSize: 0x71C }
  - { offset: 0xA8FB5, size: 0x8, addend: 0x0, symName: '__ZN70_$LT$proc_macro..Span$u20$as$u20$proc_macro..diagnostic..MultiSpan$GT$10into_spans17hea49b1a4e81c0e00E', symObjAddr: 0x6234, symBinAddr: 0x5D088, symSize: 0x58 }
  - { offset: 0xA9075, size: 0x8, addend: 0x0, symName: '__ZN84_$LT$$RF$$u5b$proc_macro..Span$u5d$$u20$as$u20$proc_macro..diagnostic..MultiSpan$GT$10into_spans17h0e7cc79757bc2284E', symObjAddr: 0x628C, symBinAddr: 0x5D0E0, symSize: 0xB0 }
  - { offset: 0xA922C, size: 0x8, addend: 0x0, symName: '__ZN91_$LT$proc_macro..diagnostic..Children$u20$as$u20$core..iter..traits..iterator..Iterator$GT$4next17hf6121875b1f849c9E', symObjAddr: 0x633C, symBinAddr: 0x5D190, symSize: 0x30 }
  - { offset: 0xA92A0, size: 0x8, addend: 0x0, symName: __ZN10proc_macro10diagnostic10Diagnostic4emit17hd8ce04abcc2751f4E, symObjAddr: 0x636C, symBinAddr: 0x5D1C0, symSize: 0x2C0 }
  - { offset: 0xA97A0, size: 0x8, addend: 0x0, symName: __ZN10proc_macro10diagnostic10Diagnostic4emit11to_internal17h47d997076852ba36E, symObjAddr: 0x662C, symBinAddr: 0x5D480, symSize: 0x1B0 }
  - { offset: 0xA9C81, size: 0x8, addend: 0x0, symName: __ZN10proc_macro6escape12escape_bytes17h50a7e7d38f60229cE, symObjAddr: 0x67DC, symBinAddr: 0x5D630, symSize: 0x900 }
  - { offset: 0xAAD49, size: 0x8, addend: 0x0, symName: __ZN10proc_macro12is_available17ha50352f00472b7f9E, symObjAddr: 0x70DC, symBinAddr: 0x5DF30, symSize: 0x2C }
  - { offset: 0xAADFB, size: 0x8, addend: 0x0, symName: '__ZN59_$LT$proc_macro..LexError$u20$as$u20$core..fmt..Display$GT$3fmt17h4f41e6cf569bf8ddE', symObjAddr: 0x7108, symBinAddr: 0x5DF5C, symSize: 0x20 }
  - { offset: 0xAAE1A, size: 0x8, addend: 0x0, symName: '__ZN62_$LT$proc_macro..ExpandError$u20$as$u20$core..fmt..Display$GT$3fmt17h20e0adaaec6a27faE', symObjAddr: 0x7128, symBinAddr: 0x5DF7C, symSize: 0x20 }
  - { offset: 0xAAE51, size: 0x8, addend: 0x0, symName: __ZN10proc_macro11TokenStream8is_empty17hfc0410b082d81324E, symObjAddr: 0x7148, symBinAddr: 0x5DF9C, symSize: 0x284 }
  - { offset: 0xAB411, size: 0x8, addend: 0x0, symName: __ZN10proc_macro11TokenStream11expand_expr17h6bbebee4a896ba06E, symObjAddr: 0x73CC, symBinAddr: 0x5E220, symSize: 0x364 }
  - { offset: 0xABADC, size: 0x8, addend: 0x0, symName: '__ZN70_$LT$proc_macro..TokenStream$u20$as$u20$core..str..traits..FromStr$GT$8from_str17h12e41caf1263fd67E', symObjAddr: 0x7730, symBinAddr: 0x5E584, symSize: 0x308 }
  - { offset: 0xAC1F7, size: 0x8, addend: 0x0, symName: '__ZN67_$LT$proc_macro..TokenStream$u20$as$u20$alloc..string..ToString$GT$9to_string17h4ad7f6adfb8e9f1fE', symObjAddr: 0x7A38, symBinAddr: 0x5E88C, symSize: 0x284 }
  - { offset: 0xAC7FD, size: 0x8, addend: 0x0, symName: '__ZN62_$LT$proc_macro..TokenStream$u20$as$u20$core..fmt..Display$GT$3fmt17hac776cc5996cf7ecE', symObjAddr: 0x7CBC, symBinAddr: 0x5EB10, symSize: 0x78 }
  - { offset: 0xACA5E, size: 0x8, addend: 0x0, symName: '__ZN93_$LT$proc_macro..token_stream..IntoIter$u20$as$u20$core..iter..traits..iterator..Iterator$GT$4next17he18bf6fd86330db8E', symObjAddr: 0x87E8, symBinAddr: 0x5F63C, symSize: 0xB4 }
  - { offset: 0xACA75, size: 0x8, addend: 0x0, symName: '__ZN93_$LT$proc_macro..token_stream..IntoIter$u20$as$u20$core..iter..traits..iterator..Iterator$GT$4next17he18bf6fd86330db8E', symObjAddr: 0x87E8, symBinAddr: 0x5F63C, symSize: 0xB4 }
  - { offset: 0xACAFD, size: 0x8, addend: 0x0, symName: '__ZN93_$LT$proc_macro..token_stream..IntoIter$u20$as$u20$core..iter..traits..iterator..Iterator$GT$9size_hint17h254f27fa1e84ea2aE', symObjAddr: 0x889C, symBinAddr: 0x5F6F0, symSize: 0x38 }
  - { offset: 0xACB58, size: 0x8, addend: 0x0, symName: '__ZN93_$LT$proc_macro..token_stream..IntoIter$u20$as$u20$core..iter..traits..iterator..Iterator$GT$5count17h1b74b52eb20c0b15E', symObjAddr: 0x88D4, symBinAddr: 0x5F728, symSize: 0x3C }
  - { offset: 0xACBF7, size: 0x8, addend: 0x0, symName: '__ZN10proc_macro12token_stream95_$LT$impl$u20$core..iter..traits..collect..IntoIterator$u20$for$u20$proc_macro..TokenStream$GT$9into_iter17hdbcca16b7579337fE', symObjAddr: 0x8910, symBinAddr: 0x5F764, symSize: 0x850 }
  - { offset: 0xAE1EB, size: 0x8, addend: 0x0, symName: '__ZN60_$LT$proc_macro..TokenStream$u20$as$u20$core..fmt..Debug$GT$3fmt17h4f01b17bc0d85c32E', symObjAddr: 0x7D34, symBinAddr: 0x5EB88, symSize: 0x210 }
  - { offset: 0xAE50E, size: 0x8, addend: 0x0, symName: '__ZN92_$LT$proc_macro..TokenStream$u20$as$u20$core..convert..From$LT$proc_macro..TokenTree$GT$$GT$4from17h3d4fd27dcc55c183E', symObjAddr: 0x7F44, symBinAddr: 0x5ED98, symSize: 0x308 }
  - { offset: 0xAEB5C, size: 0x8, addend: 0x0, symName: __ZN10proc_macro17ConcatTreesHelper3new17h1d0890c1111eda17E, symObjAddr: 0x824C, symBinAddr: 0x5F0A0, symSize: 0x90 }
  - { offset: 0xAEC9E, size: 0x8, addend: 0x0, symName: __ZN10proc_macro17ConcatTreesHelper4push17h4892352d969ba411E, symObjAddr: 0x82DC, symBinAddr: 0x5F130, symSize: 0x164 }
  - { offset: 0xAEE5D, size: 0x8, addend: 0x0, symName: __ZN10proc_macro17ConcatTreesHelper5build17hb8f126a83595014bE, symObjAddr: 0x8440, symBinAddr: 0x5F294, symSize: 0x30 }
  - { offset: 0xAEE9C, size: 0x8, addend: 0x0, symName: __ZN10proc_macro17ConcatTreesHelper9append_to17ha3e549f161f12615E, symObjAddr: 0x8470, symBinAddr: 0x5F2C4, symSize: 0x44 }
  - { offset: 0xAEF79, size: 0x8, addend: 0x0, symName: __ZN10proc_macro19ConcatStreamsHelper3new17h5942148012f4a396E, symObjAddr: 0x84B4, symBinAddr: 0x5F308, symSize: 0x84 }
  - { offset: 0xAF0BB, size: 0x8, addend: 0x0, symName: __ZN10proc_macro19ConcatStreamsHelper4push17he65ece89b404b516E, symObjAddr: 0x8538, symBinAddr: 0x5F38C, symSize: 0x80 }
  - { offset: 0xAF21F, size: 0x8, addend: 0x0, symName: __ZN10proc_macro19ConcatStreamsHelper5build17hce9468544a06d698E, symObjAddr: 0x85B8, symBinAddr: 0x5F40C, symSize: 0x58 }
  - { offset: 0xAF2CA, size: 0x8, addend: 0x0, symName: __ZN10proc_macro19ConcatStreamsHelper9append_to17hecf11cf3fe1e8c19E, symObjAddr: 0x8610, symBinAddr: 0x5F464, symSize: 0x60 }
  - { offset: 0xAF2E8, size: 0x8, addend: 0x0, symName: __ZN10proc_macro19ConcatStreamsHelper9append_to17hecf11cf3fe1e8c19E, symObjAddr: 0x8610, symBinAddr: 0x5F464, symSize: 0x60 }
  - { offset: 0xAF2FD, size: 0x8, addend: 0x0, symName: __ZN10proc_macro19ConcatStreamsHelper9append_to17hecf11cf3fe1e8c19E, symObjAddr: 0x8610, symBinAddr: 0x5F464, symSize: 0x60 }
  - { offset: 0xAF460, size: 0x8, addend: 0x0, symName: '__ZN116_$LT$proc_macro..TokenStream$u20$as$u20$core..iter..traits..collect..FromIterator$LT$proc_macro..TokenStream$GT$$GT$9from_iter17h3335dcdb40ce7650E', symObjAddr: 0x8670, symBinAddr: 0x5F4C4, symSize: 0x178 }
  - { offset: 0xAF87E, size: 0x8, addend: 0x0, symName: __ZN10proc_macro4Span8def_site17hd4246a0c73e2d72fE, symObjAddr: 0x19BC0, symBinAddr: 0x70A14, symSize: 0x78 }
  - { offset: 0xAF967, size: 0x8, addend: 0x0, symName: __ZN10proc_macro4Span9call_site17h0942a7ac58109d37E, symObjAddr: 0x19C38, symBinAddr: 0x70A8C, symSize: 0x78 }
  - { offset: 0xAFA50, size: 0x8, addend: 0x0, symName: __ZN10proc_macro4Span10mixed_site17haf43d8c8526960b4E, symObjAddr: 0x19CB0, symBinAddr: 0x70B04, symSize: 0x78 }
  - { offset: 0xAFB40, size: 0x8, addend: 0x0, symName: __ZN10proc_macro4Span11source_file17hf85c4ae0e0f02621E, symObjAddr: 0x19D28, symBinAddr: 0x70B7C, symSize: 0x274 }
  - { offset: 0xB00D3, size: 0x8, addend: 0x0, symName: __ZN10proc_macro4Span6parent17he30cda04c17da65cE, symObjAddr: 0x19F9C, symBinAddr: 0x70DF0, symSize: 0x274 }
  - { offset: 0xB0666, size: 0x8, addend: 0x0, symName: __ZN10proc_macro4Span6source17h83a14d8715ce86b4E, symObjAddr: 0x1A210, symBinAddr: 0x71064, symSize: 0x274 }
  - { offset: 0xB0BF9, size: 0x8, addend: 0x0, symName: __ZN10proc_macro4Span10byte_range17hb2a33f17fa31a435E, symObjAddr: 0x1A484, symBinAddr: 0x712D8, symSize: 0x30C }
  - { offset: 0xB135C, size: 0x8, addend: 0x0, symName: __ZN10proc_macro4Span5start17h21db8c9b144a5c4dE, symObjAddr: 0x1A790, symBinAddr: 0x715E4, symSize: 0x274 }
  - { offset: 0xB18EF, size: 0x8, addend: 0x0, symName: __ZN10proc_macro4Span3end17hb6c3c83640b88b29E, symObjAddr: 0x1AA04, symBinAddr: 0x71858, symSize: 0x274 }
  - { offset: 0xB1E82, size: 0x8, addend: 0x0, symName: __ZN10proc_macro4Span4line17hf787825fdda2f016E, symObjAddr: 0x1AC78, symBinAddr: 0x71ACC, symSize: 0x264 }
  - { offset: 0xB2415, size: 0x8, addend: 0x0, symName: __ZN10proc_macro4Span6column17hcc647d2e6273376aE, symObjAddr: 0x1AEDC, symBinAddr: 0x71D30, symSize: 0x264 }
  - { offset: 0xB29A8, size: 0x8, addend: 0x0, symName: __ZN10proc_macro4Span4join17h116aa000566a6209E, symObjAddr: 0x1B140, symBinAddr: 0x71F94, symSize: 0x300 }
  - { offset: 0xB3084, size: 0x8, addend: 0x0, symName: __ZN10proc_macro4Span11resolved_at17h542caf5b2937ac6eE, symObjAddr: 0x1B440, symBinAddr: 0x72294, symSize: 0x300 }
  - { offset: 0xB3760, size: 0x8, addend: 0x0, symName: __ZN10proc_macro4Span10located_at17hf01dd5f90375a132E, symObjAddr: 0x1B740, symBinAddr: 0x72594, symSize: 0x28 }
  - { offset: 0xB377A, size: 0x8, addend: 0x0, symName: __ZN10proc_macro4Span11source_text17hb218ebdc00ddddcbE, symObjAddr: 0x1B768, symBinAddr: 0x725BC, symSize: 0x314 }
  - { offset: 0xB3D88, size: 0x8, addend: 0x0, symName: __ZN10proc_macro4Span9save_span17h79c835d748afd6b1E, symObjAddr: 0x1BA7C, symBinAddr: 0x728D0, symSize: 0x264 }
  - { offset: 0xB431B, size: 0x8, addend: 0x0, symName: __ZN10proc_macro4Span23recover_proc_macro_span17h18636c098110c949E, symObjAddr: 0x1BCE0, symBinAddr: 0x72B34, symSize: 0x274 }
  - { offset: 0xB48B4, size: 0x8, addend: 0x0, symName: __ZN10proc_macro5Ident3new17h76d649cd801c13a0E, symObjAddr: 0x1D1B4, symBinAddr: 0x74008, symSize: 0x30 }
  - { offset: 0xB48C7, size: 0x8, addend: 0x0, symName: __ZN10proc_macro5Ident7new_raw17hd970057401e6fbb9E, symObjAddr: 0x1D1E4, symBinAddr: 0x74038, symSize: 0x3C }
  - { offset: 0xB496F, size: 0x8, addend: 0x0, symName: __ZN10proc_macro5Punct3new17h136aeb666c035605E, symObjAddr: 0x1CEFC, symBinAddr: 0x73D50, symSize: 0x10C }
  - { offset: 0xB50F0, size: 0x8, addend: 0x0, symName: '__ZN10proc_macro5quote5quote28_$u7b$$u7b$closure$u7d$$u7d$17hac8b0405edd6bf59E', symObjAddr: 0xAD7C, symBinAddr: 0x61BD0, symSize: 0xE618 }
  - { offset: 0xE9A58, size: 0x8, addend: 0x0, symName: __ZN10proc_macro5quote5quote17hb1972219c2d41064E, symObjAddr: 0x9160, symBinAddr: 0x5FFB4, symSize: 0x1C1C }
  - { offset: 0xEEF8D, size: 0x8, addend: 0x0, symName: __ZN10proc_macro5quote10quote_span17h4868852220d3d0d8E, symObjAddr: 0x19394, symBinAddr: 0x701E8, symSize: 0x82C }
  - { offset: 0xF0865, size: 0x8, addend: 0x0, symName: __ZN10proc_macro5Group3new17hd7e74d554a7d2c34E, symObjAddr: 0x1CB70, symBinAddr: 0x739C4, symSize: 0xDC }
  - { offset: 0xF0A1D, size: 0x8, addend: 0x0, symName: __ZN10proc_macro5Group6stream17hb6bcb91462233384E, symObjAddr: 0x1CC4C, symBinAddr: 0x73AA0, symSize: 0x24 }
  - { offset: 0xF0AFA, size: 0x8, addend: 0x0, symName: __ZN10proc_macro7Literal14f32_unsuffixed17hae17f7b96e1b220bE, symObjAddr: 0x1D58C, symBinAddr: 0x743E0, symSize: 0x250 }
  - { offset: 0xF1045, size: 0x8, addend: 0x0, symName: __ZN10proc_macro7Literal12f32_suffixed17h844366cfffd11156E, symObjAddr: 0x1D7DC, symBinAddr: 0x74630, symSize: 0x1D4 }
  - { offset: 0xF13C9, size: 0x8, addend: 0x0, symName: __ZN10proc_macro7Literal14f64_unsuffixed17h1b07ed93d5932531E, symObjAddr: 0x1D9B0, symBinAddr: 0x74804, symSize: 0x250 }
  - { offset: 0xF1914, size: 0x8, addend: 0x0, symName: __ZN10proc_macro7Literal12f64_suffixed17h79130e1a4f798a77E, symObjAddr: 0x1DC00, symBinAddr: 0x74A54, symSize: 0x1D4 }
  - { offset: 0xF1C98, size: 0x8, addend: 0x0, symName: __ZN10proc_macro7Literal6string17ha0a7cfb5797efa45E, symObjAddr: 0x1DDD4, symBinAddr: 0x74C28, symSize: 0x100 }
  - { offset: 0xF1F99, size: 0x8, addend: 0x0, symName: __ZN10proc_macro7Literal9character17h3b6fa474d193390cE, symObjAddr: 0x1DED4, symBinAddr: 0x74D28, symSize: 0x198 }
  - { offset: 0xF22D3, size: 0x8, addend: 0x0, symName: __ZN10proc_macro7Literal14byte_character17hecbc86add0ce6833E, symObjAddr: 0x1E06C, symBinAddr: 0x74EC0, symSize: 0xF4 }
  - { offset: 0xF25D4, size: 0x8, addend: 0x0, symName: __ZN10proc_macro7Literal11byte_string17h714c243ed8aabc4cE, symObjAddr: 0x1E160, symBinAddr: 0x74FB4, symSize: 0x104 }
  - { offset: 0xF28D5, size: 0x8, addend: 0x0, symName: __ZN10proc_macro7Literal8c_string17h28169f32215cb96cE, symObjAddr: 0x1E264, symBinAddr: 0x750B8, symSize: 0x104 }
  - { offset: 0xF2C1F, size: 0x8, addend: 0x0, symName: __ZN10proc_macro7Literal11u8_suffixed17h5a70b4230a52e2a0E, symObjAddr: 0x24204, symBinAddr: 0x7B058, symSize: 0x11C }
  - { offset: 0xF2F12, size: 0x8, addend: 0x0, symName: __ZN10proc_macro7Literal12u16_suffixed17hce732aeafe00a316E, symObjAddr: 0x24320, symBinAddr: 0x7B174, symSize: 0x184 }
  - { offset: 0xF3234, size: 0x8, addend: 0x0, symName: __ZN10proc_macro7Literal12u32_suffixed17hccb2c128a9ef45dbE, symObjAddr: 0x244A4, symBinAddr: 0x7B2F8, symSize: 0x184 }
  - { offset: 0xF3556, size: 0x8, addend: 0x0, symName: __ZN10proc_macro7Literal12u64_suffixed17h21b0a449c661dd6fE, symObjAddr: 0x24628, symBinAddr: 0x7B47C, symSize: 0x184 }
  - { offset: 0xF3878, size: 0x8, addend: 0x0, symName: __ZN10proc_macro7Literal13u128_suffixed17h61295ac2a0ae685eE, symObjAddr: 0x247AC, symBinAddr: 0x7B600, symSize: 0x184 }
  - { offset: 0xF3B9A, size: 0x8, addend: 0x0, symName: __ZN10proc_macro7Literal14usize_suffixed17h64a11cd3187b6472E, symObjAddr: 0x24930, symBinAddr: 0x7B784, symSize: 0x184 }
  - { offset: 0xF3EBC, size: 0x8, addend: 0x0, symName: __ZN10proc_macro7Literal11i8_suffixed17h41367877a10d739eE, symObjAddr: 0x24AB4, symBinAddr: 0x7B908, symSize: 0x11C }
  - { offset: 0xF41AF, size: 0x8, addend: 0x0, symName: __ZN10proc_macro7Literal12i16_suffixed17h3bad14204c4c7fedE, symObjAddr: 0x24BD0, symBinAddr: 0x7BA24, symSize: 0x184 }
  - { offset: 0xF44D1, size: 0x8, addend: 0x0, symName: __ZN10proc_macro7Literal12i32_suffixed17he7911be25d2bd6beE, symObjAddr: 0x24D54, symBinAddr: 0x7BBA8, symSize: 0x184 }
  - { offset: 0xF47F3, size: 0x8, addend: 0x0, symName: __ZN10proc_macro7Literal12i64_suffixed17h670cb3c3897924b9E, symObjAddr: 0x24ED8, symBinAddr: 0x7BD2C, symSize: 0x184 }
  - { offset: 0xF4B15, size: 0x8, addend: 0x0, symName: __ZN10proc_macro7Literal13i128_suffixed17h972655b2577ae5aeE, symObjAddr: 0x2505C, symBinAddr: 0x7BEB0, symSize: 0x184 }
  - { offset: 0xF4E37, size: 0x8, addend: 0x0, symName: __ZN10proc_macro7Literal14isize_suffixed17h019c186ce5753c4fE, symObjAddr: 0x251E0, symBinAddr: 0x7C034, symSize: 0x184 }
  - { offset: 0xF5159, size: 0x8, addend: 0x0, symName: __ZN10proc_macro7Literal13u8_unsuffixed17he8f9416e70e4bfaaE, symObjAddr: 0x25364, symBinAddr: 0x7C1B8, symSize: 0xFC }
  - { offset: 0xF544C, size: 0x8, addend: 0x0, symName: __ZN10proc_macro7Literal14u16_unsuffixed17hfc9ca922d3b6088bE, symObjAddr: 0x25460, symBinAddr: 0x7C2B4, symSize: 0x170 }
  - { offset: 0xF576E, size: 0x8, addend: 0x0, symName: __ZN10proc_macro7Literal14u32_unsuffixed17hab6d7c57a384fc64E, symObjAddr: 0x255D0, symBinAddr: 0x7C424, symSize: 0x170 }
  - { offset: 0xF5A90, size: 0x8, addend: 0x0, symName: __ZN10proc_macro7Literal14u64_unsuffixed17hf49f93d2a8947f3dE, symObjAddr: 0x25740, symBinAddr: 0x7C594, symSize: 0x170 }
  - { offset: 0xF5DB2, size: 0x8, addend: 0x0, symName: __ZN10proc_macro7Literal15u128_unsuffixed17hff9d104277a9871fE, symObjAddr: 0x258B0, symBinAddr: 0x7C704, symSize: 0x170 }
  - { offset: 0xF60D4, size: 0x8, addend: 0x0, symName: __ZN10proc_macro7Literal16usize_unsuffixed17h51649fae7ace103dE, symObjAddr: 0x25A20, symBinAddr: 0x7C874, symSize: 0x170 }
  - { offset: 0xF63F6, size: 0x8, addend: 0x0, symName: __ZN10proc_macro7Literal13i8_unsuffixed17h71518c3885578a55E, symObjAddr: 0x25B90, symBinAddr: 0x7C9E4, symSize: 0xFC }
  - { offset: 0xF66E9, size: 0x8, addend: 0x0, symName: __ZN10proc_macro7Literal14i16_unsuffixed17h5e60c56469fe0a21E, symObjAddr: 0x25C8C, symBinAddr: 0x7CAE0, symSize: 0x170 }
  - { offset: 0xF6A0B, size: 0x8, addend: 0x0, symName: __ZN10proc_macro7Literal14i32_unsuffixed17ha5c8f1218377f0b2E, symObjAddr: 0x25DFC, symBinAddr: 0x7CC50, symSize: 0x170 }
  - { offset: 0xF6D2D, size: 0x8, addend: 0x0, symName: __ZN10proc_macro7Literal14i64_unsuffixed17h049b6474807f3bf1E, symObjAddr: 0x25F6C, symBinAddr: 0x7CDC0, symSize: 0x170 }
  - { offset: 0xF704F, size: 0x8, addend: 0x0, symName: __ZN10proc_macro7Literal15i128_unsuffixed17h49ff3d81bc39af3dE, symObjAddr: 0x260DC, symBinAddr: 0x7CF30, symSize: 0x170 }
  - { offset: 0xF7371, size: 0x8, addend: 0x0, symName: __ZN10proc_macro7Literal16isize_unsuffixed17h588bfc896d21126aE, symObjAddr: 0x2624C, symBinAddr: 0x7D0A0, symSize: 0x170 }
  - { offset: 0xF7699, size: 0x8, addend: 0x0, symName: '__ZN53_$LT$proc_macro..Span$u20$as$u20$core..fmt..Debug$GT$3fmt17ha855d399cccccd0aE', symObjAddr: 0x1BF54, symBinAddr: 0x72DA8, symSize: 0x10 }
  - { offset: 0xF76B9, size: 0x8, addend: 0x0, symName: __ZN10proc_macro10SourceFile4path17h4bb86e03cb5f2a37E, symObjAddr: 0x1BF64, symBinAddr: 0x72DB8, symSize: 0x270 }
  - { offset: 0xF7C4C, size: 0x8, addend: 0x0, symName: __ZN10proc_macro10SourceFile7is_real17hb21dd2eeb06acf04E, symObjAddr: 0x1C1D4, symBinAddr: 0x73028, symSize: 0x278 }
  - { offset: 0xF81E5, size: 0x8, addend: 0x0, symName: '__ZN59_$LT$proc_macro..SourceFile$u20$as$u20$core..fmt..Debug$GT$3fmt17hd54c12b1655049a7E', symObjAddr: 0x1C44C, symBinAddr: 0x732A0, symSize: 0xE0 }
  - { offset: 0xF835A, size: 0x8, addend: 0x0, symName: '__ZN63_$LT$proc_macro..SourceFile$u20$as$u20$core..cmp..PartialEq$GT$2eq17h4804af496f495906E', symObjAddr: 0x1C52C, symBinAddr: 0x73380, symSize: 0x304 }
  - { offset: 0xF8A49, size: 0x8, addend: 0x0, symName: '__ZN54_$LT$proc_macro..Punct$u20$as$u20$core..fmt..Debug$GT$3fmt17h91cd7abde84343dcE', symObjAddr: 0x1D0FC, symBinAddr: 0x73F50, symSize: 0xB8 }
  - { offset: 0xF8AAF, size: 0x8, addend: 0x0, symName: '__ZN56_$LT$proc_macro..Literal$u20$as$u20$core..fmt..Debug$GT$3fmt17h0019fa7553e1bacdE', symObjAddr: 0x1F158, symBinAddr: 0x75FAC, symSize: 0x10C }
  - { offset: 0xF8B71, size: 0x8, addend: 0x0, symName: '__ZN58_$LT$proc_macro..TokenTree$u20$as$u20$core..fmt..Debug$GT$3fmt17hd7265638b27c3026E', symObjAddr: 0x1C830, symBinAddr: 0x73684, symSize: 0x1C8 }
  - { offset: 0xF8CB2, size: 0x8, addend: 0x0, symName: '__ZN61_$LT$proc_macro..Punct$u20$as$u20$alloc..string..ToString$GT$9to_string17h3ac2aa50ced94668E', symObjAddr: 0x1D008, symBinAddr: 0x73E5C, symSize: 0x9C }
  - { offset: 0xF8E60, size: 0x8, addend: 0x0, symName: '__ZN65_$LT$proc_macro..TokenTree$u20$as$u20$alloc..string..ToString$GT$9to_string17h8309639d20805380E', symObjAddr: 0x1C9F8, symBinAddr: 0x7384C, symSize: 0x100 }
  - { offset: 0xF9013, size: 0x8, addend: 0x0, symName: '__ZN60_$LT$proc_macro..TokenTree$u20$as$u20$core..fmt..Display$GT$3fmt17hb0f4cf9148ce5911E', symObjAddr: 0x1CAF8, symBinAddr: 0x7394C, symSize: 0x78 }
  - { offset: 0xF924F, size: 0x8, addend: 0x0, symName: '__ZN61_$LT$proc_macro..Group$u20$as$u20$alloc..string..ToString$GT$9to_string17hb22c32a172b78865E', symObjAddr: 0x1CC70, symBinAddr: 0x73AC4, symSize: 0xD8 }
  - { offset: 0xF9496, size: 0x8, addend: 0x0, symName: '__ZN56_$LT$proc_macro..Group$u20$as$u20$core..fmt..Display$GT$3fmt17h097de5d7a34820ddE', symObjAddr: 0x1CD48, symBinAddr: 0x73B9C, symSize: 0x78 }
  - { offset: 0xF96AC, size: 0x8, addend: 0x0, symName: '__ZN54_$LT$proc_macro..Group$u20$as$u20$core..fmt..Debug$GT$3fmt17hc3ccadef1f65e330E', symObjAddr: 0x1CDC0, symBinAddr: 0x73C14, symSize: 0x13C }
  - { offset: 0xF98D0, size: 0x8, addend: 0x0, symName: '__ZN56_$LT$proc_macro..Punct$u20$as$u20$core..fmt..Display$GT$3fmt17hb875c4e867390550E', symObjAddr: 0x1D0A4, symBinAddr: 0x73EF8, symSize: 0x58 }
  - { offset: 0xF9943, size: 0x8, addend: 0x0, symName: '__ZN61_$LT$proc_macro..Ident$u20$as$u20$alloc..string..ToString$GT$9to_string17h38fa424a128a85e7E', symObjAddr: 0x1D220, symBinAddr: 0x74074, symSize: 0x240 }
  - { offset: 0xF9DA0, size: 0x8, addend: 0x0, symName: '__ZN56_$LT$proc_macro..Ident$u20$as$u20$core..fmt..Display$GT$3fmt17he144f77933bb1b90E', symObjAddr: 0x1D460, symBinAddr: 0x742B4, symSize: 0x58 }
  - { offset: 0xF9DD6, size: 0x8, addend: 0x0, symName: '__ZN54_$LT$proc_macro..Ident$u20$as$u20$core..fmt..Debug$GT$3fmt17h508052fd0ead6704E', symObjAddr: 0x1D4B8, symBinAddr: 0x7430C, symSize: 0xD4 }
  - { offset: 0xF9F3B, size: 0x8, addend: 0x0, symName: '__ZN63_$LT$proc_macro..Literal$u20$as$u20$alloc..string..ToString$GT$9to_string17h2de15adc1d9e15a6E', symObjAddr: 0x1EB14, symBinAddr: 0x75968, symSize: 0x344 }
  - { offset: 0xFA52F, size: 0x8, addend: 0x0, symName: '__ZN10proc_macro7Literal20with_stringify_parts28_$u7b$$u7b$closure$u7d$$u7d$17haebe5b67975fbebeE', symObjAddr: 0x1E368, symBinAddr: 0x751BC, symSize: 0x190 }
  - { offset: 0xFA5FC, size: 0x8, addend: 0x0, symName: '__ZN10proc_macro7Literal20with_stringify_parts28_$u7b$$u7b$closure$u7d$$u7d$17hc793253fa8c3f068E', symObjAddr: 0x1E4F8, symBinAddr: 0x7534C, symSize: 0x24C }
  - { offset: 0xFA83A, size: 0x8, addend: 0x0, symName: '__ZN58_$LT$proc_macro..Literal$u20$as$u20$core..fmt..Display$GT$3fmt17h15fc5ac866404d7fE', symObjAddr: 0x1EE58, symBinAddr: 0x75CAC, symSize: 0x300 }
  - { offset: 0xFAE4C, size: 0x8, addend: 0x0, symName: '__ZN66_$LT$proc_macro..Literal$u20$as$u20$core..str..traits..FromStr$GT$8from_str17hbd1bfc46d69e015aE', symObjAddr: 0x1E744, symBinAddr: 0x75598, symSize: 0x3D0 }
  - { offset: 0xFB67C, size: 0x8, addend: 0x0, symName: '__ZN58_$LT$proc_macro..Delimiter$u20$as$u20$core..fmt..Debug$GT$3fmt17h86fd5c65db32aa8eE', symObjAddr: 0x24198, symBinAddr: 0x7AFEC, symSize: 0x34 }
  - { offset: 0xFB69C, size: 0x8, addend: 0x0, symName: '__ZN56_$LT$proc_macro..Spacing$u20$as$u20$core..fmt..Debug$GT$3fmt17hb3a11c754bc3df41E', symObjAddr: 0x241CC, symBinAddr: 0x7B020, symSize: 0x38 }
  - { offset: 0xFB6E8, size: 0x8, addend: 0x0, symName: '__ZN3std3sys12thread_local6native4lazy20Storage$LT$T$C$D$GT$10initialize17h5d9c925af1bfcf36E', symObjAddr: 0x90, symBinAddr: 0x10B34C, symSize: 0x144 }
  - { offset: 0xFB875, size: 0x8, addend: 0x0, symName: __ZN3std3sys12thread_local6native4lazy7destroy17h2ce144f0b75f5ef1E, symObjAddr: 0x1D4, symBinAddr: 0x57814, symSize: 0x48 }
  - { offset: 0xFB980, size: 0x8, addend: 0x0, symName: '__ZN3std4sync4once4Once9call_once28_$u7b$$u7b$closure$u7d$$u7d$17hd321b4566364732eE', symObjAddr: 0x21C, symBinAddr: 0x5785C, symSize: 0xA8 }
  - { offset: 0xFC775, size: 0x8, addend: 0x0, symName: '__ZN5alloc7raw_vec19RawVec$LT$T$C$A$GT$8grow_one17h7c75976137859742E', symObjAddr: 0x2D50, symBinAddr: 0x5A390, symSize: 0xA0 }
  - { offset: 0xFC89D, size: 0x8, addend: 0x0, symName: '__ZN5alloc7raw_vec19RawVec$LT$T$C$A$GT$8grow_one17ha2c3affc6a40c11dE', symObjAddr: 0x2DF0, symBinAddr: 0x5A430, symSize: 0xB4 }
  - { offset: 0xFCA1D, size: 0x8, addend: 0x0, symName: '__ZN5alloc7raw_vec19RawVec$LT$T$C$A$GT$8grow_one17hadaa60a95d1d1915E', symObjAddr: 0x2EA4, symBinAddr: 0x5A4E4, symSize: 0xB4 }
  - { offset: 0xFCB9D, size: 0x8, addend: 0x0, symName: '__ZN5alloc7raw_vec19RawVec$LT$T$C$A$GT$8grow_one17hfb4cf4d816097670E', symObjAddr: 0x2F58, symBinAddr: 0x5A598, symSize: 0xCC }
  - { offset: 0xFCF33, size: 0x8, addend: 0x0, symName: __ZN5alloc7raw_vec11finish_grow17h794c8cc84893dbdeE, symObjAddr: 0x2CC8, symBinAddr: 0x5A308, symSize: 0x88 }
  - { offset: 0xFCFBE, size: 0x8, addend: 0x0, symName: '__ZN5alloc7raw_vec20RawVecInner$LT$A$GT$7reserve21do_reserve_and_handle17h10b432c354ee92f4E', symObjAddr: 0x3024, symBinAddr: 0x10B490, symSize: 0xA0 }
  - { offset: 0xFD8DC, size: 0x8, addend: 0x0, symName: __ZN5alloc6string6String4push17h76c5e5355fc7a650E, symObjAddr: 0x2B88, symBinAddr: 0x5A1C8, symSize: 0x140 }
  - { offset: 0xFDD04, size: 0x8, addend: 0x0, symName: '__ZN46_$LT$i8$u20$as$u20$alloc..string..ToString$GT$9to_string17h542bf6d0655a2986E', symObjAddr: 0x3B4, symBinAddr: 0x579F4, symSize: 0x120 }
  - { offset: 0xFDF3B, size: 0x8, addend: 0x0, symName: '__ZN46_$LT$u8$u20$as$u20$alloc..string..ToString$GT$9to_string17hc504dddfa0598867E', symObjAddr: 0x4D4, symBinAddr: 0x57B14, symSize: 0xFC }
  - { offset: 0xFE16F, size: 0x8, addend: 0x0, symName: '__ZN58_$LT$alloc..string..String$u20$as$u20$core..fmt..Debug$GT$3fmt17hdfa762a84976360aE', symObjAddr: 0x28F8, symBinAddr: 0x59F38, symSize: 0x1C }
  - { offset: 0xFE229, size: 0x8, addend: 0x0, symName: '__ZN58_$LT$alloc..string..String$u20$as$u20$core..fmt..Write$GT$10write_char17hd93e9ff1698e117fE', symObjAddr: 0x2914, symBinAddr: 0x59F54, symSize: 0x18 }
  - { offset: 0xFE243, size: 0x8, addend: 0x0, symName: '__ZN58_$LT$alloc..string..String$u20$as$u20$core..fmt..Write$GT$9write_str17h0e58f50c5cceb6ccE', symObjAddr: 0x292C, symBinAddr: 0x59F6C, symSize: 0x78 }
  - { offset: 0xFE4EF, size: 0x8, addend: 0x0, symName: __ZN5alloc3str17join_generic_copy17h79d2583fff1de204E, symObjAddr: 0x29A4, symBinAddr: 0x59FE4, symSize: 0x1E4 }
  - { offset: 0xFF00C, size: 0x8, addend: 0x0, symName: '__ZN9hashbrown3raw21RawTable$LT$T$C$A$GT$14reserve_rehash17h352df7250c692039E', symObjAddr: 0x3190, symBinAddr: 0x10B530, symSize: 0x5F0 }
  - { offset: 0x10078F, size: 0x8, addend: 0x0, symName: __RNvXs0_Cs1BFEHwsCJmt_8num_convhNtB5_10CastSigned11cast_signed, symObjAddr: 0x0, symBinAddr: 0x7D210, symSize: 0x20 }
  - { offset: 0x1007A6, size: 0x8, addend: 0x0, symName: __RNvXs0_Cs1BFEHwsCJmt_8num_convhNtB5_10CastSigned11cast_signed, symObjAddr: 0x0, symBinAddr: 0x7D210, symSize: 0x20 }
  - { offset: 0x1007D8, size: 0x8, addend: 0x0, symName: __RNvXs1_Cs1BFEHwsCJmt_8num_convaNtB5_10CastSigned11cast_signed, symObjAddr: 0x20, symBinAddr: 0x7D230, symSize: 0x20 }
  - { offset: 0x10080A, size: 0x8, addend: 0x0, symName: __RNvXs2_Cs1BFEHwsCJmt_8num_convtNtB5_10CastSigned11cast_signed, symObjAddr: 0x40, symBinAddr: 0x7D250, symSize: 0x20 }
  - { offset: 0x10083C, size: 0x8, addend: 0x0, symName: __RNvXs3_Cs1BFEHwsCJmt_8num_convsNtB5_10CastSigned11cast_signed, symObjAddr: 0x60, symBinAddr: 0x7D270, symSize: 0x20 }
  - { offset: 0x10086E, size: 0x8, addend: 0x0, symName: __RNvXs4_Cs1BFEHwsCJmt_8num_convmNtB5_10CastSigned11cast_signed, symObjAddr: 0x80, symBinAddr: 0x7D290, symSize: 0x20 }
  - { offset: 0x1008A0, size: 0x8, addend: 0x0, symName: __RNvXs5_Cs1BFEHwsCJmt_8num_convlNtB5_10CastSigned11cast_signed, symObjAddr: 0xA0, symBinAddr: 0x7D2B0, symSize: 0x20 }
  - { offset: 0x1008D2, size: 0x8, addend: 0x0, symName: __RNvXs6_Cs1BFEHwsCJmt_8num_convyNtB5_10CastSigned11cast_signed, symObjAddr: 0xC0, symBinAddr: 0x7D2D0, symSize: 0x20 }
  - { offset: 0x100904, size: 0x8, addend: 0x0, symName: __RNvXs7_Cs1BFEHwsCJmt_8num_convxNtB5_10CastSigned11cast_signed, symObjAddr: 0xE0, symBinAddr: 0x7D2F0, symSize: 0x20 }
  - { offset: 0x100936, size: 0x8, addend: 0x0, symName: __RNvXs8_Cs1BFEHwsCJmt_8num_convoNtB5_10CastSigned11cast_signed, symObjAddr: 0x100, symBinAddr: 0x7D310, symSize: 0x28 }
  - { offset: 0x100968, size: 0x8, addend: 0x0, symName: __RNvXs9_Cs1BFEHwsCJmt_8num_convnNtB5_10CastSigned11cast_signed, symObjAddr: 0x128, symBinAddr: 0x7D338, symSize: 0x28 }
  - { offset: 0x10099A, size: 0x8, addend: 0x0, symName: __RNvXsa_Cs1BFEHwsCJmt_8num_convjNtB5_10CastSigned11cast_signed, symObjAddr: 0x150, symBinAddr: 0x7D360, symSize: 0x20 }
  - { offset: 0x1009CC, size: 0x8, addend: 0x0, symName: __RNvXsb_Cs1BFEHwsCJmt_8num_conviNtB5_10CastSigned11cast_signed, symObjAddr: 0x170, symBinAddr: 0x7D380, symSize: 0x20 }
  - { offset: 0x1009FE, size: 0x8, addend: 0x0, symName: __RNvXsc_Cs1BFEHwsCJmt_8num_convhNtB5_12CastUnsigned13cast_unsigned, symObjAddr: 0x190, symBinAddr: 0x7D3A0, symSize: 0x20 }
  - { offset: 0x100A30, size: 0x8, addend: 0x0, symName: __RNvXsd_Cs1BFEHwsCJmt_8num_convaNtB5_12CastUnsigned13cast_unsigned, symObjAddr: 0x1B0, symBinAddr: 0x7D3C0, symSize: 0x20 }
  - { offset: 0x100A62, size: 0x8, addend: 0x0, symName: __RNvXse_Cs1BFEHwsCJmt_8num_convtNtB5_12CastUnsigned13cast_unsigned, symObjAddr: 0x1D0, symBinAddr: 0x7D3E0, symSize: 0x20 }
  - { offset: 0x100A94, size: 0x8, addend: 0x0, symName: __RNvXsf_Cs1BFEHwsCJmt_8num_convsNtB5_12CastUnsigned13cast_unsigned, symObjAddr: 0x1F0, symBinAddr: 0x7D400, symSize: 0x20 }
  - { offset: 0x100AC6, size: 0x8, addend: 0x0, symName: __RNvXsg_Cs1BFEHwsCJmt_8num_convmNtB5_12CastUnsigned13cast_unsigned, symObjAddr: 0x210, symBinAddr: 0x7D420, symSize: 0x20 }
  - { offset: 0x100AF8, size: 0x8, addend: 0x0, symName: __RNvXsh_Cs1BFEHwsCJmt_8num_convlNtB5_12CastUnsigned13cast_unsigned, symObjAddr: 0x230, symBinAddr: 0x7D440, symSize: 0x20 }
  - { offset: 0x100B2A, size: 0x8, addend: 0x0, symName: __RNvXsi_Cs1BFEHwsCJmt_8num_convyNtB5_12CastUnsigned13cast_unsigned, symObjAddr: 0x250, symBinAddr: 0x7D460, symSize: 0x20 }
  - { offset: 0x100B5C, size: 0x8, addend: 0x0, symName: __RNvXsj_Cs1BFEHwsCJmt_8num_convxNtB5_12CastUnsigned13cast_unsigned, symObjAddr: 0x270, symBinAddr: 0x7D480, symSize: 0x20 }
  - { offset: 0x100B8E, size: 0x8, addend: 0x0, symName: __RNvXsk_Cs1BFEHwsCJmt_8num_convoNtB5_12CastUnsigned13cast_unsigned, symObjAddr: 0x290, symBinAddr: 0x7D4A0, symSize: 0x28 }
  - { offset: 0x100BC0, size: 0x8, addend: 0x0, symName: __RNvXsl_Cs1BFEHwsCJmt_8num_convnNtB5_12CastUnsigned13cast_unsigned, symObjAddr: 0x2B8, symBinAddr: 0x7D4C8, symSize: 0x28 }
  - { offset: 0x100BF2, size: 0x8, addend: 0x0, symName: __RNvXsm_Cs1BFEHwsCJmt_8num_convjNtB5_12CastUnsigned13cast_unsigned, symObjAddr: 0x2E0, symBinAddr: 0x7D4F0, symSize: 0x20 }
  - { offset: 0x100C24, size: 0x8, addend: 0x0, symName: __RNvXsn_Cs1BFEHwsCJmt_8num_conviNtB5_12CastUnsigned13cast_unsigned, symObjAddr: 0x300, symBinAddr: 0x7D510, symSize: 0x20 }
  - { offset: 0x100C56, size: 0x8, addend: 0x0, symName: __RNvXso_Cs1BFEHwsCJmt_8num_convhINtNtB5_6sealed18ExtendTargetSealedhE6extend, symObjAddr: 0x320, symBinAddr: 0x7D530, symSize: 0x20 }
  - { offset: 0x100C88, size: 0x8, addend: 0x0, symName: __RNvXsq_Cs1BFEHwsCJmt_8num_convhINtNtB5_6sealed18ExtendTargetSealedtE6extend, symObjAddr: 0x340, symBinAddr: 0x7D550, symSize: 0x24 }
  - { offset: 0x100CBA, size: 0x8, addend: 0x0, symName: __RNvXss_Cs1BFEHwsCJmt_8num_convhINtNtB5_6sealed18ExtendTargetSealedmE6extend, symObjAddr: 0x364, symBinAddr: 0x7D574, symSize: 0x24 }
  - { offset: 0x100CEC, size: 0x8, addend: 0x0, symName: __RNvXsu_Cs1BFEHwsCJmt_8num_convhINtNtB5_6sealed18ExtendTargetSealedyE6extend, symObjAddr: 0x388, symBinAddr: 0x7D598, symSize: 0x28 }
  - { offset: 0x100D1E, size: 0x8, addend: 0x0, symName: __RNvXsw_Cs1BFEHwsCJmt_8num_convhINtNtB5_6sealed18ExtendTargetSealedoE6extend, symObjAddr: 0x3B0, symBinAddr: 0x7D5C0, symSize: 0x34 }
  - { offset: 0x100D50, size: 0x8, addend: 0x0, symName: __RNvXsy_Cs1BFEHwsCJmt_8num_convhINtNtB5_6sealed18ExtendTargetSealedjE6extend, symObjAddr: 0x3E4, symBinAddr: 0x7D5F4, symSize: 0x28 }
  - { offset: 0x100D82, size: 0x8, addend: 0x0, symName: __RNvXsA_Cs1BFEHwsCJmt_8num_convtINtNtB5_6sealed18ExtendTargetSealedtE6extend, symObjAddr: 0x40C, symBinAddr: 0x7D61C, symSize: 0x20 }
  - { offset: 0x100DB4, size: 0x8, addend: 0x0, symName: __RNvXsC_Cs1BFEHwsCJmt_8num_convtINtNtB5_6sealed18ExtendTargetSealedmE6extend, symObjAddr: 0x42C, symBinAddr: 0x7D63C, symSize: 0x24 }
  - { offset: 0x100DE6, size: 0x8, addend: 0x0, symName: __RNvXsE_Cs1BFEHwsCJmt_8num_convtINtNtB5_6sealed18ExtendTargetSealedyE6extend, symObjAddr: 0x450, symBinAddr: 0x7D660, symSize: 0x28 }
  - { offset: 0x100E18, size: 0x8, addend: 0x0, symName: __RNvXsG_Cs1BFEHwsCJmt_8num_convtINtNtB5_6sealed18ExtendTargetSealedoE6extend, symObjAddr: 0x478, symBinAddr: 0x7D688, symSize: 0x34 }
  - { offset: 0x100E4A, size: 0x8, addend: 0x0, symName: __RNvXsI_Cs1BFEHwsCJmt_8num_convtINtNtB5_6sealed18ExtendTargetSealedjE6extend, symObjAddr: 0x4AC, symBinAddr: 0x7D6BC, symSize: 0x28 }
  - { offset: 0x100E7C, size: 0x8, addend: 0x0, symName: __RNvXsK_Cs1BFEHwsCJmt_8num_convmINtNtB5_6sealed18ExtendTargetSealedmE6extend, symObjAddr: 0x4D4, symBinAddr: 0x7D6E4, symSize: 0x20 }
  - { offset: 0x100EAE, size: 0x8, addend: 0x0, symName: __RNvXsM_Cs1BFEHwsCJmt_8num_convmINtNtB5_6sealed18ExtendTargetSealedyE6extend, symObjAddr: 0x4F4, symBinAddr: 0x7D704, symSize: 0x28 }
  - { offset: 0x100EE0, size: 0x8, addend: 0x0, symName: __RNvXsO_Cs1BFEHwsCJmt_8num_convmINtNtB5_6sealed18ExtendTargetSealedoE6extend, symObjAddr: 0x51C, symBinAddr: 0x7D72C, symSize: 0x2C }
  - { offset: 0x100F12, size: 0x8, addend: 0x0, symName: __RNvXsQ_Cs1BFEHwsCJmt_8num_convyINtNtB5_6sealed18ExtendTargetSealedyE6extend, symObjAddr: 0x548, symBinAddr: 0x7D758, symSize: 0x20 }
  - { offset: 0x100F44, size: 0x8, addend: 0x0, symName: __RNvXsS_Cs1BFEHwsCJmt_8num_convyINtNtB5_6sealed18ExtendTargetSealedoE6extend, symObjAddr: 0x568, symBinAddr: 0x7D778, symSize: 0x24 }
  - { offset: 0x100F76, size: 0x8, addend: 0x0, symName: __RNvXsU_Cs1BFEHwsCJmt_8num_convoINtNtB5_6sealed18ExtendTargetSealedoE6extend, symObjAddr: 0x58C, symBinAddr: 0x7D79C, symSize: 0x28 }
  - { offset: 0x100FA8, size: 0x8, addend: 0x0, symName: __RNvXsW_Cs1BFEHwsCJmt_8num_convjINtNtB5_6sealed18ExtendTargetSealedjE6extend, symObjAddr: 0x5B4, symBinAddr: 0x7D7C4, symSize: 0x20 }
  - { offset: 0x100FDA, size: 0x8, addend: 0x0, symName: __RNvXsY_Cs1BFEHwsCJmt_8num_convaINtNtB5_6sealed18ExtendTargetSealedaE6extend, symObjAddr: 0x5D4, symBinAddr: 0x7D7E4, symSize: 0x20 }
  - { offset: 0x10100C, size: 0x8, addend: 0x0, symName: __RNvXs10_Cs1BFEHwsCJmt_8num_convaINtNtB6_6sealed18ExtendTargetSealedsE6extend, symObjAddr: 0x5F4, symBinAddr: 0x7D804, symSize: 0x24 }
  - { offset: 0x10103E, size: 0x8, addend: 0x0, symName: __RNvXs12_Cs1BFEHwsCJmt_8num_convaINtNtB6_6sealed18ExtendTargetSealedlE6extend, symObjAddr: 0x618, symBinAddr: 0x7D828, symSize: 0x24 }
  - { offset: 0x101070, size: 0x8, addend: 0x0, symName: __RNvXs14_Cs1BFEHwsCJmt_8num_convaINtNtB6_6sealed18ExtendTargetSealedxE6extend, symObjAddr: 0x63C, symBinAddr: 0x7D84C, symSize: 0x28 }
  - { offset: 0x1010A2, size: 0x8, addend: 0x0, symName: __RNvXs16_Cs1BFEHwsCJmt_8num_convaINtNtB6_6sealed18ExtendTargetSealednE6extend, symObjAddr: 0x664, symBinAddr: 0x7D874, symSize: 0x30 }
  - { offset: 0x1010D4, size: 0x8, addend: 0x0, symName: __RNvXs18_Cs1BFEHwsCJmt_8num_convaINtNtB6_6sealed18ExtendTargetSealediE6extend, symObjAddr: 0x694, symBinAddr: 0x7D8A4, symSize: 0x28 }
  - { offset: 0x101106, size: 0x8, addend: 0x0, symName: __RNvXs1a_Cs1BFEHwsCJmt_8num_convsINtNtB6_6sealed18ExtendTargetSealedsE6extend, symObjAddr: 0x6BC, symBinAddr: 0x7D8CC, symSize: 0x20 }
  - { offset: 0x101138, size: 0x8, addend: 0x0, symName: __RNvXs1c_Cs1BFEHwsCJmt_8num_convsINtNtB6_6sealed18ExtendTargetSealedlE6extend, symObjAddr: 0x6DC, symBinAddr: 0x7D8EC, symSize: 0x24 }
  - { offset: 0x10116A, size: 0x8, addend: 0x0, symName: __RNvXs1e_Cs1BFEHwsCJmt_8num_convsINtNtB6_6sealed18ExtendTargetSealedxE6extend, symObjAddr: 0x700, symBinAddr: 0x7D910, symSize: 0x28 }
  - { offset: 0x10119C, size: 0x8, addend: 0x0, symName: __RNvXs1g_Cs1BFEHwsCJmt_8num_convsINtNtB6_6sealed18ExtendTargetSealednE6extend, symObjAddr: 0x728, symBinAddr: 0x7D938, symSize: 0x30 }
  - { offset: 0x1011CE, size: 0x8, addend: 0x0, symName: __RNvXs1i_Cs1BFEHwsCJmt_8num_convsINtNtB6_6sealed18ExtendTargetSealediE6extend, symObjAddr: 0x758, symBinAddr: 0x7D968, symSize: 0x28 }
  - { offset: 0x101200, size: 0x8, addend: 0x0, symName: __RNvXs1k_Cs1BFEHwsCJmt_8num_convlINtNtB6_6sealed18ExtendTargetSealedlE6extend, symObjAddr: 0x780, symBinAddr: 0x7D990, symSize: 0x20 }
  - { offset: 0x101232, size: 0x8, addend: 0x0, symName: __RNvXs1m_Cs1BFEHwsCJmt_8num_convlINtNtB6_6sealed18ExtendTargetSealedxE6extend, symObjAddr: 0x7A0, symBinAddr: 0x7D9B0, symSize: 0x28 }
  - { offset: 0x101264, size: 0x8, addend: 0x0, symName: __RNvXs1o_Cs1BFEHwsCJmt_8num_convlINtNtB6_6sealed18ExtendTargetSealednE6extend, symObjAddr: 0x7C8, symBinAddr: 0x7D9D8, symSize: 0x34 }
  - { offset: 0x101296, size: 0x8, addend: 0x0, symName: __RNvXs1q_Cs1BFEHwsCJmt_8num_convxINtNtB6_6sealed18ExtendTargetSealedxE6extend, symObjAddr: 0x7FC, symBinAddr: 0x7DA0C, symSize: 0x20 }
  - { offset: 0x1012C8, size: 0x8, addend: 0x0, symName: __RNvXs1s_Cs1BFEHwsCJmt_8num_convxINtNtB6_6sealed18ExtendTargetSealednE6extend, symObjAddr: 0x81C, symBinAddr: 0x7DA2C, symSize: 0x24 }
  - { offset: 0x1012FA, size: 0x8, addend: 0x0, symName: __RNvXs1u_Cs1BFEHwsCJmt_8num_convnINtNtB6_6sealed18ExtendTargetSealednE6extend, symObjAddr: 0x840, symBinAddr: 0x7DA50, symSize: 0x28 }
  - { offset: 0x10132C, size: 0x8, addend: 0x0, symName: __RNvXs1w_Cs1BFEHwsCJmt_8num_conviINtNtB6_6sealed18ExtendTargetSealediE6extend, symObjAddr: 0x868, symBinAddr: 0x7DA78, symSize: 0x20 }
  - { offset: 0x10135E, size: 0x8, addend: 0x0, symName: __RNvXs1y_Cs1BFEHwsCJmt_8num_convhINtNtB6_6sealed20TruncateTargetSealedhE8truncate, symObjAddr: 0x888, symBinAddr: 0x7DA98, symSize: 0x20 }
  - { offset: 0x101392, size: 0x8, addend: 0x0, symName: __RNvXs1A_Cs1BFEHwsCJmt_8num_convtINtNtB6_6sealed20TruncateTargetSealedhE8truncate, symObjAddr: 0x8A8, symBinAddr: 0x7DAB8, symSize: 0x20 }
  - { offset: 0x1013C6, size: 0x8, addend: 0x0, symName: __RNvXs1C_Cs1BFEHwsCJmt_8num_convmINtNtB6_6sealed20TruncateTargetSealedhE8truncate, symObjAddr: 0x8C8, symBinAddr: 0x7DAD8, symSize: 0x20 }
  - { offset: 0x1013FA, size: 0x8, addend: 0x0, symName: __RNvXs1E_Cs1BFEHwsCJmt_8num_convyINtNtB6_6sealed20TruncateTargetSealedhE8truncate, symObjAddr: 0x8E8, symBinAddr: 0x7DAF8, symSize: 0x20 }
  - { offset: 0x10142E, size: 0x8, addend: 0x0, symName: __RNvXs1G_Cs1BFEHwsCJmt_8num_convoINtNtB6_6sealed20TruncateTargetSealedhE8truncate, symObjAddr: 0x908, symBinAddr: 0x7DB18, symSize: 0x28 }
  - { offset: 0x101462, size: 0x8, addend: 0x0, symName: __RNvXs1I_Cs1BFEHwsCJmt_8num_convjINtNtB6_6sealed20TruncateTargetSealedhE8truncate, symObjAddr: 0x930, symBinAddr: 0x7DB40, symSize: 0x20 }
  - { offset: 0x101496, size: 0x8, addend: 0x0, symName: __RNvXs1K_Cs1BFEHwsCJmt_8num_convtINtNtB6_6sealed20TruncateTargetSealedtE8truncate, symObjAddr: 0x950, symBinAddr: 0x7DB60, symSize: 0x20 }
  - { offset: 0x1014CA, size: 0x8, addend: 0x0, symName: __RNvXs1M_Cs1BFEHwsCJmt_8num_convmINtNtB6_6sealed20TruncateTargetSealedtE8truncate, symObjAddr: 0x970, symBinAddr: 0x7DB80, symSize: 0x20 }
  - { offset: 0x1014FE, size: 0x8, addend: 0x0, symName: __RNvXs1O_Cs1BFEHwsCJmt_8num_convyINtNtB6_6sealed20TruncateTargetSealedtE8truncate, symObjAddr: 0x990, symBinAddr: 0x7DBA0, symSize: 0x20 }
  - { offset: 0x101532, size: 0x8, addend: 0x0, symName: __RNvXs1Q_Cs1BFEHwsCJmt_8num_convoINtNtB6_6sealed20TruncateTargetSealedtE8truncate, symObjAddr: 0x9B0, symBinAddr: 0x7DBC0, symSize: 0x28 }
  - { offset: 0x101566, size: 0x8, addend: 0x0, symName: __RNvXs1S_Cs1BFEHwsCJmt_8num_convjINtNtB6_6sealed20TruncateTargetSealedtE8truncate, symObjAddr: 0x9D8, symBinAddr: 0x7DBE8, symSize: 0x20 }
  - { offset: 0x10159A, size: 0x8, addend: 0x0, symName: __RNvXs1U_Cs1BFEHwsCJmt_8num_convmINtNtB6_6sealed20TruncateTargetSealedmE8truncate, symObjAddr: 0x9F8, symBinAddr: 0x7DC08, symSize: 0x20 }
  - { offset: 0x1015CE, size: 0x8, addend: 0x0, symName: __RNvXs1W_Cs1BFEHwsCJmt_8num_convyINtNtB6_6sealed20TruncateTargetSealedmE8truncate, symObjAddr: 0xA18, symBinAddr: 0x7DC28, symSize: 0x20 }
  - { offset: 0x101602, size: 0x8, addend: 0x0, symName: __RNvXs1Y_Cs1BFEHwsCJmt_8num_convoINtNtB6_6sealed20TruncateTargetSealedmE8truncate, symObjAddr: 0xA38, symBinAddr: 0x7DC48, symSize: 0x28 }
  - { offset: 0x101636, size: 0x8, addend: 0x0, symName: __RNvXs20_Cs1BFEHwsCJmt_8num_convyINtNtB6_6sealed20TruncateTargetSealedyE8truncate, symObjAddr: 0xA60, symBinAddr: 0x7DC70, symSize: 0x20 }
  - { offset: 0x10166A, size: 0x8, addend: 0x0, symName: __RNvXs22_Cs1BFEHwsCJmt_8num_convoINtNtB6_6sealed20TruncateTargetSealedyE8truncate, symObjAddr: 0xA80, symBinAddr: 0x7DC90, symSize: 0x28 }
  - { offset: 0x10169E, size: 0x8, addend: 0x0, symName: __RNvXs24_Cs1BFEHwsCJmt_8num_convoINtNtB6_6sealed20TruncateTargetSealedoE8truncate, symObjAddr: 0xAA8, symBinAddr: 0x7DCB8, symSize: 0x28 }
  - { offset: 0x1016D2, size: 0x8, addend: 0x0, symName: __RNvXs26_Cs1BFEHwsCJmt_8num_convjINtNtB6_6sealed20TruncateTargetSealedjE8truncate, symObjAddr: 0xAD0, symBinAddr: 0x7DCE0, symSize: 0x20 }
  - { offset: 0x101706, size: 0x8, addend: 0x0, symName: __RNvXs28_Cs1BFEHwsCJmt_8num_convaINtNtB6_6sealed20TruncateTargetSealedaE8truncate, symObjAddr: 0xAF0, symBinAddr: 0x7DD00, symSize: 0x20 }
  - { offset: 0x10173A, size: 0x8, addend: 0x0, symName: __RNvXs2a_Cs1BFEHwsCJmt_8num_convsINtNtB6_6sealed20TruncateTargetSealedaE8truncate, symObjAddr: 0xB10, symBinAddr: 0x7DD20, symSize: 0x20 }
  - { offset: 0x10176E, size: 0x8, addend: 0x0, symName: __RNvXs2c_Cs1BFEHwsCJmt_8num_convlINtNtB6_6sealed20TruncateTargetSealedaE8truncate, symObjAddr: 0xB30, symBinAddr: 0x7DD40, symSize: 0x20 }
  - { offset: 0x1017A2, size: 0x8, addend: 0x0, symName: __RNvXs2e_Cs1BFEHwsCJmt_8num_convxINtNtB6_6sealed20TruncateTargetSealedaE8truncate, symObjAddr: 0xB50, symBinAddr: 0x7DD60, symSize: 0x20 }
  - { offset: 0x1017D6, size: 0x8, addend: 0x0, symName: __RNvXs2g_Cs1BFEHwsCJmt_8num_convnINtNtB6_6sealed20TruncateTargetSealedaE8truncate, symObjAddr: 0xB70, symBinAddr: 0x7DD80, symSize: 0x28 }
  - { offset: 0x10180A, size: 0x8, addend: 0x0, symName: __RNvXs2i_Cs1BFEHwsCJmt_8num_conviINtNtB6_6sealed20TruncateTargetSealedaE8truncate, symObjAddr: 0xB98, symBinAddr: 0x7DDA8, symSize: 0x20 }
  - { offset: 0x10183E, size: 0x8, addend: 0x0, symName: __RNvXs2k_Cs1BFEHwsCJmt_8num_convsINtNtB6_6sealed20TruncateTargetSealedsE8truncate, symObjAddr: 0xBB8, symBinAddr: 0x7DDC8, symSize: 0x20 }
  - { offset: 0x101872, size: 0x8, addend: 0x0, symName: __RNvXs2m_Cs1BFEHwsCJmt_8num_convlINtNtB6_6sealed20TruncateTargetSealedsE8truncate, symObjAddr: 0xBD8, symBinAddr: 0x7DDE8, symSize: 0x20 }
  - { offset: 0x1018A6, size: 0x8, addend: 0x0, symName: __RNvXs2o_Cs1BFEHwsCJmt_8num_convxINtNtB6_6sealed20TruncateTargetSealedsE8truncate, symObjAddr: 0xBF8, symBinAddr: 0x7DE08, symSize: 0x20 }
  - { offset: 0x1018DA, size: 0x8, addend: 0x0, symName: __RNvXs2q_Cs1BFEHwsCJmt_8num_convnINtNtB6_6sealed20TruncateTargetSealedsE8truncate, symObjAddr: 0xC18, symBinAddr: 0x7DE28, symSize: 0x28 }
  - { offset: 0x10190E, size: 0x8, addend: 0x0, symName: __RNvXs2s_Cs1BFEHwsCJmt_8num_conviINtNtB6_6sealed20TruncateTargetSealedsE8truncate, symObjAddr: 0xC40, symBinAddr: 0x7DE50, symSize: 0x20 }
  - { offset: 0x101942, size: 0x8, addend: 0x0, symName: __RNvXs2u_Cs1BFEHwsCJmt_8num_convlINtNtB6_6sealed20TruncateTargetSealedlE8truncate, symObjAddr: 0xC60, symBinAddr: 0x7DE70, symSize: 0x20 }
  - { offset: 0x101976, size: 0x8, addend: 0x0, symName: __RNvXs2w_Cs1BFEHwsCJmt_8num_convxINtNtB6_6sealed20TruncateTargetSealedlE8truncate, symObjAddr: 0xC80, symBinAddr: 0x7DE90, symSize: 0x20 }
  - { offset: 0x1019AA, size: 0x8, addend: 0x0, symName: __RNvXs2y_Cs1BFEHwsCJmt_8num_convnINtNtB6_6sealed20TruncateTargetSealedlE8truncate, symObjAddr: 0xCA0, symBinAddr: 0x7DEB0, symSize: 0x28 }
  - { offset: 0x1019DE, size: 0x8, addend: 0x0, symName: __RNvXs2A_Cs1BFEHwsCJmt_8num_convxINtNtB6_6sealed20TruncateTargetSealedxE8truncate, symObjAddr: 0xCC8, symBinAddr: 0x7DED8, symSize: 0x20 }
  - { offset: 0x101A12, size: 0x8, addend: 0x0, symName: __RNvXs2C_Cs1BFEHwsCJmt_8num_convnINtNtB6_6sealed20TruncateTargetSealedxE8truncate, symObjAddr: 0xCE8, symBinAddr: 0x7DEF8, symSize: 0x28 }
  - { offset: 0x101A46, size: 0x8, addend: 0x0, symName: __RNvXs2E_Cs1BFEHwsCJmt_8num_convnINtNtB6_6sealed20TruncateTargetSealednE8truncate, symObjAddr: 0xD10, symBinAddr: 0x7DF20, symSize: 0x28 }
  - { offset: 0x101A7A, size: 0x8, addend: 0x0, symName: __RNvXs2G_Cs1BFEHwsCJmt_8num_conviINtNtB6_6sealed20TruncateTargetSealediE8truncate, symObjAddr: 0xD38, symBinAddr: 0x7DF48, symSize: 0x20 }
  - { offset: 0x101B25, size: 0x8, addend: 0x0, symName: ___llvm_profile_set_timestamp, symObjAddr: 0x0, symBinAddr: 0x7DF68, symSize: 0x28 }
  - { offset: 0x101B2D, size: 0x8, addend: 0x0, symName: ___llvm_profile_global_timestamp, symObjAddr: 0x130, symBinAddr: 0x180628, symSize: 0x0 }
  - { offset: 0x101B42, size: 0x8, addend: 0x0, symName: ___llvm_profile_global_timestamp, symObjAddr: 0x130, symBinAddr: 0x180628, symSize: 0x0 }
  - { offset: 0x101BC7, size: 0x8, addend: 0x0, symName: ___llvm_profile_set_timestamp, symObjAddr: 0x0, symBinAddr: 0x7DF68, symSize: 0x28 }
  - { offset: 0x101BCF, size: 0x8, addend: 0x0, symName: ___llvm_profile_get_magic, symObjAddr: 0x28, symBinAddr: 0x7DF90, symSize: 0x14 }
  - { offset: 0x101BF4, size: 0x8, addend: 0x0, symName: ___llvm_profile_get_magic, symObjAddr: 0x28, symBinAddr: 0x7DF90, symSize: 0x14 }
  - { offset: 0x101BFC, size: 0x8, addend: 0x0, symName: ___llvm_profile_set_dumped, symObjAddr: 0x3C, symBinAddr: 0x7DFA4, symSize: 0x8 }
  - { offset: 0x101C16, size: 0x8, addend: 0x0, symName: ___llvm_profile_set_dumped, symObjAddr: 0x3C, symBinAddr: 0x7DFA4, symSize: 0x8 }
  - { offset: 0x101C1E, size: 0x8, addend: 0x0, symName: ___llvm_profile_get_num_padding_bytes, symObjAddr: 0x44, symBinAddr: 0x7DFAC, symSize: 0xC }
  - { offset: 0x101C33, size: 0x8, addend: 0x0, symName: ___llvm_profile_get_num_padding_bytes, symObjAddr: 0x44, symBinAddr: 0x7DFAC, symSize: 0xC }
  - { offset: 0x101C3B, size: 0x8, addend: 0x0, symName: ___llvm_profile_get_version, symObjAddr: 0x50, symBinAddr: 0x7DFB8, symSize: 0xC }
  - { offset: 0x101C66, size: 0x8, addend: 0x0, symName: ___llvm_profile_get_version, symObjAddr: 0x50, symBinAddr: 0x7DFB8, symSize: 0xC }
  - { offset: 0x101C6E, size: 0x8, addend: 0x0, symName: ___llvm_profile_reset_counters, symObjAddr: 0x5C, symBinAddr: 0x7DFC4, symSize: 0xD4 }
  - { offset: 0x101C8E, size: 0x8, addend: 0x0, symName: ___llvm_profile_reset_counters, symObjAddr: 0x5C, symBinAddr: 0x7DFC4, symSize: 0xD4 }
  - { offset: 0x101C96, size: 0x8, addend: 0x0, symName: ___llvm_profile_global_timestamp, symObjAddr: 0x130, symBinAddr: 0x180628, symSize: 0x0 }
  - { offset: 0x101EDE, size: 0x8, addend: 0x0, symName: ___llvm_profile_is_continuous_mode_enabled, symObjAddr: 0x0, symBinAddr: 0x7E098, symSize: 0x20 }
  - { offset: 0x101EFB, size: 0x8, addend: 0x0, symName: __MergedGlobals, symObjAddr: 0x3E20, symBinAddr: 0x19BFB8, symSize: 0x0 }
  - { offset: 0x101F1D, size: 0x8, addend: 0x0, symName: __MergedGlobals, symObjAddr: 0x3E20, symBinAddr: 0x19BFB8, symSize: 0x0 }
  - { offset: 0x101F4F, size: 0x8, addend: 0x0, symName: ___llvm_profile_is_continuous_mode_enabled, symObjAddr: 0x0, symBinAddr: 0x7E098, symSize: 0x20 }
  - { offset: 0x101F57, size: 0x8, addend: 0x0, symName: ___llvm_profile_enable_continuous_mode, symObjAddr: 0x20, symBinAddr: 0x7E0B8, symSize: 0x10 }
  - { offset: 0x101F68, size: 0x8, addend: 0x0, symName: ___llvm_profile_enable_continuous_mode, symObjAddr: 0x20, symBinAddr: 0x7E0B8, symSize: 0x10 }
  - { offset: 0x101F70, size: 0x8, addend: 0x0, symName: ___llvm_profile_disable_continuous_mode, symObjAddr: 0x30, symBinAddr: 0x7E0C8, symSize: 0xC }
  - { offset: 0x101F86, size: 0x8, addend: 0x0, symName: ___llvm_profile_disable_continuous_mode, symObjAddr: 0x30, symBinAddr: 0x7E0C8, symSize: 0xC }
  - { offset: 0x101F8E, size: 0x8, addend: 0x0, symName: ___llvm_profile_set_page_size, symObjAddr: 0x3C, symBinAddr: 0x7E0D4, symSize: 0xC }
  - { offset: 0x101FA3, size: 0x8, addend: 0x0, symName: ___llvm_profile_set_page_size, symObjAddr: 0x3C, symBinAddr: 0x7E0D4, symSize: 0xC }
  - { offset: 0x101FAB, size: 0x8, addend: 0x0, symName: ___llvm_profile_get_size_for_buffer, symObjAddr: 0x48, symBinAddr: 0x7E0E0, symSize: 0xC4 }
  - { offset: 0x101FD0, size: 0x8, addend: 0x0, symName: ___llvm_profile_get_size_for_buffer, symObjAddr: 0x48, symBinAddr: 0x7E0E0, symSize: 0xC4 }
  - { offset: 0x101FD8, size: 0x8, addend: 0x0, symName: ___llvm_profile_get_size_for_buffer_internal, symObjAddr: 0x10C, symBinAddr: 0x7E1A4, symSize: 0x1C0 }
  - { offset: 0x10245E, size: 0x8, addend: 0x0, symName: ___llvm_profile_get_size_for_buffer_internal, symObjAddr: 0x10C, symBinAddr: 0x7E1A4, symSize: 0x1C0 }
  - { offset: 0x102466, size: 0x8, addend: 0x0, symName: ___llvm_profile_get_num_data, symObjAddr: 0x2CC, symBinAddr: 0x7E364, symSize: 0x10 }
  - { offset: 0x102899, size: 0x8, addend: 0x0, symName: ___llvm_profile_get_num_data, symObjAddr: 0x2CC, symBinAddr: 0x7E364, symSize: 0x10 }
  - { offset: 0x1028A1, size: 0x8, addend: 0x0, symName: ___llvm_profile_get_data_size, symObjAddr: 0x2DC, symBinAddr: 0x7E374, symSize: 0x10 }
  - { offset: 0x1028D7, size: 0x8, addend: 0x0, symName: ___llvm_profile_get_data_size, symObjAddr: 0x2DC, symBinAddr: 0x7E374, symSize: 0x10 }
  - { offset: 0x1028DF, size: 0x8, addend: 0x0, symName: ___llvm_profile_get_num_vtable, symObjAddr: 0x2EC, symBinAddr: 0x7E384, symSize: 0x18 }
  - { offset: 0x102906, size: 0x8, addend: 0x0, symName: ___llvm_profile_get_data_size, symObjAddr: 0x2DC, symBinAddr: 0x7E374, symSize: 0x10 }
  - { offset: 0x10293D, size: 0x8, addend: 0x0, symName: ___llvm_profile_get_num_vtable, symObjAddr: 0x2EC, symBinAddr: 0x7E384, symSize: 0x18 }
  - { offset: 0x102945, size: 0x8, addend: 0x0, symName: ___llvm_profile_get_vtable_section_size, symObjAddr: 0x304, symBinAddr: 0x7E39C, symSize: 0x8 }
  - { offset: 0x10299C, size: 0x8, addend: 0x0, symName: ___llvm_profile_get_vtable_section_size, symObjAddr: 0x304, symBinAddr: 0x7E39C, symSize: 0x8 }
  - { offset: 0x1029A4, size: 0x8, addend: 0x0, symName: ___llvm_profile_counter_entry_size, symObjAddr: 0x30C, symBinAddr: 0x7E3A4, symSize: 0x1C }
  - { offset: 0x1029C8, size: 0x8, addend: 0x0, symName: ___llvm_profile_counter_entry_size, symObjAddr: 0x30C, symBinAddr: 0x7E3A4, symSize: 0x1C }
  - { offset: 0x1029D0, size: 0x8, addend: 0x0, symName: ___llvm_profile_get_num_counters, symObjAddr: 0x328, symBinAddr: 0x7E3C0, symSize: 0x48 }
  - { offset: 0x1029E1, size: 0x8, addend: 0x0, symName: ___llvm_profile_get_num_counters, symObjAddr: 0x328, symBinAddr: 0x7E3C0, symSize: 0x48 }
  - { offset: 0x1029E9, size: 0x8, addend: 0x0, symName: ___llvm_profile_get_counters_size, symObjAddr: 0x370, symBinAddr: 0x7E408, symSize: 0x5C }
  - { offset: 0x102A55, size: 0x8, addend: 0x0, symName: ___llvm_profile_get_counters_size, symObjAddr: 0x370, symBinAddr: 0x7E408, symSize: 0x5C }
  - { offset: 0x102A5D, size: 0x8, addend: 0x0, symName: ___llvm_profile_get_num_bitmap_bytes, symObjAddr: 0x3CC, symBinAddr: 0x7E464, symSize: 0x8 }
  - { offset: 0x102B0C, size: 0x8, addend: 0x0, symName: ___llvm_profile_get_num_bitmap_bytes, symObjAddr: 0x3CC, symBinAddr: 0x7E464, symSize: 0x8 }
  - { offset: 0x102B14, size: 0x8, addend: 0x0, symName: ___llvm_profile_get_name_size, symObjAddr: 0x3D4, symBinAddr: 0x7E46C, symSize: 0x8 }
  - { offset: 0x102B38, size: 0x8, addend: 0x0, symName: ___llvm_profile_get_name_size, symObjAddr: 0x3D4, symBinAddr: 0x7E46C, symSize: 0x8 }
  - { offset: 0x102B40, size: 0x8, addend: 0x0, symName: ___llvm_profile_get_padding_sizes_for_counters, symObjAddr: 0x3DC, symBinAddr: 0x7E474, symSize: 0x15C }
  - { offset: 0x102B64, size: 0x8, addend: 0x0, symName: ___llvm_profile_get_padding_sizes_for_counters, symObjAddr: 0x3DC, symBinAddr: 0x7E474, symSize: 0x15C }
  - { offset: 0x102B6C, size: 0x8, addend: 0x0, symName: _initBufferWriter, symObjAddr: 0x538, symBinAddr: 0x7E5D0, symSize: 0x10 }
  - { offset: 0x102CDB, size: 0x8, addend: 0x0, symName: _initBufferWriter, symObjAddr: 0x538, symBinAddr: 0x7E5D0, symSize: 0x10 }
  - { offset: 0x102CE3, size: 0x8, addend: 0x0, symName: ___llvm_profile_write_buffer, symObjAddr: 0x548, symBinAddr: 0x7E5E0, symSize: 0x30 }
  - { offset: 0x102DE6, size: 0x8, addend: 0x0, symName: ___llvm_profile_write_buffer, symObjAddr: 0x548, symBinAddr: 0x7E5E0, symSize: 0x30 }
  - { offset: 0x102DEE, size: 0x8, addend: 0x0, symName: ___llvm_profile_write_buffer_internal, symObjAddr: 0x578, symBinAddr: 0x7E610, symSize: 0x40 }
  - { offset: 0x102E52, size: 0x8, addend: 0x0, symName: ___llvm_profile_write_buffer_internal, symObjAddr: 0x578, symBinAddr: 0x7E610, symSize: 0x40 }
  - { offset: 0x102F63, size: 0x8, addend: 0x0, symName: _lprofCreateBufferIOInternal, symObjAddr: 0x0, symBinAddr: 0x7E650, symSize: 0x74 }
  - { offset: 0x102F90, size: 0x8, addend: 0x0, symName: ___llvm_profile_register_write_file_atexit, symObjAddr: 0xBF8, symBinAddr: 0x7F248, symSize: 0x44 }
  - { offset: 0x102F98, size: 0x8, addend: 0x0, symName: ___llvm_profile_set_filename, symObjAddr: 0xC3C, symBinAddr: 0x7F28C, symSize: 0x38 }
  - { offset: 0x102FB6, size: 0x8, addend: 0x0, symName: ___llvm_profile_register_write_file_atexit.HasBeenRegistered, symObjAddr: 0xA4E8, symBinAddr: 0x19BFC0, symSize: 0x0 }
  - { offset: 0x102FD9, size: 0x8, addend: 0x0, symName: __MergedGlobals, symObjAddr: 0xA4F0, symBinAddr: 0x19BFC8, symSize: 0x0 }
  - { offset: 0x1030FA, size: 0x8, addend: 0x0, symName: __MergedGlobals, symObjAddr: 0xA4F0, symBinAddr: 0x19BFC8, symSize: 0x0 }
  - { offset: 0x103332, size: 0x8, addend: 0x0, symName: __MergedGlobals, symObjAddr: 0xA4F0, symBinAddr: 0x19BFC8, symSize: 0x0 }
  - { offset: 0x10346B, size: 0x8, addend: 0x0, symName: _lprofCreateBufferIOInternal, symObjAddr: 0x0, symBinAddr: 0x7E650, symSize: 0x74 }
  - { offset: 0x103473, size: 0x8, addend: 0x0, symName: ___llvm_profile_get_path_prefix, symObjAddr: 0x74, symBinAddr: 0x7E6C4, symSize: 0x154 }
  - { offset: 0x1034FE, size: 0x8, addend: 0x0, symName: ___llvm_profile_get_path_prefix, symObjAddr: 0x74, symBinAddr: 0x7E6C4, symSize: 0x154 }
  - { offset: 0x103506, size: 0x8, addend: 0x0, symName: _getCurFilenameLength, symObjAddr: 0x1C8, symBinAddr: 0x7E818, symSize: 0x108 }
  - { offset: 0x103576, size: 0x8, addend: 0x0, symName: _getCurFilenameLength, symObjAddr: 0x1C8, symBinAddr: 0x7E818, symSize: 0x108 }
  - { offset: 0x10357E, size: 0x8, addend: 0x0, symName: _getCurFilename, symObjAddr: 0x2D0, symBinAddr: 0x7E920, symSize: 0x2B8 }
  - { offset: 0x1035FE, size: 0x8, addend: 0x0, symName: _getCurFilename, symObjAddr: 0x2D0, symBinAddr: 0x7E920, symSize: 0x2B8 }
  - { offset: 0x103606, size: 0x8, addend: 0x0, symName: ___llvm_profile_get_filename, symObjAddr: 0x588, symBinAddr: 0x7EBD8, symSize: 0x88 }
  - { offset: 0x103731, size: 0x8, addend: 0x0, symName: ___llvm_profile_get_filename, symObjAddr: 0x588, symBinAddr: 0x7EBD8, symSize: 0x88 }
  - { offset: 0x103739, size: 0x8, addend: 0x0, symName: ___llvm_profile_initialize_file, symObjAddr: 0x610, symBinAddr: 0x7EC60, symSize: 0x78 }
  - { offset: 0x1037A4, size: 0x8, addend: 0x0, symName: ___llvm_profile_initialize_file, symObjAddr: 0x610, symBinAddr: 0x7EC60, symSize: 0x78 }
  - { offset: 0x1037AC, size: 0x8, addend: 0x0, symName: _parseAndSetFilename, symObjAddr: 0x688, symBinAddr: 0x7ECD8, symSize: 0x4B8 }
  - { offset: 0x1038E2, size: 0x8, addend: 0x0, symName: _parseAndSetFilename, symObjAddr: 0x688, symBinAddr: 0x7ECD8, symSize: 0x4B8 }
  - { offset: 0x1038EA, size: 0x8, addend: 0x0, symName: ___llvm_profile_initialize, symObjAddr: 0xB40, symBinAddr: 0x7F190, symSize: 0xB8 }
  - { offset: 0x103ADE, size: 0x8, addend: 0x0, symName: ___llvm_profile_initialize, symObjAddr: 0xB40, symBinAddr: 0x7F190, symSize: 0xB8 }
  - { offset: 0x103AE6, size: 0x8, addend: 0x0, symName: ___llvm_profile_register_write_file_atexit, symObjAddr: 0xBF8, symBinAddr: 0x7F248, symSize: 0x44 }
  - { offset: 0x103B5E, size: 0x8, addend: 0x0, symName: ___llvm_profile_set_filename, symObjAddr: 0xC3C, symBinAddr: 0x7F28C, symSize: 0x38 }
  - { offset: 0x103B66, size: 0x8, addend: 0x0, symName: ___llvm_profile_write_file, symObjAddr: 0xC74, symBinAddr: 0x7F2C4, symSize: 0x1B4 }
  - { offset: 0x103B8F, size: 0x8, addend: 0x0, symName: ___llvm_profile_write_file, symObjAddr: 0xC74, symBinAddr: 0x7F2C4, symSize: 0x1B4 }
  - { offset: 0x103B97, size: 0x8, addend: 0x0, symName: _writeFile, symObjAddr: 0xE28, symBinAddr: 0x7F478, symSize: 0x294 }
  - { offset: 0x103CEC, size: 0x8, addend: 0x0, symName: _writeFile, symObjAddr: 0xE28, symBinAddr: 0x7F478, symSize: 0x294 }
  - { offset: 0x103CF4, size: 0x8, addend: 0x0, symName: ___llvm_profile_dump, symObjAddr: 0x10BC, symBinAddr: 0x7F70C, symSize: 0x6C }
  - { offset: 0x103E63, size: 0x8, addend: 0x0, symName: ___llvm_profile_dump, symObjAddr: 0x10BC, symBinAddr: 0x7F70C, symSize: 0x6C }
  - { offset: 0x103E6B, size: 0x8, addend: 0x0, symName: ___llvm_orderfile_write_file, symObjAddr: 0x1128, symBinAddr: 0x7F778, symSize: 0x260 }
  - { offset: 0x103F27, size: 0x8, addend: 0x0, symName: ___llvm_orderfile_write_file, symObjAddr: 0x1128, symBinAddr: 0x7F778, symSize: 0x260 }
  - { offset: 0x103F2F, size: 0x8, addend: 0x0, symName: ___llvm_orderfile_dump, symObjAddr: 0x1388, symBinAddr: 0x7F9D8, symSize: 0x4 }
  - { offset: 0x104032, size: 0x8, addend: 0x0, symName: ___llvm_orderfile_dump, symObjAddr: 0x1388, symBinAddr: 0x7F9D8, symSize: 0x4 }
  - { offset: 0x10403A, size: 0x8, addend: 0x0, symName: _writeFileWithoutReturn, symObjAddr: 0x138C, symBinAddr: 0x7F9DC, symSize: 0x4 }
  - { offset: 0x104062, size: 0x8, addend: 0x0, symName: _writeFileWithoutReturn, symObjAddr: 0x138C, symBinAddr: 0x7F9DC, symSize: 0x4 }
  - { offset: 0x10406A, size: 0x8, addend: 0x0, symName: ___llvm_profile_set_file_object, symObjAddr: 0x1390, symBinAddr: 0x7F9E0, symSize: 0x1E4 }
  - { offset: 0x1040B2, size: 0x8, addend: 0x0, symName: ___llvm_profile_set_file_object, symObjAddr: 0x1390, symBinAddr: 0x7F9E0, symSize: 0x1E4 }
  - { offset: 0x1040BA, size: 0x8, addend: 0x0, symName: _getProfileFileSizeForMerging, symObjAddr: 0x1574, symBinAddr: 0x7FBC4, symSize: 0x110 }
  - { offset: 0x1041DF, size: 0x8, addend: 0x0, symName: _getProfileFileSizeForMerging, symObjAddr: 0x1574, symBinAddr: 0x7FBC4, symSize: 0x110 }
  - { offset: 0x1041E7, size: 0x8, addend: 0x0, symName: _mmapProfileForMerging, symObjAddr: 0x1684, symBinAddr: 0x7FCD4, symSize: 0xBC }
  - { offset: 0x104224, size: 0x8, addend: 0x0, symName: _mmapProfileForMerging, symObjAddr: 0x1684, symBinAddr: 0x7FCD4, symSize: 0xBC }
  - { offset: 0x10422C, size: 0x8, addend: 0x0, symName: _mmapForContinuousMode, symObjAddr: 0x1740, symBinAddr: 0x7FD90, symSize: 0x264 }
  - { offset: 0x10427A, size: 0x8, addend: 0x0, symName: _mmapForContinuousMode, symObjAddr: 0x1740, symBinAddr: 0x7FD90, symSize: 0x264 }
  - { offset: 0x104282, size: 0x8, addend: 0x0, symName: _fileWriter, symObjAddr: 0x19A4, symBinAddr: 0x7FFF4, symSize: 0x140 }
  - { offset: 0x10445D, size: 0x8, addend: 0x0, symName: _fileWriter, symObjAddr: 0x19A4, symBinAddr: 0x7FFF4, symSize: 0x140 }
  - { offset: 0x104465, size: 0x8, addend: 0x0, symName: _truncateCurrentFile, symObjAddr: 0x1AE4, symBinAddr: 0x80134, symSize: 0xD8 }
  - { offset: 0x10452D, size: 0x8, addend: 0x0, symName: _truncateCurrentFile, symObjAddr: 0x1AE4, symBinAddr: 0x80134, symSize: 0xD8 }
  - { offset: 0x104535, size: 0x8, addend: 0x0, symName: _initializeProfileForContinuousMode, symObjAddr: 0x1BBC, symBinAddr: 0x8020C, symSize: 0x25C }
  - { offset: 0x1045D1, size: 0x8, addend: 0x0, symName: _initializeProfileForContinuousMode, symObjAddr: 0x1BBC, symBinAddr: 0x8020C, symSize: 0x25C }
  - { offset: 0x1045D9, size: 0x8, addend: 0x0, symName: _createProfileDir, symObjAddr: 0x1E18, symBinAddr: 0x80468, symSize: 0xA4 }
  - { offset: 0x1047B0, size: 0x8, addend: 0x0, symName: _createProfileDir, symObjAddr: 0x1E18, symBinAddr: 0x80468, symSize: 0xA4 }
  - { offset: 0x1047B8, size: 0x8, addend: 0x0, symName: _parseAndSetFilename.cold.1, symObjAddr: 0x1EBC, symBinAddr: 0x10BC7C, symSize: 0x24 }
  - { offset: 0x104815, size: 0x8, addend: 0x0, symName: _parseAndSetFilename.cold.1, symObjAddr: 0x1EBC, symBinAddr: 0x10BC7C, symSize: 0x24 }
  - { offset: 0x10481D, size: 0x8, addend: 0x0, symName: _parseAndSetFilename.cold.2, symObjAddr: 0x1EE0, symBinAddr: 0x10BCA0, symSize: 0x24 }
  - { offset: 0x10483F, size: 0x8, addend: 0x0, symName: _parseAndSetFilename.cold.2, symObjAddr: 0x1EE0, symBinAddr: 0x10BCA0, symSize: 0x24 }
  - { offset: 0x104859, size: 0x8, addend: 0x0, symName: _parseAndSetFilename.cold.2, symObjAddr: 0x1EE0, symBinAddr: 0x10BCA0, symSize: 0x24 }
  - { offset: 0x104869, size: 0x8, addend: 0x0, symName: _parseAndSetFilename.cold.2, symObjAddr: 0x1EE0, symBinAddr: 0x10BCA0, symSize: 0x24 }
  - { offset: 0x104A34, size: 0x8, addend: 0x0, symName: _lprofProfileDumped, symObjAddr: 0x0, symBinAddr: 0x8050C, symSize: 0xC }
  - { offset: 0x104A51, size: 0x8, addend: 0x0, symName: _ProfileDumped, symObjAddr: 0x4E0, symBinAddr: 0x19C098, symSize: 0x0 }
  - { offset: 0x104A62, size: 0x8, addend: 0x0, symName: _lprofProfileDumped, symObjAddr: 0x0, symBinAddr: 0x8050C, symSize: 0xC }
  - { offset: 0x104A6A, size: 0x8, addend: 0x0, symName: _lprofSetProfileDumped, symObjAddr: 0xC, symBinAddr: 0x80518, symSize: 0xC }
  - { offset: 0x104A83, size: 0x8, addend: 0x0, symName: _lprofSetProfileDumped, symObjAddr: 0xC, symBinAddr: 0x80518, symSize: 0xC }
  - { offset: 0x104AD6, size: 0x8, addend: 0x0, symName: _lprofGetLoadModuleSignature, symObjAddr: 0x0, symBinAddr: 0x80524, symSize: 0xD0 }
  - { offset: 0x104B03, size: 0x8, addend: 0x0, symName: _VPMergeHook, symBinAddr: 0x19BF38, symSize: 0x0 }
  - { offset: 0x104D6E, size: 0x8, addend: 0x0, symName: _lprofGetLoadModuleSignature, symObjAddr: 0x0, symBinAddr: 0x80524, symSize: 0xD0 }
  - { offset: 0x104D76, size: 0x8, addend: 0x0, symName: ___llvm_profile_check_compatibility, symObjAddr: 0xD0, symBinAddr: 0x805F4, symSize: 0x1CC }
  - { offset: 0x104DEB, size: 0x8, addend: 0x0, symName: ___llvm_profile_check_compatibility, symObjAddr: 0xD0, symBinAddr: 0x805F4, symSize: 0x1CC }
  - { offset: 0x104DF3, size: 0x8, addend: 0x0, symName: ___llvm_profile_merge_from_buffer, symObjAddr: 0x29C, symBinAddr: 0x807C0, symSize: 0x48C }
  - { offset: 0x104ED6, size: 0x8, addend: 0x0, symName: ___llvm_profile_merge_from_buffer, symObjAddr: 0x29C, symBinAddr: 0x807C0, symSize: 0x48C }
  - { offset: 0x10515D, size: 0x8, addend: 0x0, symName: _lprofMergeValueProfData, symObjAddr: 0x0, symBinAddr: 0x80C4C, symSize: 0xF0 }
  - { offset: 0x10516E, size: 0x8, addend: 0x0, symName: _lprofMergeValueProfData, symObjAddr: 0x0, symBinAddr: 0x80C4C, symSize: 0xF0 }
  - { offset: 0x10544A, size: 0x8, addend: 0x0, symName: ___llvm_profile_begin_data, symObjAddr: 0x0, symBinAddr: 0x80D3C, symSize: 0xC }
  - { offset: 0x105469, size: 0x8, addend: 0x0, symName: _CurrentVNode, symObjAddr: 0xC0, symBinAddr: 0x180630, symSize: 0x0 }
  - { offset: 0x1054E5, size: 0x8, addend: 0x0, symName: _EndVNode, symObjAddr: 0xC8, symBinAddr: 0x180638, symSize: 0x0 }
  - { offset: 0x1054EF, size: 0x8, addend: 0x0, symName: ___llvm_profile_begin_data, symObjAddr: 0x0, symBinAddr: 0x80D3C, symSize: 0xC }
  - { offset: 0x1054F7, size: 0x8, addend: 0x0, symName: ___llvm_profile_end_data, symObjAddr: 0xC, symBinAddr: 0x80D48, symSize: 0xC }
  - { offset: 0x105511, size: 0x8, addend: 0x0, symName: ___llvm_profile_end_data, symObjAddr: 0xC, symBinAddr: 0x80D48, symSize: 0xC }
  - { offset: 0x105519, size: 0x8, addend: 0x0, symName: ___llvm_profile_begin_names, symObjAddr: 0x18, symBinAddr: 0x80D54, symSize: 0xC }
  - { offset: 0x105533, size: 0x8, addend: 0x0, symName: ___llvm_profile_begin_names, symObjAddr: 0x18, symBinAddr: 0x80D54, symSize: 0xC }
  - { offset: 0x10553B, size: 0x8, addend: 0x0, symName: ___llvm_profile_end_names, symObjAddr: 0x24, symBinAddr: 0x80D60, symSize: 0xC }
  - { offset: 0x105555, size: 0x8, addend: 0x0, symName: ___llvm_profile_end_names, symObjAddr: 0x24, symBinAddr: 0x80D60, symSize: 0xC }
  - { offset: 0x10555D, size: 0x8, addend: 0x0, symName: ___llvm_profile_begin_counters, symObjAddr: 0x30, symBinAddr: 0x80D6C, symSize: 0xC }
  - { offset: 0x105577, size: 0x8, addend: 0x0, symName: ___llvm_profile_begin_counters, symObjAddr: 0x30, symBinAddr: 0x80D6C, symSize: 0xC }
  - { offset: 0x10557F, size: 0x8, addend: 0x0, symName: ___llvm_profile_end_counters, symObjAddr: 0x3C, symBinAddr: 0x80D78, symSize: 0xC }
  - { offset: 0x105599, size: 0x8, addend: 0x0, symName: ___llvm_profile_end_counters, symObjAddr: 0x3C, symBinAddr: 0x80D78, symSize: 0xC }
  - { offset: 0x1055A1, size: 0x8, addend: 0x0, symName: ___llvm_profile_begin_bitmap, symObjAddr: 0x48, symBinAddr: 0x80D84, symSize: 0xC }
  - { offset: 0x1055BB, size: 0x8, addend: 0x0, symName: ___llvm_profile_begin_bitmap, symObjAddr: 0x48, symBinAddr: 0x80D84, symSize: 0xC }
  - { offset: 0x1055C3, size: 0x8, addend: 0x0, symName: ___llvm_profile_end_bitmap, symObjAddr: 0x54, symBinAddr: 0x80D90, symSize: 0xC }
  - { offset: 0x1055DD, size: 0x8, addend: 0x0, symName: ___llvm_profile_end_bitmap, symObjAddr: 0x54, symBinAddr: 0x80D90, symSize: 0xC }
  - { offset: 0x1055E5, size: 0x8, addend: 0x0, symName: ___llvm_profile_begin_vtables, symObjAddr: 0x60, symBinAddr: 0x80D9C, symSize: 0xC }
  - { offset: 0x1055FF, size: 0x8, addend: 0x0, symName: ___llvm_profile_begin_vtables, symObjAddr: 0x60, symBinAddr: 0x80D9C, symSize: 0xC }
  - { offset: 0x105607, size: 0x8, addend: 0x0, symName: ___llvm_profile_end_vtables, symObjAddr: 0x6C, symBinAddr: 0x80DA8, symSize: 0xC }
  - { offset: 0x105620, size: 0x8, addend: 0x0, symName: ___llvm_profile_end_vtables, symObjAddr: 0x6C, symBinAddr: 0x80DA8, symSize: 0xC }
  - { offset: 0x105628, size: 0x8, addend: 0x0, symName: ___llvm_profile_begin_vtabnames, symObjAddr: 0x78, symBinAddr: 0x80DB4, symSize: 0xC }
  - { offset: 0x105641, size: 0x8, addend: 0x0, symName: ___llvm_profile_begin_vtabnames, symObjAddr: 0x78, symBinAddr: 0x80DB4, symSize: 0xC }
  - { offset: 0x105649, size: 0x8, addend: 0x0, symName: ___llvm_profile_end_vtabnames, symObjAddr: 0x84, symBinAddr: 0x80DC0, symSize: 0xC }
  - { offset: 0x105663, size: 0x8, addend: 0x0, symName: ___llvm_profile_end_vtabnames, symObjAddr: 0x84, symBinAddr: 0x80DC0, symSize: 0xC }
  - { offset: 0x10566B, size: 0x8, addend: 0x0, symName: ___llvm_profile_begin_orderfile, symObjAddr: 0x90, symBinAddr: 0x80DCC, symSize: 0xC }
  - { offset: 0x105685, size: 0x8, addend: 0x0, symName: ___llvm_profile_begin_orderfile, symObjAddr: 0x90, symBinAddr: 0x80DCC, symSize: 0xC }
  - { offset: 0x10568D, size: 0x8, addend: 0x0, symName: ___llvm_profile_begin_vnodes, symObjAddr: 0x9C, symBinAddr: 0x80DD8, symSize: 0xC }
  - { offset: 0x1056A6, size: 0x8, addend: 0x0, symName: ___llvm_profile_begin_vnodes, symObjAddr: 0x9C, symBinAddr: 0x80DD8, symSize: 0xC }
  - { offset: 0x1056AE, size: 0x8, addend: 0x0, symName: ___llvm_profile_end_vnodes, symObjAddr: 0xA8, symBinAddr: 0x80DE4, symSize: 0xC }
  - { offset: 0x1056C7, size: 0x8, addend: 0x0, symName: ___llvm_profile_end_vnodes, symObjAddr: 0xA8, symBinAddr: 0x80DE4, symSize: 0xC }
  - { offset: 0x1056CF, size: 0x8, addend: 0x0, symName: ___llvm_write_binary_ids, symObjAddr: 0xB4, symBinAddr: 0x80DF0, symSize: 0x8 }
  - { offset: 0x1056E8, size: 0x8, addend: 0x0, symName: ___llvm_write_binary_ids, symObjAddr: 0xB4, symBinAddr: 0x80DF0, symSize: 0x8 }
  - { offset: 0x105995, size: 0x8, addend: 0x0, symName: ___llvm_profile_runtime, symObjAddr: 0x590, symBinAddr: 0x19BF40, symSize: 0x0 }
  - { offset: 0x1059CC, size: 0x8, addend: 0x0, symName: ___llvm_profile_recursive_mkdir, symObjAddr: 0x0, symBinAddr: 0x80E10, symSize: 0x58 }
  - { offset: 0x1059D4, size: 0x8, addend: 0x0, symName: _lprofDirMode, symObjAddr: 0x5A8, symBinAddr: 0x180640, symSize: 0x0 }
  - { offset: 0x1059EB, size: 0x8, addend: 0x0, symName: _lprofDirMode, symObjAddr: 0x5A8, symBinAddr: 0x180640, symSize: 0x0 }
  - { offset: 0x105A2D, size: 0x8, addend: 0x0, symName: ___llvm_profile_recursive_mkdir, symObjAddr: 0x0, symBinAddr: 0x80E10, symSize: 0x58 }
  - { offset: 0x105A35, size: 0x8, addend: 0x0, symName: ___llvm_profile_get_dir_mode, symObjAddr: 0x58, symBinAddr: 0x80E68, symSize: 0xC }
  - { offset: 0x105AB0, size: 0x8, addend: 0x0, symName: ___llvm_profile_get_dir_mode, symObjAddr: 0x58, symBinAddr: 0x80E68, symSize: 0xC }
  - { offset: 0x105AB8, size: 0x8, addend: 0x0, symName: ___llvm_profile_set_dir_mode, symObjAddr: 0x64, symBinAddr: 0x80E74, symSize: 0xC }
  - { offset: 0x105AC8, size: 0x8, addend: 0x0, symName: ___llvm_profile_set_dir_mode, symObjAddr: 0x64, symBinAddr: 0x80E74, symSize: 0xC }
  - { offset: 0x105AD0, size: 0x8, addend: 0x0, symName: _lprofGetHostName, symObjAddr: 0x70, symBinAddr: 0x80E80, symSize: 0x80 }
  - { offset: 0x105AF5, size: 0x8, addend: 0x0, symName: _lprofGetHostName, symObjAddr: 0x70, symBinAddr: 0x80E80, symSize: 0x80 }
  - { offset: 0x105AFD, size: 0x8, addend: 0x0, symName: _lprofLockFd, symObjAddr: 0xF0, symBinAddr: 0x80F00, symSize: 0x8C }
  - { offset: 0x105B57, size: 0x8, addend: 0x0, symName: _lprofLockFd, symObjAddr: 0xF0, symBinAddr: 0x80F00, symSize: 0x8C }
  - { offset: 0x105B5F, size: 0x8, addend: 0x0, symName: _lprofUnlockFd, symObjAddr: 0x17C, symBinAddr: 0x80F8C, symSize: 0x8C }
  - { offset: 0x105B84, size: 0x8, addend: 0x0, symName: _lprofUnlockFd, symObjAddr: 0x17C, symBinAddr: 0x80F8C, symSize: 0x8C }
  - { offset: 0x105B8C, size: 0x8, addend: 0x0, symName: _lprofLockFileHandle, symObjAddr: 0x208, symBinAddr: 0x81018, symSize: 0x90 }
  - { offset: 0x105C8A, size: 0x8, addend: 0x0, symName: _lprofLockFileHandle, symObjAddr: 0x208, symBinAddr: 0x81018, symSize: 0x90 }
  - { offset: 0x105C92, size: 0x8, addend: 0x0, symName: _lprofUnlockFileHandle, symObjAddr: 0x298, symBinAddr: 0x810A8, symSize: 0x90 }
  - { offset: 0x105D1F, size: 0x8, addend: 0x0, symName: _lprofUnlockFileHandle, symObjAddr: 0x298, symBinAddr: 0x810A8, symSize: 0x90 }
  - { offset: 0x105D27, size: 0x8, addend: 0x0, symName: _lprofOpenFileEx, symObjAddr: 0x328, symBinAddr: 0x81138, symSize: 0xD0 }
  - { offset: 0x105D8D, size: 0x8, addend: 0x0, symName: _lprofOpenFileEx, symObjAddr: 0x328, symBinAddr: 0x81138, symSize: 0xD0 }
  - { offset: 0x105D95, size: 0x8, addend: 0x0, symName: _lprofGetPathPrefix, symObjAddr: 0x3F8, symBinAddr: 0x81208, symSize: 0x98 }
  - { offset: 0x105E0B, size: 0x8, addend: 0x0, symName: _lprofGetPathPrefix, symObjAddr: 0x3F8, symBinAddr: 0x81208, symSize: 0x98 }
  - { offset: 0x105E13, size: 0x8, addend: 0x0, symName: _lprofApplyPathPrefix, symObjAddr: 0x490, symBinAddr: 0x812A0, symSize: 0xA8 }
  - { offset: 0x105E71, size: 0x8, addend: 0x0, symName: _lprofApplyPathPrefix, symObjAddr: 0x490, symBinAddr: 0x812A0, symSize: 0xA8 }
  - { offset: 0x105E79, size: 0x8, addend: 0x0, symName: _lprofFindFirstDirSeparator, symObjAddr: 0x538, symBinAddr: 0x81348, symSize: 0x8 }
  - { offset: 0x105F14, size: 0x8, addend: 0x0, symName: _lprofFindFirstDirSeparator, symObjAddr: 0x538, symBinAddr: 0x81348, symSize: 0x8 }
  - { offset: 0x105F1C, size: 0x8, addend: 0x0, symName: _lprofFindLastDirSeparator, symObjAddr: 0x540, symBinAddr: 0x81350, symSize: 0x8 }
  - { offset: 0x105F53, size: 0x8, addend: 0x0, symName: _lprofFindLastDirSeparator, symObjAddr: 0x540, symBinAddr: 0x81350, symSize: 0x8 }
  - { offset: 0x105F5B, size: 0x8, addend: 0x0, symName: _lprofSuspendSigKill, symObjAddr: 0x548, symBinAddr: 0x81358, symSize: 0x8 }
  - { offset: 0x105F92, size: 0x8, addend: 0x0, symName: _lprofSuspendSigKill, symObjAddr: 0x548, symBinAddr: 0x81358, symSize: 0x8 }
  - { offset: 0x105F9A, size: 0x8, addend: 0x0, symName: _lprofRestoreSigKill, symObjAddr: 0x550, symBinAddr: 0x81360, symSize: 0x4 }
  - { offset: 0x105FB4, size: 0x8, addend: 0x0, symName: _lprofRestoreSigKill, symObjAddr: 0x550, symBinAddr: 0x81360, symSize: 0x4 }
  - { offset: 0x105FBC, size: 0x8, addend: 0x0, symName: _lprofReleaseMemoryPagesToOS, symObjAddr: 0x554, symBinAddr: 0x81364, symSize: 0x54 }
  - { offset: 0x106034, size: 0x8, addend: 0x0, symName: _lprofReleaseMemoryPagesToOS, symObjAddr: 0x554, symBinAddr: 0x81364, symSize: 0x54 }
  - { offset: 0x10603C, size: 0x8, addend: 0x0, symName: _lprofDirMode, symObjAddr: 0x5A8, symBinAddr: 0x180640, symSize: 0x0 }
  - { offset: 0x10639B, size: 0x8, addend: 0x0, symName: _getValueProfRecordHeaderSize, symObjAddr: 0x0, symBinAddr: 0x813B8, symSize: 0xC }
  - { offset: 0x1063BA, size: 0x8, addend: 0x0, symName: _VPMaxNumValsPerSite, symObjAddr: 0x1740, symBinAddr: 0x180648, symSize: 0x0 }
  - { offset: 0x1063F1, size: 0x8, addend: 0x0, symName: _lprofValueProfNodes, symObjAddr: 0x18C0, symBinAddr: 0x195CA0, symSize: 0x0 }
  - { offset: 0x106474, size: 0x8, addend: 0x0, symName: __MergedGlobals, symObjAddr: 0xEF68, symBinAddr: 0x19C0C8, symSize: 0x0 }
  - { offset: 0x10649C, size: 0x8, addend: 0x0, symName: __MergedGlobals, symObjAddr: 0xEF68, symBinAddr: 0x19C0C8, symSize: 0x0 }
  - { offset: 0x1064B3, size: 0x8, addend: 0x0, symName: __MergedGlobals, symObjAddr: 0xEF68, symBinAddr: 0x19C0C8, symSize: 0x0 }
  - { offset: 0x1064D3, size: 0x8, addend: 0x0, symName: _TheVPDataReader, symObjAddr: 0x1748, symBinAddr: 0x180650, symSize: 0x0 }
  - { offset: 0x106782, size: 0x8, addend: 0x0, symName: _RTRecord, symObjAddr: 0xEF40, symBinAddr: 0x19C0A0, symSize: 0x0 }
  - { offset: 0x10697F, size: 0x8, addend: 0x0, symName: _getValueProfRecordHeaderSize, symObjAddr: 0x0, symBinAddr: 0x813B8, symSize: 0xC }
  - { offset: 0x106987, size: 0x8, addend: 0x0, symName: _getValueProfRecordSize, symObjAddr: 0xC, symBinAddr: 0x813C4, symSize: 0x10 }
  - { offset: 0x1069D7, size: 0x8, addend: 0x0, symName: _getValueProfRecordSize, symObjAddr: 0xC, symBinAddr: 0x813C4, symSize: 0x10 }
  - { offset: 0x1069DF, size: 0x8, addend: 0x0, symName: _getValueProfRecordValueData, symObjAddr: 0x1C, symBinAddr: 0x813D4, symSize: 0x14 }
  - { offset: 0x106A06, size: 0x8, addend: 0x0, symName: _getValueProfRecordSize, symObjAddr: 0xC, symBinAddr: 0x813C4, symSize: 0x10 }
  - { offset: 0x106A30, size: 0x8, addend: 0x0, symName: _getValueProfRecordValueData, symObjAddr: 0x1C, symBinAddr: 0x813D4, symSize: 0x14 }
  - { offset: 0x106A38, size: 0x8, addend: 0x0, symName: _getValueProfRecordNumValueData, symObjAddr: 0x30, symBinAddr: 0x813E8, symSize: 0x184 }
  - { offset: 0x106A7F, size: 0x8, addend: 0x0, symName: _getValueProfRecordNumValueData, symObjAddr: 0x30, symBinAddr: 0x813E8, symSize: 0x184 }
  - { offset: 0x106A87, size: 0x8, addend: 0x0, symName: _getValueProfRecordNext, symObjAddr: 0x1B4, symBinAddr: 0x8156C, symSize: 0x1A4 }
  - { offset: 0x106B17, size: 0x8, addend: 0x0, symName: _getValueProfRecordNext, symObjAddr: 0x1B4, symBinAddr: 0x8156C, symSize: 0x1A4 }
  - { offset: 0x106B1F, size: 0x8, addend: 0x0, symName: _getFirstValueProfRecord, symObjAddr: 0x358, symBinAddr: 0x81710, symSize: 0x8 }
  - { offset: 0x106B8B, size: 0x8, addend: 0x0, symName: _getFirstValueProfRecord, symObjAddr: 0x358, symBinAddr: 0x81710, symSize: 0x8 }
  - { offset: 0x106B93, size: 0x8, addend: 0x0, symName: _getValueProfDataSize, symObjAddr: 0x360, symBinAddr: 0x81718, symSize: 0xEC }
  - { offset: 0x106BAF, size: 0x8, addend: 0x0, symName: _getValueProfDataSize, symObjAddr: 0x360, symBinAddr: 0x81718, symSize: 0xEC }
  - { offset: 0x106BB7, size: 0x8, addend: 0x0, symName: _serializeValueProfRecordFrom, symObjAddr: 0x44C, symBinAddr: 0x81804, symSize: 0x9C }
  - { offset: 0x106C66, size: 0x8, addend: 0x0, symName: _serializeValueProfRecordFrom, symObjAddr: 0x44C, symBinAddr: 0x81804, symSize: 0x9C }
  - { offset: 0x106C6E, size: 0x8, addend: 0x0, symName: _serializeValueProfDataFrom, symObjAddr: 0x4E8, symBinAddr: 0x818A0, symSize: 0x5CC }
  - { offset: 0x106E3C, size: 0x8, addend: 0x0, symName: _serializeValueProfDataFrom, symObjAddr: 0x4E8, symBinAddr: 0x818A0, symSize: 0x5CC }
  - { offset: 0x106E44, size: 0x8, addend: 0x0, symName: _InstProfClzll, symObjAddr: 0xAB4, symBinAddr: 0x81E6C, symSize: 0x8 }
  - { offset: 0x107086, size: 0x8, addend: 0x0, symName: _InstProfClzll, symObjAddr: 0xAB4, symBinAddr: 0x81E6C, symSize: 0x8 }
  - { offset: 0x10708E, size: 0x8, addend: 0x0, symName: _InstProfPopcountll, symObjAddr: 0xABC, symBinAddr: 0x81E74, symSize: 0x14 }
  - { offset: 0x1070AA, size: 0x8, addend: 0x0, symName: _InstProfPopcountll, symObjAddr: 0xABC, symBinAddr: 0x81E74, symSize: 0x14 }
  - { offset: 0x1070B2, size: 0x8, addend: 0x0, symName: _InstrProfGetRangeRepValue, symObjAddr: 0xAD0, symBinAddr: 0x81E88, symSize: 0x48 }
  - { offset: 0x10710A, size: 0x8, addend: 0x0, symName: _InstrProfGetRangeRepValue, symObjAddr: 0xAD0, symBinAddr: 0x81E88, symSize: 0x48 }
  - { offset: 0x107112, size: 0x8, addend: 0x0, symName: _InstrProfIsSingleValRange, symObjAddr: 0xB18, symBinAddr: 0x81ED0, symSize: 0x20 }
  - { offset: 0x107174, size: 0x8, addend: 0x0, symName: _InstrProfIsSingleValRange, symObjAddr: 0xB18, symBinAddr: 0x81ED0, symSize: 0x20 }
  - { offset: 0x10717C, size: 0x8, addend: 0x0, symName: _lprofSetupValueProfiler, symObjAddr: 0xB38, symBinAddr: 0x81EF0, symSize: 0x64 }
  - { offset: 0x1071A9, size: 0x8, addend: 0x0, symName: _lprofSetupValueProfiler, symObjAddr: 0xB38, symBinAddr: 0x81EF0, symSize: 0x64 }
  - { offset: 0x1071B1, size: 0x8, addend: 0x0, symName: _lprofSetMaxValsPerSite, symObjAddr: 0xB9C, symBinAddr: 0x81F54, symSize: 0x18 }
  - { offset: 0x1071D6, size: 0x8, addend: 0x0, symName: _lprofSetMaxValsPerSite, symObjAddr: 0xB9C, symBinAddr: 0x81F54, symSize: 0x18 }
  - { offset: 0x1071DE, size: 0x8, addend: 0x0, symName: ___llvm_profile_set_num_value_sites, symObjAddr: 0xBB4, symBinAddr: 0x81F6C, symSize: 0xC }
  - { offset: 0x107202, size: 0x8, addend: 0x0, symName: ___llvm_profile_set_num_value_sites, symObjAddr: 0xBB4, symBinAddr: 0x81F6C, symSize: 0xC }
  - { offset: 0x10720A, size: 0x8, addend: 0x0, symName: ___llvm_profile_iterate_data, symObjAddr: 0xBC0, symBinAddr: 0x81F78, symSize: 0x8 }
  - { offset: 0x10724B, size: 0x8, addend: 0x0, symName: ___llvm_profile_iterate_data, symObjAddr: 0xBC0, symBinAddr: 0x81F78, symSize: 0x8 }
  - { offset: 0x107253, size: 0x8, addend: 0x0, symName: ___llvm_get_function_addr, symObjAddr: 0xBC8, symBinAddr: 0x81F80, symSize: 0x8 }
  - { offset: 0x10727E, size: 0x8, addend: 0x0, symName: ___llvm_get_function_addr, symObjAddr: 0xBC8, symBinAddr: 0x81F80, symSize: 0x8 }
  - { offset: 0x107286, size: 0x8, addend: 0x0, symName: ___llvm_profile_instrument_target, symObjAddr: 0xBD0, symBinAddr: 0x81F88, symSize: 0x260 }
  - { offset: 0x107397, size: 0x8, addend: 0x0, symName: ___llvm_profile_instrument_target, symObjAddr: 0xBD0, symBinAddr: 0x81F88, symSize: 0x260 }
  - { offset: 0x10739F, size: 0x8, addend: 0x0, symName: ___llvm_profile_instrument_target_value, symObjAddr: 0xE30, symBinAddr: 0x821E8, symSize: 0x290 }
  - { offset: 0x1074B9, size: 0x8, addend: 0x0, symName: ___llvm_profile_instrument_target_value, symObjAddr: 0xE30, symBinAddr: 0x821E8, symSize: 0x290 }
  - { offset: 0x1074C1, size: 0x8, addend: 0x0, symName: ___llvm_profile_instrument_memop, symObjAddr: 0x10C0, symBinAddr: 0x82478, symSize: 0x48 }
  - { offset: 0x10760A, size: 0x8, addend: 0x0, symName: ___llvm_profile_instrument_memop, symObjAddr: 0x10C0, symBinAddr: 0x82478, symSize: 0x48 }
  - { offset: 0x107612, size: 0x8, addend: 0x0, symName: _lprofGetVPDataReader, symObjAddr: 0x1108, symBinAddr: 0x824C0, symSize: 0xC }
  - { offset: 0x1076C9, size: 0x8, addend: 0x0, symName: _lprofGetVPDataReader, symObjAddr: 0x1108, symBinAddr: 0x824C0, symSize: 0xC }
  - { offset: 0x1076D1, size: 0x8, addend: 0x0, symName: _initializeValueProfRuntimeRecord, symObjAddr: 0x1114, symBinAddr: 0x824CC, symSize: 0x210 }
  - { offset: 0x1076EB, size: 0x8, addend: 0x0, symName: _initializeValueProfRuntimeRecord, symObjAddr: 0x1114, symBinAddr: 0x824CC, symSize: 0x210 }
  - { offset: 0x1076F3, size: 0x8, addend: 0x0, symName: _getNumValueDataForSiteWrapper, symObjAddr: 0x1324, symBinAddr: 0x826DC, symSize: 0x14 }
  - { offset: 0x10780C, size: 0x8, addend: 0x0, symName: _getNumValueDataForSiteWrapper, symObjAddr: 0x1324, symBinAddr: 0x826DC, symSize: 0x14 }
  - { offset: 0x107814, size: 0x8, addend: 0x0, symName: _getValueProfDataSizeWrapper, symObjAddr: 0x1338, symBinAddr: 0x826F0, symSize: 0xDC }
  - { offset: 0x107852, size: 0x8, addend: 0x0, symName: _getNumValueDataForSiteWrapper, symObjAddr: 0x1324, symBinAddr: 0x826DC, symSize: 0x14 }
  - { offset: 0x10787A, size: 0x8, addend: 0x0, symName: _getValueProfDataSizeWrapper, symObjAddr: 0x1338, symBinAddr: 0x826F0, symSize: 0xDC }
  - { offset: 0x107882, size: 0x8, addend: 0x0, symName: _getNextNValueData, symObjAddr: 0x1414, symBinAddr: 0x827CC, symSize: 0x44 }
  - { offset: 0x107921, size: 0x8, addend: 0x0, symName: _getNextNValueData, symObjAddr: 0x1414, symBinAddr: 0x827CC, symSize: 0x44 }
  - { offset: 0x107929, size: 0x8, addend: 0x0, symName: _getNumValueSitesRT, symObjAddr: 0x1458, symBinAddr: 0x82810, symSize: 0x10 }
  - { offset: 0x1079B7, size: 0x8, addend: 0x0, symName: _getNumValueSitesRT, symObjAddr: 0x1458, symBinAddr: 0x82810, symSize: 0x10 }
  - { offset: 0x1079BF, size: 0x8, addend: 0x0, symName: _getNumValueDataRT, symObjAddr: 0x1468, symBinAddr: 0x82820, symSize: 0x190 }
  - { offset: 0x1079FA, size: 0x8, addend: 0x0, symName: _getNumValueDataRT, symObjAddr: 0x1468, symBinAddr: 0x82820, symSize: 0x190 }
  - { offset: 0x107A02, size: 0x8, addend: 0x0, symName: ___llvm_profile_instrument_target.cold.1, symObjAddr: 0x15F8, symBinAddr: 0x10BCC4, symSize: 0x24 }
  - { offset: 0x107A70, size: 0x8, addend: 0x0, symName: ___llvm_profile_instrument_target.cold.1, symObjAddr: 0x15F8, symBinAddr: 0x10BCC4, symSize: 0x24 }
  - { offset: 0x107A78, size: 0x8, addend: 0x0, symName: ___llvm_profile_instrument_target_value.cold.1, symObjAddr: 0x161C, symBinAddr: 0x10BCE8, symSize: 0x24 }
  - { offset: 0x107A9A, size: 0x8, addend: 0x0, symName: ___llvm_profile_instrument_target_value.cold.1, symObjAddr: 0x161C, symBinAddr: 0x10BCE8, symSize: 0x24 }
  - { offset: 0x107AB3, size: 0x8, addend: 0x0, symName: ___llvm_profile_instrument_target_value.cold.1, symObjAddr: 0x161C, symBinAddr: 0x10BCE8, symSize: 0x24 }
  - { offset: 0x107AC2, size: 0x8, addend: 0x0, symName: ___llvm_profile_instrument_target_value.cold.1, symObjAddr: 0x161C, symBinAddr: 0x10BCE8, symSize: 0x24 }
  - { offset: 0x107B54, size: 0x8, addend: 0x0, symName: ___llvm_profile_raw_version, symObjAddr: 0x0, symBinAddr: 0x180680, symSize: 0x0 }
  - { offset: 0x107B96, size: 0x8, addend: 0x0, symName: _lprofBufferWriter, symObjAddr: 0x0, symBinAddr: 0x829B0, symSize: 0x6C }
  - { offset: 0x107BB5, size: 0x8, addend: 0x0, symName: _FreeHook, symObjAddr: 0x4F30, symBinAddr: 0x19BF48, symSize: 0x0 }
  - { offset: 0x107BDC, size: 0x8, addend: 0x0, symName: _DynamicBufferIOBuffer, symObjAddr: 0x4F38, symBinAddr: 0x19BF50, symSize: 0x0 }
  - { offset: 0x107C0A, size: 0x8, addend: 0x0, symName: _VPBufferSize, symObjAddr: 0x4F40, symBinAddr: 0x19BF58, symSize: 0x0 }
  - { offset: 0x107C31, size: 0x8, addend: 0x0, symName: __MergedGlobals, symObjAddr: 0x6F48, symBinAddr: 0x19E0D8, symSize: 0x0 }
  - { offset: 0x107D7D, size: 0x8, addend: 0x0, symName: _BufferIOBuffer, symObjAddr: 0x4F48, symBinAddr: 0x19C0D8, symSize: 0x0 }
  - { offset: 0x107DA7, size: 0x8, addend: 0x0, symName: __MergedGlobals, symObjAddr: 0x6F48, symBinAddr: 0x19E0D8, symSize: 0x0 }
  - { offset: 0x107E26, size: 0x8, addend: 0x0, symName: _lprofBufferWriter, symObjAddr: 0x0, symBinAddr: 0x829B0, symSize: 0x6C }
  - { offset: 0x107E2E, size: 0x8, addend: 0x0, symName: _lprofCreateBufferIO, symObjAddr: 0x6C, symBinAddr: 0x82A1C, symSize: 0x48 }
  - { offset: 0x107EBC, size: 0x8, addend: 0x0, symName: _lprofCreateBufferIO, symObjAddr: 0x6C, symBinAddr: 0x82A1C, symSize: 0x48 }
  - { offset: 0x107EC4, size: 0x8, addend: 0x0, symName: _lprofDeleteBufferIO, symObjAddr: 0xB4, symBinAddr: 0x82A64, symSize: 0x4C }
  - { offset: 0x107F1E, size: 0x8, addend: 0x0, symName: _lprofDeleteBufferIO, symObjAddr: 0xB4, symBinAddr: 0x82A64, symSize: 0x4C }
  - { offset: 0x107F26, size: 0x8, addend: 0x0, symName: _lprofBufferIOWrite, symObjAddr: 0x100, symBinAddr: 0x82AB0, symSize: 0x134 }
  - { offset: 0x107FCD, size: 0x8, addend: 0x0, symName: _lprofBufferIOWrite, symObjAddr: 0x100, symBinAddr: 0x82AB0, symSize: 0x134 }
  - { offset: 0x107FD5, size: 0x8, addend: 0x0, symName: _lprofBufferIOFlush, symObjAddr: 0x234, symBinAddr: 0x82BE4, symSize: 0xC0 }
  - { offset: 0x1080DB, size: 0x8, addend: 0x0, symName: _lprofBufferIOFlush, symObjAddr: 0x234, symBinAddr: 0x82BE4, symSize: 0xC0 }
  - { offset: 0x1080E3, size: 0x8, addend: 0x0, symName: _lprofWriteData, symObjAddr: 0x2F4, symBinAddr: 0x82CA4, symSize: 0xD4 }
  - { offset: 0x10810F, size: 0x8, addend: 0x0, symName: _lprofWriteData, symObjAddr: 0x2F4, symBinAddr: 0x82CA4, symSize: 0xD4 }
  - { offset: 0x108117, size: 0x8, addend: 0x0, symName: _lprofWriteDataImpl, symObjAddr: 0x3C8, symBinAddr: 0x82D78, symSize: 0x46C }
  - { offset: 0x10855B, size: 0x8, addend: 0x0, symName: _lprofWriteDataImpl, symObjAddr: 0x3C8, symBinAddr: 0x82D78, symSize: 0x46C }
  - { offset: 0x108563, size: 0x8, addend: 0x0, symName: _lprofWriteOneBinaryId, symObjAddr: 0x834, symBinAddr: 0x831E4, symSize: 0x8C }
  - { offset: 0x108891, size: 0x8, addend: 0x0, symName: _lprofWriteOneBinaryId, symObjAddr: 0x834, symBinAddr: 0x831E4, symSize: 0x8C }
  - { offset: 0x108899, size: 0x8, addend: 0x0, symName: _writeOneValueProfData, symObjAddr: 0x8C0, symBinAddr: 0x83270, symSize: 0x4A8 }
  - { offset: 0x108909, size: 0x8, addend: 0x0, symName: _writeOneValueProfData, symObjAddr: 0x8C0, symBinAddr: 0x83270, symSize: 0x4A8 }
  - { offset: 0x108BEC, size: 0x8, addend: 0x0, symName: '__ZN108_$LT$alloc..collections..btree..map..Iter$LT$K$C$V$GT$$u20$as$u20$core..iter..traits..iterator..Iterator$GT$4next17h72af6d586fb705daE', symObjAddr: 0x0, symBinAddr: 0x83718, symSize: 0x13C }
