---
triple:          'arm64-apple-darwin'
binary-path:     '/Users/teddy/code/zero_to_production/newsletter_server/target/debug/build/zstd-sys-0a70669764577a32/build_script_build-0a70669764577a32'
relocations:
  - { offset: 0x1E, size: 0x8, addend: 0x0, symName: __RINvMsZ_NtCs27l1GJC5rMQ_3std4pathNtB6_4Path3newNtNtNtB8_3ffi6os_str8OsStringECsdd4p8w1Itnu_18build_script_build, symObjAddr: 0x0, symBinAddr: 0x100002430, symSize: 0x24 }
  - { offset: 0x68, size: 0x8, addend: 0x0, symName: __RNCINvNtCs27l1GJC5rMQ_3std2rt10lang_startuE0Csdd4p8w1Itnu_18build_script_build, symObjAddr: 0x1D80, symBinAddr: 0x1000041B0, symSize: 0x3C }
  - { offset: 0xDB, size: 0x8, addend: 0x0, symName: __RINvNtCs27l1GJC5rMQ_3std2rt10lang_startuECsdd4p8w1Itnu_18build_script_build, symObjAddr: 0x24, symBinAddr: 0x100002454, symSize: 0x6C }
  - { offset: 0x445, size: 0x8, addend: 0x0, symName: __RNvXsG_NtCs27l1GJC5rMQ_3std4pathNtB5_7PathBufNtNtNtCs9f3LFPSIp77_4core3ops5deref5Deref5derefCsdd4p8w1Itnu_18build_script_build, symObjAddr: 0x30F4, symBinAddr: 0x100005524, symSize: 0x34 }
  - { offset: 0x4F1, size: 0x8, addend: 0x0, symName: __RNvXs1g_NtCs27l1GJC5rMQ_3std4pathNtB6_7PathBufINtNtCs9f3LFPSIp77_4core7convert5AsRefNtB6_4PathE6as_refCsdd4p8w1Itnu_18build_script_build, symObjAddr: 0x2D4C, symBinAddr: 0x10000517C, symSize: 0x34 }
  - { offset: 0x59D, size: 0x8, addend: 0x0, symName: __RNvXsW_NtCs27l1GJC5rMQ_3std4pathNtB5_7PathBufNtNtCs9f3LFPSIp77_4core3cmp10PartialOrd11partial_cmpCsdd4p8w1Itnu_18build_script_build, symObjAddr: 0x32D0, symBinAddr: 0x100005700, symSize: 0x160 }
  - { offset: 0xA2B, size: 0x8, addend: 0x0, symName: __RNvXsz_NtCs27l1GJC5rMQ_3std4pathNtB5_7PathBufINtNtCs9f3LFPSIp77_4core7convert4FromNtNtNtB7_3ffi6os_str8OsStringE4fromCsdd4p8w1Itnu_18build_script_build, symObjAddr: 0x3804, symBinAddr: 0x100005C34, symSize: 0x18 }
  - { offset: 0xADD, size: 0x8, addend: 0x0, symName: __RNvXs5_NtNtCs27l1GJC5rMQ_3std3ffi6os_strNtB5_8OsStringNtNtNtCs9f3LFPSIp77_4core3ops5deref5Deref5derefCsdd4p8w1Itnu_18build_script_build, symObjAddr: 0x30C8, symBinAddr: 0x1000054F8, symSize: 0x2C }
  - { offset: 0xBA7, size: 0x8, addend: 0x0, symName: __RNvXsS_NtNtCs27l1GJC5rMQ_3std3ffi6os_strNtB5_8OsStringINtNtCs9f3LFPSIp77_4core7convert5AsRefNtB5_5OsStrE6as_refCsdd4p8w1Itnu_18build_script_build, symObjAddr: 0x3294, symBinAddr: 0x1000056C4, symSize: 0x2C }
  - { offset: 0xC17, size: 0x8, addend: 0x0, symName: __RNvXs3_NtNtCs27l1GJC5rMQ_3std3ffi6os_strNtB5_8OsStringINtNtNtCs9f3LFPSIp77_4core3ops5index5IndexNtNtBV_5range9RangeFullE5indexCsdd4p8w1Itnu_18build_script_build, symObjAddr: 0x2E9C, symBinAddr: 0x1000052CC, symSize: 0x90 }
  - { offset: 0xE31, size: 0x8, addend: 0x0, symName: __RINvNtNtCs27l1GJC5rMQ_3std3sys9backtrace28___rust_begin_short_backtraceFEuuECsdd4p8w1Itnu_18build_script_build, symObjAddr: 0x4DC, symBinAddr: 0x10000290C, symSize: 0x24 }
  - { offset: 0xFFA, size: 0x8, addend: 0x0, symName: __RNvXsT_NtCs27l1GJC5rMQ_3std7processuNtB5_11Termination6reportCsdd4p8w1Itnu_18build_script_build, symObjAddr: 0x32C0, symBinAddr: 0x1000056F0, symSize: 0x10 }
  - { offset: 0x163B, size: 0x8, addend: 0x0, symName: __RNvNvMs1_NtNtCs9f3LFPSIp77_4core3ptr8non_nullINtB7_7NonNullpE13new_unchecked18precondition_checkCsdd4p8w1Itnu_18build_script_build, symObjAddr: 0x293C, symBinAddr: 0x100004D6C, symSize: 0x40 }
  - { offset: 0x1B1B, size: 0x8, addend: 0x0, symName: __RINvNtCs9f3LFPSIp77_4core3ptr13drop_in_placeINtNtB4_6option6OptionINtNtB4_6result6ResultNtNtCs27l1GJC5rMQ_3std2fs8DirEntryNtNtNtB1s_2io5error5ErrorEEECsdd4p8w1Itnu_18build_script_build, symObjAddr: 0x90, symBinAddr: 0x1000024C0, symSize: 0x40 }
  - { offset: 0x1B4A, size: 0x8, addend: 0x0, symName: __RINvNtCs9f3LFPSIp77_4core3ptr13drop_in_placeINtNtB4_6result6ResultNtNtCs27l1GJC5rMQ_3std2fs8DirEntryNtNtNtB16_2io5error5ErrorEECsdd4p8w1Itnu_18build_script_build, symObjAddr: 0xD0, symBinAddr: 0x100002500, symSize: 0x58 }
  - { offset: 0x1B79, size: 0x8, addend: 0x0, symName: __RINvNtCs9f3LFPSIp77_4core3ptr13drop_in_placeINtNtCsdze8u8oDPro_5alloc4sync3ArcNtNtNtNtNtCs27l1GJC5rMQ_3std3sys3pal4unix2fs12InnerReadDirEECsdd4p8w1Itnu_18build_script_build, symObjAddr: 0x128, symBinAddr: 0x100002558, symSize: 0x24 }
  - { offset: 0x1BA8, size: 0x8, addend: 0x0, symName: __RINvNtCs9f3LFPSIp77_4core3ptr13drop_in_placeINtNtCsdze8u8oDPro_5alloc4sync4WeakNtNtNtNtNtCs27l1GJC5rMQ_3std3sys3pal4unix2fs12InnerReadDirRNtNtBL_5alloc6GlobalEECsdd4p8w1Itnu_18build_script_build, symObjAddr: 0x14C, symBinAddr: 0x10000257C, symSize: 0x24 }
  - { offset: 0x1BD7, size: 0x8, addend: 0x0, symName: __RINvNtCs9f3LFPSIp77_4core3ptr13drop_in_placeINtNtNtB4_5array4iter8IntoIterjKj2_EECsdd4p8w1Itnu_18build_script_build, symObjAddr: 0x170, symBinAddr: 0x1000025A0, symSize: 0x24 }
  - { offset: 0x1C06, size: 0x8, addend: 0x0, symName: __RINvNtCs9f3LFPSIp77_4core3ptr13drop_in_placeINtNtNtCsdze8u8oDPro_5alloc3vec9into_iter8IntoIterNtNtCs27l1GJC5rMQ_3std4path7PathBufEECsdd4p8w1Itnu_18build_script_build, symObjAddr: 0x194, symBinAddr: 0x1000025C4, symSize: 0x24 }
  - { offset: 0x1C35, size: 0x8, addend: 0x0, symName: __RINvNtCs9f3LFPSIp77_4core3ptr13drop_in_placeINtNtNtNtB4_4iter8adapters10filter_map9FilterMapINtNtBL_3map3MapNtNtCs27l1GJC5rMQ_3std2fs7ReadDirNvMNtB4_6resultINtB2i_6ResultNtB1K_8DirEntryNtNtNtB1M_2io5error5ErrorE6unwrapENCNvCsdd4p8w1Itnu_18build_script_build12compile_zstd0EEB3z_, symObjAddr: 0x1B8, symBinAddr: 0x1000025E8, symSize: 0x24 }
  - { offset: 0x1C64, size: 0x8, addend: 0x0, symName: __RINvNtCs9f3LFPSIp77_4core3ptr13drop_in_placeINtNtNtNtB4_4iter8adapters3map3MapNtNtCs27l1GJC5rMQ_3std2fs7ReadDirNvMNtB4_6resultINtB1O_6ResultNtB1g_8DirEntryNtNtNtB1i_2io5error5ErrorE6unwrapEECsdd4p8w1Itnu_18build_script_build, symObjAddr: 0x1DC, symBinAddr: 0x10000260C, symSize: 0x24 }
  - { offset: 0x1C93, size: 0x8, addend: 0x0, symName: __RINvNtCs9f3LFPSIp77_4core3ptr13drop_in_placeINtNtNtNtNtB4_5slice4sort6shared9smallsort10CopyOnDropNtNtCs27l1GJC5rMQ_3std4path7PathBufEECsdd4p8w1Itnu_18build_script_build, symObjAddr: 0x200, symBinAddr: 0x100002630, symSize: 0x24 }
  - { offset: 0x1CC2, size: 0x8, addend: 0x0, symName: __RINvNtCs9f3LFPSIp77_4core3ptr13drop_in_placeINtNtNtNtNtB4_5slice4sort6stable5merge10MergeStateNtNtCs27l1GJC5rMQ_3std4path7PathBufEECsdd4p8w1Itnu_18build_script_build, symObjAddr: 0x224, symBinAddr: 0x100002654, symSize: 0x24 }
  - { offset: 0x1CF1, size: 0x8, addend: 0x0, symName: __RINvNtCs9f3LFPSIp77_4core3ptr13drop_in_placeINtNvXsd_NtNtCsdze8u8oDPro_5alloc3vec9into_iterINtBP_8IntoIterppENtNtNtB4_3ops4drop4Drop4drop9DropGuardNtNtCs27l1GJC5rMQ_3std4path7PathBufNtNtBT_5alloc6GlobalEECsdd4p8w1Itnu_18build_script_build, symObjAddr: 0x248, symBinAddr: 0x100002678, symSize: 0x24 }
  - { offset: 0x1D20, size: 0x8, addend: 0x0, symName: __RINvNtCs9f3LFPSIp77_4core3ptr13drop_in_placeNCINvMsi_NtCsdze8u8oDPro_5alloc3vecINtBP_3VecNtNtBR_6string6StringE14extend_trustedINtNtNtNtB4_4iter8adapters3map3MapINtNtNtB4_5slice4iter4IterNtNtCs27l1GJC5rMQ_3std4path7PathBufENCNvCsdd4p8w1Itnu_18build_script_build4main0EE0EB3D_, symObjAddr: 0x26C, symBinAddr: 0x10000269C, symSize: 0x24 }
  - { offset: 0x1D4F, size: 0x8, addend: 0x0, symName: __RINvNtCs9f3LFPSIp77_4core3ptr13drop_in_placeNCINvNtCs27l1GJC5rMQ_3std2rt10lang_startuE0ECsdd4p8w1Itnu_18build_script_build, symObjAddr: 0x290, symBinAddr: 0x1000026C0, symSize: 0x10 }
  - { offset: 0x1D7E, size: 0x8, addend: 0x0, symName: __RINvNtCs9f3LFPSIp77_4core3ptr13drop_in_placeNCINvNtNtNtB4_4iter8adapters3map8map_foldRNtNtCs27l1GJC5rMQ_3std4path7PathBufNtNtCsdze8u8oDPro_5alloc6string6StringuNCNvCsdd4p8w1Itnu_18build_script_build4main0NCINvNvNtNtNtBP_6traits8iterator8Iterator8for_each4callB1V_NCINvMsi_NtB1Z_3vecINtB4m_3VecB1V_E14extend_trustedINtBL_3MapINtNtNtB4_5slice4iter4IterB1m_EB2y_EE0E0E0EB2C_, symObjAddr: 0x2A0, symBinAddr: 0x1000026D0, symSize: 0x24 }
  - { offset: 0x1DAD, size: 0x8, addend: 0x0, symName: __RINvNtCs9f3LFPSIp77_4core3ptr13drop_in_placeNCINvNvNtNtNtNtB4_4iter6traits8iterator8Iterator8for_each4callNtNtCsdze8u8oDPro_5alloc6string6StringNCINvMsi_NtB1K_3vecINtB2r_3VecB1G_E14extend_trustedINtNtNtBT_8adapters3map3MapINtNtNtB4_5slice4iter4IterNtNtCs27l1GJC5rMQ_3std4path7PathBufENCNvCsdd4p8w1Itnu_18build_script_build4main0EE0E0EB4C_, symObjAddr: 0x2C4, symBinAddr: 0x1000026F4, symSize: 0x24 }
  - { offset: 0x1DDC, size: 0x8, addend: 0x0, symName: __RINvNtCs9f3LFPSIp77_4core3ptr13drop_in_placeNtNtB4_3fmt9ArgumentsECsdd4p8w1Itnu_18build_script_build, symObjAddr: 0x2E8, symBinAddr: 0x100002718, symSize: 0x10 }
  - { offset: 0x1E0B, size: 0x8, addend: 0x0, symName: __RINvNtCs9f3LFPSIp77_4core3ptr13drop_in_placeNtNtCs27l1GJC5rMQ_3std2fs7ReadDirECsdd4p8w1Itnu_18build_script_build, symObjAddr: 0x2F8, symBinAddr: 0x100002728, symSize: 0x24 }
  - { offset: 0x1E3A, size: 0x8, addend: 0x0, symName: __RINvNtCs9f3LFPSIp77_4core3ptr13drop_in_placeNtNtCs27l1GJC5rMQ_3std2fs8DirEntryECsdd4p8w1Itnu_18build_script_build, symObjAddr: 0x31C, symBinAddr: 0x10000274C, symSize: 0x24 }
  - { offset: 0x1E69, size: 0x8, addend: 0x0, symName: __RINvNtCs9f3LFPSIp77_4core3ptr13drop_in_placeNtNtNtNtNtCs27l1GJC5rMQ_3std3sys3pal4unix2fs12InnerReadDirECsdd4p8w1Itnu_18build_script_build, symObjAddr: 0x340, symBinAddr: 0x100002770, symSize: 0x5C }
  - { offset: 0x1E98, size: 0x8, addend: 0x0, symName: __RINvNtCs9f3LFPSIp77_4core3ptr13drop_in_placeNtNtNtNtNtCs27l1GJC5rMQ_3std3sys3pal4unix2fs3DirECsdd4p8w1Itnu_18build_script_build, symObjAddr: 0x39C, symBinAddr: 0x1000027CC, symSize: 0x24 }
  - { offset: 0x1EC7, size: 0x8, addend: 0x0, symName: __RINvNtCs9f3LFPSIp77_4core3ptr13drop_in_placeNtNtNtNtNtCs27l1GJC5rMQ_3std3sys3pal4unix2fs7ReadDirECsdd4p8w1Itnu_18build_script_build, symObjAddr: 0x3C0, symBinAddr: 0x1000027F0, symSize: 0x24 }
  - { offset: 0x1EF6, size: 0x8, addend: 0x0, symName: __RINvNtCs9f3LFPSIp77_4core3ptr13drop_in_placeNtNtNtNtNtCs27l1GJC5rMQ_3std3sys3pal4unix2fs8DirEntryECsdd4p8w1Itnu_18build_script_build, symObjAddr: 0x3E4, symBinAddr: 0x100002814, symSize: 0x24 }
  - { offset: 0x1F25, size: 0x8, addend: 0x0, symName: __RINvNtCs9f3LFPSIp77_4core3ptr13drop_in_placeReECsdd4p8w1Itnu_18build_script_build, symObjAddr: 0x408, symBinAddr: 0x100002838, symSize: 0x10 }
  - { offset: 0x20F6, size: 0x8, addend: 0x0, symName: __RNvNvMNtNtCs9f3LFPSIp77_4core3ptr9const_ptrPp7sub_ptr18precondition_checkCsdd4p8w1Itnu_18build_script_build, symObjAddr: 0x28FC, symBinAddr: 0x100004D2C, symSize: 0x40 }
  - { offset: 0x3003, size: 0x8, addend: 0x0, symName: __RNvYNtNtCs27l1GJC5rMQ_3std4path7PathBufNtNtCs9f3LFPSIp77_4core3cmp10PartialOrd2ltCsdd4p8w1Itnu_18build_script_build, symObjAddr: 0x3A40, symBinAddr: 0x100005E70, symSize: 0x6C }
  - { offset: 0x3135, size: 0x8, addend: 0x0, symName: __RINvNtNtNtCs9f3LFPSIp77_4core5slice4sort6stable14driftsort_mainNtNtCs27l1GJC5rMQ_3std4path7PathBufNvYBZ_NtNtB8_3cmp10PartialOrd2ltINtNtCsdze8u8oDPro_5alloc3vec3VecBZ_EECsdd4p8w1Itnu_18build_script_build, symObjAddr: 0x500, symBinAddr: 0x100002930, symSize: 0x2AC }
  - { offset: 0x33F8, size: 0x8, addend: 0x0, symName: __RINvNtNtNtNtCs9f3LFPSIp77_4core5slice4sort6stable9quicksort16stable_partitionNtNtCs27l1GJC5rMQ_3std4path7PathBufNCINvB2_9quicksortB1d_NvYB1d_NtNtBa_3cmp10PartialOrd2ltE0ECsdd4p8w1Itnu_18build_script_build, symObjAddr: 0xBA4, symBinAddr: 0x100002FD4, symSize: 0x3D8 }
  - { offset: 0x3840, size: 0x8, addend: 0x0, symName: __RINvNtNtNtNtCs9f3LFPSIp77_4core5slice4sort6stable9quicksort16stable_partitionNtNtCs27l1GJC5rMQ_3std4path7PathBufNvYB1d_NtNtBa_3cmp10PartialOrd2ltECsdd4p8w1Itnu_18build_script_build, symObjAddr: 0xF7C, symBinAddr: 0x1000033AC, symSize: 0x3D8 }
  - { offset: 0x3C88, size: 0x8, addend: 0x0, symName: __RINvNtNtNtNtCs9f3LFPSIp77_4core5slice4sort6stable9quicksort9quicksortNtNtCs27l1GJC5rMQ_3std4path7PathBufNvYB15_NtNtBa_3cmp10PartialOrd2ltECsdd4p8w1Itnu_18build_script_build, symObjAddr: 0x1354, symBinAddr: 0x100003784, symSize: 0x3C8 }
  - { offset: 0x3F1E, size: 0x8, addend: 0x0, symName: __RNCINvNtNtNtNtCs9f3LFPSIp77_4core5slice4sort6stable9quicksort9quicksortNtNtCs27l1GJC5rMQ_3std4path7PathBufNvYB17_NtNtBc_3cmp10PartialOrd2ltE0Csdd4p8w1Itnu_18build_script_build, symObjAddr: 0x1F0C, symBinAddr: 0x10000433C, symSize: 0x48 }
  - { offset: 0x3F93, size: 0x8, addend: 0x0, symName: __RNvXs0_NtNtNtNtCs9f3LFPSIp77_4core5slice4sort6stable9quicksortNtNtCs27l1GJC5rMQ_3std4path7PathBufNtB5_8IsFreeze9is_freezeCsdd4p8w1Itnu_18build_script_build, symObjAddr: 0x2C78, symBinAddr: 0x1000050A8, symSize: 0xC }
  - { offset: 0x4115, size: 0x8, addend: 0x0, symName: __RINvNtNtNtNtCs9f3LFPSIp77_4core5slice4sort6shared5pivot11median3_recNtNtCs27l1GJC5rMQ_3std4path7PathBufNvYB14_NtNtBa_3cmp10PartialOrd2ltECsdd4p8w1Itnu_18build_script_build, symObjAddr: 0x7AC, symBinAddr: 0x100002BDC, symSize: 0x1F4 }
  - { offset: 0x430F, size: 0x8, addend: 0x0, symName: __RINvNtNtNtNtCs9f3LFPSIp77_4core5slice4sort6shared5pivot12choose_pivotNtNtCs27l1GJC5rMQ_3std4path7PathBufNvYB15_NtNtBa_3cmp10PartialOrd2ltECsdd4p8w1Itnu_18build_script_build, symObjAddr: 0x9A0, symBinAddr: 0x100002DD0, symSize: 0x204 }
  - { offset: 0x469F, size: 0x8, addend: 0x0, symName: __RINvNvMNtCs9f3LFPSIp77_4core5sliceSp7reverse7revswapNtNtCs27l1GJC5rMQ_3std4path7PathBufECsdd4p8w1Itnu_18build_script_build, symObjAddr: 0x171C, symBinAddr: 0x100003B4C, symSize: 0x1BC }
  - { offset: 0x481E, size: 0x8, addend: 0x0, symName: __RNvMNtCs9f3LFPSIp77_4core5sliceSNtNtCs27l1GJC5rMQ_3std4path7PathBuf22split_at_mut_uncheckedCsdd4p8w1Itnu_18build_script_build, symObjAddr: 0x2068, symBinAddr: 0x100004498, symSize: 0xF8 }
  - { offset: 0x49EC, size: 0x8, addend: 0x0, symName: __RNvMNtCs9f3LFPSIp77_4core5sliceSNtNtCs27l1GJC5rMQ_3std4path7PathBuf7reverseCsdd4p8w1Itnu_18build_script_build, symObjAddr: 0x2160, symBinAddr: 0x100004590, symSize: 0x10C }
  - { offset: 0x4BD9, size: 0x8, addend: 0x0, symName: __RNvNvMNtCs9f3LFPSIp77_4core5sliceSp22split_at_mut_unchecked18precondition_checkCsdd4p8w1Itnu_18build_script_build, symObjAddr: 0x28BC, symBinAddr: 0x100004CEC, symSize: 0x40 }
  - { offset: 0x4E6B, size: 0x8, addend: 0x0, symName: __RNvXs1_NtNtCs9f3LFPSIp77_4core5slice5indexNtNtNtB9_3ops11index_range10IndexRangeINtB5_10SliceIndexSINtNtNtB9_3mem12maybe_uninit11MaybeUninitjEE17get_unchecked_mutCsdd4p8w1Itnu_18build_script_build, symObjAddr: 0x2C84, symBinAddr: 0x1000050B4, symSize: 0xC8 }
  - { offset: 0x4FC4, size: 0x8, addend: 0x0, symName: __RINvXs2U_NtNtCs9f3LFPSIp77_4core5slice4iterINtB7_4IterNtNtCs27l1GJC5rMQ_3std4path7PathBufENtNtNtNtBb_4iter6traits8iterator8Iterator4folduNCINvNtNtB1w_8adapters3map8map_foldRBQ_NtNtCsdze8u8oDPro_5alloc6string6StringuNCNvCsdd4p8w1Itnu_18build_script_build4main0NCINvNvB1q_8for_each4callB2O_NCINvMsi_NtB2S_3vecINtB4L_3VecB2O_E14extend_trustedINtB2g_3MapBF_B3r_EE0E0E0EB3v_, symObjAddr: 0x1954, symBinAddr: 0x100003D84, symSize: 0x200 }
  - { offset: 0x51A6, size: 0x8, addend: 0x0, symName: __RINvXs2U_NtNtCs9f3LFPSIp77_4core5slice4iterINtB7_4IterReENtNtNtNtBb_4iter6traits8iterator8Iterator4findNCNvCsdd4p8w1Itnu_18build_script_build32flag_if_supported_with_fallbacks0EB1H_, symObjAddr: 0x1B54, symBinAddr: 0x100003F84, symSize: 0xB4 }
  - { offset: 0x520B, size: 0x8, addend: 0x0, symName: __RNvXs2U_NtNtCs9f3LFPSIp77_4core5slice4iterINtB6_4IterNtNtCs27l1GJC5rMQ_3std4path7PathBufENtNtNtNtBa_4iter6traits8iterator8Iterator9size_hintCsdd4p8w1Itnu_18build_script_build, symObjAddr: 0x2D80, symBinAddr: 0x1000051B0, symSize: 0xC0 }
  - { offset: 0x5888, size: 0x8, addend: 0x0, symName: __RNvNvMs9_NtCs9f3LFPSIp77_4core3numj13unchecked_add18precondition_checkCsdd4p8w1Itnu_18build_script_build, symObjAddr: 0x297C, symBinAddr: 0x100004DAC, symSize: 0x4C }
  - { offset: 0x592F, size: 0x8, addend: 0x0, symName: __RNvNvMs9_NtCs9f3LFPSIp77_4core3numj13unchecked_sub18precondition_checkCsdd4p8w1Itnu_18build_script_build, symObjAddr: 0x29C8, symBinAddr: 0x100004DF8, symSize: 0x54 }
  - { offset: 0x5C82, size: 0x8, addend: 0x0, symName: __RNCINvNtNtNtCs9f3LFPSIp77_4core4iter8adapters3map8map_foldRNtNtCs27l1GJC5rMQ_3std4path7PathBufNtNtCsdze8u8oDPro_5alloc6string6StringuNCNvCsdd4p8w1Itnu_18build_script_build4main0NCINvNvNtNtNtB8_6traits8iterator8Iterator8for_each4callB1u_NCINvMsi_NtB1y_3vecINtB3V_3VecB1u_E14extend_trustedINtB4_3MapINtNtNtBa_5slice4iter4IterBV_EB27_EE0E0E0B2b_, symObjAddr: 0x1E80, symBinAddr: 0x1000042B0, symSize: 0x8C }
  - { offset: 0x5D0C, size: 0x8, addend: 0x0, symName: __RINvXs0_NtNtNtCs9f3LFPSIp77_4core4iter8adapters3mapINtB6_3MapINtNtNtBc_5slice4iter4IterNtNtCs27l1GJC5rMQ_3std4path7PathBufENCNvCsdd4p8w1Itnu_18build_script_build4main0ENtNtNtBa_6traits8iterator8Iterator4folduNCINvNvB2G_8for_each4callNtNtCsdze8u8oDPro_5alloc6string6StringNCINvMsi_NtB3N_3vecINtB4u_3VecB3J_E14extend_trustedBN_E0E0EB21_, symObjAddr: 0x18D8, symBinAddr: 0x100003D08, symSize: 0x44 }
  - { offset: 0x5DA4, size: 0x8, addend: 0x0, symName: __RINvXs0_NtNtNtCs9f3LFPSIp77_4core4iter8adapters3mapINtB6_3MapNtNtCs27l1GJC5rMQ_3std2fs7ReadDirNvMNtBc_6resultINtB1x_6ResultNtBZ_8DirEntryNtNtNtB11_2io5error5ErrorE6unwrapENtNtNtBa_6traits8iterator8Iterator8try_folduNCINvNvB2J_8find_map5checkB1X_NtNtB11_4path7PathBufQNCNvCsdd4p8w1Itnu_18build_script_build12compile_zstd0E0INtNtNtBc_3ops12control_flow11ControlFlowB3V_EEB4l_, symObjAddr: 0x191C, symBinAddr: 0x100003D4C, symSize: 0x38 }
  - { offset: 0x5E22, size: 0x8, addend: 0x0, symName: __RNvXs0_NtNtNtCs9f3LFPSIp77_4core4iter8adapters3mapINtB5_3MapINtNtNtBb_5slice4iter4IterNtNtCs27l1GJC5rMQ_3std4path7PathBufENCNvCsdd4p8w1Itnu_18build_script_build4main0ENtNtNtB9_6traits8iterator8Iterator9size_hintB20_, symObjAddr: 0x2C30, symBinAddr: 0x100005060, symSize: 0x24 }
  - { offset: 0x5E69, size: 0x8, addend: 0x0, symName: __RNvXs0_NtNtNtCs9f3LFPSIp77_4core4iter8adapters3mapINtB5_3MapNtNtCs27l1GJC5rMQ_3std2fs7ReadDirNvMNtBb_6resultINtB1w_6ResultNtBY_8DirEntryNtNtNtB10_2io5error5ErrorE6unwrapENtNtNtB9_6traits8iterator8Iterator9size_hintCsdd4p8w1Itnu_18build_script_build, symObjAddr: 0x2C54, symBinAddr: 0x100005084, symSize: 0x24 }
  - { offset: 0x5EB6, size: 0x8, addend: 0x0, symName: __RNCINvNtNtNtCs9f3LFPSIp77_4core4iter8adapters3map12map_try_foldINtNtBa_6result6ResultNtNtCs27l1GJC5rMQ_3std2fs8DirEntryNtNtNtB1p_2io5error5ErrorEB1l_uINtNtNtBa_3ops12control_flow11ControlFlowNtNtB1p_4path7PathBufENvMB12_BZ_6unwrapNCINvNvNtNtNtB8_6traits8iterator8Iterator8find_map5checkB1l_B33_QNCNvCsdd4p8w1Itnu_18build_script_build12compile_zstd0E0E0B4N_, symObjAddr: 0x1DBC, symBinAddr: 0x1000041EC, symSize: 0xC4 }
  - { offset: 0x5FBB, size: 0x8, addend: 0x0, symName: __RNvXs0_NtNtNtCs9f3LFPSIp77_4core4iter8adapters10filter_mapINtB5_9FilterMapINtNtB7_3map3MapNtNtCs27l1GJC5rMQ_3std2fs7ReadDirNvMNtBb_6resultINtB20_6ResultNtB1s_8DirEntryNtNtNtB1u_2io5error5ErrorE6unwrapENCNvCsdd4p8w1Itnu_18build_script_build12compile_zstd0ENtNtNtB9_6traits8iterator8Iterator4nextB3h_, symObjAddr: 0x2BB8, symBinAddr: 0x100004FE8, symSize: 0x2C }
  - { offset: 0x6002, size: 0x8, addend: 0x0, symName: __RNvXs0_NtNtNtCs9f3LFPSIp77_4core4iter8adapters10filter_mapINtB5_9FilterMapINtNtB7_3map3MapNtNtCs27l1GJC5rMQ_3std2fs7ReadDirNvMNtBb_6resultINtB20_6ResultNtB1s_8DirEntryNtNtNtB1u_2io5error5ErrorE6unwrapENCNvCsdd4p8w1Itnu_18build_script_build12compile_zstd0ENtNtNtB9_6traits8iterator8Iterator9size_hintB3h_, symObjAddr: 0x2BE4, symBinAddr: 0x100005014, symSize: 0x4C }
  - { offset: 0x60C8, size: 0x8, addend: 0x0, symName: __RNCINvNvNtNtNtNtCs9f3LFPSIp77_4core4iter6traits8iterator8Iterator8for_each4callNtNtCsdze8u8oDPro_5alloc6string6StringNCINvMsi_NtB1j_3vecINtB20_3VecB1f_E14extend_trustedINtNtNtBc_8adapters3map3MapINtNtNtBe_5slice4iter4IterNtNtCs27l1GJC5rMQ_3std4path7PathBufENCNvCsdd4p8w1Itnu_18build_script_build4main0EE0E0B4b_, symObjAddr: 0x2004, symBinAddr: 0x100004434, symSize: 0x3C }
  - { offset: 0x6153, size: 0x8, addend: 0x0, symName: __RINvYINtNtNtCs9f3LFPSIp77_4core5slice4iter4IterNtNtCs27l1GJC5rMQ_3std4path7PathBufENtNtNtNtBa_4iter6traits8iterator8Iterator3mapNtNtCsdze8u8oDPro_5alloc6string6StringNCNvCsdd4p8w1Itnu_18build_script_build4main0EB2I_, symObjAddr: 0x1C08, symBinAddr: 0x100004038, symSize: 0x1C }
  - { offset: 0x61AB, size: 0x8, addend: 0x0, symName: __RINvYINtNtNtNtCs9f3LFPSIp77_4core4iter8adapters10filter_map9FilterMapINtNtB8_3map3MapNtNtCs27l1GJC5rMQ_3std2fs7ReadDirNvMNtBc_6resultINtB1V_6ResultNtB1n_8DirEntryNtNtNtB1p_2io5error5ErrorE6unwrapENCNvCsdd4p8w1Itnu_18build_script_build12compile_zstd0ENtNtNtBa_6traits8iterator8Iterator7collectINtNtCsdze8u8oDPro_5alloc3vec3VecNtNtB1p_4path7PathBufEEB3c_, symObjAddr: 0x1C24, symBinAddr: 0x100004054, symSize: 0x28 }
  - { offset: 0x61EB, size: 0x8, addend: 0x0, symName: __RINvYINtNtNtNtCs9f3LFPSIp77_4core4iter8adapters3map3MapINtNtNtBc_5slice4iter4IterNtNtCs27l1GJC5rMQ_3std4path7PathBufENCNvCsdd4p8w1Itnu_18build_script_build4main0ENtNtNtBa_6traits8iterator8Iterator7collectINtNtCsdze8u8oDPro_5alloc3vec3VecNtNtB3l_6string6StringEEB1V_, symObjAddr: 0x1C4C, symBinAddr: 0x10000407C, symSize: 0x2C }
  - { offset: 0x622B, size: 0x8, addend: 0x0, symName: __RINvYINtNtNtNtCs9f3LFPSIp77_4core4iter8adapters3map3MapINtNtNtBc_5slice4iter4IterNtNtCs27l1GJC5rMQ_3std4path7PathBufENCNvCsdd4p8w1Itnu_18build_script_build4main0ENtNtNtBa_6traits8iterator8Iterator8for_eachNCINvMsi_NtCsdze8u8oDPro_5alloc3vecINtB3q_3VecNtNtB3s_6string6StringE14extend_trustedB3_E0EB1V_, symObjAddr: 0x1C78, symBinAddr: 0x1000040A8, symSize: 0x44 }
  - { offset: 0x6296, size: 0x8, addend: 0x0, symName: __RINvYINtNtNtNtCs9f3LFPSIp77_4core4iter8adapters3map3MapNtNtCs27l1GJC5rMQ_3std2fs7ReadDirNvMNtBc_6resultINtB1r_6ResultNtBT_8DirEntryNtNtNtBV_2io5error5ErrorE6unwrapENtNtNtBa_6traits8iterator8Iterator10filter_mapNtNtBV_4path7PathBufNCNvCsdd4p8w1Itnu_18build_script_build12compile_zstd0EB3K_, symObjAddr: 0x1CBC, symBinAddr: 0x1000040EC, symSize: 0x18 }
  - { offset: 0x62EE, size: 0x8, addend: 0x0, symName: __RINvYINtNtNtNtCs9f3LFPSIp77_4core4iter8adapters3map3MapNtNtCs27l1GJC5rMQ_3std2fs7ReadDirNvMNtBc_6resultINtB1r_6ResultNtBT_8DirEntryNtNtNtBV_2io5error5ErrorE6unwrapENtNtNtBa_6traits8iterator8Iterator8find_mapNtNtBV_4path7PathBufQNCNvCsdd4p8w1Itnu_18build_script_build12compile_zstd0EB3I_, symObjAddr: 0x1CD4, symBinAddr: 0x100004104, symSize: 0xAC }
  - { offset: 0x637C, size: 0x8, addend: 0x0, symName: __RNCINvNvNtNtNtNtCs9f3LFPSIp77_4core4iter6traits8iterator8Iterator8find_map5checkNtNtCs27l1GJC5rMQ_3std2fs8DirEntryNtNtB1k_4path7PathBufQNCNvCsdd4p8w1Itnu_18build_script_build12compile_zstd0E0B2e_, symObjAddr: 0x1F54, symBinAddr: 0x100004384, symSize: 0xB0 }
  - { offset: 0x6471, size: 0x8, addend: 0x0, symName: __RNvYINtNtNtCsdze8u8oDPro_5alloc3vec9into_iter8IntoIterNtNtCs27l1GJC5rMQ_3std4path7PathBufENtNtNtNtCs9f3LFPSIp77_4core4iter6traits10exact_size17ExactSizeIterator3lenCsdd4p8w1Itnu_18build_script_build, symObjAddr: 0x38FC, symBinAddr: 0x100005D2C, symSize: 0xC4 }
  - { offset: 0x656F, size: 0x8, addend: 0x0, symName: __RNvXs_NtNtNtCs9f3LFPSIp77_4core4iter6traits7collectINtNtNtB8_8adapters10filter_map9FilterMapINtNtBS_3map3MapNtNtCs27l1GJC5rMQ_3std2fs7ReadDirNvMNtBa_6resultINtB2i_6ResultNtB1K_8DirEntryNtNtNtB1M_2io5error5ErrorE6unwrapENCNvCsdd4p8w1Itnu_18build_script_build12compile_zstd0ENtB4_12IntoIterator9into_iterB3z_, symObjAddr: 0x35A8, symBinAddr: 0x1000059D8, symSize: 0x18 }
  - { offset: 0x65A6, size: 0x8, addend: 0x0, symName: __RNvXs_NtNtNtCs9f3LFPSIp77_4core4iter6traits7collectINtNtNtB8_8adapters3map3MapINtNtNtBa_5slice4iter4IterNtNtCs27l1GJC5rMQ_3std4path7PathBufENCNvCsdd4p8w1Itnu_18build_script_build4main0ENtB4_12IntoIterator9into_iterB2i_, symObjAddr: 0x35C0, symBinAddr: 0x1000059F0, symSize: 0x1C }
  - { offset: 0x65DD, size: 0x8, addend: 0x0, symName: __RNvXs_NtNtNtCs9f3LFPSIp77_4core4iter6traits7collectINtNtNtCsdze8u8oDPro_5alloc3vec9into_iter8IntoIterNtNtCs27l1GJC5rMQ_3std4path7PathBufENtB4_12IntoIterator9into_iterCsdd4p8w1Itnu_18build_script_build, symObjAddr: 0x35DC, symBinAddr: 0x100005A0C, symSize: 0x14 }
  - { offset: 0x6E71, size: 0x8, addend: 0x0, symName: __RNSNvYNCINvNtCs27l1GJC5rMQ_3std2rt10lang_startuE0INtNtNtCs9f3LFPSIp77_4core3ops8function6FnOnceuE9call_once6vtableCsdd4p8w1Itnu_18build_script_build, symObjAddr: 0x2040, symBinAddr: 0x100004470, symSize: 0x28 }
  - { offset: 0x6EB5, size: 0x8, addend: 0x0, symName: __RNvYFEuINtNtNtCs9f3LFPSIp77_4core3ops8function6FnOnceuE9call_onceCsdd4p8w1Itnu_18build_script_build, symObjAddr: 0x38DC, symBinAddr: 0x100005D0C, symSize: 0x20 }
  - { offset: 0x6EF5, size: 0x8, addend: 0x0, symName: __RNvYNCINvNtCs27l1GJC5rMQ_3std2rt10lang_startuE0INtNtNtCs9f3LFPSIp77_4core3ops8function6FnOnceuE9call_onceCsdd4p8w1Itnu_18build_script_build, symObjAddr: 0x39C0, symBinAddr: 0x100005DF0, symSize: 0x4C }
  - { offset: 0x6F39, size: 0x8, addend: 0x0, symName: __RNvYNcNtNtCs27l1GJC5rMQ_3std2fs7ReadDir0INtNtNtCs9f3LFPSIp77_4core3ops8function6FnOnceTNtNtNtNtNtB8_3sys3pal4unix2fs7ReadDirEE9call_onceCsdd4p8w1Itnu_18build_script_build, symObjAddr: 0x3A0C, symBinAddr: 0x100005E3C, symSize: 0x34 }
  - { offset: 0x6F7D, size: 0x8, addend: 0x0, symName: __RNvYNvYReINtNtCs9f3LFPSIp77_4core7convert4IntoINtNtCsdze8u8oDPro_5alloc4sync3ArceEE4intoINtNtNtBc_3ops8function6FnOnceTB5_EE9call_onceCsdd4p8w1Itnu_18build_script_build, symObjAddr: 0x3BA8, symBinAddr: 0x100005FD8, symSize: 0x34 }
  - { offset: 0x6FC7, size: 0x8, addend: 0x0, symName: __RNvYNvMNtCs9f3LFPSIp77_4core6resultINtB5_6ResultNtNtCs27l1GJC5rMQ_3std2fs8DirEntryNtNtNtBO_2io5error5ErrorE6unwrapINtNtNtB7_3ops8function5FnMutTBx_EE8call_mutCsdd4p8w1Itnu_18build_script_build, symObjAddr: 0x3AAC, symBinAddr: 0x100005EDC, symSize: 0xCC }
  - { offset: 0x703E, size: 0x8, addend: 0x0, symName: __RNvYNvYNtNtCs27l1GJC5rMQ_3std4path7PathBufNtNtCs9f3LFPSIp77_4core3cmp10PartialOrd2ltINtNtNtBI_3ops8function5FnMutTRB5_B1O_EE8call_mutCsdd4p8w1Itnu_18build_script_build, symObjAddr: 0x3B78, symBinAddr: 0x100005FA8, symSize: 0x30 }
  - { offset: 0x7147, size: 0x8, addend: 0x0, symName: __RNvXs_NtNtCs9f3LFPSIp77_4core3ops11index_rangeNtB4_10IndexRangeNtNtNtNtB8_4iter6traits8iterator8Iterator4nextCsdd4p8w1Itnu_18build_script_build, symObjAddr: 0x34BC, symBinAddr: 0x1000058EC, symSize: 0xEC }
  - { offset: 0x779B, size: 0x8, addend: 0x0, symName: __RNvXNtCs9f3LFPSIp77_4core7convertRRReINtB2_5AsRefNtNtNtCs27l1GJC5rMQ_3std3ffi6os_str5OsStrE6as_refCsdd4p8w1Itnu_18build_script_build, symObjAddr: 0x2A1C, symBinAddr: 0x100004E4C, symSize: 0x28 }
  - { offset: 0x77DB, size: 0x8, addend: 0x0, symName: __RNvXNtCs9f3LFPSIp77_4core7convertRReINtB2_5AsRefNtNtCs27l1GJC5rMQ_3std4path4PathE6as_refCsdd4p8w1Itnu_18build_script_build, symObjAddr: 0x2A44, symBinAddr: 0x100004E74, symSize: 0x28 }
  - { offset: 0x79A9, size: 0x8, addend: 0x0, symName: __RNvXs0_NtNtCs9f3LFPSIp77_4core5array4iterINtB5_8IntoIterjKj2_ENtNtNtNtB9_4iter6traits8iterator8Iterator4nextCsdd4p8w1Itnu_18build_script_build, symObjAddr: 0x2AF4, symBinAddr: 0x100004F24, symSize: 0xC4 }
  - { offset: 0x7B64, size: 0x8, addend: 0x0, symName: __RNvXs2_NtNtCs9f3LFPSIp77_4core5array4iterINtB5_8IntoIterjKj2_ENtNtNtB9_3ops4drop4Drop4dropCsdd4p8w1Itnu_18build_script_build, symObjAddr: 0x2E40, symBinAddr: 0x100005270, symSize: 0x5C }
  - { offset: 0x7BFE, size: 0x8, addend: 0x0, symName: __RNvXsb_NtCs9f3LFPSIp77_4core5arrayRARej5_NtNtNtNtB7_4iter6traits7collect12IntoIterator9into_iterCsdd4p8w1Itnu_18build_script_build, symObjAddr: 0x35F0, symBinAddr: 0x100005A20, symSize: 0x58 }
  - { offset: 0x7E36, size: 0x8, addend: 0x0, symName: __RNvXsu_NtCsdze8u8oDPro_5alloc6stringNtNtCs27l1GJC5rMQ_3std4path7DisplayNtB5_8ToString9to_stringCsdd4p8w1Itnu_18build_script_build, symObjAddr: 0x36E0, symBinAddr: 0x100005B10, symSize: 0x124 }
  - { offset: 0x808D, size: 0x8, addend: 0x0, symName: __RNvXNvXsd_NtNtCsdze8u8oDPro_5alloc3vec9into_iterINtB8_8IntoIterppENtNtNtCs9f3LFPSIp77_4core3ops4drop4Drop4dropINtB2_9DropGuardNtNtCs27l1GJC5rMQ_3std4path7PathBufNtNtBc_5alloc6GlobalEB12_4dropCsdd4p8w1Itnu_18build_script_build, symObjAddr: 0x2A6C, symBinAddr: 0x100004E9C, symSize: 0x88 }
  - { offset: 0x81C3, size: 0x8, addend: 0x0, symName: __RNvXsd_NtNtCsdze8u8oDPro_5alloc3vec9into_iterINtB5_8IntoIterNtNtCs27l1GJC5rMQ_3std4path7PathBufENtNtNtCs9f3LFPSIp77_4core3ops4drop4Drop4dropCsdd4p8w1Itnu_18build_script_build, symObjAddr: 0x3648, symBinAddr: 0x100005A78, symSize: 0x98 }
  - { offset: 0x8263, size: 0x8, addend: 0x0, symName: __RNvXs3_NtNtCsdze8u8oDPro_5alloc3vec9into_iterINtB5_8IntoIterNtNtCs27l1GJC5rMQ_3std4path7PathBufENtNtNtNtCs9f3LFPSIp77_4core4iter6traits8iterator8Iterator4nextCsdd4p8w1Itnu_18build_script_build, symObjAddr: 0x2F2C, symBinAddr: 0x10000535C, symSize: 0xE4 }
  - { offset: 0x8418, size: 0x8, addend: 0x0, symName: __RNvXs3_NtNtCsdze8u8oDPro_5alloc3vec9into_iterINtB5_8IntoIterNtNtCs27l1GJC5rMQ_3std4path7PathBufENtNtNtNtCs9f3LFPSIp77_4core4iter6traits8iterator8Iterator9size_hintCsdd4p8w1Itnu_18build_script_build, symObjAddr: 0x3010, symBinAddr: 0x100005440, symSize: 0xB8 }
  - { offset: 0x8708, size: 0x8, addend: 0x0, symName: __RNvNtCsdze8u8oDPro_5alloc5alloc12alloc_zeroedCsdd4p8w1Itnu_18build_script_build, symObjAddr: 0x2714, symBinAddr: 0x100004B44, symSize: 0x80 }
  - { offset: 0x87D5, size: 0x8, addend: 0x0, symName: __RNvXs_NtCsdze8u8oDPro_5alloc5allocNtB4_6GlobalNtNtCs9f3LFPSIp77_4core5alloc9Allocator10deallocateCsdd4p8w1Itnu_18build_script_build, symObjAddr: 0x3430, symBinAddr: 0x100005860, symSize: 0x8C }
  - { offset: 0x88BA, size: 0x8, addend: 0x0, symName: __RNvNtCsdze8u8oDPro_5alloc5alloc15exchange_mallocCsdd4p8w1Itnu_18build_script_build, symObjAddr: 0x2794, symBinAddr: 0x100004BC4, symSize: 0xA8 }
  - { offset: 0x89C9, size: 0x8, addend: 0x0, symName: __RNvNtCsdze8u8oDPro_5alloc5alloc5allocCsdd4p8w1Itnu_18build_script_build, symObjAddr: 0x283C, symBinAddr: 0x100004C6C, symSize: 0x80 }
  - { offset: 0x8D74, size: 0x8, addend: 0x0, symName: __RINvNtCsdze8u8oDPro_5alloc5slice11stable_sortNtNtCs27l1GJC5rMQ_3std4path7PathBufNvYBH_NtNtCs9f3LFPSIp77_4core3cmp10PartialOrd2ltECsdd4p8w1Itnu_18build_script_build, symObjAddr: 0x418, symBinAddr: 0x100002848, symSize: 0xC4 }
  - { offset: 0x8DF0, size: 0x8, addend: 0x0, symName: __RNvMNtCsdze8u8oDPro_5alloc5sliceSNtNtCs27l1GJC5rMQ_3std4path7PathBuf4sortCsdd4p8w1Itnu_18build_script_build, symObjAddr: 0x2428, symBinAddr: 0x100004858, symSize: 0x28 }
  - { offset: 0x8F92, size: 0x8, addend: 0x0, symName: __RNvXsI_NtCsdze8u8oDPro_5alloc4syncINtB5_4WeakNtNtNtNtNtCs27l1GJC5rMQ_3std3sys3pal4unix2fs12InnerReadDirRNtNtB7_5alloc6GlobalENtNtNtCs9f3LFPSIp77_4core3ops4drop4Drop4dropCsdd4p8w1Itnu_18build_script_build, symObjAddr: 0x3128, symBinAddr: 0x100005558, symSize: 0x16C }
  - { offset: 0x9210, size: 0x8, addend: 0x0, symName: __RNvXsz_NtCsdze8u8oDPro_5alloc4syncINtB5_3ArcNtNtNtNtNtCs27l1GJC5rMQ_3std3sys3pal4unix2fs12InnerReadDirENtNtNtCs9f3LFPSIp77_4core3ops4drop4Drop4dropCsdd4p8w1Itnu_18build_script_build, symObjAddr: 0x381C, symBinAddr: 0x100005C4C, symSize: 0xC0 }
  - { offset: 0x9B2F, size: 0x8, addend: 0x0, symName: __RINvMsZ_NtCs27l1GJC5rMQ_3std4pathNtB6_4Path3newNtNtNtB8_3ffi6os_str8OsStringECsdd4p8w1Itnu_18build_script_build, symObjAddr: 0x0, symBinAddr: 0x100002430, symSize: 0x24 }
  - { offset: 0xA16A, size: 0x8, addend: 0x0, symName: __RNvMNtCsdze8u8oDPro_5alloc5allocNtB2_6Global10alloc_implCsdd4p8w1Itnu_18build_script_build, symObjAddr: 0x226C, symBinAddr: 0x10000469C, symSize: 0x1BC }
  - { offset: 0xA55D, size: 0x8, addend: 0x0, symName: __RNvMNtNtNtCs9f3LFPSIp77_4core5slice4sort6stableINtB2_14AlignedStorageNtNtCs27l1GJC5rMQ_3std4path7PathBufKj1000_E19as_uninit_slice_mutCsdd4p8w1Itnu_18build_script_build, symObjAddr: 0x2450, symBinAddr: 0x100004880, symSize: 0x7C }
  - { offset: 0xA611, size: 0x8, addend: 0x0, symName: __RNvMNtNtNtNtCs9f3LFPSIp77_4core5slice4sort6stable9quicksortINtB2_14PartitionStateNtNtCs27l1GJC5rMQ_3std4path7PathBufE13partition_oneCsdd4p8w1Itnu_18build_script_build, symObjAddr: 0x24CC, symBinAddr: 0x1000048FC, symSize: 0x138 }
  - { offset: 0xA8CC, size: 0x8, addend: 0x0, symName: __RNvMsZ_NtCs27l1GJC5rMQ_3std4pathNtB5_4Path6existsCsdd4p8w1Itnu_18build_script_build, symObjAddr: 0x2604, symBinAddr: 0x100004A34, symSize: 0x74 }
  - { offset: 0xA934, size: 0x8, addend: 0x0, symName: __RNvMsZ_NtCs27l1GJC5rMQ_3std4pathNtB5_4Path7displayCsdd4p8w1Itnu_18build_script_build, symObjAddr: 0x2678, symBinAddr: 0x100004AA8, symSize: 0x24 }
  - { offset: 0xA9B0, size: 0x8, addend: 0x0, symName: __RNvMsj_NtCsdze8u8oDPro_5alloc4syncINtB5_3ArcNtNtNtNtNtCs27l1GJC5rMQ_3std3sys3pal4unix2fs12InnerReadDirE9drop_slowCsdd4p8w1Itnu_18build_script_build, symObjAddr: 0x269C, symBinAddr: 0x100004ACC, symSize: 0x50 }
  - { offset: 0xAA21, size: 0x8, addend: 0x0, symName: __RNvMsl_NtNtCs27l1GJC5rMQ_3std3ffi6os_strNtB5_5OsStr15to_string_lossyCsdd4p8w1Itnu_18build_script_build, symObjAddr: 0x26EC, symBinAddr: 0x100004B1C, symSize: 0x28 }
  - { offset: 0xBE4C, size: 0x8, addend: 0x0, symName: __RINvMNtCs9f3LFPSIp77_4core6optionINtB3_6OptionReE3mapINtNtCsdze8u8oDPro_5alloc4sync3ArceENvYBI_INtNtB5_7convert4IntoBP_E4intoECsdd4p8w1Itnu_18build_script_build, symObjAddr: 0x0, symBinAddr: 0x100006018, symSize: 0x64 }
  - { offset: 0xC09A, size: 0x8, addend: 0x0, symName: __RNvXs1i_NtCsdze8u8oDPro_5alloc6stringNtB6_6StringINtNtCs9f3LFPSIp77_4core3cmp9PartialEqReE2eqCsdd4p8w1Itnu_18build_script_build, symObjAddr: 0x35BC, symBinAddr: 0x1000095D4, symSize: 0x88 }
  - { offset: 0xC188, size: 0x8, addend: 0x0, symName: __RNvXsT_NtCsdze8u8oDPro_5alloc6stringNtB5_6StringNtNtCs9f3LFPSIp77_4core3fmt5Write10write_charCsdd4p8w1Itnu_18build_script_build, symObjAddr: 0x3948, symBinAddr: 0x100009960, symSize: 0x30 }
  - { offset: 0xC1C5, size: 0x8, addend: 0x0, symName: __RNvXsT_NtCsdze8u8oDPro_5alloc6stringNtB5_6StringNtNtCs9f3LFPSIp77_4core3fmt5Write9write_strCsdd4p8w1Itnu_18build_script_build, symObjAddr: 0x3978, symBinAddr: 0x100009990, symSize: 0x38 }
  - { offset: 0xC208, size: 0x8, addend: 0x0, symName: __RNvXsi_NtCsdze8u8oDPro_5alloc6stringNtB5_6StringNtNtCs9f3LFPSIp77_4core7default7Default7defaultCsdd4p8w1Itnu_18build_script_build, symObjAddr: 0x3C44, symBinAddr: 0x100009C5C, symSize: 0x3C }
  - { offset: 0xC2E5, size: 0x8, addend: 0x0, symName: __RNvXsq_NtCsdze8u8oDPro_5alloc6stringNtB5_6StringNtNtNtCs9f3LFPSIp77_4core3ops5deref5Deref5derefCsdd4p8w1Itnu_18build_script_build, symObjAddr: 0x3D18, symBinAddr: 0x100009D30, symSize: 0x24 }
  - { offset: 0xC319, size: 0x8, addend: 0x0, symName: __RNvXsj_NtCsdze8u8oDPro_5alloc6stringNtB5_6StringNtNtCs9f3LFPSIp77_4core3fmt7Display3fmtCsdd4p8w1Itnu_18build_script_build, symObjAddr: 0x3C80, symBinAddr: 0x100009C98, symSize: 0x98 }
  - { offset: 0xCA57, size: 0x8, addend: 0x0, symName: __RINvXsd_NtCsdze8u8oDPro_5alloc3vecINtB6_3VecNtNtB8_6string6StringEINtNtNtNtCs9f3LFPSIp77_4core4iter6traits7collect12FromIteratorBG_E9from_iterINtNtNtB19_8adapters3map3MapINtNtNtB1b_5slice4iter4IterNtNtCs27l1GJC5rMQ_3std4path7PathBufENCNvCsdd4p8w1Itnu_18build_script_build4main0EEB3N_, symObjAddr: 0x1AE0, symBinAddr: 0x100007AF8, symSize: 0x38 }
  - { offset: 0xCA97, size: 0x8, addend: 0x0, symName: __RINvXsd_NtCsdze8u8oDPro_5alloc3vecINtB6_3VecNtNtCs27l1GJC5rMQ_3std4path7PathBufEINtNtNtNtCs9f3LFPSIp77_4core4iter6traits7collect12FromIteratorBG_E9from_iterINtNtNtB1n_8adapters10filter_map9FilterMapINtNtB2z_3map3MapNtNtBK_2fs7ReadDirNvMNtB1p_6resultINtB3M_6ResultNtB3t_8DirEntryNtNtNtBK_2io5error5ErrorE6unwrapENCNvCsdd4p8w1Itnu_18build_script_build12compile_zstd0EEB53_, symObjAddr: 0x1B18, symBinAddr: 0x100007B30, symSize: 0x38 }
  - { offset: 0xCAE2, size: 0x8, addend: 0x0, symName: __RNCINvMsi_NtCsdze8u8oDPro_5alloc3vecINtB8_3VecNtNtBa_6string6StringE14extend_trustedINtNtNtNtCs9f3LFPSIp77_4core4iter8adapters3map3MapINtNtNtB1t_5slice4iter4IterNtNtCs27l1GJC5rMQ_3std4path7PathBufENCNvCsdd4p8w1Itnu_18build_script_build4main0EE0B3d_, symObjAddr: 0x1CE8, symBinAddr: 0x100007D00, symSize: 0x6C }
  - { offset: 0xCC9E, size: 0x8, addend: 0x0, symName: __RNvXNtNtCsdze8u8oDPro_5alloc3vec11spec_extendINtB4_3VecNtNtCs27l1GJC5rMQ_3std4path7PathBufEINtB2_10SpecExtendBR_INtNtNtNtCs9f3LFPSIp77_4core4iter8adapters10filter_map9FilterMapINtNtB1R_3map3MapNtNtBV_2fs7ReadDirNvMNtB1V_6resultINtB3q_6ResultNtB37_8DirEntryNtNtNtBV_2io5error5ErrorE6unwrapENCNvCsdd4p8w1Itnu_18build_script_build12compile_zstd0EE11spec_extendB4H_, symObjAddr: 0x32C8, symBinAddr: 0x1000092E0, symSize: 0x30 }
  - { offset: 0xCCF5, size: 0x8, addend: 0x0, symName: __RNvXs_NtNtCsdze8u8oDPro_5alloc3vec11spec_extendINtB6_3VecNtNtB8_6string6StringEINtB4_10SpecExtendBT_INtNtNtNtCs9f3LFPSIp77_4core4iter8adapters3map3MapINtNtNtB1J_5slice4iter4IterNtNtCs27l1GJC5rMQ_3std4path7PathBufENCNvCsdd4p8w1Itnu_18build_script_build4main0EE11spec_extendB3t_, symObjAddr: 0x39B0, symBinAddr: 0x1000099C8, symSize: 0x34 }
  - { offset: 0xCD52, size: 0x8, addend: 0x0, symName: __RNvXNtNtCsdze8u8oDPro_5alloc3vec14spec_from_iterINtB4_3VecNtNtB6_6string6StringEINtB2_12SpecFromIterBU_INtNtNtNtCs9f3LFPSIp77_4core4iter8adapters3map3MapINtNtNtB1M_5slice4iter4IterNtNtCs27l1GJC5rMQ_3std4path7PathBufENCNvCsdd4p8w1Itnu_18build_script_build4main0EE9from_iterB3w_, symObjAddr: 0x32F8, symBinAddr: 0x100009310, symSize: 0x2C }
  - { offset: 0xCD90, size: 0x8, addend: 0x0, symName: __RNvXNtNtCsdze8u8oDPro_5alloc3vec14spec_from_iterINtB4_3VecNtNtCs27l1GJC5rMQ_3std4path7PathBufEINtB2_12SpecFromIterBU_INtNtNtNtCs9f3LFPSIp77_4core4iter8adapters10filter_map9FilterMapINtNtB1W_3map3MapNtNtBY_2fs7ReadDirNvMNtB20_6resultINtB3v_6ResultNtB3c_8DirEntryNtNtNtBY_2io5error5ErrorE6unwrapENCNvCsdd4p8w1Itnu_18build_script_build12compile_zstd0EE9from_iterB4M_, symObjAddr: 0x3324, symBinAddr: 0x10000933C, symSize: 0x28 }
  - { offset: 0xCDDA, size: 0x8, addend: 0x0, symName: __RNvXNtNtCsdze8u8oDPro_5alloc3vec21spec_from_iter_nestedINtB4_3VecNtNtCs27l1GJC5rMQ_3std4path7PathBufEINtB2_18SpecFromIterNestedB11_INtNtNtNtCs9f3LFPSIp77_4core4iter8adapters10filter_map9FilterMapINtNtB2a_3map3MapNtNtB15_2fs7ReadDirNvMNtB2e_6resultINtB3K_6ResultNtB3q_8DirEntryNtNtNtB15_2io5error5ErrorE6unwrapENCNvCsdd4p8w1Itnu_18build_script_build12compile_zstd0EE9from_iterB52_, symObjAddr: 0x334C, symBinAddr: 0x100009364, symSize: 0x24C }
  - { offset: 0xD0F0, size: 0x8, addend: 0x0, symName: __RNvXs_NtNtCsdze8u8oDPro_5alloc3vec21spec_from_iter_nestedINtB6_3VecNtNtB8_6string6StringEINtB4_18SpecFromIterNestedB13_INtNtNtNtCs9f3LFPSIp77_4core4iter8adapters3map3MapINtNtNtB22_5slice4iter4IterNtNtCs27l1GJC5rMQ_3std4path7PathBufENCNvCsdd4p8w1Itnu_18build_script_build4main0EE9from_iterB3M_, symObjAddr: 0x39E4, symBinAddr: 0x1000099FC, symSize: 0x160 }
  - { offset: 0xD1CD, size: 0x8, addend: 0x0, symName: __RNvXs7_NtCsdze8u8oDPro_5alloc3vecINtB5_3VecNtNtCs27l1GJC5rMQ_3std4path7PathBufENtNtNtCs9f3LFPSIp77_4core3ops5deref8DerefMut9deref_mutCsdd4p8w1Itnu_18build_script_build, symObjAddr: 0x3874, symBinAddr: 0x10000988C, symSize: 0x24 }
  - { offset: 0xD213, size: 0x8, addend: 0x0, symName: __RNvXse_NtCsdze8u8oDPro_5alloc3vecINtB5_3VecNtNtCs27l1GJC5rMQ_3std4path7PathBufENtNtNtNtCs9f3LFPSIp77_4core4iter6traits7collect12IntoIterator9into_iterCsdd4p8w1Itnu_18build_script_build, symObjAddr: 0x3B44, symBinAddr: 0x100009B5C, symSize: 0x100 }
  - { offset: 0xE0FC, size: 0x8, addend: 0x0, symName: __RNvXs6_NtCsdze8u8oDPro_5alloc5boxedINtB5_3BoxANtNtCs27l1GJC5rMQ_3std4path7PathBufj1_ENtNtNtCs9f3LFPSIp77_4core3ops4drop4Drop4dropCsdd4p8w1Itnu_18build_script_build, symObjAddr: 0x37C4, symBinAddr: 0x1000097DC, symSize: 0xB0 }
  - { offset: 0xE286, size: 0x8, addend: 0x0, symName: __RNvXs8_NtCsdze8u8oDPro_5alloc5sliceINtNtB7_3vec3VecNtNtCs27l1GJC5rMQ_3std4path7PathBufEINtNtNtNtCs9f3LFPSIp77_4core5slice4sort6stable8BufGuardBN_E13with_capacityCsdd4p8w1Itnu_18build_script_build, symObjAddr: 0x3898, symBinAddr: 0x1000098B0, symSize: 0x44 }
  - { offset: 0xE327, size: 0x8, addend: 0x0, symName: __RNvXs8_NtCsdze8u8oDPro_5alloc5sliceINtNtB7_3vec3VecNtNtCs27l1GJC5rMQ_3std4path7PathBufEINtNtNtNtCs9f3LFPSIp77_4core5slice4sort6stable8BufGuardBN_E19as_uninit_slice_mutCsdd4p8w1Itnu_18build_script_build, symObjAddr: 0x38DC, symBinAddr: 0x1000098F4, symSize: 0x24 }
  - { offset: 0xF05B, size: 0x8, addend: 0x0, symName: __RINvNtCs9f3LFPSIp77_4core3ptr19swap_nonoverlappingNtNtCs27l1GJC5rMQ_3std4path7PathBufECsdd4p8w1Itnu_18build_script_build, symObjAddr: 0xFB8, symBinAddr: 0x100006FD0, symSize: 0x154 }
  - { offset: 0xF7FE, size: 0x8, addend: 0x0, symName: __RNvNvNtCs9f3LFPSIp77_4core3ptr13read_volatile18precondition_checkCsdd4p8w1Itnu_18build_script_build, symObjAddr: 0x2B60, symBinAddr: 0x100008B78, symSize: 0xEC }
  - { offset: 0xF909, size: 0x8, addend: 0x0, symName: __RNvNvNtCs9f3LFPSIp77_4core3ptr19swap_nonoverlapping18precondition_checkCsdd4p8w1Itnu_18build_script_build, symObjAddr: 0x2C4C, symBinAddr: 0x100008C64, symSize: 0x1F0 }
  - { offset: 0x11182, size: 0x8, addend: 0x0, symName: __RINvYNtNtCs27l1GJC5rMQ_3std2fs7ReadDirNtNtNtNtCs9f3LFPSIp77_4core4iter6traits8iterator8Iterator3mapNtB5_8DirEntryNvMNtBI_6resultINtB1Q_6ResultB1z_NtNtNtB7_2io5error5ErrorE6unwrapECsdd4p8w1Itnu_18build_script_build, symObjAddr: 0x1B50, symBinAddr: 0x100007B68, symSize: 0x18 }
  - { offset: 0x111DA, size: 0x8, addend: 0x0, symName: __RINvYNtNtCs27l1GJC5rMQ_3std2fs7ReadDirNtNtNtNtCs9f3LFPSIp77_4core4iter6traits8iterator8Iterator8try_folduNCINvNtNtBG_8adapters3map12map_try_foldINtNtBI_6result6ResultNtB5_8DirEntryNtNtNtB7_2io5error5ErrorEB2E_uINtNtNtBI_3ops12control_flow11ControlFlowNtNtB7_4path7PathBufENvMB2l_B2i_6unwrapNCINvNvBA_8find_map5checkB2E_B41_QNCNvCsdd4p8w1Itnu_18build_script_build12compile_zstd0E0E0B3m_EB5g_, symObjAddr: 0x1B68, symBinAddr: 0x100007B80, symSize: 0x180 }
  - { offset: 0x11296, size: 0x8, addend: 0x0, symName: __RNvYNtNtCs27l1GJC5rMQ_3std2fs7ReadDirNtNtNtNtCs9f3LFPSIp77_4core4iter6traits8iterator8Iterator9size_hintCsdd4p8w1Itnu_18build_script_build, symObjAddr: 0x3D3C, symBinAddr: 0x100009D54, symSize: 0x34 }
  - { offset: 0x112F7, size: 0x8, addend: 0x0, symName: __RNvXsF_NtNtCs9f3LFPSIp77_4core4iter5rangejNtB5_4Step17forward_uncheckedCsdd4p8w1Itnu_18build_script_build, symObjAddr: 0x3900, symBinAddr: 0x100009918, symSize: 0x48 }
  - { offset: 0x1160F, size: 0x8, addend: 0x0, symName: __RINvNtNtNtNtCs9f3LFPSIp77_4core5slice4sort6stable5drift10create_runNtNtCs27l1GJC5rMQ_3std4path7PathBufNvYB13_NtNtBa_3cmp10PartialOrd2ltECsdd4p8w1Itnu_18build_script_build, symObjAddr: 0x110C, symBinAddr: 0x100007124, symSize: 0x3E0 }
  - { offset: 0x11BD2, size: 0x8, addend: 0x0, symName: __RINvNtNtNtNtCs9f3LFPSIp77_4core5slice4sort6stable5drift16stable_quicksortNtNtCs27l1GJC5rMQ_3std4path7PathBufNvYB19_NtNtBa_3cmp10PartialOrd2ltECsdd4p8w1Itnu_18build_script_build, symObjAddr: 0x14EC, symBinAddr: 0x100007504, symSize: 0xB4 }
  - { offset: 0x11DE5, size: 0x8, addend: 0x0, symName: __RINvNtNtNtNtCs9f3LFPSIp77_4core5slice4sort6stable5drift4sortNtNtCs27l1GJC5rMQ_3std4path7PathBufNvYBW_NtNtBa_3cmp10PartialOrd2ltECsdd4p8w1Itnu_18build_script_build, symObjAddr: 0x15A0, symBinAddr: 0x1000075B8, symSize: 0x540 }
  - { offset: 0x1257D, size: 0x8, addend: 0x0, symName: __RNvNvXs0_NtNtCs9f3LFPSIp77_4core5slice5indexjINtB7_10SliceIndexSpE13get_unchecked18precondition_checkCsdd4p8w1Itnu_18build_script_build, symObjAddr: 0x31E8, symBinAddr: 0x100009200, symSize: 0x40 }
  - { offset: 0x127EC, size: 0x8, addend: 0x0, symName: __RNvNvXs2_NtNtCs9f3LFPSIp77_4core5slice5indexINtNtNtBb_3ops5range5RangejEINtB7_10SliceIndexSpE17get_unchecked_mut18precondition_checkCsdd4p8w1Itnu_18build_script_build, symObjAddr: 0x3268, symBinAddr: 0x100009280, symSize: 0x60 }
  - { offset: 0x12831, size: 0x8, addend: 0x0, symName: __RNvXs2_NtNtCs9f3LFPSIp77_4core5slice5indexINtNtNtB9_3ops5range5RangejEINtB5_10SliceIndexSNtNtCs27l1GJC5rMQ_3std4path7PathBufE9index_mutCsdd4p8w1Itnu_18build_script_build, symObjAddr: 0x3644, symBinAddr: 0x10000965C, symSize: 0xD0 }
  - { offset: 0x129F3, size: 0x8, addend: 0x0, symName: __RNvNvXs1_NtNtCs9f3LFPSIp77_4core5slice5indexNtNtNtBb_3ops11index_range10IndexRangeINtB7_10SliceIndexSpE17get_unchecked_mut18precondition_checkCsdd4p8w1Itnu_18build_script_build, symObjAddr: 0x3228, symBinAddr: 0x100009240, symSize: 0x40 }
  - { offset: 0x12AEB, size: 0x8, addend: 0x0, symName: __RNvXs5_NtNtCs9f3LFPSIp77_4core5slice5indexINtNtNtB9_3ops5range9RangeFromjEINtB5_10SliceIndexSNtNtCs27l1GJC5rMQ_3std4path7PathBufE9index_mutCsdd4p8w1Itnu_18build_script_build, symObjAddr: 0x3714, symBinAddr: 0x10000972C, symSize: 0xB0 }
  - { offset: 0x12D64, size: 0x8, addend: 0x0, symName: __RNvNvNtNtCs9f3LFPSIp77_4core5slice3raw14from_raw_parts18precondition_checkCsdd4p8w1Itnu_18build_script_build, symObjAddr: 0x2F20, symBinAddr: 0x100008F38, symSize: 0x164 }
  - { offset: 0x12EBE, size: 0x8, addend: 0x0, symName: __RNvNvNtNtCs9f3LFPSIp77_4core5slice3raw18from_raw_parts_mut18precondition_checkCsdd4p8w1Itnu_18build_script_build, symObjAddr: 0x3084, symBinAddr: 0x10000909C, symSize: 0x164 }
  - { offset: 0x13484, size: 0x8, addend: 0x0, symName: __RINvNtCs9f3LFPSIp77_4core10intrinsics10typed_swapNtNtCs27l1GJC5rMQ_3std4path7PathBufECsdd4p8w1Itnu_18build_script_build, symObjAddr: 0xF7C, symBinAddr: 0x100006F94, symSize: 0x3C }
  - { offset: 0x134C6, size: 0x8, addend: 0x0, symName: __RNvNtCs9f3LFPSIp77_4core10intrinsics6likelyCsdd4p8w1Itnu_18build_script_build, symObjAddr: 0x26E8, symBinAddr: 0x100008700, symSize: 0x10 }
  - { offset: 0x134F4, size: 0x8, addend: 0x0, symName: __RNvNtCs9f3LFPSIp77_4core10intrinsics8unlikelyCsdd4p8w1Itnu_18build_script_build, symObjAddr: 0x26F8, symBinAddr: 0x100008710, symSize: 0x10 }
  - { offset: 0x13527, size: 0x8, addend: 0x0, symName: __RNvNvNtCs9f3LFPSIp77_4core10intrinsics19copy_nonoverlapping18precondition_checkCsdd4p8w1Itnu_18build_script_build, symObjAddr: 0x2974, symBinAddr: 0x10000898C, symSize: 0x1EC }
  - { offset: 0x13B3C, size: 0x8, addend: 0x0, symName: __RNvNtNtCs9f3LFPSIp77_4core4char7methods15encode_utf8_rawCsdd4p8w1Itnu_18build_script_build, symObjAddr: 0x2708, symBinAddr: 0x100008720, symSize: 0x21C }
  - { offset: 0x13DFC, size: 0x8, addend: 0x0, symName: __RNvNvMNtNtCs9f3LFPSIp77_4core5alloc6layoutNtB4_6Layout25from_size_align_unchecked18precondition_checkCsdd4p8w1Itnu_18build_script_build, symObjAddr: 0x2924, symBinAddr: 0x10000893C, symSize: 0x50 }
  - { offset: 0x13F2F, size: 0x8, addend: 0x0, symName: __RNvNvNtCs9f3LFPSIp77_4core9ub_checks17is_nonoverlapping7runtimeCsdd4p8w1Itnu_18build_script_build, symObjAddr: 0x2E3C, symBinAddr: 0x100008E54, symSize: 0xE4 }
  - { offset: 0x14198, size: 0x8, addend: 0x0, symName: __RNvXs1_NtCs9f3LFPSIp77_4core7convertINtNtB7_6option6OptionReEINtB5_4IntoBy_E4intoCsdd4p8w1Itnu_18build_script_build, symObjAddr: 0x3598, symBinAddr: 0x1000095B0, symSize: 0x24 }
  - { offset: 0x149C8, size: 0x8, addend: 0x0, symName: __RINvNtCs27l1GJC5rMQ_3std2fs14create_dir_allRNtNtB4_4path7PathBufECsdd4p8w1Itnu_18build_script_build, symObjAddr: 0xD50, symBinAddr: 0x100006D68, symSize: 0x88 }
  - { offset: 0x14A32, size: 0x8, addend: 0x0, symName: __RINvNtCs27l1GJC5rMQ_3std2fs4copyNtNtB4_4path7PathBufBu_ECsdd4p8w1Itnu_18build_script_build, symObjAddr: 0xDD8, symBinAddr: 0x100006DF0, symSize: 0xC4 }
  - { offset: 0x14A83, size: 0x8, addend: 0x0, symName: __RINvNtCs27l1GJC5rMQ_3std2fs8read_dirRReECsdd4p8w1Itnu_18build_script_build, symObjAddr: 0xE9C, symBinAddr: 0x100006EB4, symSize: 0xE0 }
  - { offset: 0x14B09, size: 0x8, addend: 0x0, symName: __RNcNtNtCs27l1GJC5rMQ_3std2fs7ReadDir0Csdd4p8w1Itnu_18build_script_build, symObjAddr: 0x1D54, symBinAddr: 0x100007D6C, symSize: 0x18 }
  - { offset: 0x152B1, size: 0x8, addend: 0x0, symName: __RINvMNtCs9f3LFPSIp77_4core6optionINtB3_6OptionReE3mapINtNtCsdze8u8oDPro_5alloc4sync3ArceENvYBI_INtNtB5_7convert4IntoBP_E4intoECsdd4p8w1Itnu_18build_script_build, symObjAddr: 0x0, symBinAddr: 0x100006018, symSize: 0x64 }
  - { offset: 0x1534A, size: 0x8, addend: 0x0, symName: __RINvMNtCs9f3LFPSIp77_4core6resultINtB3_6ResultNtNtCsdze8u8oDPro_5alloc6string6StringNtNtCs27l1GJC5rMQ_3std3env8VarErrorE6map_orbNCNvCsdd4p8w1Itnu_18build_script_build12compile_zstds_0EB26_, symObjAddr: 0x64, symBinAddr: 0x10000607C, symSize: 0x100 }
  - { offset: 0x158E9, size: 0x8, addend: 0x0, symName: __RINvMs3_Cs41t77sgS83u_2ccNtB6_5Build17flag_if_supportedReECsdd4p8w1Itnu_18build_script_build, symObjAddr: 0x164, symBinAddr: 0x10000617C, symSize: 0xA4 }
  - { offset: 0x1594B, size: 0x8, addend: 0x0, symName: __RINvMs3_Cs41t77sgS83u_2ccNtB6_5Build17is_flag_supportedRRReECsdd4p8w1Itnu_18build_script_build, symObjAddr: 0x208, symBinAddr: 0x100006220, symSize: 0x23C }
  - { offset: 0x159FB, size: 0x8, addend: 0x0, symName: __RINvMs3_Cs41t77sgS83u_2ccNtB6_5Build4fileNtNtCs27l1GJC5rMQ_3std4path7PathBufECsdd4p8w1Itnu_18build_script_build, symObjAddr: 0x444, symBinAddr: 0x10000645C, symSize: 0xB8 }
  - { offset: 0x15A37, size: 0x8, addend: 0x0, symName: __RINvMs3_Cs41t77sgS83u_2ccNtB6_5Build4fileReECsdd4p8w1Itnu_18build_script_build, symObjAddr: 0x4FC, symBinAddr: 0x100006514, symSize: 0xA4 }
  - { offset: 0x15A72, size: 0x8, addend: 0x0, symName: __RINvMs3_Cs41t77sgS83u_2ccNtB6_5Build4flagRReECsdd4p8w1Itnu_18build_script_build, symObjAddr: 0x5A0, symBinAddr: 0x1000065B8, symSize: 0xA0 }
  - { offset: 0x15AAD, size: 0x8, addend: 0x0, symName: __RINvMs3_Cs41t77sgS83u_2ccNtB6_5Build4flagReECsdd4p8w1Itnu_18build_script_build, symObjAddr: 0x640, symBinAddr: 0x100006658, symSize: 0xA4 }
  - { offset: 0x15AE8, size: 0x8, addend: 0x0, symName: __RINvMs3_Cs41t77sgS83u_2ccNtB6_5Build5filesINtNtCsdze8u8oDPro_5alloc3vec3VecNtNtCs27l1GJC5rMQ_3std4path7PathBufEECsdd4p8w1Itnu_18build_script_build, symObjAddr: 0x6E4, symBinAddr: 0x1000066FC, symSize: 0x10C }
  - { offset: 0x15B51, size: 0x8, addend: 0x0, symName: __RINvMs3_Cs41t77sgS83u_2ccNtB6_5Build6defineINtNtCs9f3LFPSIp77_4core6option6OptionReEECsdd4p8w1Itnu_18build_script_build, symObjAddr: 0x7F0, symBinAddr: 0x100006808, symSize: 0x148 }
  - { offset: 0x15B9B, size: 0x8, addend: 0x0, symName: __RINvMs3_Cs41t77sgS83u_2ccNtB6_5Build7includeReECsdd4p8w1Itnu_18build_script_build, symObjAddr: 0x938, symBinAddr: 0x100006950, symSize: 0xA4 }
  - { offset: 0x15EB4, size: 0x8, addend: 0x0, symName: __RINvMsi_NtCsdze8u8oDPro_5alloc3vecINtB6_3VecNtNtB8_6string6StringE14extend_trustedINtNtNtNtCs9f3LFPSIp77_4core4iter8adapters3map3MapINtNtNtB1r_5slice4iter4IterNtNtCs27l1GJC5rMQ_3std4path7PathBufENCNvCsdd4p8w1Itnu_18build_script_build4main0EEB3b_, symObjAddr: 0x9DC, symBinAddr: 0x1000069F4, symSize: 0x184 }
  - { offset: 0x163A1, size: 0x8, addend: 0x0, symName: __RINvMsi_NtCsdze8u8oDPro_5alloc3vecINtB6_3VecNtNtCs27l1GJC5rMQ_3std4path7PathBufE16extend_desugaredINtNtNtNtCs9f3LFPSIp77_4core4iter8adapters10filter_map9FilterMapINtNtB1D_3map3MapNtNtBK_2fs7ReadDirNvMNtB1H_6resultINtB3c_6ResultNtB2T_8DirEntryNtNtNtBK_2io5error5ErrorE6unwrapENCNvCsdd4p8w1Itnu_18build_script_build12compile_zstd0EEB4t_, symObjAddr: 0xB60, symBinAddr: 0x100006B78, symSize: 0x1F0 }
  - { offset: 0x169BF, size: 0x8, addend: 0x0, symName: __RNvMNtCs9f3LFPSIp77_4core6optionINtB2_6OptionNtNtNtCs27l1GJC5rMQ_3std3ffi6os_str8OsStringE6expectCsdd4p8w1Itnu_18build_script_build, symObjAddr: 0x1D6C, symBinAddr: 0x100007D84, symSize: 0x74 }
  - { offset: 0x16A19, size: 0x8, addend: 0x0, symName: __RNvMNtCs9f3LFPSIp77_4core6resultINtB2_6ResultNtCs3yjR8NHJXUH_10pkg_config7LibraryNtBJ_5ErrorE6expectCsdd4p8w1Itnu_18build_script_build, symObjAddr: 0x1DE0, symBinAddr: 0x100007DF8, symSize: 0xCC }
  - { offset: 0x16A7C, size: 0x8, addend: 0x0, symName: __RNvMNtCs9f3LFPSIp77_4core6resultINtB2_6ResultNtNtCsdze8u8oDPro_5alloc6string6StringNtNtCs27l1GJC5rMQ_3std3env8VarErrorE17unwrap_or_defaultCsdd4p8w1Itnu_18build_script_build, symObjAddr: 0x1EAC, symBinAddr: 0x100007EC4, symSize: 0xBC }
  - { offset: 0x16ADD, size: 0x8, addend: 0x0, symName: __RNvMNtCs9f3LFPSIp77_4core6resultINtB2_6ResultNtNtCsdze8u8oDPro_5alloc6string6StringNtNtCs27l1GJC5rMQ_3std3env8VarErrorE5is_okCsdd4p8w1Itnu_18build_script_build, symObjAddr: 0x1F68, symBinAddr: 0x100007F80, symSize: 0x3C }
  - { offset: 0x16D29, size: 0x8, addend: 0x0, symName: __RNvMNtCsdze8u8oDPro_5alloc6stringNtB2_6String4pushCsdd4p8w1Itnu_18build_script_build, symObjAddr: 0x1FA4, symBinAddr: 0x100007FBC, symSize: 0x180 }
  - { offset: 0x171F9, size: 0x8, addend: 0x0, symName: __RNvMNtCsdze8u8oDPro_5alloc6stringNtB2_6String6as_strCsdd4p8w1Itnu_18build_script_build, symObjAddr: 0x2124, symBinAddr: 0x10000813C, symSize: 0x88 }
  - { offset: 0x1744E, size: 0x8, addend: 0x0, symName: __RNvMNtCsdze8u8oDPro_5alloc6stringNtB2_6String8push_strCsdd4p8w1Itnu_18build_script_build, symObjAddr: 0x21AC, symBinAddr: 0x1000081C4, symSize: 0xDC }
  - { offset: 0x177AE, size: 0x8, addend: 0x0, symName: __RNvMs1_NtCsdze8u8oDPro_5alloc7raw_vecINtB5_6RawVecINtNtB7_4sync3ArcNtNtCs27l1GJC5rMQ_3std4path4PathEE8grow_oneCsdd4p8w1Itnu_18build_script_build, symObjAddr: 0x2288, symBinAddr: 0x1000082A0, symSize: 0x88 }
  - { offset: 0x1785C, size: 0x8, addend: 0x0, symName: __RNvMs1_NtCsdze8u8oDPro_5alloc7raw_vecINtB5_6RawVecTINtNtB7_4sync3ArceEINtNtCs9f3LFPSIp77_4core6option6OptionBN_EEE8grow_oneCsdd4p8w1Itnu_18build_script_build, symObjAddr: 0x2310, symBinAddr: 0x100008328, symSize: 0x88 }
  - { offset: 0x17A40, size: 0x8, addend: 0x0, symName: __RNvMs_NtCsdze8u8oDPro_5alloc3vecINtB4_3VecINtNtB6_4sync3ArcNtNtCs27l1GJC5rMQ_3std4path4PathEE4pushCsdd4p8w1Itnu_18build_script_build, symObjAddr: 0x2398, symBinAddr: 0x1000083B0, symSize: 0x104 }
  - { offset: 0x17D2A, size: 0x8, addend: 0x0, symName: __RNvMs_NtCsdze8u8oDPro_5alloc3vecINtB4_3VecNtNtCs27l1GJC5rMQ_3std4path7PathBufE12as_mut_sliceCsdd4p8w1Itnu_18build_script_build, symObjAddr: 0x249C, symBinAddr: 0x1000084B4, symSize: 0x7C }
  - { offset: 0x17F67, size: 0x8, addend: 0x0, symName: __RNvMs_NtCsdze8u8oDPro_5alloc3vecINtB4_3VecNtNtCs27l1GJC5rMQ_3std4path7PathBufE7reserveCsdd4p8w1Itnu_18build_script_build, symObjAddr: 0x2518, symBinAddr: 0x100008530, symSize: 0xC4 }
  - { offset: 0x1822E, size: 0x8, addend: 0x0, symName: __RNvMs_NtCsdze8u8oDPro_5alloc3vecINtB4_3VecTINtNtB6_4sync3ArceEINtNtCs9f3LFPSIp77_4core6option6OptionBF_EEE4pushCsdd4p8w1Itnu_18build_script_build, symObjAddr: 0x25DC, symBinAddr: 0x1000085F4, symSize: 0x10C }
  - { offset: 0x18CD6, size: 0x8, addend: 0x0, symName: __RINvMNtNtNtNtCs9f3LFPSIp77_4core5slice4sort6stable5mergeINtB3_10MergeStateNtNtCs27l1GJC5rMQ_3std4path7PathBufE10merge_downNvYB1a_NtNtBb_3cmp10PartialOrd2ltECsdd4p8w1Itnu_18build_script_build, symObjAddr: 0x0, symBinAddr: 0x100009D88, symSize: 0x1E0 }
  - { offset: 0x1A97B, size: 0x8, addend: 0x0, symName: __RINvNtNtNtNtCs9f3LFPSIp77_4core5slice4sort6stable5merge5mergeNtNtCs27l1GJC5rMQ_3std4path7PathBufNvYBX_NtNtBa_3cmp10PartialOrd2ltECsdd4p8w1Itnu_18build_script_build, symObjAddr: 0x150C, symBinAddr: 0x10000B294, symSize: 0x324 }
  - { offset: 0x1AC0C, size: 0x8, addend: 0x0, symName: __RNvXs_NtNtNtNtCs9f3LFPSIp77_4core5slice4sort6stable5mergeINtB4_10MergeStateNtNtCs27l1GJC5rMQ_3std4path7PathBufENtNtNtBc_3ops4drop4Drop4dropCsdd4p8w1Itnu_18build_script_build, symObjAddr: 0x1910, symBinAddr: 0x10000B698, symSize: 0xE4 }
  - { offset: 0x1AD0B, size: 0x8, addend: 0x0, symName: __RINvNtNtNtNtCs9f3LFPSIp77_4core5slice4sort6shared9smallsort11insert_tailNtNtCs27l1GJC5rMQ_3std4path7PathBufNvYB18_NtNtBa_3cmp10PartialOrd2ltECsdd4p8w1Itnu_18build_script_build, symObjAddr: 0x380, symBinAddr: 0x10000A108, symSize: 0x1D0 }
  - { offset: 0x1AEB4, size: 0x8, addend: 0x0, symName: __RINvNtNtNtNtCs9f3LFPSIp77_4core5slice4sort6shared9smallsort12sort4_stableNtNtCs27l1GJC5rMQ_3std4path7PathBufNvYB19_NtNtBa_3cmp10PartialOrd2ltECsdd4p8w1Itnu_18build_script_build, symObjAddr: 0x550, symBinAddr: 0x10000A2D8, symSize: 0x494 }
  - { offset: 0x1B47D, size: 0x8, addend: 0x0, symName: __RINvNtNtNtNtCs9f3LFPSIp77_4core5slice4sort6shared9smallsort19bidirectional_mergeNtNtCs27l1GJC5rMQ_3std4path7PathBufNvYB1g_NtNtBa_3cmp10PartialOrd2ltECsdd4p8w1Itnu_18build_script_build, symObjAddr: 0x9E4, symBinAddr: 0x10000A76C, symSize: 0x5A0 }
  - { offset: 0x1BB2A, size: 0x8, addend: 0x0, symName: __RINvNtNtNtNtCs9f3LFPSIp77_4core5slice4sort6shared9smallsort25insertion_sort_shift_leftNtNtCs27l1GJC5rMQ_3std4path7PathBufNvYB1m_NtNtBa_3cmp10PartialOrd2ltECsdd4p8w1Itnu_18build_script_build, symObjAddr: 0xF84, symBinAddr: 0x10000AD0C, symSize: 0xD0 }
  - { offset: 0x1BC64, size: 0x8, addend: 0x0, symName: __RINvNtNtNtNtCs9f3LFPSIp77_4core5slice4sort6shared9smallsort31small_sort_general_with_scratchNtNtCs27l1GJC5rMQ_3std4path7PathBufNvYB1s_NtNtBa_3cmp10PartialOrd2ltECsdd4p8w1Itnu_18build_script_build, symObjAddr: 0x1054, symBinAddr: 0x10000ADDC, symSize: 0x4B8 }
  - { offset: 0x1C060, size: 0x8, addend: 0x0, symName: __RNvXs5_NtNtNtNtCs9f3LFPSIp77_4core5slice4sort6shared9smallsortINtB5_10CopyOnDropNtNtCs27l1GJC5rMQ_3std4path7PathBufENtNtNtBd_3ops4drop4Drop4dropCsdd4p8w1Itnu_18build_script_build, symObjAddr: 0x188C, symBinAddr: 0x10000B614, symSize: 0x84 }
  - { offset: 0x1C480, size: 0x8, addend: 0x0, symName: __RNvXs1_NtNtNtCs9f3LFPSIp77_4core3ops8function5implsQNCNvCsdd4p8w1Itnu_18build_script_build12compile_zstd0INtB7_5FnMutTNtNtCs27l1GJC5rMQ_3std2fs8DirEntryEE8call_mutBS_, symObjAddr: 0x1830, symBinAddr: 0x10000B5B8, symSize: 0x5C }
  - { offset: 0x1D5D3, size: 0x8, addend: 0x0, symName: __RINvMNtNtNtNtCs9f3LFPSIp77_4core5slice4sort6stable5mergeINtB3_10MergeStateNtNtCs27l1GJC5rMQ_3std4path7PathBufE10merge_downNvYB1a_NtNtBb_3cmp10PartialOrd2ltECsdd4p8w1Itnu_18build_script_build, symObjAddr: 0x0, symBinAddr: 0x100009D88, symSize: 0x1E0 }
  - { offset: 0x1D768, size: 0x8, addend: 0x0, symName: __RINvMNtNtNtNtCs9f3LFPSIp77_4core5slice4sort6stable5mergeINtB3_10MergeStateNtNtCs27l1GJC5rMQ_3std4path7PathBufE8merge_upNvYB1a_NtNtBb_3cmp10PartialOrd2ltECsdd4p8w1Itnu_18build_script_build, symObjAddr: 0x1E0, symBinAddr: 0x100009F68, symSize: 0x1A0 }
  - { offset: 0x1D9CC, size: 0x8, addend: 0x0, symName: __RNvCsdd4p8w1Itnu_18build_script_build17generate_bindings, symObjAddr: 0x19F4, symBinAddr: 0x10000B77C, symSize: 0x68 }
  - { offset: 0x1D9FC, size: 0x8, addend: 0x0, symName: __RNvCsdd4p8w1Itnu_18build_script_build10pkg_config, symObjAddr: 0x1A5C, symBinAddr: 0x10000B7E4, symSize: 0x314 }
  - { offset: 0x1DA37, size: 0x8, addend: 0x0, symName: __RNvCsdd4p8w1Itnu_18build_script_build10set_legacy, symObjAddr: 0x1D70, symBinAddr: 0x10000BAF8, symSize: 0x78 }
  - { offset: 0x1DA5F, size: 0x8, addend: 0x0, symName: __RNvCsdd4p8w1Itnu_18build_script_build11set_pthread, symObjAddr: 0x1DE8, symBinAddr: 0x10000BB70, symSize: 0x20 }
  - { offset: 0x1DA87, size: 0x8, addend: 0x0, symName: __RNvCsdd4p8w1Itnu_18build_script_build16enable_threading, symObjAddr: 0x1E08, symBinAddr: 0x10000BB90, symSize: 0x20 }
  - { offset: 0x1DAAF, size: 0x8, addend: 0x0, symName: __RNvCsdd4p8w1Itnu_18build_script_build32flag_if_supported_with_fallbacks, symObjAddr: 0x1E28, symBinAddr: 0x10000BBB0, symSize: 0xB4 }
  - { offset: 0x1DB24, size: 0x8, addend: 0x0, symName: __RNCNvCsdd4p8w1Itnu_18build_script_build32flag_if_supported_with_fallbacks0B3_, symObjAddr: 0x1EDC, symBinAddr: 0x10000BC64, symSize: 0x54 }
  - { offset: 0x1DB62, size: 0x8, addend: 0x0, symName: __RNvCsdd4p8w1Itnu_18build_script_build12compile_zstd, symObjAddr: 0x1F30, symBinAddr: 0x10000BCB8, symSize: 0xE7C }
  - { offset: 0x1DDED, size: 0x8, addend: 0x0, symName: __RNCNvCsdd4p8w1Itnu_18build_script_build12compile_zstd0B3_, symObjAddr: 0x2DAC, symBinAddr: 0x10000CB34, symSize: 0x248 }
  - { offset: 0x1DE3A, size: 0x8, addend: 0x0, symName: __RNCNvCsdd4p8w1Itnu_18build_script_build12compile_zstds_0B3_, symObjAddr: 0x2FF4, symBinAddr: 0x10000CD7C, symSize: 0xE8 }
  - { offset: 0x1DE80, size: 0x8, addend: 0x0, symName: __RNvCsdd4p8w1Itnu_18build_script_build11cargo_print, symObjAddr: 0x30DC, symBinAddr: 0x10000CE64, symSize: 0x94 }
  - { offset: 0x1DF07, size: 0x8, addend: 0x0, symName: __RNvCsdd4p8w1Itnu_18build_script_build4main, symObjAddr: 0x3170, symBinAddr: 0x10000CEF8, symSize: 0x64C }
  - { offset: 0x1E008, size: 0x8, addend: 0x0, symName: __RNCNvCsdd4p8w1Itnu_18build_script_build4main0B3_, symObjAddr: 0x37BC, symBinAddr: 0x10000D544, symSize: 0x60 }
  - { offset: 0x1EAAC, size: 0x8, addend: 0x0, symName: __RINvXs3_NtNtCs9f3LFPSIp77_4core4hash5implsRNtCs41t77sgS83u_2cc12CompilerFlagNtB8_4Hash4hashNtNtNtCs27l1GJC5rMQ_3std4hash6random13DefaultHasherEBH_, symObjAddr: 0x0, symBinAddr: 0x10000D5E4, symSize: 0x30 }
  - { offset: 0x2275B, size: 0x8, addend: 0x0, symName: __RNvXsP_NtCs9f3LFPSIp77_4core3fmtRNtCs41t77sgS83u_2cc12CompilerFlagNtB5_5Debug3fmtBx_, symObjAddr: 0x188, symBinAddr: 0x10000D76C, symSize: 0x30 }
  - { offset: 0x227A1, size: 0x8, addend: 0x0, symName: __RNvXsP_NtCs9f3LFPSIp77_4core3fmtRNtCs41t77sgS83u_2cc5ErrorNtB5_5Debug3fmtBx_, symObjAddr: 0x1B8, symBinAddr: 0x10000D79C, symSize: 0x30 }
  - { offset: 0x23B69, size: 0x8, addend: 0x0, symName: __RINvXs3_NtNtCs9f3LFPSIp77_4core4hash5implsRNtCs41t77sgS83u_2cc12CompilerFlagNtB8_4Hash4hashNtNtNtCs27l1GJC5rMQ_3std4hash6random13DefaultHasherEBH_, symObjAddr: 0x0, symBinAddr: 0x10000D5E4, symSize: 0x30 }
  - { offset: 0x23C83, size: 0x8, addend: 0x0, symName: __RNvMNtCs9f3LFPSIp77_4core5sliceSNtCs41t77sgS83u_2cc6Object4iterBw_, symObjAddr: 0x30, symBinAddr: 0x10000D614, symSize: 0x28 }
  - { offset: 0x23D40, size: 0x8, addend: 0x0, symName: __RNvXs_NtNtCs9f3LFPSIp77_4core5slice4iterRSNtCs41t77sgS83u_2cc6ObjectNtNtNtNtB8_4iter6traits7collect12IntoIterator9into_iterBG_, symObjAddr: 0x1E8, symBinAddr: 0x10000D7CC, symSize: 0x58 }
  - { offset: 0x2406A, size: 0x8, addend: 0x0, symName: __RNvYNtCs41t77sgS83u_2cc10AsmFileExtNtNtCs9f3LFPSIp77_4core3cmp9PartialEq2neB4_, symObjAddr: 0x240, symBinAddr: 0x10000D824, symSize: 0x30 }
  - { offset: 0x240B9, size: 0x8, addend: 0x0, symName: __RNvYNtCs41t77sgS83u_2cc12CompilerFlagNtNtCs9f3LFPSIp77_4core3cmp9PartialEq2neB4_, symObjAddr: 0x2B8, symBinAddr: 0x10000D89C, symSize: 0x30 }
  - { offset: 0x24114, size: 0x8, addend: 0x0, symName: __RNvXNtCs9f3LFPSIp77_4core6borrowNtCs41t77sgS83u_2cc12CompilerFlagINtB2_6BorrowBu_E6borrowBw_, symObjAddr: 0xA8, symBinAddr: 0x10000D68C, symSize: 0x14 }
  - { offset: 0x2415A, size: 0x8, addend: 0x0, symName: __RNvXs1_NtNtCs9f3LFPSIp77_4core3ops5derefQNCNvMs3_Cs41t77sgS83u_2ccNtBL_5Build15compile_objects0NtB5_8DerefMut9deref_mutBL_, symObjAddr: 0xBC, symBinAddr: 0x10000D6A0, symSize: 0x18 }
  - { offset: 0x24191, size: 0x8, addend: 0x0, symName: __RNvXs1_NtNtCs9f3LFPSIp77_4core3ops5derefQNCNvMs3_Cs41t77sgS83u_2ccNtBL_5Build15compile_objectss_0NtB5_8DerefMut9deref_mutBL_, symObjAddr: 0xD4, symBinAddr: 0x10000D6B8, symSize: 0x18 }
  - { offset: 0x241D9, size: 0x8, addend: 0x0, symName: __RNvXs2_NtNtNtCs9f3LFPSIp77_4core3ops8function5implsQNCNCNvMs3_Cs41t77sgS83u_2ccNtBY_5Build23apple_deployment_targets0_00INtB7_6FnOnceTReEE9call_onceBY_, symObjAddr: 0xEC, symBinAddr: 0x10000D6D0, symSize: 0x34 }
  - { offset: 0x24228, size: 0x8, addend: 0x0, symName: __RNvXs2_NtNtNtCs9f3LFPSIp77_4core3ops8function5implsQNCNvMs3_Cs41t77sgS83u_2ccNtBW_5Build8env_tool0INtB7_6FnOnceTReEE9call_onceBW_, symObjAddr: 0x120, symBinAddr: 0x10000D704, symSize: 0x34 }
  - { offset: 0x24277, size: 0x8, addend: 0x0, symName: __RNvXs2_NtNtNtCs9f3LFPSIp77_4core3ops8function5implsQNCNvMs3_Cs41t77sgS83u_2ccNtBW_5Build8env_tools_0INtB7_6FnOnceTReEE9call_onceBW_, symObjAddr: 0x154, symBinAddr: 0x10000D738, symSize: 0x34 }
  - { offset: 0x242D4, size: 0x8, addend: 0x0, symName: __RNvYNtCs41t77sgS83u_2cc10AsmFileExtNtNtCs9f3LFPSIp77_4core5clone5Clone10clone_fromB4_, symObjAddr: 0x270, symBinAddr: 0x10000D854, symSize: 0x48 }
  - { offset: 0x24313, size: 0x8, addend: 0x0, symName: __RNvYNtCs41t77sgS83u_2cc5BuildNtNtCs9f3LFPSIp77_4core5clone5Clone10clone_fromB4_, symObjAddr: 0x2E8, symBinAddr: 0x10000D8CC, symSize: 0x8C }
  - { offset: 0x24352, size: 0x8, addend: 0x0, symName: __RNvYNtCs41t77sgS83u_2cc5ErrorNtNtCs9f3LFPSIp77_4core5clone5Clone10clone_fromB4_, symObjAddr: 0x374, symBinAddr: 0x10000D958, symSize: 0x84 }
  - { offset: 0x24391, size: 0x8, addend: 0x0, symName: __RNvYNtCs41t77sgS83u_2cc6ObjectNtNtCs9f3LFPSIp77_4core5clone5Clone10clone_fromB4_, symObjAddr: 0x4D0, symBinAddr: 0x10000DAB4, symSize: 0x84 }
  - { offset: 0x243D0, size: 0x8, addend: 0x0, symName: __RNvYNtCs41t77sgS83u_2cc9ErrorKindNtNtCs9f3LFPSIp77_4core5clone5Clone10clone_fromB4_, symObjAddr: 0x554, symBinAddr: 0x10000DB38, symSize: 0x48 }
  - { offset: 0x2441B, size: 0x8, addend: 0x0, symName: __RNvYNtCs41t77sgS83u_2cc5ErrorNtNtCs9f3LFPSIp77_4core5error5Error11descriptionB4_, symObjAddr: 0x3F8, symBinAddr: 0x10000D9DC, symSize: 0x20 }
  - { offset: 0x24450, size: 0x8, addend: 0x0, symName: __RNvYNtCs41t77sgS83u_2cc5ErrorNtNtCs9f3LFPSIp77_4core5error5Error5causeB4_, symObjAddr: 0x418, symBinAddr: 0x10000D9FC, symSize: 0x24 }
  - { offset: 0x24485, size: 0x8, addend: 0x0, symName: __RNvYNtCs41t77sgS83u_2cc5ErrorNtNtCs9f3LFPSIp77_4core5error5Error6sourceB4_, symObjAddr: 0x43C, symBinAddr: 0x10000DA20, symSize: 0x24 }
  - { offset: 0x244BA, size: 0x8, addend: 0x0, symName: __RNvYNtCs41t77sgS83u_2cc5ErrorNtNtCs9f3LFPSIp77_4core5error5Error7provideB4_, symObjAddr: 0x460, symBinAddr: 0x10000DA44, symSize: 0x18 }
  - { offset: 0x244F9, size: 0x8, addend: 0x0, symName: __RNvYNtCs41t77sgS83u_2cc5ErrorNtNtCs9f3LFPSIp77_4core5error5Error7type_idB4_, symObjAddr: 0x478, symBinAddr: 0x10000DA5C, symSize: 0x58 }
  - { offset: 0x25EB5, size: 0x8, addend: 0x0, symName: __RNvXCscXJUXcj6jCz_9hashbrownNtCs41t77sgS83u_2cc12CompilerFlagINtB2_10EquivalentBq_E10equivalentBs_, symObjAddr: 0x58, symBinAddr: 0x10000D63C, symSize: 0x50 }
  - { offset: 0x25FC4, size: 0x8, addend: 0x0, symName: __RNvXNvMs3_Cs41t77sgS83u_2ccNtB8_5Build26windows_registry_find_toolNtB2_14BuildEnvGetterNtNtNtB8_7windows10find_tools9EnvGetter7get_env, symObjAddr: 0x1DFFC, symBinAddr: 0x10002B5E0, symSize: 0x50 }
  - { offset: 0x26008, size: 0x8, addend: 0x0, symName: __RNCNvMs3_Cs41t77sgS83u_2ccNtB7_5Build11remove_flag0B7_, symObjAddr: 0xE24, symBinAddr: 0x10000E408, symSize: 0x60 }
  - { offset: 0x2604E, size: 0x8, addend: 0x0, symName: __RNCNvMs3_Cs41t77sgS83u_2ccNtB7_5Build26try_flags_from_environment0B7_, symObjAddr: 0x225C, symBinAddr: 0x10000F840, symSize: 0xA4 }
  - { offset: 0x26095, size: 0x8, addend: 0x0, symName: __RNCNvMs3_Cs41t77sgS83u_2ccNtB7_5Build11try_compile0B7_, symObjAddr: 0x45F8, symBinAddr: 0x100011BDC, symSize: 0x80 }
  - { offset: 0x260E0, size: 0x8, addend: 0x0, symName: __RNCNvMs3_Cs41t77sgS83u_2ccNtB7_5Build11try_compiles_0B7_, symObjAddr: 0x4678, symBinAddr: 0x100011C5C, symSize: 0x54 }
  - { offset: 0x26130, size: 0x8, addend: 0x0, symName: __RNCNCNvMs3_Cs41t77sgS83u_2ccNtB9_5Build11try_compiles_00B9_, symObjAddr: 0x46CC, symBinAddr: 0x100011CB0, symSize: 0xBC }
  - { offset: 0x2618C, size: 0x8, addend: 0x0, symName: __RNCNCNCNvMs3_Cs41t77sgS83u_2ccNtBb_5Build11try_compiles_000Bb_, symObjAddr: 0x4788, symBinAddr: 0x100011D6C, symSize: 0x54 }
  - { offset: 0x261E8, size: 0x8, addend: 0x0, symName: __RNCNvMs3_Cs41t77sgS83u_2ccNtB7_5Build25try_compile_intermediates0B7_, symObjAddr: 0x4CC4, symBinAddr: 0x1000122A8, symSize: 0x4C }
  - { offset: 0x2622F, size: 0x8, addend: 0x0, symName: __RNCNvMs3_Cs41t77sgS83u_2ccNtB7_5Build15compile_objects0B7_, symObjAddr: 0x5184, symBinAddr: 0x100012768, symSize: 0x3EC }
  - { offset: 0x26359, size: 0x8, addend: 0x0, symName: __RNCNCNvMs3_Cs41t77sgS83u_2ccNtB9_5Build15compile_objects00B9_, symObjAddr: 0x5570, symBinAddr: 0x100012B54, symSize: 0xC8 }
  - { offset: 0x263E0, size: 0x8, addend: 0x0, symName: __RNCNCNCNvMs3_Cs41t77sgS83u_2ccNtBb_5Build15compile_objects000Bb_, symObjAddr: 0x5638, symBinAddr: 0x100012C1C, symSize: 0x31C }
  - { offset: 0x2655E, size: 0x8, addend: 0x0, symName: __RNCNvMs3_Cs41t77sgS83u_2ccNtB7_5Build15compile_objectss_0B7_, symObjAddr: 0x5954, symBinAddr: 0x100012F38, symSize: 0x7FC }
  - { offset: 0x26798, size: 0x8, addend: 0x0, symName: __RNCNCNvMs3_Cs41t77sgS83u_2ccNtB9_5Build15compile_objectss_00B9_, symObjAddr: 0x6150, symBinAddr: 0x100013734, symSize: 0x150 }
  - { offset: 0x26861, size: 0x8, addend: 0x0, symName: __RNvXNvMs3_Cs41t77sgS83u_2ccNtB8_5Build15compile_objectsNtB2_10KillOnDropNtNtNtCs9f3LFPSIp77_4core3ops4drop4Drop4drop, symObjAddr: 0x62A0, symBinAddr: 0x100013884, symSize: 0x40 }
  - { offset: 0x268A2, size: 0x8, addend: 0x0, symName: __RINvNvMs3_Cs41t77sgS83u_2ccNtB8_5Build15compile_objects11cell_updateINtNtCsdze8u8oDPro_5alloc3vec3VecTNtNtCs27l1GJC5rMQ_3std7process7CommandINtNtB19_6borrow3CowNtNtB1G_4path4PathENtB2_10KillOnDropNtNtNtB8_8parallel9job_token8JobTokenEENCNCB2_00EB8_, symObjAddr: 0x62E0, symBinAddr: 0x1000138C4, symSize: 0xC8 }
  - { offset: 0x2692A, size: 0x8, addend: 0x0, symName: __RINvNvMs3_Cs41t77sgS83u_2ccNtB8_5Build15compile_objects11cell_updateINtNtCsdze8u8oDPro_5alloc3vec3VecTNtNtCs27l1GJC5rMQ_3std7process7CommandINtNtB19_6borrow3CowNtNtB1G_4path4PathENtB2_10KillOnDropNtNtNtB8_8parallel9job_token8JobTokenEENCNCB2_s_00EB8_, symObjAddr: 0x63A8, symBinAddr: 0x10001398C, symSize: 0xDC }
  - { offset: 0x26D24, size: 0x8, addend: 0x0, symName: __RNCNvMs3_Cs41t77sgS83u_2ccNtB7_5Build25create_compile_object_cmd0B7_, symObjAddr: 0x7120, symBinAddr: 0x100014704, symSize: 0x44 }
  - { offset: 0x26D5B, size: 0x8, addend: 0x0, symName: __RNCNvMs3_Cs41t77sgS83u_2ccNtB7_5Build10try_expand0B7_, symObjAddr: 0x7698, symBinAddr: 0x100014C7C, symSize: 0x44 }
  - { offset: 0x26D92, size: 0x8, addend: 0x0, symName: __RNCNvMs3_Cs41t77sgS83u_2ccNtB7_5Build20msvc_macro_assembler0B7_, symObjAddr: 0xDD3C, symBinAddr: 0x10001B320, symSize: 0x48 }
  - { offset: 0x26DD9, size: 0x8, addend: 0x0, symName: __RNCNvMs3_Cs41t77sgS83u_2ccNtB7_5Build8assemble0B7_, symObjAddr: 0xE8DC, symBinAddr: 0x10001BEC0, symSize: 0x38 }
  - { offset: 0x26E12, size: 0x8, addend: 0x0, symName: __RNCNvMs3_Cs41t77sgS83u_2ccNtB7_5Build8assembles_0B7_, symObjAddr: 0xE914, symBinAddr: 0x10001BEF8, symSize: 0x9C }
  - { offset: 0x26E65, size: 0x8, addend: 0x0, symName: __RNCNCNvMs3_Cs41t77sgS83u_2ccNtB9_5Build8assembles_00B9_, symObjAddr: 0xE9B0, symBinAddr: 0x10001BF94, symSize: 0x20 }
  - { offset: 0x26EAB, size: 0x8, addend: 0x0, symName: __RNCNvMs3_Cs41t77sgS83u_2ccNtB7_5Build17get_base_compiler0B7_, symObjAddr: 0x11A74, symBinAddr: 0x10001F058, symSize: 0x474 }
  - { offset: 0x26FAC, size: 0x8, addend: 0x0, symName: __RNCNCNvMs3_Cs41t77sgS83u_2ccNtB9_5Build17get_base_compiler00B9_, symObjAddr: 0x11EE8, symBinAddr: 0x10001F4CC, symSize: 0x50 }
  - { offset: 0x26FE5, size: 0x8, addend: 0x0, symName: __RNCNCNvMs3_Cs41t77sgS83u_2ccNtB9_5Build17get_base_compiler0s_0B9_, symObjAddr: 0x11F38, symBinAddr: 0x10001F51C, symSize: 0x58 }
  - { offset: 0x2702D, size: 0x8, addend: 0x0, symName: __RNCNvMs3_Cs41t77sgS83u_2ccNtB7_5Build17get_base_compilers_0B7_, symObjAddr: 0x11F90, symBinAddr: 0x10001F574, symSize: 0x1A8 }
  - { offset: 0x27095, size: 0x8, addend: 0x0, symName: __RNCNvMs3_Cs41t77sgS83u_2ccNtB7_5Build17get_base_compilers0_0B7_, symObjAddr: 0x12138, symBinAddr: 0x10001F71C, symSize: 0x34 }
  - { offset: 0x270CB, size: 0x8, addend: 0x0, symName: __RNCNvMs3_Cs41t77sgS83u_2ccNtB7_5Build8env_tool0B7_, symObjAddr: 0x12EA0, symBinAddr: 0x100020484, symSize: 0x48 }
  - { offset: 0x27104, size: 0x8, addend: 0x0, symName: __RNCNvMs3_Cs41t77sgS83u_2ccNtB7_5Build8env_tools_0B7_, symObjAddr: 0x12EE8, symBinAddr: 0x1000204CC, symSize: 0x48 }
  - { offset: 0x27151, size: 0x8, addend: 0x0, symName: __RNCNvMs3_Cs41t77sgS83u_2ccNtB7_5Build25get_base_archiver_variant0B7_, symObjAddr: 0x15DD8, symBinAddr: 0x1000233BC, symSize: 0x18C }
  - { offset: 0x271EF, size: 0x8, addend: 0x0, symName: __RNCNvMs3_Cs41t77sgS83u_2ccNtB7_5Build25get_base_archiver_variants_0B7_, symObjAddr: 0x15F64, symBinAddr: 0x100023548, symSize: 0x4C4 }
  - { offset: 0x273AD, size: 0x8, addend: 0x0, symName: __RNCNCNvMs3_Cs41t77sgS83u_2ccNtB9_5Build25get_base_archiver_variants_00B9_, symObjAddr: 0x16428, symBinAddr: 0x100023A0C, symSize: 0x38 }
  - { offset: 0x273F4, size: 0x8, addend: 0x0, symName: __RNCNvMs3_Cs41t77sgS83u_2ccNtB7_5Build17prefix_for_target0B7_, symObjAddr: 0x16550, symBinAddr: 0x100023B34, symSize: 0xB8 }
  - { offset: 0x2742D, size: 0x8, addend: 0x0, symName: __RNCNvMs3_Cs41t77sgS83u_2ccNtB7_5Build17prefix_for_targets_0B7_, symObjAddr: 0x16608, symBinAddr: 0x100023BEC, symSize: 0x54 }
  - { offset: 0x27462, size: 0x8, addend: 0x0, symName: __RNCNCNvMs3_Cs41t77sgS83u_2ccNtB9_5Build17prefix_for_targets_00B9_, symObjAddr: 0x1665C, symBinAddr: 0x100023C40, symSize: 0x118 }
  - { offset: 0x274A3, size: 0x8, addend: 0x0, symName: __RNCNvMs3_Cs41t77sgS83u_2ccNtB7_5Build17prefix_for_targets0_0B7_, symObjAddr: 0x16774, symBinAddr: 0x100023D58, symSize: 0x1D68 }
  - { offset: 0x274F3, size: 0x8, addend: 0x0, symName: __RNCNvMs3_Cs41t77sgS83u_2ccNtB7_5Build23find_working_gnu_prefix0B7_, symObjAddr: 0x1863C, symBinAddr: 0x100025C20, symSize: 0x6C }
  - { offset: 0x27559, size: 0x8, addend: 0x0, symName: __RNCNCNvMs3_Cs41t77sgS83u_2ccNtB9_5Build23find_working_gnu_prefix00B9_, symObjAddr: 0x186A8, symBinAddr: 0x100025C8C, symSize: 0x34C }
  - { offset: 0x27752, size: 0x8, addend: 0x0, symName: __RNCNvMs3_Cs41t77sgS83u_2ccNtB7_5Build23find_working_gnu_prefixs_0B7_, symObjAddr: 0x189F4, symBinAddr: 0x100025FD8, symSize: 0x40 }
  - { offset: 0x27788, size: 0x8, addend: 0x0, symName: __RNCNvMs3_Cs41t77sgS83u_2ccNtB7_5Build9get_debug0B7_, symObjAddr: 0x19044, symBinAddr: 0x100026628, symSize: 0x48 }
  - { offset: 0x277BE, size: 0x8, addend: 0x0, symName: __RNCNvMs3_Cs41t77sgS83u_2ccNtB7_5Build23get_shell_escaped_flags0B7_, symObjAddr: 0x190D0, symBinAddr: 0x1000266B4, symSize: 0x48 }
  - { offset: 0x277F4, size: 0x8, addend: 0x0, symName: __RNCNvMs3_Cs41t77sgS83u_2ccNtB7_5Build23get_force_frame_pointer0B7_, symObjAddr: 0x194B0, symBinAddr: 0x100026A94, symSize: 0x38 }
  - { offset: 0x2782A, size: 0x8, addend: 0x0, symName: __RNCNvMs3_Cs41t77sgS83u_2ccNtB7_5Build11get_out_dir0B7_, symObjAddr: 0x1962C, symBinAddr: 0x100026C10, symSize: 0x48 }
  - { offset: 0x27861, size: 0x8, addend: 0x0, symName: __RNvNvMs3_Cs41t77sgS83u_2ccNtB7_5Build6getenv17provided_by_cargo, symObjAddr: 0x19C54, symBinAddr: 0x100027238, symSize: 0x31C }
  - { offset: 0x278C3, size: 0x8, addend: 0x0, symName: __RNCNvMs3_Cs41t77sgS83u_2ccNtB7_5Build17getenv_unwrap_str0B7_, symObjAddr: 0x1A3FC, symBinAddr: 0x1000279E0, symSize: 0xB0 }
  - { offset: 0x27977, size: 0x8, addend: 0x0, symName: __RNCNvMs3_Cs41t77sgS83u_2ccNtB7_5Build27getenv_with_target_prefixes0B7_, symObjAddr: 0x1AA5C, symBinAddr: 0x100028040, symSize: 0x140 }
  - { offset: 0x27AAC, size: 0x8, addend: 0x0, symName: __RNCNvMs3_Cs41t77sgS83u_2ccNtB7_5Build27getenv_with_target_prefixess_0B7_, symObjAddr: 0x1AB9C, symBinAddr: 0x100028180, symSize: 0x13C }
  - { offset: 0x27BE1, size: 0x8, addend: 0x0, symName: __RNCNvMs3_Cs41t77sgS83u_2ccNtB7_5Build27getenv_with_target_prefixess0_0B7_, symObjAddr: 0x1ACD8, symBinAddr: 0x1000282BC, symSize: 0x48 }
  - { offset: 0x27C28, size: 0x8, addend: 0x0, symName: __RNCNvMs3_Cs41t77sgS83u_2ccNtB7_5Build20apple_sdk_root_inner0B7_, symObjAddr: 0x1BC3C, symBinAddr: 0x100029220, symSize: 0xC4 }
  - { offset: 0x27C83, size: 0x8, addend: 0x0, symName: __RNCNCNvMs3_Cs41t77sgS83u_2ccNtB9_5Build20apple_sdk_root_inner00B9_, symObjAddr: 0x1BD00, symBinAddr: 0x1000292E4, symSize: 0x48 }
  - { offset: 0x27CDD, size: 0x8, addend: 0x0, symName: __RNCNvMs3_Cs41t77sgS83u_2ccNtB7_5Build23apple_deployment_target0B7_, symObjAddr: 0x1C74C, symBinAddr: 0x100029D30, symSize: 0x308 }
  - { offset: 0x27D82, size: 0x8, addend: 0x0, symName: __RNCNvMs3_Cs41t77sgS83u_2ccNtB7_5Build23apple_deployment_targets_0B7_, symObjAddr: 0x1CA54, symBinAddr: 0x10002A038, symSize: 0x17C }
  - { offset: 0x27E03, size: 0x8, addend: 0x0, symName: __RNCNCNvMs3_Cs41t77sgS83u_2ccNtB9_5Build23apple_deployment_targets_00B9_, symObjAddr: 0x1CBD0, symBinAddr: 0x10002A1B4, symSize: 0x88 }
  - { offset: 0x27E55, size: 0x8, addend: 0x0, symName: __RNCNCNvMs3_Cs41t77sgS83u_2ccNtB9_5Build23apple_deployment_targets_0s_0B9_, symObjAddr: 0x1CC58, symBinAddr: 0x10002A23C, symSize: 0x2C }
  - { offset: 0x27E8A, size: 0x8, addend: 0x0, symName: __RNCNCNvMs3_Cs41t77sgS83u_2ccNtB9_5Build23apple_deployment_targets_0s0_0B9_, symObjAddr: 0x1CC84, symBinAddr: 0x10002A268, symSize: 0x48 }
  - { offset: 0x27ED3, size: 0x8, addend: 0x0, symName: __RNCNvMs3_Cs41t77sgS83u_2ccNtB7_5Build23apple_deployment_targets0_0B7_, symObjAddr: 0x1CCCC, symBinAddr: 0x10002A2B0, symSize: 0x424 }
  - { offset: 0x2804C, size: 0x8, addend: 0x0, symName: __RNCNCNvMs3_Cs41t77sgS83u_2ccNtB9_5Build23apple_deployment_targets0_00B9_, symObjAddr: 0x1D0F0, symBinAddr: 0x10002A6D4, symSize: 0x7C }
  - { offset: 0x2808D, size: 0x8, addend: 0x0, symName: __RNCNvMs3_Cs41t77sgS83u_2ccNtB7_5Build23apple_deployment_targets1_0B7_, symObjAddr: 0x1D16C, symBinAddr: 0x10002A750, symSize: 0x168 }
  - { offset: 0x280E6, size: 0x8, addend: 0x0, symName: __RNCNvMs3_Cs41t77sgS83u_2ccNtB7_5Build23apple_deployment_targets2_0B7_, symObjAddr: 0x1D2D4, symBinAddr: 0x10002A8B8, symSize: 0x44 }
  - { offset: 0x28110, size: 0x8, addend: 0x0, symName: __RNCNvMs3_Cs41t77sgS83u_2ccNtB7_5Build23apple_deployment_targets3_0B7_, symObjAddr: 0x1D318, symBinAddr: 0x10002A8FC, symSize: 0x44 }
  - { offset: 0x2813A, size: 0x8, addend: 0x0, symName: __RNCNvMs3_Cs41t77sgS83u_2ccNtB7_5Build23apple_deployment_targets4_0B7_, symObjAddr: 0x1D35C, symBinAddr: 0x10002A940, symSize: 0x44 }
  - { offset: 0x28164, size: 0x8, addend: 0x0, symName: __RNCNvMs3_Cs41t77sgS83u_2ccNtB7_5Build23apple_deployment_targets5_0B7_, symObjAddr: 0x1D3A0, symBinAddr: 0x10002A984, symSize: 0x44 }
  - { offset: 0x281FF, size: 0x8, addend: 0x0, symName: __RNCNvMs3_Cs41t77sgS83u_2ccNtB7_5Build15cuda_file_count0B7_, symObjAddr: 0x1D574, symBinAddr: 0x10002AB58, symSize: 0x80 }
  - { offset: 0x28245, size: 0x8, addend: 0x0, symName: __RNvNvMs3_Cs41t77sgS83u_2ccNtB7_5Build5which9check_exe, symObjAddr: 0x1D6DC, symBinAddr: 0x10002ACC0, symSize: 0x1C4 }
  - { offset: 0x282A8, size: 0x8, addend: 0x0, symName: __RNCNvMs3_Cs41t77sgS83u_2ccNtB7_5Build5which0B7_, symObjAddr: 0x1D8A0, symBinAddr: 0x10002AE84, symSize: 0x6C }
  - { offset: 0x282ED, size: 0x8, addend: 0x0, symName: __RNCNCNvMs3_Cs41t77sgS83u_2ccNtB9_5Build5which00B9_, symObjAddr: 0x1D90C, symBinAddr: 0x10002AEF0, symSize: 0xB4 }
  - { offset: 0x2832F, size: 0x8, addend: 0x0, symName: __RNCNvMs3_Cs41t77sgS83u_2ccNtB7_5Build5whichs_0B7_, symObjAddr: 0x1D9C0, symBinAddr: 0x10002AFA4, symSize: 0x114 }
  - { offset: 0x283C6, size: 0x8, addend: 0x0, symName: __RNCNvMs3_Cs41t77sgS83u_2ccNtB7_5Build21windows_registry_find0B7_, symObjAddr: 0x1DED8, symBinAddr: 0x10002B4BC, symSize: 0x64 }
  - { offset: 0x29404, size: 0x8, addend: 0x0, symName: __RNvCs41t77sgS83u_2cc32NEW_STANDALONE_ANDROID_COMPILERS, symObjAddr: 0x24FD8, symBinAddr: 0x10020E988, symSize: 0x0 }
  - { offset: 0x29424, size: 0x8, addend: 0x0, symName: __RNvNvCs41t77sgS83u_2cc11is_disabled5CACHE, symObjAddr: 0x80157, symBinAddr: 0x10023D382, symSize: 0x0 }
  - { offset: 0x29431, size: 0x8, addend: 0x0, symName: __RNvNvCs41t77sgS83u_2cc11is_disabled19compute_is_disabled, symObjAddr: 0x1F3CC, symBinAddr: 0x10002C9B0, symSize: 0x1E4 }
  - { offset: 0x294D7, size: 0x8, addend: 0x0, symName: __RNvXs_Cs41t77sgS83u_2ccNtB4_5ErrorINtNtCs9f3LFPSIp77_4core7convert4FromNtNtNtCs27l1GJC5rMQ_3std2io5error5ErrorE4from, symObjAddr: 0x67C, symBinAddr: 0x10000DC60, symSize: 0xF4 }
  - { offset: 0x29589, size: 0x8, addend: 0x0, symName: __RNvXs0_Cs41t77sgS83u_2ccNtB5_5ErrorNtNtCs9f3LFPSIp77_4core3fmt7Display3fmt, symObjAddr: 0x770, symBinAddr: 0x10000DD54, symSize: 0xC8 }
  - { offset: 0x29AD6, size: 0x8, addend: 0x0, symName: __RNvXs4_Cs41t77sgS83u_2ccNtB5_5BuildNtNtCs9f3LFPSIp77_4core7default7Default7default, symObjAddr: 0x1E04C, symBinAddr: 0x10002B630, symSize: 0x24 }
  - { offset: 0x29AF5, size: 0x8, addend: 0x0, symName: __RNvCs41t77sgS83u_2cc4fail, symObjAddr: 0x1E070, symBinAddr: 0x10002B654, symSize: 0x88 }
  - { offset: 0x29B7F, size: 0x8, addend: 0x0, symName: __RNvCs41t77sgS83u_2cc49android_clang_compiler_uses_target_arg_internally, symObjAddr: 0x1E0F8, symBinAddr: 0x10002B6DC, symSize: 0x16C }
  - { offset: 0x29BEF, size: 0x8, addend: 0x0, symName: __RNvCs41t77sgS83u_2cc27autodetect_android_compiler, symObjAddr: 0x1E264, symBinAddr: 0x10002B848, symSize: 0x934 }
  - { offset: 0x29F95, size: 0x8, addend: 0x0, symName: __RNCNvCs41t77sgS83u_2cc27autodetect_android_compiler0B3_, symObjAddr: 0x1EB98, symBinAddr: 0x10002C17C, symSize: 0x68 }
  - { offset: 0x29FD3, size: 0x8, addend: 0x0, symName: __RNCNCNvCs41t77sgS83u_2cc27autodetect_android_compiler00B5_, symObjAddr: 0x1EC00, symBinAddr: 0x10002C1E4, symSize: 0x58 }
  - { offset: 0x2A01C, size: 0x8, addend: 0x0, symName: __RNvCs41t77sgS83u_2cc52map_darwin_target_from_rust_to_compiler_architecture, symObjAddr: 0x1EC58, symBinAddr: 0x10002C23C, symSize: 0x40C }
  - { offset: 0x2A068, size: 0x8, addend: 0x0, symName: __RNvCs41t77sgS83u_2cc11is_disabled, symObjAddr: 0x1F268, symBinAddr: 0x10002C84C, symSize: 0x164 }
  - { offset: 0x2A0CE, size: 0x8, addend: 0x0, symName: __RNvCs41t77sgS83u_2cc14check_disabled, symObjAddr: 0x1F5B0, symBinAddr: 0x10002CB94, symSize: 0x98 }
  - { offset: 0x2A0F1, size: 0x8, addend: 0x0, symName: __RNvXs6_Cs41t77sgS83u_2ccNtB5_12CompilerFlagNtNtCs9f3LFPSIp77_4core3fmt5Debug3fmtB5_, symObjAddr: 0x1F648, symBinAddr: 0x10002CC2C, symSize: 0x8C }
  - { offset: 0x2A134, size: 0x8, addend: 0x0, symName: __RNvXs7_Cs41t77sgS83u_2ccNtB5_12CompilerFlagNtNtCs9f3LFPSIp77_4core3cmp2Eq27assert_receiver_is_total_eqB5_, symObjAddr: 0x1F6D4, symBinAddr: 0x10002CCB8, symSize: 0x10 }
  - { offset: 0x2A164, size: 0x8, addend: 0x0, symName: __RNvXs9_Cs41t77sgS83u_2ccNtB5_12CompilerFlagNtNtCs9f3LFPSIp77_4core3cmp9PartialEq2eqB5_, symObjAddr: 0x1F6E4, symBinAddr: 0x10002CCC8, symSize: 0x60 }
  - { offset: 0x2A1A7, size: 0x8, addend: 0x0, symName: __RINvXsa_Cs41t77sgS83u_2ccNtB6_12CompilerFlagNtNtCs9f3LFPSIp77_4core4hash4Hash4hashNtNtNtCs27l1GJC5rMQ_3std4hash6random13DefaultHasherEB6_, symObjAddr: 0x1F744, symBinAddr: 0x10002CD28, symSize: 0x40 }
  - { offset: 0x2A1EF, size: 0x8, addend: 0x0, symName: __RNvXsb_Cs41t77sgS83u_2ccNtB5_10BuildCacheNtNtCs9f3LFPSIp77_4core3fmt5Debug3fmtB5_, symObjAddr: 0x1F784, symBinAddr: 0x10002CD68, symSize: 0xF8 }
  - { offset: 0x2A26E, size: 0x8, addend: 0x0, symName: __RNvXsc_Cs41t77sgS83u_2ccNtB5_10BuildCacheNtNtCs9f3LFPSIp77_4core7default7Default7defaultB5_, symObjAddr: 0x1F87C, symBinAddr: 0x10002CE60, symSize: 0x180 }
  - { offset: 0x2A292, size: 0x8, addend: 0x0, symName: __RNvXsd_Cs41t77sgS83u_2ccNtB5_5BuildNtNtCs9f3LFPSIp77_4core5clone5Clone5cloneB5_, symObjAddr: 0x1F9FC, symBinAddr: 0x10002CFE0, symSize: 0x858 }
  - { offset: 0x2A2C6, size: 0x8, addend: 0x0, symName: __RNvXse_Cs41t77sgS83u_2ccNtB5_5BuildNtNtCs9f3LFPSIp77_4core3fmt5Debug3fmtB5_, symObjAddr: 0x20254, symBinAddr: 0x10002D838, symSize: 0x3C0 }
  - { offset: 0x2A345, size: 0x8, addend: 0x0, symName: __RNvXsf_Cs41t77sgS83u_2ccNtB5_9ErrorKindNtNtCs9f3LFPSIp77_4core5clone5Clone5cloneB5_, symObjAddr: 0x20614, symBinAddr: 0x10002DBF8, symSize: 0x13C }
  - { offset: 0x2A379, size: 0x8, addend: 0x0, symName: __RNvXsg_Cs41t77sgS83u_2ccNtB5_9ErrorKindNtNtCs9f3LFPSIp77_4core3fmt5Debug3fmtB5_, symObjAddr: 0x20750, symBinAddr: 0x10002DD34, symSize: 0x1E4 }
  - { offset: 0x2A3BC, size: 0x8, addend: 0x0, symName: __RNvXsh_Cs41t77sgS83u_2ccNtB5_5ErrorNtNtCs9f3LFPSIp77_4core5clone5Clone5cloneB5_, symObjAddr: 0x20934, symBinAddr: 0x10002DF18, symSize: 0x5C }
  - { offset: 0x2A3F0, size: 0x8, addend: 0x0, symName: __RNvXsi_Cs41t77sgS83u_2ccNtB5_5ErrorNtNtCs9f3LFPSIp77_4core3fmt5Debug3fmtB5_, symObjAddr: 0x20990, symBinAddr: 0x10002DF74, symSize: 0x88 }
  - { offset: 0x2A433, size: 0x8, addend: 0x0, symName: __RNvXsj_Cs41t77sgS83u_2ccNtB5_6ObjectNtNtCs9f3LFPSIp77_4core5clone5Clone5cloneB5_, symObjAddr: 0x20A18, symBinAddr: 0x10002DFFC, symSize: 0x8C }
  - { offset: 0x2A467, size: 0x8, addend: 0x0, symName: __RNvXsk_Cs41t77sgS83u_2ccNtB5_6ObjectNtNtCs9f3LFPSIp77_4core3fmt5Debug3fmtB5_, symObjAddr: 0x20AA4, symBinAddr: 0x10002E088, symSize: 0x88 }
  - { offset: 0x2A4AA, size: 0x8, addend: 0x0, symName: __RNvXsl_Cs41t77sgS83u_2ccNtB5_10AsmFileExtNtNtCs9f3LFPSIp77_4core5clone5Clone5cloneB5_, symObjAddr: 0x20B2C, symBinAddr: 0x10002E110, symSize: 0x1C }
  - { offset: 0x2A4DE, size: 0x8, addend: 0x0, symName: __RNvXso_Cs41t77sgS83u_2ccNtB5_10AsmFileExtNtNtCs9f3LFPSIp77_4core3cmp9PartialEq2eqB5_, symObjAddr: 0x20B48, symBinAddr: 0x10002E12C, symSize: 0x3C }
  - { offset: 0x2AB20, size: 0x8, addend: 0x0, symName: __RINvMCs41t77sgS83u_2ccNtB3_5Error3newNtNtCsdze8u8oDPro_5alloc6string6StringEB3_, symObjAddr: 0x59C, symBinAddr: 0x10000DB80, symSize: 0x68 }
  - { offset: 0x2AB5C, size: 0x8, addend: 0x0, symName: __RINvMCs41t77sgS83u_2ccNtB3_5Error3newReEB3_, symObjAddr: 0x604, symBinAddr: 0x10000DBE8, symSize: 0x78 }
  - { offset: 0x2AD5B, size: 0x8, addend: 0x0, symName: __RNvMs2_Cs41t77sgS83u_2ccNtB5_6Object3new, symObjAddr: 0x838, symBinAddr: 0x10000DE1C, symSize: 0x38 }
  - { offset: 0x2AD8D, size: 0x8, addend: 0x0, symName: __RNvMs3_Cs41t77sgS83u_2ccNtB5_5Build3new, symObjAddr: 0x870, symBinAddr: 0x10000DE54, symSize: 0x4C4 }
  - { offset: 0x2ADCB, size: 0x8, addend: 0x0, symName: __RINvMs3_Cs41t77sgS83u_2ccNtB6_5Build4flagRNtNtNtCs27l1GJC5rMQ_3std3ffi6os_str5OsStrEB6_, symObjAddr: 0xD34, symBinAddr: 0x10000E318, symSize: 0xA4 }
  - { offset: 0x2AE06, size: 0x8, addend: 0x0, symName: __RNvMs3_Cs41t77sgS83u_2ccNtB5_5Build11remove_flag, symObjAddr: 0xDD8, symBinAddr: 0x10000E3BC, symSize: 0x4C }
  - { offset: 0x2AE38, size: 0x8, addend: 0x0, symName: __RNvMs3_Cs41t77sgS83u_2ccNtB5_5Build17ensure_check_file, symObjAddr: 0xE84, symBinAddr: 0x10000E468, symSize: 0x42C }
  - { offset: 0x2AFFA, size: 0x8, addend: 0x0, symName: __RNvMs3_Cs41t77sgS83u_2ccNtB5_5Build23is_flag_supported_inner, symObjAddr: 0x12B0, symBinAddr: 0x10000E894, symSize: 0xE24 }
  - { offset: 0x2B305, size: 0x8, addend: 0x0, symName: __RNvMs3_Cs41t77sgS83u_2ccNtB5_5Build26try_flags_from_environment, symObjAddr: 0x20D4, symBinAddr: 0x10000F6B8, symSize: 0x188 }
  - { offset: 0x2B38B, size: 0x8, addend: 0x0, symName: __RNvMs3_Cs41t77sgS83u_2ccNtB5_5Build11shared_flag, symObjAddr: 0x2300, symBinAddr: 0x10000F8E4, symSize: 0x34 }
  - { offset: 0x2B3BD, size: 0x8, addend: 0x0, symName: __RNvMs3_Cs41t77sgS83u_2ccNtB5_5Build11static_flag, symObjAddr: 0x2334, symBinAddr: 0x10000F918, symSize: 0x34 }
  - { offset: 0x2B3EF, size: 0x8, addend: 0x0, symName: __RNvMs3_Cs41t77sgS83u_2ccNtB5_5Build16no_default_flags, symObjAddr: 0x2368, symBinAddr: 0x10000F94C, symSize: 0x2C }
  - { offset: 0x2B471, size: 0x8, addend: 0x0, symName: __RNvMs3_Cs41t77sgS83u_2ccNtB5_5Build9get_files, symObjAddr: 0x2394, symBinAddr: 0x10000F978, symSize: 0x3C }
  - { offset: 0x2B494, size: 0x8, addend: 0x0, symName: __RNvMs3_Cs41t77sgS83u_2ccNtB5_5Build3cpp, symObjAddr: 0x23D0, symBinAddr: 0x10000F9B4, symSize: 0x2C }
  - { offset: 0x2B4C6, size: 0x8, addend: 0x0, symName: __RNvMs3_Cs41t77sgS83u_2ccNtB5_5Build4cuda, symObjAddr: 0x23FC, symBinAddr: 0x10000F9E0, symSize: 0xE4 }
  - { offset: 0x2B4F8, size: 0x8, addend: 0x0, symName: __RNvMs3_Cs41t77sgS83u_2ccNtB5_5Build6cudart, symObjAddr: 0x24E0, symBinAddr: 0x10000FAC4, symSize: 0xDC }
  - { offset: 0x2B52A, size: 0x8, addend: 0x0, symName: __RNvMs3_Cs41t77sgS83u_2ccNtB5_5Build5ccbin, symObjAddr: 0x25BC, symBinAddr: 0x10000FBA0, symSize: 0x2C }
  - { offset: 0x2B55C, size: 0x8, addend: 0x0, symName: __RNvMs3_Cs41t77sgS83u_2ccNtB5_5Build3std, symObjAddr: 0x25E8, symBinAddr: 0x10000FBCC, symSize: 0xB0 }
  - { offset: 0x2B58E, size: 0x8, addend: 0x0, symName: __RNvMs3_Cs41t77sgS83u_2ccNtB5_5Build20warnings_into_errors, symObjAddr: 0x2698, symBinAddr: 0x10000FC7C, symSize: 0x2C }
  - { offset: 0x2B5C0, size: 0x8, addend: 0x0, symName: __RNvMs3_Cs41t77sgS83u_2ccNtB5_5Build8warnings, symObjAddr: 0x26C4, symBinAddr: 0x10000FCA8, symSize: 0x40 }
  - { offset: 0x2B5F2, size: 0x8, addend: 0x0, symName: __RNvMs3_Cs41t77sgS83u_2ccNtB5_5Build14extra_warnings, symObjAddr: 0x2704, symBinAddr: 0x10000FCE8, symSize: 0x34 }
  - { offset: 0x2B624, size: 0x8, addend: 0x0, symName: __RNvMs3_Cs41t77sgS83u_2ccNtB5_5Build6target, symObjAddr: 0x2738, symBinAddr: 0x10000FD1C, symSize: 0xB0 }
  - { offset: 0x2B656, size: 0x8, addend: 0x0, symName: __RNvMs3_Cs41t77sgS83u_2ccNtB5_5Build4host, symObjAddr: 0x27E8, symBinAddr: 0x10000FDCC, symSize: 0xB0 }
  - { offset: 0x2B688, size: 0x8, addend: 0x0, symName: __RNvMs3_Cs41t77sgS83u_2ccNtB5_5Build9opt_level, symObjAddr: 0x2898, symBinAddr: 0x10000FE7C, symSize: 0xB4 }
  - { offset: 0x2B6BA, size: 0x8, addend: 0x0, symName: __RNvMs3_Cs41t77sgS83u_2ccNtB5_5Build13opt_level_str, symObjAddr: 0x294C, symBinAddr: 0x10000FF30, symSize: 0xB0 }
  - { offset: 0x2B6EC, size: 0x8, addend: 0x0, symName: __RNvMs3_Cs41t77sgS83u_2ccNtB5_5Build5debug, symObjAddr: 0x29FC, symBinAddr: 0x10000FFE0, symSize: 0x34 }
  - { offset: 0x2B71E, size: 0x8, addend: 0x0, symName: __RNvMs3_Cs41t77sgS83u_2ccNtB5_5Build19force_frame_pointer, symObjAddr: 0x2A30, symBinAddr: 0x100010014, symSize: 0x34 }
  - { offset: 0x2B750, size: 0x8, addend: 0x0, symName: __RINvMs3_Cs41t77sgS83u_2ccNtB6_5Build8compilerRNtNtCs27l1GJC5rMQ_3std4path4PathEB6_, symObjAddr: 0x2A64, symBinAddr: 0x100010048, symSize: 0xE4 }
  - { offset: 0x2B78B, size: 0x8, addend: 0x0, symName: __RNvMs3_Cs41t77sgS83u_2ccNtB5_5Build14cargo_metadata, symObjAddr: 0x2B48, symBinAddr: 0x10001012C, symSize: 0x2C }
  - { offset: 0x2B7BD, size: 0x8, addend: 0x0, symName: __RNvMs3_Cs41t77sgS83u_2ccNtB5_5Build14cargo_warnings, symObjAddr: 0x2B74, symBinAddr: 0x100010158, symSize: 0x2C }
  - { offset: 0x2B7EF, size: 0x8, addend: 0x0, symName: __RNvMs3_Cs41t77sgS83u_2ccNtB5_5Build11cargo_debug, symObjAddr: 0x2BA0, symBinAddr: 0x100010184, symSize: 0x2C }
  - { offset: 0x2B821, size: 0x8, addend: 0x0, symName: __RNvMs3_Cs41t77sgS83u_2ccNtB5_5Build12cargo_output, symObjAddr: 0x2BCC, symBinAddr: 0x1000101B0, symSize: 0x64 }
  - { offset: 0x2B853, size: 0x8, addend: 0x0, symName: __RNvMs3_Cs41t77sgS83u_2ccNtB5_5Build3pic, symObjAddr: 0x2C30, symBinAddr: 0x100010214, symSize: 0x34 }
  - { offset: 0x2B885, size: 0x8, addend: 0x0, symName: __RNvMs3_Cs41t77sgS83u_2ccNtB5_5Build7use_plt, symObjAddr: 0x2C64, symBinAddr: 0x100010248, symSize: 0x34 }
  - { offset: 0x2B8B7, size: 0x8, addend: 0x0, symName: __RNvMs3_Cs41t77sgS83u_2ccNtB5_5Build25emit_rerun_if_env_changed, symObjAddr: 0x2C98, symBinAddr: 0x10001027C, symSize: 0x2C }
  - { offset: 0x2B8E9, size: 0x8, addend: 0x0, symName: __RNvMs3_Cs41t77sgS83u_2ccNtB5_5Build10static_crt, symObjAddr: 0x2CC4, symBinAddr: 0x1000102A8, symSize: 0x34 }
  - { offset: 0x2B91B, size: 0x8, addend: 0x0, symName: __RNvMs3_Cs41t77sgS83u_2ccNtB5_5Build19shell_escaped_flags, symObjAddr: 0x2CF8, symBinAddr: 0x1000102DC, symSize: 0x34 }
  - { offset: 0x2B94D, size: 0x8, addend: 0x0, symName: __RNvMs3_Cs41t77sgS83u_2ccNtB5_5Build17inherit_rustflags, symObjAddr: 0x2D2C, symBinAddr: 0x100010310, symSize: 0x2C }
  - { offset: 0x2BB0E, size: 0x8, addend: 0x0, symName: __RNvMs3_Cs41t77sgS83u_2ccNtB5_5Build11try_compile, symObjAddr: 0x2D58, symBinAddr: 0x10001033C, symSize: 0x18A0 }
  - { offset: 0x2C271, size: 0x8, addend: 0x0, symName: __RNvMs3_Cs41t77sgS83u_2ccNtB5_5Build7compile, symObjAddr: 0x47DC, symBinAddr: 0x100011DC0, symSize: 0xDC }
  - { offset: 0x2C2B9, size: 0x8, addend: 0x0, symName: __RNvMs3_Cs41t77sgS83u_2ccNtB5_5Build21compile_intermediates, symObjAddr: 0x48B8, symBinAddr: 0x100011E9C, symSize: 0xE0 }
  - { offset: 0x2C2F3, size: 0x8, addend: 0x0, symName: __RNvMs3_Cs41t77sgS83u_2ccNtB5_5Build25try_compile_intermediates, symObjAddr: 0x4998, symBinAddr: 0x100011F7C, symSize: 0x32C }
  - { offset: 0x2C3D7, size: 0x8, addend: 0x0, symName: __RNvMs3_Cs41t77sgS83u_2ccNtB5_5Build15compile_objects, symObjAddr: 0x4D10, symBinAddr: 0x1000122F4, symSize: 0x474 }
  - { offset: 0x2CA9A, size: 0x8, addend: 0x0, symName: __RNvMs3_Cs41t77sgS83u_2ccNtB5_5Build25create_compile_object_cmd, symObjAddr: 0x6484, symBinAddr: 0x100013A68, symSize: 0xC9C }
  - { offset: 0x2CD08, size: 0x8, addend: 0x0, symName: __RNvMs3_Cs41t77sgS83u_2ccNtB5_5Build10try_expand, symObjAddr: 0x7164, symBinAddr: 0x100014748, symSize: 0x534 }
  - { offset: 0x2CE27, size: 0x8, addend: 0x0, symName: __RNvMs3_Cs41t77sgS83u_2ccNtB5_5Build6expand, symObjAddr: 0x76DC, symBinAddr: 0x100014CC0, symSize: 0xE0 }
  - { offset: 0x2CE61, size: 0x8, addend: 0x0, symName: __RNvMs3_Cs41t77sgS83u_2ccNtB5_5Build12get_compiler, symObjAddr: 0x77BC, symBinAddr: 0x100014DA0, symSize: 0xF8 }
  - { offset: 0x2CF98, size: 0x8, addend: 0x0, symName: __RNvMs3_Cs41t77sgS83u_2ccNtB5_5Build16try_get_compiler, symObjAddr: 0x78B4, symBinAddr: 0x100014E98, symSize: 0x1358 }
  - { offset: 0x2D578, size: 0x8, addend: 0x0, symName: __RNvMs3_Cs41t77sgS83u_2ccNtB5_5Build17add_default_flags, symObjAddr: 0x8C0C, symBinAddr: 0x1000161F0, symSize: 0x3FE4 }
  - { offset: 0x2DB2F, size: 0x8, addend: 0x0, symName: __RNvMs3_Cs41t77sgS83u_2ccNtB5_5Build23add_inherited_rustflags, symObjAddr: 0xCBF0, symBinAddr: 0x10001A1D4, symSize: 0x24C }
  - { offset: 0x2DC12, size: 0x8, addend: 0x0, symName: __RNvMs3_Cs41t77sgS83u_2ccNtB5_5Build9has_flags, symObjAddr: 0xCE3C, symBinAddr: 0x10001A420, symSize: 0xE0 }
  - { offset: 0x2DD07, size: 0x8, addend: 0x0, symName: __RNvMs3_Cs41t77sgS83u_2ccNtB5_5Build20msvc_macro_assembler, symObjAddr: 0xCF1C, symBinAddr: 0x10001A500, symSize: 0xE20 }
  - { offset: 0x2E33C, size: 0x8, addend: 0x0, symName: __RNvMs3_Cs41t77sgS83u_2ccNtB5_5Build8assemble, symObjAddr: 0xDD84, symBinAddr: 0x10001B368, symSize: 0xB58 }
  - { offset: 0x2E615, size: 0x8, addend: 0x0, symName: __RNvMs3_Cs41t77sgS83u_2ccNtB5_5Build20assemble_progressive, symObjAddr: 0xE9D0, symBinAddr: 0x10001BFB4, symSize: 0x620 }
  - { offset: 0x2E791, size: 0x8, addend: 0x0, symName: __RNvMs3_Cs41t77sgS83u_2ccNtB5_5Build11apple_flags, symObjAddr: 0xEFF0, symBinAddr: 0x10001C5D4, symSize: 0x7E4 }
  - { offset: 0x2E98F, size: 0x8, addend: 0x0, symName: __RINvMs3_Cs41t77sgS83u_2ccNtB6_5Build3cmdNtNtCs27l1GJC5rMQ_3std4path7PathBufEB6_, symObjAddr: 0xF7D4, symBinAddr: 0x10001CDB8, symSize: 0x184 }
  - { offset: 0x2EA1F, size: 0x8, addend: 0x0, symName: __RINvMs3_Cs41t77sgS83u_2ccNtB6_5Build3cmdRNtNtCs27l1GJC5rMQ_3std4path4PathEB6_, symObjAddr: 0xF958, symBinAddr: 0x10001CF3C, symSize: 0x194 }
  - { offset: 0x2EAAF, size: 0x8, addend: 0x0, symName: __RINvMs3_Cs41t77sgS83u_2ccNtB6_5Build3cmdRNtNtCs27l1GJC5rMQ_3std4path7PathBufEB6_, symObjAddr: 0xFAEC, symBinAddr: 0x10001D0D0, symSize: 0x18C }
  - { offset: 0x2EB3E, size: 0x8, addend: 0x0, symName: __RINvMs3_Cs41t77sgS83u_2ccNtB6_5Build3cmdReEB6_, symObjAddr: 0xFC78, symBinAddr: 0x10001D25C, symSize: 0x194 }
  - { offset: 0x2EBCE, size: 0x8, addend: 0x0, symName: __RNvMs3_Cs41t77sgS83u_2ccNtB5_5Build17get_base_compiler, symObjAddr: 0xFE0C, symBinAddr: 0x10001D3F0, symSize: 0x1C68 }
  - { offset: 0x2F344, size: 0x8, addend: 0x0, symName: __RNvMs3_Cs41t77sgS83u_2ccNtB5_5Build22rustc_wrapper_fallback, symObjAddr: 0x1216C, symBinAddr: 0x10001F750, symSize: 0x2F0 }
  - { offset: 0x2F4B1, size: 0x8, addend: 0x0, symName: __RNvMs3_Cs41t77sgS83u_2ccNtB5_5Build8env_tool, symObjAddr: 0x1245C, symBinAddr: 0x10001FA40, symSize: 0xA44 }
  - { offset: 0x2F6AE, size: 0x8, addend: 0x0, symName: __RNvMs3_Cs41t77sgS83u_2ccNtB5_5Build19get_cpp_link_stdlib, symObjAddr: 0x12F30, symBinAddr: 0x100020514, symSize: 0x734 }
  - { offset: 0x2F784, size: 0x8, addend: 0x0, symName: __RNvMs3_Cs41t77sgS83u_2ccNtB5_5Build6get_ar, symObjAddr: 0x13664, symBinAddr: 0x100020C48, symSize: 0x34 }
  - { offset: 0x2F7A7, size: 0x8, addend: 0x0, symName: __RNvMs3_Cs41t77sgS83u_2ccNtB5_5Build12get_archiver, symObjAddr: 0x13698, symBinAddr: 0x100020C7C, symSize: 0xEC }
  - { offset: 0x2F7E1, size: 0x8, addend: 0x0, symName: __RNvMs3_Cs41t77sgS83u_2ccNtB5_5Build16try_get_archiver, symObjAddr: 0x13784, symBinAddr: 0x100020D68, symSize: 0x120 }
  - { offset: 0x2F842, size: 0x8, addend: 0x0, symName: __RNvMs3_Cs41t77sgS83u_2ccNtB5_5Build26try_get_archiver_and_flags, symObjAddr: 0x138A4, symBinAddr: 0x100020E88, symSize: 0x3E8 }
  - { offset: 0x2F924, size: 0x8, addend: 0x0, symName: __RNvMs3_Cs41t77sgS83u_2ccNtB5_5Build17get_base_archiver, symObjAddr: 0x13C8C, symBinAddr: 0x100021270, symSize: 0x15C }
  - { offset: 0x2F973, size: 0x8, addend: 0x0, symName: __RNvMs3_Cs41t77sgS83u_2ccNtB5_5Build10get_ranlib, symObjAddr: 0x13DE8, symBinAddr: 0x1000213CC, symSize: 0xEC }
  - { offset: 0x2F9AD, size: 0x8, addend: 0x0, symName: __RNvMs3_Cs41t77sgS83u_2ccNtB5_5Build14try_get_ranlib, symObjAddr: 0x13ED4, symBinAddr: 0x1000214B8, symSize: 0x250 }
  - { offset: 0x2FA3C, size: 0x8, addend: 0x0, symName: __RNvMs3_Cs41t77sgS83u_2ccNtB5_5Build15get_base_ranlib, symObjAddr: 0x14124, symBinAddr: 0x100021708, symSize: 0x1DC }
  - { offset: 0x2FB33, size: 0x8, addend: 0x0, symName: __RNvMs3_Cs41t77sgS83u_2ccNtB5_5Build25get_base_archiver_variant, symObjAddr: 0x14300, symBinAddr: 0x1000218E4, symSize: 0x1AD8 }
  - { offset: 0x301A0, size: 0x8, addend: 0x0, symName: __RNvMs3_Cs41t77sgS83u_2ccNtB5_5Build17prefix_for_target, symObjAddr: 0x16460, symBinAddr: 0x100023A44, symSize: 0xF0 }
  - { offset: 0x301D2, size: 0x8, addend: 0x0, symName: __RNvMs3_Cs41t77sgS83u_2ccNtB5_5Build23find_working_gnu_prefix, symObjAddr: 0x184DC, symBinAddr: 0x100025AC0, symSize: 0x160 }
  - { offset: 0x302AB, size: 0x8, addend: 0x0, symName: __RNvMs3_Cs41t77sgS83u_2ccNtB5_5Build10get_target, symObjAddr: 0x18A34, symBinAddr: 0x100026018, symSize: 0x198 }
  - { offset: 0x302FD, size: 0x8, addend: 0x0, symName: __RNvMs3_Cs41t77sgS83u_2ccNtB5_5Build14get_raw_target, symObjAddr: 0x18BCC, symBinAddr: 0x1000261B0, symSize: 0xD4 }
  - { offset: 0x3033E, size: 0x8, addend: 0x0, symName: __RNvMs3_Cs41t77sgS83u_2ccNtB5_5Build20get_is_cross_compile, symObjAddr: 0x18CA0, symBinAddr: 0x100026284, symSize: 0x28C }
  - { offset: 0x30402, size: 0x8, addend: 0x0, symName: __RNvMs3_Cs41t77sgS83u_2ccNtB5_5Build13get_opt_level, symObjAddr: 0x18F2C, symBinAddr: 0x100026510, symSize: 0xD4 }
  - { offset: 0x30443, size: 0x8, addend: 0x0, symName: __RNvMs3_Cs41t77sgS83u_2ccNtB5_5Build9get_debug, symObjAddr: 0x19000, symBinAddr: 0x1000265E4, symSize: 0x44 }
  - { offset: 0x30466, size: 0x8, addend: 0x0, symName: __RNvMs3_Cs41t77sgS83u_2ccNtB5_5Build23get_shell_escaped_flags, symObjAddr: 0x1908C, symBinAddr: 0x100026670, symSize: 0x44 }
  - { offset: 0x30489, size: 0x8, addend: 0x0, symName: __RNvMs3_Cs41t77sgS83u_2ccNtB5_5Build17get_dwarf_version, symObjAddr: 0x19118, symBinAddr: 0x1000266FC, symSize: 0x354 }
  - { offset: 0x304FE, size: 0x8, addend: 0x0, symName: __RNvMs3_Cs41t77sgS83u_2ccNtB5_5Build23get_force_frame_pointer, symObjAddr: 0x1946C, symBinAddr: 0x100026A50, symSize: 0x44 }
  - { offset: 0x30521, size: 0x8, addend: 0x0, symName: __RNvMs3_Cs41t77sgS83u_2ccNtB5_5Build11get_out_dir, symObjAddr: 0x194E8, symBinAddr: 0x100026ACC, symSize: 0x144 }
  - { offset: 0x30660, size: 0x8, addend: 0x0, symName: __RNvMs3_Cs41t77sgS83u_2ccNtB5_5Build6getenv, symObjAddr: 0x19674, symBinAddr: 0x100026C58, symSize: 0x5E0 }
  - { offset: 0x30859, size: 0x8, addend: 0x0, symName: __RNvMs3_Cs41t77sgS83u_2ccNtB5_5Build14getenv_boolean, symObjAddr: 0x19F70, symBinAddr: 0x100027554, symSize: 0x1E0 }
  - { offset: 0x308A2, size: 0x8, addend: 0x0, symName: __RNvMs3_Cs41t77sgS83u_2ccNtB5_5Build13getenv_unwrap, symObjAddr: 0x1A150, symBinAddr: 0x100027734, symSize: 0x154 }
  - { offset: 0x30973, size: 0x8, addend: 0x0, symName: __RNvMs3_Cs41t77sgS83u_2ccNtB5_5Build17getenv_unwrap_str, symObjAddr: 0x1A2A4, symBinAddr: 0x100027888, symSize: 0x158 }
  - { offset: 0x309F9, size: 0x8, addend: 0x0, symName: __RNvMs3_Cs41t77sgS83u_2ccNtB5_5Build27getenv_with_target_prefixes, symObjAddr: 0x1A4AC, symBinAddr: 0x100027A90, symSize: 0x5B0 }
  - { offset: 0x30C73, size: 0x8, addend: 0x0, symName: __RNvMs3_Cs41t77sgS83u_2ccNtB5_5Build8envflags, symObjAddr: 0x1AD20, symBinAddr: 0x100028304, symSize: 0x258 }
  - { offset: 0x30D1E, size: 0x8, addend: 0x0, symName: __RNvMs3_Cs41t77sgS83u_2ccNtB5_5Build20fix_env_for_apple_os, symObjAddr: 0x1AF78, symBinAddr: 0x10002855C, symSize: 0x158 }
  - { offset: 0x30DA4, size: 0x8, addend: 0x0, symName: __RNvMs3_Cs41t77sgS83u_2ccNtB5_5Build20apple_sdk_root_inner, symObjAddr: 0x1B0D0, symBinAddr: 0x1000286B4, symSize: 0xB6C }
  - { offset: 0x30EA6, size: 0x8, addend: 0x0, symName: __RNvMs3_Cs41t77sgS83u_2ccNtB5_5Build14apple_sdk_root, symObjAddr: 0x1BD48, symBinAddr: 0x10002932C, symSize: 0x3DC }
  - { offset: 0x30F5B, size: 0x8, addend: 0x0, symName: __RNvMs3_Cs41t77sgS83u_2ccNtB5_5Build23apple_deployment_target, symObjAddr: 0x1C124, symBinAddr: 0x100029708, symSize: 0x628 }
  - { offset: 0x31103, size: 0x8, addend: 0x0, symName: __RNvMs3_Cs41t77sgS83u_2ccNtB5_5Build12wasi_sysroot, symObjAddr: 0x1D3E4, symBinAddr: 0x10002A9C8, symSize: 0x150 }
  - { offset: 0x31144, size: 0x8, addend: 0x0, symName: __RNvMs3_Cs41t77sgS83u_2ccNtB5_5Build15cuda_file_count, symObjAddr: 0x1D534, symBinAddr: 0x10002AB18, symSize: 0x40 }
  - { offset: 0x31167, size: 0x8, addend: 0x0, symName: __RNvMs3_Cs41t77sgS83u_2ccNtB5_5Build5which, symObjAddr: 0x1D5F4, symBinAddr: 0x10002ABD8, symSize: 0xE8 }
  - { offset: 0x311CE, size: 0x8, addend: 0x0, symName: __RNvMs3_Cs41t77sgS83u_2ccNtB5_5Build15search_programs, symObjAddr: 0x1DAD4, symBinAddr: 0x10002B0B8, symSize: 0x3A4 }
  - { offset: 0x312E6, size: 0x8, addend: 0x0, symName: __RNvMs3_Cs41t77sgS83u_2ccNtB5_5Build21windows_registry_find, symObjAddr: 0x1DE78, symBinAddr: 0x10002B45C, symSize: 0x60 }
  - { offset: 0x31327, size: 0x8, addend: 0x0, symName: __RNvMs3_Cs41t77sgS83u_2ccNtB5_5Build26windows_registry_find_tool, symObjAddr: 0x1DF3C, symBinAddr: 0x10002B520, symSize: 0xC0 }
  - { offset: 0x31368, size: 0x8, addend: 0x0, symName: __RNvMs5_Cs41t77sgS83u_2ccNtB5_10AsmFileExt9from_path, symObjAddr: 0x1F064, symBinAddr: 0x10002C648, symSize: 0x204 }
  - { offset: 0x318D4, size: 0x8, addend: 0x0, symName: __RINvMs6_NtCscXJUXcj6jCz_9hashbrown3rawINtB6_8RawTableTINtNtCsdze8u8oDPro_5alloc5boxed3BoxNtNtCs27l1GJC5rMQ_3std4path4PathENtNtCs41t77sgS83u_2cc4tool10ToolFamilyEE14reserve_rehashNCINvNtB8_3map11make_hasherBQ_B1W_NtNtNtB1t_4hash6random11RandomStateE0EB20_, symObjAddr: 0x0, symBinAddr: 0x100169244, symSize: 0x928 }
  - { offset: 0x31910, size: 0x8, addend: 0x0, symName: __RNCINvMs6_NtCscXJUXcj6jCz_9hashbrown3rawINtB8_8RawTableTINtNtCsdze8u8oDPro_5alloc5boxed3BoxNtNtCs27l1GJC5rMQ_3std4path4PathENtNtCs41t77sgS83u_2cc4tool10ToolFamilyEE14reserve_rehashNCINvNtBa_3map11make_hasherBS_B1Y_NtNtNtB1v_4hash6random11RandomStateE0E0B22_, symObjAddr: 0x60BC, symBinAddr: 0x10003146C, symSize: 0xC4 }
  - { offset: 0x31AD9, size: 0x8, addend: 0x0, symName: __RNCINvMs6_NtCscXJUXcj6jCz_9hashbrown3rawINtB8_8RawTableTINtNtCsdze8u8oDPro_5alloc5boxed3BoxNtNtCs27l1GJC5rMQ_3std4path4PathENtNtCs41t77sgS83u_2cc4tool10ToolFamilyEE14reserve_rehashNCINvNtBa_3map11make_hasherBS_B1Y_NtNtNtB1v_4hash6random11RandomStateE0Es_0B22_, symObjAddr: 0x6180, symBinAddr: 0x100031530, symSize: 0x30 }
  - { offset: 0x31B29, size: 0x8, addend: 0x0, symName: __RNCINvMs6_NtCscXJUXcj6jCz_9hashbrown3rawINtB8_8RawTableTINtNtCsdze8u8oDPro_5alloc5boxed3BoxeEINtNtBX_4sync3ArcNtNtNtCs27l1GJC5rMQ_3std3ffi6os_str5OsStrEEE14reserve_rehashNCINvNtBa_3map11make_hasherBS_B1t_NtNtNtB1Q_4hash6random11RandomStateE0E0Cs41t77sgS83u_2cc, symObjAddr: 0x6340, symBinAddr: 0x1000316F0, symSize: 0xC4 }
  - { offset: 0x31CF2, size: 0x8, addend: 0x0, symName: __RNCINvMs6_NtCscXJUXcj6jCz_9hashbrown3rawINtB8_8RawTableTINtNtCsdze8u8oDPro_5alloc5boxed3BoxeEINtNtBX_4sync3ArcNtNtNtCs27l1GJC5rMQ_3std3ffi6os_str5OsStrEEE14reserve_rehashNCINvNtBa_3map11make_hasherBS_B1t_NtNtNtB1Q_4hash6random11RandomStateE0Es_0Cs41t77sgS83u_2cc, symObjAddr: 0x6404, symBinAddr: 0x1000317B4, symSize: 0x30 }
  - { offset: 0x31D42, size: 0x8, addend: 0x0, symName: __RNCINvMs6_NtCscXJUXcj6jCz_9hashbrown3rawINtB8_8RawTableTINtNtCsdze8u8oDPro_5alloc5boxed3BoxeEINtNtBX_4sync3ArceEEE14reserve_rehashNCINvNtBa_3map11make_hasherBS_B1t_NtNtNtCs27l1GJC5rMQ_3std4hash6random11RandomStateE0E0Cs41t77sgS83u_2cc, symObjAddr: 0x65C4, symBinAddr: 0x100031974, symSize: 0xC4 }
  - { offset: 0x31F0B, size: 0x8, addend: 0x0, symName: __RNCINvMs6_NtCscXJUXcj6jCz_9hashbrown3rawINtB8_8RawTableTINtNtCsdze8u8oDPro_5alloc5boxed3BoxeEINtNtBX_4sync3ArceEEE14reserve_rehashNCINvNtBa_3map11make_hasherBS_B1t_NtNtNtCs27l1GJC5rMQ_3std4hash6random11RandomStateE0Es_0Cs41t77sgS83u_2cc, symObjAddr: 0x6688, symBinAddr: 0x100031A38, symSize: 0x30 }
  - { offset: 0x31F5B, size: 0x8, addend: 0x0, symName: __RNCINvMs6_NtCscXJUXcj6jCz_9hashbrown3rawINtB8_8RawTableTINtNtCsdze8u8oDPro_5alloc5boxed3BoxeEINtNtCs9f3LFPSIp77_4core6option6OptionINtNtBX_4sync3ArcNtNtNtCs27l1GJC5rMQ_3std3ffi6os_str5OsStrEEEE14reserve_rehashNCINvNtBa_3map11make_hasherBS_B1t_NtNtNtB2s_4hash6random11RandomStateE0E0Cs41t77sgS83u_2cc, symObjAddr: 0x6848, symBinAddr: 0x100031BF8, symSize: 0xC4 }
  - { offset: 0x32124, size: 0x8, addend: 0x0, symName: __RNCINvMs6_NtCscXJUXcj6jCz_9hashbrown3rawINtB8_8RawTableTINtNtCsdze8u8oDPro_5alloc5boxed3BoxeEINtNtCs9f3LFPSIp77_4core6option6OptionINtNtBX_4sync3ArcNtNtNtCs27l1GJC5rMQ_3std3ffi6os_str5OsStrEEEE14reserve_rehashNCINvNtBa_3map11make_hasherBS_B1t_NtNtNtB2s_4hash6random11RandomStateE0Es_0Cs41t77sgS83u_2cc, symObjAddr: 0x690C, symBinAddr: 0x100031CBC, symSize: 0x30 }
  - { offset: 0x32174, size: 0x8, addend: 0x0, symName: __RNCINvMs6_NtCscXJUXcj6jCz_9hashbrown3rawINtB8_8RawTableTNtCs41t77sgS83u_2cc12CompilerFlagbEE14reserve_rehashNCINvNtBa_3map11make_hasherBS_bNtNtNtCs27l1GJC5rMQ_3std4hash6random11RandomStateE0E0BU_, symObjAddr: 0x6ACC, symBinAddr: 0x100031E7C, symSize: 0xC4 }
  - { offset: 0x3233D, size: 0x8, addend: 0x0, symName: __RNCINvMs6_NtCscXJUXcj6jCz_9hashbrown3rawINtB8_8RawTableTNtCs41t77sgS83u_2cc12CompilerFlagbEE14reserve_rehashNCINvNtBa_3map11make_hasherBS_bNtNtNtCs27l1GJC5rMQ_3std4hash6random11RandomStateE0Es_0BU_, symObjAddr: 0x6B90, symBinAddr: 0x100031F40, symSize: 0x30 }
  - { offset: 0x323B6, size: 0x8, addend: 0x0, symName: __RNCINvMs6_NtCscXJUXcj6jCz_9hashbrown3rawINtB8_8RawTableTINtNtCsdze8u8oDPro_5alloc5boxed3BoxNtNtCs27l1GJC5rMQ_3std4path4PathENtNtCs41t77sgS83u_2cc4tool10ToolFamilyEE24find_or_find_insert_slotNCINvNtBa_3map14equivalent_keyBS_BS_B1Y_E0NCINvB37_11make_hasherBS_B1Y_NtNtNtB1v_4hash6random11RandomStateE0E0B22_, symObjAddr: 0x61B0, symBinAddr: 0x100031560, symSize: 0xC8 }
  - { offset: 0x3258B, size: 0x8, addend: 0x0, symName: __RNCINvMs6_NtCscXJUXcj6jCz_9hashbrown3rawINtB8_8RawTableTINtNtCsdze8u8oDPro_5alloc5boxed3BoxeEINtNtBX_4sync3ArcNtNtNtCs27l1GJC5rMQ_3std3ffi6os_str5OsStrEEE24find_or_find_insert_slotNCINvNtBa_3map14equivalent_keyBS_BS_B1t_E0NCINvB2X_11make_hasherBS_B1t_NtNtNtB1Q_4hash6random11RandomStateE0E0Cs41t77sgS83u_2cc, symObjAddr: 0x6434, symBinAddr: 0x1000317E4, symSize: 0xC8 }
  - { offset: 0x32760, size: 0x8, addend: 0x0, symName: __RNCINvMs6_NtCscXJUXcj6jCz_9hashbrown3rawINtB8_8RawTableTINtNtCsdze8u8oDPro_5alloc5boxed3BoxeEINtNtBX_4sync3ArceEEE24find_or_find_insert_slotNCINvNtBa_3map14equivalent_keyBS_BS_B1t_E0NCINvB2j_11make_hasherBS_B1t_NtNtNtCs27l1GJC5rMQ_3std4hash6random11RandomStateE0E0Cs41t77sgS83u_2cc, symObjAddr: 0x66B8, symBinAddr: 0x100031A68, symSize: 0xC8 }
  - { offset: 0x32935, size: 0x8, addend: 0x0, symName: __RNCINvMs6_NtCscXJUXcj6jCz_9hashbrown3rawINtB8_8RawTableTINtNtCsdze8u8oDPro_5alloc5boxed3BoxeEINtNtCs9f3LFPSIp77_4core6option6OptionINtNtBX_4sync3ArcNtNtNtCs27l1GJC5rMQ_3std3ffi6os_str5OsStrEEEE24find_or_find_insert_slotNCINvNtBa_3map14equivalent_keyBS_BS_B1t_E0NCINvB3A_11make_hasherBS_B1t_NtNtNtB2s_4hash6random11RandomStateE0E0Cs41t77sgS83u_2cc, symObjAddr: 0x693C, symBinAddr: 0x100031CEC, symSize: 0xC8 }
  - { offset: 0x32B0A, size: 0x8, addend: 0x0, symName: __RNCINvMs6_NtCscXJUXcj6jCz_9hashbrown3rawINtB8_8RawTableTNtCs41t77sgS83u_2cc12CompilerFlagbEE24find_or_find_insert_slotNCINvNtBa_3map14equivalent_keyBS_BS_bE0NCINvB1X_11make_hasherBS_bNtNtNtCs27l1GJC5rMQ_3std4hash6random11RandomStateE0E0BU_, symObjAddr: 0x6BC0, symBinAddr: 0x100031F70, symSize: 0xC8 }
  - { offset: 0x32CE5, size: 0x8, addend: 0x0, symName: __RNCINvMs6_NtCscXJUXcj6jCz_9hashbrown3rawINtB8_8RawTableTINtNtCsdze8u8oDPro_5alloc5boxed3BoxNtNtCs27l1GJC5rMQ_3std4path4PathENtNtCs41t77sgS83u_2cc4tool10ToolFamilyEE4findNCINvNtBa_3map14equivalent_keyB1r_BS_B1Y_E0E0B22_, symObjAddr: 0x6278, symBinAddr: 0x100031628, symSize: 0xC8 }
  - { offset: 0x32EB1, size: 0x8, addend: 0x0, symName: __RNCINvMs6_NtCscXJUXcj6jCz_9hashbrown3rawINtB8_8RawTableTINtNtCsdze8u8oDPro_5alloc5boxed3BoxeEINtNtBX_4sync3ArcNtNtNtCs27l1GJC5rMQ_3std3ffi6os_str5OsStrEEE4findNCINvNtBa_3map14equivalent_keyeBS_B1t_E0E0Cs41t77sgS83u_2cc, symObjAddr: 0x64FC, symBinAddr: 0x1000318AC, symSize: 0xC8 }
  - { offset: 0x3307D, size: 0x8, addend: 0x0, symName: __RNCINvMs6_NtCscXJUXcj6jCz_9hashbrown3rawINtB8_8RawTableTINtNtCsdze8u8oDPro_5alloc5boxed3BoxeEINtNtBX_4sync3ArceEEE4findNCINvNtBa_3map14equivalent_keyeBS_B1t_E0E0Cs41t77sgS83u_2cc, symObjAddr: 0x6780, symBinAddr: 0x100031B30, symSize: 0xC8 }
  - { offset: 0x33249, size: 0x8, addend: 0x0, symName: __RNCINvMs6_NtCscXJUXcj6jCz_9hashbrown3rawINtB8_8RawTableTINtNtCsdze8u8oDPro_5alloc5boxed3BoxeEINtNtCs9f3LFPSIp77_4core6option6OptionINtNtBX_4sync3ArcNtNtNtCs27l1GJC5rMQ_3std3ffi6os_str5OsStrEEEE4findNCINvNtBa_3map14equivalent_keyeBS_B1t_E0E0Cs41t77sgS83u_2cc, symObjAddr: 0x6A04, symBinAddr: 0x100031DB4, symSize: 0xC8 }
  - { offset: 0x33415, size: 0x8, addend: 0x0, symName: __RNCINvMs6_NtCscXJUXcj6jCz_9hashbrown3rawINtB8_8RawTableTNtCs41t77sgS83u_2cc12CompilerFlagbEE4findNCINvNtBa_3map14equivalent_keyBS_BS_bE0E0BU_, symObjAddr: 0x6C88, symBinAddr: 0x100032038, symSize: 0xC8 }
  - { offset: 0x34B2A, size: 0x8, addend: 0x0, symName: __RNCINvMsa_NtCscXJUXcj6jCz_9hashbrown3rawNtB8_13RawTableInner14prepare_resizeNtNtCsdze8u8oDPro_5alloc5alloc6GlobalE0Cs41t77sgS83u_2cc, symObjAddr: 0x6D50, symBinAddr: 0x100032100, symSize: 0xBC }
  - { offset: 0x34D0B, size: 0x8, addend: 0x0, symName: __RNCNvMsa_NtCscXJUXcj6jCz_9hashbrown3rawNtB7_13RawTableInner15rehash_in_place0Cs41t77sgS83u_2cc, symObjAddr: 0x6E0C, symBinAddr: 0x1000321BC, symSize: 0x260 }
  - { offset: 0x35EE6, size: 0x8, addend: 0x0, symName: __RNvNtCscXJUXcj6jCz_9hashbrown3raw19capacity_to_bucketsCs41t77sgS83u_2cc, symObjAddr: 0x8C48, symBinAddr: 0x100033FF8, symSize: 0x1A4 }
  - { offset: 0x360AA, size: 0x8, addend: 0x0, symName: __RNvXsg_NtCscXJUXcj6jCz_9hashbrown3rawINtB5_8RawTableTINtNtCsdze8u8oDPro_5alloc5boxed3BoxNtNtCs27l1GJC5rMQ_3std4path4PathENtNtCs41t77sgS83u_2cc4tool10ToolFamilyEENtNtNtCs9f3LFPSIp77_4core3ops4drop4Drop4dropB1Z_, symObjAddr: 0x8DEC, symBinAddr: 0x10003419C, symSize: 0x3C }
  - { offset: 0x360E6, size: 0x8, addend: 0x0, symName: __RNvXsg_NtCscXJUXcj6jCz_9hashbrown3rawINtB5_8RawTableTINtNtCsdze8u8oDPro_5alloc5boxed3BoxeEINtNtBU_4sync3ArcNtNtNtCs27l1GJC5rMQ_3std3ffi6os_str5OsStrEEENtNtNtCs9f3LFPSIp77_4core3ops4drop4Drop4dropCs41t77sgS83u_2cc, symObjAddr: 0x8E28, symBinAddr: 0x1000341D8, symSize: 0x3C }
  - { offset: 0x36122, size: 0x8, addend: 0x0, symName: __RNvXsg_NtCscXJUXcj6jCz_9hashbrown3rawINtB5_8RawTableTINtNtCsdze8u8oDPro_5alloc5boxed3BoxeEINtNtBU_4sync3ArceEEENtNtNtCs9f3LFPSIp77_4core3ops4drop4Drop4dropCs41t77sgS83u_2cc, symObjAddr: 0x8E64, symBinAddr: 0x100034214, symSize: 0x3C }
  - { offset: 0x3615E, size: 0x8, addend: 0x0, symName: __RNvXsg_NtCscXJUXcj6jCz_9hashbrown3rawINtB5_8RawTableTINtNtCsdze8u8oDPro_5alloc5boxed3BoxeEINtNtCs9f3LFPSIp77_4core6option6OptionINtNtBU_4sync3ArcNtNtNtCs27l1GJC5rMQ_3std3ffi6os_str5OsStrEEEENtNtNtB1v_3ops4drop4Drop4dropCs41t77sgS83u_2cc, symObjAddr: 0x8EA0, symBinAddr: 0x100034250, symSize: 0x3C }
  - { offset: 0x3619A, size: 0x8, addend: 0x0, symName: __RNvXsg_NtCscXJUXcj6jCz_9hashbrown3rawINtB5_8RawTableTNtCs41t77sgS83u_2cc12CompilerFlagbEENtNtNtCs9f3LFPSIp77_4core3ops4drop4Drop4dropBR_, symObjAddr: 0x8EDC, symBinAddr: 0x10003428C, symSize: 0x3C }
  - { offset: 0x3AA31, size: 0x8, addend: 0x0, symName: __RINvMs6_NtCscXJUXcj6jCz_9hashbrown3rawINtB6_8RawTableTINtNtCsdze8u8oDPro_5alloc5boxed3BoxNtNtCs27l1GJC5rMQ_3std4path4PathENtNtCs41t77sgS83u_2cc4tool10ToolFamilyEE14reserve_rehashNCINvNtB8_3map11make_hasherBQ_B1W_NtNtNtB1t_4hash6random11RandomStateE0EB20_, symObjAddr: 0x0, symBinAddr: 0x100169244, symSize: 0x928 }
  - { offset: 0x3B61E, size: 0x8, addend: 0x0, symName: __RINvMs6_NtCscXJUXcj6jCz_9hashbrown3rawINtB6_8RawTableTINtNtCsdze8u8oDPro_5alloc5boxed3BoxNtNtCs27l1GJC5rMQ_3std4path4PathENtNtCs41t77sgS83u_2cc4tool10ToolFamilyEE24find_or_find_insert_slotNCINvNtB8_3map14equivalent_keyBQ_BQ_B1W_E0NCINvB35_11make_hasherBQ_B1W_NtNtNtB1t_4hash6random11RandomStateE0EB20_, symObjAddr: 0x928, symBinAddr: 0x10002E168, symSize: 0x140 }
  - { offset: 0x3BBC5, size: 0x8, addend: 0x0, symName: __RINvMs6_NtCscXJUXcj6jCz_9hashbrown3rawINtB6_8RawTableTINtNtCsdze8u8oDPro_5alloc5boxed3BoxNtNtCs27l1GJC5rMQ_3std4path4PathENtNtCs41t77sgS83u_2cc4tool10ToolFamilyEE4findNCINvNtB8_3map14equivalent_keyB1p_BQ_B1W_E0EB20_, symObjAddr: 0xA68, symBinAddr: 0x10002E2A8, symSize: 0x354 }
  - { offset: 0x3C09C, size: 0x8, addend: 0x0, symName: __RINvMs6_NtCscXJUXcj6jCz_9hashbrown3rawINtB6_8RawTableTINtNtCsdze8u8oDPro_5alloc5boxed3BoxNtNtCs27l1GJC5rMQ_3std4path4PathENtNtCs41t77sgS83u_2cc4tool10ToolFamilyEE7reserveNCINvNtB8_3map11make_hasherBQ_B1W_NtNtNtB1t_4hash6random11RandomStateE0EB20_, symObjAddr: 0xDBC, symBinAddr: 0x10002E5FC, symSize: 0xCC }
  - { offset: 0x3C156, size: 0x8, addend: 0x0, symName: __RINvMs6_NtCscXJUXcj6jCz_9hashbrown3rawINtB6_8RawTableTINtNtCsdze8u8oDPro_5alloc5boxed3BoxeEINtNtBV_4sync3ArcNtNtNtCs27l1GJC5rMQ_3std3ffi6os_str5OsStrEEE14reserve_rehashNCINvNtB8_3map11make_hasherBQ_B1r_NtNtNtB1O_4hash6random11RandomStateE0ECs41t77sgS83u_2cc, symObjAddr: 0xE88, symBinAddr: 0x100169B6C, symSize: 0x928 }
  - { offset: 0x3CD43, size: 0x8, addend: 0x0, symName: __RINvMs6_NtCscXJUXcj6jCz_9hashbrown3rawINtB6_8RawTableTINtNtCsdze8u8oDPro_5alloc5boxed3BoxeEINtNtBV_4sync3ArcNtNtNtCs27l1GJC5rMQ_3std3ffi6os_str5OsStrEEE24find_or_find_insert_slotNCINvNtB8_3map14equivalent_keyBQ_BQ_B1r_E0NCINvB2V_11make_hasherBQ_B1r_NtNtNtB1O_4hash6random11RandomStateE0ECs41t77sgS83u_2cc, symObjAddr: 0x17B0, symBinAddr: 0x10002E6C8, symSize: 0x140 }
  - { offset: 0x3CFD2, size: 0x8, addend: 0x0, symName: __RINvMs6_NtCscXJUXcj6jCz_9hashbrown3rawINtB6_8RawTableTINtNtCsdze8u8oDPro_5alloc5boxed3BoxeEINtNtBV_4sync3ArcNtNtNtCs27l1GJC5rMQ_3std3ffi6os_str5OsStrEEE4findNCINvNtB8_3map14equivalent_keyeBQ_B1r_E0ECs41t77sgS83u_2cc, symObjAddr: 0x18F0, symBinAddr: 0x10002E808, symSize: 0x354 }
  - { offset: 0x3D49C, size: 0x8, addend: 0x0, symName: __RINvMs6_NtCscXJUXcj6jCz_9hashbrown3rawINtB6_8RawTableTINtNtCsdze8u8oDPro_5alloc5boxed3BoxeEINtNtBV_4sync3ArcNtNtNtCs27l1GJC5rMQ_3std3ffi6os_str5OsStrEEE7reserveNCINvNtB8_3map11make_hasherBQ_B1r_NtNtNtB1O_4hash6random11RandomStateE0ECs41t77sgS83u_2cc, symObjAddr: 0x1C44, symBinAddr: 0x10002EB5C, symSize: 0xCC }
  - { offset: 0x3D556, size: 0x8, addend: 0x0, symName: __RINvMs6_NtCscXJUXcj6jCz_9hashbrown3rawINtB6_8RawTableTINtNtCsdze8u8oDPro_5alloc5boxed3BoxeEINtNtBV_4sync3ArceEEE14reserve_rehashNCINvNtB8_3map11make_hasherBQ_B1r_NtNtNtCs27l1GJC5rMQ_3std4hash6random11RandomStateE0ECs41t77sgS83u_2cc, symObjAddr: 0x1D10, symBinAddr: 0x10016A494, symSize: 0x928 }
  - { offset: 0x3E143, size: 0x8, addend: 0x0, symName: __RINvMs6_NtCscXJUXcj6jCz_9hashbrown3rawINtB6_8RawTableTINtNtCsdze8u8oDPro_5alloc5boxed3BoxeEINtNtBV_4sync3ArceEEE24find_or_find_insert_slotNCINvNtB8_3map14equivalent_keyBQ_BQ_B1r_E0NCINvB2h_11make_hasherBQ_B1r_NtNtNtCs27l1GJC5rMQ_3std4hash6random11RandomStateE0ECs41t77sgS83u_2cc, symObjAddr: 0x2638, symBinAddr: 0x10002EC28, symSize: 0x140 }
  - { offset: 0x3E3D2, size: 0x8, addend: 0x0, symName: __RINvMs6_NtCscXJUXcj6jCz_9hashbrown3rawINtB6_8RawTableTINtNtCsdze8u8oDPro_5alloc5boxed3BoxeEINtNtBV_4sync3ArceEEE4findNCINvNtB8_3map14equivalent_keyeBQ_B1r_E0ECs41t77sgS83u_2cc, symObjAddr: 0x2778, symBinAddr: 0x10002ED68, symSize: 0x354 }
  - { offset: 0x3E89C, size: 0x8, addend: 0x0, symName: __RINvMs6_NtCscXJUXcj6jCz_9hashbrown3rawINtB6_8RawTableTINtNtCsdze8u8oDPro_5alloc5boxed3BoxeEINtNtBV_4sync3ArceEEE7reserveNCINvNtB8_3map11make_hasherBQ_B1r_NtNtNtCs27l1GJC5rMQ_3std4hash6random11RandomStateE0ECs41t77sgS83u_2cc, symObjAddr: 0x2ACC, symBinAddr: 0x10002F0BC, symSize: 0xCC }
  - { offset: 0x3E956, size: 0x8, addend: 0x0, symName: __RINvMs6_NtCscXJUXcj6jCz_9hashbrown3rawINtB6_8RawTableTINtNtCsdze8u8oDPro_5alloc5boxed3BoxeEINtNtCs9f3LFPSIp77_4core6option6OptionINtNtBV_4sync3ArcNtNtNtCs27l1GJC5rMQ_3std3ffi6os_str5OsStrEEEE14reserve_rehashNCINvNtB8_3map11make_hasherBQ_B1r_NtNtNtB2q_4hash6random11RandomStateE0ECs41t77sgS83u_2cc, symObjAddr: 0x2B98, symBinAddr: 0x10016ADBC, symSize: 0x928 }
  - { offset: 0x3F543, size: 0x8, addend: 0x0, symName: __RINvMs6_NtCscXJUXcj6jCz_9hashbrown3rawINtB6_8RawTableTINtNtCsdze8u8oDPro_5alloc5boxed3BoxeEINtNtCs9f3LFPSIp77_4core6option6OptionINtNtBV_4sync3ArcNtNtNtCs27l1GJC5rMQ_3std3ffi6os_str5OsStrEEEE24find_or_find_insert_slotNCINvNtB8_3map14equivalent_keyBQ_BQ_B1r_E0NCINvB3y_11make_hasherBQ_B1r_NtNtNtB2q_4hash6random11RandomStateE0ECs41t77sgS83u_2cc, symObjAddr: 0x34C0, symBinAddr: 0x10002F188, symSize: 0x140 }
  - { offset: 0x3F7D2, size: 0x8, addend: 0x0, symName: __RINvMs6_NtCscXJUXcj6jCz_9hashbrown3rawINtB6_8RawTableTINtNtCsdze8u8oDPro_5alloc5boxed3BoxeEINtNtCs9f3LFPSIp77_4core6option6OptionINtNtBV_4sync3ArcNtNtNtCs27l1GJC5rMQ_3std3ffi6os_str5OsStrEEEE4findNCINvNtB8_3map14equivalent_keyeBQ_B1r_E0ECs41t77sgS83u_2cc, symObjAddr: 0x3600, symBinAddr: 0x10002F2C8, symSize: 0x354 }
  - { offset: 0x3FC9C, size: 0x8, addend: 0x0, symName: __RINvMs6_NtCscXJUXcj6jCz_9hashbrown3rawINtB6_8RawTableTINtNtCsdze8u8oDPro_5alloc5boxed3BoxeEINtNtCs9f3LFPSIp77_4core6option6OptionINtNtBV_4sync3ArcNtNtNtCs27l1GJC5rMQ_3std3ffi6os_str5OsStrEEEE7reserveNCINvNtB8_3map11make_hasherBQ_B1r_NtNtNtB2q_4hash6random11RandomStateE0ECs41t77sgS83u_2cc, symObjAddr: 0x3954, symBinAddr: 0x10002F61C, symSize: 0xCC }
  - { offset: 0x3FD56, size: 0x8, addend: 0x0, symName: __RINvMs6_NtCscXJUXcj6jCz_9hashbrown3rawINtB6_8RawTableTNtCs41t77sgS83u_2cc12CompilerFlagbEE14reserve_rehashNCINvNtB8_3map11make_hasherBQ_bNtNtNtCs27l1GJC5rMQ_3std4hash6random11RandomStateE0EBS_, symObjAddr: 0x3A20, symBinAddr: 0x10016B6E4, symSize: 0x918 }
  - { offset: 0x40943, size: 0x8, addend: 0x0, symName: __RINvMs6_NtCscXJUXcj6jCz_9hashbrown3rawINtB6_8RawTableTNtCs41t77sgS83u_2cc12CompilerFlagbEE24find_or_find_insert_slotNCINvNtB8_3map14equivalent_keyBQ_BQ_bE0NCINvB1V_11make_hasherBQ_bNtNtNtCs27l1GJC5rMQ_3std4hash6random11RandomStateE0EBS_, symObjAddr: 0x4338, symBinAddr: 0x10002F6E8, symSize: 0x140 }
  - { offset: 0x40BD2, size: 0x8, addend: 0x0, symName: __RINvMs6_NtCscXJUXcj6jCz_9hashbrown3rawINtB6_8RawTableTNtCs41t77sgS83u_2cc12CompilerFlagbEE4findNCINvNtB8_3map14equivalent_keyBQ_BQ_bE0EBS_, symObjAddr: 0x4478, symBinAddr: 0x10002F828, symSize: 0x350 }
  - { offset: 0x4109C, size: 0x8, addend: 0x0, symName: __RINvMs6_NtCscXJUXcj6jCz_9hashbrown3rawINtB6_8RawTableTNtCs41t77sgS83u_2cc12CompilerFlagbEE7reserveNCINvNtB8_3map11make_hasherBQ_bNtNtNtCs27l1GJC5rMQ_3std4hash6random11RandomStateE0EBS_, symObjAddr: 0x47C8, symBinAddr: 0x10002FB78, symSize: 0xCC }
  - { offset: 0x4126E, size: 0x8, addend: 0x0, symName: __RINvMsa_NtCscXJUXcj6jCz_9hashbrown3rawNtB6_13RawTableInner13drop_elementsTINtNtCsdze8u8oDPro_5alloc5boxed3BoxNtNtCs27l1GJC5rMQ_3std4path4PathENtNtCs41t77sgS83u_2cc4tool10ToolFamilyEEB2k_, symObjAddr: 0x4894, symBinAddr: 0x10002FC44, symSize: 0x174 }
  - { offset: 0x415C1, size: 0x8, addend: 0x0, symName: __RINvMsa_NtCscXJUXcj6jCz_9hashbrown3rawNtB6_13RawTableInner13drop_elementsTINtNtCsdze8u8oDPro_5alloc5boxed3BoxeEINtNtB1f_4sync3ArcNtNtNtCs27l1GJC5rMQ_3std3ffi6os_str5OsStrEEECs41t77sgS83u_2cc, symObjAddr: 0x4A08, symBinAddr: 0x10002FDB8, symSize: 0x174 }
  - { offset: 0x41914, size: 0x8, addend: 0x0, symName: __RINvMsa_NtCscXJUXcj6jCz_9hashbrown3rawNtB6_13RawTableInner13drop_elementsTINtNtCsdze8u8oDPro_5alloc5boxed3BoxeEINtNtB1f_4sync3ArceEEECs41t77sgS83u_2cc, symObjAddr: 0x4B7C, symBinAddr: 0x10002FF2C, symSize: 0x174 }
  - { offset: 0x41C67, size: 0x8, addend: 0x0, symName: __RINvMsa_NtCscXJUXcj6jCz_9hashbrown3rawNtB6_13RawTableInner13drop_elementsTINtNtCsdze8u8oDPro_5alloc5boxed3BoxeEINtNtCs9f3LFPSIp77_4core6option6OptionINtNtB1f_4sync3ArcNtNtNtCs27l1GJC5rMQ_3std3ffi6os_str5OsStrEEEECs41t77sgS83u_2cc, symObjAddr: 0x4CF0, symBinAddr: 0x1000300A0, symSize: 0x174 }
  - { offset: 0x41FBA, size: 0x8, addend: 0x0, symName: __RINvMsa_NtCscXJUXcj6jCz_9hashbrown3rawNtB6_13RawTableInner13drop_elementsTNtCs41t77sgS83u_2cc12CompilerFlagbEEB1c_, symObjAddr: 0x4E64, symBinAddr: 0x100030214, symSize: 0x174 }
  - { offset: 0x4232F, size: 0x8, addend: 0x0, symName: __RINvMsa_NtCscXJUXcj6jCz_9hashbrown3rawNtB6_13RawTableInner16drop_inner_tableTINtNtCsdze8u8oDPro_5alloc5boxed3BoxNtNtCs27l1GJC5rMQ_3std4path4PathENtNtCs41t77sgS83u_2cc4tool10ToolFamilyENtNtB1i_5alloc6GlobalEB2n_, symObjAddr: 0x4FD8, symBinAddr: 0x100030388, symSize: 0xBC }
  - { offset: 0x425D2, size: 0x8, addend: 0x0, symName: __RINvMsa_NtCscXJUXcj6jCz_9hashbrown3rawNtB6_13RawTableInner16drop_inner_tableTINtNtCsdze8u8oDPro_5alloc5boxed3BoxeEINtNtB1i_4sync3ArcNtNtNtCs27l1GJC5rMQ_3std3ffi6os_str5OsStrEENtNtB1i_5alloc6GlobalECs41t77sgS83u_2cc, symObjAddr: 0x5094, symBinAddr: 0x100030444, symSize: 0xBC }
  - { offset: 0x42875, size: 0x8, addend: 0x0, symName: __RINvMsa_NtCscXJUXcj6jCz_9hashbrown3rawNtB6_13RawTableInner16drop_inner_tableTINtNtCsdze8u8oDPro_5alloc5boxed3BoxeEINtNtB1i_4sync3ArceEENtNtB1i_5alloc6GlobalECs41t77sgS83u_2cc, symObjAddr: 0x5150, symBinAddr: 0x100030500, symSize: 0xBC }
  - { offset: 0x42B18, size: 0x8, addend: 0x0, symName: __RINvMsa_NtCscXJUXcj6jCz_9hashbrown3rawNtB6_13RawTableInner16drop_inner_tableTINtNtCsdze8u8oDPro_5alloc5boxed3BoxeEINtNtCs9f3LFPSIp77_4core6option6OptionINtNtB1i_4sync3ArcNtNtNtCs27l1GJC5rMQ_3std3ffi6os_str5OsStrEEENtNtB1i_5alloc6GlobalECs41t77sgS83u_2cc, symObjAddr: 0x520C, symBinAddr: 0x1000305BC, symSize: 0xBC }
  - { offset: 0x42DBB, size: 0x8, addend: 0x0, symName: __RINvMsa_NtCscXJUXcj6jCz_9hashbrown3rawNtB6_13RawTableInner16drop_inner_tableTNtCs41t77sgS83u_2cc12CompilerFlagbENtNtCsdze8u8oDPro_5alloc5alloc6GlobalEB1f_, symObjAddr: 0x52C8, symBinAddr: 0x100030678, symSize: 0xBC }
  - { offset: 0x42FCD, size: 0x8, addend: 0x0, symName: __RINvMsa_NtCscXJUXcj6jCz_9hashbrown3rawNtB6_13RawTableInner17new_uninitializedNtNtCsdze8u8oDPro_5alloc5alloc6GlobalECs41t77sgS83u_2cc, symObjAddr: 0x5384, symBinAddr: 0x100030734, symSize: 0x1B0 }
  - { offset: 0x43210, size: 0x8, addend: 0x0, symName: __RINvMsa_NtCscXJUXcj6jCz_9hashbrown3rawNtB6_13RawTableInner22fallible_with_capacityNtNtCsdze8u8oDPro_5alloc5alloc6GlobalECs41t77sgS83u_2cc, symObjAddr: 0x5534, symBinAddr: 0x1000308E4, symSize: 0x2A0 }
  - { offset: 0x4364F, size: 0x8, addend: 0x0, symName: __RINvMsi_NtCscXJUXcj6jCz_9hashbrown3rawINtB6_12RawIterRangeTINtNtCsdze8u8oDPro_5alloc5boxed3BoxNtNtCs27l1GJC5rMQ_3std4path4PathENtNtCs41t77sgS83u_2cc4tool10ToolFamilyEE9next_implKb0_EB25_, symObjAddr: 0x57D4, symBinAddr: 0x100030B84, symSize: 0x1C8 }
  - { offset: 0x43A18, size: 0x8, addend: 0x0, symName: __RINvMsi_NtCscXJUXcj6jCz_9hashbrown3rawINtB6_12RawIterRangeTINtNtCsdze8u8oDPro_5alloc5boxed3BoxeEINtNtB10_4sync3ArcNtNtNtCs27l1GJC5rMQ_3std3ffi6os_str5OsStrEEE9next_implKb0_ECs41t77sgS83u_2cc, symObjAddr: 0x599C, symBinAddr: 0x100030D4C, symSize: 0x1C8 }
  - { offset: 0x43DE1, size: 0x8, addend: 0x0, symName: __RINvMsi_NtCscXJUXcj6jCz_9hashbrown3rawINtB6_12RawIterRangeTINtNtCsdze8u8oDPro_5alloc5boxed3BoxeEINtNtB10_4sync3ArceEEE9next_implKb0_ECs41t77sgS83u_2cc, symObjAddr: 0x5B64, symBinAddr: 0x100030F14, symSize: 0x1C8 }
  - { offset: 0x441AA, size: 0x8, addend: 0x0, symName: __RINvMsi_NtCscXJUXcj6jCz_9hashbrown3rawINtB6_12RawIterRangeTINtNtCsdze8u8oDPro_5alloc5boxed3BoxeEINtNtCs9f3LFPSIp77_4core6option6OptionINtNtB10_4sync3ArcNtNtNtCs27l1GJC5rMQ_3std3ffi6os_str5OsStrEEEE9next_implKb0_ECs41t77sgS83u_2cc, symObjAddr: 0x5D2C, symBinAddr: 0x1000310DC, symSize: 0x1C8 }
  - { offset: 0x44573, size: 0x8, addend: 0x0, symName: __RINvMsi_NtCscXJUXcj6jCz_9hashbrown3rawINtB6_12RawIterRangeTNtCs41t77sgS83u_2cc12CompilerFlagbEE9next_implKb0_EBX_, symObjAddr: 0x5EF4, symBinAddr: 0x1000312A4, symSize: 0x1C8 }
  - { offset: 0x45DB3, size: 0x8, addend: 0x0, symName: __RNvMs1_NtCscXJUXcj6jCz_9hashbrown3rawNtB5_11TableLayout20calculate_layout_forCs41t77sgS83u_2cc, symObjAddr: 0x706C, symBinAddr: 0x10003241C, symSize: 0x224 }
  - { offset: 0x4625B, size: 0x8, addend: 0x0, symName: __RNvMs6_NtCscXJUXcj6jCz_9hashbrown3rawINtB5_8RawTableTINtNtCsdze8u8oDPro_5alloc5boxed3BoxNtNtCs27l1GJC5rMQ_3std4path4PathENtNtCs41t77sgS83u_2cc4tool10ToolFamilyEE14insert_in_slotB1Z_, symObjAddr: 0x7290, symBinAddr: 0x100032640, symSize: 0x188 }
  - { offset: 0x468F3, size: 0x8, addend: 0x0, symName: __RNvMs6_NtCscXJUXcj6jCz_9hashbrown3rawINtB5_8RawTableTINtNtCsdze8u8oDPro_5alloc5boxed3BoxeEINtNtBU_4sync3ArcNtNtNtCs27l1GJC5rMQ_3std3ffi6os_str5OsStrEEE14insert_in_slotCs41t77sgS83u_2cc, symObjAddr: 0x7418, symBinAddr: 0x1000327C8, symSize: 0x188 }
  - { offset: 0x46F8B, size: 0x8, addend: 0x0, symName: __RNvMs6_NtCscXJUXcj6jCz_9hashbrown3rawINtB5_8RawTableTINtNtCsdze8u8oDPro_5alloc5boxed3BoxeEINtNtBU_4sync3ArceEEE14insert_in_slotCs41t77sgS83u_2cc, symObjAddr: 0x75A0, symBinAddr: 0x100032950, symSize: 0x188 }
  - { offset: 0x47623, size: 0x8, addend: 0x0, symName: __RNvMs6_NtCscXJUXcj6jCz_9hashbrown3rawINtB5_8RawTableTINtNtCsdze8u8oDPro_5alloc5boxed3BoxeEINtNtCs9f3LFPSIp77_4core6option6OptionINtNtBU_4sync3ArcNtNtNtCs27l1GJC5rMQ_3std3ffi6os_str5OsStrEEEE14insert_in_slotCs41t77sgS83u_2cc, symObjAddr: 0x7728, symBinAddr: 0x100032AD8, symSize: 0x188 }
  - { offset: 0x47CBB, size: 0x8, addend: 0x0, symName: __RNvMs6_NtCscXJUXcj6jCz_9hashbrown3rawINtB5_8RawTableTNtCs41t77sgS83u_2cc12CompilerFlagbEE14insert_in_slotBR_, symObjAddr: 0x78B0, symBinAddr: 0x100032C60, symSize: 0x190 }
  - { offset: 0x48264, size: 0x8, addend: 0x0, symName: __RNvMsa_NtCscXJUXcj6jCz_9hashbrown3rawNtB5_13RawTableInner15fix_insert_slotCs41t77sgS83u_2cc, symObjAddr: 0x7A40, symBinAddr: 0x100032DF0, symSize: 0x118 }
  - { offset: 0x486D3, size: 0x8, addend: 0x0, symName: __RNvMsa_NtCscXJUXcj6jCz_9hashbrown3rawNtB5_13RawTableInner15rehash_in_placeCs41t77sgS83u_2cc, symObjAddr: 0x7B58, symBinAddr: 0x100032F08, symSize: 0x574 }
  - { offset: 0x491F5, size: 0x8, addend: 0x0, symName: __RNvMsa_NtCscXJUXcj6jCz_9hashbrown3rawNtB5_13RawTableInner16find_insert_slotCs41t77sgS83u_2cc, symObjAddr: 0x80CC, symBinAddr: 0x10003347C, symSize: 0x168 }
  - { offset: 0x4954D, size: 0x8, addend: 0x0, symName: __RNvMsa_NtCscXJUXcj6jCz_9hashbrown3rawNtB5_13RawTableInner23prepare_rehash_in_placeCs41t77sgS83u_2cc, symObjAddr: 0x8234, symBinAddr: 0x1000335E4, symSize: 0x25C }
  - { offset: 0x49C03, size: 0x8, addend: 0x0, symName: __RNvMsa_NtCscXJUXcj6jCz_9hashbrown3rawNtB5_13RawTableInner25find_insert_slot_in_groupCs41t77sgS83u_2cc, symObjAddr: 0x8490, symBinAddr: 0x100033840, symSize: 0x184 }
  - { offset: 0x49EC4, size: 0x8, addend: 0x0, symName: __RNvMsa_NtCscXJUXcj6jCz_9hashbrown3rawNtB5_13RawTableInner30find_or_find_insert_slot_innerCs41t77sgS83u_2cc, symObjAddr: 0x8614, symBinAddr: 0x1000339C4, symSize: 0x300 }
  - { offset: 0x4A29C, size: 0x8, addend: 0x0, symName: __RNvMsi_NtCscXJUXcj6jCz_9hashbrown3rawINtB5_12RawIterRangeTINtNtCsdze8u8oDPro_5alloc5boxed3BoxNtNtCs27l1GJC5rMQ_3std4path4PathENtNtCs41t77sgS83u_2cc4tool10ToolFamilyEE3newB24_, symObjAddr: 0x8914, symBinAddr: 0x100033CC4, symSize: 0xA4 }
  - { offset: 0x4A481, size: 0x8, addend: 0x0, symName: __RNvMsi_NtCscXJUXcj6jCz_9hashbrown3rawINtB5_12RawIterRangeTINtNtCsdze8u8oDPro_5alloc5boxed3BoxeEINtNtBZ_4sync3ArcNtNtNtCs27l1GJC5rMQ_3std3ffi6os_str5OsStrEEE3newCs41t77sgS83u_2cc, symObjAddr: 0x89B8, symBinAddr: 0x100033D68, symSize: 0xA4 }
  - { offset: 0x4A666, size: 0x8, addend: 0x0, symName: __RNvMsi_NtCscXJUXcj6jCz_9hashbrown3rawINtB5_12RawIterRangeTINtNtCsdze8u8oDPro_5alloc5boxed3BoxeEINtNtBZ_4sync3ArceEEE3newCs41t77sgS83u_2cc, symObjAddr: 0x8A5C, symBinAddr: 0x100033E0C, symSize: 0xA4 }
  - { offset: 0x4A84B, size: 0x8, addend: 0x0, symName: __RNvMsi_NtCscXJUXcj6jCz_9hashbrown3rawINtB5_12RawIterRangeTINtNtCsdze8u8oDPro_5alloc5boxed3BoxeEINtNtCs9f3LFPSIp77_4core6option6OptionINtNtBZ_4sync3ArcNtNtNtCs27l1GJC5rMQ_3std3ffi6os_str5OsStrEEEE3newCs41t77sgS83u_2cc, symObjAddr: 0x8B00, symBinAddr: 0x100033EB0, symSize: 0xA4 }
  - { offset: 0x4AA30, size: 0x8, addend: 0x0, symName: __RNvMsi_NtCscXJUXcj6jCz_9hashbrown3rawINtB5_12RawIterRangeTNtCs41t77sgS83u_2cc12CompilerFlagbEE3newBW_, symObjAddr: 0x8BA4, symBinAddr: 0x100033F54, symSize: 0xA4 }
  - { offset: 0x4AC55, size: 0x8, addend: 0x0, symName: __RINvMs_NtCsdze8u8oDPro_5alloc3vecINtB5_3VecINtNtB7_4sync3ArcNtNtNtCs27l1GJC5rMQ_3std3ffi6os_str5OsStrEE10retain_mutNCINvB2_6retainNCNvMs3_Cs41t77sgS83u_2ccNtB2c_5Build11remove_flag0E0EB2c_, symObjAddr: 0x0, symBinAddr: 0x1000342C8, symSize: 0xE4 }
  - { offset: 0x5179F, size: 0x8, addend: 0x0, symName: __RINvNvMs_NtCsdze8u8oDPro_5alloc3vecINtB7_3VecppE10retain_mut12process_loopNCINvMs_B7_IBy_INtNtB9_4sync3ArcNtNtNtCs27l1GJC5rMQ_3std3ffi6os_str5OsStrEE6retainNCNvMs3_Cs41t77sgS83u_2ccNtB2C_5Build11remove_flag0E0B1p_NtNtB9_5alloc6GlobalKb0_EB2C_, symObjAddr: 0x113C, symBinAddr: 0x100035404, symSize: 0xF8 }
  - { offset: 0x51952, size: 0x8, addend: 0x0, symName: __RINvNvMs_NtCsdze8u8oDPro_5alloc3vecINtB7_3VecppE10retain_mut12process_loopNCINvMs_B7_IBy_INtNtB9_4sync3ArcNtNtNtCs27l1GJC5rMQ_3std3ffi6os_str5OsStrEE6retainNCNvMs3_Cs41t77sgS83u_2ccNtB2C_5Build11remove_flag0E0B1p_NtNtB9_5alloc6GlobalKb1_EB2C_, symObjAddr: 0x1234, symBinAddr: 0x1000354FC, symSize: 0x1B8 }
  - { offset: 0x51C06, size: 0x8, addend: 0x0, symName: __RINvNvMs_NtCsdze8u8oDPro_5alloc3vecINtB7_3VecppE10retain_mut12process_loopNCNCNCNvMs3_Cs41t77sgS83u_2ccNtB1m_5Build15compile_objects000TNtNtCs27l1GJC5rMQ_3std7process7CommandINtNtB9_6borrow3CowNtNtB2e_4path4PathENtB1g_10KillOnDropNtNtNtB1m_8parallel9job_token8JobTokenENtNtB9_5alloc6GlobalKb0_EB1m_, symObjAddr: 0x13EC, symBinAddr: 0x1000356B4, symSize: 0x100 }
  - { offset: 0x51DB9, size: 0x8, addend: 0x0, symName: __RINvNvMs_NtCsdze8u8oDPro_5alloc3vecINtB7_3VecppE10retain_mut12process_loopNCNCNCNvMs3_Cs41t77sgS83u_2ccNtB1m_5Build15compile_objects000TNtNtCs27l1GJC5rMQ_3std7process7CommandINtNtB9_6borrow3CowNtNtB2e_4path4PathENtB1g_10KillOnDropNtNtNtB1m_8parallel9job_token8JobTokenENtNtB9_5alloc6GlobalKb1_EB1m_, symObjAddr: 0x14EC, symBinAddr: 0x1000357B4, symSize: 0x194 }
  - { offset: 0x5206E, size: 0x8, addend: 0x0, symName: __RNvXNvMs_NtCsdze8u8oDPro_5alloc3vecINtB7_3VecppE10retain_mutINtB2_15BackshiftOnDropINtNtB9_4sync3ArcNtNtNtCs27l1GJC5rMQ_3std3ffi6os_str5OsStrENtNtB9_5alloc6GlobalENtNtNtCs9f3LFPSIp77_4core3ops4drop4Drop4dropCs41t77sgS83u_2cc, symObjAddr: 0x4538, symBinAddr: 0x100038800, symSize: 0x134 }
  - { offset: 0x522CF, size: 0x8, addend: 0x0, symName: __RNvXNvMs_NtCsdze8u8oDPro_5alloc3vecINtB7_3VecppE10retain_mutINtB2_15BackshiftOnDropTNtNtCs27l1GJC5rMQ_3std7process7CommandINtNtB9_6borrow3CowNtNtB1o_4path4PathENtNvMs3_Cs41t77sgS83u_2ccNtB2G_5Build15compile_objects10KillOnDropNtNtNtB2G_8parallel9job_token8JobTokenENtNtB9_5alloc6GlobalENtNtNtCs9f3LFPSIp77_4core3ops4drop4Drop4dropB2G_, symObjAddr: 0x466C, symBinAddr: 0x100038934, symSize: 0x140 }
  - { offset: 0x5254A, size: 0x8, addend: 0x0, symName: __RNCINvMs_NtCsdze8u8oDPro_5alloc3vecINtB7_3VecINtNtB9_4sync3ArcNtNtNtCs27l1GJC5rMQ_3std3ffi6os_str5OsStrEE6retainNCNvMs3_Cs41t77sgS83u_2ccNtB1U_5Build11remove_flag0E0B1U_, symObjAddr: 0x186C, symBinAddr: 0x100035B34, symSize: 0x30 }
  - { offset: 0x53A5A, size: 0x8, addend: 0x0, symName: __RINvXsd_NtCsdze8u8oDPro_5alloc3vecINtB6_3VecNtNtB8_6string6StringEINtNtNtNtCs9f3LFPSIp77_4core4iter6traits7collect12FromIteratorBG_E9from_iterINtNtNtB19_8adapters3map3MapNtNtNtB1b_3str4iter15SplitWhitespaceNCNvMs3_Cs41t77sgS83u_2ccNtB3q_5Build8env_tool0EEB3q_, symObjAddr: 0x1680, symBinAddr: 0x100035948, symSize: 0x34 }
  - { offset: 0x53A9B, size: 0x8, addend: 0x0, symName: __RINvXsd_NtCsdze8u8oDPro_5alloc3vecINtB6_3VecNtNtB8_6string6StringEINtNtNtNtCs9f3LFPSIp77_4core4iter6traits7collect12FromIteratorBG_E9from_iterINtNtNtB19_8adapters3map3MapNtNtNtB1b_3str4iter15SplitWhitespaceNCNvMs3_Cs41t77sgS83u_2ccNtB3q_5Build8env_tools_0EEB3q_, symObjAddr: 0x16B4, symBinAddr: 0x10003597C, symSize: 0x34 }
  - { offset: 0x53ADC, size: 0x8, addend: 0x0, symName: __RINvXsd_NtCsdze8u8oDPro_5alloc3vecINtB6_3VecNtNtB8_6string6StringEINtNtNtNtCs9f3LFPSIp77_4core4iter6traits7collect12FromIteratorBG_E9from_iterINtNtNtB19_8adapters3map3MapNtNtNtB1b_3str4iter20SplitAsciiWhitespaceNvYeNtBI_8ToString9to_stringEECs41t77sgS83u_2cc, symObjAddr: 0x16E8, symBinAddr: 0x1000359B0, symSize: 0x34 }
  - { offset: 0x53B1D, size: 0x8, addend: 0x0, symName: __RINvXsd_NtCsdze8u8oDPro_5alloc3vecINtB6_3VecNtNtB8_6string6StringEINtNtNtNtCs9f3LFPSIp77_4core4iter6traits7collect12FromIteratorBG_E9from_iterNtCseFjtURsKr7u_5shlex5ShlexECs41t77sgS83u_2cc, symObjAddr: 0x171C, symBinAddr: 0x1000359E4, symSize: 0x34 }
  - { offset: 0x53B5E, size: 0x8, addend: 0x0, symName: __RINvXsd_NtCsdze8u8oDPro_5alloc3vecINtB6_3VecNtNtCs27l1GJC5rMQ_3std4path7PathBufEINtNtNtNtCs9f3LFPSIp77_4core4iter6traits7collect12FromIteratorBG_E9from_iterINtNtNtB1n_8adapters3map3MapINtNtB6_9into_iter8IntoIterNtCs41t77sgS83u_2cc6ObjectENCNvMs3_B3p_NtB3p_5Build25try_compile_intermediates0EEB3p_, symObjAddr: 0x1750, symBinAddr: 0x100035A18, symSize: 0x34 }
  - { offset: 0x53B9F, size: 0x8, addend: 0x0, symName: __RINvXsd_NtCsdze8u8oDPro_5alloc3vecINtB6_3VecRNtNtCs27l1GJC5rMQ_3std4path4PathEINtNtNtNtCs9f3LFPSIp77_4core4iter6traits7collect12FromIteratorBG_E9from_iterINtNtNtB1l_8adapters5chain5ChainINtNtB2x_3map3MapINtNtNtB1n_5slice4iter4IterNtCs41t77sgS83u_2cc6ObjectENCNvMs3_B3I_NtB3I_5Build8assemble0EIB2Z_IB3g_INtNtB8_4sync3ArcBH_EENvYB4Q_NtNtNtB1n_3ops5deref5Deref5derefEEEB3I_, symObjAddr: 0x1784, symBinAddr: 0x100035A4C, symSize: 0x34 }
  - { offset: 0x53BE0, size: 0x8, addend: 0x0, symName: __RINvXsd_NtCsdze8u8oDPro_5alloc3vecINtB6_3VecRNtNtNtCs27l1GJC5rMQ_3std3ffi6os_str8OsStringEINtNtNtNtCs9f3LFPSIp77_4core4iter6traits7collect12FromIteratorBG_E9from_iterINtNtNtB1x_8adapters6filter6FilterINtNtNtB1z_5slice4iter4IterBH_ENCNvMNtCs41t77sgS83u_2cc4toolNtB3M_4Tool10to_command0EEB3O_, symObjAddr: 0x17B8, symBinAddr: 0x100035A80, symSize: 0x34 }
  - { offset: 0x53C27, size: 0x8, addend: 0x0, symName: __RINvXsh_NtCsdze8u8oDPro_5alloc3vecINtB6_3VecINtNtB8_4sync3ArcNtNtNtCs27l1GJC5rMQ_3std3ffi6os_str5OsStrEEINtNtNtNtCs9f3LFPSIp77_4core4iter6traits7collect6ExtendBG_E6extendINtNtNtB1L_8adapters3map3MapINtNtB6_9into_iter8IntoIterNtNtB8_6string6StringENCNvMs3_Cs41t77sgS83u_2ccNtB45_5Build26try_flags_from_environment0EEB45_, symObjAddr: 0x17EC, symBinAddr: 0x100035AB4, symSize: 0x40 }
  - { offset: 0x53C7C, size: 0x8, addend: 0x0, symName: __RINvXsh_NtCsdze8u8oDPro_5alloc3vecINtB6_3VecNtNtNtCs27l1GJC5rMQ_3std3ffi6os_str8OsStringEINtNtNtNtCs9f3LFPSIp77_4core4iter6traits7collect6ExtendBG_E6extendABG_j6_ECs41t77sgS83u_2cc, symObjAddr: 0x182C, symBinAddr: 0x100035AF4, symSize: 0x40 }
  - { offset: 0x53CDC, size: 0x8, addend: 0x0, symName: __RNCINvMsi_NtCsdze8u8oDPro_5alloc3vecINtB8_3VecINtNtBa_4sync3ArcNtNtNtCs27l1GJC5rMQ_3std3ffi6os_str5OsStrEE14extend_trustedINtNtNtNtCs9f3LFPSIp77_4core4iter8adapters3map3MapINtNtB8_9into_iter8IntoIterNtNtBa_6string6StringENCNvMs3_Cs41t77sgS83u_2ccNtB3F_5Build26try_flags_from_environment0EE0B3F_, symObjAddr: 0x189C, symBinAddr: 0x100035B64, symSize: 0x68 }
  - { offset: 0x53DCF, size: 0x8, addend: 0x0, symName: __RNCINvMsi_NtCsdze8u8oDPro_5alloc3vecINtB8_3VecNtNtNtCs27l1GJC5rMQ_3std3ffi6os_str8OsStringE14extend_trustedINtNtNtCs9f3LFPSIp77_4core5array4iter8IntoIterBI_Kj6_EE0Cs41t77sgS83u_2cc, symObjAddr: 0x1904, symBinAddr: 0x100035BCC, symSize: 0x6C }
  - { offset: 0x53EC0, size: 0x8, addend: 0x0, symName: __RNCINvMsi_NtCsdze8u8oDPro_5alloc3vecINtB8_3VecRNtNtCs27l1GJC5rMQ_3std4path4PathE14extend_trustedINtNtNtNtCs9f3LFPSIp77_4core4iter8adapters5chain5ChainINtNtB1B_3map3MapINtNtNtB1F_5slice4iter4IterNtCs41t77sgS83u_2cc6ObjectENCNvMs3_B38_NtB38_5Build8assemble0EIB2p_IB2G_INtNtBa_4sync3ArcBJ_EENvYB4g_NtNtNtB1F_3ops5deref5Deref5derefEEE0B38_, symObjAddr: 0x1970, symBinAddr: 0x100035C38, symSize: 0x68 }
  - { offset: 0x54203, size: 0x8, addend: 0x0, symName: __RNvXNtNtCsdze8u8oDPro_5alloc3vec11spec_extendINtB4_3VecNtNtB6_6string6StringEINtB2_10SpecExtendBR_INtNtNtNtCs9f3LFPSIp77_4core4iter8adapters3map3MapNtNtNtB1H_3str4iter15SplitWhitespaceNCNvMs3_Cs41t77sgS83u_2ccNtB34_5Build8env_tool0EE11spec_extendB34_, symObjAddr: 0x38E8, symBinAddr: 0x100037BB0, symSize: 0x24 }
  - { offset: 0x54255, size: 0x8, addend: 0x0, symName: __RNvXNtNtCsdze8u8oDPro_5alloc3vec11spec_extendINtB4_3VecNtNtB6_6string6StringEINtB2_10SpecExtendBR_INtNtNtNtCs9f3LFPSIp77_4core4iter8adapters3map3MapNtNtNtB1H_3str4iter15SplitWhitespaceNCNvMs3_Cs41t77sgS83u_2ccNtB34_5Build8env_tools_0EE11spec_extendB34_, symObjAddr: 0x390C, symBinAddr: 0x100037BD4, symSize: 0x24 }
  - { offset: 0x542A7, size: 0x8, addend: 0x0, symName: __RNvXNtNtCsdze8u8oDPro_5alloc3vec11spec_extendINtB4_3VecNtNtB6_6string6StringEINtB2_10SpecExtendBR_INtNtNtNtCs9f3LFPSIp77_4core4iter8adapters3map3MapNtNtNtB1H_3str4iter20SplitAsciiWhitespaceNvYeNtBT_8ToString9to_stringEE11spec_extendCs41t77sgS83u_2cc, symObjAddr: 0x3930, symBinAddr: 0x100037BF8, symSize: 0x24 }
  - { offset: 0x542F9, size: 0x8, addend: 0x0, symName: __RNvXNtNtCsdze8u8oDPro_5alloc3vec11spec_extendINtB4_3VecNtNtB6_6string6StringEINtB2_10SpecExtendBR_NtCseFjtURsKr7u_5shlex5ShlexE11spec_extendCs41t77sgS83u_2cc, symObjAddr: 0x3954, symBinAddr: 0x100037C1C, symSize: 0x24 }
  - { offset: 0x5434B, size: 0x8, addend: 0x0, symName: __RNvXNtNtCsdze8u8oDPro_5alloc3vec11spec_extendINtB4_3VecRNtNtNtCs27l1GJC5rMQ_3std3ffi6os_str8OsStringEINtB2_10SpecExtendBR_INtNtNtNtCs9f3LFPSIp77_4core4iter8adapters6filter6FilterINtNtNtB25_5slice4iter4IterBS_ENCNvMNtCs41t77sgS83u_2cc4toolNtB3q_4Tool10to_command0EE11spec_extendB3s_, symObjAddr: 0x3978, symBinAddr: 0x100037C40, symSize: 0x24 }
  - { offset: 0x543A3, size: 0x8, addend: 0x0, symName: __RNvXs_NtNtCsdze8u8oDPro_5alloc3vec11spec_extendINtB6_3VecINtNtB8_4sync3ArcNtNtNtCs27l1GJC5rMQ_3std3ffi6os_str5OsStrEEINtB4_10SpecExtendBT_INtNtNtNtCs9f3LFPSIp77_4core4iter8adapters3map3MapINtNtB6_9into_iter8IntoIterNtNtB8_6string6StringENCNvMs3_Cs41t77sgS83u_2ccNtB3V_5Build26try_flags_from_environment0EE11spec_extendB3V_, symObjAddr: 0x4EB0, symBinAddr: 0x100039178, symSize: 0x24 }
  - { offset: 0x543F5, size: 0x8, addend: 0x0, symName: __RNvXs_NtNtCsdze8u8oDPro_5alloc3vec11spec_extendINtB6_3VecNtNtNtCs27l1GJC5rMQ_3std3ffi6os_str8OsStringEINtB4_10SpecExtendBT_INtNtNtCs9f3LFPSIp77_4core5array4iter8IntoIterBT_Kj6_EE11spec_extendCs41t77sgS83u_2cc, symObjAddr: 0x4ED4, symBinAddr: 0x10003919C, symSize: 0x24 }
  - { offset: 0x54447, size: 0x8, addend: 0x0, symName: __RNvXs_NtNtCsdze8u8oDPro_5alloc3vec11spec_extendINtB6_3VecRNtNtCs27l1GJC5rMQ_3std4path4PathEINtB4_10SpecExtendBT_INtNtNtNtCs9f3LFPSIp77_4core4iter8adapters5chain5ChainINtNtB1R_3map3MapINtNtNtB1V_5slice4iter4IterNtCs41t77sgS83u_2cc6ObjectENCNvMs3_B3o_NtB3o_5Build8assemble0EIB2F_IB2W_INtNtB8_4sync3ArcBU_EENvYB4w_NtNtNtB1V_3ops5deref5Deref5derefEEE11spec_extendB3o_, symObjAddr: 0x4EF8, symBinAddr: 0x1000391C0, symSize: 0x24 }
  - { offset: 0x544A5, size: 0x8, addend: 0x0, symName: __RNvXNtNtCsdze8u8oDPro_5alloc3vec14spec_from_iterINtB4_3VecNtNtB6_6string6StringEINtB2_12SpecFromIterBU_INtNtNtNtCs9f3LFPSIp77_4core4iter8adapters3map3MapNtNtNtB1M_3str4iter15SplitWhitespaceNCNvMs3_Cs41t77sgS83u_2ccNtB39_5Build8env_tool0EE9from_iterB39_, symObjAddr: 0x399C, symBinAddr: 0x100037C64, symSize: 0x14 }
  - { offset: 0x544E4, size: 0x8, addend: 0x0, symName: __RNvXNtNtCsdze8u8oDPro_5alloc3vec14spec_from_iterINtB4_3VecNtNtB6_6string6StringEINtB2_12SpecFromIterBU_INtNtNtNtCs9f3LFPSIp77_4core4iter8adapters3map3MapNtNtNtB1M_3str4iter15SplitWhitespaceNCNvMs3_Cs41t77sgS83u_2ccNtB39_5Build8env_tools_0EE9from_iterB39_, symObjAddr: 0x39B0, symBinAddr: 0x100037C78, symSize: 0x14 }
  - { offset: 0x54523, size: 0x8, addend: 0x0, symName: __RNvXNtNtCsdze8u8oDPro_5alloc3vec14spec_from_iterINtB4_3VecNtNtB6_6string6StringEINtB2_12SpecFromIterBU_INtNtNtNtCs9f3LFPSIp77_4core4iter8adapters3map3MapNtNtNtB1M_3str4iter20SplitAsciiWhitespaceNvYeNtBW_8ToString9to_stringEE9from_iterCs41t77sgS83u_2cc, symObjAddr: 0x39C4, symBinAddr: 0x100037C8C, symSize: 0x14 }
  - { offset: 0x54562, size: 0x8, addend: 0x0, symName: __RNvXNtNtCsdze8u8oDPro_5alloc3vec14spec_from_iterINtB4_3VecNtNtB6_6string6StringEINtB2_12SpecFromIterBU_NtCseFjtURsKr7u_5shlex5ShlexE9from_iterCs41t77sgS83u_2cc, symObjAddr: 0x39D8, symBinAddr: 0x100037CA0, symSize: 0x14 }
  - { offset: 0x545A1, size: 0x8, addend: 0x0, symName: __RNvXNtNtCsdze8u8oDPro_5alloc3vec14spec_from_iterINtB4_3VecRNtNtCs27l1GJC5rMQ_3std4path4PathEINtB2_12SpecFromIterBU_INtNtNtNtCs9f3LFPSIp77_4core4iter8adapters5chain5ChainINtNtB1U_3map3MapINtNtNtB1Y_5slice4iter4IterNtCs41t77sgS83u_2cc6ObjectENCNvMs3_B3r_NtB3r_5Build8assemble0EIB2I_IB2Z_INtNtB6_4sync3ArcBV_EENvYB4z_NtNtNtB1Y_3ops5deref5Deref5derefEEE9from_iterB3r_, symObjAddr: 0x39EC, symBinAddr: 0x100037CB4, symSize: 0x14 }
  - { offset: 0x545E0, size: 0x8, addend: 0x0, symName: __RNvXNtNtCsdze8u8oDPro_5alloc3vec14spec_from_iterINtB4_3VecRNtNtNtCs27l1GJC5rMQ_3std3ffi6os_str8OsStringEINtB2_12SpecFromIterBU_INtNtNtNtCs9f3LFPSIp77_4core4iter8adapters6filter6FilterINtNtNtB2a_5slice4iter4IterBV_ENCNvMNtCs41t77sgS83u_2cc4toolNtB3v_4Tool10to_command0EE9from_iterB3x_, symObjAddr: 0x3A00, symBinAddr: 0x100037CC8, symSize: 0x14 }
  - { offset: 0x5462B, size: 0x8, addend: 0x0, symName: __RNvXNtNtCsdze8u8oDPro_5alloc3vec21spec_from_iter_nestedINtB4_3VecNtNtB6_6string6StringEINtB2_18SpecFromIterNestedB11_INtNtNtNtCs9f3LFPSIp77_4core4iter8adapters3map3MapNtNtNtB20_3str4iter15SplitWhitespaceNCNvMs3_Cs41t77sgS83u_2ccNtB3n_5Build8env_tool0EE9from_iterB3n_, symObjAddr: 0x3A14, symBinAddr: 0x100037CDC, symSize: 0x248 }
  - { offset: 0x5493D, size: 0x8, addend: 0x0, symName: __RNvXNtNtCsdze8u8oDPro_5alloc3vec21spec_from_iter_nestedINtB4_3VecNtNtB6_6string6StringEINtB2_18SpecFromIterNestedB11_INtNtNtNtCs9f3LFPSIp77_4core4iter8adapters3map3MapNtNtNtB20_3str4iter15SplitWhitespaceNCNvMs3_Cs41t77sgS83u_2ccNtB3n_5Build8env_tools_0EE9from_iterB3n_, symObjAddr: 0x3C5C, symBinAddr: 0x100037F24, symSize: 0x248 }
  - { offset: 0x54C4F, size: 0x8, addend: 0x0, symName: __RNvXNtNtCsdze8u8oDPro_5alloc3vec21spec_from_iter_nestedINtB4_3VecNtNtB6_6string6StringEINtB2_18SpecFromIterNestedB11_INtNtNtNtCs9f3LFPSIp77_4core4iter8adapters3map3MapNtNtNtB20_3str4iter20SplitAsciiWhitespaceNvYeNtB13_8ToString9to_stringEE9from_iterCs41t77sgS83u_2cc, symObjAddr: 0x3EA4, symBinAddr: 0x10003816C, symSize: 0x23C }
  - { offset: 0x54F60, size: 0x8, addend: 0x0, symName: __RNvXNtNtCsdze8u8oDPro_5alloc3vec21spec_from_iter_nestedINtB4_3VecNtNtB6_6string6StringEINtB2_18SpecFromIterNestedB11_NtCseFjtURsKr7u_5shlex5ShlexE9from_iterCs41t77sgS83u_2cc, symObjAddr: 0x40E0, symBinAddr: 0x1000383A8, symSize: 0x23C }
  - { offset: 0x55271, size: 0x8, addend: 0x0, symName: __RNvXNtNtCsdze8u8oDPro_5alloc3vec21spec_from_iter_nestedINtB4_3VecRNtNtNtCs27l1GJC5rMQ_3std3ffi6os_str8OsStringEINtB2_18SpecFromIterNestedB11_INtNtNtNtCs9f3LFPSIp77_4core4iter8adapters6filter6FilterINtNtNtB2o_5slice4iter4IterB12_ENCNvMNtCs41t77sgS83u_2cc4toolNtB3K_4Tool10to_command0EE9from_iterB3M_, symObjAddr: 0x431C, symBinAddr: 0x1000385E4, symSize: 0x21C }
  - { offset: 0x55589, size: 0x8, addend: 0x0, symName: __RNvXs_NtNtCsdze8u8oDPro_5alloc3vec21spec_from_iter_nestedINtB6_3VecRNtNtCs27l1GJC5rMQ_3std4path4PathEINtB4_18SpecFromIterNestedB13_INtNtNtNtCs9f3LFPSIp77_4core4iter8adapters5chain5ChainINtNtB2a_3map3MapINtNtNtB2e_5slice4iter4IterNtCs41t77sgS83u_2cc6ObjectENCNvMs3_B3H_NtB3H_5Build8assemble0EIB2Y_IB3f_INtNtB8_4sync3ArcB14_EENvYB4P_NtNtNtB2e_3ops5deref5Deref5derefEEE9from_iterB3H_, symObjAddr: 0x4F44, symBinAddr: 0x10003920C, symSize: 0x164 }
  - { offset: 0x55667, size: 0x8, addend: 0x0, symName: __RNvXs6_NtCsdze8u8oDPro_5alloc3vecINtB5_3VecINtNtB7_4sync3ArcNtNtCs27l1GJC5rMQ_3std4path4PathEENtNtNtCs9f3LFPSIp77_4core3ops5deref5Deref5derefCs41t77sgS83u_2cc, symObjAddr: 0x47AC, symBinAddr: 0x100038A74, symSize: 0x24 }
  - { offset: 0x556A7, size: 0x8, addend: 0x0, symName: __RNvXs6_NtCsdze8u8oDPro_5alloc3vecINtB5_3VecINtNtB7_4sync3ArcNtNtNtCs27l1GJC5rMQ_3std3ffi6os_str5OsStrEENtNtNtCs9f3LFPSIp77_4core3ops5deref5Deref5derefCs41t77sgS83u_2cc, symObjAddr: 0x47D0, symBinAddr: 0x100038A98, symSize: 0x24 }
  - { offset: 0x556E7, size: 0x8, addend: 0x0, symName: __RNvXs6_NtCsdze8u8oDPro_5alloc3vecINtB5_3VecNtCs41t77sgS83u_2cc6ObjectENtNtNtCs9f3LFPSIp77_4core3ops5deref5Deref5derefBH_, symObjAddr: 0x47F4, symBinAddr: 0x100038ABC, symSize: 0x24 }
  - { offset: 0x55727, size: 0x8, addend: 0x0, symName: __RNvXs6_NtCsdze8u8oDPro_5alloc3vecINtB5_3VecNtNtB7_6string6StringENtNtNtCs9f3LFPSIp77_4core3ops5deref5Deref5derefCs41t77sgS83u_2cc, symObjAddr: 0x4818, symBinAddr: 0x100038AE0, symSize: 0x24 }
  - { offset: 0x55767, size: 0x8, addend: 0x0, symName: __RNvXs6_NtCsdze8u8oDPro_5alloc3vecINtB5_3VecNtNtNtCs27l1GJC5rMQ_3std3ffi6os_str8OsStringENtNtNtCs9f3LFPSIp77_4core3ops5deref5Deref5derefCs41t77sgS83u_2cc, symObjAddr: 0x483C, symBinAddr: 0x100038B04, symSize: 0x24 }
  - { offset: 0x557A7, size: 0x8, addend: 0x0, symName: __RNvXs6_NtCsdze8u8oDPro_5alloc3vecINtB5_3VecRNtNtCs27l1GJC5rMQ_3std4path4PathENtNtNtCs9f3LFPSIp77_4core3ops5deref5Deref5derefCs41t77sgS83u_2cc, symObjAddr: 0x4860, symBinAddr: 0x100038B28, symSize: 0x24 }
  - { offset: 0x557E7, size: 0x8, addend: 0x0, symName: __RNvXs6_NtCsdze8u8oDPro_5alloc3vecINtB5_3VecReENtNtNtCs9f3LFPSIp77_4core3ops5deref5Deref5derefCs41t77sgS83u_2cc, symObjAddr: 0x4884, symBinAddr: 0x100038B4C, symSize: 0x24 }
  - { offset: 0x55827, size: 0x8, addend: 0x0, symName: __RNvXs6_NtCsdze8u8oDPro_5alloc3vecINtB5_3VecTINtNtB7_4sync3ArcNtNtNtCs27l1GJC5rMQ_3std3ffi6os_str5OsStrEBG_EENtNtNtCs9f3LFPSIp77_4core3ops5deref5Deref5derefCs41t77sgS83u_2cc, symObjAddr: 0x48A8, symBinAddr: 0x100038B70, symSize: 0x24 }
  - { offset: 0x55867, size: 0x8, addend: 0x0, symName: __RNvXs6_NtCsdze8u8oDPro_5alloc3vecINtB5_3VecTINtNtB7_4sync3ArceEINtNtCs9f3LFPSIp77_4core6option6OptionBG_EEENtNtNtB14_3ops5deref5Deref5derefCs41t77sgS83u_2cc, symObjAddr: 0x48CC, symBinAddr: 0x100038B94, symSize: 0x24 }
  - { offset: 0x558A7, size: 0x8, addend: 0x0, symName: __RNvXs6_NtCsdze8u8oDPro_5alloc3vecINtB5_3VecTNtNtNtCs27l1GJC5rMQ_3std3ffi6os_str8OsStringBG_EENtNtNtCs9f3LFPSIp77_4core3ops5deref5Deref5derefCs41t77sgS83u_2cc, symObjAddr: 0x48F0, symBinAddr: 0x100038BB8, symSize: 0x24 }
  - { offset: 0x558E7, size: 0x8, addend: 0x0, symName: __RNvXs6_NtCsdze8u8oDPro_5alloc3vecINtB5_3VechENtNtNtCs9f3LFPSIp77_4core3ops5deref5Deref5derefCs41t77sgS83u_2cc, symObjAddr: 0x4914, symBinAddr: 0x100038BDC, symSize: 0x24 }
  - { offset: 0x55C5D, size: 0x8, addend: 0x0, symName: __RNvXs7_NtCsdze8u8oDPro_5alloc3vecINtB5_3VechENtNtNtCs9f3LFPSIp77_4core3ops5deref8DerefMut9deref_mutCs41t77sgS83u_2cc, symObjAddr: 0x4938, symBinAddr: 0x100038C00, symSize: 0x24 }
  - { offset: 0x55CD3, size: 0x8, addend: 0x0, symName: __RNvXs9_NtCsdze8u8oDPro_5alloc3vecINtB5_3VecINtNtB7_4sync3ArcNtNtCs27l1GJC5rMQ_3std4path4PathEENtNtCs9f3LFPSIp77_4core5clone5Clone5cloneCs41t77sgS83u_2cc, symObjAddr: 0x495C, symBinAddr: 0x100038C24, symSize: 0xB0 }
  - { offset: 0x55F37, size: 0x8, addend: 0x0, symName: __RNvXs9_NtCsdze8u8oDPro_5alloc3vecINtB5_3VecINtNtB7_4sync3ArcNtNtNtCs27l1GJC5rMQ_3std3ffi6os_str5OsStrEENtNtCs9f3LFPSIp77_4core5clone5Clone5cloneCs41t77sgS83u_2cc, symObjAddr: 0x4A0C, symBinAddr: 0x100038CD4, symSize: 0xB0 }
  - { offset: 0x5619B, size: 0x8, addend: 0x0, symName: __RNvXs9_NtCsdze8u8oDPro_5alloc3vecINtB5_3VecNtNtNtCs27l1GJC5rMQ_3std3ffi6os_str8OsStringENtNtCs9f3LFPSIp77_4core5clone5Clone5cloneCs41t77sgS83u_2cc, symObjAddr: 0x4ABC, symBinAddr: 0x100038D84, symSize: 0xB0 }
  - { offset: 0x563FF, size: 0x8, addend: 0x0, symName: __RNvXs9_NtCsdze8u8oDPro_5alloc3vecINtB5_3VecTINtNtB7_4sync3ArcNtNtNtCs27l1GJC5rMQ_3std3ffi6os_str5OsStrEBG_EENtNtCs9f3LFPSIp77_4core5clone5Clone5cloneCs41t77sgS83u_2cc, symObjAddr: 0x4B6C, symBinAddr: 0x100038E34, symSize: 0xB0 }
  - { offset: 0x56663, size: 0x8, addend: 0x0, symName: __RNvXs9_NtCsdze8u8oDPro_5alloc3vecINtB5_3VecTINtNtB7_4sync3ArceEINtNtCs9f3LFPSIp77_4core6option6OptionBG_EEENtNtB14_5clone5Clone5cloneCs41t77sgS83u_2cc, symObjAddr: 0x4C1C, symBinAddr: 0x100038EE4, symSize: 0xB0 }
  - { offset: 0x568C7, size: 0x8, addend: 0x0, symName: __RNvXs9_NtCsdze8u8oDPro_5alloc3vecINtB5_3VecTNtNtNtCs27l1GJC5rMQ_3std3ffi6os_str8OsStringBG_EENtNtCs9f3LFPSIp77_4core5clone5Clone5cloneCs41t77sgS83u_2cc, symObjAddr: 0x4CCC, symBinAddr: 0x100038F94, symSize: 0xB0 }
  - { offset: 0x56B2B, size: 0x8, addend: 0x0, symName: __RNvXs9_NtCsdze8u8oDPro_5alloc3vecINtB5_3VechENtNtCs9f3LFPSIp77_4core5clone5Clone10clone_fromCs41t77sgS83u_2cc, symObjAddr: 0x4D7C, symBinAddr: 0x100039044, symSize: 0x88 }
  - { offset: 0x56C6D, size: 0x8, addend: 0x0, symName: __RNvXs9_NtCsdze8u8oDPro_5alloc3vecINtB5_3VechENtNtCs9f3LFPSIp77_4core5clone5Clone5cloneCs41t77sgS83u_2cc, symObjAddr: 0x4E04, symBinAddr: 0x1000390CC, symSize: 0xAC }
  - { offset: 0x56EDC, size: 0x8, addend: 0x0, symName: __RNvXs_NtNtCsdze8u8oDPro_5alloc3vec16in_place_collectINtB6_3VecNtNtCs27l1GJC5rMQ_3std4path7PathBufEINtNtB6_14spec_from_iter12SpecFromIterBY_INtNtNtNtCs9f3LFPSIp77_4core4iter8adapters3map3MapINtNtB6_9into_iter8IntoIterNtCs41t77sgS83u_2cc6ObjectENCNvMs3_B3u_NtB3u_5Build25try_compile_intermediates0EE9from_iterB3u_, symObjAddr: 0x4F1C, symBinAddr: 0x1000391E4, symSize: 0x28 }
  - { offset: 0x56F3F, size: 0x8, addend: 0x0, symName: __RNvXsb_NtCsdze8u8oDPro_5alloc3vecINtB5_3VechEINtNtNtCs9f3LFPSIp77_4core3ops5index5IndexINtNtBM_5range7RangeTojEE5indexCs41t77sgS83u_2cc, symObjAddr: 0x50A8, symBinAddr: 0x100039370, symSize: 0x100 }
  - { offset: 0x57225, size: 0x8, addend: 0x0, symName: __RNvXsc_NtCsdze8u8oDPro_5alloc3vecINtB5_3VechEINtNtNtCs9f3LFPSIp77_4core3ops5index8IndexMutINtNtBM_5range9RangeFromjEE9index_mutCs41t77sgS83u_2cc, symObjAddr: 0x51A8, symBinAddr: 0x100039470, symSize: 0x98 }
  - { offset: 0x573DC, size: 0x8, addend: 0x0, symName: __RNvXse_NtCsdze8u8oDPro_5alloc3vecINtB5_3VecNtCs41t77sgS83u_2cc6ObjectENtNtNtNtCs9f3LFPSIp77_4core4iter6traits7collect12IntoIterator9into_iterBH_, symObjAddr: 0x5240, symBinAddr: 0x100039508, symSize: 0x100 }
  - { offset: 0x576AB, size: 0x8, addend: 0x0, symName: __RNvXse_NtCsdze8u8oDPro_5alloc3vecINtB5_3VecNtNtB7_6string6StringENtNtNtNtCs9f3LFPSIp77_4core4iter6traits7collect12IntoIterator9into_iterCs41t77sgS83u_2cc, symObjAddr: 0x5340, symBinAddr: 0x100039608, symSize: 0x100 }
  - { offset: 0x57980, size: 0x8, addend: 0x0, symName: __RNvXsf_NtCsdze8u8oDPro_5alloc3vecRINtB5_3VecINtNtB7_4sync3ArcNtNtNtCs27l1GJC5rMQ_3std3ffi6os_str5OsStrEENtNtNtNtCs9f3LFPSIp77_4core4iter6traits7collect12IntoIterator9into_iterCs41t77sgS83u_2cc, symObjAddr: 0x5440, symBinAddr: 0x100039708, symSize: 0xB0 }
  - { offset: 0x57C00, size: 0x8, addend: 0x0, symName: __RNvXsf_NtCsdze8u8oDPro_5alloc3vecRINtB5_3VecNtNtNtCs27l1GJC5rMQ_3std3ffi6os_str8OsStringENtNtNtNtCs9f3LFPSIp77_4core4iter6traits7collect12IntoIterator9into_iterCs41t77sgS83u_2cc, symObjAddr: 0x54F0, symBinAddr: 0x1000397B8, symSize: 0xB8 }
  - { offset: 0x57E80, size: 0x8, addend: 0x0, symName: __RNvXsf_NtCsdze8u8oDPro_5alloc3vecRINtB5_3VecRNtNtNtCs27l1GJC5rMQ_3std3ffi6os_str8OsStringENtNtNtNtCs9f3LFPSIp77_4core4iter6traits7collect12IntoIterator9into_iterCs41t77sgS83u_2cc, symObjAddr: 0x55A8, symBinAddr: 0x100039870, symSize: 0xAC }
  - { offset: 0x58106, size: 0x8, addend: 0x0, symName: __RNvXsn_NtCsdze8u8oDPro_5alloc3vecINtB5_3VecINtNtB7_4sync3ArcNtNtCs27l1GJC5rMQ_3std4path4PathEENtNtNtCs9f3LFPSIp77_4core3ops4drop4Drop4dropCs41t77sgS83u_2cc, symObjAddr: 0x5654, symBinAddr: 0x10003991C, symSize: 0x50 }
  - { offset: 0x58213, size: 0x8, addend: 0x0, symName: __RNvXsn_NtCsdze8u8oDPro_5alloc3vecINtB5_3VecINtNtB7_4sync3ArcNtNtNtCs27l1GJC5rMQ_3std3ffi6os_str5OsStrEENtNtNtCs9f3LFPSIp77_4core3ops4drop4Drop4dropCs41t77sgS83u_2cc, symObjAddr: 0x56A4, symBinAddr: 0x10003996C, symSize: 0x50 }
  - { offset: 0x58320, size: 0x8, addend: 0x0, symName: __RNvXsn_NtCsdze8u8oDPro_5alloc3vecINtB5_3VecINtNtB7_5boxed3BoxDINtNtNtCs9f3LFPSIp77_4core3ops8function5FnMutuEp6OutputINtNtB15_6result6ResultuNtNtNtCs27l1GJC5rMQ_3std2io5error5ErrorENtNtB15_6marker4SendNtB2V_4SyncEL_EENtNtB13_4drop4Drop4dropCs41t77sgS83u_2cc, symObjAddr: 0x56F4, symBinAddr: 0x1000399BC, symSize: 0x50 }
  - { offset: 0x5842D, size: 0x8, addend: 0x0, symName: __RNvXsn_NtCsdze8u8oDPro_5alloc3vecINtB5_3VecNtCs41t77sgS83u_2cc6ObjectENtNtNtCs9f3LFPSIp77_4core3ops4drop4Drop4dropBH_, symObjAddr: 0x5744, symBinAddr: 0x100039A0C, symSize: 0x50 }
  - { offset: 0x5853A, size: 0x8, addend: 0x0, symName: __RNvXsn_NtCsdze8u8oDPro_5alloc3vecINtB5_3VecNtNtNtB7_3ffi5c_str7CStringENtNtNtCs9f3LFPSIp77_4core3ops4drop4Drop4dropCs41t77sgS83u_2cc, symObjAddr: 0x5794, symBinAddr: 0x100039A5C, symSize: 0x50 }
  - { offset: 0x58647, size: 0x8, addend: 0x0, symName: __RNvXsn_NtCsdze8u8oDPro_5alloc3vecINtB5_3VecNtNtNtCs27l1GJC5rMQ_3std3ffi6os_str8OsStringENtNtNtCs9f3LFPSIp77_4core3ops4drop4Drop4dropCs41t77sgS83u_2cc, symObjAddr: 0x57E4, symBinAddr: 0x100039AAC, symSize: 0x50 }
  - { offset: 0x58754, size: 0x8, addend: 0x0, symName: __RNvXsn_NtCsdze8u8oDPro_5alloc3vecINtB5_3VecNtNtNtNtCs27l1GJC5rMQ_3std4sync4mpmc5waker5EntryENtNtNtCs9f3LFPSIp77_4core3ops4drop4Drop4dropCs41t77sgS83u_2cc, symObjAddr: 0x5834, symBinAddr: 0x100039AFC, symSize: 0x50 }
  - { offset: 0x58861, size: 0x8, addend: 0x0, symName: __RNvXsn_NtCsdze8u8oDPro_5alloc3vecINtB5_3VecPaENtNtNtCs9f3LFPSIp77_4core3ops4drop4Drop4dropCs41t77sgS83u_2cc, symObjAddr: 0x5884, symBinAddr: 0x100039B4C, symSize: 0x3C }
  - { offset: 0x5896E, size: 0x8, addend: 0x0, symName: __RNvXsn_NtCsdze8u8oDPro_5alloc3vecINtB5_3VecRNtNtCs27l1GJC5rMQ_3std4path4PathENtNtNtCs9f3LFPSIp77_4core3ops4drop4Drop4dropCs41t77sgS83u_2cc, symObjAddr: 0x58C0, symBinAddr: 0x100039B88, symSize: 0x3C }
  - { offset: 0x58A7B, size: 0x8, addend: 0x0, symName: __RNvXsn_NtCsdze8u8oDPro_5alloc3vecINtB5_3VecRNtNtNtCs27l1GJC5rMQ_3std3ffi6os_str8OsStringENtNtNtCs9f3LFPSIp77_4core3ops4drop4Drop4dropCs41t77sgS83u_2cc, symObjAddr: 0x58FC, symBinAddr: 0x100039BC4, symSize: 0x3C }
  - { offset: 0x58B88, size: 0x8, addend: 0x0, symName: __RNvXsn_NtCsdze8u8oDPro_5alloc3vecINtB5_3VecReENtNtNtCs9f3LFPSIp77_4core3ops4drop4Drop4dropCs41t77sgS83u_2cc, symObjAddr: 0x5938, symBinAddr: 0x100039C00, symSize: 0x3C }
  - { offset: 0x58C95, size: 0x8, addend: 0x0, symName: __RNvXsn_NtCsdze8u8oDPro_5alloc3vecINtB5_3VecTINtNtB7_4sync3ArcNtNtNtCs27l1GJC5rMQ_3std3ffi6os_str5OsStrEBG_EENtNtNtCs9f3LFPSIp77_4core3ops4drop4Drop4dropCs41t77sgS83u_2cc, symObjAddr: 0x5974, symBinAddr: 0x100039C3C, symSize: 0x50 }
  - { offset: 0x58DA2, size: 0x8, addend: 0x0, symName: __RNvXsn_NtCsdze8u8oDPro_5alloc3vecINtB5_3VecTINtNtB7_4sync3ArceEINtNtCs9f3LFPSIp77_4core6option6OptionBG_EEENtNtNtB14_3ops4drop4Drop4dropCs41t77sgS83u_2cc, symObjAddr: 0x59C4, symBinAddr: 0x100039C8C, symSize: 0x50 }
  - { offset: 0x58EAF, size: 0x8, addend: 0x0, symName: __RNvXsn_NtCsdze8u8oDPro_5alloc3vecINtB5_3VecTNtNtCs27l1GJC5rMQ_3std7process7CommandINtNtB7_6borrow3CowNtNtBK_4path4PathENtNvMs3_Cs41t77sgS83u_2ccNtB21_5Build15compile_objects10KillOnDropNtNtNtB21_8parallel9job_token8JobTokenEENtNtNtCs9f3LFPSIp77_4core3ops4drop4Drop4dropB21_, symObjAddr: 0x5A14, symBinAddr: 0x100039CDC, symSize: 0x50 }
  - { offset: 0x58FBC, size: 0x8, addend: 0x0, symName: __RNvXsn_NtCsdze8u8oDPro_5alloc3vecINtB5_3VecTNtNtNtCs27l1GJC5rMQ_3std3ffi6os_str8OsStringBG_EENtNtNtCs9f3LFPSIp77_4core3ops4drop4Drop4dropCs41t77sgS83u_2cc, symObjAddr: 0x5A64, symBinAddr: 0x100039D2C, symSize: 0x50 }
  - { offset: 0x590CF, size: 0x8, addend: 0x0, symName: __RNvXso_NtCsdze8u8oDPro_5alloc3vecINtB5_3VecTNtNtCs27l1GJC5rMQ_3std7process7CommandINtNtB7_6borrow3CowNtNtBK_4path4PathENtNvMs3_Cs41t77sgS83u_2ccNtB21_5Build15compile_objects10KillOnDropNtNtNtB21_8parallel9job_token8JobTokenEENtNtCs9f3LFPSIp77_4core7default7Default7defaultB21_, symObjAddr: 0x5AB4, symBinAddr: 0x100039D7C, symSize: 0x28 }
  - { offset: 0x5917F, size: 0x8, addend: 0x0, symName: __RNvXsp_NtCsdze8u8oDPro_5alloc3vecINtB5_3VecINtNtB7_4sync3ArcNtNtCs27l1GJC5rMQ_3std4path4PathEENtNtCs9f3LFPSIp77_4core3fmt5Debug3fmtCs41t77sgS83u_2cc, symObjAddr: 0x5ADC, symBinAddr: 0x100039DA4, symSize: 0x8C }
  - { offset: 0x592E3, size: 0x8, addend: 0x0, symName: __RNvXsp_NtCsdze8u8oDPro_5alloc3vecINtB5_3VecINtNtB7_4sync3ArcNtNtNtCs27l1GJC5rMQ_3std3ffi6os_str5OsStrEENtNtCs9f3LFPSIp77_4core3fmt5Debug3fmtCs41t77sgS83u_2cc, symObjAddr: 0x5B68, symBinAddr: 0x100039E30, symSize: 0x8C }
  - { offset: 0x59447, size: 0x8, addend: 0x0, symName: __RNvXsp_NtCsdze8u8oDPro_5alloc3vecINtB5_3VecNtNtNtCs27l1GJC5rMQ_3std3ffi6os_str8OsStringENtNtCs9f3LFPSIp77_4core3fmt5Debug3fmtCs41t77sgS83u_2cc, symObjAddr: 0x5BF4, symBinAddr: 0x100039EBC, symSize: 0x8C }
  - { offset: 0x595AB, size: 0x8, addend: 0x0, symName: __RNvXsp_NtCsdze8u8oDPro_5alloc3vecINtB5_3VecTINtNtB7_4sync3ArcNtNtNtCs27l1GJC5rMQ_3std3ffi6os_str5OsStrEBG_EENtNtCs9f3LFPSIp77_4core3fmt5Debug3fmtCs41t77sgS83u_2cc, symObjAddr: 0x5C80, symBinAddr: 0x100039F48, symSize: 0x8C }
  - { offset: 0x5970F, size: 0x8, addend: 0x0, symName: __RNvXsp_NtCsdze8u8oDPro_5alloc3vecINtB5_3VecTINtNtB7_4sync3ArceEINtNtCs9f3LFPSIp77_4core6option6OptionBG_EEENtNtB14_3fmt5Debug3fmtCs41t77sgS83u_2cc, symObjAddr: 0x5D0C, symBinAddr: 0x100039FD4, symSize: 0x8C }
  - { offset: 0x59873, size: 0x8, addend: 0x0, symName: __RNvXsp_NtCsdze8u8oDPro_5alloc3vecINtB5_3VecTNtNtNtCs27l1GJC5rMQ_3std3ffi6os_str8OsStringBG_EENtNtCs9f3LFPSIp77_4core3fmt5Debug3fmtCs41t77sgS83u_2cc, symObjAddr: 0x5D98, symBinAddr: 0x10003A060, symSize: 0x8C }
  - { offset: 0x5B968, size: 0x8, addend: 0x0, symName: __RINvMs_NtCsdze8u8oDPro_5alloc3vecINtB5_3VecINtNtB7_4sync3ArcNtNtNtCs27l1GJC5rMQ_3std3ffi6os_str5OsStrEE10retain_mutNCINvB2_6retainNCNvMs3_Cs41t77sgS83u_2ccNtB2c_5Build11remove_flag0E0EB2c_, symObjAddr: 0x0, symBinAddr: 0x1000342C8, symSize: 0xE4 }
  - { offset: 0x5BA3C, size: 0x8, addend: 0x0, symName: __RINvMs_NtCsdze8u8oDPro_5alloc3vecINtB5_3VecINtNtB7_4sync3ArcNtNtNtCs27l1GJC5rMQ_3std3ffi6os_str5OsStrEE6retainNCNvMs3_Cs41t77sgS83u_2ccNtB1S_5Build11remove_flag0EB1S_, symObjAddr: 0xE4, symBinAddr: 0x1000343AC, symSize: 0x4C }
  - { offset: 0x5BD50, size: 0x8, addend: 0x0, symName: __RINvMs_NtCsdze8u8oDPro_5alloc3vecINtB5_3VecNtNtNtNtCs27l1GJC5rMQ_3std4sync4mpmc5waker5EntryE5drainNtNtNtCs9f3LFPSIp77_4core3ops5range9RangeFullECs41t77sgS83u_2cc, symObjAddr: 0x130, symBinAddr: 0x1000343F8, symSize: 0x158 }
  - { offset: 0x5C7B5, size: 0x8, addend: 0x0, symName: __RINvMs_NtCsdze8u8oDPro_5alloc3vecINtB5_3VecTNtNtCs27l1GJC5rMQ_3std7process7CommandINtNtB7_6borrow3CowNtNtBK_4path4PathENtNvMs3_Cs41t77sgS83u_2ccNtB21_5Build15compile_objects10KillOnDropNtNtNtB21_8parallel9job_token8JobTokenEE10retain_mutNCNCNCB1V_000EB21_, symObjAddr: 0x288, symBinAddr: 0x100034550, symSize: 0xE4 }
  - { offset: 0x5CB47, size: 0x8, addend: 0x0, symName: __RINvMsi_NtCsdze8u8oDPro_5alloc3vecINtB6_3VecINtNtB8_4sync3ArcNtNtNtCs27l1GJC5rMQ_3std3ffi6os_str5OsStrEE14extend_trustedINtNtNtNtCs9f3LFPSIp77_4core4iter8adapters3map3MapINtNtB6_9into_iter8IntoIterNtNtB8_6string6StringENCNvMs3_Cs41t77sgS83u_2ccNtB3D_5Build26try_flags_from_environment0EEB3D_, symObjAddr: 0x36C, symBinAddr: 0x100034634, symSize: 0x19C }
  - { offset: 0x5CF80, size: 0x8, addend: 0x0, symName: __RINvMsi_NtCsdze8u8oDPro_5alloc3vecINtB6_3VecNtNtB8_6string6StringE16extend_desugaredINtNtNtNtCs9f3LFPSIp77_4core4iter8adapters3map3MapNtNtNtB1t_3str4iter15SplitWhitespaceNCNvMs3_Cs41t77sgS83u_2ccNtB2Q_5Build8env_tool0EEB2Q_, symObjAddr: 0x508, symBinAddr: 0x1000347D0, symSize: 0x1D8 }
  - { offset: 0x5D3C0, size: 0x8, addend: 0x0, symName: __RINvMsi_NtCsdze8u8oDPro_5alloc3vecINtB6_3VecNtNtB8_6string6StringE16extend_desugaredINtNtNtNtCs9f3LFPSIp77_4core4iter8adapters3map3MapNtNtNtB1t_3str4iter15SplitWhitespaceNCNvMs3_Cs41t77sgS83u_2ccNtB2Q_5Build8env_tools_0EEB2Q_, symObjAddr: 0x6E0, symBinAddr: 0x1000349A8, symSize: 0x1D8 }
  - { offset: 0x5D836, size: 0x8, addend: 0x0, symName: __RINvMsi_NtCsdze8u8oDPro_5alloc3vecINtB6_3VecNtNtB8_6string6StringE16extend_desugaredINtNtNtNtCs9f3LFPSIp77_4core4iter8adapters3map3MapNtNtNtB1t_3str4iter20SplitAsciiWhitespaceNvYeNtBI_8ToString9to_stringEECs41t77sgS83u_2cc, symObjAddr: 0x8B8, symBinAddr: 0x100034B80, symSize: 0x1D8 }
  - { offset: 0x5DCC4, size: 0x8, addend: 0x0, symName: __RINvMsi_NtCsdze8u8oDPro_5alloc3vecINtB6_3VecNtNtB8_6string6StringE16extend_desugaredNtCseFjtURsKr7u_5shlex5ShlexECs41t77sgS83u_2cc, symObjAddr: 0xA90, symBinAddr: 0x100034D58, symSize: 0x1D8 }
  - { offset: 0x5E0C3, size: 0x8, addend: 0x0, symName: __RINvMsi_NtCsdze8u8oDPro_5alloc3vecINtB6_3VecNtNtNtCs27l1GJC5rMQ_3std3ffi6os_str8OsStringE14extend_trustedINtNtNtCs9f3LFPSIp77_4core5array4iter8IntoIterBG_Kj6_EECs41t77sgS83u_2cc, symObjAddr: 0xC68, symBinAddr: 0x100034F30, symSize: 0x1B4 }
  - { offset: 0x5E4B9, size: 0x8, addend: 0x0, symName: __RINvMsi_NtCsdze8u8oDPro_5alloc3vecINtB6_3VecRNtNtCs27l1GJC5rMQ_3std4path4PathE14extend_trustedINtNtNtNtCs9f3LFPSIp77_4core4iter8adapters5chain5ChainINtNtB1z_3map3MapINtNtNtB1D_5slice4iter4IterNtCs41t77sgS83u_2cc6ObjectENCNvMs3_B36_NtB36_5Build8assemble0EIB2n_IB2E_INtNtB8_4sync3ArcBH_EENvYB4e_NtNtNtB1D_3ops5deref5Deref5derefEEEB36_, symObjAddr: 0xE1C, symBinAddr: 0x1000350E4, symSize: 0x190 }
  - { offset: 0x5E937, size: 0x8, addend: 0x0, symName: __RINvMsi_NtCsdze8u8oDPro_5alloc3vecINtB6_3VecRNtNtNtCs27l1GJC5rMQ_3std3ffi6os_str8OsStringE16extend_desugaredINtNtNtNtCs9f3LFPSIp77_4core4iter8adapters6filter6FilterINtNtNtB1R_5slice4iter4IterBH_ENCNvMNtCs41t77sgS83u_2cc4toolNtB3c_4Tool10to_command0EEB3e_, symObjAddr: 0xFAC, symBinAddr: 0x100035274, symSize: 0x190 }
  - { offset: 0x5F0F4, size: 0x8, addend: 0x0, symName: __RNvMNtCsdze8u8oDPro_5alloc3vecINtB2_3VecINtNtB4_4sync3ArcNtNtCs27l1GJC5rMQ_3std4path4PathEE3newCs41t77sgS83u_2cc, symObjAddr: 0x19D8, symBinAddr: 0x100035CA0, symSize: 0x28 }
  - { offset: 0x5F1E8, size: 0x8, addend: 0x0, symName: __RNvMNtCsdze8u8oDPro_5alloc3vecINtB2_3VecINtNtB4_4sync3ArcNtNtNtCs27l1GJC5rMQ_3std3ffi6os_str5OsStrEE3newCs41t77sgS83u_2cc, symObjAddr: 0x1A00, symBinAddr: 0x100035CC8, symSize: 0x28 }
  - { offset: 0x5F2D1, size: 0x8, addend: 0x0, symName: __RNvMNtCsdze8u8oDPro_5alloc3vecINtB2_3VecNtCs41t77sgS83u_2cc6ObjectE13with_capacityBE_, symObjAddr: 0x1A28, symBinAddr: 0x100035CF0, symSize: 0x44 }
  - { offset: 0x5F3B4, size: 0x8, addend: 0x0, symName: __RNvMNtCsdze8u8oDPro_5alloc3vecINtB2_3VecNtNtB4_6string6StringE3newCs41t77sgS83u_2cc, symObjAddr: 0x1A6C, symBinAddr: 0x100035D34, symSize: 0x28 }
  - { offset: 0x5F4A8, size: 0x8, addend: 0x0, symName: __RNvMNtCsdze8u8oDPro_5alloc3vecINtB2_3VecNtNtNtCs27l1GJC5rMQ_3std3ffi6os_str8OsStringE3newCs41t77sgS83u_2cc, symObjAddr: 0x1A94, symBinAddr: 0x100035D5C, symSize: 0x28 }
  - { offset: 0x5F59C, size: 0x8, addend: 0x0, symName: __RNvMNtCsdze8u8oDPro_5alloc3vecINtB2_3VecTINtNtB4_4sync3ArcNtNtNtCs27l1GJC5rMQ_3std3ffi6os_str5OsStrEBD_EE3newCs41t77sgS83u_2cc, symObjAddr: 0x1ABC, symBinAddr: 0x100035D84, symSize: 0x28 }
  - { offset: 0x5F690, size: 0x8, addend: 0x0, symName: __RNvMNtCsdze8u8oDPro_5alloc3vecINtB2_3VecTINtNtB4_4sync3ArceEINtNtCs9f3LFPSIp77_4core6option6OptionBD_EEE3newCs41t77sgS83u_2cc, symObjAddr: 0x1AE4, symBinAddr: 0x100035DAC, symSize: 0x28 }
  - { offset: 0x5F784, size: 0x8, addend: 0x0, symName: __RNvMNtCsdze8u8oDPro_5alloc3vecINtB2_3VecTNtNtCs27l1GJC5rMQ_3std7process7CommandINtNtB4_6borrow3CowNtNtBH_4path4PathENtNvMs3_Cs41t77sgS83u_2ccNtB1Y_5Build15compile_objects10KillOnDropNtNtNtB1Y_8parallel9job_token8JobTokenEE3newB1Y_, symObjAddr: 0x1B0C, symBinAddr: 0x100035DD4, symSize: 0x28 }
  - { offset: 0x5F878, size: 0x8, addend: 0x0, symName: __RNvMNtCsdze8u8oDPro_5alloc3vecINtB2_3VecTNtNtNtCs27l1GJC5rMQ_3std3ffi6os_str8OsStringBD_EE3newCs41t77sgS83u_2cc, symObjAddr: 0x1B34, symBinAddr: 0x100035DFC, symSize: 0x28 }
  - { offset: 0x5F961, size: 0x8, addend: 0x0, symName: __RNvMNtCsdze8u8oDPro_5alloc3vecINtB2_3VechE13with_capacityCs41t77sgS83u_2cc, symObjAddr: 0x1B5C, symBinAddr: 0x100035E24, symSize: 0x40 }
  - { offset: 0x5FA18, size: 0x8, addend: 0x0, symName: __RNvMs0_NtCsdze8u8oDPro_5alloc3vecINtB5_3VechE6resizeCs41t77sgS83u_2cc, symObjAddr: 0x1B9C, symBinAddr: 0x100035E64, symSize: 0xB4 }
  - { offset: 0x5FC2A, size: 0x8, addend: 0x0, symName: __RNvMs2_NtCsdze8u8oDPro_5alloc3vecINtB5_3VechE11extend_withCs41t77sgS83u_2cc, symObjAddr: 0x1C50, symBinAddr: 0x100035F18, symSize: 0x240 }
  - { offset: 0x600D2, size: 0x8, addend: 0x0, symName: __RNvMs_NtCsdze8u8oDPro_5alloc3vecINtB4_3VecINtNtB6_4sync3ArcNtNtCs27l1GJC5rMQ_3std4path4PathEE18spare_capacity_mutCs41t77sgS83u_2cc, symObjAddr: 0x1E90, symBinAddr: 0x100036158, symSize: 0xDC }
  - { offset: 0x6027E, size: 0x8, addend: 0x0, symName: __RNvMs_NtCsdze8u8oDPro_5alloc3vecINtB4_3VecINtNtB6_4sync3ArcNtNtCs27l1GJC5rMQ_3std4path4PathEE3lenCs41t77sgS83u_2cc, symObjAddr: 0x1F6C, symBinAddr: 0x100036234, symSize: 0x18 }
  - { offset: 0x603B8, size: 0x8, addend: 0x0, symName: __RNvMs_NtCsdze8u8oDPro_5alloc3vecINtB4_3VecINtNtB6_4sync3ArcNtNtCs27l1GJC5rMQ_3std4path4PathEE8as_sliceCs41t77sgS83u_2cc, symObjAddr: 0x1F84, symBinAddr: 0x10003624C, symSize: 0x7C }
  - { offset: 0x60641, size: 0x8, addend: 0x0, symName: __RNvMs_NtCsdze8u8oDPro_5alloc3vecINtB4_3VecINtNtB6_4sync3ArcNtNtNtCs27l1GJC5rMQ_3std3ffi6os_str5OsStrEE18spare_capacity_mutCs41t77sgS83u_2cc, symObjAddr: 0x2000, symBinAddr: 0x1000362C8, symSize: 0xDC }
  - { offset: 0x60927, size: 0x8, addend: 0x0, symName: __RNvMs_NtCsdze8u8oDPro_5alloc3vecINtB4_3VecINtNtB6_4sync3ArcNtNtNtCs27l1GJC5rMQ_3std3ffi6os_str5OsStrEE4pushCs41t77sgS83u_2cc, symObjAddr: 0x20DC, symBinAddr: 0x1000363A4, symSize: 0x104 }
  - { offset: 0x60C35, size: 0x8, addend: 0x0, symName: __RNvMs_NtCsdze8u8oDPro_5alloc3vecINtB4_3VecINtNtB6_4sync3ArcNtNtNtCs27l1GJC5rMQ_3std3ffi6os_str5OsStrEE7reserveCs41t77sgS83u_2cc, symObjAddr: 0x21E0, symBinAddr: 0x1000364A8, symSize: 0xC4 }
  - { offset: 0x60E86, size: 0x8, addend: 0x0, symName: __RNvMs_NtCsdze8u8oDPro_5alloc3vecINtB4_3VecINtNtB6_4sync3ArcNtNtNtCs27l1GJC5rMQ_3std3ffi6os_str5OsStrEE8as_sliceCs41t77sgS83u_2cc, symObjAddr: 0x22A4, symBinAddr: 0x10003656C, symSize: 0x7C }
  - { offset: 0x60FB9, size: 0x8, addend: 0x0, symName: __RNvMs_NtCsdze8u8oDPro_5alloc3vecINtB4_3VecINtNtB6_4sync3ArcNtNtNtCs27l1GJC5rMQ_3std3ffi6os_str5OsStrEE8is_emptyCs41t77sgS83u_2cc, symObjAddr: 0x2320, symBinAddr: 0x1000365E8, symSize: 0x20 }
  - { offset: 0x6117A, size: 0x8, addend: 0x0, symName: __RNvMs_NtCsdze8u8oDPro_5alloc3vecINtB4_3VecNtCs41t77sgS83u_2cc6ObjectE4pushBG_, symObjAddr: 0x2340, symBinAddr: 0x100036608, symSize: 0x124 }
  - { offset: 0x61482, size: 0x8, addend: 0x0, symName: __RNvMs_NtCsdze8u8oDPro_5alloc3vecINtB4_3VecNtCs41t77sgS83u_2cc6ObjectE8as_sliceBG_, symObjAddr: 0x2464, symBinAddr: 0x10003672C, symSize: 0x7C }
  - { offset: 0x61695, size: 0x8, addend: 0x0, symName: __RNvMs_NtCsdze8u8oDPro_5alloc3vecINtB4_3VecNtNtB6_6string6StringE8as_sliceCs41t77sgS83u_2cc, symObjAddr: 0x24E0, symBinAddr: 0x1000367A8, symSize: 0x7C }
  - { offset: 0x617C8, size: 0x8, addend: 0x0, symName: __RNvMs_NtCsdze8u8oDPro_5alloc3vecINtB4_3VecNtNtB6_6string6StringE8is_emptyCs41t77sgS83u_2cc, symObjAddr: 0x255C, symBinAddr: 0x100036824, symSize: 0x20 }
  - { offset: 0x61996, size: 0x8, addend: 0x0, symName: __RNvMs_NtCsdze8u8oDPro_5alloc3vecINtB4_3VecNtNtNtCs27l1GJC5rMQ_3std3ffi6os_str8OsStringE18spare_capacity_mutCs41t77sgS83u_2cc, symObjAddr: 0x257C, symBinAddr: 0x100036844, symSize: 0xE0 }
  - { offset: 0x61C7C, size: 0x8, addend: 0x0, symName: __RNvMs_NtCsdze8u8oDPro_5alloc3vecINtB4_3VecNtNtNtCs27l1GJC5rMQ_3std3ffi6os_str8OsStringE4pushCs41t77sgS83u_2cc, symObjAddr: 0x265C, symBinAddr: 0x100036924, symSize: 0x114 }
  - { offset: 0x61F74, size: 0x8, addend: 0x0, symName: __RNvMs_NtCsdze8u8oDPro_5alloc3vecINtB4_3VecNtNtNtCs27l1GJC5rMQ_3std3ffi6os_str8OsStringE7reserveCs41t77sgS83u_2cc, symObjAddr: 0x2770, symBinAddr: 0x100036A38, symSize: 0xC4 }
  - { offset: 0x621D2, size: 0x8, addend: 0x0, symName: __RNvMs_NtCsdze8u8oDPro_5alloc3vecINtB4_3VecNtNtNtCs27l1GJC5rMQ_3std3ffi6os_str8OsStringE8as_sliceCs41t77sgS83u_2cc, symObjAddr: 0x2834, symBinAddr: 0x100036AFC, symSize: 0x7C }
  - { offset: 0x62305, size: 0x8, addend: 0x0, symName: __RNvMs_NtCsdze8u8oDPro_5alloc3vecINtB4_3VecNtNtNtCs27l1GJC5rMQ_3std3ffi6os_str8OsStringE8is_emptyCs41t77sgS83u_2cc, symObjAddr: 0x28B0, symBinAddr: 0x100036B78, symSize: 0x20 }
  - { offset: 0x6249F, size: 0x8, addend: 0x0, symName: __RNvMs_NtCsdze8u8oDPro_5alloc3vecINtB4_3VecNtNtNtNtCs27l1GJC5rMQ_3std4sync4mpmc5waker5EntryE4pushCs41t77sgS83u_2cc, symObjAddr: 0x28D0, symBinAddr: 0x100036B98, symSize: 0x114 }
  - { offset: 0x627F0, size: 0x8, addend: 0x0, symName: __RNvMs_NtCsdze8u8oDPro_5alloc3vecINtB4_3VecNtNtNtNtCs27l1GJC5rMQ_3std4sync4mpmc5waker5EntryE6removeCs41t77sgS83u_2cc, symObjAddr: 0x29E4, symBinAddr: 0x100036CAC, symSize: 0x128 }
  - { offset: 0x62B23, size: 0x8, addend: 0x0, symName: __RNvMs_NtCsdze8u8oDPro_5alloc3vecINtB4_3VecRNtNtCs27l1GJC5rMQ_3std4path4PathE7reserveCs41t77sgS83u_2cc, symObjAddr: 0x2B0C, symBinAddr: 0x100036DD4, symSize: 0xC4 }
  - { offset: 0x62D81, size: 0x8, addend: 0x0, symName: __RNvMs_NtCsdze8u8oDPro_5alloc3vecINtB4_3VecRNtNtCs27l1GJC5rMQ_3std4path4PathE8as_sliceCs41t77sgS83u_2cc, symObjAddr: 0x2BD0, symBinAddr: 0x100036E98, symSize: 0x7C }
  - { offset: 0x62F93, size: 0x8, addend: 0x0, symName: __RNvMs_NtCsdze8u8oDPro_5alloc3vecINtB4_3VecRNtNtNtCs27l1GJC5rMQ_3std3ffi6os_str8OsStringE7reserveCs41t77sgS83u_2cc, symObjAddr: 0x2C4C, symBinAddr: 0x100036F14, symSize: 0xB8 }
  - { offset: 0x6325A, size: 0x8, addend: 0x0, symName: __RNvMs_NtCsdze8u8oDPro_5alloc3vecINtB4_3VecReE4pushCs41t77sgS83u_2cc, symObjAddr: 0x2D04, symBinAddr: 0x100036FCC, symSize: 0x100 }
  - { offset: 0x63538, size: 0x8, addend: 0x0, symName: __RNvMs_NtCsdze8u8oDPro_5alloc3vecINtB4_3VecReE8as_sliceCs41t77sgS83u_2cc, symObjAddr: 0x2E04, symBinAddr: 0x1000370CC, symSize: 0x7C }
  - { offset: 0x637F5, size: 0x8, addend: 0x0, symName: __RNvMs_NtCsdze8u8oDPro_5alloc3vecINtB4_3VecTINtNtB6_4sync3ArcNtNtNtCs27l1GJC5rMQ_3std3ffi6os_str5OsStrEBF_EE18spare_capacity_mutCs41t77sgS83u_2cc, symObjAddr: 0x2E80, symBinAddr: 0x100037148, symSize: 0xDC }
  - { offset: 0x63AA6, size: 0x8, addend: 0x0, symName: __RNvMs_NtCsdze8u8oDPro_5alloc3vecINtB4_3VecTINtNtB6_4sync3ArcNtNtNtCs27l1GJC5rMQ_3std3ffi6os_str5OsStrEBF_EE8as_sliceCs41t77sgS83u_2cc, symObjAddr: 0x2F5C, symBinAddr: 0x100037224, symSize: 0x7C }
  - { offset: 0x63D63, size: 0x8, addend: 0x0, symName: __RNvMs_NtCsdze8u8oDPro_5alloc3vecINtB4_3VecTINtNtB6_4sync3ArceEINtNtCs9f3LFPSIp77_4core6option6OptionBF_EEE18spare_capacity_mutCs41t77sgS83u_2cc, symObjAddr: 0x2FD8, symBinAddr: 0x1000372A0, symSize: 0xDC }
  - { offset: 0x64014, size: 0x8, addend: 0x0, symName: __RNvMs_NtCsdze8u8oDPro_5alloc3vecINtB4_3VecTINtNtB6_4sync3ArceEINtNtCs9f3LFPSIp77_4core6option6OptionBF_EEE8as_sliceCs41t77sgS83u_2cc, symObjAddr: 0x30B4, symBinAddr: 0x10003737C, symSize: 0x7C }
  - { offset: 0x64269, size: 0x8, addend: 0x0, symName: __RNvMs_NtCsdze8u8oDPro_5alloc3vecINtB4_3VecTNtNtCs27l1GJC5rMQ_3std7process7CommandINtNtB6_6borrow3CowNtNtBJ_4path4PathENtNvMs3_Cs41t77sgS83u_2ccNtB20_5Build15compile_objects10KillOnDropNtNtNtB20_8parallel9job_token8JobTokenEE4pushB20_, symObjAddr: 0x3130, symBinAddr: 0x1000373F8, symSize: 0x12C }
  - { offset: 0x64484, size: 0x8, addend: 0x0, symName: __RNvMs_NtCsdze8u8oDPro_5alloc3vecINtB4_3VecTNtNtCs27l1GJC5rMQ_3std7process7CommandINtNtB6_6borrow3CowNtNtBJ_4path4PathENtNvMs3_Cs41t77sgS83u_2ccNtB20_5Build15compile_objects10KillOnDropNtNtNtB20_8parallel9job_token8JobTokenEE8is_emptyB20_, symObjAddr: 0x325C, symBinAddr: 0x100037524, symSize: 0x20 }
  - { offset: 0x64686, size: 0x8, addend: 0x0, symName: __RNvMs_NtCsdze8u8oDPro_5alloc3vecINtB4_3VecTNtNtNtCs27l1GJC5rMQ_3std3ffi6os_str8OsStringBF_EE18spare_capacity_mutCs41t77sgS83u_2cc, symObjAddr: 0x327C, symBinAddr: 0x100037544, symSize: 0xE0 }
  - { offset: 0x6496C, size: 0x8, addend: 0x0, symName: __RNvMs_NtCsdze8u8oDPro_5alloc3vecINtB4_3VecTNtNtNtCs27l1GJC5rMQ_3std3ffi6os_str8OsStringBF_EE4pushCs41t77sgS83u_2cc, symObjAddr: 0x335C, symBinAddr: 0x100037624, symSize: 0x124 }
  - { offset: 0x64C74, size: 0x8, addend: 0x0, symName: __RNvMs_NtCsdze8u8oDPro_5alloc3vecINtB4_3VecTNtNtNtCs27l1GJC5rMQ_3std3ffi6os_str8OsStringBF_EE8as_sliceCs41t77sgS83u_2cc, symObjAddr: 0x3480, symBinAddr: 0x100037748, symSize: 0x7C }
  - { offset: 0x64DA7, size: 0x8, addend: 0x0, symName: __RNvMs_NtCsdze8u8oDPro_5alloc3vecINtB4_3VecTNtNtNtCs27l1GJC5rMQ_3std3ffi6os_str8OsStringBF_EE8is_emptyCs41t77sgS83u_2cc, symObjAddr: 0x34FC, symBinAddr: 0x1000377C4, symSize: 0x20 }
  - { offset: 0x64F12, size: 0x8, addend: 0x0, symName: __RNvMs_NtCsdze8u8oDPro_5alloc3vecINtB4_3VechE12as_mut_sliceCs41t77sgS83u_2cc, symObjAddr: 0x351C, symBinAddr: 0x1000377E4, symSize: 0x78 }
  - { offset: 0x6525D, size: 0x8, addend: 0x0, symName: __RNvMs_NtCsdze8u8oDPro_5alloc3vecINtB4_3VechE16into_boxed_sliceCs41t77sgS83u_2cc, symObjAddr: 0x3594, symBinAddr: 0x10003785C, symSize: 0x1B8 }
  - { offset: 0x65518, size: 0x8, addend: 0x0, symName: __RNvMs_NtCsdze8u8oDPro_5alloc3vecINtB4_3VechE3lenCs41t77sgS83u_2cc, symObjAddr: 0x374C, symBinAddr: 0x100037A14, symSize: 0x18 }
  - { offset: 0x6566C, size: 0x8, addend: 0x0, symName: __RNvMs_NtCsdze8u8oDPro_5alloc3vecINtB4_3VechE5clearCs41t77sgS83u_2cc, symObjAddr: 0x3764, symBinAddr: 0x100037A2C, symSize: 0x8C }
  - { offset: 0x658FD, size: 0x8, addend: 0x0, symName: __RNvMs_NtCsdze8u8oDPro_5alloc3vecINtB4_3VechE8as_sliceCs41t77sgS83u_2cc, symObjAddr: 0x37F0, symBinAddr: 0x100037AB8, symSize: 0x78 }
  - { offset: 0x65B05, size: 0x8, addend: 0x0, symName: __RNvMs_NtCsdze8u8oDPro_5alloc3vecINtB4_3VechE8truncateCs41t77sgS83u_2cc, symObjAddr: 0x3868, symBinAddr: 0x100037B30, symSize: 0x80 }
  - { offset: 0x6966C, size: 0x8, addend: 0x0, symName: __RINvMNtCsdze8u8oDPro_5alloc5sliceSRe8into_vecNtNtB5_5alloc6GlobalECs41t77sgS83u_2cc, symObjAddr: 0x0, symBinAddr: 0x10003A0EC, symSize: 0x28 }
  - { offset: 0x69701, size: 0x8, addend: 0x0, symName: __RNvXNvNtNtCs27l1GJC5rMQ_3std2io5Write9write_fmtINtB2_7AdapterINtNtNtB6_8buffered9bufwriter9BufWriterNtNtB6_5stdio6StdoutEENtNtCs9f3LFPSIp77_4core3fmt5Write9write_strCs41t77sgS83u_2cc, symObjAddr: 0x3764, symBinAddr: 0x10003D850, symSize: 0xB8 }
  - { offset: 0x6975D, size: 0x8, addend: 0x0, symName: __RNvXNvNtNtCs27l1GJC5rMQ_3std2io5Write9write_fmtINtB2_7AdapterNtNtB8_2fs4FileENtNtCs9f3LFPSIp77_4core3fmt5Write9write_strCs41t77sgS83u_2cc, symObjAddr: 0x381C, symBinAddr: 0x10003D908, symSize: 0xB8 }
  - { offset: 0x69E2F, size: 0x8, addend: 0x0, symName: __RINvNtNtCs27l1GJC5rMQ_3std4sync4mpmc7channelINtNtCs9f3LFPSIp77_4core6result6ResultNtCs22zHMr2Jt3g_9jobserver8AcquiredNtNtNtB6_2io5error5ErrorEECs41t77sgS83u_2cc, symObjAddr: 0x508, symBinAddr: 0x10003A5F4, symSize: 0x250 }
  - { offset: 0x6A30A, size: 0x8, addend: 0x0, symName: __RNCNvMs2_NtNtCs27l1GJC5rMQ_3std4sync4mpmcINtB7_6SenderINtNtCs9f3LFPSIp77_4core6result6ResultNtCs22zHMr2Jt3g_9jobserver8AcquiredNtNtNtBb_2io5error5ErrorEE4send0Cs41t77sgS83u_2cc, symObjAddr: 0x1468, symBinAddr: 0x10003B554, symSize: 0xC0 }
  - { offset: 0x6A37E, size: 0x8, addend: 0x0, symName: __RNCNvXs4_NtNtCs27l1GJC5rMQ_3std4sync4mpmcINtB7_6SenderINtNtCs9f3LFPSIp77_4core6result6ResultNtCs22zHMr2Jt3g_9jobserver8AcquiredNtNtNtBb_2io5error5ErrorEENtNtNtBV_3ops4drop4Drop4drop0Cs41t77sgS83u_2cc, symObjAddr: 0x1684, symBinAddr: 0x10003B770, symSize: 0x24 }
  - { offset: 0x6A3C0, size: 0x8, addend: 0x0, symName: __RNCNvXs4_NtNtCs27l1GJC5rMQ_3std4sync4mpmcINtB7_6SenderINtNtCs9f3LFPSIp77_4core6result6ResultNtCs22zHMr2Jt3g_9jobserver8AcquiredNtNtNtBb_2io5error5ErrorEENtNtNtBV_3ops4drop4Drop4drops0_0Cs41t77sgS83u_2cc, symObjAddr: 0x16A8, symBinAddr: 0x10003B794, symSize: 0x24 }
  - { offset: 0x6A402, size: 0x8, addend: 0x0, symName: __RNCNvXs4_NtNtCs27l1GJC5rMQ_3std4sync4mpmcINtB7_6SenderINtNtCs9f3LFPSIp77_4core6result6ResultNtCs22zHMr2Jt3g_9jobserver8AcquiredNtNtNtBb_2io5error5ErrorEENtNtNtBV_3ops4drop4Drop4drops_0Cs41t77sgS83u_2cc, symObjAddr: 0x16CC, symBinAddr: 0x10003B7B8, symSize: 0x24 }
  - { offset: 0x6A45A, size: 0x8, addend: 0x0, symName: __RNvXs4_NtNtCs27l1GJC5rMQ_3std4sync4mpmcINtB5_6SenderINtNtCs9f3LFPSIp77_4core6result6ResultNtCs22zHMr2Jt3g_9jobserver8AcquiredNtNtNtB9_2io5error5ErrorEENtNtNtBT_3ops4drop4Drop4dropCs41t77sgS83u_2cc, symObjAddr: 0x42C0, symBinAddr: 0x10003E3AC, symSize: 0x90 }
  - { offset: 0x6A4F2, size: 0x8, addend: 0x0, symName: __RNCNvXsi_NtNtCs27l1GJC5rMQ_3std4sync4mpmcINtB7_8ReceiverINtNtCs9f3LFPSIp77_4core6result6ResultNtCs22zHMr2Jt3g_9jobserver8AcquiredNtNtNtBb_2io5error5ErrorEENtNtNtBX_3ops4drop4Drop4drop0Cs41t77sgS83u_2cc, symObjAddr: 0x16F0, symBinAddr: 0x10003B7DC, symSize: 0x24 }
  - { offset: 0x6A534, size: 0x8, addend: 0x0, symName: __RNCNvXsi_NtNtCs27l1GJC5rMQ_3std4sync4mpmcINtB7_8ReceiverINtNtCs9f3LFPSIp77_4core6result6ResultNtCs22zHMr2Jt3g_9jobserver8AcquiredNtNtNtBb_2io5error5ErrorEENtNtNtBX_3ops4drop4Drop4drops0_0Cs41t77sgS83u_2cc, symObjAddr: 0x1714, symBinAddr: 0x10003B800, symSize: 0x24 }
  - { offset: 0x6A576, size: 0x8, addend: 0x0, symName: __RNCNvXsi_NtNtCs27l1GJC5rMQ_3std4sync4mpmcINtB7_8ReceiverINtNtCs9f3LFPSIp77_4core6result6ResultNtCs22zHMr2Jt3g_9jobserver8AcquiredNtNtNtBb_2io5error5ErrorEENtNtNtBX_3ops4drop4Drop4drops_0Cs41t77sgS83u_2cc, symObjAddr: 0x1738, symBinAddr: 0x10003B824, symSize: 0x24 }
  - { offset: 0x6A5CE, size: 0x8, addend: 0x0, symName: __RNvXsi_NtNtCs27l1GJC5rMQ_3std4sync4mpmcINtB5_8ReceiverINtNtCs9f3LFPSIp77_4core6result6ResultNtCs22zHMr2Jt3g_9jobserver8AcquiredNtNtNtB9_2io5error5ErrorEENtNtNtBV_3ops4drop4Drop4dropCs41t77sgS83u_2cc, symObjAddr: 0x4FD0, symBinAddr: 0x10003F0BC, symSize: 0x90 }
  - { offset: 0x6AFFC, size: 0x8, addend: 0x0, symName: __RINvNtNtCs27l1GJC5rMQ_3std3sys9backtrace26___rust_end_short_backtraceNCINvNtB6_9panicking11begin_panicReE0zECs41t77sgS83u_2cc, symObjAddr: 0x4F4, symBinAddr: 0x10003A5E0, symSize: 0x14 }
  - { offset: 0x6B3E4, size: 0x8, addend: 0x0, symName: __RINvXs16_NtCs27l1GJC5rMQ_3std4pathNtB7_4PathNtNtCs9f3LFPSIp77_4core4hash4Hash4hashNtNtNtB9_4hash6random13DefaultHasherECs41t77sgS83u_2cc, symObjAddr: 0x9C0, symBinAddr: 0x10003AAAC, symSize: 0x424 }
  - { offset: 0x6B9B7, size: 0x8, addend: 0x0, symName: __RNvXsG_NtCs27l1GJC5rMQ_3std4pathNtB5_7PathBufNtNtNtCs9f3LFPSIp77_4core3ops5deref5Deref5derefCs41t77sgS83u_2cc, symObjAddr: 0x4708, symBinAddr: 0x10003E7F4, symSize: 0x34 }
  - { offset: 0x6BA63, size: 0x8, addend: 0x0, symName: __RNvXs11_NtCs27l1GJC5rMQ_3std4pathNtB6_4PathINtNtCs9f3LFPSIp77_4core7convert5AsRefNtNtNtB8_3ffi6os_str5OsStrE6as_refCs41t77sgS83u_2cc, symObjAddr: 0x3900, symBinAddr: 0x10003D9EC, symSize: 0x18 }
  - { offset: 0x6BA97, size: 0x8, addend: 0x0, symName: __RNvXs15_NtCs27l1GJC5rMQ_3std4pathNtB6_4PathNtNtCs9f3LFPSIp77_4core3cmp9PartialEq2eqCs41t77sgS83u_2cc, symObjAddr: 0x3918, symBinAddr: 0x10003DA04, symSize: 0x60 }
  - { offset: 0x6BB2B, size: 0x8, addend: 0x0, symName: __RNvXs1H_NtCs27l1GJC5rMQ_3std4pathNtB6_9ComponentNtNtCs9f3LFPSIp77_4core3cmp9PartialEq2eqCs41t77sgS83u_2cc, symObjAddr: 0x39C8, symBinAddr: 0x10003DAB4, symSize: 0x14C }
  - { offset: 0x6BC6A, size: 0x8, addend: 0x0, symName: __RNvXs1e_NtCs27l1GJC5rMQ_3std4patheINtNtCs9f3LFPSIp77_4core7convert5AsRefNtB6_4PathE6as_refCs41t77sgS83u_2cc, symObjAddr: 0x3CBC, symBinAddr: 0x10003DDA8, symSize: 0x30 }
  - { offset: 0x6BD34, size: 0x8, addend: 0x0, symName: __RNvXs1f_NtCs27l1GJC5rMQ_3std4pathNtNtCsdze8u8oDPro_5alloc6string6StringINtNtCs9f3LFPSIp77_4core7convert5AsRefNtB6_4PathE6as_refCs41t77sgS83u_2cc, symObjAddr: 0x3CEC, symBinAddr: 0x10003DDD8, symSize: 0x24 }
  - { offset: 0x6BD86, size: 0x8, addend: 0x0, symName: __RNvXs1g_NtCs27l1GJC5rMQ_3std4pathNtB6_7PathBufINtNtCs9f3LFPSIp77_4core7convert5AsRefNtB6_4PathE6as_refCs41t77sgS83u_2cc, symObjAddr: 0x3D10, symBinAddr: 0x10003DDFC, symSize: 0x34 }
  - { offset: 0x6BE32, size: 0x8, addend: 0x0, symName: __RNvXs1s_NtCs27l1GJC5rMQ_3std4pathNtB6_6PrefixNtNtCs9f3LFPSIp77_4core3cmp9PartialEq2eqCs41t77sgS83u_2cc, symObjAddr: 0x3D44, symBinAddr: 0x10003DE30, symSize: 0x2D0 }
  - { offset: 0x6C1DC, size: 0x8, addend: 0x0, symName: __RNvXsz_NtCs27l1GJC5rMQ_3std4pathNtB5_7PathBufINtNtCs9f3LFPSIp77_4core7convert4FromNtNtNtB7_3ffi6os_str8OsStringE4fromCs41t77sgS83u_2cc, symObjAddr: 0x5BD8, symBinAddr: 0x10003FCC4, symSize: 0x18 }
  - { offset: 0x6C210, size: 0x8, addend: 0x0, symName: __RNvXsB_NtCs27l1GJC5rMQ_3std4pathNtB5_7PathBufINtNtCs9f3LFPSIp77_4core7convert4FromNtNtCsdze8u8oDPro_5alloc6string6StringE4fromCs41t77sgS83u_2cc, symObjAddr: 0x4638, symBinAddr: 0x10003E724, symSize: 0x50 }
  - { offset: 0x6C2BB, size: 0x8, addend: 0x0, symName: __RNvXsI_NtCs27l1GJC5rMQ_3std4pathNtB5_7PathBufINtNtCs9f3LFPSIp77_4core6borrow6BorrowNtB5_4PathE6borrowCs41t77sgS83u_2cc, symObjAddr: 0x478C, symBinAddr: 0x10003E878, symSize: 0x34 }
  - { offset: 0x6C367, size: 0x8, addend: 0x0, symName: __RNvXsS_NtCs27l1GJC5rMQ_3std4pathNtB5_4PathNtNtCsdze8u8oDPro_5alloc6borrow7ToOwned8to_ownedCs41t77sgS83u_2cc, symObjAddr: 0x47F0, symBinAddr: 0x10003E8DC, symSize: 0x28 }
  - { offset: 0x6C39B, size: 0x8, addend: 0x0, symName: __RNvXsY_NtCs27l1GJC5rMQ_3std4pathNtB5_7PathBufINtNtCs9f3LFPSIp77_4core7convert5AsRefNtNtNtB7_3ffi6os_str5OsStrE6as_refCs41t77sgS83u_2cc, symObjAddr: 0x498C, symBinAddr: 0x10003EA78, symSize: 0x2C }
  - { offset: 0x6C52B, size: 0x8, addend: 0x0, symName: __RNvXsl_NtCs27l1GJC5rMQ_3std4pathNtB5_10ComponentsNtNtCs9f3LFPSIp77_4core3cmp9PartialEq2eqCs41t77sgS83u_2cc, symObjAddr: 0x5190, symBinAddr: 0x10003F27C, symSize: 0x4AC }
  - { offset: 0x6C9F2, size: 0x8, addend: 0x0, symName: __RNvXss_NtCs27l1GJC5rMQ_3std4pathNtB5_7PathBufNtNtCs9f3LFPSIp77_4core5clone5Clone10clone_fromCs41t77sgS83u_2cc, symObjAddr: 0x58CC, symBinAddr: 0x10003F9B8, symSize: 0x4C }
  - { offset: 0x6CA77, size: 0x8, addend: 0x0, symName: __RNvXss_NtCs27l1GJC5rMQ_3std4pathNtB5_7PathBufNtNtCs9f3LFPSIp77_4core5clone5Clone5cloneCs41t77sgS83u_2cc, symObjAddr: 0x5918, symBinAddr: 0x10003FA04, symSize: 0x70 }
  - { offset: 0x6CAE7, size: 0x8, addend: 0x0, symName: __RNvXsy_NtCs27l1GJC5rMQ_3std4pathNtB5_7PathBufINtNtCs9f3LFPSIp77_4core7convert4FromRNtB5_4PathE4fromCs41t77sgS83u_2cc, symObjAddr: 0x5AAC, symBinAddr: 0x10003FB98, symSize: 0x64 }
  - { offset: 0x6CB5A, size: 0x8, addend: 0x0, symName: __RNvXsy_NtCs27l1GJC5rMQ_3std4pathNtB5_7PathBufINtNtCs9f3LFPSIp77_4core7convert4FromRNtNtNtB7_3ffi6os_str5OsStrE4fromCs41t77sgS83u_2cc, symObjAddr: 0x5B10, symBinAddr: 0x10003FBFC, symSize: 0x64 }
  - { offset: 0x6CBCD, size: 0x8, addend: 0x0, symName: __RNvXsy_NtCs27l1GJC5rMQ_3std4pathNtB5_7PathBufINtNtCs9f3LFPSIp77_4core7convert4FromReE4fromCs41t77sgS83u_2cc, symObjAddr: 0x5B74, symBinAddr: 0x10003FC60, symSize: 0x64 }
  - { offset: 0x6CEF6, size: 0x8, addend: 0x0, symName: __RNvXsU_NtNtCs27l1GJC5rMQ_3std3ffi6os_strNtNtCsdze8u8oDPro_5alloc6string6StringINtNtCs9f3LFPSIp77_4core7convert5AsRefNtB5_5OsStrE6as_refCs41t77sgS83u_2cc, symObjAddr: 0x4880, symBinAddr: 0x10003E96C, symSize: 0xA0 }
  - { offset: 0x6F1A4, size: 0x8, addend: 0x0, symName: __RNvXsP_NtCs9f3LFPSIp77_4core3fmtRNtNtCs27l1GJC5rMQ_3std4path7PathBufNtB5_5Debug3fmtCs41t77sgS83u_2cc, symObjAddr: 0x47C0, symBinAddr: 0x10003E8AC, symSize: 0x30 }
  - { offset: 0x6F1FA, size: 0x8, addend: 0x0, symName: __RNvXs_NvNtNtCs9f3LFPSIp77_4core3fmt5Write9write_fmtQINtNvNtNtCs27l1GJC5rMQ_3std2io5Write9write_fmt7AdapterINtNtNtBV_8buffered9bufwriter9BufWriterNtNtBV_5stdio6StdoutEENtB4_12SpecWriteFmt14spec_write_fmtCs41t77sgS83u_2cc, symObjAddr: 0x4AE4, symBinAddr: 0x10003EBD0, symSize: 0x190 }
  - { offset: 0x6F2BE, size: 0x8, addend: 0x0, symName: __RNvXs_NvNtNtCs9f3LFPSIp77_4core3fmt5Write9write_fmtQINtNvNtNtCs27l1GJC5rMQ_3std2io5Write9write_fmt7AdapterNtNtBX_2fs4FileENtB4_12SpecWriteFmt14spec_write_fmtCs41t77sgS83u_2cc, symObjAddr: 0x4C74, symBinAddr: 0x10003ED60, symSize: 0x190 }
  - { offset: 0x6F382, size: 0x8, addend: 0x0, symName: __RNvXs_NvNtNtCs9f3LFPSIp77_4core3fmt5Write9write_fmtQNtNtCsdze8u8oDPro_5alloc6string6StringNtB4_12SpecWriteFmt14spec_write_fmtCs41t77sgS83u_2cc, symObjAddr: 0x4E04, symBinAddr: 0x10003EEF0, symSize: 0x190 }
  - { offset: 0x6F448, size: 0x8, addend: 0x0, symName: __RNvYINtNvNtNtCs27l1GJC5rMQ_3std2io5Write9write_fmt7AdapterINtNtNtB9_8buffered9bufwriter9BufWriterNtNtB9_5stdio6StdoutEENtNtCs9f3LFPSIp77_4core3fmt5Write10write_charCs41t77sgS83u_2cc, symObjAddr: 0x5C74, symBinAddr: 0x10003FD60, symSize: 0x70 }
  - { offset: 0x6F4B0, size: 0x8, addend: 0x0, symName: __RNvYINtNvNtNtCs27l1GJC5rMQ_3std2io5Write9write_fmt7AdapterINtNtNtB9_8buffered9bufwriter9BufWriterNtNtB9_5stdio6StdoutEENtNtCs9f3LFPSIp77_4core3fmt5Write9write_fmtCs41t77sgS83u_2cc, symObjAddr: 0x5CE4, symBinAddr: 0x10003FDD0, symSize: 0x24 }
  - { offset: 0x6F4F4, size: 0x8, addend: 0x0, symName: __RNvYINtNvNtNtCs27l1GJC5rMQ_3std2io5Write9write_fmt7AdapterNtNtBb_2fs4FileENtNtCs9f3LFPSIp77_4core3fmt5Write10write_charCs41t77sgS83u_2cc, symObjAddr: 0x5D08, symBinAddr: 0x10003FDF4, symSize: 0x70 }
  - { offset: 0x6F55C, size: 0x8, addend: 0x0, symName: __RNvYINtNvNtNtCs27l1GJC5rMQ_3std2io5Write9write_fmt7AdapterNtNtBb_2fs4FileENtNtCs9f3LFPSIp77_4core3fmt5Write9write_fmtCs41t77sgS83u_2cc, symObjAddr: 0x5D78, symBinAddr: 0x10003FE64, symSize: 0x24 }
  - { offset: 0x6F5A0, size: 0x8, addend: 0x0, symName: __RNvYNtNtCsdze8u8oDPro_5alloc6string6StringNtNtCs9f3LFPSIp77_4core3fmt5Write9write_fmtCs41t77sgS83u_2cc, symObjAddr: 0x5DB4, symBinAddr: 0x10003FEA0, symSize: 0x24 }
  - { offset: 0x6F7FF, size: 0x8, addend: 0x0, symName: __RNvXs7_NtNtCs9f3LFPSIp77_4core3cmp5implsRNtNtCs27l1GJC5rMQ_3std4path4PathNtB7_9PartialEq2eqCs41t77sgS83u_2cc, symObjAddr: 0x45C4, symBinAddr: 0x10003E6B0, symSize: 0x44 }
  - { offset: 0x70A17, size: 0x8, addend: 0x0, symName: __RNvXs_NtNtCs9f3LFPSIp77_4core5slice4iterRSRNtNtCs27l1GJC5rMQ_3std4path4PathNtNtNtNtB8_4iter6traits7collect12IntoIterator9into_iterCs41t77sgS83u_2cc, symObjAddr: 0x4A1C, symBinAddr: 0x10003EB08, symSize: 0x50 }
  - { offset: 0x70BBB, size: 0x8, addend: 0x0, symName: __RNvMNtCs9f3LFPSIp77_4core5sliceSNtNtCsdze8u8oDPro_5alloc6string6String4iterCs41t77sgS83u_2cc, symObjAddr: 0x17A0, symBinAddr: 0x10003B88C, symSize: 0x28 }
  - { offset: 0x70C19, size: 0x8, addend: 0x0, symName: __RNvMNtCs9f3LFPSIp77_4core5sliceSRNtNtCs27l1GJC5rMQ_3std4path4Path18split_at_uncheckedCs41t77sgS83u_2cc, symObjAddr: 0x17C8, symBinAddr: 0x10003B8B4, symSize: 0xE4 }
  - { offset: 0x70D79, size: 0x8, addend: 0x0, symName: __RNvMNtCs9f3LFPSIp77_4core5sliceSRNtNtCs27l1GJC5rMQ_3std4path4Path6chunksCs41t77sgS83u_2cc, symObjAddr: 0x18AC, symBinAddr: 0x10003B998, symSize: 0xB0 }
  - { offset: 0x715FA, size: 0x8, addend: 0x0, symName: __RNvXs2_NtNtNtCs9f3LFPSIp77_4core3ops8function5implsQNvYINtNtCsdze8u8oDPro_5alloc4sync3ArcNtNtCs27l1GJC5rMQ_3std4path4PathENtNtB9_5deref5Deref5derefINtB7_6FnOnceTRBR_EE9call_onceCs41t77sgS83u_2cc, symObjAddr: 0x40A0, symBinAddr: 0x10003E18C, symSize: 0x2C }
  - { offset: 0x71649, size: 0x8, addend: 0x0, symName: __RNvXs2_NtNtNtCs9f3LFPSIp77_4core3ops8function5implsQNvYINtNtCsdze8u8oDPro_5alloc4sync3ArcNtNtNtCs27l1GJC5rMQ_3std3ffi6os_str5OsStrENtNtB9_5deref5Deref5derefINtB7_6FnOnceTRBR_EE9call_onceCs41t77sgS83u_2cc, symObjAddr: 0x40CC, symBinAddr: 0x10003E1B8, symSize: 0x2C }
  - { offset: 0x71698, size: 0x8, addend: 0x0, symName: __RNvXs2_NtNtNtCs9f3LFPSIp77_4core3ops8function5implsQNvYeNtNtCsdze8u8oDPro_5alloc6string8ToString9to_stringINtB7_6FnOnceTReEE9call_onceCs41t77sgS83u_2cc, symObjAddr: 0x40F8, symBinAddr: 0x10003E1E4, symSize: 0x34 }
  - { offset: 0x717CB, size: 0x8, addend: 0x0, symName: __RINvYINtNtNtCs9f3LFPSIp77_4core3str4iter5SplitNtB8_12IsWhitespaceENtNtNtNtBa_4iter6traits8iterator8Iterator4findQNtB8_10IsNotEmptyECs41t77sgS83u_2cc, symObjAddr: 0xE20, symBinAddr: 0x10003AF0C, symSize: 0x90 }
  - { offset: 0x71846, size: 0x8, addend: 0x0, symName: __RINvYINtNtNtCs9f3LFPSIp77_4core3str4iter5SplitNtB8_12IsWhitespaceENtNtNtNtBa_4iter6traits8iterator8Iterator8try_folduNCINvNvB12_4find5checkReQNtB8_10IsNotEmptyE0INtNtNtBa_3ops12control_flow11ControlFlowB2d_EECs41t77sgS83u_2cc, symObjAddr: 0xEB0, symBinAddr: 0x10003AF9C, symSize: 0x198 }
  - { offset: 0x71903, size: 0x8, addend: 0x0, symName: __RINvYINtNtNtCs9f3LFPSIp77_4core3str4iter5SplitcENtNtNtNtBa_4iter6traits8iterator8Iterator3mapmNCNCNvMs3_Cs41t77sgS83u_2ccNtB1E_5Build23apple_deployment_targets0_00EB1E_, symObjAddr: 0x1048, symBinAddr: 0x10003B134, symSize: 0x30 }
  - { offset: 0x71982, size: 0x8, addend: 0x0, symName: __RINvYINtNtNtNtCs9f3LFPSIp77_4core4iter8adapters6filter6FilterINtNtNtBc_5slice4iter4IterNtNtNtCs27l1GJC5rMQ_3std3ffi6os_str8OsStringENCNvMNtCs41t77sgS83u_2cc4toolNtB2b_4Tool10to_command0ENtNtNtBa_6traits8iterator8Iterator7collectINtNtCsdze8u8oDPro_5alloc3vec3VecRB1n_EEB2d_, symObjAddr: 0x1078, symBinAddr: 0x10003B164, symSize: 0x14 }
  - { offset: 0x719C3, size: 0x8, addend: 0x0, symName: __RINvYNtNtCs27l1GJC5rMQ_3std4path10ComponentsNtNtNtNtCs9f3LFPSIp77_4core4iter6traits8iterator8Iterator4foldjNCNvYB3_BG_5count0ECs41t77sgS83u_2cc, symObjAddr: 0x11FC, symBinAddr: 0x10003B2E8, symSize: 0x120 }
  - { offset: 0x71A5A, size: 0x8, addend: 0x0, symName: __RINvYNtNtNtCs9f3LFPSIp77_4core3str4iter15SplitWhitespaceNtNtNtNtB9_4iter6traits8iterator8Iterator3mapNtNtCsdze8u8oDPro_5alloc6string6StringNCNvMs3_Cs41t77sgS83u_2ccNtB2l_5Build8env_tool0EB2l_, symObjAddr: 0x131C, symBinAddr: 0x10003B408, symSize: 0x30 }
  - { offset: 0x71AD9, size: 0x8, addend: 0x0, symName: __RINvYNtNtNtCs9f3LFPSIp77_4core3str4iter15SplitWhitespaceNtNtNtNtB9_4iter6traits8iterator8Iterator3mapNtNtCsdze8u8oDPro_5alloc6string6StringNCNvMs3_Cs41t77sgS83u_2ccNtB2l_5Build8env_tools_0EB2l_, symObjAddr: 0x134C, symBinAddr: 0x10003B438, symSize: 0x30 }
  - { offset: 0x71B58, size: 0x8, addend: 0x0, symName: __RINvYNtNtNtCs9f3LFPSIp77_4core3str4iter20SplitAsciiWhitespaceNtNtNtNtB9_4iter6traits8iterator8Iterator3mapNtNtCsdze8u8oDPro_5alloc6string6StringNvYeNtB1I_8ToString9to_stringECs41t77sgS83u_2cc, symObjAddr: 0x137C, symBinAddr: 0x10003B468, symSize: 0x20 }
  - { offset: 0x71C9A, size: 0x8, addend: 0x0, symName: __RNvYNtNtCs27l1GJC5rMQ_3std4path10ComponentsNtNtNtNtCs9f3LFPSIp77_4core4iter6traits8iterator8Iterator5countCs41t77sgS83u_2cc, symObjAddr: 0x5D9C, symBinAddr: 0x10003FE88, symSize: 0x18 }
  - { offset: 0x71CD0, size: 0x8, addend: 0x0, symName: __RNvYNtNtNtCs9f3LFPSIp77_4core3str4iter5CharsNtNtNtNtB8_4iter6traits8iterator8Iterator3nthCs41t77sgS83u_2cc, symObjAddr: 0x5DD8, symBinAddr: 0x10003FEC4, symSize: 0x84 }
  - { offset: 0x71E50, size: 0x8, addend: 0x0, symName: __RINvYNtNtCs27l1GJC5rMQ_3std4path10ComponentsNtNtNtNtCs9f3LFPSIp77_4core4iter6traits12double_ended19DoubleEndedIterator9try_rfolduNCINvNvNtNtBK_8iterator8Iterator12try_for_each4callNtB5_9ComponentINtNtNtBO_3ops12control_flow11ControlFlowIB38_uNtNtBO_3cmp8OrderingEENCINvNvB2c_12iter_compare7compareINtNtNtBM_8adapters3rev3RevB3_EB2S_uNCINvNvB2a_5eq_by7compareB2S_B2S_NCINvYB4L_B2a_2eqB4L_E0E0E0E0B37_ECs41t77sgS83u_2cc, symObjAddr: 0x108C, symBinAddr: 0x10003B178, symSize: 0x170 }
  - { offset: 0x71F37, size: 0x8, addend: 0x0, symName: __RNvXs_NtNtNtCs9f3LFPSIp77_4core4iter6traits7collectINtNtNtB8_8adapters6filter6FilterINtNtNtBa_5slice4iter4IterNtNtNtCs27l1GJC5rMQ_3std3ffi6os_str8OsStringENCNvMNtCs41t77sgS83u_2cc4toolNtB2y_4Tool10to_command0ENtB4_12IntoIterator9into_iterB2A_, symObjAddr: 0x4A6C, symBinAddr: 0x10003EB58, symSize: 0x18 }
  - { offset: 0x71F6E, size: 0x8, addend: 0x0, symName: __RNvXs_NtNtNtCs9f3LFPSIp77_4core4iter6traits7collectINtNtNtBa_3str4iter5SplitAcj2_ENtB4_12IntoIterator9into_iterCs41t77sgS83u_2cc, symObjAddr: 0x4A84, symBinAddr: 0x10003EB70, symSize: 0x30 }
  - { offset: 0x71FA6, size: 0x8, addend: 0x0, symName: __RNvXs_NtNtNtCs9f3LFPSIp77_4core4iter6traits7collectINtNtNtBa_3str4iter5SplitReENtB4_12IntoIterator9into_iterCs41t77sgS83u_2cc, symObjAddr: 0x4AB4, symBinAddr: 0x10003EBA0, symSize: 0x30 }
  - { offset: 0x72422, size: 0x8, addend: 0x0, symName: __RNCINvNvXs1_NtNtNtCs9f3LFPSIp77_4core4iter8adapters6filterINtBa_6FilterppENtNtNtBe_6traits8iterator8Iterator5count8to_usizeRINtNtCsdze8u8oDPro_5alloc4sync3ArcNtNtCs27l1GJC5rMQ_3std4path4PathENCNvMs3_Cs41t77sgS83u_2ccNtB3b_5Build15cuda_file_count0E0B3b_, symObjAddr: 0x140C, symBinAddr: 0x10003B4F8, symSize: 0x5C }
  - { offset: 0x72484, size: 0x8, addend: 0x0, symName: __RNvXs1_NtNtNtCs9f3LFPSIp77_4core4iter8adapters6filterINtB5_6FilterINtNtNtBb_5slice4iter4IterINtNtCsdze8u8oDPro_5alloc4sync3ArcNtNtCs27l1GJC5rMQ_3std4path4PathEENCNvMs3_Cs41t77sgS83u_2ccNtB2G_5Build15cuda_file_count0ENtNtNtB9_6traits8iterator8Iterator5countB2G_, symObjAddr: 0x3BC8, symBinAddr: 0x10003DCB4, symSize: 0x50 }
  - { offset: 0x72512, size: 0x8, addend: 0x0, symName: __RNvXs1_NtNtNtCs9f3LFPSIp77_4core4iter8adapters6filterINtB5_6FilterINtNtNtBb_5slice4iter4IterNtNtNtCs27l1GJC5rMQ_3std3ffi6os_str8OsStringENCNvMNtCs41t77sgS83u_2cc4toolNtB2g_4Tool10to_command0ENtNtNtB9_6traits8iterator8Iterator4nextB2i_, symObjAddr: 0x3C18, symBinAddr: 0x10003DD04, symSize: 0x2C }
  - { offset: 0x72550, size: 0x8, addend: 0x0, symName: __RNvXs1_NtNtNtCs9f3LFPSIp77_4core4iter8adapters6filterINtB5_6FilterINtNtNtBb_5slice4iter4IterNtNtNtCs27l1GJC5rMQ_3std3ffi6os_str8OsStringENCNvMNtCs41t77sgS83u_2cc4toolNtB2g_4Tool10to_command0ENtNtNtB9_6traits8iterator8Iterator9size_hintB2i_, symObjAddr: 0x3C44, symBinAddr: 0x10003DD30, symSize: 0x4C }
  - { offset: 0x725AB, size: 0x8, addend: 0x0, symName: __RNvXs1_NtNtNtCs9f3LFPSIp77_4core4iter8adapters6filterINtB5_6FilterINtNtNtBb_5slice4iter5SplithNtNtBb_3str17IsAsciiWhitespaceENtB1w_15BytesIsNotEmptyENtNtNtB9_6traits8iterator8Iterator4nextCs41t77sgS83u_2cc, symObjAddr: 0x3C90, symBinAddr: 0x10003DD7C, symSize: 0x2C }
  - { offset: 0x7274A, size: 0x8, addend: 0x0, symName: __RINvXs3_NtNtCs9f3LFPSIp77_4core4hash5implsRNtNtCs27l1GJC5rMQ_3std4path4PathNtB8_4Hash4hashNtNtNtBJ_4hash6random13DefaultHasherECs41t77sgS83u_2cc, symObjAddr: 0xDE4, symBinAddr: 0x10003AED0, symSize: 0x3C }
  - { offset: 0x729E4, size: 0x8, addend: 0x0, symName: __RNCNvMsp_NtNtCs9f3LFPSIp77_4core3str4iterINtB7_20MatchIndicesInternalReE4next0Cs41t77sgS83u_2cc, symObjAddr: 0x1528, symBinAddr: 0x10003B614, symSize: 0xA0 }
  - { offset: 0x72B20, size: 0x8, addend: 0x0, symName: __RNCNvMsp_NtNtCs9f3LFPSIp77_4core3str4iterINtB7_20MatchIndicesInternalcE4next0Cs41t77sgS83u_2cc, symObjAddr: 0x15C8, symBinAddr: 0x10003B6B4, symSize: 0xA0 }
  - { offset: 0x72C68, size: 0x8, addend: 0x0, symName: __RNCNvXNtNtCs9f3LFPSIp77_4core3str4iterNtB4_5CharsNtNtNtNtB8_4iter6traits8iterator8Iterator10advance_by0Cs41t77sgS83u_2cc, symObjAddr: 0x1668, symBinAddr: 0x10003B754, symSize: 0x1C }
  - { offset: 0x72CA6, size: 0x8, addend: 0x0, symName: __RNvXNtNtCs9f3LFPSIp77_4core3str4iterNtB2_5CharsNtNtNtNtB6_4iter6traits8iterator8Iterator10advance_byCs41t77sgS83u_2cc, symObjAddr: 0x2FF8, symBinAddr: 0x10003D0E4, symSize: 0x608 }
  - { offset: 0x73577, size: 0x8, addend: 0x0, symName: __RNvXNtNtCs9f3LFPSIp77_4core3str4iterNtB2_5CharsNtNtNtNtB6_4iter6traits8iterator8Iterator4nextCs41t77sgS83u_2cc, symObjAddr: 0x3600, symBinAddr: 0x10003D6EC, symSize: 0x70 }
  - { offset: 0x73748, size: 0x8, addend: 0x0, symName: __RNvXs3_NtNtCs9f3LFPSIp77_4core3str4iterNtB5_11CharIndicesNtNtNtNtB9_4iter6traits8iterator8Iterator4nextCs41t77sgS83u_2cc, symObjAddr: 0x412C, symBinAddr: 0x10003E218, symSize: 0x194 }
  - { offset: 0x73A7C, size: 0x8, addend: 0x0, symName: __RNvXs4_NtNtCs9f3LFPSIp77_4core3str4iterNtB5_11CharIndicesNtNtNtNtB9_4iter6traits12double_ended19DoubleEndedIterator9next_backCs41t77sgS83u_2cc, symObjAddr: 0x4350, symBinAddr: 0x10003E43C, symSize: 0x170 }
  - { offset: 0x73C4E, size: 0x8, addend: 0x0, symName: __RNvXsD_NtNtCs9f3LFPSIp77_4core3str4iterNtB5_20SplitAsciiWhitespaceNtNtNtNtB9_4iter6traits8iterator8Iterator4nextCs41t77sgS83u_2cc, symObjAddr: 0x4688, symBinAddr: 0x10003E774, symSize: 0x24 }
  - { offset: 0x73C7C, size: 0x8, addend: 0x0, symName: __RNvXsD_NtNtCs9f3LFPSIp77_4core3str4iterNtB5_20SplitAsciiWhitespaceNtNtNtNtB9_4iter6traits8iterator8Iterator9size_hintCs41t77sgS83u_2cc, symObjAddr: 0x46AC, symBinAddr: 0x10003E798, symSize: 0x5C }
  - { offset: 0x73D01, size: 0x8, addend: 0x0, symName: __RNvXsX_NtNtCs9f3LFPSIp77_4core3str4iterINtB5_5SplitAcj2_ENtNtNtNtB9_4iter6traits8iterator8Iterator4nextCs41t77sgS83u_2cc, symObjAddr: 0x4920, symBinAddr: 0x10003EA0C, symSize: 0x24 }
  - { offset: 0x73D38, size: 0x8, addend: 0x0, symName: __RNvXsX_NtNtCs9f3LFPSIp77_4core3str4iterINtB5_5SplitNtB7_12IsWhitespaceENtNtNtNtB9_4iter6traits8iterator8Iterator4nextCs41t77sgS83u_2cc, symObjAddr: 0x4944, symBinAddr: 0x10003EA30, symSize: 0x24 }
  - { offset: 0x73D6F, size: 0x8, addend: 0x0, symName: __RNvXsX_NtNtCs9f3LFPSIp77_4core3str4iterINtB5_5SplitReENtNtNtNtB9_4iter6traits8iterator8Iterator4nextCs41t77sgS83u_2cc, symObjAddr: 0x4968, symBinAddr: 0x10003EA54, symSize: 0x24 }
  - { offset: 0x73DAC, size: 0x8, addend: 0x0, symName: __RNvXsz_NtNtCs9f3LFPSIp77_4core3str4iterNtB5_15SplitWhitespaceNtNtNtNtB9_4iter6traits8iterator8Iterator4nextCs41t77sgS83u_2cc, symObjAddr: 0x5BF0, symBinAddr: 0x10003FCDC, symSize: 0x30 }
  - { offset: 0x73DF8, size: 0x8, addend: 0x0, symName: __RNvXsz_NtNtCs9f3LFPSIp77_4core3str4iterNtB5_15SplitWhitespaceNtNtNtNtB9_4iter6traits8iterator8Iterator9size_hintCs41t77sgS83u_2cc, symObjAddr: 0x5C20, symBinAddr: 0x10003FD0C, symSize: 0x54 }
  - { offset: 0x7430C, size: 0x8, addend: 0x0, symName: __RNvNvXs5_NtNtCs9f3LFPSIp77_4core3str6traitsINtNtNtBb_3ops5range5RangejEINtNtNtBb_5slice5index10SliceIndexeE13get_unchecked18precondition_checkCs41t77sgS83u_2cc, symObjAddr: 0x2E68, symBinAddr: 0x10003CF54, symSize: 0x60 }
  - { offset: 0x74357, size: 0x8, addend: 0x0, symName: __RNvXNtNtCs9f3LFPSIp77_4core3str6traitseNtNtB6_3cmp3Ord3cmpCs41t77sgS83u_2cc, symObjAddr: 0x3670, symBinAddr: 0x10003D75C, symSize: 0xF4 }
  - { offset: 0x744B0, size: 0x8, addend: 0x0, symName: __RNvXs2_NtNtCs9f3LFPSIp77_4core3str6traitseINtNtNtB9_3ops5index5IndexINtNtBJ_5range5RangejEE5indexCs41t77sgS83u_2cc, symObjAddr: 0x4014, symBinAddr: 0x10003E100, symSize: 0x48 }
  - { offset: 0x744F3, size: 0x8, addend: 0x0, symName: __RNvXs2_NtNtCs9f3LFPSIp77_4core3str6traitseINtNtNtB9_3ops5index5IndexINtNtBJ_5range9RangeFromjEE5indexCs41t77sgS83u_2cc, symObjAddr: 0x405C, symBinAddr: 0x10003E148, symSize: 0x44 }
  - { offset: 0x7453C, size: 0x8, addend: 0x0, symName: __RNvXs_NtNtCs9f3LFPSIp77_4core3str6traitseNtNtB8_3cmp9PartialEq2eqCs41t77sgS83u_2cc, symObjAddr: 0x49B8, symBinAddr: 0x10003EAA4, symSize: 0x64 }
  - { offset: 0x74CA0, size: 0x8, addend: 0x0, symName: __RNvXs8_NtNtCs9f3LFPSIp77_4core4task4wakeNtB5_5WakerNtNtNtB9_3ops4drop4Drop4dropCs41t77sgS83u_2cc, symObjAddr: 0x4608, symBinAddr: 0x10003E6F4, symSize: 0x30 }
  - { offset: 0x74D34, size: 0x8, addend: 0x0, symName: __RNvXNtCs9f3LFPSIp77_4core7convertRNtNtCs27l1GJC5rMQ_3std4path4PathINtB2_5AsRefNtNtNtBA_3ffi6os_str5OsStrE6as_refCs41t77sgS83u_2cc, symObjAddr: 0x2F28, symBinAddr: 0x10003D014, symSize: 0x30 }
  - { offset: 0x74D74, size: 0x8, addend: 0x0, symName: __RNvXNtCs9f3LFPSIp77_4core7convertRNtNtCs27l1GJC5rMQ_3std4path7PathBufINtB2_5AsRefNtBy_4PathE6as_refCs41t77sgS83u_2cc, symObjAddr: 0x2F58, symBinAddr: 0x10003D044, symSize: 0x28 }
  - { offset: 0x74DB4, size: 0x8, addend: 0x0, symName: __RNvXNtCs9f3LFPSIp77_4core7convertRNtNtCs27l1GJC5rMQ_3std4path7PathBufINtB2_5AsRefNtNtNtBA_3ffi6os_str5OsStrE6as_refCs41t77sgS83u_2cc, symObjAddr: 0x2F80, symBinAddr: 0x10003D06C, symSize: 0x28 }
  - { offset: 0x74DF4, size: 0x8, addend: 0x0, symName: __RNvXNtCs9f3LFPSIp77_4core7convertRNtNtCsdze8u8oDPro_5alloc6string6StringINtB2_5AsRefNtNtCs27l1GJC5rMQ_3std4path4PathE6as_refCs41t77sgS83u_2cc, symObjAddr: 0x2FA8, symBinAddr: 0x10003D094, symSize: 0x28 }
  - { offset: 0x74E34, size: 0x8, addend: 0x0, symName: __RNvXNtCs9f3LFPSIp77_4core7convertRRNtNtCs27l1GJC5rMQ_3std4path4PathINtB2_5AsRefNtNtNtBB_3ffi6os_str5OsStrE6as_refCs41t77sgS83u_2cc, symObjAddr: 0x2FD0, symBinAddr: 0x10003D0BC, symSize: 0x28 }
  - { offset: 0x74E7A, size: 0x8, addend: 0x0, symName: __RNvXs1_NtCs9f3LFPSIp77_4core7convertNtNtCs27l1GJC5rMQ_3std4path7PathBufINtB5_4IntoNtNtNtBC_3ffi6os_str8OsStringE4intoCs41t77sgS83u_2cc, symObjAddr: 0x3B14, symBinAddr: 0x10003DC00, symSize: 0x14 }
  - { offset: 0x74EBB, size: 0x8, addend: 0x0, symName: __RNvXs1_NtCs9f3LFPSIp77_4core7convertNtNtCsdze8u8oDPro_5alloc6string6StringINtB5_4IntoINtNtBC_4sync3ArceEE4intoCs41t77sgS83u_2cc, symObjAddr: 0x3B28, symBinAddr: 0x10003DC14, symSize: 0x14 }
  - { offset: 0x74EFC, size: 0x8, addend: 0x0, symName: __RNvXs1_NtCs9f3LFPSIp77_4core7convertNtNtCsdze8u8oDPro_5alloc6string6StringINtB5_4IntoINtNtBC_5boxed3BoxDNtNtB7_5error5ErrorNtNtB7_6marker4SendNtB1Z_4SyncEL_EE4intoCs41t77sgS83u_2cc, symObjAddr: 0x3B3C, symBinAddr: 0x10003DC28, symSize: 0x14 }
  - { offset: 0x74F3D, size: 0x8, addend: 0x0, symName: __RNvXs1_NtCs9f3LFPSIp77_4core7convertNtNtCsdze8u8oDPro_5alloc6string6StringINtB5_4IntoNtNtCs27l1GJC5rMQ_3std4path7PathBufE4intoCs41t77sgS83u_2cc, symObjAddr: 0x3B50, symBinAddr: 0x10003DC3C, symSize: 0x14 }
  - { offset: 0x74F7E, size: 0x8, addend: 0x0, symName: __RNvXs1_NtCs9f3LFPSIp77_4core7convertNtNtCsdze8u8oDPro_5alloc6string6StringINtB5_4IntoNtNtNtCs27l1GJC5rMQ_3std3ffi6os_str8OsStringE4intoCs41t77sgS83u_2cc, symObjAddr: 0x3B64, symBinAddr: 0x10003DC50, symSize: 0x14 }
  - { offset: 0x74FBF, size: 0x8, addend: 0x0, symName: __RNvXs1_NtCs9f3LFPSIp77_4core7convertRNtNtCs27l1GJC5rMQ_3std4path4PathINtB5_4IntoINtNtCsdze8u8oDPro_5alloc4sync3ArcBz_EE4intoCs41t77sgS83u_2cc, symObjAddr: 0x3B78, symBinAddr: 0x10003DC64, symSize: 0x28 }
  - { offset: 0x74FFF, size: 0x8, addend: 0x0, symName: __RNvXs1_NtCs9f3LFPSIp77_4core7convertRNtNtCs27l1GJC5rMQ_3std4path4PathINtB5_4IntoNtBB_7PathBufE4intoCs41t77sgS83u_2cc, symObjAddr: 0x3BA0, symBinAddr: 0x10003DC8C, symSize: 0x28 }
  - { offset: 0x75289, size: 0x8, addend: 0x0, symName: __RINvNtNtCsdze8u8oDPro_5alloc3vec16in_place_collect18from_iter_in_placeINtNtNtNtCs9f3LFPSIp77_4core4iter8adapters3map3MapINtNtB4_9into_iter8IntoIterNtCs41t77sgS83u_2cc6ObjectENCNvMs3_B2n_NtB2n_5Build25try_compile_intermediates0ENtNtCs27l1GJC5rMQ_3std4path7PathBufEB2n_, symObjAddr: 0x758, symBinAddr: 0x10003A844, symSize: 0x268 }
  - { offset: 0x756B8, size: 0x8, addend: 0x0, symName: __RNCINvNtNtCsdze8u8oDPro_5alloc3vec16in_place_collect24write_in_place_with_dropNtNtCs27l1GJC5rMQ_3std4path7PathBufE0Cs41t77sgS83u_2cc, symObjAddr: 0x139C, symBinAddr: 0x10003B488, symSize: 0x70 }
  - { offset: 0x75FC4, size: 0x8, addend: 0x0, symName: __RNvXsG_NtCsdze8u8oDPro_5alloc6stringNtB5_6StringINtNtCs9f3LFPSIp77_4core7convert4FromReE4fromCs41t77sgS83u_2cc, symObjAddr: 0x473C, symBinAddr: 0x10003E828, symSize: 0x50 }
  - { offset: 0x760D7, size: 0x8, addend: 0x0, symName: __RNvXs1C_NtCsdze8u8oDPro_5alloc6stringeNtB6_8ToString9to_stringCs41t77sgS83u_2cc, symObjAddr: 0x3978, symBinAddr: 0x10003DA64, symSize: 0x50 }
  - { offset: 0x76208, size: 0x8, addend: 0x0, symName: __RNvXsT_NtCsdze8u8oDPro_5alloc6stringNtB5_6StringNtNtCs9f3LFPSIp77_4core3fmt5Write10write_charCs41t77sgS83u_2cc, symObjAddr: 0x4818, symBinAddr: 0x10003E904, symSize: 0x30 }
  - { offset: 0x76245, size: 0x8, addend: 0x0, symName: __RNvXsT_NtCsdze8u8oDPro_5alloc6stringNtB5_6StringNtNtCs9f3LFPSIp77_4core3fmt5Write9write_strCs41t77sgS83u_2cc, symObjAddr: 0x4848, symBinAddr: 0x10003E934, symSize: 0x38 }
  - { offset: 0x762E2, size: 0x8, addend: 0x0, symName: __RNvXsq_NtCsdze8u8oDPro_5alloc6stringNtB5_6StringNtNtNtCs9f3LFPSIp77_4core3ops5deref5Deref5derefCs41t77sgS83u_2cc, symObjAddr: 0x58A8, symBinAddr: 0x10003F994, symSize: 0x24 }
  - { offset: 0x76316, size: 0x8, addend: 0x0, symName: __RNvXsi_NtCsdze8u8oDPro_5alloc6stringNtB5_6StringNtNtCs9f3LFPSIp77_4core7default7Default7defaultCs41t77sgS83u_2cc, symObjAddr: 0x4F94, symBinAddr: 0x10003F080, symSize: 0x3C }
  - { offset: 0x763D5, size: 0x8, addend: 0x0, symName: __RNvXsj_NtCsdze8u8oDPro_5alloc6stringNtB5_6StringNtNtCs9f3LFPSIp77_4core3fmt7Display3fmtCs41t77sgS83u_2cc, symObjAddr: 0x5060, symBinAddr: 0x10003F14C, symSize: 0x98 }
  - { offset: 0x765B4, size: 0x8, addend: 0x0, symName: __RNvXsk_NtCsdze8u8oDPro_5alloc6stringNtB5_6StringNtNtCs9f3LFPSIp77_4core3fmt5Debug3fmtCs41t77sgS83u_2cc, symObjAddr: 0x50F8, symBinAddr: 0x10003F1E4, symSize: 0x98 }
  - { offset: 0x76793, size: 0x8, addend: 0x0, symName: __RNvXsm_NtCsdze8u8oDPro_5alloc6stringNtB5_6StringINtNtNtCs9f3LFPSIp77_4core3ops5arith3AddReE3addCs41t77sgS83u_2cc, symObjAddr: 0x563C, symBinAddr: 0x10003F728, symSize: 0x138 }
  - { offset: 0x76ABE, size: 0x8, addend: 0x0, symName: __RNvXso_NtCsdze8u8oDPro_5alloc6stringNtB5_6StringINtNtNtCs9f3LFPSIp77_4core3ops5index5IndexINtNtBP_5range9RangeFromjEE5indexCs41t77sgS83u_2cc, symObjAddr: 0x5774, symBinAddr: 0x10003F860, symSize: 0xA0 }
  - { offset: 0x76C83, size: 0x8, addend: 0x0, symName: __RNvXso_NtCsdze8u8oDPro_5alloc6stringNtB5_6StringINtNtNtCs9f3LFPSIp77_4core3ops5index5IndexNtNtBP_5range9RangeFullE5indexCs41t77sgS83u_2cc, symObjAddr: 0x5814, symBinAddr: 0x10003F900, symSize: 0x94 }
  - { offset: 0x76E4D, size: 0x8, addend: 0x0, symName: __RNvXsu_NtCsdze8u8oDPro_5alloc6stringmNtB5_8ToString9to_stringCs41t77sgS83u_2cc, symObjAddr: 0x5988, symBinAddr: 0x10003FA74, symSize: 0x124 }
  - { offset: 0x76F74, size: 0x8, addend: 0x0, symName: __RINvMNtCsdze8u8oDPro_5alloc5sliceSRe8into_vecNtNtB5_5alloc6GlobalECs41t77sgS83u_2cc, symObjAddr: 0x0, symBinAddr: 0x10003A0EC, symSize: 0x28 }
  - { offset: 0x7714C, size: 0x8, addend: 0x0, symName: __RNvXs6_NtCsdze8u8oDPro_5alloc5sliceShINtB5_16SpecCloneIntoVechNtNtB7_5alloc6GlobalE10clone_intoCs41t77sgS83u_2cc, symObjAddr: 0x44C0, symBinAddr: 0x10003E5AC, symSize: 0x104 }
  - { offset: 0x77867, size: 0x8, addend: 0x0, symName: __RNvXs0_NtCsdze8u8oDPro_5alloc3strNtNtB7_6string6StringINtNtCs9f3LFPSIp77_4core6borrow6BorroweE6borrowCs41t77sgS83u_2cc, symObjAddr: 0x38D4, symBinAddr: 0x10003D9C0, symSize: 0x2C }
  - { offset: 0x77DBF, size: 0x8, addend: 0x0, symName: __RNvXs1_NtNtCs41t77sgS83u_2cc7windows10find_toolsNtNtCs27l1GJC5rMQ_3std4path7PathBufINtNtCs9f3LFPSIp77_4core7convert4FromNtB5_3EnvE4from, symObjAddr: 0x5E5C, symBinAddr: 0x10003FF48, symSize: 0xF4 }
  - { offset: 0x77FB7, size: 0x8, addend: 0x0, symName: __RINvMsZ_NtCs27l1GJC5rMQ_3std4pathNtB6_4Path14with_extensionReECs41t77sgS83u_2cc, symObjAddr: 0x28, symBinAddr: 0x10003A114, symSize: 0x80 }
  - { offset: 0x77FF2, size: 0x8, addend: 0x0, symName: __RINvMsZ_NtCs27l1GJC5rMQ_3std4pathNtB6_4Path14with_file_nameNtNtCsdze8u8oDPro_5alloc6string6StringECs41t77sgS83u_2cc, symObjAddr: 0xA8, symBinAddr: 0x10003A194, symSize: 0x94 }
  - { offset: 0x78062, size: 0x8, addend: 0x0, symName: __RINvMsZ_NtCs27l1GJC5rMQ_3std4pathNtB6_4Path3newINtNtCsdze8u8oDPro_5alloc4sync3ArcNtNtNtB8_3ffi6os_str5OsStrEECs41t77sgS83u_2cc, symObjAddr: 0x13C, symBinAddr: 0x10003A228, symSize: 0x24 }
  - { offset: 0x780C2, size: 0x8, addend: 0x0, symName: __RINvMsZ_NtCs27l1GJC5rMQ_3std4pathNtB6_4Path3newRNtNtNtB8_3ffi6os_str5OsStrECs41t77sgS83u_2cc, symObjAddr: 0x160, symBinAddr: 0x10003A24C, symSize: 0x24 }
  - { offset: 0x780EE, size: 0x8, addend: 0x0, symName: __RINvMsZ_NtCs27l1GJC5rMQ_3std4pathNtB6_4Path4joinNtNtCsdze8u8oDPro_5alloc6string6StringECs41t77sgS83u_2cc, symObjAddr: 0x184, symBinAddr: 0x10003A270, symSize: 0x94 }
  - { offset: 0x7812A, size: 0x8, addend: 0x0, symName: __RINvMsZ_NtCs27l1GJC5rMQ_3std4pathNtB6_4Path4joinRBv_ECs41t77sgS83u_2cc, symObjAddr: 0x218, symBinAddr: 0x10003A304, symSize: 0x80 }
  - { offset: 0x78172, size: 0x8, addend: 0x0, symName: __RINvMsZ_NtCs27l1GJC5rMQ_3std4pathNtB6_4Path4joinRNtNtCsdze8u8oDPro_5alloc6string6StringECs41t77sgS83u_2cc, symObjAddr: 0x298, symBinAddr: 0x10003A384, symSize: 0x7C }
  - { offset: 0x781AD, size: 0x8, addend: 0x0, symName: __RINvMsZ_NtCs27l1GJC5rMQ_3std4pathNtB6_4Path4joinReECs41t77sgS83u_2cc, symObjAddr: 0x314, symBinAddr: 0x10003A400, symSize: 0x80 }
  - { offset: 0x781E8, size: 0x8, addend: 0x0, symName: __RINvMsZ_NtCs27l1GJC5rMQ_3std4pathNtB6_4Path9ends_withRBv_ECs41t77sgS83u_2cc, symObjAddr: 0x394, symBinAddr: 0x10003A480, symSize: 0x80 }
  - { offset: 0x78230, size: 0x8, addend: 0x0, symName: __RINvMsr_NtCs27l1GJC5rMQ_3std4pathNtB6_7PathBuf13set_extensionReECs41t77sgS83u_2cc, symObjAddr: 0x414, symBinAddr: 0x10003A500, symSize: 0x74 }
  - { offset: 0x7826B, size: 0x8, addend: 0x0, symName: __RINvMsr_NtCs27l1GJC5rMQ_3std4pathNtB6_7PathBuf4pushReECs41t77sgS83u_2cc, symObjAddr: 0x488, symBinAddr: 0x10003A574, symSize: 0x6C }
  - { offset: 0x78AB3, size: 0x8, addend: 0x0, symName: __RNvMNtCs27l1GJC5rMQ_3std4pathNtB2_6Prefix11is_verbatimCs41t77sgS83u_2cc, symObjAddr: 0x175C, symBinAddr: 0x10003B848, symSize: 0x44 }
  - { offset: 0x78BDF, size: 0x8, addend: 0x0, symName: __RNvMNtCsdze8u8oDPro_5alloc6stringNtB2_6String13with_capacityCs41t77sgS83u_2cc, symObjAddr: 0x195C, symBinAddr: 0x10003BA48, symSize: 0x50 }
  - { offset: 0x78D35, size: 0x8, addend: 0x0, symName: __RNvMNtCsdze8u8oDPro_5alloc6stringNtB2_6String14into_boxed_strCs41t77sgS83u_2cc, symObjAddr: 0x19AC, symBinAddr: 0x10003BA98, symSize: 0x9C }
  - { offset: 0x78F1C, size: 0x8, addend: 0x0, symName: __RNvMNtCsdze8u8oDPro_5alloc6stringNtB2_6String3newCs41t77sgS83u_2cc, symObjAddr: 0x1A48, symBinAddr: 0x10003BB34, symSize: 0x3C }
  - { offset: 0x79171, size: 0x8, addend: 0x0, symName: __RNvMNtCsdze8u8oDPro_5alloc6stringNtB2_6String4pushCs41t77sgS83u_2cc, symObjAddr: 0x1A84, symBinAddr: 0x10003BB70, symSize: 0x180 }
  - { offset: 0x79641, size: 0x8, addend: 0x0, symName: __RNvMNtCsdze8u8oDPro_5alloc6stringNtB2_6String6as_strCs41t77sgS83u_2cc, symObjAddr: 0x1C04, symBinAddr: 0x10003BCF0, symSize: 0x88 }
  - { offset: 0x797C4, size: 0x8, addend: 0x0, symName: __RNvMNtCsdze8u8oDPro_5alloc6stringNtB2_6String8as_bytesCs41t77sgS83u_2cc, symObjAddr: 0x1C8C, symBinAddr: 0x10003BD78, symSize: 0x24 }
  - { offset: 0x7981F, size: 0x8, addend: 0x0, symName: __RNvMNtCsdze8u8oDPro_5alloc6stringNtB2_6String8is_emptyCs41t77sgS83u_2cc, symObjAddr: 0x1CB0, symBinAddr: 0x10003BD9C, symSize: 0x28 }
  - { offset: 0x79950, size: 0x8, addend: 0x0, symName: __RNvMNtCsdze8u8oDPro_5alloc6stringNtB2_6String8push_strCs41t77sgS83u_2cc, symObjAddr: 0x1CD8, symBinAddr: 0x10003BDC4, symSize: 0xDC }
  - { offset: 0x79D7D, size: 0x8, addend: 0x0, symName: __RNvMNtCsdze8u8oDPro_5alloc6stringNtB2_6String9from_utf8Cs41t77sgS83u_2cc, symObjAddr: 0x1DB4, symBinAddr: 0x10003BEA0, symSize: 0x168 }
  - { offset: 0x79F06, size: 0x8, addend: 0x0, symName: __RNvMs0_NtNtCs9f3LFPSIp77_4core3mem12maybe_uninitINtB5_11MaybeUninitINtNtB9_6result6ResultNtNtNtCs41t77sgS83u_2cc6target6parser21TargetInfoParserInnerNtB1v_5ErrorEE16assume_init_dropB1v_, symObjAddr: 0x1F1C, symBinAddr: 0x10003C008, symSize: 0x24 }
  - { offset: 0x79F3F, size: 0x8, addend: 0x0, symName: __RNvMs0_NtNtCs9f3LFPSIp77_4core3mem12maybe_uninitINtB5_11MaybeUninitNtNtNtCs41t77sgS83u_2cc8parallel9job_token14JobTokenServerE16assume_init_dropB19_, symObjAddr: 0x1F40, symBinAddr: 0x10003C02C, symSize: 0x24 }
  - { offset: 0x7A095, size: 0x8, addend: 0x0, symName: __RNvMs0_NtNtCs9f3LFPSIp77_4core4task4wakeNtB5_7Context10from_wakerCs41t77sgS83u_2cc, symObjAddr: 0x1F64, symBinAddr: 0x10003C050, symSize: 0x68 }
  - { offset: 0x7A2A2, size: 0x8, addend: 0x0, symName: __RNvMs2_NtNtCs27l1GJC5rMQ_3std4sync4mpmcINtB5_6SenderINtNtCs9f3LFPSIp77_4core6result6ResultNtCs22zHMr2Jt3g_9jobserver8AcquiredNtNtNtB9_2io5error5ErrorEE4sendCs41t77sgS83u_2cc, symObjAddr: 0x1FCC, symBinAddr: 0x10003C0B8, symSize: 0x1CC }
  - { offset: 0x7A42D, size: 0x8, addend: 0x0, symName: __RNvMs6_NtNtCs9f3LFPSIp77_4core4task4wakeNtB5_5Waker8from_rawCs41t77sgS83u_2cc, symObjAddr: 0x2198, symBinAddr: 0x10003C284, symSize: 0x1C }
  - { offset: 0x7A5F6, size: 0x8, addend: 0x0, symName: __RNvMs8_NtCs27l1GJC5rMQ_3std2ioNtB5_7IoSlice14advance_slicesCs41t77sgS83u_2cc, symObjAddr: 0x21B4, symBinAddr: 0x10003C2A0, symSize: 0x2F4 }
  - { offset: 0x7A9C0, size: 0x8, addend: 0x0, symName: __RNvMsZ_NtCs27l1GJC5rMQ_3std4pathNtB5_4Path15to_string_lossyCs41t77sgS83u_2cc, symObjAddr: 0x24A8, symBinAddr: 0x10003C594, symSize: 0x34 }
  - { offset: 0x7AA47, size: 0x8, addend: 0x0, symName: __RNvMsZ_NtCs27l1GJC5rMQ_3std4pathNtB5_4Path6existsCs41t77sgS83u_2cc, symObjAddr: 0x24DC, symBinAddr: 0x10003C5C8, symSize: 0x74 }
  - { offset: 0x7AACF, size: 0x8, addend: 0x0, symName: __RNvMsZ_NtCs27l1GJC5rMQ_3std4pathNtB5_4Path6to_strCs41t77sgS83u_2cc, symObjAddr: 0x2550, symBinAddr: 0x10003C63C, symSize: 0x88 }
  - { offset: 0x7AB44, size: 0x8, addend: 0x0, symName: __RNvMsZ_NtCs27l1GJC5rMQ_3std4pathNtB5_4Path7displayCs41t77sgS83u_2cc, symObjAddr: 0x25D8, symBinAddr: 0x10003C6C4, symSize: 0x24 }
  - { offset: 0x7AB67, size: 0x8, addend: 0x0, symName: __RNvMsZ_NtCs27l1GJC5rMQ_3std4pathNtB5_4Path9as_os_strCs41t77sgS83u_2cc, symObjAddr: 0x25FC, symBinAddr: 0x10003C6E8, symSize: 0x18 }
  - { offset: 0x7ABA4, size: 0x8, addend: 0x0, symName: __RNvMsf_NtNtCs9f3LFPSIp77_4core3str4iterINtB5_13SplitInternalAcj2_E4nextCs41t77sgS83u_2cc, symObjAddr: 0x2614, symBinAddr: 0x10003C700, symSize: 0x134 }
  - { offset: 0x7ACE0, size: 0x8, addend: 0x0, symName: __RNvMsf_NtNtCs9f3LFPSIp77_4core3str4iterINtB5_13SplitInternalAcj2_E7get_endCs41t77sgS83u_2cc, symObjAddr: 0x2748, symBinAddr: 0x10003C834, symSize: 0x11C }
  - { offset: 0x7ADEB, size: 0x8, addend: 0x0, symName: __RNvMsf_NtNtCs9f3LFPSIp77_4core3str4iterINtB5_13SplitInternalNtB7_12IsWhitespaceE4nextCs41t77sgS83u_2cc, symObjAddr: 0x2864, symBinAddr: 0x10003C950, symSize: 0x138 }
  - { offset: 0x7AF27, size: 0x8, addend: 0x0, symName: __RNvMsf_NtNtCs9f3LFPSIp77_4core3str4iterINtB5_13SplitInternalNtB7_12IsWhitespaceE7get_endCs41t77sgS83u_2cc, symObjAddr: 0x299C, symBinAddr: 0x10003CA88, symSize: 0x120 }
  - { offset: 0x7B032, size: 0x8, addend: 0x0, symName: __RNvMsf_NtNtCs9f3LFPSIp77_4core3str4iterINtB5_13SplitInternalReE4nextCs41t77sgS83u_2cc, symObjAddr: 0x2ABC, symBinAddr: 0x10003CBA8, symSize: 0x134 }
  - { offset: 0x7B16E, size: 0x8, addend: 0x0, symName: __RNvMsf_NtNtCs9f3LFPSIp77_4core3str4iterINtB5_13SplitInternalReE7get_endCs41t77sgS83u_2cc, symObjAddr: 0x2BF0, symBinAddr: 0x10003CCDC, symSize: 0x11C }
  - { offset: 0x7B2F1, size: 0x8, addend: 0x0, symName: __RNvMsg_NtNtCs27l1GJC5rMQ_3std4sync4mpmcINtB5_8ReceiverINtNtCs9f3LFPSIp77_4core6result6ResultNtCs22zHMr2Jt3g_9jobserver8AcquiredNtNtNtB9_2io5error5ErrorEE8try_recvCs41t77sgS83u_2cc, symObjAddr: 0x2D0C, symBinAddr: 0x10003CDF8, symSize: 0xA4 }
  - { offset: 0x7B428, size: 0x8, addend: 0x0, symName: __RNvMsr_NtCs27l1GJC5rMQ_3std4pathNtB5_7PathBuf14into_os_stringCs41t77sgS83u_2cc, symObjAddr: 0x2DB0, symBinAddr: 0x10003CE9C, symSize: 0x18 }
  - { offset: 0x7B4E5, size: 0x8, addend: 0x0, symName: __RNvMsr_NtCs27l1GJC5rMQ_3std4pathNtB5_7PathBuf3newCs41t77sgS83u_2cc, symObjAddr: 0x2DC8, symBinAddr: 0x10003CEB4, symSize: 0x6C }
  - { offset: 0x7B600, size: 0x8, addend: 0x0, symName: __RNvMsr_NtCs27l1GJC5rMQ_3std4pathNtB5_7PathBuf7as_pathCs41t77sgS83u_2cc, symObjAddr: 0x2E34, symBinAddr: 0x10003CF20, symSize: 0x34 }
  - { offset: 0x7B6B2, size: 0x8, addend: 0x0, symName: __RNvXCscXJUXcj6jCz_9hashbrownNtNtCs27l1GJC5rMQ_3std4path4PathINtB2_10EquivalentINtNtCsdze8u8oDPro_5alloc5boxed3BoxBq_EE10equivalentCs41t77sgS83u_2cc, symObjAddr: 0x2EC8, symBinAddr: 0x10003CFB4, symSize: 0x60 }
  - { offset: 0x7CB4E, size: 0x8, addend: 0x0, symName: __RINvMs0_NtCs9f3LFPSIp77_4core3fmtNtB6_9Arguments6new_v1Kj3_KBS_ECs41t77sgS83u_2cc, symObjAddr: 0x0, symBinAddr: 0x10004003C, symSize: 0x50 }
  - { offset: 0x7CE83, size: 0x8, addend: 0x0, symName: __RNvXsF_NtCs9f3LFPSIp77_4core3fmtNtB5_5ErrorNtB5_5Debug3fmtCs41t77sgS83u_2cc, symObjAddr: 0x4098, symBinAddr: 0x1000440D4, symSize: 0x40 }
  - { offset: 0x7CEC3, size: 0x8, addend: 0x0, symName: __RNvXsP_NtCs9f3LFPSIp77_4core3fmtRjNtB5_5Debug3fmtCs41t77sgS83u_2cc, symObjAddr: 0x40D8, symBinAddr: 0x100044114, symSize: 0x30 }
  - { offset: 0x7CF0F, size: 0x8, addend: 0x0, symName: __RNvXsR_NtCs9f3LFPSIp77_4core3fmtRDNtB5_7DisplayEL_Bw_3fmtCs41t77sgS83u_2cc, symObjAddr: 0x4108, symBinAddr: 0x100044144, symSize: 0x3C }
  - { offset: 0x7CF55, size: 0x8, addend: 0x0, symName: __RNvXsR_NtCs9f3LFPSIp77_4core3fmtRReNtB5_7Display3fmtCs41t77sgS83u_2cc, symObjAddr: 0x4144, symBinAddr: 0x100044180, symSize: 0x30 }
  - { offset: 0x7CFA1, size: 0x8, addend: 0x0, symName: __RNvXsc_NtCs9f3LFPSIp77_4core3fmtbNtB5_5Debug3fmtCs41t77sgS83u_2cc, symObjAddr: 0x429C, symBinAddr: 0x1000442D8, symSize: 0x2C }
  - { offset: 0x7FAAA, size: 0x8, addend: 0x0, symName: __RINvNtCs9f3LFPSIp77_4core10intrinsics10typed_swapNtNtCscXJUXcj6jCz_9hashbrown3raw13RawTableInnerECs41t77sgS83u_2cc, symObjAddr: 0x198, symBinAddr: 0x1000401D4, symSize: 0x3C }
  - { offset: 0x7FAEC, size: 0x8, addend: 0x0, symName: __RINvNtCs9f3LFPSIp77_4core10intrinsics20select_unpredictablejECs41t77sgS83u_2cc, symObjAddr: 0x1D4, symBinAddr: 0x100040210, symSize: 0x48 }
  - { offset: 0x7FB41, size: 0x8, addend: 0x0, symName: __RINvNtCs9f3LFPSIp77_4core10intrinsics23is_val_statically_knownmECs41t77sgS83u_2cc, symObjAddr: 0x21C, symBinAddr: 0x100040258, symSize: 0x18 }
  - { offset: 0x7FB78, size: 0x8, addend: 0x0, symName: __RNvNtCs9f3LFPSIp77_4core10intrinsics6likelyCs41t77sgS83u_2cc, symObjAddr: 0x2B8C, symBinAddr: 0x100042BC8, symSize: 0x10 }
  - { offset: 0x7FBA6, size: 0x8, addend: 0x0, symName: __RNvNtCs9f3LFPSIp77_4core10intrinsics8unlikelyCs41t77sgS83u_2cc, symObjAddr: 0x2B9C, symBinAddr: 0x100042BD8, symSize: 0x10 }
  - { offset: 0x7FBD9, size: 0x8, addend: 0x0, symName: __RNvNvNtCs9f3LFPSIp77_4core10intrinsics11write_bytes18precondition_checkCs41t77sgS83u_2cc, symObjAddr: 0x2C20, symBinAddr: 0x100042C5C, symSize: 0xEC }
  - { offset: 0x7FCE4, size: 0x8, addend: 0x0, symName: __RNvNvNtCs9f3LFPSIp77_4core10intrinsics19copy_nonoverlapping18precondition_checkCs41t77sgS83u_2cc, symObjAddr: 0x2D0C, symBinAddr: 0x100042D48, symSize: 0x1EC }
  - { offset: 0x7FF35, size: 0x8, addend: 0x0, symName: __RNvNvNtCs9f3LFPSIp77_4core10intrinsics4copy18precondition_checkCs41t77sgS83u_2cc, symObjAddr: 0x2EF8, symBinAddr: 0x100042F34, symSize: 0x1A8 }
  - { offset: 0x8012E, size: 0x8, addend: 0x0, symName: __RINvNtNtNtCs9f3LFPSIp77_4core4iter6traits8iterator12iter_compareINtNtNtB6_8adapters3rev3RevNtNtCs27l1GJC5rMQ_3std4path10ComponentsEB10_NCINvNvNtB2_8Iterator5eq_by7compareNtB1t_9ComponentB2I_NCINvYB10_B2g_2eqB10_E0E0uECs41t77sgS83u_2cc, symObjAddr: 0x28C, symBinAddr: 0x1000402C8, symSize: 0xC4 }
  - { offset: 0x801C2, size: 0x8, addend: 0x0, symName: __RINvYINtNtNtCs9f3LFPSIp77_4core5slice4iter4IterINtNtCsdze8u8oDPro_5alloc4sync3ArcNtNtCs27l1GJC5rMQ_3std4path4PathEENtNtNtNtBa_4iter6traits8iterator8Iterator3mapRB1h_NvYBJ_INtNtBa_7convert5AsRefB1h_E6as_refECs41t77sgS83u_2cc, symObjAddr: 0x16BC, symBinAddr: 0x1000416F8, symSize: 0x1C }
  - { offset: 0x8021A, size: 0x8, addend: 0x0, symName: __RINvYINtNtNtCs9f3LFPSIp77_4core5slice4iter4IterINtNtCsdze8u8oDPro_5alloc4sync3ArcNtNtCs27l1GJC5rMQ_3std4path4PathEENtNtNtNtBa_4iter6traits8iterator8Iterator3mapRB1h_NvYBJ_NtNtNtBa_3ops5deref5Deref5derefECs41t77sgS83u_2cc, symObjAddr: 0x16D8, symBinAddr: 0x100041714, symSize: 0x1C }
  - { offset: 0x80272, size: 0x8, addend: 0x0, symName: __RINvYINtNtNtCs9f3LFPSIp77_4core5slice4iter4IterINtNtCsdze8u8oDPro_5alloc4sync3ArcNtNtCs27l1GJC5rMQ_3std4path4PathEENtNtNtNtBa_4iter6traits8iterator8Iterator3mapjNCINvNvXs1_NtNtB1V_8adapters6filterINtB2K_6FilterppEB1P_5count8to_usizeRBJ_NCNvMs3_Cs41t77sgS83u_2ccNtB3U_5Build15cuda_file_count0E0EB3U_, symObjAddr: 0x16F4, symBinAddr: 0x100041730, symSize: 0x1C }
  - { offset: 0x802CA, size: 0x8, addend: 0x0, symName: __RINvYINtNtNtCs9f3LFPSIp77_4core5slice4iter4IterINtNtCsdze8u8oDPro_5alloc4sync3ArcNtNtCs27l1GJC5rMQ_3std4path4PathEENtNtNtNtBa_4iter6traits8iterator8Iterator6filterNCNvMs3_Cs41t77sgS83u_2ccNtB2J_5Build15cuda_file_count0EB2J_, symObjAddr: 0x1710, symBinAddr: 0x10004174C, symSize: 0x1C }
  - { offset: 0x80319, size: 0x8, addend: 0x0, symName: __RINvYINtNtNtCs9f3LFPSIp77_4core5slice4iter4IterINtNtCsdze8u8oDPro_5alloc4sync3ArcNtNtCs27l1GJC5rMQ_3std4path4PathEENtNtNtNtBa_4iter6traits8iterator8Iterator8try_folduNCINvNtNtB1V_8adapters3map12map_try_foldRBJ_RB1h_uINtNtNtBa_3ops12control_flow11ControlFlowNtCs41t77sgS83u_2cc10AsmFileExtENvYBJ_NtNtB3x_5deref5Deref5derefNCINvNvB1P_8find_map5checkB3m_B47_NvMs5_B49_B47_9from_pathE0E0B3s_EB49_, symObjAddr: 0x172C, symBinAddr: 0x100041768, symSize: 0x150 }
  - { offset: 0x803D1, size: 0x8, addend: 0x0, symName: __RINvYINtNtNtCs9f3LFPSIp77_4core5slice4iter4IterINtNtCsdze8u8oDPro_5alloc4sync3ArcNtNtNtCs27l1GJC5rMQ_3std3ffi6os_str5OsStrEENtNtNtNtBa_4iter6traits8iterator8Iterator3mapRB1h_NvYBJ_NtNtNtBa_3ops5deref5Deref5derefECs41t77sgS83u_2cc, symObjAddr: 0x187C, symBinAddr: 0x1000418B8, symSize: 0x1C }
  - { offset: 0x80429, size: 0x8, addend: 0x0, symName: __RINvYINtNtNtCs9f3LFPSIp77_4core5slice4iter4IterNtCs41t77sgS83u_2cc6ObjectENtNtNtNtBa_4iter6traits8iterator8Iterator3mapRNtNtCs27l1GJC5rMQ_3std4path4PathNCNvMs3_BL_NtBL_5Build8assemble0EBL_, symObjAddr: 0x1898, symBinAddr: 0x1000418D4, symSize: 0x1C }
  - { offset: 0x80481, size: 0x8, addend: 0x0, symName: __RINvYINtNtNtCs9f3LFPSIp77_4core5slice4iter4IterNtNtNtCs27l1GJC5rMQ_3std3ffi6os_str8OsStringENtNtNtNtBa_4iter6traits8iterator8Iterator6filterNCNvMNtCs41t77sgS83u_2cc4toolNtB2j_4Tool10to_command0EB2l_, symObjAddr: 0x18B4, symBinAddr: 0x1000418F0, symSize: 0x30 }
  - { offset: 0x804F6, size: 0x8, addend: 0x0, symName: __RINvYINtNtNtCs9f3LFPSIp77_4core5slice4iter4IterNtNtNtNtCs27l1GJC5rMQ_3std4sync4mpmc5waker5EntryENtNtNtNtBa_4iter6traits8iterator8Iterator8try_folduNCINvNvXs_NtNtB1C_8adapters9enumerateINtB2v_9EnumeratepEB1w_8try_fold9enumerateRBJ_uINtNtNtBa_3ops12control_flow11ControlFlowTjB3C_EENCINvNvB1w_4find5checkB4m_NCNvMBL_NtBL_5Waker10unregister0E0E0B3H_ECs41t77sgS83u_2cc, symObjAddr: 0x18E4, symBinAddr: 0x100041920, symSize: 0x180 }
  - { offset: 0x805B0, size: 0x8, addend: 0x0, symName: __RINvYINtNtNtCs9f3LFPSIp77_4core5slice4iter5SplithNtNtBa_3str17IsAsciiWhitespaceENtNtNtNtBa_4iter6traits8iterator8Iterator4findQNtBN_15BytesIsNotEmptyECs41t77sgS83u_2cc, symObjAddr: 0x1A64, symBinAddr: 0x100041AA0, symSize: 0x90 }
  - { offset: 0x8062B, size: 0x8, addend: 0x0, symName: __RINvYINtNtNtCs9f3LFPSIp77_4core5slice4iter5SplithNtNtBa_3str17IsAsciiWhitespaceENtNtNtNtBa_4iter6traits8iterator8Iterator8try_folduNCINvNvB1g_4find5checkRShQNtBN_15BytesIsNotEmptyE0INtNtNtBa_3ops12control_flow11ControlFlowB2r_EECs41t77sgS83u_2cc, symObjAddr: 0x1AF4, symBinAddr: 0x100041B30, symSize: 0x198 }
  - { offset: 0x806F2, size: 0x8, addend: 0x0, symName: __RNCINvNvNtNtNtNtCs9f3LFPSIp77_4core4iter6traits8iterator8Iterator12try_for_each4callNtNtCs27l1GJC5rMQ_3std4path9ComponentINtNtNtBe_3ops12control_flow11ControlFlowIB1W_uNtNtBe_3cmp8OrderingEENCINvNvB8_12iter_compare7compareINtNtNtBc_8adapters3rev3RevNtB1m_10ComponentsEB1k_uNCINvNvB6_5eq_by7compareB1k_B1k_NCINvYB3y_B6_2eqB3y_E0E0E0E0Cs41t77sgS83u_2cc, symObjAddr: 0x1DF0, symBinAddr: 0x100041E2C, symSize: 0x40 }
  - { offset: 0x80764, size: 0x8, addend: 0x0, symName: __RNCINvNvNtNtNtNtCs9f3LFPSIp77_4core4iter6traits8iterator8Iterator4find5checkNtNtCs27l1GJC5rMQ_3std4path7PathBufNCNCNvMs3_Cs41t77sgS83u_2ccNtB1V_5Build11try_compiles_00E0B1V_, symObjAddr: 0x1E30, symBinAddr: 0x100041E6C, symSize: 0xAC }
  - { offset: 0x807C0, size: 0x8, addend: 0x0, symName: __RNCINvNvNtNtNtNtCs9f3LFPSIp77_4core4iter6traits8iterator8Iterator4find5checkNtNtCs27l1GJC5rMQ_3std4path7PathBufNCNCNvNtNtNtCs41t77sgS83u_2cc7windows10find_tools5impl_21find_msvc_environment0s_0E0B1X_, symObjAddr: 0x1EDC, symBinAddr: 0x100041F18, symSize: 0xAC }
  - { offset: 0x8081C, size: 0x8, addend: 0x0, symName: __RNCINvNvNtNtNtNtCs9f3LFPSIp77_4core4iter6traits8iterator8Iterator4find5checkRShQNtNtBe_3str15BytesIsNotEmptyE0Cs41t77sgS83u_2cc, symObjAddr: 0x1F88, symBinAddr: 0x100041FC4, symSize: 0x84 }
  - { offset: 0x80878, size: 0x8, addend: 0x0, symName: __RNCINvNvNtNtNtNtCs9f3LFPSIp77_4core4iter6traits8iterator8Iterator4find5checkReQNtNtBe_3str10IsNotEmptyE0Cs41t77sgS83u_2cc, symObjAddr: 0x200C, symBinAddr: 0x100042048, symSize: 0x84 }
  - { offset: 0x808D4, size: 0x8, addend: 0x0, symName: __RNCINvNvNtNtNtNtCs9f3LFPSIp77_4core4iter6traits8iterator8Iterator4find5checkTjRNtNtNtNtCs27l1GJC5rMQ_3std4sync4mpmc5waker5EntryENCNvMB1h_NtB1h_5Waker10unregister0E0Cs41t77sgS83u_2cc, symObjAddr: 0x2090, symBinAddr: 0x1000420CC, symSize: 0x84 }
  - { offset: 0x80962, size: 0x8, addend: 0x0, symName: __RNCINvNvNtNtNtNtCs9f3LFPSIp77_4core4iter6traits8iterator8Iterator5eq_by7compareNtNtCs27l1GJC5rMQ_3std4path9ComponentB1f_NCINvYINtNtNtBc_8adapters3rev3RevNtB1h_10ComponentsEB6_2eqB20_E0E0Cs41t77sgS83u_2cc, symObjAddr: 0x2114, symBinAddr: 0x100042150, symSize: 0x88 }
  - { offset: 0x809EB, size: 0x8, addend: 0x0, symName: __RNCINvNvNtNtNtNtCs9f3LFPSIp77_4core4iter6traits8iterator8Iterator8find_map5checkNtNtCs27l1GJC5rMQ_3std4path7PathBufB1g_NCNCNvMs3_Cs41t77sgS83u_2ccNtB23_5Build5which00E0B23_, symObjAddr: 0x219C, symBinAddr: 0x1000421D8, symSize: 0x94 }
  - { offset: 0x80A6F, size: 0x8, addend: 0x0, symName: __RNCINvNvNtNtNtNtCs9f3LFPSIp77_4core4iter6traits8iterator8Iterator8find_map5checkNtNtCs27l1GJC5rMQ_3std4path7PathBufRReNCNCNvMs3_Cs41t77sgS83u_2ccNtB22_5Build23find_working_gnu_prefix00E0B22_, symObjAddr: 0x2230, symBinAddr: 0x10004226C, symSize: 0x70 }
  - { offset: 0x80AF3, size: 0x8, addend: 0x0, symName: __RNCINvNvNtNtNtNtCs9f3LFPSIp77_4core4iter6traits8iterator8Iterator8find_map5checkRNtNtCs27l1GJC5rMQ_3std4path4PathNtCs41t77sgS83u_2cc10AsmFileExtNvMs5_B1P_B1N_9from_pathE0B1P_, symObjAddr: 0x22A0, symBinAddr: 0x1000422DC, symSize: 0x74 }
  - { offset: 0x80B93, size: 0x8, addend: 0x0, symName: __RNCINvNvNtNtNtNtCs9f3LFPSIp77_4core4iter6traits8iterator8Iterator8for_each4callINtNtCsdze8u8oDPro_5alloc4sync3ArcNtNtNtCs27l1GJC5rMQ_3std3ffi6os_str5OsStrENCINvMsi_NtB1k_3vecINtB2C_3VecB1f_E14extend_trustedINtNtNtBc_8adapters3map3MapINtNtB2C_9into_iter8IntoIterNtNtB1k_6string6StringENCNvMs3_Cs41t77sgS83u_2ccNtB4G_5Build26try_flags_from_environment0EE0E0B4G_, symObjAddr: 0x2314, symBinAddr: 0x100042350, symSize: 0x30 }
  - { offset: 0x80BEB, size: 0x8, addend: 0x0, symName: __RNCINvNvNtNtNtNtCs9f3LFPSIp77_4core4iter6traits8iterator8Iterator8for_each4callNtNtNtCs27l1GJC5rMQ_3std3ffi6os_str8OsStringNCINvMsi_NtCsdze8u8oDPro_5alloc3vecINtB26_3VecB1f_E14extend_trustedINtNtNtBe_5array4iter8IntoIterB1f_Kj6_EE0E0Cs41t77sgS83u_2cc, symObjAddr: 0x2344, symBinAddr: 0x100042380, symSize: 0x3C }
  - { offset: 0x80C44, size: 0x8, addend: 0x0, symName: __RNCINvNvNtNtNtNtCs9f3LFPSIp77_4core4iter6traits8iterator8Iterator8for_each4callRNtNtCs27l1GJC5rMQ_3std4path4PathNCINvMsi_NtCsdze8u8oDPro_5alloc3vecINtB1V_3VecB1f_E14extend_trustedINtNtNtBc_8adapters5chain5ChainINtNtB2W_3map3MapINtNtNtBe_5slice4iter4IterNtCs41t77sgS83u_2cc6ObjectENCNvMs3_B45_NtB45_5Build8assemble0EIB3n_IB3E_INtNtB1X_4sync3ArcB1g_EENvYB5d_NtNtNtBe_3ops5deref5Deref5derefEEE0E0B45_, symObjAddr: 0x2380, symBinAddr: 0x1000423BC, symSize: 0x30 }
  - { offset: 0x80CB6, size: 0x8, addend: 0x0, symName: __RNCINvYINtNtNtNtCs9f3LFPSIp77_4core4iter8adapters3rev3RevNtNtCs27l1GJC5rMQ_3std4path10ComponentsENtNtNtBc_6traits8iterator8Iterator2eqB5_E0Cs41t77sgS83u_2cc, symObjAddr: 0x23B0, symBinAddr: 0x1000423EC, symSize: 0x58 }
  - { offset: 0x80D1F, size: 0x8, addend: 0x0, symName: __RNCNvYNtNtCs27l1GJC5rMQ_3std4path10ComponentsNtNtNtNtCs9f3LFPSIp77_4core4iter6traits8iterator8Iterator5count0Cs41t77sgS83u_2cc, symObjAddr: 0x2468, symBinAddr: 0x1000424A4, symSize: 0x64 }
  - { offset: 0x80D6D, size: 0x8, addend: 0x0, symName: __RNvYINtNtNtCs9f3LFPSIp77_4core5slice4iter4IterINtNtCsdze8u8oDPro_5alloc4sync3ArcNtNtNtCs27l1GJC5rMQ_3std3ffi6os_str5OsStrEENtNtNtNtB9_4iter6traits8iterator8Iterator9enumerateCs41t77sgS83u_2cc, symObjAddr: 0x4808, symBinAddr: 0x100044844, symSize: 0x28 }
  - { offset: 0x80DC2, size: 0x8, addend: 0x0, symName: __RNvYINtNtNtCs9f3LFPSIp77_4core5slice4iter4IterNtNtNtCs27l1GJC5rMQ_3std3ffi6os_str8OsStringENtNtNtNtB9_4iter6traits8iterator8Iterator9enumerateCs41t77sgS83u_2cc, symObjAddr: 0x4830, symBinAddr: 0x10004486C, symSize: 0x28 }
  - { offset: 0x80E22, size: 0x8, addend: 0x0, symName: __RNCINvNvNtNtNtCs9f3LFPSIp77_4core4iter6traits8iterator12iter_compare7compareINtNtNtBa_8adapters3rev3RevNtNtCs27l1GJC5rMQ_3std4path10ComponentsENtB1F_9ComponentuNCINvNvNtB6_8Iterator5eq_by7compareB2h_B2h_NCINvYB1c_B2F_2eqB1c_E0E0E0Cs41t77sgS83u_2cc, symObjAddr: 0x1C8C, symBinAddr: 0x100041CC8, symSize: 0x164 }
  - { offset: 0x80F25, size: 0x8, addend: 0x0, symName: __RNvXs_NtNtNtCs9f3LFPSIp77_4core4iter6traits7collectINtNtNtBa_5slice4iter14SplitInclusivehNCNvMs_NtCs41t77sgS83u_2cc15command_helpersNtB1w_15StderrForwarder17forward_available0ENtB4_12IntoIterator9into_iterB1y_, symObjAddr: 0x41C4, symBinAddr: 0x100044200, symSize: 0x18 }
  - { offset: 0x80F5C, size: 0x8, addend: 0x0, symName: __RNvXs_NtNtNtCs9f3LFPSIp77_4core4iter6traits7collectINtNtNtBa_5slice4iter4IterINtNtCsdze8u8oDPro_5alloc4sync3ArcNtNtCs27l1GJC5rMQ_3std4path4PathEENtB4_12IntoIterator9into_iterCs41t77sgS83u_2cc, symObjAddr: 0x41DC, symBinAddr: 0x100044218, symSize: 0x1C }
  - { offset: 0x80F93, size: 0x8, addend: 0x0, symName: __RNvXs_NtNtNtCs9f3LFPSIp77_4core4iter6traits7collectINtNtNtBa_5slice4iter4IterINtNtCsdze8u8oDPro_5alloc4sync3ArcNtNtNtCs27l1GJC5rMQ_3std3ffi6os_str5OsStrEENtB4_12IntoIterator9into_iterCs41t77sgS83u_2cc, symObjAddr: 0x41F8, symBinAddr: 0x100044234, symSize: 0x1C }
  - { offset: 0x80FCA, size: 0x8, addend: 0x0, symName: __RNvXs_NtNtNtCs9f3LFPSIp77_4core4iter6traits7collectINtNtNtBa_5slice4iter4IterNtNtNtCs27l1GJC5rMQ_3std3ffi6os_str8OsStringENtB4_12IntoIterator9into_iterCs41t77sgS83u_2cc, symObjAddr: 0x4214, symBinAddr: 0x100044250, symSize: 0x1C }
  - { offset: 0x81001, size: 0x8, addend: 0x0, symName: __RNvXs_NtNtNtCs9f3LFPSIp77_4core4iter6traits7collectINtNtNtBa_5slice4iter4IterTINtNtCsdze8u8oDPro_5alloc4sync3ArcNtNtNtCs27l1GJC5rMQ_3std3ffi6os_str5OsStrEB1e_EENtB4_12IntoIterator9into_iterCs41t77sgS83u_2cc, symObjAddr: 0x4230, symBinAddr: 0x10004426C, symSize: 0x1C }
  - { offset: 0x81038, size: 0x8, addend: 0x0, symName: __RNvXs_NtNtNtCs9f3LFPSIp77_4core4iter6traits7collectINtNtNtBa_5slice4iter4IterTINtNtCsdze8u8oDPro_5alloc4sync3ArceEINtNtBa_6option6OptionB1e_EEENtB4_12IntoIterator9into_iterCs41t77sgS83u_2cc, symObjAddr: 0x424C, symBinAddr: 0x100044288, symSize: 0x1C }
  - { offset: 0x8106F, size: 0x8, addend: 0x0, symName: __RNvXs_NtNtNtCs9f3LFPSIp77_4core4iter6traits7collectINtNtNtBa_5slice4iter4IterTNtNtNtCs27l1GJC5rMQ_3std3ffi6os_str8OsStringB1e_EENtB4_12IntoIterator9into_iterCs41t77sgS83u_2cc, symObjAddr: 0x4268, symBinAddr: 0x1000442A4, symSize: 0x1C }
  - { offset: 0x810A6, size: 0x8, addend: 0x0, symName: __RNvXs_NtNtNtCs9f3LFPSIp77_4core4iter6traits7collectINtNtNtBa_5slice4iter6ChunksRNtNtCs27l1GJC5rMQ_3std4path4PathENtB4_12IntoIterator9into_iterCs41t77sgS83u_2cc, symObjAddr: 0x4284, symBinAddr: 0x1000442C0, symSize: 0x18 }
  - { offset: 0x8143F, size: 0x8, addend: 0x0, symName: __RINvNtNtNtCs9f3LFPSIp77_4core9core_arch10arm_shared4neon13vget_lane_u64Kl0_ECs41t77sgS83u_2cc, symObjAddr: 0x350, symBinAddr: 0x10004038C, symSize: 0x18 }
  - { offset: 0x814B9, size: 0x8, addend: 0x0, symName: __RNvNtNtNtCs9f3LFPSIp77_4core9core_arch10arm_shared4neon9vdup_n_u8Cs41t77sgS83u_2cc, symObjAddr: 0x2BAC, symBinAddr: 0x100042BE8, symSize: 0x34 }
  - { offset: 0x81520, size: 0x8, addend: 0x0, symName: __RNvNtNtNtNtCs9f3LFPSIp77_4core9core_arch10arm_shared4neon9generated18vreinterpret_s8_u8Cs41t77sgS83u_2cc, symObjAddr: 0x2BE0, symBinAddr: 0x100042C1C, symSize: 0xC }
  - { offset: 0x8154E, size: 0x8, addend: 0x0, symName: __RNvNtNtNtNtCs9f3LFPSIp77_4core9core_arch10arm_shared4neon9generated19vreinterpret_u64_u8Cs41t77sgS83u_2cc, symObjAddr: 0x2BEC, symBinAddr: 0x100042C28, symSize: 0xC }
  - { offset: 0x8157C, size: 0x8, addend: 0x0, symName: __RNvNtNtNtNtCs9f3LFPSIp77_4core9core_arch10arm_shared4neon9generated7vceq_u8Cs41t77sgS83u_2cc, symObjAddr: 0x2BF8, symBinAddr: 0x100042C34, symSize: 0x14 }
  - { offset: 0x815B9, size: 0x8, addend: 0x0, symName: __RNvNtNtNtNtCs9f3LFPSIp77_4core9core_arch10arm_shared4neon9generated7vorr_u8Cs41t77sgS83u_2cc, symObjAddr: 0x2C0C, symBinAddr: 0x100042C48, symSize: 0x14 }
  - { offset: 0x81C1B, size: 0x8, addend: 0x0, symName: __RINvXs2U_NtNtCs9f3LFPSIp77_4core5slice4iterINtB7_4IterINtNtCsdze8u8oDPro_5alloc4sync3ArcNtNtCs27l1GJC5rMQ_3std4path4PathEENtNtNtNtBb_4iter6traits8iterator8Iterator4foldjNCINvNtNtB22_8adapters3map8map_foldRBQ_jjNCINvNvXs1_NtB2O_6filterINtB3x_6FilterppEB1W_5count8to_usizeB3g_NCNvMs3_Cs41t77sgS83u_2ccNtB4w_5Build15cuda_file_count0E0NCINvXsK_NtB20_5accumjNtB5s_3Sum3sumINtB2M_3MapBF_B3m_EE0E0EB4w_, symObjAddr: 0x368, symBinAddr: 0x1000403A4, symSize: 0x1FC }
  - { offset: 0x81E03, size: 0x8, addend: 0x0, symName: __RINvXs2U_NtNtCs9f3LFPSIp77_4core5slice4iterINtB7_4IterINtNtCsdze8u8oDPro_5alloc4sync3ArcNtNtCs27l1GJC5rMQ_3std4path4PathEENtNtNtNtBb_4iter6traits8iterator8Iterator4folduNCINvNtNtB22_8adapters3map8map_foldRBQ_RB1o_uNvYBQ_NtNtNtBb_3ops5deref5Deref5derefNCINvNvB1W_8for_each4callB3k_NCINvMsi_NtBV_3vecINtB4D_3VecB3k_E14extend_trustedINtNtB2O_5chain5ChainINtB2M_3MapIBG_NtCs41t77sgS83u_2cc6ObjectENCNvMs3_B5U_NtB5U_5Build8assemble0EIB5E_BF_B3q_EEE0E0E0EB5U_, symObjAddr: 0x564, symBinAddr: 0x1000405A0, symSize: 0x1F8 }
  - { offset: 0x81FE5, size: 0x8, addend: 0x0, symName: __RINvXs2U_NtNtCs9f3LFPSIp77_4core5slice4iterINtB7_4IterNtCs41t77sgS83u_2cc6ObjectENtNtNtNtBb_4iter6traits8iterator8Iterator4folduNCINvNtNtB1n_8adapters3map8map_foldRBQ_RNtNtCs27l1GJC5rMQ_3std4path4PathuNCNvMs3_BS_NtBS_5Build8assemble0QNCINvNvB1h_8for_each4callB2F_NCINvMsi_NtCsdze8u8oDPro_5alloc3vecINtB4m_3VecB2F_E14extend_trustedINtNtB29_5chain5ChainINtB27_3MapBF_B3d_EIB5E_IBG_INtNtB4o_4sync3ArcB2G_EENvYB65_NtNtNtBb_3ops5deref5Deref5derefEEE0E0E0EBS_, symObjAddr: 0x75C, symBinAddr: 0x100040798, symSize: 0x1D4 }
  - { offset: 0x821C6, size: 0x8, addend: 0x0, symName: __RINvXs2U_NtNtCs9f3LFPSIp77_4core5slice4iterINtB7_4IterNtNtCs27l1GJC5rMQ_3std2io7IoSliceENtNtNtNtBb_4iter6traits8iterator8Iterator4findNCNvXs4_NtNtBS_8buffered9bufwriterINtB2g_9BufWriterNtNtBS_5stdio6StdoutENtBS_5Write14write_vectoreds_0ECs41t77sgS83u_2cc, symObjAddr: 0x930, symBinAddr: 0x10004096C, symSize: 0xB0 }
  - { offset: 0x8222B, size: 0x8, addend: 0x0, symName: __RINvXs2U_NtNtCs9f3LFPSIp77_4core5slice4iterINtB7_4IterNtNtCs27l1GJC5rMQ_3std2io7IoSliceENtNtNtNtBb_4iter6traits8iterator8Iterator8for_eachNCNvXs4_NtNtBS_8buffered9bufwriterINtB2k_9BufWriterNtNtBS_5stdio6StdoutENtBS_5Write14write_vectored0ECs41t77sgS83u_2cc, symObjAddr: 0x9E0, symBinAddr: 0x100040A1C, symSize: 0x88 }
  - { offset: 0x82288, size: 0x8, addend: 0x0, symName: __RINvXs2U_NtNtCs9f3LFPSIp77_4core5slice4iterINtB7_4IterNtNtCsdze8u8oDPro_5alloc6string6StringENtNtNtNtBb_4iter6traits8iterator8Iterator4findNCNCNvMs3_Cs41t77sgS83u_2ccNtB2n_5Build17get_base_compiler00EB2n_, symObjAddr: 0xA68, symBinAddr: 0x100040AA4, symSize: 0xB0 }
  - { offset: 0x822ED, size: 0x8, addend: 0x0, symName: __RINvXs2U_NtNtCs9f3LFPSIp77_4core5slice4iterINtB7_4IterNtNtNtCs27l1GJC5rMQ_3std3ffi6os_str8OsStringENtNtNtNtBb_4iter6traits8iterator8Iterator3anyNCNvMNtCs41t77sgS83u_2cc4toolNtB2n_4Tool20is_duplicate_opt_arg0EB2p_, symObjAddr: 0xB18, symBinAddr: 0x100040B54, symSize: 0xB0 }
  - { offset: 0x82352, size: 0x8, addend: 0x0, symName: __RINvXs2U_NtNtCs9f3LFPSIp77_4core5slice4iterINtB7_4IterNtNtNtCs27l1GJC5rMQ_3std3ffi6os_str8OsStringENtNtNtNtBb_4iter6traits8iterator8Iterator3anyNCNvXsd_NtB9_3cmpBQ_NtB2q_13SliceContains14slice_contains0ECs41t77sgS83u_2cc, symObjAddr: 0xBC8, symBinAddr: 0x100040C04, symSize: 0xB4 }
  - { offset: 0x823B7, size: 0x8, addend: 0x0, symName: __RINvXs2U_NtNtCs9f3LFPSIp77_4core5slice4iterINtB7_4IterNtNtNtCs27l1GJC5rMQ_3std3ffi6os_str8OsStringENtNtNtNtBb_4iter6traits8iterator8Iterator4findQNCNvMNtCs41t77sgS83u_2cc4toolNtB2p_4Tool10to_command0EB2r_, symObjAddr: 0xC7C, symBinAddr: 0x100040CB8, symSize: 0xB4 }
  - { offset: 0x8241C, size: 0x8, addend: 0x0, symName: __RINvXs2U_NtNtCs9f3LFPSIp77_4core5slice4iterINtB7_4IterNtNtNtNtCs27l1GJC5rMQ_3std4sync4mpmc5waker5EntryENtNtNtNtBb_4iter6traits8iterator8Iterator8positionNCNvMBS_NtBS_5Waker10try_select0ECs41t77sgS83u_2cc, symObjAddr: 0xD30, symBinAddr: 0x100040D6C, symSize: 0x1C8 }
  - { offset: 0x8255C, size: 0x8, addend: 0x0, symName: __RINvXs2U_NtNtCs9f3LFPSIp77_4core5slice4iterINtB7_4IterReENtNtNtNtBb_4iter6traits8iterator8Iterator3anyNCNCNvMs3_Cs41t77sgS83u_2ccNtB1M_5Build20apple_sdk_root_inner00EB1M_, symObjAddr: 0xEF8, symBinAddr: 0x100040F34, symSize: 0xB4 }
  - { offset: 0x825C1, size: 0x8, addend: 0x0, symName: __RINvXs2U_NtNtCs9f3LFPSIp77_4core5slice4iterINtB7_4IterReENtNtNtNtBb_4iter6traits8iterator8Iterator3anyNCNvXsd_NtB9_3cmpBQ_NtB1K_13SliceContains14slice_contains0ECs41t77sgS83u_2cc, symObjAddr: 0xFAC, symBinAddr: 0x100040FE8, symSize: 0xB4 }
  - { offset: 0x82626, size: 0x8, addend: 0x0, symName: __RINvXs2U_NtNtCs9f3LFPSIp77_4core5slice4iterINtB7_4IterReENtNtNtNtBb_4iter6traits8iterator8Iterator4findNCNCNvCs41t77sgS83u_2cc27autodetect_android_compiler00EB1J_, symObjAddr: 0x1060, symBinAddr: 0x10004109C, symSize: 0xB4 }
  - { offset: 0x8268B, size: 0x8, addend: 0x0, symName: __RINvXs2U_NtNtCs9f3LFPSIp77_4core5slice4iterINtB7_4IterTINtNtCsdze8u8oDPro_5alloc4sync3ArcNtNtNtCs27l1GJC5rMQ_3std3ffi6os_str5OsStrEBR_EENtNtNtNtBb_4iter6traits8iterator8Iterator4findNCNCNvMs3_Cs41t77sgS83u_2ccNtB34_5Build23apple_deployment_targets_00EB34_, symObjAddr: 0x1114, symBinAddr: 0x100041150, symSize: 0xB4 }
  - { offset: 0x826F0, size: 0x8, addend: 0x0, symName: __RINvXs2U_NtNtCs9f3LFPSIp77_4core5slice4iterINtB7_4IterTNtNtNtCs27l1GJC5rMQ_3std3ffi6os_str8OsStringBR_EENtNtNtNtBb_4iter6traits8iterator8Iterator4findNCNvMs3_Cs41t77sgS83u_2ccNtB2w_5Build11try_compile0EB2w_, symObjAddr: 0x11C8, symBinAddr: 0x100041204, symSize: 0xB0 }
  - { offset: 0x82755, size: 0x8, addend: 0x0, symName: __RINvXs2U_NtNtCs9f3LFPSIp77_4core5slice4iterINtB7_4ItercENtNtNtNtBb_4iter6traits8iterator8Iterator3anyNCNvXs4_NtNtBb_3str7patternAcj2_NtB1J_11MultiCharEq7matches0ECs41t77sgS83u_2cc, symObjAddr: 0x1278, symBinAddr: 0x1000412B4, symSize: 0xB4 }
  - { offset: 0x827BA, size: 0x8, addend: 0x0, symName: __RINvXs2U_NtNtCs9f3LFPSIp77_4core5slice4iterINtB7_4IterhENtNtNtNtBb_4iter6traits8iterator8Iterator8positionNCNvXsf_B7_INtB7_5SplithNtNtBb_3str17IsAsciiWhitespaceEBS_4next0ECs41t77sgS83u_2cc, symObjAddr: 0x132C, symBinAddr: 0x100041368, symSize: 0x1C8 }
  - { offset: 0x828FA, size: 0x8, addend: 0x0, symName: __RINvXs2U_NtNtCs9f3LFPSIp77_4core5slice4iterINtB7_4IterhENtNtNtNtBb_4iter6traits8iterator8Iterator8positionNCNvXsm_B7_INtB7_14SplitInclusivehNCNvMs_NtCs41t77sgS83u_2cc15command_helpersNtB2l_15StderrForwarder17forward_available0EBS_4next0EB2n_, symObjAddr: 0x14F4, symBinAddr: 0x100041530, symSize: 0x1C8 }
  - { offset: 0x82A3A, size: 0x8, addend: 0x0, symName: __RNvXs2U_NtNtCs9f3LFPSIp77_4core5slice4iterINtB6_4IterAhj20_ENtNtNtNtBa_4iter6traits8iterator8Iterator4nextCs41t77sgS83u_2cc, symObjAddr: 0x3230, symBinAddr: 0x10004326C, symSize: 0xCC }
  - { offset: 0x82B9B, size: 0x8, addend: 0x0, symName: __RNvXs2U_NtNtCs9f3LFPSIp77_4core5slice4iterINtB6_4IterINtNtCsdze8u8oDPro_5alloc4sync3ArcNtNtCs27l1GJC5rMQ_3std4path4PathEENtNtNtNtBa_4iter6traits8iterator8Iterator4nextCs41t77sgS83u_2cc, symObjAddr: 0x32FC, symBinAddr: 0x100043338, symSize: 0xCC }
  - { offset: 0x82CFC, size: 0x8, addend: 0x0, symName: __RNvXs2U_NtNtCs9f3LFPSIp77_4core5slice4iterINtB6_4IterINtNtCsdze8u8oDPro_5alloc4sync3ArcNtNtCs27l1GJC5rMQ_3std4path4PathEENtNtNtNtBa_4iter6traits8iterator8Iterator9size_hintCs41t77sgS83u_2cc, symObjAddr: 0x33C8, symBinAddr: 0x100043404, symSize: 0xC0 }
  - { offset: 0x82DE1, size: 0x8, addend: 0x0, symName: __RNvXs2U_NtNtCs9f3LFPSIp77_4core5slice4iterINtB6_4IterINtNtCsdze8u8oDPro_5alloc4sync3ArcNtNtNtCs27l1GJC5rMQ_3std3ffi6os_str5OsStrEENtNtNtNtBa_4iter6traits8iterator8Iterator4nextCs41t77sgS83u_2cc, symObjAddr: 0x3488, symBinAddr: 0x1000434C4, symSize: 0xCC }
  - { offset: 0x82F42, size: 0x8, addend: 0x0, symName: __RNvXs2U_NtNtCs9f3LFPSIp77_4core5slice4iterINtB6_4IterNtCs41t77sgS83u_2cc6ObjectENtNtNtNtBa_4iter6traits8iterator8Iterator4nextBR_, symObjAddr: 0x3554, symBinAddr: 0x100043590, symSize: 0xCC }
  - { offset: 0x830A3, size: 0x8, addend: 0x0, symName: __RNvXs2U_NtNtCs9f3LFPSIp77_4core5slice4iterINtB6_4IterNtCs41t77sgS83u_2cc6ObjectENtNtNtNtBa_4iter6traits8iterator8Iterator9size_hintBR_, symObjAddr: 0x3620, symBinAddr: 0x10004365C, symSize: 0xC0 }
  - { offset: 0x83188, size: 0x8, addend: 0x0, symName: __RNvXs2U_NtNtCs9f3LFPSIp77_4core5slice4iterINtB6_4IterNtNtCs27l1GJC5rMQ_3std2io7IoSliceENtNtNtNtBa_4iter6traits8iterator8Iterator4nextCs41t77sgS83u_2cc, symObjAddr: 0x36E0, symBinAddr: 0x10004371C, symSize: 0xCC }
  - { offset: 0x832E9, size: 0x8, addend: 0x0, symName: __RNvXs2U_NtNtCs9f3LFPSIp77_4core5slice4iterINtB6_4IterNtNtCsdze8u8oDPro_5alloc6string6StringENtNtNtNtBa_4iter6traits8iterator8Iterator4nextCs41t77sgS83u_2cc, symObjAddr: 0x37AC, symBinAddr: 0x1000437E8, symSize: 0xCC }
  - { offset: 0x8344A, size: 0x8, addend: 0x0, symName: __RNvXs2U_NtNtCs9f3LFPSIp77_4core5slice4iterINtB6_4IterNtNtNtCs27l1GJC5rMQ_3std3ffi6os_str8OsStringENtNtNtNtBa_4iter6traits8iterator8Iterator4nextCs41t77sgS83u_2cc, symObjAddr: 0x3878, symBinAddr: 0x1000438B4, symSize: 0xCC }
  - { offset: 0x835AB, size: 0x8, addend: 0x0, symName: __RNvXs2U_NtNtCs9f3LFPSIp77_4core5slice4iterINtB6_4IterNtNtNtCs27l1GJC5rMQ_3std3ffi6os_str8OsStringENtNtNtNtBa_4iter6traits8iterator8Iterator9size_hintCs41t77sgS83u_2cc, symObjAddr: 0x3944, symBinAddr: 0x100043980, symSize: 0xC0 }
  - { offset: 0x83690, size: 0x8, addend: 0x0, symName: __RNvXs2U_NtNtCs9f3LFPSIp77_4core5slice4iterINtB6_4IterNtNtNtNtCs27l1GJC5rMQ_3std4sync4mpmc5waker5EntryENtNtNtNtBa_4iter6traits8iterator8Iterator4nextCs41t77sgS83u_2cc, symObjAddr: 0x3A04, symBinAddr: 0x100043A40, symSize: 0xCC }
  - { offset: 0x837F1, size: 0x8, addend: 0x0, symName: __RNvXs2U_NtNtCs9f3LFPSIp77_4core5slice4iterINtB6_4IterRNtNtCs27l1GJC5rMQ_3std4path4PathENtNtNtNtBa_4iter6traits8iterator8Iterator4nextCs41t77sgS83u_2cc, symObjAddr: 0x3AD0, symBinAddr: 0x100043B0C, symSize: 0xCC }
  - { offset: 0x83952, size: 0x8, addend: 0x0, symName: __RNvXs2U_NtNtCs9f3LFPSIp77_4core5slice4iterINtB6_4IterRNtNtNtCs27l1GJC5rMQ_3std3ffi6os_str8OsStringENtNtNtNtBa_4iter6traits8iterator8Iterator4nextCs41t77sgS83u_2cc, symObjAddr: 0x3B9C, symBinAddr: 0x100043BD8, symSize: 0xCC }
  - { offset: 0x83AB3, size: 0x8, addend: 0x0, symName: __RNvXs2U_NtNtCs9f3LFPSIp77_4core5slice4iterINtB6_4IterTINtNtCsdze8u8oDPro_5alloc4sync3ArcNtNtNtCs27l1GJC5rMQ_3std3ffi6os_str5OsStrEBQ_EENtNtNtNtBa_4iter6traits8iterator8Iterator4nextCs41t77sgS83u_2cc, symObjAddr: 0x3C68, symBinAddr: 0x100043CA4, symSize: 0xCC }
  - { offset: 0x83C14, size: 0x8, addend: 0x0, symName: __RNvXs2U_NtNtCs9f3LFPSIp77_4core5slice4iterINtB6_4IterTINtNtCsdze8u8oDPro_5alloc4sync3ArceEINtNtBa_6option6OptionBQ_EEENtNtNtNtBa_4iter6traits8iterator8Iterator4nextCs41t77sgS83u_2cc, symObjAddr: 0x3D34, symBinAddr: 0x100043D70, symSize: 0xCC }
  - { offset: 0x83D75, size: 0x8, addend: 0x0, symName: __RNvXs2U_NtNtCs9f3LFPSIp77_4core5slice4iterINtB6_4IterTNtNtNtCs27l1GJC5rMQ_3std3ffi6os_str8OsStringBQ_EENtNtNtNtBa_4iter6traits8iterator8Iterator4nextCs41t77sgS83u_2cc, symObjAddr: 0x3E00, symBinAddr: 0x100043E3C, symSize: 0xCC }
  - { offset: 0x83ED6, size: 0x8, addend: 0x0, symName: __RNvXs2U_NtNtCs9f3LFPSIp77_4core5slice4iterINtB6_4ItercENtNtNtNtBa_4iter6traits8iterator8Iterator4nextCs41t77sgS83u_2cc, symObjAddr: 0x3ECC, symBinAddr: 0x100043F08, symSize: 0xCC }
  - { offset: 0x84037, size: 0x8, addend: 0x0, symName: __RNvXs2U_NtNtCs9f3LFPSIp77_4core5slice4iterINtB6_4IterhENtNtNtNtBa_4iter6traits8iterator8Iterator10advance_byCs41t77sgS83u_2cc, symObjAddr: 0x3F98, symBinAddr: 0x100043FD4, symSize: 0x100 }
  - { offset: 0x8428E, size: 0x8, addend: 0x0, symName: __RNCNvXsf_NtNtCs9f3LFPSIp77_4core5slice4iterINtB7_5SplithNtNtBb_3str17IsAsciiWhitespaceENtNtNtNtBb_4iter6traits8iterator8Iterator4next0Cs41t77sgS83u_2cc, symObjAddr: 0x2408, symBinAddr: 0x100042444, symSize: 0x30 }
  - { offset: 0x842F3, size: 0x8, addend: 0x0, symName: __RNvXsf_NtNtCs9f3LFPSIp77_4core5slice4iterINtB5_5SplithNtNtB9_3str17IsAsciiWhitespaceENtNtNtNtB9_4iter6traits8iterator8Iterator4nextCs41t77sgS83u_2cc, symObjAddr: 0x42C8, symBinAddr: 0x100044304, symSize: 0x254 }
  - { offset: 0x846AA, size: 0x8, addend: 0x0, symName: __RNvXsf_NtNtCs9f3LFPSIp77_4core5slice4iterINtB5_5SplithNtNtB9_3str17IsAsciiWhitespaceENtNtNtNtB9_4iter6traits8iterator8Iterator9size_hintCs41t77sgS83u_2cc, symObjAddr: 0x451C, symBinAddr: 0x100044558, symSize: 0x84 }
  - { offset: 0x846F5, size: 0x8, addend: 0x0, symName: __RNCNvXsm_NtNtCs9f3LFPSIp77_4core5slice4iterINtB7_14SplitInclusivehNCNvMs_NtCs41t77sgS83u_2cc15command_helpersNtB19_15StderrForwarder17forward_available0ENtNtNtNtBb_4iter6traits8iterator8Iterator4next0B1b_, symObjAddr: 0x2438, symBinAddr: 0x100042474, symSize: 0x30 }
  - { offset: 0x84791, size: 0x8, addend: 0x0, symName: __RNvXsm_NtNtCs9f3LFPSIp77_4core5slice4iterINtB5_14SplitInclusivehNCNvMs_NtCs41t77sgS83u_2cc15command_helpersNtB17_15StderrForwarder17forward_available0ENtNtNtNtB9_4iter6traits8iterator8Iterator4nextB19_, symObjAddr: 0x45A0, symBinAddr: 0x1000445DC, symSize: 0x268 }
  - { offset: 0x84E0E, size: 0x8, addend: 0x0, symName: __RNvXs17_NtNtCs9f3LFPSIp77_4core5slice4iterINtB6_6ChunksRNtNtCs27l1GJC5rMQ_3std4path4PathENtNtNtNtBa_4iter6traits8iterator8Iterator4nextCs41t77sgS83u_2cc, symObjAddr: 0x30A0, symBinAddr: 0x1000430DC, symSize: 0x158 }
  - { offset: 0x8543E, size: 0x8, addend: 0x0, symName: __RNvXs_NtNtCs9f3LFPSIp77_4core5slice4iterRSReNtNtNtNtB8_4iter6traits7collect12IntoIterator9into_iterCs41t77sgS83u_2cc, symObjAddr: 0x4174, symBinAddr: 0x1000441B0, symSize: 0x50 }
  - { offset: 0x861BE, size: 0x8, addend: 0x0, symName: __RNvXs1_NtNtNtCs9f3LFPSIp77_4core3ops8function5implsQNCINvNvNtNtNtNtBb_4iter6traits8iterator8Iterator8for_each4callRNtNtCs27l1GJC5rMQ_3std4path4PathNCINvMsi_NtCsdze8u8oDPro_5alloc3vecINtB2u_3VecB1O_E14extend_trustedINtNtNtB11_8adapters5chain5ChainINtNtB3v_3map3MapINtNtNtBb_5slice4iter4IterNtCs41t77sgS83u_2cc6ObjectENCNvMs3_B4F_NtB4F_5Build8assemble0EIB3X_IB4e_INtNtB2w_4sync3ArcB1P_EENvYB5N_NtNtB9_5deref5Deref5derefEEE0E0INtB7_5FnMutTuB1O_EE8call_mutB4F_, symObjAddr: 0x31F8, symBinAddr: 0x100043234, symSize: 0x38 }
  - { offset: 0x86969, size: 0x8, addend: 0x0, symName: __RINvNtNtCs27l1GJC5rMQ_3std4sync4mpsc7channelINtNtCs9f3LFPSIp77_4core6result6ResultNtCs22zHMr2Jt3g_9jobserver8AcquiredNtNtNtB6_2io5error5ErrorEECs41t77sgS83u_2cc, symObjAddr: 0x234, symBinAddr: 0x100040270, symSize: 0x58 }
  - { offset: 0x87844, size: 0x8, addend: 0x0, symName: __RINvMs0_NtCs9f3LFPSIp77_4core3fmtNtB6_9Arguments6new_v1Kj3_KBS_ECs41t77sgS83u_2cc, symObjAddr: 0x0, symBinAddr: 0x10004003C, symSize: 0x50 }
  - { offset: 0x87890, size: 0x8, addend: 0x0, symName: __RINvMs0_NtCs9f3LFPSIp77_4core3fmtNtB6_9Arguments6new_v1Kj3_Kj2_ECs41t77sgS83u_2cc, symObjAddr: 0x50, symBinAddr: 0x10004008C, symSize: 0x54 }
  - { offset: 0x878F6, size: 0x8, addend: 0x0, symName: __RINvMs0_NtCs9f3LFPSIp77_4core3fmtNtB6_9Arguments6new_v1Kj4_KBS_ECs41t77sgS83u_2cc, symObjAddr: 0xA4, symBinAddr: 0x1000400E0, symSize: 0x50 }
  - { offset: 0x87928, size: 0x8, addend: 0x0, symName: __RINvMs0_NtCs9f3LFPSIp77_4core3fmtNtB6_9Arguments6new_v1Kj4_Kj3_ECs41t77sgS83u_2cc, symObjAddr: 0xF4, symBinAddr: 0x100040130, symSize: 0x54 }
  - { offset: 0x8798E, size: 0x8, addend: 0x0, symName: __RINvMs0_NtCs9f3LFPSIp77_4core3fmtNtB6_9Arguments6new_v1Kj5_KBS_ECs41t77sgS83u_2cc, symObjAddr: 0x148, symBinAddr: 0x100040184, symSize: 0x50 }
  - { offset: 0x88493, size: 0x8, addend: 0x0, symName: __RNvMNtNtCscXJUXcj6jCz_9hashbrown3raw4neonNtB2_5Group10match_byteCs41t77sgS83u_2cc, symObjAddr: 0x24CC, symBinAddr: 0x100042508, symSize: 0x7C }
  - { offset: 0x884E1, size: 0x8, addend: 0x0, symName: __RNvMNtNtCscXJUXcj6jCz_9hashbrown3raw4neonNtB2_5Group10match_fullCs41t77sgS83u_2cc, symObjAddr: 0x2548, symBinAddr: 0x100042584, symSize: 0x68 }
  - { offset: 0x88519, size: 0x8, addend: 0x0, symName: __RNvMNtNtCscXJUXcj6jCz_9hashbrown3raw4neonNtB2_5Group22match_empty_or_deletedCs41t77sgS83u_2cc, symObjAddr: 0x25B0, symBinAddr: 0x1000425EC, symSize: 0x68 }
  - { offset: 0x88551, size: 0x8, addend: 0x0, symName: __RNvMNtNtCscXJUXcj6jCz_9hashbrown3raw4neonNtB2_5Group44convert_special_to_empty_and_full_to_deletedCs41t77sgS83u_2cc, symObjAddr: 0x2618, symBinAddr: 0x100042654, symSize: 0x88 }
  - { offset: 0x88589, size: 0x8, addend: 0x0, symName: __RNvMs0_NtCs9f3LFPSIp77_4core3fmtNtB5_9Arguments16new_v1_formattedCs41t77sgS83u_2cc, symObjAddr: 0x26A0, symBinAddr: 0x1000426DC, symSize: 0x58 }
  - { offset: 0x88861, size: 0x8, addend: 0x0, symName: __RNvMs3_NtNtCs27l1GJC5rMQ_3std4sync4mpscINtB5_6SenderINtNtCs9f3LFPSIp77_4core6result6ResultNtCs22zHMr2Jt3g_9jobserver8AcquiredNtNtNtB9_2io5error5ErrorEE4sendCs41t77sgS83u_2cc, symObjAddr: 0x26F8, symBinAddr: 0x100042734, symSize: 0x24 }
  - { offset: 0x88930, size: 0x8, addend: 0x0, symName: __RNvMs4_NtNtCs9f3LFPSIp77_4core5slice4iterINtB5_4IterINtNtCsdze8u8oDPro_5alloc4sync3ArcNtNtCs27l1GJC5rMQ_3std4path4PathEE3newCs41t77sgS83u_2cc, symObjAddr: 0x271C, symBinAddr: 0x100042758, symSize: 0x50 }
  - { offset: 0x88B05, size: 0x8, addend: 0x0, symName: __RNvMs4_NtNtCs9f3LFPSIp77_4core5slice4iterINtB5_4IterINtNtCsdze8u8oDPro_5alloc4sync3ArcNtNtNtCs27l1GJC5rMQ_3std3ffi6os_str5OsStrEE3newCs41t77sgS83u_2cc, symObjAddr: 0x276C, symBinAddr: 0x1000427A8, symSize: 0x50 }
  - { offset: 0x88C99, size: 0x8, addend: 0x0, symName: __RNvMs4_NtNtCs9f3LFPSIp77_4core5slice4iterINtB5_4IterNtCs41t77sgS83u_2cc6ObjectE3newBQ_, symObjAddr: 0x27BC, symBinAddr: 0x1000427F8, symSize: 0x58 }
  - { offset: 0x88E47, size: 0x8, addend: 0x0, symName: __RNvMs4_NtNtCs9f3LFPSIp77_4core5slice4iterINtB5_4IterNtNtCsdze8u8oDPro_5alloc6string6StringE3newCs41t77sgS83u_2cc, symObjAddr: 0x2814, symBinAddr: 0x100042850, symSize: 0x58 }
  - { offset: 0x88FDB, size: 0x8, addend: 0x0, symName: __RNvMs4_NtNtCs9f3LFPSIp77_4core5slice4iterINtB5_4IterNtNtNtCs27l1GJC5rMQ_3std3ffi6os_str8OsStringE3newCs41t77sgS83u_2cc, symObjAddr: 0x286C, symBinAddr: 0x1000428A8, symSize: 0x58 }
  - { offset: 0x891A7, size: 0x8, addend: 0x0, symName: __RNvMs4_NtNtCs9f3LFPSIp77_4core5slice4iterINtB5_4IterTINtNtCsdze8u8oDPro_5alloc4sync3ArcNtNtNtCs27l1GJC5rMQ_3std3ffi6os_str5OsStrEBP_EE3newCs41t77sgS83u_2cc, symObjAddr: 0x28C4, symBinAddr: 0x100042900, symSize: 0x50 }
  - { offset: 0x8939A, size: 0x8, addend: 0x0, symName: __RNvMs4_NtNtCs9f3LFPSIp77_4core5slice4iterINtB5_4IterTINtNtCsdze8u8oDPro_5alloc4sync3ArceEINtNtB9_6option6OptionBP_EEE3newCs41t77sgS83u_2cc, symObjAddr: 0x2914, symBinAddr: 0x100042950, symSize: 0x50 }
  - { offset: 0x89548, size: 0x8, addend: 0x0, symName: __RNvMs4_NtNtCs9f3LFPSIp77_4core5slice4iterINtB5_4IterTNtNtNtCs27l1GJC5rMQ_3std3ffi6os_str8OsStringBP_EE3newCs41t77sgS83u_2cc, symObjAddr: 0x2964, symBinAddr: 0x1000429A0, symSize: 0x58 }
  - { offset: 0x896D0, size: 0x8, addend: 0x0, symName: __RNvMs7_NtCs9f3LFPSIp77_4core3fmtNtB5_9Formatter9write_fmtCs41t77sgS83u_2cc, symObjAddr: 0x29BC, symBinAddr: 0x1000429F8, symSize: 0x1AC }
  - { offset: 0x89792, size: 0x8, addend: 0x0, symName: __RNvMs9_NtNtCs27l1GJC5rMQ_3std4sync4mpscINtB5_8ReceiverINtNtCs9f3LFPSIp77_4core6result6ResultNtCs22zHMr2Jt3g_9jobserver8AcquiredNtNtNtB9_2io5error5ErrorEE8try_recvCs41t77sgS83u_2cc, symObjAddr: 0x2B68, symBinAddr: 0x100042BA4, symSize: 0x24 }
  - { offset: 0x8AD2D, size: 0x8, addend: 0x0, symName: __RINvMs0_NtNtNtCs27l1GJC5rMQ_3std11collections4hash3mapINtB6_7HashMapINtNtCsdze8u8oDPro_5alloc5boxed3BoxNtNtBc_4path4PathENtNtCs41t77sgS83u_2cc4tool10ToolFamilyE3getB1D_EB1Z_, symObjAddr: 0x0, symBinAddr: 0x100044894, symSize: 0x74 }
  - { offset: 0x8B4BB, size: 0x8, addend: 0x0, symName: __RNCNvMs1_NtNtNtCs27l1GJC5rMQ_3std4sync4mpmc4zeroINtB7_7ChannelINtNtCs9f3LFPSIp77_4core6result6ResultNtCs22zHMr2Jt3g_9jobserver8AcquiredNtNtNtBd_2io5error5ErrorEE4send0Cs41t77sgS83u_2cc, symObjAddr: 0x8E0, symBinAddr: 0x100045174, symSize: 0x67C }
  - { offset: 0x8BE3C, size: 0x8, addend: 0x0, symName: __RNCNvMsd_NtNtCs27l1GJC5rMQ_3std4sync6rwlockINtB7_15RwLockReadGuardINtNtNtNtBb_11collections4hash3map7HashMapINtNtCsdze8u8oDPro_5alloc5boxed3BoxNtNtBb_4path4PathENtNtCs41t77sgS83u_2cc4tool10ToolFamilyEE3new0B2D_, symObjAddr: 0xF5C, symBinAddr: 0x1000457F0, symSize: 0x54 }
  - { offset: 0x8BEAC, size: 0x8, addend: 0x0, symName: __RNCNvMsd_NtNtCs27l1GJC5rMQ_3std4sync6rwlockINtB7_15RwLockReadGuardINtNtNtNtBb_11collections4hash3map7HashMapINtNtCsdze8u8oDPro_5alloc5boxed3BoxeEINtNtB1N_4sync3ArcNtNtNtBb_3ffi6os_str5OsStrEEE3new0Cs41t77sgS83u_2cc, symObjAddr: 0xFB0, symBinAddr: 0x100045844, symSize: 0x54 }
  - { offset: 0x8BF1C, size: 0x8, addend: 0x0, symName: __RNCNvMsd_NtNtCs27l1GJC5rMQ_3std4sync6rwlockINtB7_15RwLockReadGuardINtNtNtNtBb_11collections4hash3map7HashMapINtNtCsdze8u8oDPro_5alloc5boxed3BoxeEINtNtB1N_4sync3ArceEEE3new0Cs41t77sgS83u_2cc, symObjAddr: 0x1004, symBinAddr: 0x100045898, symSize: 0x54 }
  - { offset: 0x8BF8C, size: 0x8, addend: 0x0, symName: __RNCNvMsd_NtNtCs27l1GJC5rMQ_3std4sync6rwlockINtB7_15RwLockReadGuardINtNtNtNtBb_11collections4hash3map7HashMapINtNtCsdze8u8oDPro_5alloc5boxed3BoxeEINtNtCs9f3LFPSIp77_4core6option6OptionINtNtB1N_4sync3ArcNtNtNtBb_3ffi6os_str5OsStrEEEE3new0Cs41t77sgS83u_2cc, symObjAddr: 0x1058, symBinAddr: 0x1000458EC, symSize: 0x54 }
  - { offset: 0x8BFFC, size: 0x8, addend: 0x0, symName: __RNCNvMsd_NtNtCs27l1GJC5rMQ_3std4sync6rwlockINtB7_15RwLockReadGuardINtNtNtNtBb_11collections4hash3map7HashMapNtCs41t77sgS83u_2cc12CompilerFlagbEE3new0B1K_, symObjAddr: 0x10AC, symBinAddr: 0x100045940, symSize: 0x54 }
  - { offset: 0x8C078, size: 0x8, addend: 0x0, symName: __RNCNvMse_NtNtCs27l1GJC5rMQ_3std4sync6rwlockINtB7_16RwLockWriteGuardINtNtNtNtBb_11collections4hash3map7HashMapINtNtCsdze8u8oDPro_5alloc5boxed3BoxNtNtBb_4path4PathENtNtCs41t77sgS83u_2cc4tool10ToolFamilyEE3new0B2E_, symObjAddr: 0x1100, symBinAddr: 0x100045994, symSize: 0x18 }
  - { offset: 0x8C0C0, size: 0x8, addend: 0x0, symName: __RNCNvMse_NtNtCs27l1GJC5rMQ_3std4sync6rwlockINtB7_16RwLockWriteGuardINtNtNtNtBb_11collections4hash3map7HashMapINtNtCsdze8u8oDPro_5alloc5boxed3BoxeEINtNtB1O_4sync3ArcNtNtNtBb_3ffi6os_str5OsStrEEE3new0Cs41t77sgS83u_2cc, symObjAddr: 0x1118, symBinAddr: 0x1000459AC, symSize: 0x18 }
  - { offset: 0x8C108, size: 0x8, addend: 0x0, symName: __RNCNvMse_NtNtCs27l1GJC5rMQ_3std4sync6rwlockINtB7_16RwLockWriteGuardINtNtNtNtBb_11collections4hash3map7HashMapINtNtCsdze8u8oDPro_5alloc5boxed3BoxeEINtNtB1O_4sync3ArceEEE3new0Cs41t77sgS83u_2cc, symObjAddr: 0x1130, symBinAddr: 0x1000459C4, symSize: 0x18 }
  - { offset: 0x8C150, size: 0x8, addend: 0x0, symName: __RNCNvMse_NtNtCs27l1GJC5rMQ_3std4sync6rwlockINtB7_16RwLockWriteGuardINtNtNtNtBb_11collections4hash3map7HashMapINtNtCsdze8u8oDPro_5alloc5boxed3BoxeEINtNtCs9f3LFPSIp77_4core6option6OptionINtNtB1O_4sync3ArcNtNtNtBb_3ffi6os_str5OsStrEEEE3new0Cs41t77sgS83u_2cc, symObjAddr: 0x1148, symBinAddr: 0x1000459DC, symSize: 0x18 }
  - { offset: 0x8C198, size: 0x8, addend: 0x0, symName: __RNCNvMse_NtNtCs27l1GJC5rMQ_3std4sync6rwlockINtB7_16RwLockWriteGuardINtNtNtNtBb_11collections4hash3map7HashMapNtCs41t77sgS83u_2cc12CompilerFlagbEE3new0B1L_, symObjAddr: 0x1160, symBinAddr: 0x1000459F4, symSize: 0x18 }
  - { offset: 0x8C8F9, size: 0x8, addend: 0x0, symName: __RNvXsn_NtNtCs27l1GJC5rMQ_3std4sync6rwlockINtB5_15RwLockReadGuardINtNtNtNtB9_11collections4hash3map7HashMapINtNtCsdze8u8oDPro_5alloc5boxed3BoxNtNtB9_4path4PathENtNtCs41t77sgS83u_2cc4tool10ToolFamilyEENtNtNtCs9f3LFPSIp77_4core3ops5deref5Deref5derefB2B_, symObjAddr: 0x5214, symBinAddr: 0x100049AA8, symSize: 0x28 }
  - { offset: 0x8C96C, size: 0x8, addend: 0x0, symName: __RNvXsn_NtNtCs27l1GJC5rMQ_3std4sync6rwlockINtB5_15RwLockReadGuardINtNtNtNtB9_11collections4hash3map7HashMapINtNtCsdze8u8oDPro_5alloc5boxed3BoxeEINtNtB1L_4sync3ArcNtNtNtB9_3ffi6os_str5OsStrEEENtNtNtCs9f3LFPSIp77_4core3ops5deref5Deref5derefCs41t77sgS83u_2cc, symObjAddr: 0x523C, symBinAddr: 0x100049AD0, symSize: 0x28 }
  - { offset: 0x8C9DF, size: 0x8, addend: 0x0, symName: __RNvXsn_NtNtCs27l1GJC5rMQ_3std4sync6rwlockINtB5_15RwLockReadGuardINtNtNtNtB9_11collections4hash3map7HashMapINtNtCsdze8u8oDPro_5alloc5boxed3BoxeEINtNtB1L_4sync3ArceEEENtNtNtCs9f3LFPSIp77_4core3ops5deref5Deref5derefCs41t77sgS83u_2cc, symObjAddr: 0x5264, symBinAddr: 0x100049AF8, symSize: 0x28 }
  - { offset: 0x8CA52, size: 0x8, addend: 0x0, symName: __RNvXsn_NtNtCs27l1GJC5rMQ_3std4sync6rwlockINtB5_15RwLockReadGuardINtNtNtNtB9_11collections4hash3map7HashMapINtNtCsdze8u8oDPro_5alloc5boxed3BoxeEINtNtCs9f3LFPSIp77_4core6option6OptionINtNtB1L_4sync3ArcNtNtNtB9_3ffi6os_str5OsStrEEEENtNtNtB2m_3ops5deref5Deref5derefCs41t77sgS83u_2cc, symObjAddr: 0x528C, symBinAddr: 0x100049B20, symSize: 0x28 }
  - { offset: 0x8CAC5, size: 0x8, addend: 0x0, symName: __RNvXsn_NtNtCs27l1GJC5rMQ_3std4sync6rwlockINtB5_15RwLockReadGuardINtNtNtNtB9_11collections4hash3map7HashMapNtCs41t77sgS83u_2cc12CompilerFlagbEENtNtNtCs9f3LFPSIp77_4core3ops5deref5Deref5derefB1I_, symObjAddr: 0x52B4, symBinAddr: 0x100049B48, symSize: 0x28 }
  - { offset: 0x8CB3E, size: 0x8, addend: 0x0, symName: __RNvXsa_NtNtCs27l1GJC5rMQ_3std4sync6rwlockINtB5_6RwLockINtNtNtNtB9_11collections4hash3map7HashMapINtNtCsdze8u8oDPro_5alloc5boxed3BoxNtNtB9_4path4PathENtNtCs41t77sgS83u_2cc4tool10ToolFamilyEENtNtCs9f3LFPSIp77_4core3fmt5Debug3fmtB2r_, symObjAddr: 0x41B8, symBinAddr: 0x100048A4C, symSize: 0x278 }
  - { offset: 0x8CD19, size: 0x8, addend: 0x0, symName: __RNvXsa_NtNtCs27l1GJC5rMQ_3std4sync6rwlockINtB5_6RwLockINtNtNtNtB9_11collections4hash3map7HashMapINtNtCsdze8u8oDPro_5alloc5boxed3BoxeEINtNtB1B_4sync3ArcNtNtNtB9_3ffi6os_str5OsStrEEENtNtCs9f3LFPSIp77_4core3fmt5Debug3fmtCs41t77sgS83u_2cc, symObjAddr: 0x4430, symBinAddr: 0x100048CC4, symSize: 0x278 }
  - { offset: 0x8CEF4, size: 0x8, addend: 0x0, symName: __RNvXsa_NtNtCs27l1GJC5rMQ_3std4sync6rwlockINtB5_6RwLockINtNtNtNtB9_11collections4hash3map7HashMapINtNtCsdze8u8oDPro_5alloc5boxed3BoxeEINtNtB1B_4sync3ArceEEENtNtCs9f3LFPSIp77_4core3fmt5Debug3fmtCs41t77sgS83u_2cc, symObjAddr: 0x46A8, symBinAddr: 0x100048F3C, symSize: 0x278 }
  - { offset: 0x8D0CF, size: 0x8, addend: 0x0, symName: __RNvXsa_NtNtCs27l1GJC5rMQ_3std4sync6rwlockINtB5_6RwLockINtNtNtNtB9_11collections4hash3map7HashMapINtNtCsdze8u8oDPro_5alloc5boxed3BoxeEINtNtCs9f3LFPSIp77_4core6option6OptionINtNtB1B_4sync3ArcNtNtNtB9_3ffi6os_str5OsStrEEEENtNtB2c_3fmt5Debug3fmtCs41t77sgS83u_2cc, symObjAddr: 0x4920, symBinAddr: 0x1000491B4, symSize: 0x278 }
  - { offset: 0x8D2AA, size: 0x8, addend: 0x0, symName: __RNvXsa_NtNtCs27l1GJC5rMQ_3std4sync6rwlockINtB5_6RwLockINtNtNtNtB9_11collections4hash3map7HashMapNtCs41t77sgS83u_2cc12CompilerFlagbEENtNtCs9f3LFPSIp77_4core3fmt5Debug3fmtB1y_, symObjAddr: 0x4B98, symBinAddr: 0x10004942C, symSize: 0x278 }
  - { offset: 0x8D48B, size: 0x8, addend: 0x0, symName: __RNvXsb_NtNtCs27l1GJC5rMQ_3std4sync6rwlockINtB5_6RwLockINtNtNtNtB9_11collections4hash3map7HashMapINtNtCsdze8u8oDPro_5alloc5boxed3BoxNtNtB9_4path4PathENtNtCs41t77sgS83u_2cc4tool10ToolFamilyEENtNtCs9f3LFPSIp77_4core7default7Default7defaultB2r_, symObjAddr: 0x4E10, symBinAddr: 0x1000496A4, symSize: 0x90 }
  - { offset: 0x8D567, size: 0x8, addend: 0x0, symName: __RNvXsb_NtNtCs27l1GJC5rMQ_3std4sync6rwlockINtB5_6RwLockINtNtNtNtB9_11collections4hash3map7HashMapINtNtCsdze8u8oDPro_5alloc5boxed3BoxeEINtNtB1B_4sync3ArcNtNtNtB9_3ffi6os_str5OsStrEEENtNtCs9f3LFPSIp77_4core7default7Default7defaultCs41t77sgS83u_2cc, symObjAddr: 0x4EA0, symBinAddr: 0x100049734, symSize: 0x90 }
  - { offset: 0x8D643, size: 0x8, addend: 0x0, symName: __RNvXsb_NtNtCs27l1GJC5rMQ_3std4sync6rwlockINtB5_6RwLockINtNtNtNtB9_11collections4hash3map7HashMapINtNtCsdze8u8oDPro_5alloc5boxed3BoxeEINtNtB1B_4sync3ArceEEENtNtCs9f3LFPSIp77_4core7default7Default7defaultCs41t77sgS83u_2cc, symObjAddr: 0x4F30, symBinAddr: 0x1000497C4, symSize: 0x90 }
  - { offset: 0x8D71F, size: 0x8, addend: 0x0, symName: __RNvXsb_NtNtCs27l1GJC5rMQ_3std4sync6rwlockINtB5_6RwLockINtNtNtNtB9_11collections4hash3map7HashMapINtNtCsdze8u8oDPro_5alloc5boxed3BoxeEINtNtCs9f3LFPSIp77_4core6option6OptionINtNtB1B_4sync3ArcNtNtNtB9_3ffi6os_str5OsStrEEEENtNtB2c_7default7Default7defaultCs41t77sgS83u_2cc, symObjAddr: 0x4FC0, symBinAddr: 0x100049854, symSize: 0x90 }
  - { offset: 0x8D7FB, size: 0x8, addend: 0x0, symName: __RNvXsb_NtNtCs27l1GJC5rMQ_3std4sync6rwlockINtB5_6RwLockINtNtNtNtB9_11collections4hash3map7HashMapNtCs41t77sgS83u_2cc12CompilerFlagbEENtNtCs9f3LFPSIp77_4core7default7Default7defaultB1y_, symObjAddr: 0x5050, symBinAddr: 0x1000498E4, symSize: 0x90 }
  - { offset: 0x8D8DD, size: 0x8, addend: 0x0, symName: __RNvXsp_NtNtCs27l1GJC5rMQ_3std4sync6rwlockINtB5_16RwLockWriteGuardINtNtNtNtB9_11collections4hash3map7HashMapINtNtCsdze8u8oDPro_5alloc5boxed3BoxNtNtB9_4path4PathENtNtCs41t77sgS83u_2cc4tool10ToolFamilyEENtNtNtCs9f3LFPSIp77_4core3ops5deref8DerefMut9deref_mutB2C_, symObjAddr: 0x52DC, symBinAddr: 0x100049B70, symSize: 0x28 }
  - { offset: 0x8D932, size: 0x8, addend: 0x0, symName: __RNvXsp_NtNtCs27l1GJC5rMQ_3std4sync6rwlockINtB5_16RwLockWriteGuardINtNtNtNtB9_11collections4hash3map7HashMapINtNtCsdze8u8oDPro_5alloc5boxed3BoxeEINtNtB1M_4sync3ArcNtNtNtB9_3ffi6os_str5OsStrEEENtNtNtCs9f3LFPSIp77_4core3ops5deref8DerefMut9deref_mutCs41t77sgS83u_2cc, symObjAddr: 0x5304, symBinAddr: 0x100049B98, symSize: 0x28 }
  - { offset: 0x8D987, size: 0x8, addend: 0x0, symName: __RNvXsp_NtNtCs27l1GJC5rMQ_3std4sync6rwlockINtB5_16RwLockWriteGuardINtNtNtNtB9_11collections4hash3map7HashMapINtNtCsdze8u8oDPro_5alloc5boxed3BoxeEINtNtB1M_4sync3ArceEEENtNtNtCs9f3LFPSIp77_4core3ops5deref8DerefMut9deref_mutCs41t77sgS83u_2cc, symObjAddr: 0x532C, symBinAddr: 0x100049BC0, symSize: 0x28 }
  - { offset: 0x8D9DC, size: 0x8, addend: 0x0, symName: __RNvXsp_NtNtCs27l1GJC5rMQ_3std4sync6rwlockINtB5_16RwLockWriteGuardINtNtNtNtB9_11collections4hash3map7HashMapINtNtCsdze8u8oDPro_5alloc5boxed3BoxeEINtNtCs9f3LFPSIp77_4core6option6OptionINtNtB1M_4sync3ArcNtNtNtB9_3ffi6os_str5OsStrEEEENtNtNtB2n_3ops5deref8DerefMut9deref_mutCs41t77sgS83u_2cc, symObjAddr: 0x5354, symBinAddr: 0x100049BE8, symSize: 0x28 }
  - { offset: 0x8DA31, size: 0x8, addend: 0x0, symName: __RNvXsp_NtNtCs27l1GJC5rMQ_3std4sync6rwlockINtB5_16RwLockWriteGuardINtNtNtNtB9_11collections4hash3map7HashMapNtCs41t77sgS83u_2cc12CompilerFlagbEENtNtNtCs9f3LFPSIp77_4core3ops5deref8DerefMut9deref_mutB1J_, symObjAddr: 0x537C, symBinAddr: 0x100049C10, symSize: 0x28 }
  - { offset: 0x8DA8C, size: 0x8, addend: 0x0, symName: __RNvXst_NtNtCs27l1GJC5rMQ_3std4sync6rwlockINtB5_15RwLockReadGuardINtNtNtNtB9_11collections4hash3map7HashMapINtNtCsdze8u8oDPro_5alloc5boxed3BoxNtNtB9_4path4PathENtNtCs41t77sgS83u_2cc4tool10ToolFamilyEENtNtNtCs9f3LFPSIp77_4core3ops4drop4Drop4dropB2B_, symObjAddr: 0x53A4, symBinAddr: 0x100049C38, symSize: 0x60 }
  - { offset: 0x8DAEB, size: 0x8, addend: 0x0, symName: __RNvXst_NtNtCs27l1GJC5rMQ_3std4sync6rwlockINtB5_15RwLockReadGuardINtNtNtNtB9_11collections4hash3map7HashMapINtNtCsdze8u8oDPro_5alloc5boxed3BoxeEINtNtB1L_4sync3ArcNtNtNtB9_3ffi6os_str5OsStrEEENtNtNtCs9f3LFPSIp77_4core3ops4drop4Drop4dropCs41t77sgS83u_2cc, symObjAddr: 0x5404, symBinAddr: 0x100049C98, symSize: 0x60 }
  - { offset: 0x8DB4A, size: 0x8, addend: 0x0, symName: __RNvXst_NtNtCs27l1GJC5rMQ_3std4sync6rwlockINtB5_15RwLockReadGuardINtNtNtNtB9_11collections4hash3map7HashMapINtNtCsdze8u8oDPro_5alloc5boxed3BoxeEINtNtB1L_4sync3ArceEEENtNtNtCs9f3LFPSIp77_4core3ops4drop4Drop4dropCs41t77sgS83u_2cc, symObjAddr: 0x5464, symBinAddr: 0x100049CF8, symSize: 0x60 }
  - { offset: 0x8DBA9, size: 0x8, addend: 0x0, symName: __RNvXst_NtNtCs27l1GJC5rMQ_3std4sync6rwlockINtB5_15RwLockReadGuardINtNtNtNtB9_11collections4hash3map7HashMapINtNtCsdze8u8oDPro_5alloc5boxed3BoxeEINtNtCs9f3LFPSIp77_4core6option6OptionINtNtB1L_4sync3ArcNtNtNtB9_3ffi6os_str5OsStrEEEENtNtNtB2m_3ops4drop4Drop4dropCs41t77sgS83u_2cc, symObjAddr: 0x54C4, symBinAddr: 0x100049D58, symSize: 0x60 }
  - { offset: 0x8DC08, size: 0x8, addend: 0x0, symName: __RNvXst_NtNtCs27l1GJC5rMQ_3std4sync6rwlockINtB5_15RwLockReadGuardINtNtNtNtB9_11collections4hash3map7HashMapNtCs41t77sgS83u_2cc12CompilerFlagbEENtNtNtCs9f3LFPSIp77_4core3ops4drop4Drop4dropB1I_, symObjAddr: 0x5524, symBinAddr: 0x100049DB8, symSize: 0x60 }
  - { offset: 0x8DC6D, size: 0x8, addend: 0x0, symName: __RNvXsu_NtNtCs27l1GJC5rMQ_3std4sync6rwlockINtB5_16RwLockWriteGuardINtNtNtNtB9_11collections4hash3map7HashMapINtNtCsdze8u8oDPro_5alloc5boxed3BoxNtNtB9_4path4PathENtNtCs41t77sgS83u_2cc4tool10ToolFamilyEENtNtNtCs9f3LFPSIp77_4core3ops4drop4Drop4dropB2C_, symObjAddr: 0x5584, symBinAddr: 0x100049E18, symSize: 0xB8 }
  - { offset: 0x8DD19, size: 0x8, addend: 0x0, symName: __RNvXsu_NtNtCs27l1GJC5rMQ_3std4sync6rwlockINtB5_16RwLockWriteGuardINtNtNtNtB9_11collections4hash3map7HashMapINtNtCsdze8u8oDPro_5alloc5boxed3BoxeEINtNtB1M_4sync3ArcNtNtNtB9_3ffi6os_str5OsStrEEENtNtNtCs9f3LFPSIp77_4core3ops4drop4Drop4dropCs41t77sgS83u_2cc, symObjAddr: 0x563C, symBinAddr: 0x100049ED0, symSize: 0xB8 }
  - { offset: 0x8DDC5, size: 0x8, addend: 0x0, symName: __RNvXsu_NtNtCs27l1GJC5rMQ_3std4sync6rwlockINtB5_16RwLockWriteGuardINtNtNtNtB9_11collections4hash3map7HashMapINtNtCsdze8u8oDPro_5alloc5boxed3BoxeEINtNtB1M_4sync3ArceEEENtNtNtCs9f3LFPSIp77_4core3ops4drop4Drop4dropCs41t77sgS83u_2cc, symObjAddr: 0x56F4, symBinAddr: 0x100049F88, symSize: 0xB8 }
  - { offset: 0x8DE71, size: 0x8, addend: 0x0, symName: __RNvXsu_NtNtCs27l1GJC5rMQ_3std4sync6rwlockINtB5_16RwLockWriteGuardINtNtNtNtB9_11collections4hash3map7HashMapINtNtCsdze8u8oDPro_5alloc5boxed3BoxeEINtNtCs9f3LFPSIp77_4core6option6OptionINtNtB1M_4sync3ArcNtNtNtB9_3ffi6os_str5OsStrEEEENtNtNtB2n_3ops4drop4Drop4dropCs41t77sgS83u_2cc, symObjAddr: 0x57AC, symBinAddr: 0x10004A040, symSize: 0xB8 }
  - { offset: 0x8DF1D, size: 0x8, addend: 0x0, symName: __RNvXsu_NtNtCs27l1GJC5rMQ_3std4sync6rwlockINtB5_16RwLockWriteGuardINtNtNtNtB9_11collections4hash3map7HashMapNtCs41t77sgS83u_2cc12CompilerFlagbEENtNtNtCs9f3LFPSIp77_4core3ops4drop4Drop4dropB1J_, symObjAddr: 0x5864, symBinAddr: 0x10004A0F8, symSize: 0xB8 }
  - { offset: 0x8E821, size: 0x8, addend: 0x0, symName: __RNvXs5_NtNtNtCs27l1GJC5rMQ_3std11collections4hash3mapINtB5_7HashMapINtNtCsdze8u8oDPro_5alloc5boxed3BoxNtNtBb_4path4PathENtNtCs41t77sgS83u_2cc4tool10ToolFamilyENtNtCs9f3LFPSIp77_4core3fmt5Debug3fmtB1Y_, symObjAddr: 0x3858, symBinAddr: 0x1000480EC, symSize: 0x74 }
  - { offset: 0x8E897, size: 0x8, addend: 0x0, symName: __RNvXs5_NtNtNtCs27l1GJC5rMQ_3std11collections4hash3mapINtB5_7HashMapINtNtCsdze8u8oDPro_5alloc5boxed3BoxeEINtNtB18_4sync3ArcNtNtNtBb_3ffi6os_str5OsStrEENtNtCs9f3LFPSIp77_4core3fmt5Debug3fmtCs41t77sgS83u_2cc, symObjAddr: 0x38CC, symBinAddr: 0x100048160, symSize: 0x74 }
  - { offset: 0x8E90D, size: 0x8, addend: 0x0, symName: __RNvXs5_NtNtNtCs27l1GJC5rMQ_3std11collections4hash3mapINtB5_7HashMapINtNtCsdze8u8oDPro_5alloc5boxed3BoxeEINtNtB18_4sync3ArceEENtNtCs9f3LFPSIp77_4core3fmt5Debug3fmtCs41t77sgS83u_2cc, symObjAddr: 0x3940, symBinAddr: 0x1000481D4, symSize: 0x74 }
  - { offset: 0x8E983, size: 0x8, addend: 0x0, symName: __RNvXs5_NtNtNtCs27l1GJC5rMQ_3std11collections4hash3mapINtB5_7HashMapINtNtCsdze8u8oDPro_5alloc5boxed3BoxeEINtNtCs9f3LFPSIp77_4core6option6OptionINtNtB18_4sync3ArcNtNtNtBb_3ffi6os_str5OsStrEEENtNtB1J_3fmt5Debug3fmtCs41t77sgS83u_2cc, symObjAddr: 0x39B4, symBinAddr: 0x100048248, symSize: 0x74 }
  - { offset: 0x8E9F9, size: 0x8, addend: 0x0, symName: __RNvXs5_NtNtNtCs27l1GJC5rMQ_3std11collections4hash3mapINtB5_7HashMapNtCs41t77sgS83u_2cc12CompilerFlagbENtNtCs9f3LFPSIp77_4core3fmt5Debug3fmtB15_, symObjAddr: 0x3A28, symBinAddr: 0x1000482BC, symSize: 0x74 }
  - { offset: 0x8EB11, size: 0x8, addend: 0x0, symName: __RNvXs6_NtNtNtCs27l1GJC5rMQ_3std11collections4hash3mapINtB5_7HashMapINtNtCsdze8u8oDPro_5alloc5boxed3BoxNtNtBb_4path4PathENtNtCs41t77sgS83u_2cc4tool10ToolFamilyENtNtCs9f3LFPSIp77_4core7default7Default7defaultB1Y_, symObjAddr: 0x3B98, symBinAddr: 0x10004842C, symSize: 0x74 }
  - { offset: 0x8EB9C, size: 0x8, addend: 0x0, symName: __RNvXs6_NtNtNtCs27l1GJC5rMQ_3std11collections4hash3mapINtB5_7HashMapINtNtCsdze8u8oDPro_5alloc5boxed3BoxeEINtNtB18_4sync3ArcNtNtNtBb_3ffi6os_str5OsStrEENtNtCs9f3LFPSIp77_4core7default7Default7defaultCs41t77sgS83u_2cc, symObjAddr: 0x3C0C, symBinAddr: 0x1000484A0, symSize: 0x74 }
  - { offset: 0x8EC27, size: 0x8, addend: 0x0, symName: __RNvXs6_NtNtNtCs27l1GJC5rMQ_3std11collections4hash3mapINtB5_7HashMapINtNtCsdze8u8oDPro_5alloc5boxed3BoxeEINtNtB18_4sync3ArceEENtNtCs9f3LFPSIp77_4core7default7Default7defaultCs41t77sgS83u_2cc, symObjAddr: 0x3C80, symBinAddr: 0x100048514, symSize: 0x74 }
  - { offset: 0x8ECB2, size: 0x8, addend: 0x0, symName: __RNvXs6_NtNtNtCs27l1GJC5rMQ_3std11collections4hash3mapINtB5_7HashMapINtNtCsdze8u8oDPro_5alloc5boxed3BoxeEINtNtCs9f3LFPSIp77_4core6option6OptionINtNtB18_4sync3ArcNtNtNtBb_3ffi6os_str5OsStrEEENtNtB1J_7default7Default7defaultCs41t77sgS83u_2cc, symObjAddr: 0x3CF4, symBinAddr: 0x100048588, symSize: 0x74 }
  - { offset: 0x8ED3D, size: 0x8, addend: 0x0, symName: __RNvXs6_NtNtNtCs27l1GJC5rMQ_3std11collections4hash3mapINtB5_7HashMapNtCs41t77sgS83u_2cc12CompilerFlagbENtNtCs9f3LFPSIp77_4core7default7Default7defaultB15_, symObjAddr: 0x3D68, symBinAddr: 0x1000485FC, symSize: 0x74 }
  - { offset: 0x8EDCE, size: 0x8, addend: 0x0, symName: __RNvXsJ_NtNtNtCs27l1GJC5rMQ_3std11collections4hash3mapINtB5_4IterINtNtCsdze8u8oDPro_5alloc5boxed3BoxNtNtBb_4path4PathENtNtCs41t77sgS83u_2cc4tool10ToolFamilyENtNtNtNtCs9f3LFPSIp77_4core4iter6traits8iterator8Iterator4nextB1V_, symObjAddr: 0x3EF4, symBinAddr: 0x100048788, symSize: 0x24 }
  - { offset: 0x8EE0E, size: 0x8, addend: 0x0, symName: __RNvXsJ_NtNtNtCs27l1GJC5rMQ_3std11collections4hash3mapINtB5_4IterINtNtCsdze8u8oDPro_5alloc5boxed3BoxeEINtNtB15_4sync3ArcNtNtNtBb_3ffi6os_str5OsStrEENtNtNtNtCs9f3LFPSIp77_4core4iter6traits8iterator8Iterator4nextCs41t77sgS83u_2cc, symObjAddr: 0x3F18, symBinAddr: 0x1000487AC, symSize: 0x24 }
  - { offset: 0x8EE4E, size: 0x8, addend: 0x0, symName: __RNvXsJ_NtNtNtCs27l1GJC5rMQ_3std11collections4hash3mapINtB5_4IterINtNtCsdze8u8oDPro_5alloc5boxed3BoxeEINtNtB15_4sync3ArceEENtNtNtNtCs9f3LFPSIp77_4core4iter6traits8iterator8Iterator4nextCs41t77sgS83u_2cc, symObjAddr: 0x3F3C, symBinAddr: 0x1000487D0, symSize: 0x24 }
  - { offset: 0x8EE8E, size: 0x8, addend: 0x0, symName: __RNvXsJ_NtNtNtCs27l1GJC5rMQ_3std11collections4hash3mapINtB5_4IterINtNtCsdze8u8oDPro_5alloc5boxed3BoxeEINtNtCs9f3LFPSIp77_4core6option6OptionINtNtB15_4sync3ArcNtNtNtBb_3ffi6os_str5OsStrEEENtNtNtNtB1G_4iter6traits8iterator8Iterator4nextCs41t77sgS83u_2cc, symObjAddr: 0x3F60, symBinAddr: 0x1000487F4, symSize: 0x24 }
  - { offset: 0x8EECE, size: 0x8, addend: 0x0, symName: __RNvXsJ_NtNtNtCs27l1GJC5rMQ_3std11collections4hash3mapINtB5_4IterNtCs41t77sgS83u_2cc12CompilerFlagbENtNtNtNtCs9f3LFPSIp77_4core4iter6traits8iterator8Iterator4nextB12_, symObjAddr: 0x3F84, symBinAddr: 0x100048818, symSize: 0x24 }
  - { offset: 0x8F350, size: 0x8, addend: 0x0, symName: __RNvXsj_NtNtCs27l1GJC5rMQ_3std2io5errorNtB5_9ErrorKindNtNtCs9f3LFPSIp77_4core3cmp9PartialEq2eqCs41t77sgS83u_2cc, symObjAddr: 0x51E0, symBinAddr: 0x100049A74, symSize: 0x34 }
  - { offset: 0x8F85F, size: 0x8, addend: 0x0, symName: __RNvXs1m_NtCsdze8u8oDPro_5alloc6stringINtNtB8_6borrow3CoweEINtNtCs9f3LFPSIp77_4core3cmp9PartialEqReE2eqCs41t77sgS83u_2cc, symObjAddr: 0x3658, symBinAddr: 0x100047EEC, symSize: 0xE0 }
  - { offset: 0x8F9C4, size: 0x8, addend: 0x0, symName: __RNcNtINtNtCsdze8u8oDPro_5alloc6borrow3CowNtNtCs27l1GJC5rMQ_3std4path4PathE5Owned0Cs41t77sgS83u_2cc, symObjAddr: 0x1178, symBinAddr: 0x100045A0C, symSize: 0x18 }
  - { offset: 0x8F9F5, size: 0x8, addend: 0x0, symName: __RNcNtINtNtCsdze8u8oDPro_5alloc6borrow3CoweE5Owned0Cs41t77sgS83u_2cc, symObjAddr: 0x11BC, symBinAddr: 0x100045A50, symSize: 0x18 }
  - { offset: 0x8FA2C, size: 0x8, addend: 0x0, symName: __RNcNtINtNtCsdze8u8oDPro_5alloc6borrow3CowNtNtCs27l1GJC5rMQ_3std4path4PathE8Borrowed0Cs41t77sgS83u_2cc, symObjAddr: 0x1190, symBinAddr: 0x100045A24, symSize: 0x2C }
  - { offset: 0x8FA5D, size: 0x8, addend: 0x0, symName: __RNcNtINtNtCsdze8u8oDPro_5alloc6borrow3CoweE8Borrowed0Cs41t77sgS83u_2cc, symObjAddr: 0x11D4, symBinAddr: 0x100045A68, symSize: 0x2C }
  - { offset: 0x8FA95, size: 0x8, addend: 0x0, symName: __RNvXs0_NtCsdze8u8oDPro_5alloc6borrowINtB5_3CoweENtNtCs9f3LFPSIp77_4core5clone5Clone5cloneCs41t77sgS83u_2cc, symObjAddr: 0x34C4, symBinAddr: 0x100047D58, symSize: 0xA8 }
  - { offset: 0x8FB6C, size: 0x8, addend: 0x0, symName: __RNvXs2_NtCsdze8u8oDPro_5alloc6borrowINtB5_3CowNtNtCs27l1GJC5rMQ_3std4path4PathENtNtNtCs9f3LFPSIp77_4core3ops5deref5Deref5derefCs41t77sgS83u_2cc, symObjAddr: 0x3738, symBinAddr: 0x100047FCC, symSize: 0x80 }
  - { offset: 0x8FBDF, size: 0x8, addend: 0x0, symName: __RNvXs2_NtCsdze8u8oDPro_5alloc6borrowINtB5_3CoweENtNtNtCs9f3LFPSIp77_4core3ops5deref5Deref5derefCs41t77sgS83u_2cc, symObjAddr: 0x37B8, symBinAddr: 0x10004804C, symSize: 0x80 }
  - { offset: 0x8FDB9, size: 0x8, addend: 0x0, symName: __RNvXs6_NtCsdze8u8oDPro_5alloc6borrowINtB5_3CoweENtNtCs9f3LFPSIp77_4core3cmp9PartialEq2eqCs41t77sgS83u_2cc, symObjAddr: 0x3A9C, symBinAddr: 0x100048330, symSize: 0xFC }
  - { offset: 0x8FEA4, size: 0x8, addend: 0x0, symName: __RNvXs8_NtCsdze8u8oDPro_5alloc6borrowINtB5_3CoweENtNtCs9f3LFPSIp77_4core3fmt5Debug3fmtCs41t77sgS83u_2cc, symObjAddr: 0x3DDC, symBinAddr: 0x100048670, symSize: 0x8C }
  - { offset: 0x8FF52, size: 0x8, addend: 0x0, symName: __RNvXs9_NtCsdze8u8oDPro_5alloc6borrowINtB5_3CoweENtNtCs9f3LFPSIp77_4core3fmt7Display3fmtCs41t77sgS83u_2cc, symObjAddr: 0x3E68, symBinAddr: 0x1000486FC, symSize: 0x8C }
  - { offset: 0x90074, size: 0x8, addend: 0x0, symName: __RNvXsc_NtCsdze8u8oDPro_5alloc6borrowINtB5_3CowNtNtCs27l1GJC5rMQ_3std4path4PathEINtNtCs9f3LFPSIp77_4core7convert5AsRefBI_E6as_refCs41t77sgS83u_2cc, symObjAddr: 0x50E0, symBinAddr: 0x100049974, symSize: 0x80 }
  - { offset: 0x900F5, size: 0x8, addend: 0x0, symName: __RNvXsc_NtCsdze8u8oDPro_5alloc6borrowINtB5_3CoweEINtNtCs9f3LFPSIp77_4core7convert5AsRefeE6as_refCs41t77sgS83u_2cc, symObjAddr: 0x5160, symBinAddr: 0x1000499F4, symSize: 0x80 }
  - { offset: 0x90FA3, size: 0x8, addend: 0x0, symName: __RINvNtCs9f3LFPSIp77_4core3ptr14read_unalignedNtNtNtNtB4_9core_arch10arm_shared4neon9uint8x8_tECs41t77sgS83u_2cc, symObjAddr: 0x41C, symBinAddr: 0x100044CB0, symSize: 0x8C }
  - { offset: 0x91077, size: 0x8, addend: 0x0, symName: __RINvNtCs9f3LFPSIp77_4core3ptr15write_unalignedNtNtNtNtB4_9core_arch10arm_shared4neon9uint8x8_tECs41t77sgS83u_2cc, symObjAddr: 0x4A8, symBinAddr: 0x100044D3C, symSize: 0x70 }
  - { offset: 0x9144A, size: 0x8, addend: 0x0, symName: __RINvNtCs9f3LFPSIp77_4core3ptr19swap_nonoverlappingNtNtCscXJUXcj6jCz_9hashbrown3raw13RawTableInnerECs41t77sgS83u_2cc, symObjAddr: 0x518, symBinAddr: 0x100044DAC, symSize: 0x150 }
  - { offset: 0x918A0, size: 0x8, addend: 0x0, symName: __RINvNtCs9f3LFPSIp77_4core3ptr19swap_nonoverlappinghECs41t77sgS83u_2cc, symObjAddr: 0x668, symBinAddr: 0x100044EFC, symSize: 0x1E4 }
  - { offset: 0x92368, size: 0x8, addend: 0x0, symName: __RNvNvNtCs9f3LFPSIp77_4core3ptr13read_volatile18precondition_checkCs41t77sgS83u_2cc, symObjAddr: 0x3054, symBinAddr: 0x1000478E8, symSize: 0xEC }
  - { offset: 0x92473, size: 0x8, addend: 0x0, symName: __RNvNvNtCs9f3LFPSIp77_4core3ptr19swap_nonoverlapping18precondition_checkCs41t77sgS83u_2cc, symObjAddr: 0x3140, symBinAddr: 0x1000479D4, symSize: 0x1F0 }
  - { offset: 0x926C0, size: 0x8, addend: 0x0, symName: __RNvNvNtCs9f3LFPSIp77_4core3ptr7replace18precondition_checkCs41t77sgS83u_2cc, symObjAddr: 0x3330, symBinAddr: 0x100047BC4, symSize: 0xEC }
  - { offset: 0x92C9C, size: 0x8, addend: 0x0, symName: __RNvXsP_NtCs9f3LFPSIp77_4core3fmtRINtNtCsdze8u8oDPro_5alloc6borrow3CoweENtB5_5Debug3fmtCs41t77sgS83u_2cc, symObjAddr: 0x3FA8, symBinAddr: 0x10004883C, symSize: 0x30 }
  - { offset: 0x92CE2, size: 0x8, addend: 0x0, symName: __RNvXsP_NtCs9f3LFPSIp77_4core3fmtRINtNtNtNtCs27l1GJC5rMQ_3std11collections4hash3map7HashMapINtNtCsdze8u8oDPro_5alloc5boxed3BoxNtNtBE_4path4PathENtNtCs41t77sgS83u_2cc4tool10ToolFamilyENtB5_5Debug3fmtB2l_, symObjAddr: 0x3FD8, symBinAddr: 0x10004886C, symSize: 0x30 }
  - { offset: 0x92D28, size: 0x8, addend: 0x0, symName: __RNvXsP_NtCs9f3LFPSIp77_4core3fmtRINtNtNtNtCs27l1GJC5rMQ_3std11collections4hash3map7HashMapINtNtCsdze8u8oDPro_5alloc5boxed3BoxeEINtNtB1v_4sync3ArcNtNtNtBE_3ffi6os_str5OsStrEENtB5_5Debug3fmtCs41t77sgS83u_2cc, symObjAddr: 0x4008, symBinAddr: 0x10004889C, symSize: 0x30 }
  - { offset: 0x92D6E, size: 0x8, addend: 0x0, symName: __RNvXsP_NtCs9f3LFPSIp77_4core3fmtRINtNtNtNtCs27l1GJC5rMQ_3std11collections4hash3map7HashMapINtNtCsdze8u8oDPro_5alloc5boxed3BoxeEINtNtB1v_4sync3ArceEENtB5_5Debug3fmtCs41t77sgS83u_2cc, symObjAddr: 0x4038, symBinAddr: 0x1000488CC, symSize: 0x30 }
  - { offset: 0x92DB4, size: 0x8, addend: 0x0, symName: __RNvXsP_NtCs9f3LFPSIp77_4core3fmtRINtNtNtNtCs27l1GJC5rMQ_3std11collections4hash3map7HashMapINtNtCsdze8u8oDPro_5alloc5boxed3BoxeEINtNtB7_6option6OptionINtNtB1v_4sync3ArcNtNtNtBE_3ffi6os_str5OsStrEEENtB5_5Debug3fmtCs41t77sgS83u_2cc, symObjAddr: 0x4068, symBinAddr: 0x1000488FC, symSize: 0x30 }
  - { offset: 0x92DFA, size: 0x8, addend: 0x0, symName: __RNvXsP_NtCs9f3LFPSIp77_4core3fmtRINtNtNtNtCs27l1GJC5rMQ_3std11collections4hash3map7HashMapNtCs41t77sgS83u_2cc12CompilerFlagbENtB5_5Debug3fmtB1s_, symObjAddr: 0x4098, symBinAddr: 0x10004892C, symSize: 0x30 }
  - { offset: 0x94A12, size: 0x8, addend: 0x0, symName: __RINvNtCs9f3LFPSIp77_4core3cmp6min_bymNvYmNtB2_3Ord3cmpECs41t77sgS83u_2cc, symObjAddr: 0x28C, symBinAddr: 0x100044B20, symSize: 0xC8 }
  - { offset: 0x94A70, size: 0x8, addend: 0x0, symName: __RINvNtCs9f3LFPSIp77_4core3cmp6min_byyNvYyNtB2_3Ord3cmpECs41t77sgS83u_2cc, symObjAddr: 0x354, symBinAddr: 0x100044BE8, symSize: 0xC8 }
  - { offset: 0x94B1B, size: 0x8, addend: 0x0, symName: __RNvYINtNtCsdze8u8oDPro_5alloc6borrow3CoweENtNtCs9f3LFPSIp77_4core3cmp9PartialEq2neCs41t77sgS83u_2cc, symObjAddr: 0x591C, symBinAddr: 0x10004A1B0, symSize: 0x30 }
  - { offset: 0x94B70, size: 0x8, addend: 0x0, symName: __RNvYjNtNtCs9f3LFPSIp77_4core3cmp3Ord3maxCs41t77sgS83u_2cc, symObjAddr: 0x594C, symBinAddr: 0x10004A1E0, symSize: 0x24 }
  - { offset: 0x94BB6, size: 0x8, addend: 0x0, symName: __RNvYyNtNtCs9f3LFPSIp77_4core3cmp3Ord3minCs41t77sgS83u_2cc, symObjAddr: 0x5970, symBinAddr: 0x10004A204, symSize: 0x24 }
  - { offset: 0x94FF5, size: 0x8, addend: 0x0, symName: __RNCINvXsK_NtNtNtCs9f3LFPSIp77_4core4iter6traits5accumjNtB8_3Sum3sumINtNtNtBc_8adapters3map3MapINtNtNtBe_5slice4iter4IterINtNtCsdze8u8oDPro_5alloc4sync3ArcNtNtCs27l1GJC5rMQ_3std4path4PathEENCINvNvXs1_NtB18_6filterINtB3b_6FilterppENtNtBa_8iterator8Iterator5count8to_usizeRB1U_NCNvMs3_Cs41t77sgS83u_2ccNtB4w_5Build15cuda_file_count0E0EE0B4w_, symObjAddr: 0x84C, symBinAddr: 0x1000450E0, symSize: 0x48 }
  - { offset: 0x95055, size: 0x8, addend: 0x0, symName: __RNCINvXsq_NtNtNtCs9f3LFPSIp77_4core4iter6traits5accumhNtB8_3Sum3sumINtNtNtBc_8adapters3map3MapINtNtNtBe_5array4iter8IntoIterbKj20_ENCNvXNtNtBe_3str4iterNtB2a_5CharsNtNtBa_8iterator8Iterator10advance_by0EE0Cs41t77sgS83u_2cc, symObjAddr: 0x894, symBinAddr: 0x100045128, symSize: 0x4C }
  - { offset: 0x950B6, size: 0x8, addend: 0x0, symName: __RNvXs_NtNtNtCs9f3LFPSIp77_4core4iter6traits7collectINtNtNtNtCs27l1GJC5rMQ_3std11collections4hash3map4IterINtNtCsdze8u8oDPro_5alloc5boxed3BoxNtNtBW_4path4PathENtNtCs41t77sgS83u_2cc4tool10ToolFamilyENtB4_12IntoIterator9into_iterB2A_, symObjAddr: 0x40C8, symBinAddr: 0x10004895C, symSize: 0x30 }
  - { offset: 0x950EE, size: 0x8, addend: 0x0, symName: __RNvXs_NtNtNtCs9f3LFPSIp77_4core4iter6traits7collectINtNtNtNtCs27l1GJC5rMQ_3std11collections4hash3map4IterINtNtCsdze8u8oDPro_5alloc5boxed3BoxeEINtNtB1K_4sync3ArcNtNtNtBW_3ffi6os_str5OsStrEENtB4_12IntoIterator9into_iterCs41t77sgS83u_2cc, symObjAddr: 0x40F8, symBinAddr: 0x10004898C, symSize: 0x30 }
  - { offset: 0x95126, size: 0x8, addend: 0x0, symName: __RNvXs_NtNtNtCs9f3LFPSIp77_4core4iter6traits7collectINtNtNtNtCs27l1GJC5rMQ_3std11collections4hash3map4IterINtNtCsdze8u8oDPro_5alloc5boxed3BoxeEINtNtB1K_4sync3ArceEENtB4_12IntoIterator9into_iterCs41t77sgS83u_2cc, symObjAddr: 0x4128, symBinAddr: 0x1000489BC, symSize: 0x30 }
  - { offset: 0x9515E, size: 0x8, addend: 0x0, symName: __RNvXs_NtNtNtCs9f3LFPSIp77_4core4iter6traits7collectINtNtNtNtCs27l1GJC5rMQ_3std11collections4hash3map4IterINtNtCsdze8u8oDPro_5alloc5boxed3BoxeEINtNtBa_6option6OptionINtNtB1K_4sync3ArcNtNtNtBW_3ffi6os_str5OsStrEEENtB4_12IntoIterator9into_iterCs41t77sgS83u_2cc, symObjAddr: 0x4158, symBinAddr: 0x1000489EC, symSize: 0x30 }
  - { offset: 0x95196, size: 0x8, addend: 0x0, symName: __RNvXs_NtNtNtCs9f3LFPSIp77_4core4iter6traits7collectINtNtNtNtCs27l1GJC5rMQ_3std11collections4hash3map4IterNtCs41t77sgS83u_2cc12CompilerFlagbENtB4_12IntoIterator9into_iterB1H_, symObjAddr: 0x4188, symBinAddr: 0x100048A1C, symSize: 0x30 }
  - { offset: 0x95588, size: 0x8, addend: 0x0, symName: __RNvXNtCs9f3LFPSIp77_4core7convertRINtNtCsdze8u8oDPro_5alloc6borrow3CowNtNtCs27l1GJC5rMQ_3std4path4PathEINtB2_5AsRefB16_E6as_refCs41t77sgS83u_2cc, symObjAddr: 0x341C, symBinAddr: 0x100047CB0, symSize: 0x28 }
  - { offset: 0x955C8, size: 0x8, addend: 0x0, symName: __RNvXNtCs9f3LFPSIp77_4core7convertRReINtB2_5AsRefNtNtNtCs27l1GJC5rMQ_3std3ffi6os_str5OsStrE6as_refCs41t77sgS83u_2cc, symObjAddr: 0x3444, symBinAddr: 0x100047CD8, symSize: 0x28 }
  - { offset: 0x95608, size: 0x8, addend: 0x0, symName: __RNvXNtCs9f3LFPSIp77_4core7convertReINtB2_5AsRefNtNtCs27l1GJC5rMQ_3std4path4PathE6as_refCs41t77sgS83u_2cc, symObjAddr: 0x346C, symBinAddr: 0x100047D00, symSize: 0x30 }
  - { offset: 0x95648, size: 0x8, addend: 0x0, symName: __RNvXNtCs9f3LFPSIp77_4core7convertReINtB2_5AsRefeE6as_refCs41t77sgS83u_2cc, symObjAddr: 0x349C, symBinAddr: 0x100047D30, symSize: 0x28 }
  - { offset: 0x9568E, size: 0x8, addend: 0x0, symName: __RNvXs1_NtCs9f3LFPSIp77_4core7convertNtNtNtCs27l1GJC5rMQ_3std2io5error5ErrorINtB5_4IntoNtCs41t77sgS83u_2cc5ErrorE4intoB1o_, symObjAddr: 0x356C, symBinAddr: 0x100047E00, symSize: 0x24 }
  - { offset: 0x956CE, size: 0x8, addend: 0x0, symName: __RNvXs1_NtCs9f3LFPSIp77_4core7convertReINtB5_4IntoINtNtCsdze8u8oDPro_5alloc4sync3ArceEE4intoCs41t77sgS83u_2cc, symObjAddr: 0x3590, symBinAddr: 0x100047E24, symSize: 0x28 }
  - { offset: 0x9570E, size: 0x8, addend: 0x0, symName: __RNvXs1_NtCs9f3LFPSIp77_4core7convertReINtB5_4IntoINtNtCsdze8u8oDPro_5alloc5boxed3BoxeEE4intoCs41t77sgS83u_2cc, symObjAddr: 0x35B8, symBinAddr: 0x100047E4C, symSize: 0x28 }
  - { offset: 0x9574E, size: 0x8, addend: 0x0, symName: __RNvXs1_NtCs9f3LFPSIp77_4core7convertReINtB5_4IntoNtNtCs27l1GJC5rMQ_3std4path7PathBufE4intoCs41t77sgS83u_2cc, symObjAddr: 0x35E0, symBinAddr: 0x100047E74, symSize: 0x28 }
  - { offset: 0x9578E, size: 0x8, addend: 0x0, symName: __RNvXs1_NtCs9f3LFPSIp77_4core7convertReINtB5_4IntoNtNtCsdze8u8oDPro_5alloc6string6StringE4intoCs41t77sgS83u_2cc, symObjAddr: 0x3608, symBinAddr: 0x100047E9C, symSize: 0x28 }
  - { offset: 0x957CE, size: 0x8, addend: 0x0, symName: __RNvXs1_NtCs9f3LFPSIp77_4core7convertReINtB5_4IntoNtNtNtCs27l1GJC5rMQ_3std3ffi6os_str8OsStringE4intoCs41t77sgS83u_2cc, symObjAddr: 0x3630, symBinAddr: 0x100047EC4, symSize: 0x28 }
  - { offset: 0x95814, size: 0x8, addend: 0x0, symName: __RNvXs4_NtCs9f3LFPSIp77_4core7convertlINtB5_7TryIntojE8try_intoCs41t77sgS83u_2cc, symObjAddr: 0x3838, symBinAddr: 0x1000480CC, symSize: 0x20 }
  - { offset: 0x9692B, size: 0x8, addend: 0x0, symName: __RINvMs0_NtNtNtCs27l1GJC5rMQ_3std11collections4hash3mapINtB6_7HashMapINtNtCsdze8u8oDPro_5alloc5boxed3BoxNtNtBc_4path4PathENtNtCs41t77sgS83u_2cc4tool10ToolFamilyE3getB1D_EB1Z_, symObjAddr: 0x0, symBinAddr: 0x100044894, symSize: 0x74 }
  - { offset: 0x96A32, size: 0x8, addend: 0x0, symName: __RINvMs0_NtNtNtCs27l1GJC5rMQ_3std11collections4hash3mapINtB6_7HashMapINtNtCsdze8u8oDPro_5alloc5boxed3BoxeEINtNtB19_4sync3ArcNtNtNtBc_3ffi6os_str5OsStrEE3geteECs41t77sgS83u_2cc, symObjAddr: 0x74, symBinAddr: 0x100044908, symSize: 0x74 }
  - { offset: 0x96B39, size: 0x8, addend: 0x0, symName: __RINvMs0_NtNtNtCs27l1GJC5rMQ_3std11collections4hash3mapINtB6_7HashMapINtNtCsdze8u8oDPro_5alloc5boxed3BoxeEINtNtB19_4sync3ArceEE3geteECs41t77sgS83u_2cc, symObjAddr: 0xE8, symBinAddr: 0x10004497C, symSize: 0x74 }
  - { offset: 0x96C40, size: 0x8, addend: 0x0, symName: __RINvMs0_NtNtNtCs27l1GJC5rMQ_3std11collections4hash3mapINtB6_7HashMapINtNtCsdze8u8oDPro_5alloc5boxed3BoxeEINtNtCs9f3LFPSIp77_4core6option6OptionINtNtB19_4sync3ArcNtNtNtBc_3ffi6os_str5OsStrEEE3geteECs41t77sgS83u_2cc, symObjAddr: 0x15C, symBinAddr: 0x1000449F0, symSize: 0x74 }
  - { offset: 0x96D54, size: 0x8, addend: 0x0, symName: __RINvMs0_NtNtNtCs27l1GJC5rMQ_3std11collections4hash3mapINtB6_7HashMapNtCs41t77sgS83u_2cc12CompilerFlagbE3getB14_EB16_, symObjAddr: 0x1D0, symBinAddr: 0x100044A64, symSize: 0x70 }
  - { offset: 0x96E4F, size: 0x8, addend: 0x0, symName: __RINvMs6_NtNtCs27l1GJC5rMQ_3std2io5errorNtB6_5Error3newNtNtCsdze8u8oDPro_5alloc6string6StringECs41t77sgS83u_2cc, symObjAddr: 0x240, symBinAddr: 0x100044AD4, symSize: 0x4C }
  - { offset: 0x973E1, size: 0x8, addend: 0x0, symName: __RNvMs0_NtCs9f3LFPSIp77_4core4timeNtB5_8Duration11from_millisCs41t77sgS83u_2cc, symObjAddr: 0x1200, symBinAddr: 0x100045A94, symSize: 0x48 }
  - { offset: 0x9744C, size: 0x8, addend: 0x0, symName: __RNvMs0_NtNtNtCs27l1GJC5rMQ_3std11collections4hash3mapINtB5_7HashMapINtNtCsdze8u8oDPro_5alloc5boxed3BoxNtNtBb_4path4PathENtNtCs41t77sgS83u_2cc4tool10ToolFamilyE6insertB1Y_, symObjAddr: 0x1248, symBinAddr: 0x100045ADC, symSize: 0x38 }
  - { offset: 0x974B5, size: 0x8, addend: 0x0, symName: __RNvMs0_NtNtNtCs27l1GJC5rMQ_3std11collections4hash3mapINtB5_7HashMapINtNtCsdze8u8oDPro_5alloc5boxed3BoxeEINtNtB18_4sync3ArcNtNtNtBb_3ffi6os_str5OsStrEE6insertCs41t77sgS83u_2cc, symObjAddr: 0x1280, symBinAddr: 0x100045B14, symSize: 0x3C }
  - { offset: 0x9751E, size: 0x8, addend: 0x0, symName: __RNvMs0_NtNtNtCs27l1GJC5rMQ_3std11collections4hash3mapINtB5_7HashMapINtNtCsdze8u8oDPro_5alloc5boxed3BoxeEINtNtB18_4sync3ArceEE6insertCs41t77sgS83u_2cc, symObjAddr: 0x12BC, symBinAddr: 0x100045B50, symSize: 0x3C }
  - { offset: 0x97587, size: 0x8, addend: 0x0, symName: __RNvMs0_NtNtNtCs27l1GJC5rMQ_3std11collections4hash3mapINtB5_7HashMapINtNtCsdze8u8oDPro_5alloc5boxed3BoxeEINtNtCs9f3LFPSIp77_4core6option6OptionINtNtB18_4sync3ArcNtNtNtBb_3ffi6os_str5OsStrEEE6insertCs41t77sgS83u_2cc, symObjAddr: 0x12F8, symBinAddr: 0x100045B8C, symSize: 0x3C }
  - { offset: 0x975F0, size: 0x8, addend: 0x0, symName: __RNvMs0_NtNtNtCs27l1GJC5rMQ_3std11collections4hash3mapINtB5_7HashMapNtCs41t77sgS83u_2cc12CompilerFlagbE6insertB15_, symObjAddr: 0x1334, symBinAddr: 0x100045BC8, symSize: 0x28 }
  - { offset: 0x976ED, size: 0x8, addend: 0x0, symName: __RNvMs0_NtNtNtCs27l1GJC5rMQ_3std4sync4mpmc4zeroINtB5_6PacketINtNtCs9f3LFPSIp77_4core6result6ResultNtCs22zHMr2Jt3g_9jobserver8AcquiredNtNtNtBb_2io5error5ErrorEE10wait_readyCs41t77sgS83u_2cc, symObjAddr: 0x135C, symBinAddr: 0x100045BF0, symSize: 0x78 }
  - { offset: 0x977F2, size: 0x8, addend: 0x0, symName: __RNvMs1_NtNtNtCs27l1GJC5rMQ_3std4sync4mpmc4zeroINtB5_7ChannelINtNtCs9f3LFPSIp77_4core6result6ResultNtCs22zHMr2Jt3g_9jobserver8AcquiredNtNtNtBb_2io5error5ErrorEE10disconnectCs41t77sgS83u_2cc, symObjAddr: 0x13D4, symBinAddr: 0x100045C68, symSize: 0x1B8 }
  - { offset: 0x979FD, size: 0x8, addend: 0x0, symName: __RNvMs1_NtNtNtCs27l1GJC5rMQ_3std4sync4mpmc4zeroINtB5_7ChannelINtNtCs9f3LFPSIp77_4core6result6ResultNtCs22zHMr2Jt3g_9jobserver8AcquiredNtNtNtBb_2io5error5ErrorEE4readCs41t77sgS83u_2cc, symObjAddr: 0x158C, symBinAddr: 0x100045E20, symSize: 0x23C }
  - { offset: 0x97E10, size: 0x8, addend: 0x0, symName: __RNvMs1_NtNtNtCs27l1GJC5rMQ_3std4sync4mpmc4zeroINtB5_7ChannelINtNtCs9f3LFPSIp77_4core6result6ResultNtCs22zHMr2Jt3g_9jobserver8AcquiredNtNtNtBb_2io5error5ErrorEE4sendCs41t77sgS83u_2cc, symObjAddr: 0x17C8, symBinAddr: 0x10004605C, symSize: 0x410 }
  - { offset: 0x98130, size: 0x8, addend: 0x0, symName: __RNvMs1_NtNtNtCs27l1GJC5rMQ_3std4sync4mpmc4zeroINtB5_7ChannelINtNtCs9f3LFPSIp77_4core6result6ResultNtCs22zHMr2Jt3g_9jobserver8AcquiredNtNtNtBb_2io5error5ErrorEE5writeCs41t77sgS83u_2cc, symObjAddr: 0x1BD8, symBinAddr: 0x10004646C, symSize: 0xCC }
  - { offset: 0x9830E, size: 0x8, addend: 0x0, symName: __RNvMs1_NtNtNtCs27l1GJC5rMQ_3std4sync4mpmc4zeroINtB5_7ChannelINtNtCs9f3LFPSIp77_4core6result6ResultNtCs22zHMr2Jt3g_9jobserver8AcquiredNtNtNtBb_2io5error5ErrorEE8try_recvCs41t77sgS83u_2cc, symObjAddr: 0x1CA4, symBinAddr: 0x100046538, symSize: 0x330 }
  - { offset: 0x986BC, size: 0x8, addend: 0x0, symName: __RNvMs6_NtNtCs27l1GJC5rMQ_3std2io5errorNtB5_5Error13last_os_errorCs41t77sgS83u_2cc, symObjAddr: 0x1FD4, symBinAddr: 0x100046868, symSize: 0x70 }
  - { offset: 0x987A0, size: 0x8, addend: 0x0, symName: __RNvMs6_NtNtCs27l1GJC5rMQ_3std2io5errorNtB5_5Error4kindCs41t77sgS83u_2cc, symObjAddr: 0x2044, symBinAddr: 0x1000468D8, symSize: 0xC0 }
  - { offset: 0x988C9, size: 0x8, addend: 0x0, symName: __RNvMs9_NtNtCs27l1GJC5rMQ_3std4sync6rwlockINtB5_6RwLockINtNtNtNtB9_11collections4hash3map7HashMapINtNtCsdze8u8oDPro_5alloc5boxed3BoxNtNtB9_4path4PathENtNtCs41t77sgS83u_2cc4tool10ToolFamilyEE4readB2r_, symObjAddr: 0x2104, symBinAddr: 0x100046998, symSize: 0x7C }
  - { offset: 0x98A09, size: 0x8, addend: 0x0, symName: __RNvMs9_NtNtCs27l1GJC5rMQ_3std4sync6rwlockINtB5_6RwLockINtNtNtNtB9_11collections4hash3map7HashMapINtNtCsdze8u8oDPro_5alloc5boxed3BoxNtNtB9_4path4PathENtNtCs41t77sgS83u_2cc4tool10ToolFamilyEE5writeB2r_, symObjAddr: 0x2180, symBinAddr: 0x100046A14, symSize: 0xB4 }
  - { offset: 0x98B3F, size: 0x8, addend: 0x0, symName: __RNvMs9_NtNtCs27l1GJC5rMQ_3std4sync6rwlockINtB5_6RwLockINtNtNtNtB9_11collections4hash3map7HashMapINtNtCsdze8u8oDPro_5alloc5boxed3BoxNtNtB9_4path4PathENtNtCs41t77sgS83u_2cc4tool10ToolFamilyEE8try_readB2r_, symObjAddr: 0x2234, symBinAddr: 0x100046AC8, symSize: 0x154 }
  - { offset: 0x98CB7, size: 0x8, addend: 0x0, symName: __RNvMs9_NtNtCs27l1GJC5rMQ_3std4sync6rwlockINtB5_6RwLockINtNtNtNtB9_11collections4hash3map7HashMapINtNtCsdze8u8oDPro_5alloc5boxed3BoxeEINtNtB1B_4sync3ArcNtNtNtB9_3ffi6os_str5OsStrEEE4readCs41t77sgS83u_2cc, symObjAddr: 0x2388, symBinAddr: 0x100046C1C, symSize: 0x7C }
  - { offset: 0x98DD0, size: 0x8, addend: 0x0, symName: __RNvMs9_NtNtCs27l1GJC5rMQ_3std4sync6rwlockINtB5_6RwLockINtNtNtNtB9_11collections4hash3map7HashMapINtNtCsdze8u8oDPro_5alloc5boxed3BoxeEINtNtB1B_4sync3ArcNtNtNtB9_3ffi6os_str5OsStrEEE5writeCs41t77sgS83u_2cc, symObjAddr: 0x2404, symBinAddr: 0x100046C98, symSize: 0xB4 }
  - { offset: 0x98F06, size: 0x8, addend: 0x0, symName: __RNvMs9_NtNtCs27l1GJC5rMQ_3std4sync6rwlockINtB5_6RwLockINtNtNtNtB9_11collections4hash3map7HashMapINtNtCsdze8u8oDPro_5alloc5boxed3BoxeEINtNtB1B_4sync3ArcNtNtNtB9_3ffi6os_str5OsStrEEE8try_readCs41t77sgS83u_2cc, symObjAddr: 0x24B8, symBinAddr: 0x100046D4C, symSize: 0x154 }
  - { offset: 0x9907E, size: 0x8, addend: 0x0, symName: __RNvMs9_NtNtCs27l1GJC5rMQ_3std4sync6rwlockINtB5_6RwLockINtNtNtNtB9_11collections4hash3map7HashMapINtNtCsdze8u8oDPro_5alloc5boxed3BoxeEINtNtB1B_4sync3ArceEEE4readCs41t77sgS83u_2cc, symObjAddr: 0x260C, symBinAddr: 0x100046EA0, symSize: 0x7C }
  - { offset: 0x99197, size: 0x8, addend: 0x0, symName: __RNvMs9_NtNtCs27l1GJC5rMQ_3std4sync6rwlockINtB5_6RwLockINtNtNtNtB9_11collections4hash3map7HashMapINtNtCsdze8u8oDPro_5alloc5boxed3BoxeEINtNtB1B_4sync3ArceEEE5writeCs41t77sgS83u_2cc, symObjAddr: 0x2688, symBinAddr: 0x100046F1C, symSize: 0xB4 }
  - { offset: 0x992CD, size: 0x8, addend: 0x0, symName: __RNvMs9_NtNtCs27l1GJC5rMQ_3std4sync6rwlockINtB5_6RwLockINtNtNtNtB9_11collections4hash3map7HashMapINtNtCsdze8u8oDPro_5alloc5boxed3BoxeEINtNtB1B_4sync3ArceEEE8try_readCs41t77sgS83u_2cc, symObjAddr: 0x273C, symBinAddr: 0x100046FD0, symSize: 0x154 }
  - { offset: 0x99445, size: 0x8, addend: 0x0, symName: __RNvMs9_NtNtCs27l1GJC5rMQ_3std4sync6rwlockINtB5_6RwLockINtNtNtNtB9_11collections4hash3map7HashMapINtNtCsdze8u8oDPro_5alloc5boxed3BoxeEINtNtCs9f3LFPSIp77_4core6option6OptionINtNtB1B_4sync3ArcNtNtNtB9_3ffi6os_str5OsStrEEEE4readCs41t77sgS83u_2cc, symObjAddr: 0x2890, symBinAddr: 0x100047124, symSize: 0x7C }
  - { offset: 0x9955E, size: 0x8, addend: 0x0, symName: __RNvMs9_NtNtCs27l1GJC5rMQ_3std4sync6rwlockINtB5_6RwLockINtNtNtNtB9_11collections4hash3map7HashMapINtNtCsdze8u8oDPro_5alloc5boxed3BoxeEINtNtCs9f3LFPSIp77_4core6option6OptionINtNtB1B_4sync3ArcNtNtNtB9_3ffi6os_str5OsStrEEEE5writeCs41t77sgS83u_2cc, symObjAddr: 0x290C, symBinAddr: 0x1000471A0, symSize: 0xB4 }
  - { offset: 0x99694, size: 0x8, addend: 0x0, symName: __RNvMs9_NtNtCs27l1GJC5rMQ_3std4sync6rwlockINtB5_6RwLockINtNtNtNtB9_11collections4hash3map7HashMapINtNtCsdze8u8oDPro_5alloc5boxed3BoxeEINtNtCs9f3LFPSIp77_4core6option6OptionINtNtB1B_4sync3ArcNtNtNtB9_3ffi6os_str5OsStrEEEE8try_readCs41t77sgS83u_2cc, symObjAddr: 0x29C0, symBinAddr: 0x100047254, symSize: 0x154 }
  - { offset: 0x9980C, size: 0x8, addend: 0x0, symName: __RNvMs9_NtNtCs27l1GJC5rMQ_3std4sync6rwlockINtB5_6RwLockINtNtNtNtB9_11collections4hash3map7HashMapNtCs41t77sgS83u_2cc12CompilerFlagbEE4readB1y_, symObjAddr: 0x2B14, symBinAddr: 0x1000473A8, symSize: 0x7C }
  - { offset: 0x99925, size: 0x8, addend: 0x0, symName: __RNvMs9_NtNtCs27l1GJC5rMQ_3std4sync6rwlockINtB5_6RwLockINtNtNtNtB9_11collections4hash3map7HashMapNtCs41t77sgS83u_2cc12CompilerFlagbEE5writeB1y_, symObjAddr: 0x2B90, symBinAddr: 0x100047424, symSize: 0xB4 }
  - { offset: 0x99A5B, size: 0x8, addend: 0x0, symName: __RNvMs9_NtNtCs27l1GJC5rMQ_3std4sync6rwlockINtB5_6RwLockINtNtNtNtB9_11collections4hash3map7HashMapNtCs41t77sgS83u_2cc12CompilerFlagbEE8try_readB1y_, symObjAddr: 0x2C44, symBinAddr: 0x1000474D8, symSize: 0x154 }
  - { offset: 0x99BE7, size: 0x8, addend: 0x0, symName: __RNvMsd_NtNtCs27l1GJC5rMQ_3std4sync6rwlockINtB5_15RwLockReadGuardINtNtNtNtB9_11collections4hash3map7HashMapINtNtCsdze8u8oDPro_5alloc5boxed3BoxNtNtB9_4path4PathENtNtCs41t77sgS83u_2cc4tool10ToolFamilyEE3newB2B_, symObjAddr: 0x2D98, symBinAddr: 0x10004762C, symSize: 0x8C }
  - { offset: 0x99CD8, size: 0x8, addend: 0x0, symName: __RNvMsd_NtNtCs27l1GJC5rMQ_3std4sync6rwlockINtB5_15RwLockReadGuardINtNtNtNtB9_11collections4hash3map7HashMapINtNtCsdze8u8oDPro_5alloc5boxed3BoxeEINtNtB1L_4sync3ArcNtNtNtB9_3ffi6os_str5OsStrEEE3newCs41t77sgS83u_2cc, symObjAddr: 0x2E24, symBinAddr: 0x1000476B8, symSize: 0x8C }
  - { offset: 0x99DC9, size: 0x8, addend: 0x0, symName: __RNvMsd_NtNtCs27l1GJC5rMQ_3std4sync6rwlockINtB5_15RwLockReadGuardINtNtNtNtB9_11collections4hash3map7HashMapINtNtCsdze8u8oDPro_5alloc5boxed3BoxeEINtNtB1L_4sync3ArceEEE3newCs41t77sgS83u_2cc, symObjAddr: 0x2EB0, symBinAddr: 0x100047744, symSize: 0x8C }
  - { offset: 0x99EBA, size: 0x8, addend: 0x0, symName: __RNvMsd_NtNtCs27l1GJC5rMQ_3std4sync6rwlockINtB5_15RwLockReadGuardINtNtNtNtB9_11collections4hash3map7HashMapINtNtCsdze8u8oDPro_5alloc5boxed3BoxeEINtNtCs9f3LFPSIp77_4core6option6OptionINtNtB1L_4sync3ArcNtNtNtB9_3ffi6os_str5OsStrEEEE3newCs41t77sgS83u_2cc, symObjAddr: 0x2F3C, symBinAddr: 0x1000477D0, symSize: 0x8C }
  - { offset: 0x99FAB, size: 0x8, addend: 0x0, symName: __RNvMsd_NtNtCs27l1GJC5rMQ_3std4sync6rwlockINtB5_15RwLockReadGuardINtNtNtNtB9_11collections4hash3map7HashMapNtCs41t77sgS83u_2cc12CompilerFlagbEE3newB1I_, symObjAddr: 0x2FC8, symBinAddr: 0x10004785C, symSize: 0x8C }
  - { offset: 0x9B357, size: 0x8, addend: 0x0, symName: __RINvMNtCs9f3LFPSIp77_4core6optionINtB3_6OptionINtNtCsdze8u8oDPro_5alloc4sync3ArcNtNtNtCs27l1GJC5rMQ_3std3ffi6os_str5OsStrEE3mapNtNtNtCs41t77sgS83u_2cc7windows10find_tools3EnvNcNtB21_5Arced0EB27_, symObjAddr: 0x0, symBinAddr: 0x10004A228, symSize: 0x78 }
  - { offset: 0x9E784, size: 0x8, addend: 0x0, symName: __RNvXsB_NtCs9f3LFPSIp77_4core6optionINtB5_6OptionINtNtCsdze8u8oDPro_5alloc3vec3VechEENtNtNtB7_3ops9try_trait3Try6branchCs41t77sgS83u_2cc, symObjAddr: 0x5A50, symBinAddr: 0x10004FC78, symSize: 0x68 }
  - { offset: 0x9E7DA, size: 0x8, addend: 0x0, symName: __RNvXsB_NtCs9f3LFPSIp77_4core6optionINtB5_6OptionINtNtCsdze8u8oDPro_5alloc4sync3ArcNtNtNtCs27l1GJC5rMQ_3std3ffi6os_str5OsStrEENtNtNtB7_3ops9try_trait3Try6branchCs41t77sgS83u_2cc, symObjAddr: 0x5AB8, symBinAddr: 0x10004FCE0, symSize: 0x54 }
  - { offset: 0x9E82F, size: 0x8, addend: 0x0, symName: __RNvXsB_NtCs9f3LFPSIp77_4core6optionINtB5_6OptionNtNtCs41t77sgS83u_2cc4tool4ToolENtNtNtB7_3ops9try_trait3Try6branchBO_, symObjAddr: 0x5B0C, symBinAddr: 0x10004FD34, symSize: 0x78 }
  - { offset: 0x9E885, size: 0x8, addend: 0x0, symName: __RNvXsB_NtCs9f3LFPSIp77_4core6optionINtB5_6OptionNtNtCs41t77sgS83u_2cc6target10TargetInfoENtNtNtB7_3ops9try_trait3Try6branchBO_, symObjAddr: 0x5B84, symBinAddr: 0x10004FDAC, symSize: 0x70 }
  - { offset: 0x9E8DB, size: 0x8, addend: 0x0, symName: __RNvXsB_NtCs9f3LFPSIp77_4core6optionINtB5_6OptionNtNtNtCs41t77sgS83u_2cc7windows10find_tools10TargetArchENtNtNtB7_3ops9try_trait3Try6branchBQ_, symObjAddr: 0x5BF4, symBinAddr: 0x10004FE1C, symSize: 0x44 }
  - { offset: 0x9E92F, size: 0x8, addend: 0x0, symName: __RNvXsB_NtCs9f3LFPSIp77_4core6optionINtB5_6OptionNtNtNtCs41t77sgS83u_2cc7windows10find_tools3EnvENtNtNtB7_3ops9try_trait3Try6branchBQ_, symObjAddr: 0x5C38, symBinAddr: 0x10004FE60, symSize: 0x68 }
  - { offset: 0x9E985, size: 0x8, addend: 0x0, symName: __RNvXsB_NtCs9f3LFPSIp77_4core6optionINtB5_6OptionRNtNtNtCs27l1GJC5rMQ_3std3ffi6os_str5OsStrENtNtNtB7_3ops9try_trait3Try6branchCs41t77sgS83u_2cc, symObjAddr: 0x5CA0, symBinAddr: 0x10004FEC8, symSize: 0x54 }
  - { offset: 0x9E9DA, size: 0x8, addend: 0x0, symName: __RNvXsB_NtCs9f3LFPSIp77_4core6optionINtB5_6OptionReENtNtNtB7_3ops9try_trait3Try6branchCs41t77sgS83u_2cc, symObjAddr: 0x5CF4, symBinAddr: 0x10004FF1C, symSize: 0x54 }
  - { offset: 0x9EAB1, size: 0x8, addend: 0x0, symName: __RNvXsC_NtCs9f3LFPSIp77_4core6optionINtB5_6OptionINtNtCsdze8u8oDPro_5alloc4sync3ArcNtNtNtCs27l1GJC5rMQ_3std3ffi6os_str5OsStrEEINtNtNtB7_3ops9try_trait12FromResidualIBy_NtNtB7_7convert10InfallibleEE13from_residualCs41t77sgS83u_2cc, symObjAddr: 0x5D48, symBinAddr: 0x10004FF70, symSize: 0x18 }
  - { offset: 0x9EAF3, size: 0x8, addend: 0x0, symName: __RNvXsC_NtCs9f3LFPSIp77_4core6optionINtB5_6OptionINtNtCsdze8u8oDPro_5alloc4sync3ArceEEINtNtNtB7_3ops9try_trait12FromResidualIBy_NtNtB7_7convert10InfallibleEE13from_residualCs41t77sgS83u_2cc, symObjAddr: 0x5D60, symBinAddr: 0x10004FF88, symSize: 0x18 }
  - { offset: 0x9EB35, size: 0x8, addend: 0x0, symName: __RNvXsC_NtCs9f3LFPSIp77_4core6optionINtB5_6OptionNtNtCs27l1GJC5rMQ_3std4path7PathBufEINtNtNtB7_3ops9try_trait12FromResidualIBy_NtNtB7_7convert10InfallibleEE13from_residualCs41t77sgS83u_2cc, symObjAddr: 0x5D78, symBinAddr: 0x10004FFA0, symSize: 0x18 }
  - { offset: 0x9EB77, size: 0x8, addend: 0x0, symName: __RNvXsC_NtCs9f3LFPSIp77_4core6optionINtB5_6OptionNtNtCs27l1GJC5rMQ_3std7process7CommandEINtNtNtB7_3ops9try_trait12FromResidualIBy_NtNtB7_7convert10InfallibleEE13from_residualCs41t77sgS83u_2cc, symObjAddr: 0x5D90, symBinAddr: 0x10004FFB8, symSize: 0x18 }
  - { offset: 0x9EBB9, size: 0x8, addend: 0x0, symName: __RNvXsC_NtCs9f3LFPSIp77_4core6optionINtB5_6OptionNtNtCs41t77sgS83u_2cc4tool4ToolEINtNtNtB7_3ops9try_trait12FromResidualIBy_NtNtB7_7convert10InfallibleEE13from_residualBO_, symObjAddr: 0x5DA8, symBinAddr: 0x10004FFD0, symSize: 0x18 }
  - { offset: 0x9EBFB, size: 0x8, addend: 0x0, symName: __RNvXsC_NtCs9f3LFPSIp77_4core6optionINtB5_6OptionTNtNtCs27l1GJC5rMQ_3std4path7PathBufIBy_INtNtCsdze8u8oDPro_5alloc4sync3ArcNtNtNtBP_3ffi6os_str5OsStrEEINtNtB1t_3vec3VecNtNtB1t_6string6StringEEEINtNtNtB7_3ops9try_trait12FromResidualIBy_NtNtB7_7convert10InfallibleEE13from_residualCs41t77sgS83u_2cc, symObjAddr: 0x5DC0, symBinAddr: 0x10004FFE8, symSize: 0x18 }
  - { offset: 0x9EC3D, size: 0x8, addend: 0x0, symName: __RNvXsC_NtCs9f3LFPSIp77_4core6optionINtB5_6OptionmEINtNtNtB7_3ops9try_trait12FromResidualIBy_NtNtB7_7convert10InfallibleEE13from_residualCs41t77sgS83u_2cc, symObjAddr: 0x5DD8, symBinAddr: 0x100050000, symSize: 0x18 }
  - { offset: 0x9ECE7, size: 0x8, addend: 0x0, symName: __RNvXs3_NtCs9f3LFPSIp77_4core6optionINtB5_6OptionIBy_INtNtCsdze8u8oDPro_5alloc4sync3ArceEEENtNtB7_5clone5Clone5cloneCs41t77sgS83u_2cc, symObjAddr: 0x4E88, symBinAddr: 0x10004F0B0, symSize: 0x6C }
  - { offset: 0x9ED3C, size: 0x8, addend: 0x0, symName: __RNvXs3_NtCs9f3LFPSIp77_4core6optionINtB5_6OptionINtNtCsdze8u8oDPro_5alloc4sync3ArcNtNtCs27l1GJC5rMQ_3std4path4PathEENtNtB7_5clone5Clone5cloneCs41t77sgS83u_2cc, symObjAddr: 0x4EF4, symBinAddr: 0x10004F11C, symSize: 0x64 }
  - { offset: 0x9ED91, size: 0x8, addend: 0x0, symName: __RNvXs3_NtCs9f3LFPSIp77_4core6optionINtB5_6OptionINtNtCsdze8u8oDPro_5alloc4sync3ArcNtNtNtCs27l1GJC5rMQ_3std3ffi6os_str5OsStrEENtNtB7_5clone5Clone5cloneCs41t77sgS83u_2cc, symObjAddr: 0x4F58, symBinAddr: 0x10004F180, symSize: 0x64 }
  - { offset: 0x9EDE6, size: 0x8, addend: 0x0, symName: __RNvXs3_NtCs9f3LFPSIp77_4core6optionINtB5_6OptionINtNtCsdze8u8oDPro_5alloc4sync3ArceEENtNtB7_5clone5Clone5cloneCs41t77sgS83u_2cc, symObjAddr: 0x4FBC, symBinAddr: 0x10004F1E4, symSize: 0x64 }
  - { offset: 0x9EE3B, size: 0x8, addend: 0x0, symName: __RNvXs3_NtCs9f3LFPSIp77_4core6optionINtB5_6OptionNtNtCs27l1GJC5rMQ_3std4path7PathBufENtNtB7_5clone5Clone5cloneCs41t77sgS83u_2cc, symObjAddr: 0x5020, symBinAddr: 0x10004F248, symSize: 0x7C }
  - { offset: 0x9EE90, size: 0x8, addend: 0x0, symName: __RNvXs3_NtCs9f3LFPSIp77_4core6optionINtB5_6OptionNtNtCs41t77sgS83u_2cc4tool4ToolENtNtB7_5clone5Clone5cloneBO_, symObjAddr: 0x509C, symBinAddr: 0x10004F2C4, symSize: 0x80 }
  - { offset: 0x9EEE5, size: 0x8, addend: 0x0, symName: __RNvXs3_NtCs9f3LFPSIp77_4core6optionINtB5_6OptionbENtNtB7_5clone5Clone5cloneCs41t77sgS83u_2cc, symObjAddr: 0x511C, symBinAddr: 0x10004F344, symSize: 0x60 }
  - { offset: 0x9EF5E, size: 0x8, addend: 0x0, symName: __RNvXs4_NtCs9f3LFPSIp77_4core6optionINtB5_6OptionReENtNtB7_7default7Default7defaultCs41t77sgS83u_2cc, symObjAddr: 0x54A8, symBinAddr: 0x10004F6D0, symSize: 0x18 }
  - { offset: 0x9EF86, size: 0x8, addend: 0x0, symName: __RNvXs4_NtCs9f3LFPSIp77_4core6optionINtB5_6OptionbENtNtB7_7default7Default7defaultCs41t77sgS83u_2cc, symObjAddr: 0x54C0, symBinAddr: 0x10004F6E8, symSize: 0x18 }
  - { offset: 0x9EFB4, size: 0x8, addend: 0x0, symName: __RNvXsI_NtCs9f3LFPSIp77_4core6optionINtB5_6OptionIBy_INtNtCsdze8u8oDPro_5alloc4sync3ArceEEENtNtB7_3fmt5Debug3fmtCs41t77sgS83u_2cc, symObjAddr: 0x5DF0, symBinAddr: 0x100050018, symSize: 0x98 }
  - { offset: 0x9F018, size: 0x8, addend: 0x0, symName: __RNvXsI_NtCs9f3LFPSIp77_4core6optionINtB5_6OptionINtNtCsdze8u8oDPro_5alloc4sync3ArcNtNtCs27l1GJC5rMQ_3std4path4PathEENtNtB7_3fmt5Debug3fmtCs41t77sgS83u_2cc, symObjAddr: 0x5E88, symBinAddr: 0x1000500B0, symSize: 0x9C }
  - { offset: 0x9F07C, size: 0x8, addend: 0x0, symName: __RNvXsI_NtCs9f3LFPSIp77_4core6optionINtB5_6OptionINtNtCsdze8u8oDPro_5alloc4sync3ArcNtNtNtCs27l1GJC5rMQ_3std3ffi6os_str5OsStrEENtNtB7_3fmt5Debug3fmtCs41t77sgS83u_2cc, symObjAddr: 0x5F24, symBinAddr: 0x10005014C, symSize: 0x9C }
  - { offset: 0x9F0E0, size: 0x8, addend: 0x0, symName: __RNvXsI_NtCs9f3LFPSIp77_4core6optionINtB5_6OptionINtNtCsdze8u8oDPro_5alloc4sync3ArceEENtNtB7_3fmt5Debug3fmtCs41t77sgS83u_2cc, symObjAddr: 0x5FC0, symBinAddr: 0x1000501E8, symSize: 0x9C }
  - { offset: 0x9F144, size: 0x8, addend: 0x0, symName: __RNvXsI_NtCs9f3LFPSIp77_4core6optionINtB5_6OptionNtNtCs27l1GJC5rMQ_3std4path7PathBufENtNtB7_3fmt5Debug3fmtCs41t77sgS83u_2cc, symObjAddr: 0x605C, symBinAddr: 0x100050284, symSize: 0xA0 }
  - { offset: 0x9F1A8, size: 0x8, addend: 0x0, symName: __RNvXsI_NtCs9f3LFPSIp77_4core6optionINtB5_6OptionReENtNtB7_3fmt5Debug3fmtCs41t77sgS83u_2cc, symObjAddr: 0x60FC, symBinAddr: 0x100050324, symSize: 0x9C }
  - { offset: 0x9F20C, size: 0x8, addend: 0x0, symName: __RNvXsI_NtCs9f3LFPSIp77_4core6optionINtB5_6OptionbENtNtB7_3fmt5Debug3fmtCs41t77sgS83u_2cc, symObjAddr: 0x6198, symBinAddr: 0x1000503C0, symSize: 0x9C }
  - { offset: 0x9F270, size: 0x8, addend: 0x0, symName: __RNvXsI_NtCs9f3LFPSIp77_4core6optionINtB5_6OptionjENtNtB7_3fmt5Debug3fmtCs41t77sgS83u_2cc, symObjAddr: 0x6234, symBinAddr: 0x10005045C, symSize: 0x98 }
  - { offset: 0x9F2DA, size: 0x8, addend: 0x0, symName: __RNvXsc_NtCs9f3LFPSIp77_4core6optionINtB5_6OptionNtCs41t77sgS83u_2cc10AsmFileExtENtNtB7_3cmp9PartialEq2eqBM_, symObjAddr: 0x640C, symBinAddr: 0x100050634, symSize: 0xB8 }
  - { offset: 0x9F34E, size: 0x8, addend: 0x0, symName: __RNvXsc_NtCs9f3LFPSIp77_4core6optionINtB5_6OptionRNtNtNtCs27l1GJC5rMQ_3std3ffi6os_str5OsStrENtNtB7_3cmp9PartialEq2eqCs41t77sgS83u_2cc, symObjAddr: 0x64C4, symBinAddr: 0x1000506EC, symSize: 0xB8 }
  - { offset: 0x9F3C2, size: 0x8, addend: 0x0, symName: __RNvXsc_NtCs9f3LFPSIp77_4core6optionINtB5_6OptionReENtNtB7_3cmp9PartialEq2eqCs41t77sgS83u_2cc, symObjAddr: 0x657C, symBinAddr: 0x1000507A4, symSize: 0xB8 }
  - { offset: 0x9F436, size: 0x8, addend: 0x0, symName: __RNvXsc_NtCs9f3LFPSIp77_4core6optionINtB5_6OptionbENtNtB7_3cmp9PartialEq2eqCs41t77sgS83u_2cc, symObjAddr: 0x6634, symBinAddr: 0x10005085C, symSize: 0xB8 }
  - { offset: 0x9F4AA, size: 0x8, addend: 0x0, symName: __RNvXsc_NtCs9f3LFPSIp77_4core6optionINtB5_6OptioncENtNtB7_3cmp9PartialEq2eqCs41t77sgS83u_2cc, symObjAddr: 0x66EC, symBinAddr: 0x100050914, symSize: 0xB8 }
  - { offset: 0xA0F6F, size: 0x8, addend: 0x0, symName: __RNvXsP_NtCs9f3LFPSIp77_4core3fmtRINtNtB7_6option6OptionINtNtCsdze8u8oDPro_5alloc4sync3ArcNtNtNtCs27l1GJC5rMQ_3std3ffi6os_str5OsStrEENtB5_5Debug3fmtCs41t77sgS83u_2cc, symObjAddr: 0x62CC, symBinAddr: 0x1000504F4, symSize: 0x30 }
  - { offset: 0xA0FB5, size: 0x8, addend: 0x0, symName: __RNvXsP_NtCs9f3LFPSIp77_4core3fmtRINtNtB7_6option6OptionINtNtCsdze8u8oDPro_5alloc4sync3ArceEENtB5_5Debug3fmtCs41t77sgS83u_2cc, symObjAddr: 0x62FC, symBinAddr: 0x100050524, symSize: 0x30 }
  - { offset: 0xA0FFB, size: 0x8, addend: 0x0, symName: __RNvXsP_NtCs9f3LFPSIp77_4core3fmtRINtNtB7_6option6OptionReENtB5_5Debug3fmtCs41t77sgS83u_2cc, symObjAddr: 0x632C, symBinAddr: 0x100050554, symSize: 0x30 }
  - { offset: 0xA1041, size: 0x8, addend: 0x0, symName: __RNvXsP_NtCs9f3LFPSIp77_4core3fmtRINtNtB7_6option6OptionbENtB5_5Debug3fmtCs41t77sgS83u_2cc, symObjAddr: 0x635C, symBinAddr: 0x100050584, symSize: 0x30 }
  - { offset: 0xA1087, size: 0x8, addend: 0x0, symName: __RNvXsP_NtCs9f3LFPSIp77_4core3fmtRINtNtB7_6option6OptionjENtB5_5Debug3fmtCs41t77sgS83u_2cc, symObjAddr: 0x638C, symBinAddr: 0x1000505B4, symSize: 0x30 }
  - { offset: 0xA2031, size: 0x8, addend: 0x0, symName: __RNvMs6_NtCs9f3LFPSIp77_4core3numm11checked_subCs41t77sgS83u_2cc, symObjAddr: 0x46B8, symBinAddr: 0x10004E8E0, symSize: 0x6C }
  - { offset: 0xA206E, size: 0x8, addend: 0x0, symName: __RNvMs6_NtCs9f3LFPSIp77_4core3numm3powCs41t77sgS83u_2cc, symObjAddr: 0x4724, symBinAddr: 0x10004E94C, symSize: 0x1FC }
  - { offset: 0xA211E, size: 0x8, addend: 0x0, symName: __RNvNvMs6_NtCs9f3LFPSIp77_4core3numm13unchecked_add18precondition_checkCs41t77sgS83u_2cc, symObjAddr: 0x4C50, symBinAddr: 0x10004EE78, symSize: 0x4C }
  - { offset: 0xA2220, size: 0x8, addend: 0x0, symName: __RNvNvMs9_NtCs9f3LFPSIp77_4core3numj13unchecked_add18precondition_checkCs41t77sgS83u_2cc, symObjAddr: 0x4C9C, symBinAddr: 0x10004EEC4, symSize: 0x4C }
  - { offset: 0xA22C7, size: 0x8, addend: 0x0, symName: __RNvNvMs9_NtCs9f3LFPSIp77_4core3numj13unchecked_mul18precondition_checkCs41t77sgS83u_2cc, symObjAddr: 0x4CE8, symBinAddr: 0x10004EF10, symSize: 0x54 }
  - { offset: 0xA236E, size: 0x8, addend: 0x0, symName: __RNvNvMs9_NtCs9f3LFPSIp77_4core3numj13unchecked_sub18precondition_checkCs41t77sgS83u_2cc, symObjAddr: 0x4D3C, symBinAddr: 0x10004EF64, symSize: 0x54 }
  - { offset: 0xA2737, size: 0x8, addend: 0x0, symName: __RNvNtNtCs9f3LFPSIp77_4core4hash3sip9u8to64_leCs41t77sgS83u_2cc, symObjAddr: 0x4920, symBinAddr: 0x10004EB48, symSize: 0x230 }
  - { offset: 0xA2916, size: 0x8, addend: 0x0, symName: __RNvXs3_NtNtCs9f3LFPSIp77_4core4hash3sipINtB5_6HasherNtB5_11Sip13RoundsENtB7_6Hasher5writeCs41t77sgS83u_2cc, symObjAddr: 0x517C, symBinAddr: 0x10004F3A4, symSize: 0x230 }
  - { offset: 0xA2AB6, size: 0x8, addend: 0x0, symName: __RNvXs3_NtNtCs9f3LFPSIp77_4core4hash3sipINtB5_6HasherNtB5_11Sip13RoundsENtB7_6Hasher6finishCs41t77sgS83u_2cc, symObjAddr: 0x53AC, symBinAddr: 0x10004F5D4, symSize: 0xA0 }
  - { offset: 0xA2B29, size: 0x8, addend: 0x0, symName: __RNvXs3_NtNtCs9f3LFPSIp77_4core4hash3sipINtB5_6HasherNtB5_11Sip13RoundsENtB7_6Hasher9write_strCs41t77sgS83u_2cc, symObjAddr: 0x544C, symBinAddr: 0x10004F674, symSize: 0x5C }
  - { offset: 0xA2B8F, size: 0x8, addend: 0x0, symName: __RNvXs6_NtNtCs9f3LFPSIp77_4core4hash3sipNtB5_11Sip13RoundsNtB5_3Sip8c_roundsCs41t77sgS83u_2cc, symObjAddr: 0x54D8, symBinAddr: 0x10004F700, symSize: 0x170 }
  - { offset: 0xA2D05, size: 0x8, addend: 0x0, symName: __RNvXs6_NtNtCs9f3LFPSIp77_4core4hash3sipNtB5_11Sip13RoundsNtB5_3Sip8d_roundsCs41t77sgS83u_2cc, symObjAddr: 0x5648, symBinAddr: 0x10004F870, symSize: 0x408 }
  - { offset: 0xA33FE, size: 0x8, addend: 0x0, symName: __RNvNvNtNtCs9f3LFPSIp77_4core4char7convert18from_u32_unchecked18precondition_checkCs41t77sgS83u_2cc, symObjAddr: 0x4D90, symBinAddr: 0x10004EFB8, symSize: 0x98 }
  - { offset: 0xA353E, size: 0x8, addend: 0x0, symName: __RNvYINtNtCs9f3LFPSIp77_4core6option6OptionReENtNtB7_3cmp9PartialEq2neCs41t77sgS83u_2cc, symObjAddr: 0x6A44, symBinAddr: 0x100050C6C, symSize: 0x30 }
  - { offset: 0xA358D, size: 0x8, addend: 0x0, symName: __RNvYINtNtCs9f3LFPSIp77_4core6option6OptioncENtNtB7_3cmp9PartialEq2neCs41t77sgS83u_2cc, symObjAddr: 0x6A74, symBinAddr: 0x100050C9C, symSize: 0x30 }
  - { offset: 0xA49B1, size: 0x8, addend: 0x0, symName: __RNCNvMs1_NtNtNtNtCs27l1GJC5rMQ_3std3sys4sync6rwlock5queueNtB7_6RwLock11read_unlock0Cs41t77sgS83u_2cc, symObjAddr: 0x3580, symBinAddr: 0x10004D7A8, symSize: 0x9C }
  - { offset: 0xA4A29, size: 0x8, addend: 0x0, symName: __RNvNtNtNtNtCs27l1GJC5rMQ_3std3sys4sync6rwlock5queue9read_lockCs41t77sgS83u_2cc, symObjAddr: 0x4B50, symBinAddr: 0x10004ED78, symSize: 0x100 }
  - { offset: 0xA5010, size: 0x8, addend: 0x0, symName: __RNvXsd_NtNtCs27l1GJC5rMQ_3std2io5stdioNtB5_6StdoutNtB7_5Write17is_write_vectoredCs41t77sgS83u_2cc, symObjAddr: 0x68F4, symBinAddr: 0x100050B1C, symSize: 0x30 }
  - { offset: 0xA5044, size: 0x8, addend: 0x0, symName: __RNvXse_NtNtCs27l1GJC5rMQ_3std2io5stdioRNtB5_6StdoutNtB7_5Write17is_write_vectoredCs41t77sgS83u_2cc, symObjAddr: 0x6924, symBinAddr: 0x100050B4C, symSize: 0x74 }
  - { offset: 0xA5078, size: 0x8, addend: 0x0, symName: __RNvXsh_NtNtCs27l1GJC5rMQ_3std2io5stdioNtB5_10StdoutLockNtB7_5Write17is_write_vectoredCs41t77sgS83u_2cc, symObjAddr: 0x6998, symBinAddr: 0x100050BC0, symSize: 0xAC }
  - { offset: 0xA54B6, size: 0x8, addend: 0x0, symName: __RNCNvMs9_NtNtCs27l1GJC5rMQ_3std4sync5mutexINtB7_10MutexGuardNtNtNtB9_4mpmc4zero5InnerE3new0Cs41t77sgS83u_2cc, symObjAddr: 0x361C, symBinAddr: 0x10004D844, symSize: 0x18 }
  - { offset: 0xA54FE, size: 0x8, addend: 0x0, symName: __RNCNvMs9_NtNtCs27l1GJC5rMQ_3std4sync5mutexINtB7_10MutexGuardNtNtNtB9_4mpmc5waker5WakerE3new0Cs41t77sgS83u_2cc, symObjAddr: 0x3634, symBinAddr: 0x10004D85C, symSize: 0x18 }
  - { offset: 0xA5546, size: 0x8, addend: 0x0, symName: __RNCNvMs9_NtNtCs27l1GJC5rMQ_3std4sync5mutexINtB7_10MutexGuardbE3new0Cs41t77sgS83u_2cc, symObjAddr: 0x364C, symBinAddr: 0x10004D874, symSize: 0x18 }
  - { offset: 0xA56A6, size: 0x8, addend: 0x0, symName: __RNvXsa_NtNtCs27l1GJC5rMQ_3std4sync5mutexINtB5_10MutexGuardbENtNtNtCs9f3LFPSIp77_4core3ops5deref5Deref5derefCs41t77sgS83u_2cc, symObjAddr: 0x63BC, symBinAddr: 0x1000505E4, symSize: 0x28 }
  - { offset: 0xA5701, size: 0x8, addend: 0x0, symName: __RNvXsb_NtNtCs27l1GJC5rMQ_3std4sync5mutexINtB5_10MutexGuardbENtNtNtCs9f3LFPSIp77_4core3ops5deref8DerefMut9deref_mutCs41t77sgS83u_2cc, symObjAddr: 0x63E4, symBinAddr: 0x10005060C, symSize: 0x28 }
  - { offset: 0xA575C, size: 0x8, addend: 0x0, symName: __RNvXsc_NtNtCs27l1GJC5rMQ_3std4sync5mutexINtB5_10MutexGuardNtNtNtB7_4mpmc4zero5InnerENtNtNtCs9f3LFPSIp77_4core3ops4drop4Drop4dropCs41t77sgS83u_2cc, symObjAddr: 0x67A4, symBinAddr: 0x1000509CC, symSize: 0x70 }
  - { offset: 0xA5818, size: 0x8, addend: 0x0, symName: __RNvXsc_NtNtCs27l1GJC5rMQ_3std4sync5mutexINtB5_10MutexGuardNtNtNtB7_4mpmc5waker5WakerENtNtNtCs9f3LFPSIp77_4core3ops4drop4Drop4dropCs41t77sgS83u_2cc, symObjAddr: 0x6814, symBinAddr: 0x100050A3C, symSize: 0x70 }
  - { offset: 0xA58D4, size: 0x8, addend: 0x0, symName: __RNvXsc_NtNtCs27l1GJC5rMQ_3std4sync5mutexINtB5_10MutexGuardbENtNtNtCs9f3LFPSIp77_4core3ops4drop4Drop4dropCs41t77sgS83u_2cc, symObjAddr: 0x6884, symBinAddr: 0x100050AAC, symSize: 0x70 }
  - { offset: 0xA5D81, size: 0x8, addend: 0x0, symName: __RINvNtNtNtCs27l1GJC5rMQ_3std4sync4mpmc7counter3newINtNtB4_4list7ChannelINtNtCs9f3LFPSIp77_4core6result6ResultNtCs22zHMr2Jt3g_9jobserver8AcquiredNtNtNtB8_2io5error5ErrorEEECs41t77sgS83u_2cc, symObjAddr: 0x3478, symBinAddr: 0x10004D6A0, symSize: 0x108 }
  - { offset: 0xA6292, size: 0x8, addend: 0x0, symName: __RNcNtINtNtNtNtCs27l1GJC5rMQ_3std4sync4mpmc5error16SendTimeoutErrorINtNtCs9f3LFPSIp77_4core6result6ResultNtCs22zHMr2Jt3g_9jobserver8AcquiredNtNtNtBc_2io5error5ErrorEE12Disconnected0Cs41t77sgS83u_2cc, symObjAddr: 0x3664, symBinAddr: 0x10004D88C, symSize: 0x18 }
  - { offset: 0xA7CB7, size: 0x8, addend: 0x0, symName: __RINvMNtCs9f3LFPSIp77_4core6optionINtB3_6OptionINtNtCsdze8u8oDPro_5alloc4sync3ArcNtNtNtCs27l1GJC5rMQ_3std3ffi6os_str5OsStrEE3mapNtNtNtCs41t77sgS83u_2cc7windows10find_tools3EnvNcNtB21_5Arced0EB27_, symObjAddr: 0x0, symBinAddr: 0x10004A228, symSize: 0x78 }
  - { offset: 0xA8086, size: 0x8, addend: 0x0, symName: __RNvXCscXJUXcj6jCz_9hashbrowneINtB2_10EquivalentINtNtCsdze8u8oDPro_5alloc5boxed3BoxeEE10equivalentCs41t77sgS83u_2cc, symObjAddr: 0x4E28, symBinAddr: 0x10004F050, symSize: 0x60 }
  - { offset: 0xA81F7, size: 0x8, addend: 0x0, symName: __RINvMNtCs9f3LFPSIp77_4core6optionINtB3_6OptionINtNtCsdze8u8oDPro_5alloc4sync3ArcNtNtNtCs27l1GJC5rMQ_3std3ffi6os_str5OsStrEE7or_elseNCNCNvMs3_Cs41t77sgS83u_2ccNtB2f_5Build23apple_deployment_targets_0s0_0EB2f_, symObjAddr: 0x78, symBinAddr: 0x10004A2A0, symSize: 0xE8 }
  - { offset: 0xA8266, size: 0x8, addend: 0x0, symName: __RINvMNtCs9f3LFPSIp77_4core6optionINtB3_6OptionINtNtCsdze8u8oDPro_5alloc4sync3ArcNtNtNtCs27l1GJC5rMQ_3std3ffi6os_str5OsStrEE7or_elseNCNvMs3_Cs41t77sgS83u_2ccNtB2d_5Build27getenv_with_target_prefixes0EB2d_, symObjAddr: 0x160, symBinAddr: 0x10004A388, symSize: 0xEC }
  - { offset: 0xA82C9, size: 0x8, addend: 0x0, symName: __RINvMNtCs9f3LFPSIp77_4core6optionINtB3_6OptionINtNtCsdze8u8oDPro_5alloc4sync3ArcNtNtNtCs27l1GJC5rMQ_3std3ffi6os_str5OsStrEE7or_elseNCNvMs3_Cs41t77sgS83u_2ccNtB2d_5Build27getenv_with_target_prefixess0_0EB2d_, symObjAddr: 0x24C, symBinAddr: 0x10004A474, symSize: 0xE8 }
  - { offset: 0xA832B, size: 0x8, addend: 0x0, symName: __RINvMNtCs9f3LFPSIp77_4core6optionINtB3_6OptionINtNtCsdze8u8oDPro_5alloc4sync3ArcNtNtNtCs27l1GJC5rMQ_3std3ffi6os_str5OsStrEE7or_elseNCNvMs3_Cs41t77sgS83u_2ccNtB2d_5Build27getenv_with_target_prefixess_0EB2d_, symObjAddr: 0x334, symBinAddr: 0x10004A55C, symSize: 0xEC }
  - { offset: 0xA838E, size: 0x8, addend: 0x0, symName: __RINvMNtCs9f3LFPSIp77_4core6optionINtB3_6OptionINtNtCsdze8u8oDPro_5alloc4sync3ArcNtNtNtCs27l1GJC5rMQ_3std3ffi6os_str5OsStrEE8and_thenINtNtBN_6borrow3CoweENCNCNvMs3_Cs41t77sgS83u_2ccNtB2B_5Build17prefix_for_targets_00EB2B_, symObjAddr: 0x420, symBinAddr: 0x10004A648, symSize: 0x64 }
  - { offset: 0xA8434, size: 0x8, addend: 0x0, symName: __RINvMNtCs9f3LFPSIp77_4core6optionINtB3_6OptionINtNtCsdze8u8oDPro_5alloc4sync3ArceEE14unwrap_or_elseNCNvMs3_Cs41t77sgS83u_2ccNtB1H_5Build23apple_deployment_targets1_0EB1H_, symObjAddr: 0x484, symBinAddr: 0x10004A6AC, symSize: 0x80 }
  - { offset: 0xA8496, size: 0x8, addend: 0x0, symName: __RINvMNtCs9f3LFPSIp77_4core6optionINtB3_6OptionINtNtCsdze8u8oDPro_5alloc4sync3ArceEE14unwrap_or_elseNCNvMs3_Cs41t77sgS83u_2ccNtB1H_5Build23apple_deployment_targets2_0EB1H_, symObjAddr: 0x504, symBinAddr: 0x10004A72C, symSize: 0x68 }
  - { offset: 0xA84F8, size: 0x8, addend: 0x0, symName: __RINvMNtCs9f3LFPSIp77_4core6optionINtB3_6OptionINtNtCsdze8u8oDPro_5alloc4sync3ArceEE14unwrap_or_elseNCNvMs3_Cs41t77sgS83u_2ccNtB1H_5Build23apple_deployment_targets3_0EB1H_, symObjAddr: 0x56C, symBinAddr: 0x10004A794, symSize: 0x68 }
  - { offset: 0xA855A, size: 0x8, addend: 0x0, symName: __RINvMNtCs9f3LFPSIp77_4core6optionINtB3_6OptionINtNtCsdze8u8oDPro_5alloc4sync3ArceEE14unwrap_or_elseNCNvMs3_Cs41t77sgS83u_2ccNtB1H_5Build23apple_deployment_targets4_0EB1H_, symObjAddr: 0x5D4, symBinAddr: 0x10004A7FC, symSize: 0x68 }
  - { offset: 0xA85BC, size: 0x8, addend: 0x0, symName: __RINvMNtCs9f3LFPSIp77_4core6optionINtB3_6OptionINtNtCsdze8u8oDPro_5alloc4sync3ArceEE14unwrap_or_elseNCNvMs3_Cs41t77sgS83u_2ccNtB1H_5Build23apple_deployment_targets5_0EB1H_, symObjAddr: 0x63C, symBinAddr: 0x10004A864, symSize: 0x68 }
  - { offset: 0xA861E, size: 0x8, addend: 0x0, symName: __RINvMNtCs9f3LFPSIp77_4core6optionINtB3_6OptionINtNtCsdze8u8oDPro_5alloc4sync3ArceEE7or_elseNCNvMs3_Cs41t77sgS83u_2ccNtB1z_5Build23apple_deployment_target0EB1z_, symObjAddr: 0x6A4, symBinAddr: 0x10004A8CC, symSize: 0xE8 }
  - { offset: 0xA8680, size: 0x8, addend: 0x0, symName: __RINvMNtCs9f3LFPSIp77_4core6optionINtB3_6OptionINtNtCsdze8u8oDPro_5alloc4sync3ArceEE8and_thenBI_NCNvMs3_Cs41t77sgS83u_2ccNtB1D_5Build23apple_deployment_targets0_0EB1D_, symObjAddr: 0x78C, symBinAddr: 0x10004A9B4, symSize: 0x7C }
  - { offset: 0xA8709, size: 0x8, addend: 0x0, symName: __RINvMNtCs9f3LFPSIp77_4core6optionINtB3_6OptionINtNtCsdze8u8oDPro_5alloc6borrow3CowNtNtCs27l1GJC5rMQ_3std4path4PathEE10ok_or_elseNtCs41t77sgS83u_2cc5ErrorNCNvMs3_B24_NtB24_5Build11get_out_dir0EB24_, symObjAddr: 0x808, symBinAddr: 0x10004AA30, symSize: 0x8C }
  - { offset: 0xA8775, size: 0x8, addend: 0x0, symName: __RINvMNtCs9f3LFPSIp77_4core6optionINtB3_6OptionINtNtCsdze8u8oDPro_5alloc6borrow3CowNtNtCs27l1GJC5rMQ_3std4path4PathEE14unwrap_or_elseNCNvNvMNtCs41t77sgS83u_2cc4toolNtB2d_4Tool13with_features19detect_family_inner0EB2f_, symObjAddr: 0x894, symBinAddr: 0x10004AABC, symSize: 0x70 }
  - { offset: 0xA87D8, size: 0x8, addend: 0x0, symName: __RINvMNtCs9f3LFPSIp77_4core6optionINtB3_6OptionINtNtCsdze8u8oDPro_5alloc6borrow3CoweEE7or_elseNCNvMs3_Cs41t77sgS83u_2ccNtB1B_5Build17prefix_for_targets0_0EB1B_, symObjAddr: 0x904, symBinAddr: 0x10004AB2C, symSize: 0xE0 }
  - { offset: 0xA883B, size: 0x8, addend: 0x0, symName: __RINvMNtCs9f3LFPSIp77_4core6optionINtB3_6OptionINtNtCsdze8u8oDPro_5alloc6borrow3CoweEE7or_elseNCNvMs3_Cs41t77sgS83u_2ccNtB1B_5Build17prefix_for_targets_0EB1B_, symObjAddr: 0x9E4, symBinAddr: 0x10004AC0C, symSize: 0xD4 }
  - { offset: 0xA88B6, size: 0x8, addend: 0x0, symName: __RINvMNtCs9f3LFPSIp77_4core6optionINtB3_6OptionINtNtNtB5_3num7nonzero7NonZerojEE6map_orINtNtB5_6result6ResultuBI_ENcNtB1m_3Err0ECs41t77sgS83u_2cc, symObjAddr: 0xAB8, symBinAddr: 0x10004ACE0, symSize: 0xA8 }
  - { offset: 0xA8B51, size: 0x8, addend: 0x0, symName: __RINvMNtCs9f3LFPSIp77_4core6optionINtB3_6OptionNtCs22zHMr2Jt3g_9jobserver6ClientE3mapNtNtNtNtCs41t77sgS83u_2cc8parallel9job_token19inherited_jobserver9JobServerNCNvMB1m_B1k_8from_env0EB1s_, symObjAddr: 0xB60, symBinAddr: 0x10004AD88, symSize: 0x68 }
  - { offset: 0xA8BD4, size: 0x8, addend: 0x0, symName: __RINvMNtCs9f3LFPSIp77_4core6optionINtB3_6OptionNtNtCs27l1GJC5rMQ_3std4path7PathBufE3mapINtNtCsdze8u8oDPro_5alloc6borrow3CowNtBK_4PathENcNtB1m_5Owned0ECs41t77sgS83u_2cc, symObjAddr: 0xBC8, symBinAddr: 0x10004ADF0, symSize: 0x90 }
  - { offset: 0xA8D7F, size: 0x8, addend: 0x0, symName: __RINvMNtCs9f3LFPSIp77_4core6optionINtB3_6OptionNtNtCs27l1GJC5rMQ_3std4path7PathBufE3mapNtNtBM_7process7CommandNCNCNvMs3_Cs41t77sgS83u_2ccNtB1T_5Build25get_base_archiver_variants_00EB1T_, symObjAddr: 0xC58, symBinAddr: 0x10004AE80, symSize: 0xA8 }
  - { offset: 0xA8E09, size: 0x8, addend: 0x0, symName: __RINvMNtCs9f3LFPSIp77_4core6optionINtB3_6OptionNtNtCs27l1GJC5rMQ_3std4path7PathBufE3mapNtNtCs41t77sgS83u_2cc4tool4ToolNCNCNvNtNtNtB1q_7windows10find_tools5impl_21find_msvc_environment0s0_0EB1q_, symObjAddr: 0xD00, symBinAddr: 0x10004AF28, symSize: 0x9C }
  - { offset: 0xA8E8F, size: 0x8, addend: 0x0, symName: __RINvMNtCs9f3LFPSIp77_4core6optionINtB3_6OptionNtNtCs27l1GJC5rMQ_3std4path7PathBufE7or_elseNCNvMs3_Cs41t77sgS83u_2ccNtB1y_5Build5whichs_0EB1y_, symObjAddr: 0xD9C, symBinAddr: 0x10004AFC4, symSize: 0xE0 }
  - { offset: 0xA8EF2, size: 0x8, addend: 0x0, symName: __RINvMNtCs9f3LFPSIp77_4core6optionINtB3_6OptionNtNtCs27l1GJC5rMQ_3std6thread8ThreadIdE6map_oryNCNvMsd_NtNtBM_4sync14reentrant_lockNtB1B_3Tid3set0ECs41t77sgS83u_2cc, symObjAddr: 0xE7C, symBinAddr: 0x10004B0A4, symSize: 0xA8 }
  - { offset: 0xA8F82, size: 0x8, addend: 0x0, symName: __RINvMNtCs9f3LFPSIp77_4core6optionINtB3_6OptionNtNtCs27l1GJC5rMQ_3std7process11ChildStderrE3mapTBI_INtNtCsdze8u8oDPro_5alloc3vec3VechEENCNvMs_NtCs41t77sgS83u_2cc15command_helpersNtB2f_15StderrForwarder3new0EB2h_, symObjAddr: 0xF24, symBinAddr: 0x10004B14C, symSize: 0x6C }
  - { offset: 0xA8FEC, size: 0x8, addend: 0x0, symName: __RINvMNtCs9f3LFPSIp77_4core6optionINtB3_6OptionNtNtCs27l1GJC5rMQ_3std7process7CommandE14unwrap_or_elseNCNvMs3_Cs41t77sgS83u_2ccNtB1J_5Build20msvc_macro_assembler0EB1J_, symObjAddr: 0xF90, symBinAddr: 0x10004B1B8, symSize: 0x94 }
  - { offset: 0xA905C, size: 0x8, addend: 0x0, symName: __RINvMNtCs9f3LFPSIp77_4core6optionINtB3_6OptionNtNtCs27l1GJC5rMQ_3std7process7CommandE7or_elseNCNvMs3_Cs41t77sgS83u_2ccNtB1B_5Build25get_base_archiver_variants_0EB1B_, symObjAddr: 0x1024, symBinAddr: 0x10004B24C, symSize: 0xF0 }
  - { offset: 0xA90C0, size: 0x8, addend: 0x0, symName: __RINvMNtCs9f3LFPSIp77_4core6optionINtB3_6OptionNtNtCs41t77sgS83u_2cc4tool4ToolE3mapNtNtCs27l1GJC5rMQ_3std7process7CommandNCNvMs3_BM_NtBM_5Build21windows_registry_find0EBM_, symObjAddr: 0x1114, symBinAddr: 0x10004B33C, symSize: 0xA8 }
  - { offset: 0xA912C, size: 0x8, addend: 0x0, symName: __RINvMNtCs9f3LFPSIp77_4core6optionINtB3_6OptionNtNtCs41t77sgS83u_2cc4tool4ToolE3mapNtNtCs27l1GJC5rMQ_3std7process7CommandNCNvNtNtBM_7windows10find_tools4find0EBM_, symObjAddr: 0x11BC, symBinAddr: 0x10004B3E4, symSize: 0xA8 }
  - { offset: 0xA91A5, size: 0x8, addend: 0x0, symName: __RINvMNtCs9f3LFPSIp77_4core6optionINtB3_6OptionNtNtCs41t77sgS83u_2cc4tool4ToolE7or_elseNCNvMs3_BM_NtBM_5Build17get_base_compilers0_0EBM_, symObjAddr: 0x1264, symBinAddr: 0x10004B48C, symSize: 0xD8 }
  - { offset: 0xA9215, size: 0x8, addend: 0x0, symName: __RINvMNtCs9f3LFPSIp77_4core6optionINtB3_6OptionNtNtCs41t77sgS83u_2cc4tool4ToolE7or_elseNCNvMs3_BM_NtBM_5Build17get_base_compilers_0EBM_, symObjAddr: 0x133C, symBinAddr: 0x10004B564, symSize: 0xF0 }
  - { offset: 0xA92DB, size: 0x8, addend: 0x0, symName: __RINvMNtCs9f3LFPSIp77_4core6optionINtB3_6OptionNtNtCs41t77sgS83u_2cc4tool4ToolE7or_elseNCNvNtNtBM_7windows10find_tools15find_tool_inner0EBM_, symObjAddr: 0x142C, symBinAddr: 0x10004B654, symSize: 0xF0 }
  - { offset: 0xA933F, size: 0x8, addend: 0x0, symName: __RINvMNtCs9f3LFPSIp77_4core6optionINtB3_6OptionNtNtCs41t77sgS83u_2cc4tool4ToolE7or_elseNCNvNtNtBM_7windows10find_tools15find_tool_inners_0EBM_, symObjAddr: 0x151C, symBinAddr: 0x10004B744, symSize: 0xF0 }
  - { offset: 0xA93B0, size: 0x8, addend: 0x0, symName: __RINvMNtCs9f3LFPSIp77_4core6optionINtB3_6OptionNtNtCs41t77sgS83u_2cc4tool4ToolE7or_elseNCNvNtNtNtBM_7windows10find_tools5impl_21find_msvc_environments0_0EBM_, symObjAddr: 0x160C, symBinAddr: 0x10004B834, symSize: 0xEC }
  - { offset: 0xA9420, size: 0x8, addend: 0x0, symName: __RINvMNtCs9f3LFPSIp77_4core6optionINtB3_6OptionNtNtCs41t77sgS83u_2cc4tool4ToolE7or_elseNCNvNtNtNtBM_7windows10find_tools5impl_21find_msvc_environments_0EBM_, symObjAddr: 0x16F8, symBinAddr: 0x10004B920, symSize: 0xEC }
  - { offset: 0xA9483, size: 0x8, addend: 0x0, symName: __RINvMNtCs9f3LFPSIp77_4core6optionINtB3_6OptionNtNtCsdze8u8oDPro_5alloc6string6StringE10ok_or_elseNtCs41t77sgS83u_2cc5ErrorNCNvMs3_B1z_NtB1z_5Build17getenv_unwrap_str0EB1z_, symObjAddr: 0x17E4, symBinAddr: 0x10004BA0C, symSize: 0x98 }
  - { offset: 0xA9507, size: 0x8, addend: 0x0, symName: __RINvMNtCs9f3LFPSIp77_4core6optionINtB3_6OptionNtNtCsdze8u8oDPro_5alloc6string6StringE3mapINtNtBM_6borrow3CoweENcNtB1p_5Owned0ECs41t77sgS83u_2cc, symObjAddr: 0x187C, symBinAddr: 0x10004BAA4, symSize: 0x90 }
  - { offset: 0xA958B, size: 0x8, addend: 0x0, symName: __RINvMNtCs9f3LFPSIp77_4core6optionINtB3_6OptionNtNtNtCs27l1GJC5rMQ_3std3ffi6os_str8OsStringE3mapINtNtCsdze8u8oDPro_5alloc4sync3ArcNtBK_5OsStrENvYB1v_INtNtB5_7convert4FromBI_E4fromECs41t77sgS83u_2cc, symObjAddr: 0x190C, symBinAddr: 0x10004BB34, symSize: 0x7C }
  - { offset: 0xA960F, size: 0x8, addend: 0x0, symName: __RINvMNtCs9f3LFPSIp77_4core6optionINtB3_6OptionNtNtNtCs27l1GJC5rMQ_3std3ffi6os_str8OsStringE3mapNtNtNtCs41t77sgS83u_2cc7windows10find_tools3EnvNcNtB1v_5Owned0EB1B_, symObjAddr: 0x1988, symBinAddr: 0x10004BBB0, symSize: 0x90 }
  - { offset: 0xA967B, size: 0x8, addend: 0x0, symName: __RINvMNtCs9f3LFPSIp77_4core6optionINtB3_6OptionNtNtNtCs41t77sgS83u_2cc8parallel9job_token14JobTokenServerE14unwrap_or_elseNCNCNvMs0_BK_BI_3new00EBO_, symObjAddr: 0x1A18, symBinAddr: 0x10004BC40, symSize: 0x64 }
  - { offset: 0xA96F6, size: 0x8, addend: 0x0, symName: __RINvMNtCs9f3LFPSIp77_4core6optionINtB3_6OptionNtNtNtNtCs41t77sgS83u_2cc8parallel9job_token19inherited_jobserver9JobServerE3mapNtBM_14JobTokenServerNcNtB20_9Inherited0EBQ_, symObjAddr: 0x1A7C, symBinAddr: 0x10004BCA4, symSize: 0x90 }
  - { offset: 0xA9796, size: 0x8, addend: 0x0, symName: __RINvMNtCs9f3LFPSIp77_4core6optionINtB3_6OptionRINtNtCsdze8u8oDPro_5alloc4sync3ArcNtNtNtCs27l1GJC5rMQ_3std3ffi6os_str5OsStrEE8and_thenRReNCNvMs3_Cs41t77sgS83u_2ccNtB2i_5Build23find_working_gnu_prefix0EB2i_, symObjAddr: 0x1B0C, symBinAddr: 0x10004BD34, symSize: 0x6C }
  - { offset: 0xA9802, size: 0x8, addend: 0x0, symName: __RINvMNtCs9f3LFPSIp77_4core6optionINtB3_6OptionRNtNtCs27l1GJC5rMQ_3std4path4PathE10ok_or_elseNtCs41t77sgS83u_2cc5ErrorNCNvNtB1u_15command_helpers18objects_from_filess_0EB1u_, symObjAddr: 0x1B78, symBinAddr: 0x10004BDA0, symSize: 0x80 }
  - { offset: 0xA9885, size: 0x8, addend: 0x0, symName: __RINvMNtCs9f3LFPSIp77_4core6optionINtB3_6OptionRNtNtCs27l1GJC5rMQ_3std4path4PathE3mapINtNtCsdze8u8oDPro_5alloc6borrow3CowBJ_ENcNtB1k_8Borrowed0ECs41t77sgS83u_2cc, symObjAddr: 0x1BF8, symBinAddr: 0x10004BE20, symSize: 0x78 }
  - { offset: 0xA98F0, size: 0x8, addend: 0x0, symName: __RINvMNtCs9f3LFPSIp77_4core6optionINtB3_6OptionRNtNtCs27l1GJC5rMQ_3std4path4PathE6map_orbNCNCNCNvMs3_Cs41t77sgS83u_2ccNtB1A_5Build11try_compiles_000EB1A_, symObjAddr: 0x1C70, symBinAddr: 0x10004BE98, symSize: 0xC4 }
  - { offset: 0xA9962, size: 0x8, addend: 0x0, symName: __RINvMNtCs9f3LFPSIp77_4core6optionINtB3_6OptionRNtNtCs41t77sgS83u_2cc6target10TargetInfoE3mapReNCNvMNtBL_6parserNtB1z_21TargetInfoParserInner32from_cargo_environment_variabless0_0EBN_, symObjAddr: 0x1D34, symBinAddr: 0x10004BF5C, symSize: 0x58 }
  - { offset: 0xA99CD, size: 0x8, addend: 0x0, symName: __RINvMNtCs9f3LFPSIp77_4core6optionINtB3_6OptionRNtNtCs41t77sgS83u_2cc6target10TargetInfoE3mapReNCNvMNtBL_6parserNtB1z_21TargetInfoParserInner32from_cargo_environment_variabless1_0EBN_, symObjAddr: 0x1D8C, symBinAddr: 0x10004BFB4, symSize: 0x58 }
  - { offset: 0xA9A38, size: 0x8, addend: 0x0, symName: __RINvMNtCs9f3LFPSIp77_4core6optionINtB3_6OptionRNtNtCs41t77sgS83u_2cc6target10TargetInfoE3mapReNCNvMNtBL_6parserNtB1z_21TargetInfoParserInner32from_cargo_environment_variabless2_0EBN_, symObjAddr: 0x1DE4, symBinAddr: 0x10004C00C, symSize: 0x58 }
  - { offset: 0xA9AA3, size: 0x8, addend: 0x0, symName: __RINvMNtCs9f3LFPSIp77_4core6optionINtB3_6OptionRNtNtCs41t77sgS83u_2cc6target10TargetInfoE3mapReNCNvMNtBL_6parserNtB1z_21TargetInfoParserInner32from_cargo_environment_variabless3_0EBN_, symObjAddr: 0x1E3C, symBinAddr: 0x10004C064, symSize: 0x58 }
  - { offset: 0xA9B0E, size: 0x8, addend: 0x0, symName: __RINvMNtCs9f3LFPSIp77_4core6optionINtB3_6OptionRNtNtCs41t77sgS83u_2cc6target10TargetInfoE3mapReNCNvMNtBL_6parserNtB1z_21TargetInfoParserInner32from_cargo_environment_variabless4_0EBN_, symObjAddr: 0x1E94, symBinAddr: 0x10004C0BC, symSize: 0x58 }
  - { offset: 0xA9B79, size: 0x8, addend: 0x0, symName: __RINvMNtCs9f3LFPSIp77_4core6optionINtB3_6OptionRNtNtCsdze8u8oDPro_5alloc6string6StringE3mapReNCNCNvMs3_Cs41t77sgS83u_2ccNtB1C_5Build17get_base_compiler0s_0EB1C_, symObjAddr: 0x1EEC, symBinAddr: 0x10004C114, symSize: 0x58 }
  - { offset: 0xA9C02, size: 0x8, addend: 0x0, symName: __RINvMNtCs9f3LFPSIp77_4core6optionINtB3_6OptionRNtNtNtCs27l1GJC5rMQ_3std3ffi6os_str5OsStrE10ok_or_elseNtCs41t77sgS83u_2cc5ErrorNCNvMs3_B1D_NtB1D_5Build10try_expand0EB1D_, symObjAddr: 0x1F44, symBinAddr: 0x10004C16C, symSize: 0x80 }
  - { offset: 0xA9C6D, size: 0x8, addend: 0x0, symName: __RINvMNtCs9f3LFPSIp77_4core6optionINtB3_6OptionRNtNtNtCs27l1GJC5rMQ_3std3ffi6os_str5OsStrE10ok_or_elseNtCs41t77sgS83u_2cc5ErrorNCNvMs3_B1D_NtB1D_5Build25create_compile_object_cmd0EB1D_, symObjAddr: 0x1FC4, symBinAddr: 0x10004C1EC, symSize: 0x80 }
  - { offset: 0xA9CD8, size: 0x8, addend: 0x0, symName: __RINvMNtCs9f3LFPSIp77_4core6optionINtB3_6OptionRNtNtNtCs27l1GJC5rMQ_3std3ffi6os_str5OsStrE10ok_or_elseNtCs41t77sgS83u_2cc5ErrorNCNvNtB1D_15command_helpers18objects_from_files0EB1D_, symObjAddr: 0x2044, symBinAddr: 0x10004C26C, symSize: 0x80 }
  - { offset: 0xA9D5B, size: 0x8, addend: 0x0, symName: __RINvMNtCs9f3LFPSIp77_4core6optionINtB3_6OptionRNtNtNtCs27l1GJC5rMQ_3std3ffi6os_str5OsStrE3mapINtNtCsdze8u8oDPro_5alloc6borrow3CoweENvMsl_BL_BJ_15to_string_lossyECs41t77sgS83u_2cc, symObjAddr: 0x20C4, symBinAddr: 0x10004C2EC, symSize: 0x78 }
  - { offset: 0xA9DDE, size: 0x8, addend: 0x0, symName: __RINvMNtCs9f3LFPSIp77_4core6optionINtB3_6OptionRNtNtNtCs27l1GJC5rMQ_3std3ffi6os_str5OsStrE3mapNtNtBP_4path7PathBufNvYB1t_INtNtB5_7convert4FromBI_E4fromECs41t77sgS83u_2cc, symObjAddr: 0x213C, symBinAddr: 0x10004C364, symSize: 0x78 }
  - { offset: 0xA9E49, size: 0x8, addend: 0x0, symName: __RINvMNtCs9f3LFPSIp77_4core6optionINtB3_6OptionRNtNtNtCs27l1GJC5rMQ_3std3ffi6os_str5OsStrE3mapNtNtCsdze8u8oDPro_5alloc6string6StringNCNvMs3_Cs41t77sgS83u_2ccNtB2d_5Build17prefix_for_target0EB2d_, symObjAddr: 0x21B4, symBinAddr: 0x10004C3DC, symSize: 0x78 }
  - { offset: 0xA9EB4, size: 0x8, addend: 0x0, symName: __RINvMNtCs9f3LFPSIp77_4core6optionINtB3_6OptionRNtNtNtCs27l1GJC5rMQ_3std3ffi6os_str5OsStrE8and_thenNtNtBP_4path7PathBufNCNvMs3_Cs41t77sgS83u_2ccNtB20_5Build5which0EB20_, symObjAddr: 0x222C, symBinAddr: 0x10004C454, symSize: 0x70 }
  - { offset: 0xA9F1F, size: 0x8, addend: 0x0, symName: __RINvMNtCs9f3LFPSIp77_4core6optionINtB3_6OptionRNtNtNtCs27l1GJC5rMQ_3std3ffi6os_str5OsStrE8and_thenNtNtCs41t77sgS83u_2cc4tool4ToolNCNvNtNtNtB1C_7windows10find_tools5impl_21find_msvc_environment0EB1C_, symObjAddr: 0x229C, symBinAddr: 0x10004C4C4, symSize: 0x70 }
  - { offset: 0xA9F8A, size: 0x8, addend: 0x0, symName: __RINvMNtCs9f3LFPSIp77_4core6optionINtB3_6OptionRNtNtNtCs41t77sgS83u_2cc7windows10find_tools3EnvE3mapRNtNtNtCs27l1GJC5rMQ_3std3ffi6os_str5OsStrNCNCNvNtBL_5impl_21find_msvc_environments0_00EBP_, symObjAddr: 0x230C, symBinAddr: 0x10004C534, symSize: 0x58 }
  - { offset: 0xAA002, size: 0x8, addend: 0x0, symName: __RINvMNtCs9f3LFPSIp77_4core6optionINtB3_6OptionRTINtNtCsdze8u8oDPro_5alloc4sync3ArcNtNtNtCs27l1GJC5rMQ_3std3ffi6os_str5OsStrEBK_EE3mapRBK_NCNCNvMs3_Cs41t77sgS83u_2ccNtB2l_5Build23apple_deployment_targets_0s_0EB2l_, symObjAddr: 0x2364, symBinAddr: 0x10004C58C, symSize: 0x50 }
  - { offset: 0xAA07A, size: 0x8, addend: 0x0, symName: __RINvMNtCs9f3LFPSIp77_4core6optionINtB3_6OptionRTNtNtNtCs27l1GJC5rMQ_3std3ffi6os_str8OsStringBK_EE8and_thenNtNtBQ_4path7PathBufNCNvMs3_Cs41t77sgS83u_2ccNtB28_5Build11try_compiles_0EB28_, symObjAddr: 0x23B4, symBinAddr: 0x10004C5DC, symSize: 0x58 }
  - { offset: 0xAA0E5, size: 0x8, addend: 0x0, symName: __RINvMNtCs9f3LFPSIp77_4core6optionINtB3_6OptionReE3mapIBw_RBI_ENCNvCs41t77sgS83u_2cc27autodetect_android_compiler0EB12_, symObjAddr: 0x240C, symBinAddr: 0x10004C634, symSize: 0x68 }
  - { offset: 0xAA168, size: 0x8, addend: 0x0, symName: __RINvMNtCs9f3LFPSIp77_4core6optionINtB3_6OptionReE3mapINtNtCsdze8u8oDPro_5alloc4sync3ArceENvYBP_INtNtB5_7convert4FromBI_E4fromECs41t77sgS83u_2cc, symObjAddr: 0x2474, symBinAddr: 0x10004C69C, symSize: 0x64 }
  - { offset: 0xAA1EB, size: 0x8, addend: 0x0, symName: __RINvMNtCs9f3LFPSIp77_4core6optionINtB3_6OptionReE3mapINtNtCsdze8u8oDPro_5alloc6borrow3CoweENcNtBP_8Borrowed0ECs41t77sgS83u_2cc, symObjAddr: 0x24D8, symBinAddr: 0x10004C700, symSize: 0x78 }
  - { offset: 0xAA26E, size: 0x8, addend: 0x0, symName: __RINvMNtCs9f3LFPSIp77_4core6optionINtB3_6OptionReE3mapNtNtCsdze8u8oDPro_5alloc6string6StringNvYBP_INtNtB5_7convert4FromBI_E4fromECs41t77sgS83u_2cc, symObjAddr: 0x2550, symBinAddr: 0x10004C778, symSize: 0x78 }
  - { offset: 0xAA2D9, size: 0x8, addend: 0x0, symName: __RINvMNtCs9f3LFPSIp77_4core6optionINtB3_6OptionReE3mapNtNtCsdze8u8oDPro_5alloc6string6StringNvYeNtBR_8ToString9to_stringECs41t77sgS83u_2cc, symObjAddr: 0x25C8, symBinAddr: 0x10004C7F0, symSize: 0x78 }
  - { offset: 0xAA35C, size: 0x8, addend: 0x0, symName: __RINvMNtCs9f3LFPSIp77_4core6optionINtB3_6OptionReE3mapRNtNtCs27l1GJC5rMQ_3std4path4PathINvMsZ_BS_BQ_3neweEECs41t77sgS83u_2cc, symObjAddr: 0x2640, symBinAddr: 0x10004C868, symSize: 0x64 }
  - { offset: 0xAA3C7, size: 0x8, addend: 0x0, symName: __RINvMNtCs9f3LFPSIp77_4core6optionINtB3_6OptionReE5ok_orNtCs41t77sgS83u_2cc5ErrorEBT_, symObjAddr: 0x26A4, symBinAddr: 0x10004C8CC, symSize: 0x98 }
  - { offset: 0xAA442, size: 0x8, addend: 0x0, symName: __RINvMNtCs9f3LFPSIp77_4core6optionINtB3_6OptionReE6map_orIBw_bEINvNvMNtCs41t77sgS83u_2cc5flagsNtB14_17RustcCodegenFlags14set_rustc_flag11arg_to_boolBI_EEB16_, symObjAddr: 0x273C, symBinAddr: 0x10004C964, symSize: 0xB4 }
  - { offset: 0xAA4B4, size: 0x8, addend: 0x0, symName: __RINvMNtCs9f3LFPSIp77_4core6optionINtB3_6OptionReE7or_elseNCNvMs3_Cs41t77sgS83u_2ccNtB11_5Build23find_working_gnu_prefixs_0EB11_, symObjAddr: 0x27F0, symBinAddr: 0x10004CA18, symSize: 0xC8 }
  - { offset: 0xAA53F, size: 0x8, addend: 0x0, symName: __RINvMNtCs9f3LFPSIp77_4core6optionINtB3_6OptionTNtNtCs27l1GJC5rMQ_3std4path7PathBufIBw_INtNtCsdze8u8oDPro_5alloc4sync3ArcNtNtNtBN_3ffi6os_str5OsStrEEINtNtB1r_3vec3VecNtNtB1r_6string6StringEEE3mapNtNtBN_7process7CommandNCNvMs3_Cs41t77sgS83u_2ccNtB3B_5Build25get_base_archiver_variant0EB3B_, symObjAddr: 0x28B8, symBinAddr: 0x10004CAE0, symSize: 0xC0 }
  - { offset: 0xAA5AC, size: 0x8, addend: 0x0, symName: __RINvMNtCs9f3LFPSIp77_4core6optionINtB3_6OptionTNtNtCs27l1GJC5rMQ_3std4path7PathBufIBw_INtNtCsdze8u8oDPro_5alloc4sync3ArcNtNtNtBN_3ffi6os_str5OsStrEEINtNtB1r_3vec3VecNtNtB1r_6string6StringEEE3mapNtNtCs41t77sgS83u_2cc4tool4ToolNCNvMs3_B3a_NtB3a_5Build17get_base_compiler0EB3a_, symObjAddr: 0x2978, symBinAddr: 0x10004CBA0, symSize: 0xC0 }
  - { offset: 0xAA637, size: 0x8, addend: 0x0, symName: __RINvMNtCs9f3LFPSIp77_4core6optionINtB3_6OptionTReBJ_EE5ok_orNtCs41t77sgS83u_2cc5ErrorEBY_, symObjAddr: 0x2A38, symBinAddr: 0x10004CC60, symSize: 0xA4 }
  - { offset: 0xAA69B, size: 0x8, addend: 0x0, symName: __RINvMNtCs9f3LFPSIp77_4core6optionINtB3_6OptionbE14unwrap_or_elseNCNvMs3_Cs41t77sgS83u_2ccNtB18_5Build23get_force_frame_pointer0EB18_, symObjAddr: 0x2ADC, symBinAddr: 0x10004CD04, symSize: 0x6C }
  - { offset: 0xAA6FC, size: 0x8, addend: 0x0, symName: __RINvMNtCs9f3LFPSIp77_4core6optionINtB3_6OptionbE14unwrap_or_elseNCNvMs3_Cs41t77sgS83u_2ccNtB18_5Build23get_shell_escaped_flags0EB18_, symObjAddr: 0x2B48, symBinAddr: 0x10004CD70, symSize: 0x6C }
  - { offset: 0xAA75D, size: 0x8, addend: 0x0, symName: __RINvMNtCs9f3LFPSIp77_4core6optionINtB3_6OptionbE14unwrap_or_elseNCNvMs3_Cs41t77sgS83u_2ccNtB18_5Build9get_debug0EB18_, symObjAddr: 0x2BB4, symBinAddr: 0x10004CDDC, symSize: 0x6C }
  - { offset: 0xAA7BE, size: 0x8, addend: 0x0, symName: __RINvMNtCs9f3LFPSIp77_4core6optionINtB3_6OptionmE11map_or_elseNtNtCsdze8u8oDPro_5alloc6string6StringNCNvMs_NtCs41t77sgS83u_2cc4toolNtB1G_10ToolFamily15add_debug_flags0NCB1B_s_0EB1I_, symObjAddr: 0x2C20, symBinAddr: 0x10004CE48, symSize: 0xB0 }
  - { offset: 0xAAAA8, size: 0x8, addend: 0x0, symName: __RINvMNtNtNtCs27l1GJC5rMQ_3std4sync4mpmc7counterINtB3_6SenderINtNtB5_4list7ChannelINtNtCs9f3LFPSIp77_4core6result6ResultNtCs22zHMr2Jt3g_9jobserver8AcquiredNtNtNtB9_2io5error5ErrorEEE7releaseNCNvXs4_B5_INtB5_6SenderB1h_ENtNtNtB1m_3ops4drop4Drop4drops_0ECs41t77sgS83u_2cc, symObjAddr: 0x2CD0, symBinAddr: 0x10004CEF8, symSize: 0x148 }
  - { offset: 0xAAE61, size: 0x8, addend: 0x0, symName: __RINvMNtNtNtCs27l1GJC5rMQ_3std4sync4mpmc7counterINtB3_6SenderINtNtB5_4zero7ChannelINtNtCs9f3LFPSIp77_4core6result6ResultNtCs22zHMr2Jt3g_9jobserver8AcquiredNtNtNtB9_2io5error5ErrorEEE7releaseNCNvXs4_B5_INtB5_6SenderB1h_ENtNtNtB1m_3ops4drop4Drop4drops0_0ECs41t77sgS83u_2cc, symObjAddr: 0x2E18, symBinAddr: 0x10004D040, symSize: 0x13C }
  - { offset: 0xAB241, size: 0x8, addend: 0x0, symName: __RINvMNtNtNtCs27l1GJC5rMQ_3std4sync4mpmc7counterINtB3_6SenderINtNtB5_5array7ChannelINtNtCs9f3LFPSIp77_4core6result6ResultNtCs22zHMr2Jt3g_9jobserver8AcquiredNtNtNtB9_2io5error5ErrorEEE7releaseNCNvXs4_B5_INtB5_6SenderB1i_ENtNtNtB1n_3ops4drop4Drop4drop0ECs41t77sgS83u_2cc, symObjAddr: 0x2F54, symBinAddr: 0x10004D17C, symSize: 0x148 }
  - { offset: 0xAB5C6, size: 0x8, addend: 0x0, symName: __RINvMs1_NtNtNtCs27l1GJC5rMQ_3std4sync4mpmc7counterINtB6_8ReceiverINtNtB8_4list7ChannelINtNtCs9f3LFPSIp77_4core6result6ResultNtCs22zHMr2Jt3g_9jobserver8AcquiredNtNtNtBc_2io5error5ErrorEEE7releaseNCNvXsi_B8_INtB8_8ReceiverB1m_ENtNtNtB1r_3ops4drop4Drop4drops_0ECs41t77sgS83u_2cc, symObjAddr: 0x309C, symBinAddr: 0x10004D2C4, symSize: 0x148 }
  - { offset: 0xAB94B, size: 0x8, addend: 0x0, symName: __RINvMs1_NtNtNtCs27l1GJC5rMQ_3std4sync4mpmc7counterINtB6_8ReceiverINtNtB8_4zero7ChannelINtNtCs9f3LFPSIp77_4core6result6ResultNtCs22zHMr2Jt3g_9jobserver8AcquiredNtNtNtBc_2io5error5ErrorEEE7releaseNCNvXsi_B8_INtB8_8ReceiverB1m_ENtNtNtB1r_3ops4drop4Drop4drops0_0ECs41t77sgS83u_2cc, symObjAddr: 0x31E4, symBinAddr: 0x10004D40C, symSize: 0x14C }
  - { offset: 0xABCD0, size: 0x8, addend: 0x0, symName: __RINvMs1_NtNtNtCs27l1GJC5rMQ_3std4sync4mpmc7counterINtB6_8ReceiverINtNtB8_5array7ChannelINtNtCs9f3LFPSIp77_4core6result6ResultNtCs22zHMr2Jt3g_9jobserver8AcquiredNtNtNtBc_2io5error5ErrorEEE7releaseNCNvXsi_B8_INtB8_8ReceiverB1n_ENtNtNtB1s_3ops4drop4Drop4drop0ECs41t77sgS83u_2cc, symObjAddr: 0x3330, symBinAddr: 0x10004D558, symSize: 0x148 }
  - { offset: 0xABFAB, size: 0x8, addend: 0x0, symName: __RNvMNtCs9f3LFPSIp77_4core6optionINtB2_6OptionIBv_RReEE9unwrap_orCs41t77sgS83u_2cc, symObjAddr: 0x367C, symBinAddr: 0x10004D8A4, symSize: 0x48 }
  - { offset: 0xAC08F, size: 0x8, addend: 0x0, symName: __RNvMNtCs9f3LFPSIp77_4core6optionINtB2_6OptionINtNtB4_3pin3PinQNCNvMs3_Cs41t77sgS83u_2ccNtB16_5Build15compile_objects0EE6as_mutB16_, symObjAddr: 0x36C4, symBinAddr: 0x10004D8EC, symSize: 0x4C }
  - { offset: 0xAC102, size: 0x8, addend: 0x0, symName: __RNvMNtCs9f3LFPSIp77_4core6optionINtB2_6OptionINtNtB4_3pin3PinQNCNvMs3_Cs41t77sgS83u_2ccNtB16_5Build15compile_objects0EE7is_noneB16_, symObjAddr: 0x3710, symBinAddr: 0x10004D938, symSize: 0x4C }
  - { offset: 0xAC27E, size: 0x8, addend: 0x0, symName: __RNvMNtCs9f3LFPSIp77_4core6optionINtB2_6OptionINtNtB4_3pin3PinQNCNvMs3_Cs41t77sgS83u_2ccNtB16_5Build15compile_objectss_0EE6as_mutB16_, symObjAddr: 0x375C, symBinAddr: 0x10004D984, symSize: 0x4C }
  - { offset: 0xAC2F1, size: 0x8, addend: 0x0, symName: __RNvMNtCs9f3LFPSIp77_4core6optionINtB2_6OptionINtNtB4_3pin3PinQNCNvMs3_Cs41t77sgS83u_2ccNtB16_5Build15compile_objectss_0EE7is_noneB16_, symObjAddr: 0x37A8, symBinAddr: 0x10004D9D0, symSize: 0x4C }
  - { offset: 0xAC348, size: 0x8, addend: 0x0, symName: __RNvMNtCs9f3LFPSIp77_4core6optionINtB2_6OptionINtNtB4_4cell4CellIBv_NtNtNtNtCs27l1GJC5rMQ_3std4sync4mpmc7context7ContextEEE4takeCs41t77sgS83u_2cc, symObjAddr: 0x37F4, symBinAddr: 0x10004DA1C, symSize: 0x3C }
  - { offset: 0xAC41F, size: 0x8, addend: 0x0, symName: __RNvMNtCs9f3LFPSIp77_4core6optionINtB2_6OptionINtNtB4_4cell4CellTyyEEE4takeCs41t77sgS83u_2cc, symObjAddr: 0x3830, symBinAddr: 0x10004DA58, symSize: 0x3C }
  - { offset: 0xAC4D8, size: 0x8, addend: 0x0, symName: __RNvMNtCs9f3LFPSIp77_4core6optionINtB2_6OptionINtNtCsdze8u8oDPro_5alloc4sync3ArcNtNtNtCs27l1GJC5rMQ_3std3ffi6os_str5OsStrEE6as_refCs41t77sgS83u_2cc, symObjAddr: 0x386C, symBinAddr: 0x10004DA94, symSize: 0x4C }
  - { offset: 0xAC522, size: 0x8, addend: 0x0, symName: __RNvMNtCs9f3LFPSIp77_4core6optionINtB2_6OptionINtNtCsdze8u8oDPro_5alloc4sync3ArcNtNtNtCs27l1GJC5rMQ_3std3ffi6os_str5OsStrEE7is_someCs41t77sgS83u_2cc, symObjAddr: 0x38B8, symBinAddr: 0x10004DAE0, symSize: 0x48 }
  - { offset: 0xAC5C2, size: 0x8, addend: 0x0, symName: __RNvMNtCs9f3LFPSIp77_4core6optionINtB2_6OptionINtNtCsdze8u8oDPro_5alloc4sync3ArcNtNtNtCs27l1GJC5rMQ_3std3ffi6os_str5OsStrEE8as_derefCs41t77sgS83u_2cc, symObjAddr: 0x3900, symBinAddr: 0x10004DB28, symSize: 0x74 }
  - { offset: 0xAC66C, size: 0x8, addend: 0x0, symName: __RNvMNtCs9f3LFPSIp77_4core6optionINtB2_6OptionINtNtCsdze8u8oDPro_5alloc4sync3ArceEE6as_refCs41t77sgS83u_2cc, symObjAddr: 0x3974, symBinAddr: 0x10004DB9C, symSize: 0x4C }
  - { offset: 0xAC6D2, size: 0x8, addend: 0x0, symName: __RNvMNtCs9f3LFPSIp77_4core6optionINtB2_6OptionINtNtCsdze8u8oDPro_5alloc4sync3ArceEE7is_noneCs41t77sgS83u_2cc, symObjAddr: 0x39C0, symBinAddr: 0x10004DBE8, symSize: 0x4C }
  - { offset: 0xAC790, size: 0x8, addend: 0x0, symName: __RNvMNtCs9f3LFPSIp77_4core6optionINtB2_6OptionINtNtCsdze8u8oDPro_5alloc4sync3ArceEE8as_derefCs41t77sgS83u_2cc, symObjAddr: 0x3A0C, symBinAddr: 0x10004DC34, symSize: 0x74 }
  - { offset: 0xAC83A, size: 0x8, addend: 0x0, symName: __RNvMNtCs9f3LFPSIp77_4core6optionINtB2_6OptionINtNtCsdze8u8oDPro_5alloc4sync3ArceEE9unwrap_orCs41t77sgS83u_2cc, symObjAddr: 0x3A80, symBinAddr: 0x10004DCA8, symSize: 0x7C }
  - { offset: 0xAC921, size: 0x8, addend: 0x0, symName: __RNvMNtCs9f3LFPSIp77_4core6optionINtB2_6OptionINtNtCsdze8u8oDPro_5alloc6borrow3CowNtNtCs27l1GJC5rMQ_3std4path4PathEE8as_derefCs41t77sgS83u_2cc, symObjAddr: 0x3AFC, symBinAddr: 0x10004DD24, symSize: 0x78 }
  - { offset: 0xAC9D8, size: 0x8, addend: 0x0, symName: __RNvMNtCs9f3LFPSIp77_4core6optionINtB2_6OptionNtCs41t77sgS83u_2cc10AsmFileExtE7is_someBJ_, symObjAddr: 0x3B74, symBinAddr: 0x10004DD9C, symSize: 0x48 }
  - { offset: 0xACA11, size: 0x8, addend: 0x0, symName: __RNvMNtCs9f3LFPSIp77_4core6optionINtB2_6OptionNtNtCs27l1GJC5rMQ_3std2fs4FileE4takeCs41t77sgS83u_2cc, symObjAddr: 0x3BBC, symBinAddr: 0x10004DDE4, symSize: 0x30 }
  - { offset: 0xACACA, size: 0x8, addend: 0x0, symName: __RNvMNtCs9f3LFPSIp77_4core6optionINtB2_6OptionNtNtCs27l1GJC5rMQ_3std7process11ChildStderrE4takeCs41t77sgS83u_2cc, symObjAddr: 0x3BEC, symBinAddr: 0x10004DE14, symSize: 0x30 }
  - { offset: 0xACB83, size: 0x8, addend: 0x0, symName: __RNvMNtCs9f3LFPSIp77_4core6optionINtB2_6OptionNtNtCs27l1GJC5rMQ_3std7process11ChildStdoutE4takeCs41t77sgS83u_2cc, symObjAddr: 0x3C1C, symBinAddr: 0x10004DE44, symSize: 0x30 }
  - { offset: 0xACC3C, size: 0x8, addend: 0x0, symName: __RNvMNtCs9f3LFPSIp77_4core6optionINtB2_6OptionNtNtCs41t77sgS83u_2cc6target10TargetInfoE6as_refBL_, symObjAddr: 0x3C4C, symBinAddr: 0x10004DE74, symSize: 0x4C }
  - { offset: 0xACD07, size: 0x8, addend: 0x0, symName: __RNvMNtCs9f3LFPSIp77_4core6optionINtB2_6OptionNtNtCsdze8u8oDPro_5alloc6string6StringE8as_derefCs41t77sgS83u_2cc, symObjAddr: 0x3C98, symBinAddr: 0x10004DEC0, symSize: 0x78 }
  - { offset: 0xACDBE, size: 0x8, addend: 0x0, symName: __RNvMNtCs9f3LFPSIp77_4core6optionINtB2_6OptionNtNtNtCs41t77sgS83u_2cc7windows10find_tools3EnvE6as_refBN_, symObjAddr: 0x3D10, symBinAddr: 0x10004DF38, symSize: 0x50 }
  - { offset: 0xACE22, size: 0x8, addend: 0x0, symName: __RNvMNtCs9f3LFPSIp77_4core6optionINtB2_6OptionNtNtNtNtCs41t77sgS83u_2cc8parallel9job_token19inherited_jobserver12HelperThreadE6as_refBP_, symObjAddr: 0x3D60, symBinAddr: 0x10004DF88, symSize: 0x4C }
  - { offset: 0xACEDC, size: 0x8, addend: 0x0, symName: __RNvMNtCs9f3LFPSIp77_4core6optionINtB2_6OptionNtNtNtNtCs41t77sgS83u_2cc8parallel9job_token19inherited_jobserver12HelperThreadE6insertBP_, symObjAddr: 0x3DAC, symBinAddr: 0x10004DFD4, symSize: 0xBC }
  - { offset: 0xACF6F, size: 0x8, addend: 0x0, symName: __RNvMNtCs9f3LFPSIp77_4core6optionINtB2_6OptionRNtNtNtCs27l1GJC5rMQ_3std3ffi6os_str5OsStrE17unwrap_or_defaultCs41t77sgS83u_2cc, symObjAddr: 0x3E68, symBinAddr: 0x10004E090, symSize: 0x68 }
  - { offset: 0xACFD3, size: 0x8, addend: 0x0, symName: __RNvMNtCs9f3LFPSIp77_4core6optionINtB2_6OptionRNtNtNtCs27l1GJC5rMQ_3std3ffi6os_str5OsStrE6as_refCs41t77sgS83u_2cc, symObjAddr: 0x3ED0, symBinAddr: 0x10004E0F8, symSize: 0x4C }
  - { offset: 0xAD01D, size: 0x8, addend: 0x0, symName: __RNvMNtCs9f3LFPSIp77_4core6optionINtB2_6OptionReE2orCs41t77sgS83u_2cc, symObjAddr: 0x3F1C, symBinAddr: 0x10004E144, symSize: 0x88 }
  - { offset: 0xAD085, size: 0x8, addend: 0x0, symName: __RNvMNtCs9f3LFPSIp77_4core6optionINtB2_6OptionReE4takeCs41t77sgS83u_2cc, symObjAddr: 0x3FA4, symBinAddr: 0x10004E1CC, symSize: 0x3C }
  - { offset: 0xAD131, size: 0x8, addend: 0x0, symName: __RNvMNtCs9f3LFPSIp77_4core6optionINtB2_6OptionReE6expectCs41t77sgS83u_2cc, symObjAddr: 0x3FE0, symBinAddr: 0x10004E208, symSize: 0x68 }
  - { offset: 0xAD16C, size: 0x8, addend: 0x0, symName: __RNvMNtCs9f3LFPSIp77_4core6optionINtB2_6OptionReE9unwrap_orCs41t77sgS83u_2cc, symObjAddr: 0x4048, symBinAddr: 0x10004E270, symSize: 0x70 }
  - { offset: 0xAD1D3, size: 0x8, addend: 0x0, symName: __RNvMNtCs9f3LFPSIp77_4core6optionINtB2_6OptionTNtNtCs27l1GJC5rMQ_3std7process11ChildStderrINtNtCsdze8u8oDPro_5alloc3vec3VechEEE4takeCs41t77sgS83u_2cc, symObjAddr: 0x40B8, symBinAddr: 0x10004E2E0, symSize: 0x3C }
  - { offset: 0xAD28C, size: 0x8, addend: 0x0, symName: __RNvMNtCs9f3LFPSIp77_4core6optionINtB2_6OptionTNtNtCs27l1GJC5rMQ_3std7process11ChildStderrINtNtCsdze8u8oDPro_5alloc3vec3VechEEE6as_mutCs41t77sgS83u_2cc, symObjAddr: 0x40F4, symBinAddr: 0x10004E31C, symSize: 0x50 }
  - { offset: 0xAD2F0, size: 0x8, addend: 0x0, symName: __RNvMNtCs9f3LFPSIp77_4core6optionINtB2_6OptionTNtNtCs27l1GJC5rMQ_3std7process11ChildStderrINtNtCsdze8u8oDPro_5alloc3vec3VechEEE6as_refCs41t77sgS83u_2cc, symObjAddr: 0x4144, symBinAddr: 0x10004E36C, symSize: 0x50 }
  - { offset: 0xAD363, size: 0x8, addend: 0x0, symName: __RNvMNtCs9f3LFPSIp77_4core6optionINtB2_6OptionbE7is_noneCs41t77sgS83u_2cc, symObjAddr: 0x4194, symBinAddr: 0x10004E3BC, symSize: 0x4C }
  - { offset: 0xAD3AD, size: 0x8, addend: 0x0, symName: __RNvMNtCs9f3LFPSIp77_4core6optionINtB2_6OptionbE9unwrap_orCs41t77sgS83u_2cc, symObjAddr: 0x41E0, symBinAddr: 0x10004E408, symSize: 0x5C }
  - { offset: 0xAD412, size: 0x8, addend: 0x0, symName: __RNvMNtCs9f3LFPSIp77_4core6optionINtB2_6OptionhE4takeCs41t77sgS83u_2cc, symObjAddr: 0x423C, symBinAddr: 0x10004E464, symSize: 0x48 }
  - { offset: 0xAD4BE, size: 0x8, addend: 0x0, symName: __RNvMNtCs9f3LFPSIp77_4core6optionINtB2_6OptionmE9unwrap_orCs41t77sgS83u_2cc, symObjAddr: 0x4284, symBinAddr: 0x10004E4AC, symSize: 0x48 }
  - { offset: 0xAD516, size: 0x8, addend: 0x0, symName: __RNvMs0_NtCs9f3LFPSIp77_4core6optionINtB5_6OptionRIBy_INtNtCsdze8u8oDPro_5alloc4sync3ArcNtNtNtCs27l1GJC5rMQ_3std3ffi6os_str5OsStrEEE6clonedCs41t77sgS83u_2cc, symObjAddr: 0x42CC, symBinAddr: 0x10004E4F4, symSize: 0x64 }
  - { offset: 0xAD560, size: 0x8, addend: 0x0, symName: __RNvMs0_NtCs9f3LFPSIp77_4core6optionINtB5_6OptionRINtNtCsdze8u8oDPro_5alloc4sync3ArcNtNtNtCs27l1GJC5rMQ_3std3ffi6os_str5OsStrEE6clonedCs41t77sgS83u_2cc, symObjAddr: 0x4330, symBinAddr: 0x10004E558, symSize: 0x58 }
  - { offset: 0xAD5AA, size: 0x8, addend: 0x0, symName: __RNvMs0_NtCs9f3LFPSIp77_4core6optionINtB5_6OptionRINtNtCsdze8u8oDPro_5alloc4sync3ArceEE6clonedCs41t77sgS83u_2cc, symObjAddr: 0x4388, symBinAddr: 0x10004E5B0, symSize: 0x58 }
  - { offset: 0xAD5F4, size: 0x8, addend: 0x0, symName: __RNvMs0_NtCs9f3LFPSIp77_4core6optionINtB5_6OptionRReE6copiedCs41t77sgS83u_2cc, symObjAddr: 0x43E0, symBinAddr: 0x10004E608, symSize: 0x54 }
  - { offset: 0xAD63E, size: 0x8, addend: 0x0, symName: __RNvMs0_NtCs9f3LFPSIp77_4core6optionINtB5_6OptionRbE6clonedCs41t77sgS83u_2cc, symObjAddr: 0x4434, symBinAddr: 0x10004E65C, symSize: 0x58 }
  - { offset: 0xAD6B3, size: 0x8, addend: 0x0, symName: __RNvMs0_NtNtCs9f3LFPSIp77_4core4hash3sipINtB5_6HasherNtB5_11Sip13RoundsE5resetCs41t77sgS83u_2cc, symObjAddr: 0x448C, symBinAddr: 0x10004E6B4, symSize: 0x8C }
  - { offset: 0xAD763, size: 0x8, addend: 0x0, symName: __RNvMs4_NtNtCs27l1GJC5rMQ_3std4sync5mutexINtB5_5MutexbE3newCs41t77sgS83u_2cc, symObjAddr: 0x4518, symBinAddr: 0x10004E740, symSize: 0x5C }
  - { offset: 0xAD8E3, size: 0x8, addend: 0x0, symName: __RNvMs5_NtNtCs27l1GJC5rMQ_3std4sync5mutexINtB5_5MutexNtNtNtB7_4mpmc4zero5InnerE4lockCs41t77sgS83u_2cc, symObjAddr: 0x4574, symBinAddr: 0x10004E79C, symSize: 0x6C }
  - { offset: 0xAD9C8, size: 0x8, addend: 0x0, symName: __RNvMs5_NtNtCs27l1GJC5rMQ_3std4sync5mutexINtB5_5MutexNtNtNtB7_4mpmc5waker5WakerE4lockCs41t77sgS83u_2cc, symObjAddr: 0x45E0, symBinAddr: 0x10004E808, symSize: 0x6C }
  - { offset: 0xADAAD, size: 0x8, addend: 0x0, symName: __RNvMs5_NtNtCs27l1GJC5rMQ_3std4sync5mutexINtB5_5MutexbE4lockCs41t77sgS83u_2cc, symObjAddr: 0x464C, symBinAddr: 0x10004E874, symSize: 0x6C }
  - { offset: 0xAE0F8, size: 0x8, addend: 0x0, symName: __RINvMNtCs27l1GJC5rMQ_3std2fsNtB3_4File6createRNtNtB5_4path7PathBufECs41t77sgS83u_2cc, symObjAddr: 0x0, symBinAddr: 0x100050CCC, symSize: 0xE8 }
  - { offset: 0xAE33C, size: 0x8, addend: 0x0, symName: __RNvNvMs0_NtNtCs41t77sgS83u_2cc8parallel9job_tokenNtB7_14JobTokenServer3new9JOBSERVER, symObjAddr: 0x5AE08, symBinAddr: 0x10023D388, symSize: 0x0 }
  - { offset: 0xAE349, size: 0x8, addend: 0x0, symName: __RNCNvMs0_NtNtCs41t77sgS83u_2cc8parallel9job_tokenNtB7_14JobTokenServer3new0Bb_, symObjAddr: 0x57C4, symBinAddr: 0x100056490, symSize: 0x5C }
  - { offset: 0xAE376, size: 0x8, addend: 0x0, symName: __RNCNCNvMs0_NtNtCs41t77sgS83u_2cc8parallel9job_tokenNtB9_14JobTokenServer3new00Bd_, symObjAddr: 0x5820, symBinAddr: 0x1000564EC, symSize: 0x4C }
  - { offset: 0xAE52E, size: 0x8, addend: 0x0, symName: __RNvXs_NtNtCs41t77sgS83u_2cc8parallel9job_tokenNtB4_8JobTokenNtNtNtCs9f3LFPSIp77_4core3ops4drop4Drop4drop, symObjAddr: 0x56F4, symBinAddr: 0x1000563C0, symSize: 0x8C }
  - { offset: 0xAE593, size: 0x8, addend: 0x0, symName: __RNcNtNtNtNtCs41t77sgS83u_2cc8parallel9job_token14JobTokenServer9Inherited0B9_, symObjAddr: 0x5780, symBinAddr: 0x10005644C, symSize: 0x18 }
  - { offset: 0xAE724, size: 0x8, addend: 0x0, symName: __RNCNvMs1_NtNtCs41t77sgS83u_2cc8parallel9job_tokenNtB7_20ActiveJobTokenServer7acquire0Bb_, symObjAddr: 0x594C, symBinAddr: 0x100056618, symSize: 0x390 }
  - { offset: 0xAF5AA, size: 0x8, addend: 0x0, symName: __RINvNtCs27l1GJC5rMQ_3std2fs11remove_fileRNtNtB4_4path4PathECs41t77sgS83u_2cc, symObjAddr: 0x65C, symBinAddr: 0x100051328, symSize: 0x68 }
  - { offset: 0xAF5E1, size: 0x8, addend: 0x0, symName: __RINvNtCs27l1GJC5rMQ_3std2fs11remove_fileRNtNtB4_4path7PathBufECs41t77sgS83u_2cc, symObjAddr: 0x6C4, symBinAddr: 0x100051390, symSize: 0x64 }
  - { offset: 0xAF618, size: 0x8, addend: 0x0, symName: __RINvNtCs27l1GJC5rMQ_3std2fs14create_dir_allRINtNtCsdze8u8oDPro_5alloc6borrow3CowNtNtB4_4path4PathEECs41t77sgS83u_2cc, symObjAddr: 0x728, symBinAddr: 0x1000513F4, symSize: 0x88 }
  - { offset: 0xAF682, size: 0x8, addend: 0x0, symName: __RINvNtCs27l1GJC5rMQ_3std2fs14create_dir_allRNtNtB4_4path4PathECs41t77sgS83u_2cc, symObjAddr: 0x7B0, symBinAddr: 0x10005147C, symSize: 0x8C }
  - { offset: 0xAF6EC, size: 0x8, addend: 0x0, symName: __RINvNtCs27l1GJC5rMQ_3std2fs4copyRNtNtB4_4path4PathRNtBx_7PathBufECs41t77sgS83u_2cc, symObjAddr: 0x83C, symBinAddr: 0x100051508, symSize: 0x98 }
  - { offset: 0xAF750, size: 0x8, addend: 0x0, symName: __RINvNtCs27l1GJC5rMQ_3std2fs8metadataRNtNtB4_4path4PathECs41t77sgS83u_2cc, symObjAddr: 0x8D4, symBinAddr: 0x1000515A0, symSize: 0x100 }
  - { offset: 0xAF7D3, size: 0x8, addend: 0x0, symName: __RINvNtCs27l1GJC5rMQ_3std2fs9hard_linkRNtNtB4_4path4PathRNtBC_7PathBufECs41t77sgS83u_2cc, symObjAddr: 0x9D4, symBinAddr: 0x1000516A0, symSize: 0x90 }
  - { offset: 0xAF827, size: 0x8, addend: 0x0, symName: __RNcNtNtCs27l1GJC5rMQ_3std2fs8Metadata0Cs41t77sgS83u_2cc, symObjAddr: 0x20D8, symBinAddr: 0x100052DA4, symSize: 0x30 }
  - { offset: 0xAF89E, size: 0x8, addend: 0x0, symName: __RNvXs7_NtCs27l1GJC5rMQ_3std2fsNtB5_4FileNtNtB7_2io5Write5flushCs41t77sgS83u_2cc, symObjAddr: 0x35F8, symBinAddr: 0x1000542C4, symSize: 0x2C }
  - { offset: 0xAFC63, size: 0x8, addend: 0x0, symName: __RNvXs0_NtNtNtCs27l1GJC5rMQ_3std2os4unix2fsNtNtBb_2fs11OpenOptionsNtB5_14OpenOptionsExt4modeCs41t77sgS83u_2cc, symObjAddr: 0x2E34, symBinAddr: 0x100053B00, symSize: 0x24 }
  - { offset: 0xAFD1C, size: 0x8, addend: 0x0, symName: __RNvXsP_NtCs27l1GJC5rMQ_3std4pathINtNtCsdze8u8oDPro_5alloc4sync3ArcNtB5_4PathEINtNtCs9f3LFPSIp77_4core7convert4FromRB12_E4fromCs41t77sgS83u_2cc, symObjAddr: 0x4018, symBinAddr: 0x100054CE4, symSize: 0x6C }
  - { offset: 0xAFE83, size: 0x8, addend: 0x0, symName: __RNvXss_NtNtCs27l1GJC5rMQ_3std3ffi6os_strINtNtCsdze8u8oDPro_5alloc4sync3ArcNtB5_5OsStrEINtNtCs9f3LFPSIp77_4core7convert4FromNtB5_8OsStringE4fromCs41t77sgS83u_2cc, symObjAddr: 0x4D00, symBinAddr: 0x1000559CC, symSize: 0xBC }
  - { offset: 0xAFFB9, size: 0x8, addend: 0x0, symName: __RNvXst_NtNtCs27l1GJC5rMQ_3std3ffi6os_strINtNtCsdze8u8oDPro_5alloc4sync3ArcNtB5_5OsStrEINtNtCs9f3LFPSIp77_4core7convert4FromRB1a_E4fromCs41t77sgS83u_2cc, symObjAddr: 0x4DBC, symBinAddr: 0x100055A88, symSize: 0xD0 }
  - { offset: 0xB0646, size: 0x8, addend: 0x0, symName: __RNvYNtNtCs27l1GJC5rMQ_3std2fs4FileNtNtB6_2io5Write9write_allCs41t77sgS83u_2cc, symObjAddr: 0x5330, symBinAddr: 0x100055FFC, symSize: 0x288 }
  - { offset: 0xB0838, size: 0x8, addend: 0x0, symName: __RNvYNtNtCs27l1GJC5rMQ_3std2fs4FileNtNtB6_2io5Write9write_fmtCs41t77sgS83u_2cc, symObjAddr: 0x55B8, symBinAddr: 0x100056284, symSize: 0x128 }
  - { offset: 0xB5244, size: 0x8, addend: 0x0, symName: __RNvXs1f_NtCs9f3LFPSIp77_4core3fmtTINtNtCsdze8u8oDPro_5alloc4sync3ArcNtNtNtCs27l1GJC5rMQ_3std3ffi6os_str5OsStrEBw_ENtB6_5Debug3fmtCs41t77sgS83u_2cc, symObjAddr: 0x34B4, symBinAddr: 0x100054180, symSize: 0x90 }
  - { offset: 0xB52DF, size: 0x8, addend: 0x0, symName: __RNvXs1f_NtCs9f3LFPSIp77_4core3fmtTINtNtCsdze8u8oDPro_5alloc4sync3ArceEINtNtB8_6option6OptionBw_EENtB6_5Debug3fmtCs41t77sgS83u_2cc, symObjAddr: 0x3544, symBinAddr: 0x100054210, symSize: 0x90 }
  - { offset: 0xB541C, size: 0x8, addend: 0x0, symName: __RNvXsP_NtCs9f3LFPSIp77_4core3fmtRINtNtCsdze8u8oDPro_5alloc4sync3ArcNtNtCs27l1GJC5rMQ_3std4path4PathENtB5_5Debug3fmtCs41t77sgS83u_2cc, symObjAddr: 0x4084, symBinAddr: 0x100054D50, symSize: 0x30 }
  - { offset: 0xB5462, size: 0x8, addend: 0x0, symName: __RNvXsP_NtCs9f3LFPSIp77_4core3fmtRINtNtCsdze8u8oDPro_5alloc4sync3ArcNtNtNtB7_4sync6atomic10AtomicBoolENtB5_5Debug3fmtCs41t77sgS83u_2cc, symObjAddr: 0x40B4, symBinAddr: 0x100054D80, symSize: 0x30 }
  - { offset: 0xB54A8, size: 0x8, addend: 0x0, symName: __RNvXsP_NtCs9f3LFPSIp77_4core3fmtRINtNtCsdze8u8oDPro_5alloc4sync3ArcNtNtNtCs27l1GJC5rMQ_3std3ffi6os_str5OsStrENtB5_5Debug3fmtCs41t77sgS83u_2cc, symObjAddr: 0x40E4, symBinAddr: 0x100054DB0, symSize: 0x30 }
  - { offset: 0xB54EE, size: 0x8, addend: 0x0, symName: __RNvXsP_NtCs9f3LFPSIp77_4core3fmtRINtNtCsdze8u8oDPro_5alloc4sync3ArceENtB5_5Debug3fmtCs41t77sgS83u_2cc, symObjAddr: 0x4114, symBinAddr: 0x100054DE0, symSize: 0x30 }
  - { offset: 0xB5534, size: 0x8, addend: 0x0, symName: __RNvXsP_NtCs9f3LFPSIp77_4core3fmtRTINtNtCsdze8u8oDPro_5alloc4sync3ArcNtNtNtCs27l1GJC5rMQ_3std3ffi6os_str5OsStrEBw_ENtB5_5Debug3fmtCs41t77sgS83u_2cc, symObjAddr: 0x4144, symBinAddr: 0x100054E10, symSize: 0x30 }
  - { offset: 0xB557A, size: 0x8, addend: 0x0, symName: __RNvXsP_NtCs9f3LFPSIp77_4core3fmtRTINtNtCsdze8u8oDPro_5alloc4sync3ArceEINtNtB7_6option6OptionBw_EENtB5_5Debug3fmtCs41t77sgS83u_2cc, symObjAddr: 0x4174, symBinAddr: 0x100054E40, symSize: 0x30 }
  - { offset: 0xB55C6, size: 0x8, addend: 0x0, symName: __RNvXsR_NtCs9f3LFPSIp77_4core3fmtRINtNtCsdze8u8oDPro_5alloc4sync3ArceENtB5_7Display3fmtCs41t77sgS83u_2cc, symObjAddr: 0x437C, symBinAddr: 0x100055048, symSize: 0x30 }
  - { offset: 0xB5612, size: 0x8, addend: 0x0, symName: __RNvXso_NtCs9f3LFPSIp77_4core3fmtSINtNtCsdze8u8oDPro_5alloc4sync3ArcNtNtCs27l1GJC5rMQ_3std4path4PathENtB5_5Debug3fmtCs41t77sgS83u_2cc, symObjAddr: 0x4630, symBinAddr: 0x1000552FC, symSize: 0x88 }
  - { offset: 0xB5752, size: 0x8, addend: 0x0, symName: __RNvXso_NtCs9f3LFPSIp77_4core3fmtSINtNtCsdze8u8oDPro_5alloc4sync3ArcNtNtNtCs27l1GJC5rMQ_3std3ffi6os_str5OsStrENtB5_5Debug3fmtCs41t77sgS83u_2cc, symObjAddr: 0x46B8, symBinAddr: 0x100055384, symSize: 0x88 }
  - { offset: 0xB5892, size: 0x8, addend: 0x0, symName: __RNvXso_NtCs9f3LFPSIp77_4core3fmtSTINtNtCsdze8u8oDPro_5alloc4sync3ArcNtNtNtCs27l1GJC5rMQ_3std3ffi6os_str5OsStrEBw_ENtB5_5Debug3fmtCs41t77sgS83u_2cc, symObjAddr: 0x4740, symBinAddr: 0x10005540C, symSize: 0x88 }
  - { offset: 0xB59D2, size: 0x8, addend: 0x0, symName: __RNvXso_NtCs9f3LFPSIp77_4core3fmtSTINtNtCsdze8u8oDPro_5alloc4sync3ArceEINtNtB7_6option6OptionBw_EENtB5_5Debug3fmtCs41t77sgS83u_2cc, symObjAddr: 0x47C8, symBinAddr: 0x100055494, symSize: 0x88 }
  - { offset: 0xB5B5D, size: 0x8, addend: 0x0, symName: __RINvMNtCs9f3LFPSIp77_4core4boolb9then_someNtNtCs27l1GJC5rMQ_3std4path7PathBufECs41t77sgS83u_2cc, symObjAddr: 0xE8, symBinAddr: 0x100050DB4, symSize: 0x70 }
  - { offset: 0xB5D95, size: 0x8, addend: 0x0, symName: __RNvXs_NtNtCs9f3LFPSIp77_4core5slice4iterRSINtNtCsdze8u8oDPro_5alloc4sync3ArcNtNtCs27l1GJC5rMQ_3std4path4PathENtNtNtNtB8_4iter6traits7collect12IntoIterator9into_iterCs41t77sgS83u_2cc, symObjAddr: 0x44B0, symBinAddr: 0x10005517C, symSize: 0x50 }
  - { offset: 0xB6071, size: 0x8, addend: 0x0, symName: __RNvMNtCs9f3LFPSIp77_4core5sliceSINtNtCsdze8u8oDPro_5alloc4sync3ArcNtNtCs27l1GJC5rMQ_3std4path4PathE4iterCs41t77sgS83u_2cc, symObjAddr: 0x2108, symBinAddr: 0x100052DD4, symSize: 0x28 }
  - { offset: 0xB60A8, size: 0x8, addend: 0x0, symName: __RNvMNtCs9f3LFPSIp77_4core5sliceSINtNtCsdze8u8oDPro_5alloc4sync3ArcNtNtNtCs27l1GJC5rMQ_3std3ffi6os_str5OsStrE4iterCs41t77sgS83u_2cc, symObjAddr: 0x2130, symBinAddr: 0x100052DFC, symSize: 0x28 }
  - { offset: 0xB60DF, size: 0x8, addend: 0x0, symName: __RNvMNtCs9f3LFPSIp77_4core5sliceSTINtNtCsdze8u8oDPro_5alloc4sync3ArcNtNtNtCs27l1GJC5rMQ_3std3ffi6os_str5OsStrEBv_E4iterCs41t77sgS83u_2cc, symObjAddr: 0x2158, symBinAddr: 0x100052E24, symSize: 0x28 }
  - { offset: 0xB6116, size: 0x8, addend: 0x0, symName: __RNvMNtCs9f3LFPSIp77_4core5sliceSTINtNtCsdze8u8oDPro_5alloc4sync3ArceEINtNtB4_6option6OptionBv_EE4iterCs41t77sgS83u_2cc, symObjAddr: 0x2180, symBinAddr: 0x100052E4C, symSize: 0x28 }
  - { offset: 0xB6299, size: 0x8, addend: 0x0, symName: __RNvNtNtCs9f3LFPSIp77_4core5slice6memchr6memchrCs41t77sgS83u_2cc, symObjAddr: 0x2C00, symBinAddr: 0x1000538CC, symSize: 0x114 }
  - { offset: 0xB66E3, size: 0x8, addend: 0x0, symName: __RNCINvNtNtNtCs9f3LFPSIp77_4core4iter8adapters3map8map_foldNtNtCsdze8u8oDPro_5alloc6string6StringINtNtBY_4sync3ArcNtNtNtCs27l1GJC5rMQ_3std3ffi6os_str5OsStrEuNCNvMs3_Cs41t77sgS83u_2ccNtB2C_5Build26try_flags_from_environment0NCINvNvNtNtNtB8_6traits8iterator8Iterator8for_each4callB1w_NCINvMsi_NtBY_3vecINtB4E_3VecB1w_E14extend_trustedINtB4_3MapINtNtB4E_9into_iter8IntoIterBU_EB2u_EE0E0E0B2C_, symObjAddr: 0x1D94, symBinAddr: 0x100052A60, symSize: 0x94 }
  - { offset: 0xB6768, size: 0x8, addend: 0x0, symName: __RNCINvNtNtNtCs9f3LFPSIp77_4core4iter8adapters3map8map_foldRINtNtCsdze8u8oDPro_5alloc4sync3ArcNtNtCs27l1GJC5rMQ_3std4path4PathERB1t_uNvYBV_NtNtNtBa_3ops5deref5Deref5derefNCINvNvNtNtNtB8_6traits8iterator8Iterator8for_each4callB20_NCINvMsi_NtB10_3vecINtB3N_3VecB20_E14extend_trustedINtNtB6_5chain5ChainINtB4_3MapINtNtNtBa_5slice4iter4IterNtCs41t77sgS83u_2cc6ObjectENCNvMs3_B5p_NtB5p_5Build8assemble0EIB4O_IB4Y_BV_EB26_EEE0E0E0B5p_, symObjAddr: 0x1E28, symBinAddr: 0x100052AF4, symSize: 0x84 }
  - { offset: 0xB67EC, size: 0x8, addend: 0x0, symName: __RNCINvNtNtNtCs9f3LFPSIp77_4core4iter8adapters3map8map_foldRINtNtCsdze8u8oDPro_5alloc4sync3ArcNtNtCs27l1GJC5rMQ_3std4path4PathEjjNCINvNvXs1_NtB6_6filterINtB2d_6FilterppENtNtNtB8_6traits8iterator8Iterator5count8to_usizeBU_NCNvMs3_Cs41t77sgS83u_2ccNtB3E_5Build15cuda_file_count0E0NCINvXsK_NtB2K_5accumjNtB4A_3Sum3sumINtB4_3MapINtNtNtBa_5slice4iter4IterBV_EB22_EE0E0B3E_, symObjAddr: 0x1EAC, symBinAddr: 0x100052B78, symSize: 0x98 }
  - { offset: 0xB6871, size: 0x8, addend: 0x0, symName: __RNCINvNtNtNtCs9f3LFPSIp77_4core4iter8adapters3map8map_foldRNtCs41t77sgS83u_2cc6ObjectRNtNtCs27l1GJC5rMQ_3std4path4PathuNCNvMs3_BX_NtBX_5Build8assemble0QNCINvNvNtNtNtB8_6traits8iterator8Iterator8for_each4callB1l_NCINvMsi_NtCsdze8u8oDPro_5alloc3vecINtB3w_3VecB1l_E14extend_trustedINtNtB6_5chain5ChainINtB4_3MapINtNtNtBa_5slice4iter4IterBV_EB1T_EIB4N_IB4X_INtNtB3y_4sync3ArcB1m_EENvYB5F_NtNtNtBa_3ops5deref5Deref5derefEEE0E0E0BX_, symObjAddr: 0x1F44, symBinAddr: 0x100052C10, symSize: 0x84 }
  - { offset: 0xB68F5, size: 0x8, addend: 0x0, symName: __RNCINvNtNtNtCs9f3LFPSIp77_4core4iter8adapters3map8map_foldbhhNCNvXNtNtBa_3str4iterNtB12_5CharsNtNtNtB8_6traits8iterator8Iterator10advance_by0NCINvXsq_NtB1y_5accumhNtB2o_3Sum3sumINtB4_3MapINtNtNtBa_5array4iter8IntoIterbKj20_EBX_EE0E0Cs41t77sgS83u_2cc, symObjAddr: 0x1FC8, symBinAddr: 0x100052C94, symSize: 0x94 }
  - { offset: 0xB6980, size: 0x8, addend: 0x0, symName: __RINvXs0_NtNtNtCs9f3LFPSIp77_4core4iter8adapters3mapINtB6_3MapINtNtNtBc_5slice4iter4IterINtNtCsdze8u8oDPro_5alloc4sync3ArcNtNtCs27l1GJC5rMQ_3std4path4PathEENvYB1n_NtNtNtBc_3ops5deref5Deref5derefENtNtNtBa_6traits8iterator8Iterator4folduNCINvNvB36_8for_each4callRB1V_NCINvMsi_NtB1s_3vecINtB4n_3VecB49_E14extend_trustedINtNtB8_5chain5ChainIBO_IBY_NtCs41t77sgS83u_2cc6ObjectENCNvMs3_B5x_NtB5x_5Build8assemble0EBN_EE0E0EB5x_, symObjAddr: 0x175C, symBinAddr: 0x100052428, symSize: 0x44 }
  - { offset: 0xB6A18, size: 0x8, addend: 0x0, symName: __RINvXs0_NtNtNtCs9f3LFPSIp77_4core4iter8adapters3mapINtB6_3MapINtNtNtBc_5slice4iter4IterINtNtCsdze8u8oDPro_5alloc4sync3ArcNtNtCs27l1GJC5rMQ_3std4path4PathEENvYB1n_NtNtNtBc_3ops5deref5Deref5derefENtNtNtBa_6traits8iterator8Iterator8try_folduNCINvNvB36_8find_map5checkRB1V_NtCs41t77sgS83u_2cc10AsmFileExtNvMs5_B4l_B4j_9from_pathE0INtNtB2E_12control_flow11ControlFlowB4j_EEB4l_, symObjAddr: 0x17A0, symBinAddr: 0x10005246C, symSize: 0x30 }
  - { offset: 0xB6A96, size: 0x8, addend: 0x0, symName: __RINvXs0_NtNtNtCs9f3LFPSIp77_4core4iter8adapters3mapINtB6_3MapINtNtNtBc_5slice4iter4IterNtCs41t77sgS83u_2cc6ObjectENCNvMs3_B1p_NtB1p_5Build8assemble0ENtNtNtBa_6traits8iterator8Iterator4folduQNCINvNvB2n_8for_each4callRNtNtCs27l1GJC5rMQ_3std4path4PathNCINvMsi_NtCsdze8u8oDPro_5alloc3vecINtB47_3VecB3r_E14extend_trustedINtNtB8_5chain5ChainBN_IBO_IBY_INtNtB49_4sync3ArcB3s_EENvYB5y_NtNtNtBc_3ops5deref5Deref5derefEEE0E0EB1p_, symObjAddr: 0x17D0, symBinAddr: 0x10005249C, symSize: 0x34 }
  - { offset: 0xB6B07, size: 0x8, addend: 0x0, symName: __RINvXs0_NtNtNtCs9f3LFPSIp77_4core4iter8adapters3mapINtB6_3MapINtNtNtCsdze8u8oDPro_5alloc3vec9into_iter8IntoIterNtCs41t77sgS83u_2cc6ObjectENCNvMs3_B1N_NtB1N_5Build25try_compile_intermediates0ENtNtNtBa_6traits8iterator8Iterator8try_foldINtNtB12_13in_place_drop11InPlaceDropNtNtCs27l1GJC5rMQ_3std4path7PathBufENCINvNtB12_16in_place_collect24write_in_place_with_dropB4l_E0INtNtBc_6result6ResultB3K_zEEB1N_, symObjAddr: 0x1804, symBinAddr: 0x1000524D0, symSize: 0x4C }
  - { offset: 0xB6B85, size: 0x8, addend: 0x0, symName: __RINvXs0_NtNtNtCs9f3LFPSIp77_4core4iter8adapters3mapINtB6_3MapINtNtNtCsdze8u8oDPro_5alloc3vec9into_iter8IntoIterNtNtB14_6string6StringENCNvMs3_Cs41t77sgS83u_2ccNtB2g_5Build26try_flags_from_environment0ENtNtNtBa_6traits8iterator8Iterator4folduNCINvNvB3d_8for_each4callINtNtB14_4sync3ArcNtNtNtCs27l1GJC5rMQ_3std3ffi6os_str5OsStrENCINvMsi_B12_INtB12_3VecB4g_E14extend_trustedBN_E0E0EB2g_, symObjAddr: 0x1850, symBinAddr: 0x10005251C, symSize: 0x4C }
  - { offset: 0xB6C1E, size: 0x8, addend: 0x0, symName: __RINvXs0_NtNtNtCs9f3LFPSIp77_4core4iter8adapters3mapINtB6_3MapNtNtCs27l1GJC5rMQ_3std3env10SplitPathsNCNCNvNtNtNtCs41t77sgS83u_2cc7windows10find_tools5impl_21find_msvc_environment00ENtNtNtBa_6traits8iterator8Iterator8try_folduNCINvNvB2S_4find5checkNtNtB11_4path7PathBufNCB1B_s_0E0INtNtNtBc_3ops12control_flow11ControlFlowB3W_EEB1L_, symObjAddr: 0x189C, symBinAddr: 0x100052568, symSize: 0x30 }
  - { offset: 0xB6C9C, size: 0x8, addend: 0x0, symName: __RNvXs0_NtNtNtCs9f3LFPSIp77_4core4iter8adapters3mapINtB5_3MapINtNtB7_6filter6FilterINtNtNtBb_5slice4iter5SplithNtNtBb_3str17IsAsciiWhitespaceENtB1M_15BytesIsNotEmptyENtB1M_16UnsafeBytesToStrENtNtNtB9_6traits8iterator8Iterator4nextCs41t77sgS83u_2cc, symObjAddr: 0x2E58, symBinAddr: 0x100053B24, symSize: 0x88 }
  - { offset: 0xB6D16, size: 0x8, addend: 0x0, symName: __RNvXs0_NtNtNtCs9f3LFPSIp77_4core4iter8adapters3mapINtB5_3MapINtNtNtBb_3str4iter5SplitcENCNCNvMs3_Cs41t77sgS83u_2ccNtB1x_5Build23apple_deployment_targets0_00ENtNtNtB9_6traits8iterator8Iterator4nextB1x_, symObjAddr: 0x2EE0, symBinAddr: 0x100053BAC, symSize: 0x8C }
  - { offset: 0xB6D90, size: 0x8, addend: 0x0, symName: __RNvXs0_NtNtNtCs9f3LFPSIp77_4core4iter8adapters3mapINtB5_3MapINtNtNtBb_5slice4iter4IterINtNtCsdze8u8oDPro_5alloc4sync3ArcNtNtCs27l1GJC5rMQ_3std4path4PathEENvYB1m_NtNtNtBb_3ops5deref5Deref5derefENtNtNtB9_6traits8iterator8Iterator4nextCs41t77sgS83u_2cc, symObjAddr: 0x2F6C, symBinAddr: 0x100053C38, symSize: 0x7C }
  - { offset: 0xB6E0A, size: 0x8, addend: 0x0, symName: __RNvXs0_NtNtNtCs9f3LFPSIp77_4core4iter8adapters3mapINtB5_3MapINtNtNtBb_5slice4iter4IterINtNtCsdze8u8oDPro_5alloc4sync3ArcNtNtCs27l1GJC5rMQ_3std4path4PathEENvYB1m_NtNtNtBb_3ops5deref5Deref5derefENtNtNtB9_6traits8iterator8Iterator9size_hintCs41t77sgS83u_2cc, symObjAddr: 0x2FE8, symBinAddr: 0x100053CB4, symSize: 0x24 }
  - { offset: 0xB6E51, size: 0x8, addend: 0x0, symName: __RNvXs0_NtNtNtCs9f3LFPSIp77_4core4iter8adapters3mapINtB5_3MapINtNtNtBb_5slice4iter4IterINtNtCsdze8u8oDPro_5alloc4sync3ArcNtNtNtCs27l1GJC5rMQ_3std3ffi6os_str5OsStrEENvYB1m_NtNtNtBb_3ops5deref5Deref5derefENtNtNtB9_6traits8iterator8Iterator4nextCs41t77sgS83u_2cc, symObjAddr: 0x300C, symBinAddr: 0x100053CD8, symSize: 0x7C }
  - { offset: 0xB6ECB, size: 0x8, addend: 0x0, symName: __RNvXs0_NtNtNtCs9f3LFPSIp77_4core4iter8adapters3mapINtB5_3MapINtNtNtBb_5slice4iter4IterNtCs41t77sgS83u_2cc6ObjectENCNvMs3_B1o_NtB1o_5Build8assemble0ENtNtNtB9_6traits8iterator8Iterator9size_hintB1o_, symObjAddr: 0x3088, symBinAddr: 0x100053D54, symSize: 0x24 }
  - { offset: 0xB6F12, size: 0x8, addend: 0x0, symName: __RNvXs0_NtNtNtCs9f3LFPSIp77_4core4iter8adapters3mapINtB5_3MapINtNtNtCsdze8u8oDPro_5alloc3vec9into_iter8IntoIterNtNtB13_6string6StringENCNvMs3_Cs41t77sgS83u_2ccNtB2f_5Build26try_flags_from_environment0ENtNtNtB9_6traits8iterator8Iterator9size_hintB2f_, symObjAddr: 0x30AC, symBinAddr: 0x100053D78, symSize: 0x24 }
  - { offset: 0xB6F59, size: 0x8, addend: 0x0, symName: __RNvXs0_NtNtNtCs9f3LFPSIp77_4core4iter8adapters3mapINtB5_3MapNtNtNtBb_3str4iter15SplitWhitespaceNCNvMs3_Cs41t77sgS83u_2ccNtB1D_5Build8env_tool0ENtNtNtB9_6traits8iterator8Iterator4nextB1D_, symObjAddr: 0x30D0, symBinAddr: 0x100053D9C, symSize: 0x9C }
  - { offset: 0xB6FD3, size: 0x8, addend: 0x0, symName: __RNvXs0_NtNtNtCs9f3LFPSIp77_4core4iter8adapters3mapINtB5_3MapNtNtNtBb_3str4iter15SplitWhitespaceNCNvMs3_Cs41t77sgS83u_2ccNtB1D_5Build8env_tool0ENtNtNtB9_6traits8iterator8Iterator9size_hintB1D_, symObjAddr: 0x316C, symBinAddr: 0x100053E38, symSize: 0x24 }
  - { offset: 0xB701A, size: 0x8, addend: 0x0, symName: __RNvXs0_NtNtNtCs9f3LFPSIp77_4core4iter8adapters3mapINtB5_3MapNtNtNtBb_3str4iter15SplitWhitespaceNCNvMs3_Cs41t77sgS83u_2ccNtB1D_5Build8env_tools_0ENtNtNtB9_6traits8iterator8Iterator4nextB1D_, symObjAddr: 0x3190, symBinAddr: 0x100053E5C, symSize: 0x9C }
  - { offset: 0xB7094, size: 0x8, addend: 0x0, symName: __RNvXs0_NtNtNtCs9f3LFPSIp77_4core4iter8adapters3mapINtB5_3MapNtNtNtBb_3str4iter15SplitWhitespaceNCNvMs3_Cs41t77sgS83u_2ccNtB1D_5Build8env_tools_0ENtNtNtB9_6traits8iterator8Iterator9size_hintB1D_, symObjAddr: 0x322C, symBinAddr: 0x100053EF8, symSize: 0x24 }
  - { offset: 0xB70DB, size: 0x8, addend: 0x0, symName: __RNvXs0_NtNtNtCs9f3LFPSIp77_4core4iter8adapters3mapINtB5_3MapNtNtNtBb_3str4iter20SplitAsciiWhitespaceNvYeNtNtCsdze8u8oDPro_5alloc6string8ToString9to_stringENtNtNtB9_6traits8iterator8Iterator4nextCs41t77sgS83u_2cc, symObjAddr: 0x3250, symBinAddr: 0x100053F1C, symSize: 0x9C }
  - { offset: 0xB7155, size: 0x8, addend: 0x0, symName: __RNvXs0_NtNtNtCs9f3LFPSIp77_4core4iter8adapters3mapINtB5_3MapNtNtNtBb_3str4iter20SplitAsciiWhitespaceNvYeNtNtCsdze8u8oDPro_5alloc6string8ToString9to_stringENtNtNtB9_6traits8iterator8Iterator9size_hintCs41t77sgS83u_2cc, symObjAddr: 0x32EC, symBinAddr: 0x100053FB8, symSize: 0x24 }
  - { offset: 0xB725C, size: 0x8, addend: 0x0, symName: __RNCINvNtNtNtCs9f3LFPSIp77_4core4iter8adapters3map12map_try_foldNtCs41t77sgS83u_2cc6ObjectNtNtCs27l1GJC5rMQ_3std4path7PathBufINtNtNtCsdze8u8oDPro_5alloc3vec13in_place_drop11InPlaceDropB1p_EINtNtBa_6result6ResultB1Y_zENCNvMs3_B11_NtB11_5Build25try_compile_intermediates0NCINvNtB23_16in_place_collect24write_in_place_with_dropB1p_E0E0B11_, symObjAddr: 0x1B50, symBinAddr: 0x10005281C, symSize: 0x104 }
  - { offset: 0xB72EF, size: 0x8, addend: 0x0, symName: __RNCINvNtNtNtCs9f3LFPSIp77_4core4iter8adapters3map12map_try_foldNtNtCs27l1GJC5rMQ_3std4path7PathBufBZ_uINtNtNtBa_3ops12control_flow11ControlFlowBZ_ENCNCNvNtNtNtCs41t77sgS83u_2cc7windows10find_tools5impl_21find_msvc_environment00NCINvNvNtNtNtB8_6traits8iterator8Iterator4find5checkBZ_NCB2n_s_0E0E0B2x_, symObjAddr: 0x1C54, symBinAddr: 0x100052920, symSize: 0xAC }
  - { offset: 0xB7381, size: 0x8, addend: 0x0, symName: __RNCINvNtNtNtCs9f3LFPSIp77_4core4iter8adapters3map12map_try_foldRINtNtCsdze8u8oDPro_5alloc4sync3ArcNtNtCs27l1GJC5rMQ_3std4path4PathERB1y_uINtNtNtBa_3ops12control_flow11ControlFlowNtCs41t77sgS83u_2cc10AsmFileExtENvYB10_NtNtB2g_5deref5Deref5derefNCINvNvNtNtNtB8_6traits8iterator8Iterator8find_map5checkB25_B2Q_NvMs5_B2S_B2Q_9from_pathE0E0B2S_, symObjAddr: 0x1D00, symBinAddr: 0x1000529CC, symSize: 0x94 }
  - { offset: 0xB7418, size: 0x8, addend: 0x0, symName: __RNvXs9_NtNtNtCs9f3LFPSIp77_4core4iter8adapters3mapINtB5_3MapINtNtNtCsdze8u8oDPro_5alloc3vec9into_iter8IntoIterNtCs41t77sgS83u_2cc6ObjectENCNvMs3_B1M_NtB1M_5Build25try_compile_intermediates0ENtB7_10SourceIter8as_innerB1M_, symObjAddr: 0x3698, symBinAddr: 0x100054364, symSize: 0x24 }
  - { offset: 0xB7926, size: 0x8, addend: 0x0, symName: __RINvYINtNtNtNtCs9f3LFPSIp77_4core4iter8adapters3map3MapINtNtNtBc_5slice4iter4IterINtNtCsdze8u8oDPro_5alloc4sync3ArcNtNtCs27l1GJC5rMQ_3std4path4PathEENvYB1h_NtNtNtBc_3ops5deref5Deref5derefENtNtNtBa_6traits8iterator8Iterator8find_mapNtCs41t77sgS83u_2cc10AsmFileExtNvMs5_B3J_B3H_9from_pathEB3J_, symObjAddr: 0x18CC, symBinAddr: 0x100052598, symSize: 0x84 }
  - { offset: 0xB79AA, size: 0x8, addend: 0x0, symName: __RINvYINtNtNtNtCs9f3LFPSIp77_4core4iter8adapters3map3MapINtNtNtBc_5slice4iter4IterNtCs41t77sgS83u_2cc6ObjectENCNvMs3_B1j_NtB1j_5Build8assemble0ENtNtNtBa_6traits8iterator8Iterator5chainIB4_IBS_INtNtCsdze8u8oDPro_5alloc4sync3ArcNtNtCs27l1GJC5rMQ_3std4path4PathEENvYB33_NtNtNtBc_3ops5deref5Deref5derefEEB1j_, symObjAddr: 0x1950, symBinAddr: 0x10005261C, symSize: 0xD8 }
  - { offset: 0xB7A20, size: 0x8, addend: 0x0, symName: __RINvYINtNtNtNtCs9f3LFPSIp77_4core4iter8adapters3map3MapINtNtNtCsdze8u8oDPro_5alloc3vec9into_iter8IntoIterNtCs41t77sgS83u_2cc6ObjectENCNvMs3_B1H_NtB1H_5Build25try_compile_intermediates0ENtNtNtBa_6traits8iterator8Iterator7collectINtBW_3VecNtNtCs27l1GJC5rMQ_3std4path7PathBufEEB1H_, symObjAddr: 0x1A28, symBinAddr: 0x1000526F4, symSize: 0x14 }
  - { offset: 0xB7A61, size: 0x8, addend: 0x0, symName: __RINvYINtNtNtNtCs9f3LFPSIp77_4core4iter8adapters3map3MapINtNtNtCsdze8u8oDPro_5alloc3vec9into_iter8IntoIterNtNtBY_6string6StringENCNvMs3_Cs41t77sgS83u_2ccNtB29_5Build26try_flags_from_environment0ENtNtNtBa_6traits8iterator8Iterator8for_eachNCINvMsi_BW_INtBW_3VecINtNtBY_4sync3ArcNtNtNtCs27l1GJC5rMQ_3std3ffi6os_str5OsStrEE14extend_trustedB3_E0EB29_, symObjAddr: 0x1A3C, symBinAddr: 0x100052708, symSize: 0x34 }
  - { offset: 0xB7ACD, size: 0x8, addend: 0x0, symName: __RINvYINtNtNtNtCs9f3LFPSIp77_4core4iter8adapters3map3MapNtNtCs27l1GJC5rMQ_3std3env10SplitPathsNCNCNvNtNtNtCs41t77sgS83u_2cc7windows10find_tools5impl_21find_msvc_environment00ENtNtNtBa_6traits8iterator8Iterator4findNCB1v_s_0EB1F_, symObjAddr: 0x1A70, symBinAddr: 0x10005273C, symSize: 0xA4 }
  - { offset: 0xB7B48, size: 0x8, addend: 0x0, symName: __RINvYINtNtNtNtCs9f3LFPSIp77_4core4iter8adapters3map3MapNtNtNtBc_3str4iter15SplitWhitespaceNCNvMs3_Cs41t77sgS83u_2ccNtB1y_5Build8env_tool0ENtNtNtBa_6traits8iterator8Iterator7collectINtNtCsdze8u8oDPro_5alloc3vec3VecNtNtB2X_6string6StringEEB1y_, symObjAddr: 0x1B14, symBinAddr: 0x1000527E0, symSize: 0x14 }
  - { offset: 0xB7B89, size: 0x8, addend: 0x0, symName: __RINvYINtNtNtNtCs9f3LFPSIp77_4core4iter8adapters3map3MapNtNtNtBc_3str4iter15SplitWhitespaceNCNvMs3_Cs41t77sgS83u_2ccNtB1y_5Build8env_tools_0ENtNtNtBa_6traits8iterator8Iterator7collectINtNtCsdze8u8oDPro_5alloc3vec3VecNtNtB2Z_6string6StringEEB1y_, symObjAddr: 0x1B28, symBinAddr: 0x1000527F4, symSize: 0x14 }
  - { offset: 0xB7BCA, size: 0x8, addend: 0x0, symName: __RINvYINtNtNtNtCs9f3LFPSIp77_4core4iter8adapters3map3MapNtNtNtBc_3str4iter20SplitAsciiWhitespaceNvYeNtNtCsdze8u8oDPro_5alloc6string8ToString9to_stringENtNtNtBa_6traits8iterator8Iterator7collectINtNtB1D_3vec3VecNtB1B_6StringEECs41t77sgS83u_2cc, symObjAddr: 0x1B3C, symBinAddr: 0x100052808, symSize: 0x14 }
  - { offset: 0xB7C55, size: 0x8, addend: 0x0, symName: __RNvXs_NtNtNtCs9f3LFPSIp77_4core4iter6traits7collectINtNtNtB8_8adapters3map3MapINtNtNtBa_5slice4iter4IterINtNtCsdze8u8oDPro_5alloc4sync3ArcNtNtCs27l1GJC5rMQ_3std4path4PathEENvYB1E_NtNtNtBa_3ops5deref5Deref5derefENtB4_12IntoIterator9into_iterCs41t77sgS83u_2cc, symObjAddr: 0x4500, symBinAddr: 0x1000551CC, symSize: 0x1C }
  - { offset: 0xB7C8C, size: 0x8, addend: 0x0, symName: __RNvXs_NtNtNtCs9f3LFPSIp77_4core4iter6traits7collectINtNtNtB8_8adapters3map3MapINtNtNtBa_5slice4iter4IterINtNtCsdze8u8oDPro_5alloc4sync3ArcNtNtNtCs27l1GJC5rMQ_3std3ffi6os_str5OsStrEENvYB1E_NtNtNtBa_3ops5deref5Deref5derefENtB4_12IntoIterator9into_iterCs41t77sgS83u_2cc, symObjAddr: 0x451C, symBinAddr: 0x1000551E8, symSize: 0x1C }
  - { offset: 0xB7CC3, size: 0x8, addend: 0x0, symName: __RNvXs_NtNtNtCs9f3LFPSIp77_4core4iter6traits7collectINtNtNtB8_8adapters3map3MapINtNtNtCsdze8u8oDPro_5alloc3vec9into_iter8IntoIterNtCs41t77sgS83u_2cc6ObjectENCNvMs3_B24_NtB24_5Build25try_compile_intermediates0ENtB4_12IntoIterator9into_iterB24_, symObjAddr: 0x4538, symBinAddr: 0x100055204, symSize: 0x14 }
  - { offset: 0xB7CFA, size: 0x8, addend: 0x0, symName: __RNvXs_NtNtNtCs9f3LFPSIp77_4core4iter6traits7collectINtNtNtB8_8adapters3map3MapINtNtNtCsdze8u8oDPro_5alloc3vec9into_iter8IntoIterNtNtB1l_6string6StringENCNvMs3_Cs41t77sgS83u_2ccNtB2x_5Build26try_flags_from_environment0ENtB4_12IntoIterator9into_iterB2x_, symObjAddr: 0x454C, symBinAddr: 0x100055218, symSize: 0x14 }
  - { offset: 0xB7D31, size: 0x8, addend: 0x0, symName: __RNvXs_NtNtNtCs9f3LFPSIp77_4core4iter6traits7collectINtNtNtB8_8adapters3map3MapNtNtNtBa_3str4iter15SplitWhitespaceNCNvMs3_Cs41t77sgS83u_2ccNtB1V_5Build8env_tool0ENtB4_12IntoIterator9into_iterB1V_, symObjAddr: 0x4560, symBinAddr: 0x10005522C, symSize: 0x30 }
  - { offset: 0xB7D69, size: 0x8, addend: 0x0, symName: __RNvXs_NtNtNtCs9f3LFPSIp77_4core4iter6traits7collectINtNtNtB8_8adapters3map3MapNtNtNtBa_3str4iter15SplitWhitespaceNCNvMs3_Cs41t77sgS83u_2ccNtB1V_5Build8env_tools_0ENtB4_12IntoIterator9into_iterB1V_, symObjAddr: 0x4590, symBinAddr: 0x10005525C, symSize: 0x30 }
  - { offset: 0xB7DA1, size: 0x8, addend: 0x0, symName: __RNvXs_NtNtNtCs9f3LFPSIp77_4core4iter6traits7collectINtNtNtB8_8adapters3map3MapNtNtNtBa_3str4iter20SplitAsciiWhitespaceNvYeNtNtCsdze8u8oDPro_5alloc6string8ToString9to_stringENtB4_12IntoIterator9into_iterCs41t77sgS83u_2cc, symObjAddr: 0x45C0, symBinAddr: 0x10005528C, symSize: 0x18 }
  - { offset: 0xB823D, size: 0x8, addend: 0x0, symName: __RNvXNtCs9f3LFPSIp77_4core7convertRINtNtCsdze8u8oDPro_5alloc4sync3ArcNtNtNtCs27l1GJC5rMQ_3std3ffi6os_str5OsStrEINtB2_5AsRefB14_E6as_refCs41t77sgS83u_2cc, symObjAddr: 0x2D14, symBinAddr: 0x1000539E0, symSize: 0x28 }
  - { offset: 0xB82D9, size: 0x8, addend: 0x0, symName: __RNvXNtNtCs9f3LFPSIp77_4core6future11into_futureNCNvMs1_NtNtCs41t77sgS83u_2cc8parallel9job_tokenNtBR_20ActiveJobTokenServer7acquire0NtB2_10IntoFuture11into_futureBV_, symObjAddr: 0x2D3C, symBinAddr: 0x100053A08, symSize: 0x30 }
  - { offset: 0xB8588, size: 0x8, addend: 0x0, symName: __RNvXsb_NtCs9f3LFPSIp77_4core5arrayRARej2_NtNtNtNtB7_4iter6traits7collect12IntoIterator9into_iterCs41t77sgS83u_2cc, symObjAddr: 0x45D8, symBinAddr: 0x1000552A4, symSize: 0x58 }
  - { offset: 0xB8A15, size: 0x8, addend: 0x0, symName: __RNvXs5_Cs22zHMr2Jt3g_9jobserverNtB5_6ClientNtNtCs9f3LFPSIp77_4core5clone5Clone5cloneCs41t77sgS83u_2cc, symObjAddr: 0x35D4, symBinAddr: 0x1000542A0, symSize: 0x24 }
  - { offset: 0xB8A47, size: 0x8, addend: 0x0, symName: __RNvXs8_Cs22zHMr2Jt3g_9jobserverNtB5_11HelperStateNtNtCs9f3LFPSIp77_4core7default7Default7defaultCs41t77sgS83u_2cc, symObjAddr: 0x3624, symBinAddr: 0x1000542F0, symSize: 0x74 }
  - { offset: 0xB92B5, size: 0x8, addend: 0x0, symName: __RNCNvMsm_NtCsdze8u8oDPro_5alloc4syncINtB7_3ArcShE18allocate_for_slice0Cs41t77sgS83u_2cc, symObjAddr: 0x205C, symBinAddr: 0x100052D28, symSize: 0x48 }
  - { offset: 0xB931D, size: 0x8, addend: 0x0, symName: __RNCNvMsm_NtCsdze8u8oDPro_5alloc4syncINtB7_3ArcShE18allocate_for_slices_0Cs41t77sgS83u_2cc, symObjAddr: 0x20A4, symBinAddr: 0x100052D70, symSize: 0x34 }
  - { offset: 0xB9441, size: 0x8, addend: 0x0, symName: __RINvNtCsdze8u8oDPro_5alloc4sync11data_offsetNtNtCs27l1GJC5rMQ_3std4path4PathECs41t77sgS83u_2cc, symObjAddr: 0xA64, symBinAddr: 0x100051730, symSize: 0x94 }
  - { offset: 0xB9530, size: 0x8, addend: 0x0, symName: __RINvNtCsdze8u8oDPro_5alloc4sync11data_offsetNtNtNtCs27l1GJC5rMQ_3std3ffi6os_str5OsStrECs41t77sgS83u_2cc, symObjAddr: 0xAF8, symBinAddr: 0x1000517C4, symSize: 0x94 }
  - { offset: 0xB961F, size: 0x8, addend: 0x0, symName: __RINvNtCsdze8u8oDPro_5alloc4sync11data_offsetNtNtNtNtCs27l1GJC5rMQ_3std3sys6os_str5bytes5SliceECs41t77sgS83u_2cc, symObjAddr: 0xB8C, symBinAddr: 0x100051858, symSize: 0x94 }
  - { offset: 0xB970E, size: 0x8, addend: 0x0, symName: __RINvNtCsdze8u8oDPro_5alloc4sync11data_offseteECs41t77sgS83u_2cc, symObjAddr: 0xC20, symBinAddr: 0x1000518EC, symSize: 0x94 }
  - { offset: 0xB9F9E, size: 0x8, addend: 0x0, symName: __RNvXs10_NtCsdze8u8oDPro_5alloc4syncINtB6_3ArceEINtNtCs9f3LFPSIp77_4core7convert4FromReE4fromCs41t77sgS83u_2cc, symObjAddr: 0x3310, symBinAddr: 0x100053FDC, symSize: 0x78 }
  - { offset: 0xBA158, size: 0x8, addend: 0x0, symName: __RNvXs11_NtCsdze8u8oDPro_5alloc4syncINtB6_3ArceEINtNtCs9f3LFPSIp77_4core7convert4FromNtNtB8_6string6StringE4fromCs41t77sgS83u_2cc, symObjAddr: 0x3388, symBinAddr: 0x100054054, symSize: 0xF4 }
  - { offset: 0xBA453, size: 0x8, addend: 0x0, symName: __RNvXsr_NtCsdze8u8oDPro_5alloc4syncINtB5_3ArcNtCs41t77sgS83u_2cc10BuildCacheENtNtNtCs9f3LFPSIp77_4core3ops5deref5Deref5derefBI_, symObjAddr: 0x4C00, symBinAddr: 0x1000558CC, symSize: 0x2C }
  - { offset: 0xBA4ED, size: 0x8, addend: 0x0, symName: __RNvXsr_NtCsdze8u8oDPro_5alloc4syncINtB5_3ArcNtNtCs27l1GJC5rMQ_3std4path4PathENtNtNtCs9f3LFPSIp77_4core3ops5deref5Deref5derefCs41t77sgS83u_2cc, symObjAddr: 0x4C2C, symBinAddr: 0x1000558F8, symSize: 0x38 }
  - { offset: 0xBA587, size: 0x8, addend: 0x0, symName: __RNvXsr_NtCsdze8u8oDPro_5alloc4syncINtB5_3ArcNtNtNtCs27l1GJC5rMQ_3std3ffi6os_str5OsStrENtNtNtCs9f3LFPSIp77_4core3ops5deref5Deref5derefCs41t77sgS83u_2cc, symObjAddr: 0x4C64, symBinAddr: 0x100055930, symSize: 0x38 }
  - { offset: 0xBA621, size: 0x8, addend: 0x0, symName: __RNvXsr_NtCsdze8u8oDPro_5alloc4syncINtB5_3ArcNtNtNtCs9f3LFPSIp77_4core4sync6atomic10AtomicBoolENtNtNtBM_3ops5deref5Deref5derefCs41t77sgS83u_2cc, symObjAddr: 0x4C9C, symBinAddr: 0x100055968, symSize: 0x2C }
  - { offset: 0xBA6BB, size: 0x8, addend: 0x0, symName: __RNvXsr_NtCsdze8u8oDPro_5alloc4syncINtB5_3ArceENtNtNtCs9f3LFPSIp77_4core3ops5deref5Deref5derefCs41t77sgS83u_2cc, symObjAddr: 0x4CC8, symBinAddr: 0x100055994, symSize: 0x38 }
  - { offset: 0xBA75B, size: 0x8, addend: 0x0, symName: __RNvXs1b_NtCsdze8u8oDPro_5alloc4syncINtB6_3ArcNtNtNtCs27l1GJC5rMQ_3std3ffi6os_str5OsStrEINtNtCs9f3LFPSIp77_4core7convert5AsRefBH_E6as_refCs41t77sgS83u_2cc, symObjAddr: 0x347C, symBinAddr: 0x100054148, symSize: 0x38 }
  - { offset: 0xBA83A, size: 0x8, addend: 0x0, symName: __RNvXsI_NtCsdze8u8oDPro_5alloc4syncINtB5_4WeakNtCs41t77sgS83u_2cc10BuildCacheRNtNtB7_5alloc6GlobalENtNtNtCs9f3LFPSIp77_4core3ops4drop4Drop4dropBJ_, symObjAddr: 0x36BC, symBinAddr: 0x100054388, symSize: 0x16C }
  - { offset: 0xBAAB2, size: 0x8, addend: 0x0, symName: __RNvXsI_NtCsdze8u8oDPro_5alloc4syncINtB5_4WeakNtNtCs27l1GJC5rMQ_3std4path4PathRNtNtB7_5alloc6GlobalENtNtNtCs9f3LFPSIp77_4core3ops4drop4Drop4dropCs41t77sgS83u_2cc, symObjAddr: 0x3828, symBinAddr: 0x1000544F4, symSize: 0x1C4 }
  - { offset: 0xBAD2B, size: 0x8, addend: 0x0, symName: __RNvXsI_NtCsdze8u8oDPro_5alloc4syncINtB5_4WeakNtNtNtCs27l1GJC5rMQ_3std3ffi6os_str5OsStrRNtNtB7_5alloc6GlobalENtNtNtCs9f3LFPSIp77_4core3ops4drop4Drop4dropCs41t77sgS83u_2cc, symObjAddr: 0x39EC, symBinAddr: 0x1000546B8, symSize: 0x1B8 }
  - { offset: 0xBAFA4, size: 0x8, addend: 0x0, symName: __RNvXsI_NtCsdze8u8oDPro_5alloc4syncINtB5_4WeakNtNtNtCs9f3LFPSIp77_4core4sync6atomic10AtomicBoolRNtNtB7_5alloc6GlobalENtNtNtBN_3ops4drop4Drop4dropCs41t77sgS83u_2cc, symObjAddr: 0x3BA4, symBinAddr: 0x100054870, symSize: 0x16C }
  - { offset: 0xBB21C, size: 0x8, addend: 0x0, symName: __RNvXsI_NtCsdze8u8oDPro_5alloc4syncINtB5_4WeakNtNtNtNtCs27l1GJC5rMQ_3std4sync4mpmc7context5InnerRNtNtB7_5alloc6GlobalENtNtNtCs9f3LFPSIp77_4core3ops4drop4Drop4dropCs41t77sgS83u_2cc, symObjAddr: 0x3D10, symBinAddr: 0x1000549DC, symSize: 0x16C }
  - { offset: 0xBB494, size: 0x8, addend: 0x0, symName: __RNvXsI_NtCsdze8u8oDPro_5alloc4syncINtB5_4WeakeRNtNtB7_5alloc6GlobalENtNtNtCs9f3LFPSIp77_4core3ops4drop4Drop4dropCs41t77sgS83u_2cc, symObjAddr: 0x3E7C, symBinAddr: 0x100054B48, symSize: 0x19C }
  - { offset: 0xBB713, size: 0x8, addend: 0x0, symName: __RNvXsP_NtCsdze8u8oDPro_5alloc4syncINtB5_3ArceENtNtCs9f3LFPSIp77_4core3fmt7Display3fmtCs41t77sgS83u_2cc, symObjAddr: 0x41A4, symBinAddr: 0x100054E70, symSize: 0x54 }
  - { offset: 0xBB7E0, size: 0x8, addend: 0x0, symName: __RNvXsQ_NtCsdze8u8oDPro_5alloc4syncINtB5_3ArcNtCs41t77sgS83u_2cc10BuildCacheENtNtCs9f3LFPSIp77_4core3fmt5Debug3fmtBI_, symObjAddr: 0x41F8, symBinAddr: 0x100054EC4, symSize: 0x44 }
  - { offset: 0xBB8A7, size: 0x8, addend: 0x0, symName: __RNvXsQ_NtCsdze8u8oDPro_5alloc4syncINtB5_3ArcNtNtCs27l1GJC5rMQ_3std4path4PathENtNtCs9f3LFPSIp77_4core3fmt5Debug3fmtCs41t77sgS83u_2cc, symObjAddr: 0x423C, symBinAddr: 0x100054F08, symSize: 0x54 }
  - { offset: 0xBB96E, size: 0x8, addend: 0x0, symName: __RNvXsQ_NtCsdze8u8oDPro_5alloc4syncINtB5_3ArcNtNtNtCs27l1GJC5rMQ_3std3ffi6os_str5OsStrENtNtCs9f3LFPSIp77_4core3fmt5Debug3fmtCs41t77sgS83u_2cc, symObjAddr: 0x4290, symBinAddr: 0x100054F5C, symSize: 0x54 }
  - { offset: 0xBBA35, size: 0x8, addend: 0x0, symName: __RNvXsQ_NtCsdze8u8oDPro_5alloc4syncINtB5_3ArcNtNtNtCs9f3LFPSIp77_4core4sync6atomic10AtomicBoolENtNtBM_3fmt5Debug3fmtCs41t77sgS83u_2cc, symObjAddr: 0x42E4, symBinAddr: 0x100054FB0, symSize: 0x44 }
  - { offset: 0xBBAFC, size: 0x8, addend: 0x0, symName: __RNvXsQ_NtCsdze8u8oDPro_5alloc4syncINtB5_3ArceENtNtCs9f3LFPSIp77_4core3fmt5Debug3fmtCs41t77sgS83u_2cc, symObjAddr: 0x4328, symBinAddr: 0x100054FF4, symSize: 0x54 }
  - { offset: 0xBBBC9, size: 0x8, addend: 0x0, symName: __RNvXsS_NtCsdze8u8oDPro_5alloc4syncINtB5_3ArcNtCs41t77sgS83u_2cc10BuildCacheENtNtCs9f3LFPSIp77_4core7default7Default7defaultBI_, symObjAddr: 0x43AC, symBinAddr: 0x100055078, symSize: 0x104 }
  - { offset: 0xBBD9C, size: 0x8, addend: 0x0, symName: __RNvXsq_NtCsdze8u8oDPro_5alloc4syncINtB5_3ArcNtCs41t77sgS83u_2cc10BuildCacheENtNtCs9f3LFPSIp77_4core5clone5Clone5cloneBI_, symObjAddr: 0x4850, symBinAddr: 0x10005551C, symSize: 0xAC }
  - { offset: 0xBBEB8, size: 0x8, addend: 0x0, symName: __RNvXsq_NtCsdze8u8oDPro_5alloc4syncINtB5_3ArcNtNtCs27l1GJC5rMQ_3std4path4PathENtNtCs9f3LFPSIp77_4core5clone5Clone5cloneCs41t77sgS83u_2cc, symObjAddr: 0x48FC, symBinAddr: 0x1000555C8, symSize: 0xC8 }
  - { offset: 0xBBFD6, size: 0x8, addend: 0x0, symName: __RNvXsq_NtCsdze8u8oDPro_5alloc4syncINtB5_3ArcNtNtNtCs27l1GJC5rMQ_3std3ffi6os_str5OsStrENtNtCs9f3LFPSIp77_4core5clone5Clone5cloneCs41t77sgS83u_2cc, symObjAddr: 0x49C4, symBinAddr: 0x100055690, symSize: 0xC8 }
  - { offset: 0xBC0F4, size: 0x8, addend: 0x0, symName: __RNvXsq_NtCsdze8u8oDPro_5alloc4syncINtB5_3ArcNtNtNtCs9f3LFPSIp77_4core4sync6atomic10AtomicBoolENtNtBM_5clone5Clone5cloneCs41t77sgS83u_2cc, symObjAddr: 0x4A8C, symBinAddr: 0x100055758, symSize: 0xAC }
  - { offset: 0xBC210, size: 0x8, addend: 0x0, symName: __RNvXsq_NtCsdze8u8oDPro_5alloc4syncINtB5_3ArceENtNtCs9f3LFPSIp77_4core5clone5Clone5cloneCs41t77sgS83u_2cc, symObjAddr: 0x4B38, symBinAddr: 0x100055804, symSize: 0xC8 }
  - { offset: 0xBC334, size: 0x8, addend: 0x0, symName: __RNvXsz_NtCsdze8u8oDPro_5alloc4syncINtB5_3ArcNtCs41t77sgS83u_2cc10BuildCacheENtNtNtCs9f3LFPSIp77_4core3ops4drop4Drop4dropBI_, symObjAddr: 0x4E8C, symBinAddr: 0x100055B58, symSize: 0xC0 }
  - { offset: 0xBC484, size: 0x8, addend: 0x0, symName: __RNvXsz_NtCsdze8u8oDPro_5alloc4syncINtB5_3ArcNtNtCs27l1GJC5rMQ_3std4path4PathENtNtNtCs9f3LFPSIp77_4core3ops4drop4Drop4dropCs41t77sgS83u_2cc, symObjAddr: 0x4F4C, symBinAddr: 0x100055C18, symSize: 0xCC }
  - { offset: 0xBC5D5, size: 0x8, addend: 0x0, symName: __RNvXsz_NtCsdze8u8oDPro_5alloc4syncINtB5_3ArcNtNtNtCs27l1GJC5rMQ_3std3ffi6os_str5OsStrENtNtNtCs9f3LFPSIp77_4core3ops4drop4Drop4dropCs41t77sgS83u_2cc, symObjAddr: 0x5018, symBinAddr: 0x100055CE4, symSize: 0xCC }
  - { offset: 0xBC726, size: 0x8, addend: 0x0, symName: __RNvXsz_NtCsdze8u8oDPro_5alloc4syncINtB5_3ArcNtNtNtCs9f3LFPSIp77_4core4sync6atomic10AtomicBoolENtNtNtBM_3ops4drop4Drop4dropCs41t77sgS83u_2cc, symObjAddr: 0x50E4, symBinAddr: 0x100055DB0, symSize: 0xC0 }
  - { offset: 0xBC876, size: 0x8, addend: 0x0, symName: __RNvXsz_NtCsdze8u8oDPro_5alloc4syncINtB5_3ArcNtNtNtNtCs27l1GJC5rMQ_3std4sync4mpmc7context5InnerENtNtNtCs9f3LFPSIp77_4core3ops4drop4Drop4dropCs41t77sgS83u_2cc, symObjAddr: 0x51A4, symBinAddr: 0x100055E70, symSize: 0xC0 }
  - { offset: 0xBC9C6, size: 0x8, addend: 0x0, symName: __RNvXsz_NtCsdze8u8oDPro_5alloc4syncINtB5_3ArceENtNtNtCs9f3LFPSIp77_4core3ops4drop4Drop4dropCs41t77sgS83u_2cc, symObjAddr: 0x5264, symBinAddr: 0x100055F30, symSize: 0xCC }
  - { offset: 0xBCE8D, size: 0x8, addend: 0x0, symName: __RNvXs0_NtNtCsdze8u8oDPro_5alloc3vec16in_place_collectINtNtNtNtCs9f3LFPSIp77_4core4iter8adapters3map3MapINtNtB7_9into_iter8IntoIterNtCs41t77sgS83u_2cc6ObjectENCNvMs3_B26_NtB26_5Build25try_compile_intermediates0EINtB5_18SpecInPlaceCollectNtNtCs27l1GJC5rMQ_3std4path7PathBufBP_E16collect_in_placeB26_, symObjAddr: 0x2D6C, symBinAddr: 0x100053A38, symSize: 0xC8 }
  - { offset: 0xBD6CD, size: 0x8, addend: 0x0, symName: __RINvXNtNtCsdze8u8oDPro_5alloc5slice4hackINtNtB7_4sync3ArcNtNtCs27l1GJC5rMQ_3std4path4PathENtB3_10ConvertVec6to_vecNtNtB7_5alloc6GlobalECs41t77sgS83u_2cc, symObjAddr: 0xCB4, symBinAddr: 0x100051980, symSize: 0x2A0 }
  - { offset: 0xBD9FC, size: 0x8, addend: 0x0, symName: __RINvXNtNtCsdze8u8oDPro_5alloc5slice4hackINtNtB7_4sync3ArcNtNtNtCs27l1GJC5rMQ_3std3ffi6os_str5OsStrENtB3_10ConvertVec6to_vecNtNtB7_5alloc6GlobalECs41t77sgS83u_2cc, symObjAddr: 0xF54, symBinAddr: 0x100051C20, symSize: 0x2A0 }
  - { offset: 0xBDD2B, size: 0x8, addend: 0x0, symName: __RINvXNtNtCsdze8u8oDPro_5alloc5slice4hackTINtNtB7_4sync3ArcNtNtNtCs27l1GJC5rMQ_3std3ffi6os_str5OsStrEBD_ENtB3_10ConvertVec6to_vecNtNtB7_5alloc6GlobalECs41t77sgS83u_2cc, symObjAddr: 0x11F4, symBinAddr: 0x100051EC0, symSize: 0x2B4 }
  - { offset: 0xBE07B, size: 0x8, addend: 0x0, symName: __RINvXNtNtCsdze8u8oDPro_5alloc5slice4hackTINtNtB7_4sync3ArceEINtNtCs9f3LFPSIp77_4core6option6OptionBD_EENtB3_10ConvertVec6to_vecNtNtB7_5alloc6GlobalECs41t77sgS83u_2cc, symObjAddr: 0x14A8, symBinAddr: 0x100052174, symSize: 0x2B4 }
  - { offset: 0xBEB4A, size: 0x8, addend: 0x0, symName: __RINvMNtCs27l1GJC5rMQ_3std2fsNtB3_4File6createRNtNtB5_4path7PathBufECs41t77sgS83u_2cc, symObjAddr: 0x0, symBinAddr: 0x100050CCC, symSize: 0xE8 }
  - { offset: 0xBED05, size: 0x8, addend: 0x0, symName: __RINvMs0_Cs22zHMr2Jt3g_9jobserverNtB6_6Client18into_helper_threadNCNvMs_NtNtNtCs41t77sgS83u_2cc8parallel9job_token19inherited_jobserverNtB17_12HelperThread3new0EB1d_, symObjAddr: 0x158, symBinAddr: 0x100050E24, symSize: 0x304 }
  - { offset: 0xBEF6C, size: 0x8, addend: 0x0, symName: __RINvMsk_NtCsdze8u8oDPro_5alloc4syncINtB6_3ArcShE19allocate_for_layoutNCNvMsm_B6_Bx_18allocate_for_slice0NCB17_s_0ECs41t77sgS83u_2cc, symObjAddr: 0x45C, symBinAddr: 0x100051128, symSize: 0x18C }
  - { offset: 0xBF21D, size: 0x8, addend: 0x0, symName: __RINvMsw_NtCs27l1GJC5rMQ_3std2fsNtB6_10DirBuilder6createRNtNtB8_4path4PathECs41t77sgS83u_2cc, symObjAddr: 0x5E8, symBinAddr: 0x1000512B4, symSize: 0x74 }
  - { offset: 0xC00B2, size: 0x8, addend: 0x0, symName: __RNvMs1_NtNtNtCs27l1GJC5rMQ_3std4sync4mpmc5utilsNtB5_7Backoff10spin_heavyCs41t77sgS83u_2cc, symObjAddr: 0x21A8, symBinAddr: 0x100052E74, symSize: 0x124 }
  - { offset: 0xC036E, size: 0x8, addend: 0x0, symName: __RNvMs1_NtNtNtCs27l1GJC5rMQ_3std4sync4mpmc5utilsNtB5_7Backoff10spin_lightCs41t77sgS83u_2cc, symObjAddr: 0x22CC, symBinAddr: 0x100052F98, symSize: 0x108 }
  - { offset: 0xC05D5, size: 0x8, addend: 0x0, symName: __RNvMsc_NtCs27l1GJC5rMQ_3std2fsNtB5_11OpenOptions10create_newCs41t77sgS83u_2cc, symObjAddr: 0x23D4, symBinAddr: 0x1000530A0, symSize: 0x24 }
  - { offset: 0xC0633, size: 0x8, addend: 0x0, symName: __RNvMsc_NtCs27l1GJC5rMQ_3std2fsNtB5_11OpenOptions3newCs41t77sgS83u_2cc, symObjAddr: 0x23F8, symBinAddr: 0x1000530C4, symSize: 0x44 }
  - { offset: 0xC067B, size: 0x8, addend: 0x0, symName: __RNvMsc_NtCs27l1GJC5rMQ_3std2fsNtB5_11OpenOptions4readCs41t77sgS83u_2cc, symObjAddr: 0x243C, symBinAddr: 0x100053108, symSize: 0x24 }
  - { offset: 0xC06F2, size: 0x8, addend: 0x0, symName: __RNvMsc_NtCs27l1GJC5rMQ_3std2fsNtB5_11OpenOptions5writeCs41t77sgS83u_2cc, symObjAddr: 0x2460, symBinAddr: 0x10005312C, symSize: 0x24 }
  - { offset: 0xC07DB, size: 0x8, addend: 0x0, symName: __RNvMsc_NtCsdze8u8oDPro_5alloc4syncINtB5_3ArcNtCs22zHMr2Jt3g_9jobserver11HelperStateE3newCs41t77sgS83u_2cc, symObjAddr: 0x2484, symBinAddr: 0x100053150, symSize: 0xE4 }
  - { offset: 0xC0A37, size: 0x8, addend: 0x0, symName: __RNvMsc_NtCsdze8u8oDPro_5alloc4syncINtB5_3ArcNtNtNtCs9f3LFPSIp77_4core4sync6atomic10AtomicBoolE3newCs41t77sgS83u_2cc, symObjAddr: 0x2568, symBinAddr: 0x100053234, symSize: 0xD8 }
  - { offset: 0xC0FF1, size: 0x8, addend: 0x0, symName: __RNvMsj_NtCsdze8u8oDPro_5alloc4syncINtB5_3ArcNtCs41t77sgS83u_2cc10BuildCacheE9drop_slowBI_, symObjAddr: 0x2640, symBinAddr: 0x10005330C, symSize: 0x50 }
  - { offset: 0xC10CC, size: 0x8, addend: 0x0, symName: __RNvMsj_NtCsdze8u8oDPro_5alloc4syncINtB5_3ArcNtNtCs27l1GJC5rMQ_3std4path4PathE11from_raw_inCs41t77sgS83u_2cc, symObjAddr: 0x2690, symBinAddr: 0x10005335C, symSize: 0x9C }
  - { offset: 0xC1283, size: 0x8, addend: 0x0, symName: __RNvMsj_NtCsdze8u8oDPro_5alloc4syncINtB5_3ArcNtNtCs27l1GJC5rMQ_3std4path4PathE9drop_slowCs41t77sgS83u_2cc, symObjAddr: 0x272C, symBinAddr: 0x1000533F8, symSize: 0x54 }
  - { offset: 0xC135E, size: 0x8, addend: 0x0, symName: __RNvMsj_NtCsdze8u8oDPro_5alloc4syncINtB5_3ArcNtNtNtCs27l1GJC5rMQ_3std3ffi6os_str5OsStrE11from_raw_inCs41t77sgS83u_2cc, symObjAddr: 0x2780, symBinAddr: 0x10005344C, symSize: 0x9C }
  - { offset: 0xC1515, size: 0x8, addend: 0x0, symName: __RNvMsj_NtCsdze8u8oDPro_5alloc4syncINtB5_3ArcNtNtNtCs27l1GJC5rMQ_3std3ffi6os_str5OsStrE9drop_slowCs41t77sgS83u_2cc, symObjAddr: 0x281C, symBinAddr: 0x1000534E8, symSize: 0x54 }
  - { offset: 0xC15C5, size: 0x8, addend: 0x0, symName: __RNvMsj_NtCsdze8u8oDPro_5alloc4syncINtB5_3ArcNtNtNtCs9f3LFPSIp77_4core4sync6atomic10AtomicBoolE9drop_slowCs41t77sgS83u_2cc, symObjAddr: 0x2870, symBinAddr: 0x10005353C, symSize: 0x44 }
  - { offset: 0xC16C7, size: 0x8, addend: 0x0, symName: __RNvMsj_NtCsdze8u8oDPro_5alloc4syncINtB5_3ArcNtNtNtNtCs27l1GJC5rMQ_3std3sys6os_str5bytes5SliceE11from_raw_inCs41t77sgS83u_2cc, symObjAddr: 0x28B4, symBinAddr: 0x100053580, symSize: 0x9C }
  - { offset: 0xC187A, size: 0x8, addend: 0x0, symName: __RNvMsj_NtCsdze8u8oDPro_5alloc4syncINtB5_3ArcNtNtNtNtCs27l1GJC5rMQ_3std4sync4mpmc7context5InnerE9drop_slowCs41t77sgS83u_2cc, symObjAddr: 0x2950, symBinAddr: 0x10005361C, symSize: 0x50 }
  - { offset: 0xC1955, size: 0x8, addend: 0x0, symName: __RNvMsj_NtCsdze8u8oDPro_5alloc4syncINtB5_3ArceE11from_raw_inCs41t77sgS83u_2cc, symObjAddr: 0x29A0, symBinAddr: 0x10005366C, symSize: 0x9C }
  - { offset: 0xC1B19, size: 0x8, addend: 0x0, symName: __RNvMsj_NtCsdze8u8oDPro_5alloc4syncINtB5_3ArceE9drop_slowCs41t77sgS83u_2cc, symObjAddr: 0x2A3C, symBinAddr: 0x100053708, symSize: 0x54 }
  - { offset: 0xC1C10, size: 0x8, addend: 0x0, symName: __RNvMsm_NtCsdze8u8oDPro_5alloc4syncINtB5_3ArcShE15copy_from_sliceCs41t77sgS83u_2cc, symObjAddr: 0x2A90, symBinAddr: 0x10005375C, symSize: 0xC4 }
  - { offset: 0xC1D60, size: 0x8, addend: 0x0, symName: __RNvMsm_NtCsdze8u8oDPro_5alloc4syncINtB5_3ArcShE18allocate_for_sliceCs41t77sgS83u_2cc, symObjAddr: 0x2B54, symBinAddr: 0x100053820, symSize: 0xAC }
  - { offset: 0xC401E, size: 0x8, addend: 0x0, symName: __RNvMNtNtCs41t77sgS83u_2cc8parallel9job_tokenNtB2_8JobToken3new, symObjAddr: 0x56E0, symBinAddr: 0x1000563AC, symSize: 0x14 }
  - { offset: 0xC403E, size: 0x8, addend: 0x0, symName: __RNvMs0_NtNtCs41t77sgS83u_2cc8parallel9job_tokenNtB5_14JobTokenServer3new, symObjAddr: 0x5798, symBinAddr: 0x100056464, symSize: 0x2C }
  - { offset: 0xC406B, size: 0x8, addend: 0x0, symName: __RNvMs1_NtNtCs41t77sgS83u_2cc8parallel9job_tokenNtB5_20ActiveJobTokenServer3new, symObjAddr: 0x586C, symBinAddr: 0x100056538, symSize: 0xB4 }
  - { offset: 0xC40D3, size: 0x8, addend: 0x0, symName: __RNvMs1_NtNtCs41t77sgS83u_2cc8parallel9job_tokenNtB5_20ActiveJobTokenServer7acquire, symObjAddr: 0x5920, symBinAddr: 0x1000565EC, symSize: 0x2C }
  - { offset: 0xC44C7, size: 0x8, addend: 0x0, symName: __RINvMNtCs9f3LFPSIp77_4core6resultINtB3_6ResultINtNtCsdze8u8oDPro_5alloc3vec3VechENtCs41t77sgS83u_2cc5ErrorE3mapbNCNvNvMNtB1j_4toolNtB1T_4Tool13with_features9is_zig_cc0EB1j_, symObjAddr: 0x0, symBinAddr: 0x1000569A8, symSize: 0xA4 }
  - { offset: 0xC4508, size: 0x8, addend: 0x0, symName: __RNCINvMs0_NtNtCs27l1GJC5rMQ_3std4sync4onceNtB8_4Once9call_onceNCINvMs1_NtCs41t77sgS83u_2cc9utilitiesINtB17_8OnceLockINtNtCs9f3LFPSIp77_4core6result6ResultNtNtNtB19_6target6parser21TargetInfoParserInnerNtB19_5ErrorEE11get_or_initNvMB2u_B2s_32from_cargo_environment_variablesE0E0B19_, symObjAddr: 0x1300, symBinAddr: 0x100057C6C, symSize: 0x70 }
  - { offset: 0xC4600, size: 0x8, addend: 0x0, symName: __RNCINvMs0_NtNtCs27l1GJC5rMQ_3std4sync4onceNtB8_4Once9call_onceNCINvMs1_NtCs41t77sgS83u_2cc9utilitiesINtB17_8OnceLockNtNtNtB19_8parallel9job_token14JobTokenServerE11get_or_initNCNvMs0_B1S_B1Q_3new0E0E0B19_, symObjAddr: 0x1370, symBinAddr: 0x100057CDC, symSize: 0x70 }
  - { offset: 0xC5644, size: 0x8, addend: 0x0, symName: __RNCINvNtCs27l1GJC5rMQ_3std9panicking11begin_panicReE0Cs41t77sgS83u_2cc, symObjAddr: 0x13E0, symBinAddr: 0x100057D4C, symSize: 0x74 }
  - { offset: 0xC568F, size: 0x8, addend: 0x0, symName: __RNvXNvNtCs27l1GJC5rMQ_3std9panicking11begin_panicINtB2_7PayloadReENtNtCs9f3LFPSIp77_4core5panic12PanicPayload3getCs41t77sgS83u_2cc, symObjAddr: 0x2E44, symBinAddr: 0x1000594F4, symSize: 0x50 }
  - { offset: 0xC56C6, size: 0x8, addend: 0x0, symName: __RNvXNvNtCs27l1GJC5rMQ_3std9panicking11begin_panicINtB2_7PayloadReENtNtCs9f3LFPSIp77_4core5panic12PanicPayload8take_boxCs41t77sgS83u_2cc, symObjAddr: 0x2E94, symBinAddr: 0x100059544, symSize: 0x114 }
  - { offset: 0xC588C, size: 0x8, addend: 0x0, symName: __RNvXs_NvNtCs27l1GJC5rMQ_3std9panicking11begin_panicINtB4_7PayloadReENtNtCs9f3LFPSIp77_4core3fmt7Display3fmtCs41t77sgS83u_2cc, symObjAddr: 0x45B4, symBinAddr: 0x10005AC64, symSize: 0x74 }
  - { offset: 0xC58F2, size: 0x8, addend: 0x0, symName: __RINvNtCs27l1GJC5rMQ_3std9panicking11begin_panicReECs41t77sgS83u_2cc, symObjAddr: 0x12C4, symBinAddr: 0x10016BFFC, symSize: 0x3C }
  - { offset: 0xC5D2D, size: 0x8, addend: 0x0, symName: __RNvYINtNtNtNtCs27l1GJC5rMQ_3std2io8buffered9bufwriter9BufWriterNtNtB9_5stdio6StdoutENtB9_5Write18write_all_vectoredCs41t77sgS83u_2cc, symObjAddr: 0x63C4, symBinAddr: 0x10005CA74, symSize: 0x268 }
  - { offset: 0xC5EF6, size: 0x8, addend: 0x0, symName: __RNvYINtNtNtNtCs27l1GJC5rMQ_3std2io8buffered9bufwriter9BufWriterNtNtB9_5stdio6StdoutENtB9_5Write9write_fmtCs41t77sgS83u_2cc, symObjAddr: 0x662C, symBinAddr: 0x10005CCDC, symSize: 0x128 }
  - { offset: 0xC612B, size: 0x8, addend: 0x0, symName: __RNCNvXs4_NtNtNtCs27l1GJC5rMQ_3std2io8buffered9bufwriterINtB7_9BufWriterNtNtBb_5stdio6StdoutENtBb_5Write14write_vectored0Cs41t77sgS83u_2cc, symObjAddr: 0x1508, symBinAddr: 0x100057E74, symSize: 0x80 }
  - { offset: 0xC61D1, size: 0x8, addend: 0x0, symName: __RNCNvXs4_NtNtNtCs27l1GJC5rMQ_3std2io8buffered9bufwriterINtB7_9BufWriterNtNtBb_5stdio6StdoutENtBb_5Write14write_vectoreds_0Cs41t77sgS83u_2cc, symObjAddr: 0x1588, symBinAddr: 0x100057EF4, symSize: 0x88 }
  - { offset: 0xC62FF, size: 0x8, addend: 0x0, symName: __RNvXs4_NtNtNtCs27l1GJC5rMQ_3std2io8buffered9bufwriterINtB5_9BufWriterNtNtB9_5stdio6StdoutENtB9_5Write14write_vectoredCs41t77sgS83u_2cc, symObjAddr: 0x2FB8, symBinAddr: 0x100059668, symSize: 0x76C }
  - { offset: 0xC6EF6, size: 0x8, addend: 0x0, symName: __RNvXs4_NtNtNtCs27l1GJC5rMQ_3std2io8buffered9bufwriterINtB5_9BufWriterNtNtB9_5stdio6StdoutENtB9_5Write17is_write_vectoredCs41t77sgS83u_2cc, symObjAddr: 0x3724, symBinAddr: 0x100059DD4, symSize: 0x18 }
  - { offset: 0xC6F6E, size: 0x8, addend: 0x0, symName: __RNvXs4_NtNtNtCs27l1GJC5rMQ_3std2io8buffered9bufwriterINtB5_9BufWriterNtNtB9_5stdio6StdoutENtB9_5Write5flushCs41t77sgS83u_2cc, symObjAddr: 0x373C, symBinAddr: 0x100059DEC, symSize: 0x64 }
  - { offset: 0xC7034, size: 0x8, addend: 0x0, symName: __RNvXs4_NtNtNtCs27l1GJC5rMQ_3std2io8buffered9bufwriterINtB5_9BufWriterNtNtB9_5stdio6StdoutENtB9_5Write5writeCs41t77sgS83u_2cc, symObjAddr: 0x37A0, symBinAddr: 0x100059E50, symSize: 0xB8 }
  - { offset: 0xC7100, size: 0x8, addend: 0x0, symName: __RNvXs4_NtNtNtCs27l1GJC5rMQ_3std2io8buffered9bufwriterINtB5_9BufWriterNtNtB9_5stdio6StdoutENtB9_5Write9write_allCs41t77sgS83u_2cc, symObjAddr: 0x3858, symBinAddr: 0x100059F08, symSize: 0xA8 }
  - { offset: 0xC723F, size: 0x8, addend: 0x0, symName: __RNvXs7_NtNtNtCs27l1GJC5rMQ_3std2io8buffered9bufwriterINtB5_9BufWriterNtNtB9_5stdio6StdoutENtNtNtCs9f3LFPSIp77_4core3ops4drop4Drop4dropCs41t77sgS83u_2cc, symObjAddr: 0x3900, symBinAddr: 0x100059FB0, symSize: 0x4C }
  - { offset: 0xC9D6F, size: 0x8, addend: 0x0, symName: __RNcNtINtNtCs9f3LFPSIp77_4core6result6ResultuINtNtNtB8_3num7nonzero7NonZerojEE3Err0Cs41t77sgS83u_2cc, symObjAddr: 0x1610, symBinAddr: 0x100057F7C, symSize: 0x18 }
  - { offset: 0xCA8BB, size: 0x8, addend: 0x0, symName: __RNvXsp_NtCs9f3LFPSIp77_4core6resultINtB5_6ResultINtNtB7_6option6OptionINtNtCsdze8u8oDPro_5alloc6borrow3CowNtNtCs27l1GJC5rMQ_3std4path4PathEENtCs41t77sgS83u_2cc5ErrorEINtNtNtB7_3ops9try_trait12FromResidualIBy_NtNtB7_7convert10InfallibleB2e_EE13from_residualB2g_, symObjAddr: 0x5BE0, symBinAddr: 0x10005C290, symSize: 0x3C }
  - { offset: 0xCA940, size: 0x8, addend: 0x0, symName: __RNvXsp_NtCs9f3LFPSIp77_4core6resultINtB5_6ResultINtNtCsdze8u8oDPro_5alloc3vec3VecNtCs41t77sgS83u_2cc6ObjectENtB1j_5ErrorEINtNtNtB7_3ops9try_trait12FromResidualIBy_NtNtB7_7convert10InfallibleB1I_EE13from_residualB1j_, symObjAddr: 0x5C1C, symBinAddr: 0x10005C2CC, symSize: 0x3C }
  - { offset: 0xCA9C5, size: 0x8, addend: 0x0, symName: __RNvXsp_NtCs9f3LFPSIp77_4core6resultINtB5_6ResultINtNtCsdze8u8oDPro_5alloc3vec3VecNtCs41t77sgS83u_2cc6ObjectENtB1j_5ErrorEINtNtNtB7_3ops9try_trait12FromResidualIBy_NtNtB7_7convert10InfallibleNtNtNtCs27l1GJC5rMQ_3std2io5error5ErrorEE13from_residualB1j_, symObjAddr: 0x5C58, symBinAddr: 0x10005C308, symSize: 0x44 }
  - { offset: 0xCAA2C, size: 0x8, addend: 0x0, symName: __RNvXsp_NtCs9f3LFPSIp77_4core6resultINtB5_6ResultINtNtCsdze8u8oDPro_5alloc3vec3VecNtNtBP_6string6StringENtCs41t77sgS83u_2cc5ErrorEINtNtNtB7_3ops9try_trait12FromResidualIBy_NtNtB7_7convert10InfallibleB1D_EE13from_residualB1F_, symObjAddr: 0x5C9C, symBinAddr: 0x10005C34C, symSize: 0x3C }
  - { offset: 0xCAAB1, size: 0x8, addend: 0x0, symName: __RNvXsp_NtCs9f3LFPSIp77_4core6resultINtB5_6ResultINtNtCsdze8u8oDPro_5alloc3vec3VecNtNtCs27l1GJC5rMQ_3std4path7PathBufENtCs41t77sgS83u_2cc5ErrorEINtNtNtB7_3ops9try_trait12FromResidualIBy_NtNtB7_7convert10InfallibleB1R_EE13from_residualB1T_, symObjAddr: 0x5CD8, symBinAddr: 0x10005C388, symSize: 0x3C }
  - { offset: 0xCAB36, size: 0x8, addend: 0x0, symName: __RNvXsp_NtCs9f3LFPSIp77_4core6resultINtB5_6ResultINtNtCsdze8u8oDPro_5alloc3vec3VechENtCs41t77sgS83u_2cc5ErrorEINtNtNtB7_3ops9try_trait12FromResidualIBy_NtNtB7_7convert10InfallibleB1j_EE13from_residualB1l_, symObjAddr: 0x5D14, symBinAddr: 0x10005C3C4, symSize: 0x3C }
  - { offset: 0xCABBB, size: 0x8, addend: 0x0, symName: __RNvXsp_NtCs9f3LFPSIp77_4core6resultINtB5_6ResultINtNtCsdze8u8oDPro_5alloc4sync3ArcNtNtNtCs27l1GJC5rMQ_3std3ffi6os_str5OsStrENtCs41t77sgS83u_2cc5ErrorEINtNtNtB7_3ops9try_trait12FromResidualIBy_NtNtB7_7convert10InfallibleB1Y_EE13from_residualB20_, symObjAddr: 0x5D50, symBinAddr: 0x10005C400, symSize: 0x3C }
  - { offset: 0xCAC40, size: 0x8, addend: 0x0, symName: __RNvXsp_NtCs9f3LFPSIp77_4core6resultINtB5_6ResultINtNtNtCsdze8u8oDPro_5alloc3vec13in_place_drop11InPlaceDropNtNtCs27l1GJC5rMQ_3std4path7PathBufEzEINtNtNtB7_3ops9try_trait12FromResidualIBy_NtNtB7_7convert10InfalliblezEE13from_residualCs41t77sgS83u_2cc, symObjAddr: 0x5D8C, symBinAddr: 0x10005C43C, symSize: 0x8 }
  - { offset: 0xCACBB, size: 0x8, addend: 0x0, symName: __RNvXsp_NtCs9f3LFPSIp77_4core6resultINtB5_6ResultNtCs22zHMr2Jt3g_9jobserver12HelperThreadNtNtNtCs27l1GJC5rMQ_3std2io5error5ErrorEINtNtNtB7_3ops9try_trait12FromResidualIBy_NtNtB7_7convert10InfallibleB1o_EE13from_residualCs41t77sgS83u_2cc, symObjAddr: 0x5D94, symBinAddr: 0x10005C444, symSize: 0x24 }
  - { offset: 0xCAD22, size: 0x8, addend: 0x0, symName: __RNvXsp_NtCs9f3LFPSIp77_4core6resultINtB5_6ResultNtNtCs27l1GJC5rMQ_3std4path7PathBufNtCs41t77sgS83u_2cc5ErrorEINtNtNtB7_3ops9try_trait12FromResidualIBy_NtNtB7_7convert10InfallibleB1j_EE13from_residualB1l_, symObjAddr: 0x5DB8, symBinAddr: 0x10005C468, symSize: 0x3C }
  - { offset: 0xCADA7, size: 0x8, addend: 0x0, symName: __RNvXsp_NtCs9f3LFPSIp77_4core6resultINtB5_6ResultNtNtCs27l1GJC5rMQ_3std4path7PathBufNtCs41t77sgS83u_2cc5ErrorEINtNtNtB7_3ops9try_trait12FromResidualIBy_NtNtB7_7convert10InfallibleNtNtNtBO_2io5error5ErrorEE13from_residualB1l_, symObjAddr: 0x5DF4, symBinAddr: 0x10005C4A4, symSize: 0x44 }
  - { offset: 0xCAE0E, size: 0x8, addend: 0x0, symName: __RNvXsp_NtCs9f3LFPSIp77_4core6resultINtB5_6ResultNtNtCs27l1GJC5rMQ_3std7process7CommandNtCs41t77sgS83u_2cc5ErrorEINtNtNtB7_3ops9try_trait12FromResidualIBy_NtNtB7_7convert10InfallibleB1m_EE13from_residualB1o_, symObjAddr: 0x5E38, symBinAddr: 0x10005C4E8, symSize: 0x48 }
  - { offset: 0xCAE93, size: 0x8, addend: 0x0, symName: __RNvXsp_NtCs9f3LFPSIp77_4core6resultINtB5_6ResultNtNtCs41t77sgS83u_2cc4tool10ToolFamilyNtBO_5ErrorEINtNtNtB7_3ops9try_trait12FromResidualIBy_NtNtB7_7convert10InfallibleB1m_EE13from_residualBO_, symObjAddr: 0x5E80, symBinAddr: 0x10005C530, symSize: 0x3C }
  - { offset: 0xCAF18, size: 0x8, addend: 0x0, symName: __RNvXsp_NtCs9f3LFPSIp77_4core6resultINtB5_6ResultNtNtCs41t77sgS83u_2cc4tool10ToolFamilyNtBO_5ErrorEINtNtNtB7_3ops9try_trait12FromResidualIBy_NtNtB7_7convert10InfallibleNtNtNtCs27l1GJC5rMQ_3std2io5error5ErrorEE13from_residualBO_, symObjAddr: 0x5EBC, symBinAddr: 0x10005C56C, symSize: 0x44 }
  - { offset: 0xCAF7F, size: 0x8, addend: 0x0, symName: __RNvXsp_NtCs9f3LFPSIp77_4core6resultINtB5_6ResultNtNtCs41t77sgS83u_2cc4tool4ToolNtBO_5ErrorEINtNtNtB7_3ops9try_trait12FromResidualIBy_NtNtB7_7convert10InfallibleB1f_EE13from_residualBO_, symObjAddr: 0x5F00, symBinAddr: 0x10005C5B0, symSize: 0x48 }
  - { offset: 0xCB004, size: 0x8, addend: 0x0, symName: __RNvXsp_NtCs9f3LFPSIp77_4core6resultINtB5_6ResultNtNtCs41t77sgS83u_2cc5flags17RustcCodegenFlagsNtBO_5ErrorEINtNtNtB7_3ops9try_trait12FromResidualIBy_NtNtB7_7convert10InfallibleB1u_EE13from_residualBO_, symObjAddr: 0x5F48, symBinAddr: 0x10005C5F8, symSize: 0x48 }
  - { offset: 0xCB089, size: 0x8, addend: 0x0, symName: __RNvXsp_NtCs9f3LFPSIp77_4core6resultINtB5_6ResultNtNtCsdze8u8oDPro_5alloc6string6StringNtCs41t77sgS83u_2cc5ErrorEINtNtNtB7_3ops9try_trait12FromResidualIBy_NtNtB7_7convert10InfallibleB1m_EE13from_residualB1o_, symObjAddr: 0x5F90, symBinAddr: 0x10005C640, symSize: 0x3C }
  - { offset: 0xCB10E, size: 0x8, addend: 0x0, symName: __RNvXsp_NtCs9f3LFPSIp77_4core6resultINtB5_6ResultNtNtNtCs41t77sgS83u_2cc6target6parser21TargetInfoParserInnerNtBQ_5ErrorEINtNtNtB7_3ops9try_trait12FromResidualIBy_NtNtB7_7convert10InfallibleB1I_EE13from_residualBQ_, symObjAddr: 0x5FCC, symBinAddr: 0x10005C67C, symSize: 0x40 }
  - { offset: 0xCB193, size: 0x8, addend: 0x0, symName: __RNvXsp_NtCs9f3LFPSIp77_4core6resultINtB5_6ResultNtNtNtCs41t77sgS83u_2cc8parallel9job_token8JobTokenNtBQ_5ErrorEINtNtNtB7_3ops9try_trait12FromResidualIBy_NtNtB7_7convert10InfallibleB1z_EE13from_residualBQ_, symObjAddr: 0x600C, symBinAddr: 0x10005C6BC, symSize: 0x3C }
  - { offset: 0xCB218, size: 0x8, addend: 0x0, symName: __RNvXsp_NtCs9f3LFPSIp77_4core6resultINtB5_6ResultNtNtNtCs41t77sgS83u_2cc8parallel9job_token8JobTokenNtBQ_5ErrorEINtNtNtB7_3ops9try_trait12FromResidualIBy_NtNtB7_7convert10InfallibleNtNtNtCs27l1GJC5rMQ_3std2io5error5ErrorEE13from_residualBQ_, symObjAddr: 0x6048, symBinAddr: 0x10005C6F8, symSize: 0x44 }
  - { offset: 0xCB27F, size: 0x8, addend: 0x0, symName: __RNvXsp_NtCs9f3LFPSIp77_4core6resultINtB5_6ResultNtNtNtNtCs41t77sgS83u_2cc8parallel9job_token19inherited_jobserver12HelperThreadNtBS_5ErrorEINtNtNtB7_3ops9try_trait12FromResidualIBy_NtNtB7_7convert10InfallibleNtNtNtCs27l1GJC5rMQ_3std2io5error5ErrorEE13from_residualBS_, symObjAddr: 0x608C, symBinAddr: 0x10005C73C, symSize: 0x4C }
  - { offset: 0xCB2E6, size: 0x8, addend: 0x0, symName: __RNvXsp_NtCs9f3LFPSIp77_4core6resultINtB5_6ResultQNtCs41t77sgS83u_2cc5BuildNtBN_5ErrorEINtNtNtB7_3ops9try_trait12FromResidualIBy_NtNtB7_7convert10InfallibleB1a_EE13from_residualBN_, symObjAddr: 0x60D8, symBinAddr: 0x10005C788, symSize: 0x3C }
  - { offset: 0xCB36B, size: 0x8, addend: 0x0, symName: __RNvXsp_NtCs9f3LFPSIp77_4core6resultINtB5_6ResultTNtNtCs27l1GJC5rMQ_3std7process7CommandINtNtCsdze8u8oDPro_5alloc6borrow3CowNtNtBP_4path4PathEENtCs41t77sgS83u_2cc5ErrorEINtNtNtB7_3ops9try_trait12FromResidualIBy_NtNtB7_7convert10InfallibleB2g_EE13from_residualB2i_, symObjAddr: 0x6114, symBinAddr: 0x10005C7C4, symSize: 0x48 }
  - { offset: 0xCB3F0, size: 0x8, addend: 0x0, symName: __RNvXsp_NtCs9f3LFPSIp77_4core6resultINtB5_6ResultTNtNtCs27l1GJC5rMQ_3std7process7CommandNtNtBP_4path7PathBufENtCs41t77sgS83u_2cc5ErrorEINtNtNtB7_3ops9try_trait12FromResidualIBy_NtNtB7_7convert10InfallibleB1I_EE13from_residualB1K_, symObjAddr: 0x615C, symBinAddr: 0x10005C80C, symSize: 0x48 }
  - { offset: 0xCB475, size: 0x8, addend: 0x0, symName: __RNvXsp_NtCs9f3LFPSIp77_4core6resultINtB5_6ResultTNtNtCs27l1GJC5rMQ_3std7process7CommandNtNtBP_4path7PathBufbENtCs41t77sgS83u_2cc5ErrorEINtNtNtB7_3ops9try_trait12FromResidualIBy_NtNtB7_7convert10InfallibleB1J_EE13from_residualB1L_, symObjAddr: 0x61A4, symBinAddr: 0x10005C854, symSize: 0x48 }
  - { offset: 0xCB4FA, size: 0x8, addend: 0x0, symName: __RNvXsp_NtCs9f3LFPSIp77_4core6resultINtB5_6ResultTNtNtCs27l1GJC5rMQ_3std7process7CommandReENtCs41t77sgS83u_2cc5ErrorEINtNtNtB7_3ops9try_trait12FromResidualIBy_NtNtB7_7convert10InfallibleB1q_EE13from_residualB1s_, symObjAddr: 0x61EC, symBinAddr: 0x10005C89C, symSize: 0x48 }
  - { offset: 0xCB57F, size: 0x8, addend: 0x0, symName: __RNvXsp_NtCs9f3LFPSIp77_4core6resultINtB5_6ResultbNtCs41t77sgS83u_2cc5ErrorEINtNtNtB7_3ops9try_trait12FromResidualIBy_NtNtB7_7convert10InfallibleBL_EE13from_residualBN_, symObjAddr: 0x6234, symBinAddr: 0x10005C8E4, symSize: 0x3C }
  - { offset: 0xCB604, size: 0x8, addend: 0x0, symName: __RNvXsp_NtCs9f3LFPSIp77_4core6resultINtB5_6ResultbNtCs41t77sgS83u_2cc5ErrorEINtNtNtB7_3ops9try_trait12FromResidualIBy_NtNtB7_7convert10InfallibleNtNtNtCs27l1GJC5rMQ_3std2io5error5ErrorEE13from_residualBN_, symObjAddr: 0x6270, symBinAddr: 0x10005C920, symSize: 0x44 }
  - { offset: 0xCB66B, size: 0x8, addend: 0x0, symName: __RNvXsp_NtCs9f3LFPSIp77_4core6resultINtB5_6ResultuNtCs41t77sgS83u_2cc5ErrorEINtNtNtB7_3ops9try_trait12FromResidualIBy_NtNtB7_7convert10InfallibleBL_EE13from_residualBN_, symObjAddr: 0x62B4, symBinAddr: 0x10005C964, symSize: 0x3C }
  - { offset: 0xCB6F0, size: 0x8, addend: 0x0, symName: __RNvXsp_NtCs9f3LFPSIp77_4core6resultINtB5_6ResultuNtNtB7_3fmt5ErrorEINtNtNtB7_3ops9try_trait12FromResidualIBy_NtNtB7_7convert10InfallibleBL_EE13from_residualCs41t77sgS83u_2cc, symObjAddr: 0x62F0, symBinAddr: 0x10005C9A0, symSize: 0x1C }
  - { offset: 0xCBA39, size: 0x8, addend: 0x0, symName: __RNvXso_NtCs9f3LFPSIp77_4core6resultINtB5_6ResultINtNtB7_6option6OptionINtNtCsdze8u8oDPro_5alloc6borrow3CowNtNtCs27l1GJC5rMQ_3std4path4PathEENtCs41t77sgS83u_2cc5ErrorENtNtNtB7_3ops9try_trait3Try6branchB2g_, symObjAddr: 0x4628, symBinAddr: 0x10005ACD8, symSize: 0x9C }
  - { offset: 0xCBAB6, size: 0x8, addend: 0x0, symName: __RNvXso_NtCs9f3LFPSIp77_4core6resultINtB5_6ResultINtNtCsdze8u8oDPro_5alloc3vec3VecNtCs41t77sgS83u_2cc6ObjectENtB1j_5ErrorENtNtNtB7_3ops9try_trait3Try6branchB1j_, symObjAddr: 0x46C4, symBinAddr: 0x10005AD74, symSize: 0x9C }
  - { offset: 0xCBB33, size: 0x8, addend: 0x0, symName: __RNvXso_NtCs9f3LFPSIp77_4core6resultINtB5_6ResultINtNtCsdze8u8oDPro_5alloc3vec3VecNtNtBP_6string6StringENtCs41t77sgS83u_2cc5ErrorENtNtNtB7_3ops9try_trait3Try6branchB1F_, symObjAddr: 0x4760, symBinAddr: 0x10005AE10, symSize: 0x9C }
  - { offset: 0xCBBB0, size: 0x8, addend: 0x0, symName: __RNvXso_NtCs9f3LFPSIp77_4core6resultINtB5_6ResultINtNtCsdze8u8oDPro_5alloc3vec3VechENtCs41t77sgS83u_2cc5ErrorENtNtNtB7_3ops9try_trait3Try6branchB1l_, symObjAddr: 0x47FC, symBinAddr: 0x10005AEAC, symSize: 0x9C }
  - { offset: 0xCBC2D, size: 0x8, addend: 0x0, symName: __RNvXso_NtCs9f3LFPSIp77_4core6resultINtB5_6ResultINtNtCsdze8u8oDPro_5alloc4sync3ArcNtNtNtCs27l1GJC5rMQ_3std3ffi6os_str5OsStrENtCs41t77sgS83u_2cc5ErrorENtNtNtB7_3ops9try_trait3Try6branchB20_, symObjAddr: 0x4898, symBinAddr: 0x10005AF48, symSize: 0x94 }
  - { offset: 0xCBCAB, size: 0x8, addend: 0x0, symName: __RNvXso_NtCs9f3LFPSIp77_4core6resultINtB5_6ResultINtNtCsdze8u8oDPro_5alloc5boxed3BoxeENtCs41t77sgS83u_2cc5ErrorENtNtNtB7_3ops9try_trait3Try6branchB1n_, symObjAddr: 0x492C, symBinAddr: 0x10005AFDC, symSize: 0x94 }
  - { offset: 0xCBD29, size: 0x8, addend: 0x0, symName: __RNvXso_NtCs9f3LFPSIp77_4core6resultINtB5_6ResultINtNtCsdze8u8oDPro_5alloc6borrow3CowNtNtCs27l1GJC5rMQ_3std4path4PathENtCs41t77sgS83u_2cc5ErrorENtNtNtB7_3ops9try_trait3Try6branchB1T_, symObjAddr: 0x49C0, symBinAddr: 0x10005B070, symSize: 0x9C }
  - { offset: 0xCBDA6, size: 0x8, addend: 0x0, symName: __RNvXso_NtCs9f3LFPSIp77_4core6resultINtB5_6ResultINtNtCsdze8u8oDPro_5alloc6borrow3CoweENtCs41t77sgS83u_2cc5ErrorENtNtNtB7_3ops9try_trait3Try6branchB1o_, symObjAddr: 0x4A5C, symBinAddr: 0x10005B10C, symSize: 0x9C }
  - { offset: 0xCBE23, size: 0x8, addend: 0x0, symName: __RNvXso_NtCs9f3LFPSIp77_4core6resultINtB5_6ResultINtNtNtCsdze8u8oDPro_5alloc3vec13in_place_drop11InPlaceDropNtNtCs27l1GJC5rMQ_3std4path7PathBufEzENtNtNtB7_3ops9try_trait3Try11from_outputCs41t77sgS83u_2cc, symObjAddr: 0x4AF8, symBinAddr: 0x10005B1A8, symSize: 0x2C }
  - { offset: 0xCBE63, size: 0x8, addend: 0x0, symName: __RNvXso_NtCs9f3LFPSIp77_4core6resultINtB5_6ResultINtNtNtCsdze8u8oDPro_5alloc3vec13in_place_drop11InPlaceDropNtNtCs27l1GJC5rMQ_3std4path7PathBufEzENtNtNtB7_3ops9try_trait3Try6branchCs41t77sgS83u_2cc, symObjAddr: 0x4B24, symBinAddr: 0x10005B1D4, symSize: 0x3C }
  - { offset: 0xCBEC1, size: 0x8, addend: 0x0, symName: __RNvXso_NtCs9f3LFPSIp77_4core6resultINtB5_6ResultNtCs22zHMr2Jt3g_9jobserver12HelperThreadNtNtNtCs27l1GJC5rMQ_3std2io5error5ErrorENtNtNtB7_3ops9try_trait3Try6branchCs41t77sgS83u_2cc, symObjAddr: 0x4B60, symBinAddr: 0x10005B210, symSize: 0x8C }
  - { offset: 0xCBF3E, size: 0x8, addend: 0x0, symName: __RNvXso_NtCs9f3LFPSIp77_4core6resultINtB5_6ResultNtCs22zHMr2Jt3g_9jobserver8AcquiredNtNtNtCs27l1GJC5rMQ_3std2io5error5ErrorENtNtNtB7_3ops9try_trait3Try6branchCs41t77sgS83u_2cc, symObjAddr: 0x4BEC, symBinAddr: 0x10005B29C, symSize: 0x70 }
  - { offset: 0xCBFBB, size: 0x8, addend: 0x0, symName: __RNvXso_NtCs9f3LFPSIp77_4core6resultINtB5_6ResultNtNtCs22zHMr2Jt3g_9jobserver3imp6HelperNtNtNtCs27l1GJC5rMQ_3std2io5error5ErrorENtNtNtB7_3ops9try_trait3Try6branchCs41t77sgS83u_2cc, symObjAddr: 0x4C5C, symBinAddr: 0x10005B30C, symSize: 0x7C }
  - { offset: 0xCC038, size: 0x8, addend: 0x0, symName: __RNvXso_NtCs9f3LFPSIp77_4core6resultINtB5_6ResultNtNtCs27l1GJC5rMQ_3std2fs4FileNtNtNtBO_2io5error5ErrorENtNtNtB7_3ops9try_trait3Try6branchCs41t77sgS83u_2cc, symObjAddr: 0x4CD8, symBinAddr: 0x10005B388, symSize: 0x64 }
  - { offset: 0xCC0B4, size: 0x8, addend: 0x0, symName: __RNvXso_NtCs9f3LFPSIp77_4core6resultINtB5_6ResultNtNtCs27l1GJC5rMQ_3std4path7PathBufNtCs41t77sgS83u_2cc5ErrorENtNtNtB7_3ops9try_trait3Try6branchB1l_, symObjAddr: 0x4D3C, symBinAddr: 0x10005B3EC, symSize: 0x9C }
  - { offset: 0xCC131, size: 0x8, addend: 0x0, symName: __RNvXso_NtCs9f3LFPSIp77_4core6resultINtB5_6ResultNtNtCs27l1GJC5rMQ_3std7process5ChildNtCs41t77sgS83u_2cc5ErrorENtNtNtB7_3ops9try_trait3Try6branchB1m_, symObjAddr: 0x4DD8, symBinAddr: 0x10005B488, symSize: 0x9C }
  - { offset: 0xCC1AD, size: 0x8, addend: 0x0, symName: __RNvXso_NtCs9f3LFPSIp77_4core6resultINtB5_6ResultNtNtCs27l1GJC5rMQ_3std7process6OutputNtNtNtBO_2io5error5ErrorENtNtNtB7_3ops9try_trait3Try6branchCs41t77sgS83u_2cc, symObjAddr: 0x4E74, symBinAddr: 0x10005B524, symSize: 0x94 }
  - { offset: 0xCC22A, size: 0x8, addend: 0x0, symName: __RNvXso_NtCs9f3LFPSIp77_4core6resultINtB5_6ResultNtNtCs27l1GJC5rMQ_3std7process7CommandNtCs41t77sgS83u_2cc5ErrorENtNtNtB7_3ops9try_trait3Try6branchB1o_, symObjAddr: 0x4F08, symBinAddr: 0x10005B5B8, symSize: 0xB8 }
  - { offset: 0xCC2A8, size: 0x8, addend: 0x0, symName: __RNvXso_NtCs9f3LFPSIp77_4core6resultINtB5_6ResultNtNtCs41t77sgS83u_2cc4tool10ToolFamilyNtBO_5ErrorENtNtNtB7_3ops9try_trait3Try6branchBO_, symObjAddr: 0x4FC0, symBinAddr: 0x10005B670, symSize: 0x94 }
  - { offset: 0xCC325, size: 0x8, addend: 0x0, symName: __RNvXso_NtCs9f3LFPSIp77_4core6resultINtB5_6ResultNtNtCs41t77sgS83u_2cc4tool4ToolNtBO_5ErrorENtNtNtB7_3ops9try_trait3Try6branchBO_, symObjAddr: 0x5054, symBinAddr: 0x10005B704, symSize: 0xC4 }
  - { offset: 0xCC3A3, size: 0x8, addend: 0x0, symName: __RNvXso_NtCs9f3LFPSIp77_4core6resultINtB5_6ResultNtNtCs41t77sgS83u_2cc5flags17RustcCodegenFlagsNtBO_5ErrorENtNtNtB7_3ops9try_trait3Try6branchBO_, symObjAddr: 0x5118, symBinAddr: 0x10005B7C8, symSize: 0xB8 }
  - { offset: 0xCC420, size: 0x8, addend: 0x0, symName: __RNvXso_NtCs9f3LFPSIp77_4core6resultINtB5_6ResultNtNtCs41t77sgS83u_2cc6target10TargetInfoNtBO_5ErrorENtNtNtB7_3ops9try_trait3Try6branchBO_, symObjAddr: 0x51D0, symBinAddr: 0x10005B880, symSize: 0xA8 }
  - { offset: 0xCC49D, size: 0x8, addend: 0x0, symName: __RNvXso_NtCs9f3LFPSIp77_4core6resultINtB5_6ResultNtNtCs41t77sgS83u_2cc8tempfile13NamedTempfileNtBO_5ErrorENtNtNtB7_3ops9try_trait3Try6branchBO_, symObjAddr: 0x5278, symBinAddr: 0x10005B928, symSize: 0x94 }
  - { offset: 0xCC51A, size: 0x8, addend: 0x0, symName: __RNvXso_NtCs9f3LFPSIp77_4core6resultINtB5_6ResultNtNtCsdze8u8oDPro_5alloc6string6StringNtCs41t77sgS83u_2cc5ErrorENtNtNtB7_3ops9try_trait3Try6branchB1o_, symObjAddr: 0x530C, symBinAddr: 0x10005B9BC, symSize: 0x9C }
  - { offset: 0xCC597, size: 0x8, addend: 0x0, symName: __RNvXso_NtCs9f3LFPSIp77_4core6resultINtB5_6ResultNtNtNtCs41t77sgS83u_2cc8parallel9job_token8JobTokenNtBQ_5ErrorENtNtNtB7_3ops9try_trait3Try6branchBQ_, symObjAddr: 0x53A8, symBinAddr: 0x10005BA58, symSize: 0x78 }
  - { offset: 0xCC614, size: 0x8, addend: 0x0, symName: __RNvXso_NtCs9f3LFPSIp77_4core6resultINtB5_6ResultNtNtNtNtCs41t77sgS83u_2cc8parallel9job_token19inherited_jobserver12HelperThreadNtBS_5ErrorENtNtNtB7_3ops9try_trait3Try6branchBS_, symObjAddr: 0x5420, symBinAddr: 0x10005BAD0, symSize: 0xAC }
  - { offset: 0xCC691, size: 0x8, addend: 0x0, symName: __RNvXso_NtCs9f3LFPSIp77_4core6resultINtB5_6ResultRNtNtCs27l1GJC5rMQ_3std4path4PathNtCs41t77sgS83u_2cc5ErrorENtNtNtB7_3ops9try_trait3Try6branchB1j_, symObjAddr: 0x54CC, symBinAddr: 0x10005BB7C, symSize: 0x94 }
  - { offset: 0xCC70F, size: 0x8, addend: 0x0, symName: __RNvXso_NtCs9f3LFPSIp77_4core6resultINtB5_6ResultRNtNtNtCs27l1GJC5rMQ_3std3ffi6os_str5OsStrNtCs41t77sgS83u_2cc5ErrorENtNtNtB7_3ops9try_trait3Try6branchB1s_, symObjAddr: 0x5560, symBinAddr: 0x10005BC10, symSize: 0x94 }
  - { offset: 0xCC78D, size: 0x8, addend: 0x0, symName: __RNvXso_NtCs9f3LFPSIp77_4core6resultINtB5_6ResultReNtCs41t77sgS83u_2cc5ErrorENtNtNtB7_3ops9try_trait3Try6branchBO_, symObjAddr: 0x55F4, symBinAddr: 0x10005BCA4, symSize: 0x94 }
  - { offset: 0xCC80B, size: 0x8, addend: 0x0, symName: __RNvXso_NtCs9f3LFPSIp77_4core6resultINtB5_6ResultTNtNtCs27l1GJC5rMQ_3std7process7CommandINtNtCsdze8u8oDPro_5alloc6borrow3CowNtNtBP_4path4PathEENtCs41t77sgS83u_2cc5ErrorENtNtNtB7_3ops9try_trait3Try6branchB2i_, symObjAddr: 0x5688, symBinAddr: 0x10005BD38, symSize: 0xC4 }
  - { offset: 0xCC889, size: 0x8, addend: 0x0, symName: __RNvXso_NtCs9f3LFPSIp77_4core6resultINtB5_6ResultTNtNtCs27l1GJC5rMQ_3std7process7CommandNtNtBP_4path7PathBufENtCs41t77sgS83u_2cc5ErrorENtNtNtB7_3ops9try_trait3Try6branchB1K_, symObjAddr: 0x574C, symBinAddr: 0x10005BDFC, symSize: 0xC4 }
  - { offset: 0xCC907, size: 0x8, addend: 0x0, symName: __RNvXso_NtCs9f3LFPSIp77_4core6resultINtB5_6ResultTNtNtCs27l1GJC5rMQ_3std7process7CommandNtNtBP_4path7PathBufbENtCs41t77sgS83u_2cc5ErrorENtNtNtB7_3ops9try_trait3Try6branchB1L_, symObjAddr: 0x5810, symBinAddr: 0x10005BEC0, symSize: 0xB8 }
  - { offset: 0xCC985, size: 0x8, addend: 0x0, symName: __RNvXso_NtCs9f3LFPSIp77_4core6resultINtB5_6ResultTNtNtCs27l1GJC5rMQ_3std7process7CommandReENtCs41t77sgS83u_2cc5ErrorENtNtNtB7_3ops9try_trait3Try6branchB1s_, symObjAddr: 0x58C8, symBinAddr: 0x10005BF78, symSize: 0xB8 }
  - { offset: 0xCCA03, size: 0x8, addend: 0x0, symName: __RNvXso_NtCs9f3LFPSIp77_4core6resultINtB5_6ResultTReBL_ENtCs41t77sgS83u_2cc5ErrorENtNtNtB7_3ops9try_trait3Try6branchBT_, symObjAddr: 0x5980, symBinAddr: 0x10005C030, symSize: 0x94 }
  - { offset: 0xCCA80, size: 0x8, addend: 0x0, symName: __RNvXso_NtCs9f3LFPSIp77_4core6resultINtB5_6ResultbNtCs41t77sgS83u_2cc5ErrorENtNtNtB7_3ops9try_trait3Try6branchBN_, symObjAddr: 0x5A14, symBinAddr: 0x10005C0C4, symSize: 0x94 }
  - { offset: 0xCCAFD, size: 0x8, addend: 0x0, symName: __RNvXso_NtCs9f3LFPSIp77_4core6resultINtB5_6ResultlNtCs41t77sgS83u_2cc5ErrorENtNtNtB7_3ops9try_trait3Try6branchBN_, symObjAddr: 0x5AA8, symBinAddr: 0x10005C158, symSize: 0x88 }
  - { offset: 0xCCB7A, size: 0x8, addend: 0x0, symName: __RNvXso_NtCs9f3LFPSIp77_4core6resultINtB5_6ResultuNtCs41t77sgS83u_2cc5ErrorENtNtNtB7_3ops9try_trait3Try6branchBN_, symObjAddr: 0x5B30, symBinAddr: 0x10005C1E0, symSize: 0x78 }
  - { offset: 0xCCBF7, size: 0x8, addend: 0x0, symName: __RNvXso_NtCs9f3LFPSIp77_4core6resultINtB5_6ResultuNtNtB7_3fmt5ErrorENtNtNtB7_3ops9try_trait3Try6branchCs41t77sgS83u_2cc, symObjAddr: 0x5BA8, symBinAddr: 0x10005C258, symSize: 0x38 }
  - { offset: 0xCCD6A, size: 0x8, addend: 0x0, symName: __RNvXsx_NtCs9f3LFPSIp77_4core6resultINtB5_6ResultNtNtNtCs41t77sgS83u_2cc6target6parser21TargetInfoParserInnerNtBQ_5ErrorENtNtB7_3fmt5Debug3fmtBQ_, symObjAddr: 0x630C, symBinAddr: 0x10005C9BC, symSize: 0xB8 }
  - { offset: 0xCE4A1, size: 0x8, addend: 0x0, symName: __RNvNvMNtNtCs9f3LFPSIp77_4core3ptr9alignmentNtB4_9Alignment13new_unchecked18precondition_checkCs41t77sgS83u_2cc, symObjAddr: 0x2D10, symBinAddr: 0x1000593C0, symSize: 0x50 }
  - { offset: 0xCFE01, size: 0x8, addend: 0x0, symName: __RNvYINtNvNtCs27l1GJC5rMQ_3std9panicking11begin_panic7PayloadReENtNtCs9f3LFPSIp77_4core5panic12PanicPayload6as_strCs41t77sgS83u_2cc, symObjAddr: 0x6754, symBinAddr: 0x10005CE04, symSize: 0x24 }
  - { offset: 0xD0134, size: 0x8, addend: 0x0, symName: __RNCINvNvXs_NtNtNtCs9f3LFPSIp77_4core4iter8adapters9enumerateINtB9_9EnumeratepENtNtNtBd_6traits8iterator8Iterator8try_fold9enumerateRNtNtNtNtCs27l1GJC5rMQ_3std4sync4mpmc5waker5EntryuINtNtNtBf_3ops12control_flow11ControlFlowTjB25_EENCINvNvB1e_4find5checkB3y_NCNvMB28_NtB28_5Waker10unregister0E0E0Cs41t77sgS83u_2cc, symObjAddr: 0x1454, symBinAddr: 0x100057DC0, symSize: 0xB4 }
  - { offset: 0xD01CB, size: 0x8, addend: 0x0, symName: __RNvXs_NtNtNtCs9f3LFPSIp77_4core4iter8adapters9enumerateINtB4_9EnumerateINtNtNtBa_5slice4iter4IterINtNtCsdze8u8oDPro_5alloc4sync3ArcNtNtCs27l1GJC5rMQ_3std4path4PathEEENtNtNtB8_6traits8iterator8Iterator4nextCs41t77sgS83u_2cc, symObjAddr: 0x4074, symBinAddr: 0x10005A724, symSize: 0xE0 }
  - { offset: 0xD02AC, size: 0x8, addend: 0x0, symName: __RNvXs_NtNtNtCs9f3LFPSIp77_4core4iter8adapters9enumerateINtB4_9EnumerateINtNtNtBa_5slice4iter4IterINtNtCsdze8u8oDPro_5alloc4sync3ArcNtNtNtCs27l1GJC5rMQ_3std3ffi6os_str5OsStrEEENtNtNtB8_6traits8iterator8Iterator4nextCs41t77sgS83u_2cc, symObjAddr: 0x4154, symBinAddr: 0x10005A804, symSize: 0xE0 }
  - { offset: 0xD038D, size: 0x8, addend: 0x0, symName: __RNvXs_NtNtNtCs9f3LFPSIp77_4core4iter8adapters9enumerateINtB4_9EnumerateINtNtNtBa_5slice4iter4IterNtNtNtCs27l1GJC5rMQ_3std3ffi6os_str8OsStringEENtNtNtB8_6traits8iterator8Iterator4nextCs41t77sgS83u_2cc, symObjAddr: 0x4234, symBinAddr: 0x10005A8E4, symSize: 0xE0 }
  - { offset: 0xD046E, size: 0x8, addend: 0x0, symName: __RNvXs_NtNtNtCs9f3LFPSIp77_4core4iter8adapters9enumerateINtB4_9EnumerateINtNtNtBa_5slice4iter4IterTINtNtCsdze8u8oDPro_5alloc4sync3ArcNtNtNtCs27l1GJC5rMQ_3std3ffi6os_str5OsStrEB1y_EEENtNtNtB8_6traits8iterator8Iterator4nextCs41t77sgS83u_2cc, symObjAddr: 0x4314, symBinAddr: 0x10005A9C4, symSize: 0xE0 }
  - { offset: 0xD054F, size: 0x8, addend: 0x0, symName: __RNvXs_NtNtNtCs9f3LFPSIp77_4core4iter8adapters9enumerateINtB4_9EnumerateINtNtNtBa_5slice4iter4IterTINtNtCsdze8u8oDPro_5alloc4sync3ArceEINtNtBa_6option6OptionB1y_EEEENtNtNtB8_6traits8iterator8Iterator4nextCs41t77sgS83u_2cc, symObjAddr: 0x43F4, symBinAddr: 0x10005AAA4, symSize: 0xE0 }
  - { offset: 0xD0630, size: 0x8, addend: 0x0, symName: __RNvXs_NtNtNtCs9f3LFPSIp77_4core4iter8adapters9enumerateINtB4_9EnumerateINtNtNtBa_5slice4iter4IterTNtNtNtCs27l1GJC5rMQ_3std3ffi6os_str8OsStringB1y_EEENtNtNtB8_6traits8iterator8Iterator4nextCs41t77sgS83u_2cc, symObjAddr: 0x44D4, symBinAddr: 0x10005AB84, symSize: 0xE0 }
  - { offset: 0xD081A, size: 0x8, addend: 0x0, symName: __RNvXsB_NtNtCs9f3LFPSIp77_4core4iter5rangemNtB5_4Step17forward_uncheckedCs41t77sgS83u_2cc, symObjAddr: 0x394C, symBinAddr: 0x100059FFC, symSize: 0x54 }
  - { offset: 0xD087F, size: 0x8, addend: 0x0, symName: __RNvXsF_NtNtCs9f3LFPSIp77_4core4iter5rangejNtB5_4Step13steps_betweenCs41t77sgS83u_2cc, symObjAddr: 0x39A0, symBinAddr: 0x10005A050, symSize: 0x7C }
  - { offset: 0xD08BC, size: 0x8, addend: 0x0, symName: __RNvXsF_NtNtCs9f3LFPSIp77_4core4iter5rangejNtB5_4Step17forward_uncheckedCs41t77sgS83u_2cc, symObjAddr: 0x3A1C, symBinAddr: 0x10005A0CC, symSize: 0x48 }
  - { offset: 0xD091B, size: 0x8, addend: 0x0, symName: __RNvXsF_NtNtCs9f3LFPSIp77_4core4iter5rangejNtB5_4Step18backward_uncheckedCs41t77sgS83u_2cc, symObjAddr: 0x3A64, symBinAddr: 0x10005A114, symSize: 0x48 }
  - { offset: 0xD098B, size: 0x8, addend: 0x0, symName: __RNvXs_NtNtNtCs9f3LFPSIp77_4core4iter6traits7collectINtNtNtB8_8adapters9enumerate9EnumerateINtNtNtBa_5slice4iter4IterINtNtCsdze8u8oDPro_5alloc4sync3ArcNtNtNtCs27l1GJC5rMQ_3std3ffi6os_str5OsStrEEENtB4_12IntoIterator9into_iterCs41t77sgS83u_2cc, symObjAddr: 0x4044, symBinAddr: 0x10005A6F4, symSize: 0x18 }
  - { offset: 0xD09C2, size: 0x8, addend: 0x0, symName: __RNvXs_NtNtNtCs9f3LFPSIp77_4core4iter6traits7collectINtNtNtB8_8adapters9enumerate9EnumerateINtNtNtBa_5slice4iter4IterNtNtNtCs27l1GJC5rMQ_3std3ffi6os_str8OsStringEENtB4_12IntoIterator9into_iterCs41t77sgS83u_2cc, symObjAddr: 0x405C, symBinAddr: 0x10005A70C, symSize: 0x18 }
  - { offset: 0xD23F0, size: 0x8, addend: 0x0, symName: __RNvNvNtCs9f3LFPSIp77_4core9ub_checks17is_nonoverlapping7runtimeCs41t77sgS83u_2cc, symObjAddr: 0x2D60, symBinAddr: 0x100059410, symSize: 0xE4 }
  - { offset: 0xD3405, size: 0x8, addend: 0x0, symName: __RNvNtCsdze8u8oDPro_5alloc5alloc12alloc_zeroedCs41t77sgS83u_2cc, symObjAddr: 0x2B68, symBinAddr: 0x100059218, symSize: 0x80 }
  - { offset: 0xD34D2, size: 0x8, addend: 0x0, symName: __RNvXs_NtCsdze8u8oDPro_5alloc5allocNtB4_6GlobalNtNtCs9f3LFPSIp77_4core5alloc9Allocator10deallocateCs41t77sgS83u_2cc, symObjAddr: 0x3AAC, symBinAddr: 0x10005A15C, symSize: 0x8C }
  - { offset: 0xD360F, size: 0x8, addend: 0x0, symName: __RNvXs_NtCsdze8u8oDPro_5alloc5allocNtB4_6GlobalNtNtCs9f3LFPSIp77_4core5alloc9Allocator6shrinkCs41t77sgS83u_2cc, symObjAddr: 0x3B38, symBinAddr: 0x10005A1E8, symSize: 0x4D8 }
  - { offset: 0xD3E6B, size: 0x8, addend: 0x0, symName: __RNvXs_NtCsdze8u8oDPro_5alloc5allocNtB4_6GlobalNtNtCs9f3LFPSIp77_4core5alloc9Allocator8allocateCs41t77sgS83u_2cc, symObjAddr: 0x4010, symBinAddr: 0x10005A6C0, symSize: 0x34 }
  - { offset: 0xD3EA6, size: 0x8, addend: 0x0, symName: __RNvNtCsdze8u8oDPro_5alloc5alloc15exchange_mallocCs41t77sgS83u_2cc, symObjAddr: 0x2BE8, symBinAddr: 0x100059298, symSize: 0xA8 }
  - { offset: 0xD3FB5, size: 0x8, addend: 0x0, symName: __RNvNtCsdze8u8oDPro_5alloc5alloc5allocCs41t77sgS83u_2cc, symObjAddr: 0x2C90, symBinAddr: 0x100059340, symSize: 0x80 }
  - { offset: 0xD405A, size: 0x8, addend: 0x0, symName: __RNvXs1_NtCsdze8u8oDPro_5alloc5allocNtB5_6GlobalNtNtCs9f3LFPSIp77_4core5clone5Clone5cloneCs41t77sgS83u_2cc, symObjAddr: 0x2FA8, symBinAddr: 0x100059658, symSize: 0x10 }
  - { offset: 0xD58CA, size: 0x8, addend: 0x0, symName: __RINvMNtCs9f3LFPSIp77_4core6resultINtB3_6ResultINtNtCsdze8u8oDPro_5alloc3vec3VechENtCs41t77sgS83u_2cc5ErrorE3mapbNCNvNvMNtB1j_4toolNtB1T_4Tool13with_features9is_zig_cc0EB1j_, symObjAddr: 0x0, symBinAddr: 0x1000569A8, symSize: 0xA4 }
  - { offset: 0xD596A, size: 0x8, addend: 0x0, symName: __RINvMNtCs9f3LFPSIp77_4core6resultINtB3_6ResultINtNtCsdze8u8oDPro_5alloc5boxed3BoxeENtCs41t77sgS83u_2cc5ErrorE14unwrap_or_elseNCNvMNtNtB1l_6target6parserNtB24_21TargetInfoParserInner32from_cargo_environment_variabless5_0EB1l_, symObjAddr: 0xA4, symBinAddr: 0x100056A4C, symSize: 0x94 }
  - { offset: 0xD5A19, size: 0x8, addend: 0x0, symName: __RINvMNtCs9f3LFPSIp77_4core6resultINtB3_6ResultINtNtNtCs27l1GJC5rMQ_3std4sync5mutex10MutexGuardbEINtNtBN_6poison11PoisonErrorBI_EE14unwrap_or_elseNvMs2_B1z_B1w_10into_innerECs41t77sgS83u_2cc, symObjAddr: 0x138, symBinAddr: 0x100056AE0, symSize: 0x9C }
  - { offset: 0xD5AD9, size: 0x8, addend: 0x0, symName: __RINvMNtCs9f3LFPSIp77_4core6resultINtB3_6ResultNtNtCs27l1GJC5rMQ_3std4path7PathBufNtCs41t77sgS83u_2cc5ErrorE3mapINtNtCsdze8u8oDPro_5alloc6borrow3CowNtBK_4PathENcNtB1L_5Owned0EB1j_, symObjAddr: 0x1D4, symBinAddr: 0x100056B7C, symSize: 0xB4 }
  - { offset: 0xD5BAD, size: 0x8, addend: 0x0, symName: __RINvMNtCs9f3LFPSIp77_4core6resultINtB3_6ResultNtNtCs41t77sgS83u_2cc4tool10ToolFamilyNtBM_5ErrorE14unwrap_or_elseNCNvMBK_NtBK_4Tool13with_featuress_0EBM_, symObjAddr: 0x288, symBinAddr: 0x100056C30, symSize: 0xB0 }
  - { offset: 0xD5C44, size: 0x8, addend: 0x0, symName: __RINvMNtCs9f3LFPSIp77_4core6resultINtB3_6ResultNtNtCs41t77sgS83u_2cc8tempfile13NamedTempfileNtNtNtCs27l1GJC5rMQ_3std2io5error5ErrorE7map_errNtBM_5ErrorNCNvNvMNtBM_4toolNtB2v_4Tool13with_features19detect_family_inners0_0EBM_, symObjAddr: 0x338, symBinAddr: 0x100056CE0, symSize: 0xAC }
  - { offset: 0xD5CEF, size: 0x8, addend: 0x0, symName: __RINvMNtCs9f3LFPSIp77_4core6resultINtB3_6ResultNtNtCsdze8u8oDPro_5alloc6string6StringNtCs41t77sgS83u_2cc5ErrorE3mapINtNtBM_6borrow3CoweENcNtB1O_5Owned0EB1m_, symObjAddr: 0x3E4, symBinAddr: 0x100056D8C, symSize: 0xB4 }
  - { offset: 0xD5D82, size: 0x8, addend: 0x0, symName: __RINvMNtCs9f3LFPSIp77_4core6resultINtB3_6ResultNtNtCsdze8u8oDPro_5alloc6string6StringNtNtCs27l1GJC5rMQ_3std3env8VarErrorE7map_errNtCs41t77sgS83u_2cc5ErrorNCNvMNtNtB24_6target6parserNtB2w_21TargetInfoParserInner32from_cargo_environment_variables0EB24_, symObjAddr: 0x498, symBinAddr: 0x100056E40, symSize: 0xA8 }
  - { offset: 0xD5E4B, size: 0x8, addend: 0x0, symName: __RINvMNtCs9f3LFPSIp77_4core6resultINtB3_6ResultRNtNtNtCs27l1GJC5rMQ_3std3ffi6os_str5OsStrNtCs41t77sgS83u_2cc5ErrorE3mapNtNtBP_4path7PathBufNvYB1S_INtNtB5_7convert4FromBI_E4fromEB1q_, symObjAddr: 0x540, symBinAddr: 0x100056EE8, symSize: 0xA0 }
  - { offset: 0xD5EDE, size: 0x8, addend: 0x0, symName: __RINvMNtCs9f3LFPSIp77_4core6resultINtB3_6ResultuNtNtNtCs27l1GJC5rMQ_3std2io5error5ErrorE7map_errNtCs41t77sgS83u_2cc5ErrorNCNvNvMNtB1x_4toolNtB21_4Tool13with_features19detect_family_inners_0EB1x_, symObjAddr: 0x5E0, symBinAddr: 0x100056F88, symSize: 0x78 }
  - { offset: 0xD5F7C, size: 0x8, addend: 0x0, symName: __RINvMNtCs9f3LFPSIp77_4core6resultINtB3_6ResultuNtNtNtCs27l1GJC5rMQ_3std2io5error5ErrorE7or_elseBJ_NCNvMs3_Cs41t77sgS83u_2ccNtB1G_5Build8assembles_0EB1G_, symObjAddr: 0x658, symBinAddr: 0x100057000, symSize: 0x68 }
  - { offset: 0xD600D, size: 0x8, addend: 0x0, symName: __RINvMNtCs9f3LFPSIp77_4core6resultINtB3_6ResultyNtNtNtCs27l1GJC5rMQ_3std2io5error5ErrorE3mapuNCNCNvMs3_Cs41t77sgS83u_2ccNtB1C_5Build8assembles_00EB1C_, symObjAddr: 0x6C0, symBinAddr: 0x100057068, symSize: 0x54 }
  - { offset: 0xD6100, size: 0x8, addend: 0x0, symName: __RINvMs0_NtNtCs27l1GJC5rMQ_3std4sync4onceNtB6_4Once9call_onceNCINvMs1_NtCs41t77sgS83u_2cc9utilitiesINtB15_8OnceLockINtNtCs9f3LFPSIp77_4core6result6ResultNtNtNtB17_6target6parser21TargetInfoParserInnerNtB17_5ErrorEE11get_or_initNvMB2s_B2q_32from_cargo_environment_variablesE0EB17_, symObjAddr: 0x714, symBinAddr: 0x1000570BC, symSize: 0xFC }
  - { offset: 0xD61C3, size: 0x8, addend: 0x0, symName: __RINvMs0_NtNtCs27l1GJC5rMQ_3std4sync4onceNtB6_4Once9call_onceNCINvMs1_NtCs41t77sgS83u_2cc9utilitiesINtB15_8OnceLockNtNtNtB17_8parallel9job_token14JobTokenServerE11get_or_initNCNvMs0_B1Q_B1O_3new0E0EB17_, symObjAddr: 0x810, symBinAddr: 0x1000571B8, symSize: 0xFC }
  - { offset: 0xD62C2, size: 0x8, addend: 0x0, symName: __RINvMs5_NtNtCs9f3LFPSIp77_4core3fmt8buildersNtB6_9DebugList7entriesRINtNtCsdze8u8oDPro_5alloc4sync3ArcNtNtCs27l1GJC5rMQ_3std4path4PathEINtNtNtBa_5slice4iter4IterB14_EECs41t77sgS83u_2cc, symObjAddr: 0x90C, symBinAddr: 0x1000572B4, symSize: 0xD0 }
  - { offset: 0xD6347, size: 0x8, addend: 0x0, symName: __RINvMs5_NtNtCs9f3LFPSIp77_4core3fmt8buildersNtB6_9DebugList7entriesRINtNtCsdze8u8oDPro_5alloc4sync3ArcNtNtNtCs27l1GJC5rMQ_3std3ffi6os_str5OsStrEINtNtNtBa_5slice4iter4IterB14_EECs41t77sgS83u_2cc, symObjAddr: 0x9DC, symBinAddr: 0x100057384, symSize: 0xD0 }
  - { offset: 0xD63CC, size: 0x8, addend: 0x0, symName: __RINvMs5_NtNtCs9f3LFPSIp77_4core3fmt8buildersNtB6_9DebugList7entriesRNtNtNtCs27l1GJC5rMQ_3std3ffi6os_str8OsStringINtNtNtBa_5slice4iter4IterB14_EECs41t77sgS83u_2cc, symObjAddr: 0xAAC, symBinAddr: 0x100057454, symSize: 0xD0 }
  - { offset: 0xD6451, size: 0x8, addend: 0x0, symName: __RINvMs5_NtNtCs9f3LFPSIp77_4core3fmt8buildersNtB6_9DebugList7entriesRTINtNtCsdze8u8oDPro_5alloc4sync3ArcNtNtNtCs27l1GJC5rMQ_3std3ffi6os_str5OsStrEB15_EINtNtNtBa_5slice4iter4IterB14_EECs41t77sgS83u_2cc, symObjAddr: 0xB7C, symBinAddr: 0x100057524, symSize: 0xD0 }
  - { offset: 0xD64D6, size: 0x8, addend: 0x0, symName: __RINvMs5_NtNtCs9f3LFPSIp77_4core3fmt8buildersNtB6_9DebugList7entriesRTINtNtCsdze8u8oDPro_5alloc4sync3ArceEINtNtBa_6option6OptionB15_EEINtNtNtBa_5slice4iter4IterB14_EECs41t77sgS83u_2cc, symObjAddr: 0xC4C, symBinAddr: 0x1000575F4, symSize: 0xD0 }
  - { offset: 0xD655B, size: 0x8, addend: 0x0, symName: __RINvMs5_NtNtCs9f3LFPSIp77_4core3fmt8buildersNtB6_9DebugList7entriesRTNtNtNtCs27l1GJC5rMQ_3std3ffi6os_str8OsStringB15_EINtNtNtBa_5slice4iter4IterB14_EECs41t77sgS83u_2cc, symObjAddr: 0xD1C, symBinAddr: 0x1000576C4, symSize: 0xD0 }
  - { offset: 0xD6629, size: 0x8, addend: 0x0, symName: __RINvMs6_NtNtCs9f3LFPSIp77_4core3fmt8buildersNtB6_8DebugMap7entriesRINtNtCsdze8u8oDPro_5alloc5boxed3BoxNtNtCs27l1GJC5rMQ_3std4path4PathERNtNtCs41t77sgS83u_2cc4tool10ToolFamilyINtNtNtNtB1G_11collections4hash3map4IterB13_B2a_EEB2e_, symObjAddr: 0xDEC, symBinAddr: 0x100057794, symSize: 0xF8 }
  - { offset: 0xD66E7, size: 0x8, addend: 0x0, symName: __RINvMs6_NtNtCs9f3LFPSIp77_4core3fmt8buildersNtB6_8DebugMap7entriesRINtNtCsdze8u8oDPro_5alloc5boxed3BoxeERINtNtB18_4sync3ArcNtNtNtCs27l1GJC5rMQ_3std3ffi6os_str5OsStrEINtNtNtNtB23_11collections4hash3map4IterB13_B1F_EECs41t77sgS83u_2cc, symObjAddr: 0xEE4, symBinAddr: 0x10005788C, symSize: 0xF8 }
  - { offset: 0xD67A5, size: 0x8, addend: 0x0, symName: __RINvMs6_NtNtCs9f3LFPSIp77_4core3fmt8buildersNtB6_8DebugMap7entriesRINtNtCsdze8u8oDPro_5alloc5boxed3BoxeERINtNtB18_4sync3ArceEINtNtNtNtCs27l1GJC5rMQ_3std11collections4hash3map4IterB13_B1F_EECs41t77sgS83u_2cc, symObjAddr: 0xFDC, symBinAddr: 0x100057984, symSize: 0xF8 }
  - { offset: 0xD6881, size: 0x8, addend: 0x0, symName: __RINvMs6_NtNtCs9f3LFPSIp77_4core3fmt8buildersNtB6_8DebugMap7entriesRINtNtCsdze8u8oDPro_5alloc5boxed3BoxeERINtNtBa_6option6OptionINtNtB18_4sync3ArcNtNtNtCs27l1GJC5rMQ_3std3ffi6os_str5OsStrEEINtNtNtNtB2p_11collections4hash3map4IterB13_B1F_EECs41t77sgS83u_2cc, symObjAddr: 0x10D4, symBinAddr: 0x100057A7C, symSize: 0xF8 }
  - { offset: 0xD695D, size: 0x8, addend: 0x0, symName: __RINvMs6_NtNtCs9f3LFPSIp77_4core3fmt8buildersNtB6_8DebugMap7entriesRNtCs41t77sgS83u_2cc12CompilerFlagRbINtNtNtNtCs27l1GJC5rMQ_3std11collections4hash3map4IterB13_bEEB15_, symObjAddr: 0x11CC, symBinAddr: 0x100057B74, symSize: 0xF8 }
  - { offset: 0xD6B0B, size: 0x8, addend: 0x0, symName: __RNvMNtCs9f3LFPSIp77_4core6resultINtB2_6ResultINtNtCsdze8u8oDPro_5alloc3vec3VechENtCs41t77sgS83u_2cc5ErrorE2okB1i_, symObjAddr: 0x1628, symBinAddr: 0x100057F94, symSize: 0x9C }
  - { offset: 0xD6B5F, size: 0x8, addend: 0x0, symName: __RNvMNtCs9f3LFPSIp77_4core6resultINtB2_6ResultINtNtCsdze8u8oDPro_5alloc4sync3ArcNtNtNtCs27l1GJC5rMQ_3std3ffi6os_str5OsStrENtCs41t77sgS83u_2cc5ErrorE2okB1X_, symObjAddr: 0x16C4, symBinAddr: 0x100058030, symSize: 0x8C }
  - { offset: 0xD6BC0, size: 0x8, addend: 0x0, symName: __RNvMNtCs9f3LFPSIp77_4core6resultINtB2_6ResultINtNtCsdze8u8oDPro_5alloc4sync3ArcNtNtNtCs27l1GJC5rMQ_3std3ffi6os_str5OsStrENtCs41t77sgS83u_2cc5ErrorE5is_okB1X_, symObjAddr: 0x1750, symBinAddr: 0x1000580BC, symSize: 0x48 }
  - { offset: 0xD6BF5, size: 0x8, addend: 0x0, symName: __RNvMNtCs9f3LFPSIp77_4core6resultINtB2_6ResultINtNtCsdze8u8oDPro_5alloc6borrow3CowNtNtCs27l1GJC5rMQ_3std4path4PathENtCs41t77sgS83u_2cc5ErrorE2okB1Q_, symObjAddr: 0x1798, symBinAddr: 0x100058104, symSize: 0x9C }
  - { offset: 0xD6C49, size: 0x8, addend: 0x0, symName: __RNvMNtCs9f3LFPSIp77_4core6resultINtB2_6ResultINtNtNtCs27l1GJC5rMQ_3std4sync6rwlock15RwLockReadGuardINtNtNtNtBO_11collections4hash3map7HashMapINtNtCsdze8u8oDPro_5alloc5boxed3BoxeEINtNtB2k_4sync3ArcNtNtNtBO_3ffi6os_str5OsStrEEEINtNtBM_6poison11PoisonErrorBH_EE6expectCs41t77sgS83u_2cc, symObjAddr: 0x1834, symBinAddr: 0x1000581A0, symSize: 0xB0 }
  - { offset: 0xD6CAC, size: 0x8, addend: 0x0, symName: __RNvMNtCs9f3LFPSIp77_4core6resultINtB2_6ResultINtNtNtCs27l1GJC5rMQ_3std4sync6rwlock15RwLockReadGuardINtNtNtNtBO_11collections4hash3map7HashMapINtNtCsdze8u8oDPro_5alloc5boxed3BoxeEINtNtB2k_4sync3ArceEEEINtNtBM_6poison11PoisonErrorBH_EE6expectCs41t77sgS83u_2cc, symObjAddr: 0x18E4, symBinAddr: 0x100058250, symSize: 0xB0 }
  - { offset: 0xD6D0F, size: 0x8, addend: 0x0, symName: __RNvMNtCs9f3LFPSIp77_4core6resultINtB2_6ResultINtNtNtCs27l1GJC5rMQ_3std4sync6rwlock16RwLockWriteGuardINtNtNtNtBO_11collections4hash3map7HashMapINtNtCsdze8u8oDPro_5alloc5boxed3BoxeEINtNtB2l_4sync3ArcNtNtNtBO_3ffi6os_str5OsStrEEEINtNtBM_6poison11PoisonErrorBH_EE6expectCs41t77sgS83u_2cc, symObjAddr: 0x1994, symBinAddr: 0x100058300, symSize: 0xC0 }
  - { offset: 0xD6D72, size: 0x8, addend: 0x0, symName: __RNvMNtCs9f3LFPSIp77_4core6resultINtB2_6ResultINtNtNtCs27l1GJC5rMQ_3std4sync6rwlock16RwLockWriteGuardINtNtNtNtBO_11collections4hash3map7HashMapINtNtCsdze8u8oDPro_5alloc5boxed3BoxeEINtNtB2l_4sync3ArceEEEINtNtBM_6poison11PoisonErrorBH_EE6expectCs41t77sgS83u_2cc, symObjAddr: 0x1A54, symBinAddr: 0x1000583C0, symSize: 0xC0 }
  - { offset: 0xD6DE2, size: 0x8, addend: 0x0, symName: __RNvMNtCs9f3LFPSIp77_4core6resultINtB2_6ResultNtNtCs27l1GJC5rMQ_3std7process6OutputNtNtNtBL_2io5error5ErrorE5is_okCs41t77sgS83u_2cc, symObjAddr: 0x1B14, symBinAddr: 0x100058480, symSize: 0x4C }
  - { offset: 0xD6E17, size: 0x8, addend: 0x0, symName: __RNvMNtCs9f3LFPSIp77_4core6resultINtB2_6ResultNtNtCs41t77sgS83u_2cc4tool4ToolNtBL_5ErrorE2okBL_, symObjAddr: 0x1B60, symBinAddr: 0x1000584CC, symSize: 0xA8 }
  - { offset: 0xD6E6B, size: 0x8, addend: 0x0, symName: __RNvMNtCs9f3LFPSIp77_4core6resultINtB2_6ResultNtNtCs41t77sgS83u_2cc6target10TargetInfoNtBL_5ErrorE2okBL_, symObjAddr: 0x1C08, symBinAddr: 0x100058574, symSize: 0x9C }
  - { offset: 0xD6EBF, size: 0x8, addend: 0x0, symName: __RNvMNtCs9f3LFPSIp77_4core6resultINtB2_6ResultNtNtCsdze8u8oDPro_5alloc6string6StringNtCs41t77sgS83u_2cc5ErrorE2okB1l_, symObjAddr: 0x1CA4, symBinAddr: 0x100058610, symSize: 0x9C }
  - { offset: 0xD6F13, size: 0x8, addend: 0x0, symName: __RNvMNtCs9f3LFPSIp77_4core6resultINtB2_6ResultNtNtNtCs27l1GJC5rMQ_3std4hash6random11RandomStateNtNtNtBN_6thread5local11AccessErrorE6expectCs41t77sgS83u_2cc, symObjAddr: 0x1D40, symBinAddr: 0x1000586AC, symSize: 0x8C }
  - { offset: 0xD6F75, size: 0x8, addend: 0x0, symName: __RNvMNtCs9f3LFPSIp77_4core6resultINtB2_6ResultReNtNtNtB4_3str5error9Utf8ErrorE2okCs41t77sgS83u_2cc, symObjAddr: 0x1DCC, symBinAddr: 0x100058738, symSize: 0x60 }
  - { offset: 0xD6FC9, size: 0x8, addend: 0x0, symName: __RNvMNtCs9f3LFPSIp77_4core6resultINtB2_6ResultbNtCs41t77sgS83u_2cc5ErrorE17unwrap_or_defaultBK_, symObjAddr: 0x1E2C, symBinAddr: 0x100058798, symSize: 0x90 }
  - { offset: 0xD7031, size: 0x8, addend: 0x0, symName: __RNvMNtCs9f3LFPSIp77_4core6resultINtB2_6ResultbNtCs41t77sgS83u_2cc5ErrorE9unwrap_orBK_, symObjAddr: 0x1EBC, symBinAddr: 0x100058828, symSize: 0x98 }
  - { offset: 0xD7093, size: 0x8, addend: 0x0, symName: __RNvMNtCs9f3LFPSIp77_4core6resultINtB2_6ResultjNtNtNtCs27l1GJC5rMQ_3std6thread5local11AccessErrorE6expectCs41t77sgS83u_2cc, symObjAddr: 0x1F54, symBinAddr: 0x1000588C0, symSize: 0x84 }
  - { offset: 0xD70F4, size: 0x8, addend: 0x0, symName: __RNvMNtCs9f3LFPSIp77_4core6resultINtB2_6ResultmNtNtNtB4_3num5error13ParseIntErrorE6expectCs41t77sgS83u_2cc, symObjAddr: 0x1FD8, symBinAddr: 0x100058944, symSize: 0x90 }
  - { offset: 0xD7162, size: 0x8, addend: 0x0, symName: __RNvMNtCs9f3LFPSIp77_4core6resultINtB2_6ResultmmE5is_okCs41t77sgS83u_2cc, symObjAddr: 0x2068, symBinAddr: 0x1000589D4, symSize: 0x3C }
  - { offset: 0xD71A4, size: 0x8, addend: 0x0, symName: __RNvMNtCs9f3LFPSIp77_4core6resultINtB2_6ResultuNtCs41t77sgS83u_2cc5ErrorE5is_okBK_, symObjAddr: 0x20A4, symBinAddr: 0x100058A10, symSize: 0x48 }
  - { offset: 0xD71D9, size: 0x8, addend: 0x0, symName: __RNvMNtCs9f3LFPSIp77_4core6resultINtB2_6ResultuNtNtB4_3fmt5ErrorE6expectCs41t77sgS83u_2cc, symObjAddr: 0x20EC, symBinAddr: 0x100058A58, symSize: 0x78 }
  - { offset: 0xD723A, size: 0x8, addend: 0x0, symName: __RNvMNtCs9f3LFPSIp77_4core6resultINtB2_6ResultuNtNtNtCs27l1GJC5rMQ_3std2io5error5ErrorE2okCs41t77sgS83u_2cc, symObjAddr: 0x2164, symBinAddr: 0x100058AD0, symSize: 0x6C }
  - { offset: 0xD73FB, size: 0x8, addend: 0x0, symName: __RNvMNtCsdze8u8oDPro_5alloc5allocNtB2_6Global10alloc_implCs41t77sgS83u_2cc, symObjAddr: 0x21D0, symBinAddr: 0x100058B3C, symSize: 0x1BC }
  - { offset: 0xD781C, size: 0x8, addend: 0x0, symName: __RNvMNtNtNtCs27l1GJC5rMQ_3std2io8buffered9bufwriterINtB2_9BufWriterNtNtB6_5stdio6StdoutE13with_capacityCs41t77sgS83u_2cc, symObjAddr: 0x238C, symBinAddr: 0x100058CF8, symSize: 0x90 }
  - { offset: 0xD78E8, size: 0x8, addend: 0x0, symName: __RNvMs0_NtNtCs27l1GJC5rMQ_3std4sync4onceNtB5_4Once12is_completedCs41t77sgS83u_2cc, symObjAddr: 0x241C, symBinAddr: 0x100058D88, symSize: 0x54 }
  - { offset: 0xD797E, size: 0x8, addend: 0x0, symName: __RNvMs0_NtNtCs27l1GJC5rMQ_3std4sync4onceNtB5_4Once3newCs41t77sgS83u_2cc, symObjAddr: 0x2470, symBinAddr: 0x100058DDC, symSize: 0x30 }
  - { offset: 0xD7B10, size: 0x8, addend: 0x0, symName: __RNvMs_NtNtNtCs27l1GJC5rMQ_3std2io8buffered9bufwriterINtB4_9BufWriterNtNtB8_5stdio6StdoutE10write_coldCs41t77sgS83u_2cc, symObjAddr: 0x24A0, symBinAddr: 0x10016C038, symSize: 0x16C }
  - { offset: 0xD7DA8, size: 0x8, addend: 0x0, symName: __RNvMs_NtNtNtCs27l1GJC5rMQ_3std2io8buffered9bufwriterINtB4_9BufWriterNtNtB8_5stdio6StdoutE14write_all_coldCs41t77sgS83u_2cc, symObjAddr: 0x260C, symBinAddr: 0x10016C1A4, symSize: 0x150 }
  - { offset: 0xD8165, size: 0x8, addend: 0x0, symName: __RNvMs_NtNtNtCs27l1GJC5rMQ_3std2io8buffered9bufwriterINtB4_9BufWriterNtNtB8_5stdio6StdoutE25write_to_buffer_uncheckedCs41t77sgS83u_2cc, symObjAddr: 0x275C, symBinAddr: 0x100058E0C, symSize: 0xF8 }
  - { offset: 0xD854B, size: 0x8, addend: 0x0, symName: __RNvMs_NtNtNtCs27l1GJC5rMQ_3std2io8buffered9bufwriterINtB4_9BufWriterNtNtB8_5stdio6StdoutE9flush_bufCs41t77sgS83u_2cc, symObjAddr: 0x2854, symBinAddr: 0x100058F04, symSize: 0x314 }
  - { offset: 0xD967A, size: 0x8, addend: 0x0, symName: __RINvNtCs9f3LFPSIp77_4core9panicking13assert_failedINtNtB4_6option6OptionReEBM_ECs41t77sgS83u_2cc, symObjAddr: 0x0, symBinAddr: 0x10016C2F4, symSize: 0x3C }
  - { offset: 0xDA368, size: 0x8, addend: 0x0, symName: __RINvNtCs9f3LFPSIp77_4core9panicking13assert_failedINtNtB4_6option6OptionReEBM_ECs41t77sgS83u_2cc, symObjAddr: 0x0, symBinAddr: 0x10016C2F4, symSize: 0x3C }
  - { offset: 0xDA3D1, size: 0x8, addend: 0x0, symName: __RINvNtCs9f3LFPSIp77_4core9panicking13assert_failedINtNtB4_6option6OptionjEBM_ECs41t77sgS83u_2cc, symObjAddr: 0x3C, symBinAddr: 0x10016C330, symSize: 0x3C }
  - { offset: 0xDA43A, size: 0x8, addend: 0x0, symName: __RINvNtCs9f3LFPSIp77_4core9panicking13assert_failedReBM_ECs41t77sgS83u_2cc, symObjAddr: 0x78, symBinAddr: 0x10016C36C, symSize: 0x3C }
  - { offset: 0xDB811, size: 0x8, addend: 0x0, symName: __RNvNvMNtNtCs9f3LFPSIp77_4core3ptr9const_ptrPp7sub_ptr18precondition_checkCs41t77sgS83u_2cc, symObjAddr: 0x2D70, symBinAddr: 0x10005FAE4, symSize: 0x40 }
  - { offset: 0xDC426, size: 0x8, addend: 0x0, symName: __RINvYINtNtNtCs9f3LFPSIp77_4core5array4iter8IntoIterNtNtNtCs27l1GJC5rMQ_3std3ffi6os_str8OsStringKj6_ENtNtNtNtBa_4iter6traits8iterator8Iterator8for_eachNCINvMsi_NtCsdze8u8oDPro_5alloc3vecINtB2x_3VecBN_E14extend_trustedB3_E0ECs41t77sgS83u_2cc, symObjAddr: 0x530, symBinAddr: 0x10005D2A4, symSize: 0x34 }
  - { offset: 0xDC492, size: 0x8, addend: 0x0, symName: __RINvYINtNtNtCsdze8u8oDPro_5alloc3vec9into_iter8IntoIterNtCs41t77sgS83u_2cc6ObjectENtNtNtNtCs9f3LFPSIp77_4core4iter6traits8iterator8Iterator3mapNtNtCs27l1GJC5rMQ_3std4path7PathBufNCNvMs3_BT_NtBT_5Build25try_compile_intermediates0EBT_, symObjAddr: 0x564, symBinAddr: 0x10005D2D8, symSize: 0x1C }
  - { offset: 0xDC510, size: 0x8, addend: 0x0, symName: __RINvYINtNtNtCsdze8u8oDPro_5alloc3vec9into_iter8IntoIterNtNtBa_6string6StringENtNtNtNtCs9f3LFPSIp77_4core4iter6traits8iterator8Iterator3mapINtNtBa_4sync3ArcNtNtNtCs27l1GJC5rMQ_3std3ffi6os_str5OsStrENCNvMs3_Cs41t77sgS83u_2ccNtB3h_5Build26try_flags_from_environment0EB3h_, symObjAddr: 0x580, symBinAddr: 0x10005D2F4, symSize: 0x1C }
  - { offset: 0xDC628, size: 0x8, addend: 0x0, symName: __RNvYINtNtNtCsdze8u8oDPro_5alloc3vec9into_iter8IntoIterNtCs41t77sgS83u_2cc6ObjectENtNtNtNtCs9f3LFPSIp77_4core4iter6traits10exact_size17ExactSizeIterator3lenBS_, symObjAddr: 0x3E88, symBinAddr: 0x100060BFC, symSize: 0xC4 }
  - { offset: 0xDC71A, size: 0x8, addend: 0x0, symName: __RNvYINtNtNtCsdze8u8oDPro_5alloc3vec9into_iter8IntoIterNtNtB9_6string6StringENtNtNtNtCs9f3LFPSIp77_4core4iter6traits10exact_size17ExactSizeIterator3lenCs41t77sgS83u_2cc, symObjAddr: 0x3F4C, symBinAddr: 0x100060CC0, symSize: 0xC4 }
  - { offset: 0xDC90D, size: 0x8, addend: 0x0, symName: __RNcNtINtNtNtCs9f3LFPSIp77_4core3ops12control_flow11ControlFlowuNtNtBa_3cmp8OrderingE5Break0Cs41t77sgS83u_2cc, symObjAddr: 0x754, symBinAddr: 0x10005D4C8, symSize: 0x18 }
  - { offset: 0xDC9CE, size: 0x8, addend: 0x0, symName: __RNvXNtNtCs9f3LFPSIp77_4core3ops12control_flowINtB2_11ControlFlowIBI_uNtNtB6_3cmp8OrderingEENtNtB4_9try_trait3Try11from_outputCs41t77sgS83u_2cc, symObjAddr: 0x2DB0, symBinAddr: 0x10005FB24, symSize: 0x18 }
  - { offset: 0xDCA0C, size: 0x8, addend: 0x0, symName: __RNvXNtNtCs9f3LFPSIp77_4core3ops12control_flowINtB2_11ControlFlowIBI_uNtNtB6_3cmp8OrderingEENtNtB4_9try_trait3Try6branchCs41t77sgS83u_2cc, symObjAddr: 0x2DC8, symBinAddr: 0x10005FB3C, symSize: 0x4C }
  - { offset: 0xDCA82, size: 0x8, addend: 0x0, symName: __RNvXNtNtCs9f3LFPSIp77_4core3ops12control_flowINtB2_11ControlFlowNtCs41t77sgS83u_2cc10AsmFileExtENtNtB4_9try_trait3Try11from_outputB12_, symObjAddr: 0x2E14, symBinAddr: 0x10005FB88, symSize: 0x18 }
  - { offset: 0xDCAC0, size: 0x8, addend: 0x0, symName: __RNvXNtNtCs9f3LFPSIp77_4core3ops12control_flowINtB2_11ControlFlowNtCs41t77sgS83u_2cc10AsmFileExtENtNtB4_9try_trait3Try6branchB12_, symObjAddr: 0x2E2C, symBinAddr: 0x10005FBA0, symSize: 0x5C }
  - { offset: 0xDCB36, size: 0x8, addend: 0x0, symName: __RNvXNtNtCs9f3LFPSIp77_4core3ops12control_flowINtB2_11ControlFlowNtNtCs27l1GJC5rMQ_3std4path7PathBufENtNtB4_9try_trait3Try11from_outputCs41t77sgS83u_2cc, symObjAddr: 0x2E88, symBinAddr: 0x10005FBFC, symSize: 0x18 }
  - { offset: 0xDCB74, size: 0x8, addend: 0x0, symName: __RNvXNtNtCs9f3LFPSIp77_4core3ops12control_flowINtB2_11ControlFlowNtNtCs27l1GJC5rMQ_3std4path7PathBufENtNtB4_9try_trait3Try6branchCs41t77sgS83u_2cc, symObjAddr: 0x2EA0, symBinAddr: 0x10005FC14, symSize: 0x78 }
  - { offset: 0xDCBED, size: 0x8, addend: 0x0, symName: __RNvXNtNtCs9f3LFPSIp77_4core3ops12control_flowINtB2_11ControlFlowRReENtNtB4_9try_trait3Try11from_outputCs41t77sgS83u_2cc, symObjAddr: 0x2F18, symBinAddr: 0x10005FC8C, symSize: 0x14 }
  - { offset: 0xDCC2B, size: 0x8, addend: 0x0, symName: __RNvXNtNtCs9f3LFPSIp77_4core3ops12control_flowINtB2_11ControlFlowRReENtNtB4_9try_trait3Try6branchCs41t77sgS83u_2cc, symObjAddr: 0x2F2C, symBinAddr: 0x10005FCA0, symSize: 0x48 }
  - { offset: 0xDCCA2, size: 0x8, addend: 0x0, symName: __RNvXNtNtCs9f3LFPSIp77_4core3ops12control_flowINtB2_11ControlFlowRShENtNtB4_9try_trait3Try11from_outputCs41t77sgS83u_2cc, symObjAddr: 0x2F74, symBinAddr: 0x10005FCE8, symSize: 0x18 }
  - { offset: 0xDCCE0, size: 0x8, addend: 0x0, symName: __RNvXNtNtCs9f3LFPSIp77_4core3ops12control_flowINtB2_11ControlFlowRShENtNtB4_9try_trait3Try6branchCs41t77sgS83u_2cc, symObjAddr: 0x2F8C, symBinAddr: 0x10005FD00, symSize: 0x64 }
  - { offset: 0xDCD58, size: 0x8, addend: 0x0, symName: __RNvXNtNtCs9f3LFPSIp77_4core3ops12control_flowINtB2_11ControlFlowReENtNtB4_9try_trait3Try11from_outputCs41t77sgS83u_2cc, symObjAddr: 0x2FF0, symBinAddr: 0x10005FD64, symSize: 0x18 }
  - { offset: 0xDCD96, size: 0x8, addend: 0x0, symName: __RNvXNtNtCs9f3LFPSIp77_4core3ops12control_flowINtB2_11ControlFlowReENtNtB4_9try_trait3Try6branchCs41t77sgS83u_2cc, symObjAddr: 0x3008, symBinAddr: 0x10005FD7C, symSize: 0x64 }
  - { offset: 0xDCE0E, size: 0x8, addend: 0x0, symName: __RNvXNtNtCs9f3LFPSIp77_4core3ops12control_flowINtB2_11ControlFlowTjRNtNtNtNtCs27l1GJC5rMQ_3std4sync4mpmc5waker5EntryEENtNtB4_9try_trait3Try11from_outputCs41t77sgS83u_2cc, symObjAddr: 0x306C, symBinAddr: 0x10005FDE0, symSize: 0x18 }
  - { offset: 0xDCE4C, size: 0x8, addend: 0x0, symName: __RNvXNtNtCs9f3LFPSIp77_4core3ops12control_flowINtB2_11ControlFlowTjRNtNtNtNtCs27l1GJC5rMQ_3std4sync4mpmc5waker5EntryEENtNtB4_9try_trait3Try6branchCs41t77sgS83u_2cc, symObjAddr: 0x3084, symBinAddr: 0x10005FDF8, symSize: 0x64 }
  - { offset: 0xDCECA, size: 0x8, addend: 0x0, symName: __RNvXs_NtNtCs9f3LFPSIp77_4core3ops12control_flowINtB4_11ControlFlowIBK_uNtNtB8_3cmp8OrderingEEINtNtB6_9try_trait12FromResidualIBK_B12_NtNtB8_7convert10InfallibleEE13from_residualCs41t77sgS83u_2cc, symObjAddr: 0x3B24, symBinAddr: 0x100060898, symSize: 0x20 }
  - { offset: 0xDCF24, size: 0x8, addend: 0x0, symName: __RNvXs_NtNtCs9f3LFPSIp77_4core3ops12control_flowINtB4_11ControlFlowNtCs41t77sgS83u_2cc10AsmFileExtEINtNtB6_9try_trait12FromResidualIBK_B12_NtNtB8_7convert10InfallibleEE13from_residualB14_, symObjAddr: 0x3B44, symBinAddr: 0x1000608B8, symSize: 0x2C }
  - { offset: 0xDCF7E, size: 0x8, addend: 0x0, symName: __RNvXs_NtNtCs9f3LFPSIp77_4core3ops12control_flowINtB4_11ControlFlowNtNtCs27l1GJC5rMQ_3std4path7PathBufEINtNtB6_9try_trait12FromResidualIBK_B12_NtNtB8_7convert10InfallibleEE13from_residualCs41t77sgS83u_2cc, symObjAddr: 0x3B70, symBinAddr: 0x1000608E4, symSize: 0x30 }
  - { offset: 0xDCFD9, size: 0x8, addend: 0x0, symName: __RNvXs_NtNtCs9f3LFPSIp77_4core3ops12control_flowINtB4_11ControlFlowRReEINtNtB6_9try_trait12FromResidualIBK_B12_NtNtB8_7convert10InfallibleEE13from_residualCs41t77sgS83u_2cc, symObjAddr: 0x3BA0, symBinAddr: 0x100060914, symSize: 0x20 }
  - { offset: 0xDD034, size: 0x8, addend: 0x0, symName: __RNvXs_NtNtCs9f3LFPSIp77_4core3ops12control_flowINtB4_11ControlFlowRShEINtNtB6_9try_trait12FromResidualIBK_B12_NtNtB8_7convert10InfallibleEE13from_residualCs41t77sgS83u_2cc, symObjAddr: 0x3BC0, symBinAddr: 0x100060934, symSize: 0x34 }
  - { offset: 0xDD08F, size: 0x8, addend: 0x0, symName: __RNvXs_NtNtCs9f3LFPSIp77_4core3ops12control_flowINtB4_11ControlFlowReEINtNtB6_9try_trait12FromResidualIBK_B12_NtNtB8_7convert10InfallibleEE13from_residualCs41t77sgS83u_2cc, symObjAddr: 0x3BF4, symBinAddr: 0x100060968, symSize: 0x34 }
  - { offset: 0xDD0EA, size: 0x8, addend: 0x0, symName: __RNvXs_NtNtCs9f3LFPSIp77_4core3ops12control_flowINtB4_11ControlFlowTjRNtNtNtNtCs27l1GJC5rMQ_3std4sync4mpmc5waker5EntryEEINtNtB6_9try_trait12FromResidualIBK_B12_NtNtB8_7convert10InfallibleEE13from_residualCs41t77sgS83u_2cc, symObjAddr: 0x3C28, symBinAddr: 0x10006099C, symSize: 0x34 }
  - { offset: 0xDDC6C, size: 0x8, addend: 0x0, symName: __RNCINvXs0_NtNtCs9f3LFPSIp77_4core5array4iterINtB8_8IntoIterNtNtNtCs27l1GJC5rMQ_3std3ffi6os_str8OsStringKj6_ENtNtNtNtBc_4iter6traits8iterator8Iterator4folduNCINvNvB1I_8for_each4callBV_NCINvMsi_NtCsdze8u8oDPro_5alloc3vecINtB34_3VecBV_E14extend_trustedBG_E0E0E0Cs41t77sgS83u_2cc, symObjAddr: 0x59C, symBinAddr: 0x10005D310, symSize: 0xB0 }
  - { offset: 0xDDDE6, size: 0x8, addend: 0x0, symName: __RNCINvXs0_NtNtCs9f3LFPSIp77_4core5array4iterINtB8_8IntoIterbKj20_ENtNtNtNtBc_4iter6traits8iterator8Iterator4foldhNCINvNtNtB18_8adapters3map8map_foldbhhNCNvXNtNtBc_3str4iterNtB2u_5CharsB12_10advance_by0NCINvXsq_NtB16_5accumhNtB3m_3Sum3sumINtB1S_3MapBG_B2p_EE0E0E0Cs41t77sgS83u_2cc, symObjAddr: 0x64C, symBinAddr: 0x10005D3C0, symSize: 0x98 }
  - { offset: 0xDDF63, size: 0x8, addend: 0x0, symName: __RINvXs0_NtNtCs9f3LFPSIp77_4core5array4iterINtB6_8IntoIterNtNtNtCs27l1GJC5rMQ_3std3ffi6os_str8OsStringKj6_ENtNtNtNtBa_4iter6traits8iterator8Iterator4folduNCINvNvB1G_8for_each4callBT_NCINvMsi_NtCsdze8u8oDPro_5alloc3vecINtB32_3VecBT_E14extend_trustedBE_E0E0ECs41t77sgS83u_2cc, symObjAddr: 0xB4, symBinAddr: 0x10005CE28, symSize: 0xA0 }
  - { offset: 0xDE014, size: 0x8, addend: 0x0, symName: __RINvXs0_NtNtCs9f3LFPSIp77_4core5array4iterINtB6_8IntoIterbKj20_ENtNtNtNtBa_4iter6traits8iterator8Iterator4foldhNCINvNtNtB16_8adapters3map8map_foldbhhNCNvXNtNtBa_3str4iterNtB2s_5CharsB10_10advance_by0NCINvXsq_NtB14_5accumhNtB3k_3Sum3sumINtB1Q_3MapBE_B2n_EE0E0ECs41t77sgS83u_2cc, symObjAddr: 0x154, symBinAddr: 0x10005CEC8, symSize: 0x90 }
  - { offset: 0xDE0C8, size: 0x8, addend: 0x0, symName: __RNvXs0_NtNtCs9f3LFPSIp77_4core5array4iterINtB5_8IntoIterNtNtNtCs27l1GJC5rMQ_3std3ffi6os_str8OsStringKj6_ENtNtNtNtB9_4iter6traits8iterator8Iterator9size_hintCs41t77sgS83u_2cc, symObjAddr: 0x323C, symBinAddr: 0x10005FFB0, symSize: 0x8C }
  - { offset: 0xDE1F5, size: 0x8, addend: 0x0, symName: __RNvXs2_NtNtCs9f3LFPSIp77_4core5array4iterINtB5_8IntoIterNtNtNtCs27l1GJC5rMQ_3std3ffi6os_str8OsStringKj6_ENtNtNtB9_3ops4drop4Drop4dropCs41t77sgS83u_2cc, symObjAddr: 0x35CC, symBinAddr: 0x100060340, symSize: 0x64 }
  - { offset: 0xDE288, size: 0x8, addend: 0x0, symName: __RNvXs2_NtNtCs9f3LFPSIp77_4core5array4iterINtB5_8IntoIterbKj20_ENtNtNtB9_3ops4drop4Drop4dropCs41t77sgS83u_2cc, symObjAddr: 0x3630, symBinAddr: 0x1000603A4, symSize: 0x5C }
  - { offset: 0xDF387, size: 0x8, addend: 0x0, symName: __RNCNvXsd_NtNtCs9f3LFPSIp77_4core5slice3cmpNtNtNtCs27l1GJC5rMQ_3std3ffi6os_str8OsStringNtB7_13SliceContains14slice_contains0Cs41t77sgS83u_2cc, symObjAddr: 0x6E4, symBinAddr: 0x10005D458, symSize: 0x38 }
  - { offset: 0xDF3CD, size: 0x8, addend: 0x0, symName: __RNCNvXsd_NtNtCs9f3LFPSIp77_4core5slice3cmpReNtB7_13SliceContains14slice_contains0Cs41t77sgS83u_2cc, symObjAddr: 0x71C, symBinAddr: 0x10005D490, symSize: 0x38 }
  - { offset: 0xDF414, size: 0x8, addend: 0x0, symName: __RNvXsd_NtNtCs9f3LFPSIp77_4core5slice3cmpReNtB5_13SliceContains14slice_containsCs41t77sgS83u_2cc, symObjAddr: 0x3C5C, symBinAddr: 0x1000609D0, symSize: 0x78 }
  - { offset: 0xE059B, size: 0x8, addend: 0x0, symName: __RNvXsn_NtNtNtCs9f3LFPSIp77_4core7convert3num18ptr_try_from_implsjINtB9_7TryFromlE8try_fromCs41t77sgS83u_2cc, symObjAddr: 0x3E2C, symBinAddr: 0x100060BA0, symSize: 0x5C }
  - { offset: 0xE061C, size: 0x8, addend: 0x0, symName: __RNvXNtNtCs9f3LFPSIp77_4core6future11into_futureNCNvMNtNtNtCs41t77sgS83u_2cc8parallel9job_token19inprocess_jobserverNtBO_9JobServer7acquire0NtB2_10IntoFuture11into_futureBU_, symObjAddr: 0x30E8, symBinAddr: 0x10005FE5C, symSize: 0x14 }
  - { offset: 0xE0651, size: 0x8, addend: 0x0, symName: __RNvXNtNtCs9f3LFPSIp77_4core6future11into_futureNCNvMs0_NtNtNtCs41t77sgS83u_2cc8parallel9job_token19inherited_jobserverNtBR_15ActiveJobServer7acquire0NtB2_10IntoFuture11into_futureBX_, symObjAddr: 0x30FC, symBinAddr: 0x10005FE70, symSize: 0x30 }
  - { offset: 0xE12A2, size: 0x8, addend: 0x0, symName: __RNvXs2_NtNtNtCs27l1GJC5rMQ_3std4sync4mpmc4listINtB5_7ChannelINtNtCs9f3LFPSIp77_4core6result6ResultNtCs22zHMr2Jt3g_9jobserver8AcquiredNtNtNtBb_2io5error5ErrorEENtNtNtB11_3ops4drop4Drop4dropCs41t77sgS83u_2cc, symObjAddr: 0x368C, symBinAddr: 0x100060400, symSize: 0x244 }
  - { offset: 0xE2319, size: 0x8, addend: 0x0, symName: __RNCNvMNtNtNtCs41t77sgS83u_2cc8parallel9job_token19inherited_jobserverNtB4_9JobServer8from_env0Ba_, symObjAddr: 0x4048, symBinAddr: 0x100060DBC, symSize: 0x88 }
  - { offset: 0xE23CE, size: 0x8, addend: 0x0, symName: __RNCNvMs_NtNtNtCs41t77sgS83u_2cc8parallel9job_token19inherited_jobserverNtB6_12HelperThread3new0Bc_, symObjAddr: 0x4464, symBinAddr: 0x1000611D8, symSize: 0x44 }
  - { offset: 0xE2575, size: 0x8, addend: 0x0, symName: __RNCNvMs0_NtNtNtCs41t77sgS83u_2cc8parallel9job_token19inherited_jobserverNtB7_15ActiveJobServer7acquire0Bd_, symObjAddr: 0x44D4, symBinAddr: 0x100061248, symSize: 0x984 }
  - { offset: 0xE287D, size: 0x8, addend: 0x0, symName: __RNCNvMNtNtNtCs41t77sgS83u_2cc8parallel9job_token19inprocess_jobserverNtB4_9JobServer7acquire0Ba_, symObjAddr: 0x5048, symBinAddr: 0x100061DBC, symSize: 0x238 }
  - { offset: 0xE2932, size: 0x8, addend: 0x0, symName: __RNCNCNvMNtNtNtCs41t77sgS83u_2cc8parallel9job_token19inprocess_jobserverNtB6_9JobServer7acquire00Bc_, symObjAddr: 0x5280, symBinAddr: 0x100061FF4, symSize: 0x40 }
  - { offset: 0xE2A78, size: 0x8, addend: 0x0, symName: __RINvXs3_NtNtCsdze8u8oDPro_5alloc3vec9into_iterINtB6_8IntoIterNtCs41t77sgS83u_2cc6ObjectENtNtNtNtCs9f3LFPSIp77_4core4iter6traits8iterator8Iterator8try_foldINtNtB8_13in_place_drop11InPlaceDropNtNtCs27l1GJC5rMQ_3std4path7PathBufENCINvNtNtB1u_8adapters3map12map_try_foldBX_B32_B2s_INtNtB1w_6result6ResultB2s_zENCNvMs3_BZ_NtBZ_5Build25try_compile_intermediates0NCINvNtB8_16in_place_collect24write_in_place_with_dropB32_E0E0B4r_EBZ_, symObjAddr: 0x1E4, symBinAddr: 0x10005CF58, symSize: 0x200 }
  - { offset: 0xE2C94, size: 0x8, addend: 0x0, symName: __RINvXs3_NtNtCsdze8u8oDPro_5alloc3vec9into_iterINtB6_8IntoIterNtNtBa_6string6StringENtNtNtNtCs9f3LFPSIp77_4core4iter6traits8iterator8Iterator4folduNCINvNtNtB1p_8adapters3map8map_foldBX_INtNtBa_4sync3ArcNtNtNtCs27l1GJC5rMQ_3std3ffi6os_str5OsStrEuNCNvMs3_Cs41t77sgS83u_2ccNtB42_5Build26try_flags_from_environment0NCINvNvB1j_8for_each4callB2W_NCINvMsi_B8_INtB8_3VecB2W_E14extend_trustedINtB2p_3MapBI_B3U_EE0E0E0EB42_, symObjAddr: 0x3E4, symBinAddr: 0x10005D158, symSize: 0x14C }
  - { offset: 0xE2E9D, size: 0x8, addend: 0x0, symName: __RNvXs3_NtNtCsdze8u8oDPro_5alloc3vec9into_iterINtB5_8IntoIterNtCs41t77sgS83u_2cc6ObjectENtNtNtNtCs9f3LFPSIp77_4core4iter6traits8iterator8Iterator9size_hintBY_, symObjAddr: 0x38D0, symBinAddr: 0x100060644, symSize: 0xB8 }
  - { offset: 0xE2F6E, size: 0x8, addend: 0x0, symName: __RNvXs3_NtNtCsdze8u8oDPro_5alloc3vec9into_iterINtB5_8IntoIterNtNtB9_6string6StringENtNtNtNtCs9f3LFPSIp77_4core4iter6traits8iterator8Iterator4nextCs41t77sgS83u_2cc, symObjAddr: 0x3988, symBinAddr: 0x1000606FC, symSize: 0xE4 }
  - { offset: 0xE3123, size: 0x8, addend: 0x0, symName: __RNvXs3_NtNtCsdze8u8oDPro_5alloc3vec9into_iterINtB5_8IntoIterNtNtB9_6string6StringENtNtNtNtCs9f3LFPSIp77_4core4iter6traits8iterator8Iterator9size_hintCs41t77sgS83u_2cc, symObjAddr: 0x3A6C, symBinAddr: 0x1000607E0, symSize: 0xB8 }
  - { offset: 0xE333B, size: 0x8, addend: 0x0, symName: __RNvXNvXsd_NtNtCsdze8u8oDPro_5alloc3vec9into_iterINtB8_8IntoIterppENtNtNtCs9f3LFPSIp77_4core3ops4drop4Drop4dropINtB2_9DropGuardNtCs41t77sgS83u_2cc6ObjectNtNtBc_5alloc6GlobalEB12_4dropB22_, symObjAddr: 0x312C, symBinAddr: 0x10005FEA0, symSize: 0x88 }
  - { offset: 0xE3448, size: 0x8, addend: 0x0, symName: __RNvXNvXsd_NtNtCsdze8u8oDPro_5alloc3vec9into_iterINtB8_8IntoIterppENtNtNtCs9f3LFPSIp77_4core3ops4drop4Drop4dropINtB2_9DropGuardNtNtBc_6string6StringNtNtBc_5alloc6GlobalEB12_4dropCs41t77sgS83u_2cc, symObjAddr: 0x31B4, symBinAddr: 0x10005FF28, symSize: 0x88 }
  - { offset: 0xE35A5, size: 0x8, addend: 0x0, symName: __RNvXsd_NtNtCsdze8u8oDPro_5alloc3vec9into_iterINtB5_8IntoIterNtCs41t77sgS83u_2cc6ObjectENtNtNtCs9f3LFPSIp77_4core3ops4drop4Drop4dropBY_, symObjAddr: 0x3CD4, symBinAddr: 0x100060A48, symSize: 0x98 }
  - { offset: 0xE363F, size: 0x8, addend: 0x0, symName: __RNvXsd_NtNtCsdze8u8oDPro_5alloc3vec9into_iterINtB5_8IntoIterNtNtB9_6string6StringENtNtNtCs9f3LFPSIp77_4core3ops4drop4Drop4dropCs41t77sgS83u_2cc, symObjAddr: 0x3D6C, symBinAddr: 0x100060AE0, symSize: 0x98 }
  - { offset: 0xE36DF, size: 0x8, addend: 0x0, symName: __RNvXsf_NtNtCsdze8u8oDPro_5alloc3vec9into_iterINtB5_8IntoIterNtCs41t77sgS83u_2cc6ObjectENtNtNtCs9f3LFPSIp77_4core4iter8adapters10SourceIter8as_innerBY_, symObjAddr: 0x3E04, symBinAddr: 0x100060B78, symSize: 0x14 }
  - { offset: 0xE3725, size: 0x8, addend: 0x0, symName: __RNvXsg_NtNtCsdze8u8oDPro_5alloc3vec9into_iterINtB5_8IntoIterNtCs41t77sgS83u_2cc6ObjectENtNtB7_16in_place_collect13AsVecIntoIter12as_into_iterBY_, symObjAddr: 0x3E18, symBinAddr: 0x100060B8C, symSize: 0x14 }
  - { offset: 0xE3F80, size: 0x8, addend: 0x0, symName: __RNvXs2_NtCsdze8u8oDPro_5alloc7raw_vecINtB5_6RawVecINtNtB7_4sync3ArcNtNtCs27l1GJC5rMQ_3std4path4PathEENtNtNtCs9f3LFPSIp77_4core3ops4drop4Drop4dropCs41t77sgS83u_2cc, symObjAddr: 0x32C8, symBinAddr: 0x10006003C, symSize: 0x34 }
  - { offset: 0xE3FBC, size: 0x8, addend: 0x0, symName: __RNvXs2_NtCsdze8u8oDPro_5alloc7raw_vecINtB5_6RawVecINtNtB7_4sync3ArcNtNtNtCs27l1GJC5rMQ_3std3ffi6os_str5OsStrEENtNtNtCs9f3LFPSIp77_4core3ops4drop4Drop4dropCs41t77sgS83u_2cc, symObjAddr: 0x32FC, symBinAddr: 0x100060070, symSize: 0x34 }
  - { offset: 0xE3FF8, size: 0x8, addend: 0x0, symName: __RNvXs2_NtCsdze8u8oDPro_5alloc7raw_vecINtB5_6RawVecINtNtB7_5boxed3BoxDINtNtNtCs9f3LFPSIp77_4core3ops8function5FnMutuEp6OutputINtNtB1c_6result6ResultuNtNtNtCs27l1GJC5rMQ_3std2io5error5ErrorENtNtB1c_6marker4SendNtB32_4SyncEL_EENtNtB1a_4drop4Drop4dropCs41t77sgS83u_2cc, symObjAddr: 0x3330, symBinAddr: 0x1000600A4, symSize: 0x34 }
  - { offset: 0xE4034, size: 0x8, addend: 0x0, symName: __RNvXs2_NtCsdze8u8oDPro_5alloc7raw_vecINtB5_6RawVecNtCs41t77sgS83u_2cc6ObjectENtNtNtCs9f3LFPSIp77_4core3ops4drop4Drop4dropBO_, symObjAddr: 0x3364, symBinAddr: 0x1000600D8, symSize: 0x34 }
  - { offset: 0xE4070, size: 0x8, addend: 0x0, symName: __RNvXs2_NtCsdze8u8oDPro_5alloc7raw_vecINtB5_6RawVecNtNtNtB7_3ffi5c_str7CStringENtNtNtCs9f3LFPSIp77_4core3ops4drop4Drop4dropCs41t77sgS83u_2cc, symObjAddr: 0x3398, symBinAddr: 0x10006010C, symSize: 0x34 }
  - { offset: 0xE40AC, size: 0x8, addend: 0x0, symName: __RNvXs2_NtCsdze8u8oDPro_5alloc7raw_vecINtB5_6RawVecNtNtNtCs27l1GJC5rMQ_3std3ffi6os_str8OsStringENtNtNtCs9f3LFPSIp77_4core3ops4drop4Drop4dropCs41t77sgS83u_2cc, symObjAddr: 0x33CC, symBinAddr: 0x100060140, symSize: 0x34 }
  - { offset: 0xE40E8, size: 0x8, addend: 0x0, symName: __RNvXs2_NtCsdze8u8oDPro_5alloc7raw_vecINtB5_6RawVecNtNtNtNtCs27l1GJC5rMQ_3std4sync4mpmc5waker5EntryENtNtNtCs9f3LFPSIp77_4core3ops4drop4Drop4dropCs41t77sgS83u_2cc, symObjAddr: 0x3400, symBinAddr: 0x100060174, symSize: 0x34 }
  - { offset: 0xE4124, size: 0x8, addend: 0x0, symName: __RNvXs2_NtCsdze8u8oDPro_5alloc7raw_vecINtB5_6RawVecPaENtNtNtCs9f3LFPSIp77_4core3ops4drop4Drop4dropCs41t77sgS83u_2cc, symObjAddr: 0x3434, symBinAddr: 0x1000601A8, symSize: 0x30 }
  - { offset: 0xE4160, size: 0x8, addend: 0x0, symName: __RNvXs2_NtCsdze8u8oDPro_5alloc7raw_vecINtB5_6RawVecRNtNtCs27l1GJC5rMQ_3std4path4PathENtNtNtCs9f3LFPSIp77_4core3ops4drop4Drop4dropCs41t77sgS83u_2cc, symObjAddr: 0x3464, symBinAddr: 0x1000601D8, symSize: 0x34 }
  - { offset: 0xE419C, size: 0x8, addend: 0x0, symName: __RNvXs2_NtCsdze8u8oDPro_5alloc7raw_vecINtB5_6RawVecRNtNtNtCs27l1GJC5rMQ_3std3ffi6os_str8OsStringENtNtNtCs9f3LFPSIp77_4core3ops4drop4Drop4dropCs41t77sgS83u_2cc, symObjAddr: 0x3498, symBinAddr: 0x10006020C, symSize: 0x30 }
  - { offset: 0xE41D8, size: 0x8, addend: 0x0, symName: __RNvXs2_NtCsdze8u8oDPro_5alloc7raw_vecINtB5_6RawVecReENtNtNtCs9f3LFPSIp77_4core3ops4drop4Drop4dropCs41t77sgS83u_2cc, symObjAddr: 0x34C8, symBinAddr: 0x10006023C, symSize: 0x34 }
  - { offset: 0xE4214, size: 0x8, addend: 0x0, symName: __RNvXs2_NtCsdze8u8oDPro_5alloc7raw_vecINtB5_6RawVecTINtNtB7_4sync3ArcNtNtNtCs27l1GJC5rMQ_3std3ffi6os_str5OsStrEBN_EENtNtNtCs9f3LFPSIp77_4core3ops4drop4Drop4dropCs41t77sgS83u_2cc, symObjAddr: 0x34FC, symBinAddr: 0x100060270, symSize: 0x34 }
  - { offset: 0xE4250, size: 0x8, addend: 0x0, symName: __RNvXs2_NtCsdze8u8oDPro_5alloc7raw_vecINtB5_6RawVecTINtNtB7_4sync3ArceEINtNtCs9f3LFPSIp77_4core6option6OptionBN_EEENtNtNtB1b_3ops4drop4Drop4dropCs41t77sgS83u_2cc, symObjAddr: 0x3530, symBinAddr: 0x1000602A4, symSize: 0x34 }
  - { offset: 0xE428C, size: 0x8, addend: 0x0, symName: __RNvXs2_NtCsdze8u8oDPro_5alloc7raw_vecINtB5_6RawVecTNtNtCs27l1GJC5rMQ_3std7process7CommandINtNtB7_6borrow3CowNtNtBR_4path4PathENtNvMs3_Cs41t77sgS83u_2ccNtB28_5Build15compile_objects10KillOnDropNtNtNtB28_8parallel9job_token8JobTokenEENtNtNtCs9f3LFPSIp77_4core3ops4drop4Drop4dropB28_, symObjAddr: 0x3564, symBinAddr: 0x1000602D8, symSize: 0x34 }
  - { offset: 0xE42C8, size: 0x8, addend: 0x0, symName: __RNvXs2_NtCsdze8u8oDPro_5alloc7raw_vecINtB5_6RawVecTNtNtNtCs27l1GJC5rMQ_3std3ffi6os_str8OsStringBN_EENtNtNtCs9f3LFPSIp77_4core3ops4drop4Drop4dropCs41t77sgS83u_2cc, symObjAddr: 0x3598, symBinAddr: 0x10006030C, symSize: 0x34 }
  - { offset: 0xE53DB, size: 0x8, addend: 0x0, symName: __RNvMNtNtNtCs27l1GJC5rMQ_3std4sync4mpmc4listINtB2_4SlotINtNtCs9f3LFPSIp77_4core6result6ResultNtCs22zHMr2Jt3g_9jobserver8AcquiredNtNtNtB8_2io5error5ErrorEE10wait_writeCs41t77sgS83u_2cc, symObjAddr: 0x76C, symBinAddr: 0x10005D4E0, symSize: 0x78 }
  - { offset: 0xE5516, size: 0x8, addend: 0x0, symName: __RNvMs1_NtCsdze8u8oDPro_5alloc7raw_vecINtB5_6RawVecINtNtB7_4sync3ArcNtNtNtCs27l1GJC5rMQ_3std3ffi6os_str5OsStrEE8grow_oneCs41t77sgS83u_2cc, symObjAddr: 0x7E4, symBinAddr: 0x10005D558, symSize: 0x88 }
  - { offset: 0xE55C4, size: 0x8, addend: 0x0, symName: __RNvMs1_NtCsdze8u8oDPro_5alloc7raw_vecINtB5_6RawVecNtCs41t77sgS83u_2cc6ObjectE8grow_oneBO_, symObjAddr: 0x86C, symBinAddr: 0x10005D5E0, symSize: 0x88 }
  - { offset: 0xE5672, size: 0x8, addend: 0x0, symName: __RNvMs1_NtCsdze8u8oDPro_5alloc7raw_vecINtB5_6RawVecNtNtNtCs27l1GJC5rMQ_3std3ffi6os_str8OsStringE8grow_oneCs41t77sgS83u_2cc, symObjAddr: 0x8F4, symBinAddr: 0x10005D668, symSize: 0x88 }
  - { offset: 0xE5772, size: 0x8, addend: 0x0, symName: __RNvMs1_NtCsdze8u8oDPro_5alloc7raw_vecINtB5_6RawVecNtNtNtNtCs27l1GJC5rMQ_3std4sync4mpmc5waker5EntryE8grow_oneCs41t77sgS83u_2cc, symObjAddr: 0x97C, symBinAddr: 0x10005D6F0, symSize: 0x88 }
  - { offset: 0xE5820, size: 0x8, addend: 0x0, symName: __RNvMs1_NtCsdze8u8oDPro_5alloc7raw_vecINtB5_6RawVecReE8grow_oneCs41t77sgS83u_2cc, symObjAddr: 0xA04, symBinAddr: 0x10005D778, symSize: 0x88 }
  - { offset: 0xE5A5A, size: 0x8, addend: 0x0, symName: __RNvMs1_NtCsdze8u8oDPro_5alloc7raw_vecINtB5_6RawVecTNtNtCs27l1GJC5rMQ_3std7process7CommandINtNtB7_6borrow3CowNtNtBR_4path4PathENtNvMs3_Cs41t77sgS83u_2ccNtB28_5Build15compile_objects10KillOnDropNtNtNtB28_8parallel9job_token8JobTokenEE8grow_oneB28_, symObjAddr: 0xA8C, symBinAddr: 0x10005D800, symSize: 0x88 }
  - { offset: 0xE5B26, size: 0x8, addend: 0x0, symName: __RNvMs1_NtCsdze8u8oDPro_5alloc7raw_vecINtB5_6RawVecTNtNtNtCs27l1GJC5rMQ_3std3ffi6os_str8OsStringBN_EE8grow_oneCs41t77sgS83u_2cc, symObjAddr: 0xB14, symBinAddr: 0x10005D888, symSize: 0x88 }
  - { offset: 0xE5E66, size: 0x8, addend: 0x0, symName: __RNvMs1_NtCsdze8u8oDPro_5alloc7raw_vecINtB5_6RawVechE8into_boxCs41t77sgS83u_2cc, symObjAddr: 0xB9C, symBinAddr: 0x10005D910, symSize: 0xA0 }
  - { offset: 0xE62D2, size: 0x8, addend: 0x0, symName: __RNvMs1_NtNtNtCs27l1GJC5rMQ_3std4sync4mpmc4listINtB5_7ChannelINtNtCs9f3LFPSIp77_4core6result6ResultNtCs22zHMr2Jt3g_9jobserver8AcquiredNtNtNtBb_2io5error5ErrorEE10start_recvCs41t77sgS83u_2cc, symObjAddr: 0xC3C, symBinAddr: 0x10005D9B0, symSize: 0x4CC }
  - { offset: 0xE6AC7, size: 0x8, addend: 0x0, symName: __RNvMs1_NtNtNtCs27l1GJC5rMQ_3std4sync4mpmc4listINtB5_7ChannelINtNtCs9f3LFPSIp77_4core6result6ResultNtCs22zHMr2Jt3g_9jobserver8AcquiredNtNtNtBb_2io5error5ErrorEE10start_sendCs41t77sgS83u_2cc, symObjAddr: 0x1108, symBinAddr: 0x10005DE7C, symSize: 0x8D0 }
  - { offset: 0xE72EB, size: 0x8, addend: 0x0, symName: __RNvMs1_NtNtNtCs27l1GJC5rMQ_3std4sync4mpmc4listINtB5_7ChannelINtNtCs9f3LFPSIp77_4core6result6ResultNtCs22zHMr2Jt3g_9jobserver8AcquiredNtNtNtBb_2io5error5ErrorEE18disconnect_sendersCs41t77sgS83u_2cc, symObjAddr: 0x19D8, symBinAddr: 0x10005E74C, symSize: 0xA8 }
  - { offset: 0xE7592, size: 0x8, addend: 0x0, symName: __RNvMs1_NtNtNtCs27l1GJC5rMQ_3std4sync4mpmc4listINtB5_7ChannelINtNtCs9f3LFPSIp77_4core6result6ResultNtCs22zHMr2Jt3g_9jobserver8AcquiredNtNtNtBb_2io5error5ErrorEE20discard_all_messagesCs41t77sgS83u_2cc, symObjAddr: 0x1A80, symBinAddr: 0x10005E7F4, symSize: 0x3D8 }
  - { offset: 0xE7BD5, size: 0x8, addend: 0x0, symName: __RNvMs1_NtNtNtCs27l1GJC5rMQ_3std4sync4mpmc4listINtB5_7ChannelINtNtCs9f3LFPSIp77_4core6result6ResultNtCs22zHMr2Jt3g_9jobserver8AcquiredNtNtNtBb_2io5error5ErrorEE20disconnect_receiversCs41t77sgS83u_2cc, symObjAddr: 0x1E58, symBinAddr: 0x10005EBCC, symSize: 0xA4 }
  - { offset: 0xE7D31, size: 0x8, addend: 0x0, symName: __RNvMs1_NtNtNtCs27l1GJC5rMQ_3std4sync4mpmc4listINtB5_7ChannelINtNtCs9f3LFPSIp77_4core6result6ResultNtCs22zHMr2Jt3g_9jobserver8AcquiredNtNtNtBb_2io5error5ErrorEE4readCs41t77sgS83u_2cc, symObjAddr: 0x1EFC, symBinAddr: 0x10005EC70, symSize: 0x1D8 }
  - { offset: 0xE7FCA, size: 0x8, addend: 0x0, symName: __RNvMs1_NtNtNtCs27l1GJC5rMQ_3std4sync4mpmc4listINtB5_7ChannelINtNtCs9f3LFPSIp77_4core6result6ResultNtCs22zHMr2Jt3g_9jobserver8AcquiredNtNtNtBb_2io5error5ErrorEE4sendCs41t77sgS83u_2cc, symObjAddr: 0x20D4, symBinAddr: 0x10005EE48, symSize: 0x170 }
  - { offset: 0xE826A, size: 0x8, addend: 0x0, symName: __RNvMs1_NtNtNtCs27l1GJC5rMQ_3std4sync4mpmc4listINtB5_7ChannelINtNtCs9f3LFPSIp77_4core6result6ResultNtCs22zHMr2Jt3g_9jobserver8AcquiredNtNtNtBb_2io5error5ErrorEE5writeCs41t77sgS83u_2cc, symObjAddr: 0x2244, symBinAddr: 0x10005EFB8, symSize: 0x154 }
  - { offset: 0xE84DE, size: 0x8, addend: 0x0, symName: __RNvMs1_NtNtNtCs27l1GJC5rMQ_3std4sync4mpmc4listINtB5_7ChannelINtNtCs9f3LFPSIp77_4core6result6ResultNtCs22zHMr2Jt3g_9jobserver8AcquiredNtNtNtBb_2io5error5ErrorEE8try_recvCs41t77sgS83u_2cc, symObjAddr: 0x2398, symBinAddr: 0x10005F10C, symSize: 0xDC }
  - { offset: 0xE875E, size: 0x8, addend: 0x0, symName: __RNvMs3_NtCsdze8u8oDPro_5alloc7raw_vecNtB5_11RawVecInner13shrink_to_fitCs41t77sgS83u_2cc, symObjAddr: 0x2474, symBinAddr: 0x10005F1E8, symSize: 0x128 }
  - { offset: 0xE88B9, size: 0x8, addend: 0x0, symName: __RNvMs3_NtCsdze8u8oDPro_5alloc7raw_vecNtB5_11RawVecInner14current_memoryCs41t77sgS83u_2cc, symObjAddr: 0x259C, symBinAddr: 0x10005F310, symSize: 0x118 }
  - { offset: 0xE8B32, size: 0x8, addend: 0x0, symName: __RNvMs3_NtCsdze8u8oDPro_5alloc7raw_vecNtB5_11RawVecInner16shrink_uncheckedCs41t77sgS83u_2cc, symObjAddr: 0x26B4, symBinAddr: 0x10005F428, symSize: 0x2F4 }
  - { offset: 0xE902A, size: 0x8, addend: 0x0, symName: __RNvMs_NtNtCsdze8u8oDPro_5alloc3vec9into_iterINtB4_8IntoIterNtCs41t77sgS83u_2cc6ObjectE32forget_allocation_drop_remainingBX_, symObjAddr: 0x29A8, symBinAddr: 0x10005F71C, symSize: 0xC8 }
  - { offset: 0xE9286, size: 0x8, addend: 0x0, symName: __RNvMs_NtNtNtCs27l1GJC5rMQ_3std4sync4mpmc4listINtB4_5BlockINtNtCs9f3LFPSIp77_4core6result6ResultNtCs22zHMr2Jt3g_9jobserver8AcquiredNtNtNtBa_2io5error5ErrorEE3newCs41t77sgS83u_2cc, symObjAddr: 0x2A70, symBinAddr: 0x10005F7E4, symSize: 0xB4 }
  - { offset: 0xE942C, size: 0x8, addend: 0x0, symName: __RNvMs_NtNtNtCs27l1GJC5rMQ_3std4sync4mpmc4listINtB4_5BlockINtNtCs9f3LFPSIp77_4core6result6ResultNtCs22zHMr2Jt3g_9jobserver8AcquiredNtNtNtBa_2io5error5ErrorEE7destroyCs41t77sgS83u_2cc, symObjAddr: 0x2B24, symBinAddr: 0x10005F898, symSize: 0x1CC }
  - { offset: 0xE972F, size: 0x8, addend: 0x0, symName: __RNvMs_NtNtNtCs27l1GJC5rMQ_3std4sync4mpmc4listINtB4_5BlockINtNtCs9f3LFPSIp77_4core6result6ResultNtCs22zHMr2Jt3g_9jobserver8AcquiredNtNtNtBa_2io5error5ErrorEE9wait_nextCs41t77sgS83u_2cc, symObjAddr: 0x2CF0, symBinAddr: 0x10005FA64, symSize: 0x80 }
  - { offset: 0xE9E3B, size: 0x8, addend: 0x0, symName: __RNvMNtNtNtCs41t77sgS83u_2cc8parallel9job_token19inherited_jobserverNtB2_9JobServer8from_env, symObjAddr: 0x4010, symBinAddr: 0x100060D84, symSize: 0x38 }
  - { offset: 0xE9E68, size: 0x8, addend: 0x0, symName: __RNvMNtNtNtCs41t77sgS83u_2cc8parallel9job_token19inherited_jobserverNtB2_9JobServer25get_global_implicit_token, symObjAddr: 0x40D0, symBinAddr: 0x100060E44, symSize: 0x50 }
  - { offset: 0xE9E8A, size: 0x8, addend: 0x0, symName: __RNvMNtNtNtCs41t77sgS83u_2cc8parallel9job_token19inherited_jobserverNtB2_9JobServer17release_token_raw, symObjAddr: 0x4120, symBinAddr: 0x100060E94, symSize: 0xF0 }
  - { offset: 0xE9FB2, size: 0x8, addend: 0x0, symName: __RNvMNtNtNtCs41t77sgS83u_2cc8parallel9job_token19inherited_jobserverNtB2_9JobServer12enter_active, symObjAddr: 0x4210, symBinAddr: 0x100060F84, symSize: 0x58 }
  - { offset: 0xE9FD4, size: 0x8, addend: 0x0, symName: __RNvMs_NtNtNtCs41t77sgS83u_2cc8parallel9job_token19inherited_jobserverNtB4_12HelperThread3new, symObjAddr: 0x4268, symBinAddr: 0x100060FDC, symSize: 0x1FC }
  - { offset: 0xEA045, size: 0x8, addend: 0x0, symName: __RNvMs0_NtNtNtCs41t77sgS83u_2cc8parallel9job_token19inherited_jobserverNtB5_15ActiveJobServer7acquire, symObjAddr: 0x44A8, symBinAddr: 0x10006121C, symSize: 0x2C }
  - { offset: 0xEA090, size: 0x8, addend: 0x0, symName: __RNvMNtNtNtCs41t77sgS83u_2cc8parallel9job_token19inprocess_jobserverNtB2_9JobServer3new, symObjAddr: 0x4E58, symBinAddr: 0x100061BCC, symSize: 0x1C4 }
  - { offset: 0xEA0EF, size: 0x8, addend: 0x0, symName: __RNvMNtNtNtCs41t77sgS83u_2cc8parallel9job_token19inprocess_jobserverNtB2_9JobServer7acquire, symObjAddr: 0x501C, symBinAddr: 0x100061D90, symSize: 0x2C }
  - { offset: 0xEA111, size: 0x8, addend: 0x0, symName: __RNvMNtNtNtCs41t77sgS83u_2cc8parallel9job_token19inprocess_jobserverNtB2_9JobServer17release_token_raw, symObjAddr: 0x52C0, symBinAddr: 0x100062034, symSize: 0x44 }
  - { offset: 0xEA41B, size: 0x8, addend: 0x0, symName: __RINvMNtCs9f3LFPSIp77_4core3stre10split_onceReECs41t77sgS83u_2cc, symObjAddr: 0x0, symBinAddr: 0x100062078, symSize: 0x1C8 }
  - { offset: 0xEA496, size: 0x8, addend: 0x0, symName: __RNvXs5_NtNtCs9f3LFPSIp77_4core3num5errorNtB5_15TryFromIntErrorNtNtB9_3fmt5Debug3fmtCs41t77sgS83u_2cc, symObjAddr: 0x3CF8, symBinAddr: 0x100065D70, symSize: 0x54 }
  - { offset: 0xEA4D6, size: 0x8, addend: 0x0, symName: __RNvXsb_NtNtCs9f3LFPSIp77_4core3num5errorNtB5_13ParseIntErrorNtNtB9_3fmt5Debug3fmtCs41t77sgS83u_2cc, symObjAddr: 0x4AAC, symBinAddr: 0x100066B24, symSize: 0x64 }
  - { offset: 0xEA516, size: 0x8, addend: 0x0, symName: __RNvXsg_NtNtCs9f3LFPSIp77_4core3num5errorNtB5_12IntErrorKindNtNtB9_3fmt5Debug3fmtCs41t77sgS83u_2cc, symObjAddr: 0x4C20, symBinAddr: 0x100066C98, symSize: 0xF4 }
  - { offset: 0xEA734, size: 0x8, addend: 0x0, symName: __RNvXsP_NtCs9f3LFPSIp77_4core3fmtRNtNtCs27l1GJC5rMQ_3std7process7CommandNtB5_5Debug3fmtCs41t77sgS83u_2cc, symObjAddr: 0x4610, symBinAddr: 0x100066688, symSize: 0x30 }
  - { offset: 0xEA77A, size: 0x8, addend: 0x0, symName: __RNvXsP_NtCs9f3LFPSIp77_4core3fmtRNtNtNtB7_3num5error12IntErrorKindNtB5_5Debug3fmtCs41t77sgS83u_2cc, symObjAddr: 0x4640, symBinAddr: 0x1000666B8, symSize: 0x30 }
  - { offset: 0xEA7C6, size: 0x8, addend: 0x0, symName: __RNvXsQ_NtCs9f3LFPSIp77_4core3fmtQNtNtCs27l1GJC5rMQ_3std7process7CommandNtB5_5Debug3fmtCs41t77sgS83u_2cc, symObjAddr: 0x4670, symBinAddr: 0x1000666E8, symSize: 0x30 }
  - { offset: 0xEB02E, size: 0x8, addend: 0x0, symName: __RINvMNtCs9f3LFPSIp77_4core3stre10split_onceReECs41t77sgS83u_2cc, symObjAddr: 0x0, symBinAddr: 0x100062078, symSize: 0x1C8 }
  - { offset: 0xEB372, size: 0x8, addend: 0x0, symName: __RINvMNtCs9f3LFPSIp77_4core3stre10split_oncecECs41t77sgS83u_2cc, symObjAddr: 0x1C8, symBinAddr: 0x100062240, symSize: 0x1B4 }
  - { offset: 0xEB64E, size: 0x8, addend: 0x0, symName: __RINvMNtCs9f3LFPSIp77_4core3stre11starts_withReECs41t77sgS83u_2cc, symObjAddr: 0x37C, symBinAddr: 0x1000623F4, symSize: 0x4C }
  - { offset: 0xEB694, size: 0x8, addend: 0x0, symName: __RINvMNtCs9f3LFPSIp77_4core3stre11starts_withcECs41t77sgS83u_2cc, symObjAddr: 0x3C8, symBinAddr: 0x100062440, symSize: 0x44 }
  - { offset: 0xEB6DA, size: 0x8, addend: 0x0, symName: __RINvMNtCs9f3LFPSIp77_4core3stre12strip_prefixReECs41t77sgS83u_2cc, symObjAddr: 0x40C, symBinAddr: 0x100062484, symSize: 0x4C }
  - { offset: 0xEB720, size: 0x8, addend: 0x0, symName: __RINvMNtCs9f3LFPSIp77_4core3stre12strip_suffixReECs41t77sgS83u_2cc, symObjAddr: 0x458, symBinAddr: 0x1000624D0, symSize: 0x4C }
  - { offset: 0xEB79A, size: 0x8, addend: 0x0, symName: __RINvMNtCs9f3LFPSIp77_4core3stre12trim_matchesNCNvB2_4trim0ECs41t77sgS83u_2cc, symObjAddr: 0x4A4, symBinAddr: 0x10006251C, symSize: 0x128 }
  - { offset: 0xEB96B, size: 0x8, addend: 0x0, symName: __RINvMNtCs9f3LFPSIp77_4core3stre16trim_end_matchescECs41t77sgS83u_2cc, symObjAddr: 0x5CC, symBinAddr: 0x100062644, symSize: 0xE8 }
  - { offset: 0xEBA9F, size: 0x8, addend: 0x0, symName: __RINvMNtCs9f3LFPSIp77_4core3stre5parseNtNtCs41t77sgS83u_2cc6target10TargetInfoEBD_, symObjAddr: 0x6B4, symBinAddr: 0x10006272C, symSize: 0x28 }
  - { offset: 0xEBAD6, size: 0x8, addend: 0x0, symName: __RINvMNtCs9f3LFPSIp77_4core3stre5parsemECs41t77sgS83u_2cc, symObjAddr: 0x6DC, symBinAddr: 0x100062754, symSize: 0x38 }
  - { offset: 0xEBB1A, size: 0x8, addend: 0x0, symName: __RINvMNtCs9f3LFPSIp77_4core3stre5rfindcECs41t77sgS83u_2cc, symObjAddr: 0x714, symBinAddr: 0x10006278C, symSize: 0xC8 }
  - { offset: 0xEBBA2, size: 0x8, addend: 0x0, symName: __RINvMNtCs9f3LFPSIp77_4core3stre5splitAcj2_ECs41t77sgS83u_2cc, symObjAddr: 0x7DC, symBinAddr: 0x100062854, symSize: 0xA8 }
  - { offset: 0xEBBE8, size: 0x8, addend: 0x0, symName: __RINvMNtCs9f3LFPSIp77_4core3stre5splitReECs41t77sgS83u_2cc, symObjAddr: 0x884, symBinAddr: 0x1000628FC, symSize: 0xA4 }
  - { offset: 0xEBC2E, size: 0x8, addend: 0x0, symName: __RINvMNtCs9f3LFPSIp77_4core3stre8containsRReECs41t77sgS83u_2cc, symObjAddr: 0x928, symBinAddr: 0x1000629A0, symSize: 0x48 }
  - { offset: 0xEBC74, size: 0x8, addend: 0x0, symName: __RINvMNtCs9f3LFPSIp77_4core3stre8containsReECs41t77sgS83u_2cc, symObjAddr: 0x970, symBinAddr: 0x1000629E8, symSize: 0x4C }
  - { offset: 0xEBCBA, size: 0x8, addend: 0x0, symName: __RINvMNtCs9f3LFPSIp77_4core3stre9ends_withReECs41t77sgS83u_2cc, symObjAddr: 0x9BC, symBinAddr: 0x100062A34, symSize: 0x4C }
  - { offset: 0xEBD00, size: 0x8, addend: 0x0, symName: __RINvMNtCs9f3LFPSIp77_4core3stre9ends_withcECs41t77sgS83u_2cc, symObjAddr: 0xA08, symBinAddr: 0x100062A80, symSize: 0x44 }
  - { offset: 0xEBD4B, size: 0x8, addend: 0x0, symName: __RNCNvMNtCs9f3LFPSIp77_4core3stre4trim0Cs41t77sgS83u_2cc, symObjAddr: 0x2820, symBinAddr: 0x100064898, symSize: 0x94 }
  - { offset: 0xEBE5A, size: 0x8, addend: 0x0, symName: __RNvMNtCs9f3LFPSIp77_4core3stre16split_at_checkedCs41t77sgS83u_2cc, symObjAddr: 0x28E8, symBinAddr: 0x100064960, symSize: 0x1C0 }
  - { offset: 0xEC14F, size: 0x8, addend: 0x0, symName: __RNvMNtCs9f3LFPSIp77_4core3stre16split_whitespaceCs41t77sgS83u_2cc, symObjAddr: 0x2AA8, symBinAddr: 0x100064B20, symSize: 0xCC }
  - { offset: 0xEC235, size: 0x8, addend: 0x0, symName: __RNvMNtCs9f3LFPSIp77_4core3stre22split_ascii_whitespaceCs41t77sgS83u_2cc, symObjAddr: 0x2B74, symBinAddr: 0x100064BEC, symSize: 0x64 }
  - { offset: 0xEC38F, size: 0x8, addend: 0x0, symName: __RNvMNtCs9f3LFPSIp77_4core3stre3lenCs41t77sgS83u_2cc, symObjAddr: 0x2BD8, symBinAddr: 0x100064C50, symSize: 0x1C }
  - { offset: 0xEC3BB, size: 0x8, addend: 0x0, symName: __RNvMNtCs9f3LFPSIp77_4core3stre4trimCs41t77sgS83u_2cc, symObjAddr: 0x2BF4, symBinAddr: 0x100064C6C, symSize: 0x28 }
  - { offset: 0xEC407, size: 0x8, addend: 0x0, symName: __RNvMNtCs9f3LFPSIp77_4core3stre5charsCs41t77sgS83u_2cc, symObjAddr: 0x2C1C, symBinAddr: 0x100064C94, symSize: 0x38 }
  - { offset: 0xEC538, size: 0x8, addend: 0x0, symName: __RNvMNtCs9f3LFPSIp77_4core3stre8is_emptyCs41t77sgS83u_2cc, symObjAddr: 0x2C54, symBinAddr: 0x100064CCC, symSize: 0x1C }
  - { offset: 0xEC564, size: 0x8, addend: 0x0, symName: __RNvMNtCs9f3LFPSIp77_4core3stre8split_atCs41t77sgS83u_2cc, symObjAddr: 0x2C70, symBinAddr: 0x100064CE8, symSize: 0x84 }
  - { offset: 0xEC99B, size: 0x8, addend: 0x0, symName: __RNCNvXs4_NtNtCs9f3LFPSIp77_4core3str7patternAcj2_NtB7_11MultiCharEq7matches0Cs41t77sgS83u_2cc, symObjAddr: 0x28B4, symBinAddr: 0x10006492C, symSize: 0x34 }
  - { offset: 0xEC9F4, size: 0x8, addend: 0x0, symName: __RNvXs4_NtNtCs9f3LFPSIp77_4core3str7patternAcj2_NtB5_11MultiCharEq7matchesCs41t77sgS83u_2cc, symObjAddr: 0x3C84, symBinAddr: 0x100065CFC, symSize: 0x74 }
  - { offset: 0xECB59, size: 0x8, addend: 0x0, symName: __RNvXsr_NtNtCs9f3LFPSIp77_4core3str7patternNCNvMB7_e4trim0NtB5_7Pattern13into_searcherCs41t77sgS83u_2cc, symObjAddr: 0x4F50, symBinAddr: 0x100066FC8, symSize: 0x48 }
  - { offset: 0xECC60, size: 0x8, addend: 0x0, symName: __RNvXs0_NtNtCs9f3LFPSIp77_4core3str7patternNtB5_12CharSearcherNtB5_15ReverseSearcher15next_match_backCs41t77sgS83u_2cc, symObjAddr: 0x3340, symBinAddr: 0x1000653B8, symSize: 0x3DC }
  - { offset: 0xED245, size: 0x8, addend: 0x0, symName: __RNvXs0_NtNtCs9f3LFPSIp77_4core3str7patternNtB5_12CharSearcherNtB5_15ReverseSearcher9next_backCs41t77sgS83u_2cc, symObjAddr: 0x371C, symBinAddr: 0x100065794, symSize: 0x264 }
  - { offset: 0xED720, size: 0x8, addend: 0x0, symName: __RNvXst_NtNtCs9f3LFPSIp77_4core3str7patternReNtB5_7Pattern12is_prefix_ofCs41t77sgS83u_2cc, symObjAddr: 0x5024, symBinAddr: 0x10006709C, symSize: 0x4C }
  - { offset: 0xED75D, size: 0x8, addend: 0x0, symName: __RNvXst_NtNtCs9f3LFPSIp77_4core3str7patternReNtB5_7Pattern12is_suffix_ofCs41t77sgS83u_2cc, symObjAddr: 0x5070, symBinAddr: 0x1000670E8, symSize: 0x4C }
  - { offset: 0xED79A, size: 0x8, addend: 0x0, symName: __RNvXst_NtNtCs9f3LFPSIp77_4core3str7patternReNtB5_7Pattern13into_searcherCs41t77sgS83u_2cc, symObjAddr: 0x50BC, symBinAddr: 0x100067134, symSize: 0x4C }
  - { offset: 0xED801, size: 0x8, addend: 0x0, symName: __RNvXst_NtNtCs9f3LFPSIp77_4core3str7patternReNtB5_7Pattern15is_contained_inCs41t77sgS83u_2cc, symObjAddr: 0x5108, symBinAddr: 0x100067180, symSize: 0x1F8 }
  - { offset: 0xEDA8E, size: 0x8, addend: 0x0, symName: __RNvXst_NtNtCs9f3LFPSIp77_4core3str7patternReNtB5_7Pattern15strip_prefix_ofCs41t77sgS83u_2cc, symObjAddr: 0x5300, symBinAddr: 0x100067378, symSize: 0xE0 }
  - { offset: 0xEDC30, size: 0x8, addend: 0x0, symName: __RNvXst_NtNtCs9f3LFPSIp77_4core3str7patternReNtB5_7Pattern15strip_suffix_ofCs41t77sgS83u_2cc, symObjAddr: 0x53E0, symBinAddr: 0x100067458, symSize: 0xE0 }
  - { offset: 0xEDD6F, size: 0x8, addend: 0x0, symName: __RNvXs2_NtNtCs9f3LFPSIp77_4core3str7patterncNtB5_7Pattern12is_prefix_ofCs41t77sgS83u_2cc, symObjAddr: 0x39FC, symBinAddr: 0x100065A74, symSize: 0x78 }
  - { offset: 0xEDE16, size: 0x8, addend: 0x0, symName: __RNvXs2_NtNtCs9f3LFPSIp77_4core3str7patterncNtB5_7Pattern12is_suffix_ofCs41t77sgS83u_2cc, symObjAddr: 0x3A74, symBinAddr: 0x100065AEC, symSize: 0x78 }
  - { offset: 0xEDEBD, size: 0x8, addend: 0x0, symName: __RNvXs2_NtNtCs9f3LFPSIp77_4core3str7patterncNtB5_7Pattern13into_searcherCs41t77sgS83u_2cc, symObjAddr: 0x3AEC, symBinAddr: 0x100065B64, symSize: 0x114 }
  - { offset: 0xEDFD9, size: 0x8, addend: 0x0, symName: __RNvXs3_NtNtCs9f3LFPSIp77_4core3str7patternNCNvMB7_e4trim0NtB5_11MultiCharEq7matchesCs41t77sgS83u_2cc, symObjAddr: 0x3C34, symBinAddr: 0x100065CAC, symSize: 0x28 }
  - { offset: 0xEE01F, size: 0x8, addend: 0x0, symName: __RNvXs3_NtNtCs9f3LFPSIp77_4core3str7patternNtB7_12IsWhitespaceNtB5_11MultiCharEq7matchesCs41t77sgS83u_2cc, symObjAddr: 0x3C5C, symBinAddr: 0x100065CD4, symSize: 0x28 }
  - { offset: 0xEE06B, size: 0x8, addend: 0x0, symName: __RNvXs7_NtNtCs9f3LFPSIp77_4core3str7patternINtB5_18MultiCharEqPatternAcj2_ENtB5_7Pattern13into_searcherCs41t77sgS83u_2cc, symObjAddr: 0x3D7C, symBinAddr: 0x100065DF4, symSize: 0xB8 }
  - { offset: 0xEE0C7, size: 0x8, addend: 0x0, symName: __RNvXs7_NtNtCs9f3LFPSIp77_4core3str7patternINtB5_18MultiCharEqPatternNCNvMB7_e4trim0ENtB5_7Pattern13into_searcherCs41t77sgS83u_2cc, symObjAddr: 0x3E34, symBinAddr: 0x100065EAC, symSize: 0x90 }
  - { offset: 0xEE123, size: 0x8, addend: 0x0, symName: __RNvXs7_NtNtCs9f3LFPSIp77_4core3str7patternINtB5_18MultiCharEqPatternNtB7_12IsWhitespaceENtB5_7Pattern13into_searcherCs41t77sgS83u_2cc, symObjAddr: 0x3EC4, symBinAddr: 0x100065F3C, symSize: 0x90 }
  - { offset: 0xEE185, size: 0x8, addend: 0x0, symName: __RNvXs8_NtNtCs9f3LFPSIp77_4core3str7patternINtB5_19MultiCharEqSearcherAcj2_ENtB5_8Searcher4nextCs41t77sgS83u_2cc, symObjAddr: 0x3F54, symBinAddr: 0x100065FCC, symSize: 0x1AC }
  - { offset: 0xEE39C, size: 0x8, addend: 0x0, symName: __RNvXs8_NtNtCs9f3LFPSIp77_4core3str7patternINtB5_19MultiCharEqSearcherNCNvMB7_e4trim0ENtB5_8Searcher4nextCs41t77sgS83u_2cc, symObjAddr: 0x4100, symBinAddr: 0x100066178, symSize: 0x1B0 }
  - { offset: 0xEE5B3, size: 0x8, addend: 0x0, symName: __RNvXs8_NtNtCs9f3LFPSIp77_4core3str7patternINtB5_19MultiCharEqSearcherNtB7_12IsWhitespaceENtB5_8Searcher4nextCs41t77sgS83u_2cc, symObjAddr: 0x42B0, symBinAddr: 0x100066328, symSize: 0x1B0 }
  - { offset: 0xEE81E, size: 0x8, addend: 0x0, symName: __RNvXs9_NtNtCs9f3LFPSIp77_4core3str7patternINtB5_19MultiCharEqSearcherNCNvMB7_e4trim0ENtB5_15ReverseSearcher9next_backCs41t77sgS83u_2cc, symObjAddr: 0x4460, symBinAddr: 0x1000664D8, symSize: 0x1B0 }
  - { offset: 0xEEA3B, size: 0x8, addend: 0x0, symName: __RNvXs_NtNtCs9f3LFPSIp77_4core3str7patternNtB4_12CharSearcherNtB4_8Searcher10next_matchCs41t77sgS83u_2cc, symObjAddr: 0x46A0, symBinAddr: 0x100066718, symSize: 0x3CC }
  - { offset: 0xEEFB3, size: 0x8, addend: 0x0, symName: __RNvXs_NtNtCs9f3LFPSIp77_4core3str7patternNtB4_12CharSearcherNtB4_8Searcher8haystackCs41t77sgS83u_2cc, symObjAddr: 0x4A6C, symBinAddr: 0x100066AE4, symSize: 0x20 }
  - { offset: 0xEEFE7, size: 0x8, addend: 0x0, symName: __RNvXsb_NtNtCs9f3LFPSIp77_4core3str7patternAcj2_NtB5_7Pattern13into_searcherCs41t77sgS83u_2cc, symObjAddr: 0x4B10, symBinAddr: 0x100066B88, symSize: 0x68 }
  - { offset: 0xEF02A, size: 0x8, addend: 0x0, symName: __RNvXsc_NtNtCs9f3LFPSIp77_4core3str7patternINtB5_17CharArraySearcherKj2_ENtB5_8Searcher10next_matchCs41t77sgS83u_2cc, symObjAddr: 0x4B78, symBinAddr: 0x100066BF0, symSize: 0x24 }
  - { offset: 0xEF058, size: 0x8, addend: 0x0, symName: __RNvXsc_NtNtCs9f3LFPSIp77_4core3str7patternINtB5_17CharArraySearcherKj2_ENtB5_8Searcher8haystackCs41t77sgS83u_2cc, symObjAddr: 0x4B9C, symBinAddr: 0x100066C14, symSize: 0x28 }
  - { offset: 0xEF0E0, size: 0x8, addend: 0x0, symName: __RNvXso_NtNtCs9f3LFPSIp77_4core3str7patternINtB5_21CharPredicateSearcherNCNvMB7_e4trim0ENtB5_8Searcher11next_rejectCs41t77sgS83u_2cc, symObjAddr: 0x4E64, symBinAddr: 0x100066EDC, symSize: 0x24 }
  - { offset: 0xEF117, size: 0x8, addend: 0x0, symName: __RNvXso_NtNtCs9f3LFPSIp77_4core3str7patternINtB5_21CharPredicateSearcherNtB7_12IsWhitespaceENtB5_8Searcher10next_matchCs41t77sgS83u_2cc, symObjAddr: 0x4E88, symBinAddr: 0x100066F00, symSize: 0x24 }
  - { offset: 0xEF14E, size: 0x8, addend: 0x0, symName: __RNvXso_NtNtCs9f3LFPSIp77_4core3str7patternINtB5_21CharPredicateSearcherNtB7_12IsWhitespaceENtB5_8Searcher8haystackCs41t77sgS83u_2cc, symObjAddr: 0x4EAC, symBinAddr: 0x100066F24, symSize: 0x28 }
  - { offset: 0xEF1A9, size: 0x8, addend: 0x0, symName: __RNvXsp_NtNtCs9f3LFPSIp77_4core3str7patternINtB5_21CharPredicateSearcherNCNvMB7_e4trim0ENtB5_15ReverseSearcher16next_reject_backCs41t77sgS83u_2cc, symObjAddr: 0x4F04, symBinAddr: 0x100066F7C, symSize: 0x24 }
  - { offset: 0xEF20D, size: 0x8, addend: 0x0, symName: __RNvXss_NtNtCs9f3LFPSIp77_4core3str7patternRReNtB5_7Pattern15is_contained_inCs41t77sgS83u_2cc, symObjAddr: 0x4FD4, symBinAddr: 0x10006704C, symSize: 0x50 }
  - { offset: 0xEF333, size: 0x8, addend: 0x0, symName: __RNvXsv_NtNtCs9f3LFPSIp77_4core3str7patternNtB5_11StrSearcherNtB5_8Searcher10next_matchCs41t77sgS83u_2cc, symObjAddr: 0x54C0, symBinAddr: 0x100067538, symSize: 0x148 }
  - { offset: 0xEF3BE, size: 0x8, addend: 0x0, symName: __RNvXsv_NtNtCs9f3LFPSIp77_4core3str7patternNtB5_11StrSearcherNtB5_8Searcher4nextCs41t77sgS83u_2cc, symObjAddr: 0x5608, symBinAddr: 0x100067680, symSize: 0x44C }
  - { offset: 0xEF860, size: 0x8, addend: 0x0, symName: __RNvXsv_NtNtCs9f3LFPSIp77_4core3str7patternNtB5_11StrSearcherNtB5_8Searcher8haystackCs41t77sgS83u_2cc, symObjAddr: 0x5A54, symBinAddr: 0x100067ACC, symSize: 0x20 }
  - { offset: 0xEF894, size: 0x8, addend: 0x0, symName: __RNvXsy_NtNtCs9f3LFPSIp77_4core3str7patternNtB5_9MatchOnlyNtB5_14TwoWayStrategy16use_early_rejectCs41t77sgS83u_2cc, symObjAddr: 0x5A74, symBinAddr: 0x100067AEC, symSize: 0xC }
  - { offset: 0xEF8B2, size: 0x8, addend: 0x0, symName: __RNvXsy_NtNtCs9f3LFPSIp77_4core3str7patternNtB5_9MatchOnlyNtB5_14TwoWayStrategy8matchingCs41t77sgS83u_2cc, symObjAddr: 0x5A80, symBinAddr: 0x100067AF8, symSize: 0x28 }
  - { offset: 0xEF8EF, size: 0x8, addend: 0x0, symName: __RNvXsy_NtNtCs9f3LFPSIp77_4core3str7patternNtB5_9MatchOnlyNtB5_14TwoWayStrategy9rejectingCs41t77sgS83u_2cc, symObjAddr: 0x5AA8, symBinAddr: 0x100067B20, symSize: 0x18 }
  - { offset: 0xEF932, size: 0x8, addend: 0x0, symName: __RNvXsz_NtNtCs9f3LFPSIp77_4core3str7patternNtB5_14RejectAndMatchNtB5_14TwoWayStrategy16use_early_rejectCs41t77sgS83u_2cc, symObjAddr: 0x5AC0, symBinAddr: 0x100067B38, symSize: 0xC }
  - { offset: 0xEF950, size: 0x8, addend: 0x0, symName: __RNvXsz_NtNtCs9f3LFPSIp77_4core3str7patternNtB5_14RejectAndMatchNtB5_14TwoWayStrategy8matchingCs41t77sgS83u_2cc, symObjAddr: 0x5ACC, symBinAddr: 0x100067B44, symSize: 0x20 }
  - { offset: 0xEF98D, size: 0x8, addend: 0x0, symName: __RNvXsz_NtNtCs9f3LFPSIp77_4core3str7patternNtB5_14RejectAndMatchNtB5_14TwoWayStrategy9rejectingCs41t77sgS83u_2cc, symObjAddr: 0x5AEC, symBinAddr: 0x100067B64, symSize: 0x28 }
  - { offset: 0xEF9D0, size: 0x8, addend: 0x0, symName: __RNvYINtNtNtCs9f3LFPSIp77_4core3str7pattern19MultiCharEqSearcherAcj2_ENtB5_8Searcher10next_matchCs41t77sgS83u_2cc, symObjAddr: 0x5B14, symBinAddr: 0x100067B8C, symSize: 0x90 }
  - { offset: 0xEFA31, size: 0x8, addend: 0x0, symName: __RNvYINtNtNtCs9f3LFPSIp77_4core3str7pattern19MultiCharEqSearcherNCNvMB7_e4trim0ENtB5_8Searcher11next_rejectCs41t77sgS83u_2cc, symObjAddr: 0x5C34, symBinAddr: 0x100067CAC, symSize: 0x90 }
  - { offset: 0xEFA92, size: 0x8, addend: 0x0, symName: __RNvYINtNtNtCs9f3LFPSIp77_4core3str7pattern19MultiCharEqSearcherNtB7_12IsWhitespaceENtB5_8Searcher10next_matchCs41t77sgS83u_2cc, symObjAddr: 0x5CC4, symBinAddr: 0x100067D3C, symSize: 0x90 }
  - { offset: 0xEFAF9, size: 0x8, addend: 0x0, symName: __RNvYINtNtNtCs9f3LFPSIp77_4core3str7pattern19MultiCharEqSearcherNCNvMB7_e4trim0ENtB5_15ReverseSearcher16next_reject_backCs41t77sgS83u_2cc, symObjAddr: 0x5BA4, symBinAddr: 0x100067C1C, symSize: 0x90 }
  - { offset: 0xEFB5E, size: 0x8, addend: 0x0, symName: __RNvYNtNtNtCs9f3LFPSIp77_4core3str7pattern12CharSearcherNtB4_15ReverseSearcher16next_reject_backCs41t77sgS83u_2cc, symObjAddr: 0x5D54, symBinAddr: 0x100067DCC, symSize: 0x90 }
  - { offset: 0xEFF4F, size: 0x8, addend: 0x0, symName: __RNvXsf_NtCs9f3LFPSIp77_4core3strNtB5_12IsWhitespaceINtNtNtB7_3ops8function2FnTcEE4callCs41t77sgS83u_2cc, symObjAddr: 0x4BC4, symBinAddr: 0x100066C3C, symSize: 0x2C }
  - { offset: 0xEFFA7, size: 0x8, addend: 0x0, symName: __RNvXsg_NtCs9f3LFPSIp77_4core3strNtB5_12IsWhitespaceINtNtNtB7_3ops8function5FnMutTcEE8call_mutCs41t77sgS83u_2cc, symObjAddr: 0x4BF0, symBinAddr: 0x100066C68, symSize: 0x30 }
  - { offset: 0xEFFFF, size: 0x8, addend: 0x0, symName: __RNvXsi_NtCs9f3LFPSIp77_4core3strNtB5_17IsAsciiWhitespaceINtNtNtB7_3ops8function2FnTRhEE4callCs41t77sgS83u_2cc, symObjAddr: 0x4D14, symBinAddr: 0x100066D8C, symSize: 0x80 }
  - { offset: 0xF0076, size: 0x8, addend: 0x0, symName: __RNvXsj_NtCs9f3LFPSIp77_4core3strNtB5_17IsAsciiWhitespaceINtNtNtB7_3ops8function5FnMutTRhEE8call_mutCs41t77sgS83u_2cc, symObjAddr: 0x4D94, symBinAddr: 0x100066E0C, symSize: 0x30 }
  - { offset: 0xF00CF, size: 0x8, addend: 0x0, symName: __RNvXsl_NtCs9f3LFPSIp77_4core3strNtB5_10IsNotEmptyINtNtNtB7_3ops8function2FnTRReEE4callCs41t77sgS83u_2cc, symObjAddr: 0x4DC4, symBinAddr: 0x100066E3C, symSize: 0x38 }
  - { offset: 0xF0146, size: 0x8, addend: 0x0, symName: __RNvXsm_NtCs9f3LFPSIp77_4core3strNtB5_10IsNotEmptyINtNtNtB7_3ops8function5FnMutTRReEE8call_mutCs41t77sgS83u_2cc, symObjAddr: 0x4DFC, symBinAddr: 0x100066E74, symSize: 0x30 }
  - { offset: 0xF019F, size: 0x8, addend: 0x0, symName: __RNvXso_NtCs9f3LFPSIp77_4core3strNtB5_15BytesIsNotEmptyINtNtNtB7_3ops8function2FnTRRShEE4callCs41t77sgS83u_2cc, symObjAddr: 0x4E2C, symBinAddr: 0x100066EA4, symSize: 0x38 }
  - { offset: 0xF0216, size: 0x8, addend: 0x0, symName: __RNvXsp_NtCs9f3LFPSIp77_4core3strNtB5_15BytesIsNotEmptyINtNtNtB7_3ops8function5FnMutTRRShEE8call_mutCs41t77sgS83u_2cc, symObjAddr: 0x4ED4, symBinAddr: 0x100066F4C, symSize: 0x30 }
  - { offset: 0xF026F, size: 0x8, addend: 0x0, symName: __RNvXsr_NtCs9f3LFPSIp77_4core3strNtB5_16UnsafeBytesToStrINtNtNtB7_3ops8function2FnTRShEE4callCs41t77sgS83u_2cc, symObjAddr: 0x4F28, symBinAddr: 0x100066FA0, symSize: 0x28 }
  - { offset: 0xF02AB, size: 0x8, addend: 0x0, symName: __RNvXss_NtCs9f3LFPSIp77_4core3strNtB5_16UnsafeBytesToStrINtNtNtB7_3ops8function5FnMutTRShEE8call_mutCs41t77sgS83u_2cc, symObjAddr: 0x4F98, symBinAddr: 0x100067010, symSize: 0x3C }
  - { offset: 0xF048D, size: 0x8, addend: 0x0, symName: __RNvXs1_NtNtNtCs9f3LFPSIp77_4core3ops8function5implsQNtNtBb_3str10IsNotEmptyINtB7_5FnMutTRReEE8call_mutCs41t77sgS83u_2cc, symObjAddr: 0x399C, symBinAddr: 0x100065A14, symSize: 0x30 }
  - { offset: 0xF04DC, size: 0x8, addend: 0x0, symName: __RNvXs1_NtNtNtCs9f3LFPSIp77_4core3ops8function5implsQNtNtBb_3str15BytesIsNotEmptyINtB7_5FnMutTRRShEE8call_mutCs41t77sgS83u_2cc, symObjAddr: 0x39CC, symBinAddr: 0x100065A44, symSize: 0x30 }
  - { offset: 0xF0531, size: 0x8, addend: 0x0, symName: __RNvXs2_NtNtNtCs9f3LFPSIp77_4core3ops8function5implsQNtNtBb_3str16UnsafeBytesToStrINtB7_6FnOnceTRShEE9call_onceCs41t77sgS83u_2cc, symObjAddr: 0x3C00, symBinAddr: 0x100065C78, symSize: 0x34 }
  - { offset: 0xF18F4, size: 0x8, addend: 0x0, symName: __RNvXs1_NtCs9f3LFPSIp77_4core7convertNtNtCs27l1GJC5rMQ_3std7process5StdioINtB5_4IntoBy_E4intoCs41t77sgS83u_2cc, symObjAddr: 0x3980, symBinAddr: 0x1000659F8, symSize: 0x1C }
  - { offset: 0xF2437, size: 0x8, addend: 0x0, symName: __RNvNvXs0_NtNtCs9f3LFPSIp77_4core5slice5indexjINtB7_10SliceIndexSpE13get_unchecked18precondition_checkCs41t77sgS83u_2cc, symObjAddr: 0x31C0, symBinAddr: 0x100065238, symSize: 0x40 }
  - { offset: 0xF2473, size: 0x8, addend: 0x0, symName: __RNvNvXs0_NtNtCs9f3LFPSIp77_4core5slice5indexjINtB7_10SliceIndexSpE17get_unchecked_mut18precondition_checkCs41t77sgS83u_2cc, symObjAddr: 0x3200, symBinAddr: 0x100065278, symSize: 0x40 }
  - { offset: 0xF264B, size: 0x8, addend: 0x0, symName: __RINvNtNtCs9f3LFPSIp77_4core5slice5index5rangeINtNtNtB6_3ops5range9RangeFromjEECs41t77sgS83u_2cc, symObjAddr: 0x22F8, symBinAddr: 0x100064370, symSize: 0x284 }
  - { offset: 0xF2817, size: 0x8, addend: 0x0, symName: __RINvNtNtCs9f3LFPSIp77_4core5slice5index5rangeNtNtNtB6_3ops5range9RangeFullECs41t77sgS83u_2cc, symObjAddr: 0x257C, symBinAddr: 0x1000645F4, symSize: 0x2A4 }
  - { offset: 0xF2A2B, size: 0x8, addend: 0x0, symName: __RNvNvXs1_NtNtCs9f3LFPSIp77_4core5slice5indexNtNtNtBb_3ops11index_range10IndexRangeINtB7_10SliceIndexSpE17get_unchecked_mut18precondition_checkCs41t77sgS83u_2cc, symObjAddr: 0x3240, symBinAddr: 0x1000652B8, symSize: 0x40 }
  - { offset: 0xF2A6D, size: 0x8, addend: 0x0, symName: __RNvNvXs2_NtNtCs9f3LFPSIp77_4core5slice5indexINtNtNtBb_3ops5range5RangejEINtB7_10SliceIndexSpE13get_unchecked18precondition_checkCs41t77sgS83u_2cc, symObjAddr: 0x3280, symBinAddr: 0x1000652F8, symSize: 0x60 }
  - { offset: 0xF2AB7, size: 0x8, addend: 0x0, symName: __RNvNvXs2_NtNtCs9f3LFPSIp77_4core5slice5indexINtNtNtBb_3ops5range5RangejEINtB7_10SliceIndexSpE17get_unchecked_mut18precondition_checkCs41t77sgS83u_2cc, symObjAddr: 0x32E0, symBinAddr: 0x100065358, symSize: 0x60 }
  - { offset: 0xF332F, size: 0x8, addend: 0x0, symName: __RNvMNtNtCs9f3LFPSIp77_4core4char7methodsc13is_whitespaceCs41t77sgS83u_2cc, symObjAddr: 0x2CF4, symBinAddr: 0x100064D6C, symSize: 0x90 }
  - { offset: 0xF3465, size: 0x8, addend: 0x0, symName: __RNvNtNtCs9f3LFPSIp77_4core4char7methods15encode_utf8_rawCs41t77sgS83u_2cc, symObjAddr: 0x2E58, symBinAddr: 0x100064ED0, symSize: 0x21C }
  - { offset: 0xF397E, size: 0x8, addend: 0x0, symName: __RNvNtNtNtCs9f3LFPSIp77_4core7unicode12unicode_data11white_space6lookupCs41t77sgS83u_2cc, symObjAddr: 0x3074, symBinAddr: 0x1000650EC, symSize: 0x14C }
  - { offset: 0xF3AC7, size: 0x8, addend: 0x0, symName: __RNvNtNtNtCs41t77sgS83u_2cc7windows10find_tools5impl_21find_msvc_environment, symObjAddr: 0x5DE4, symBinAddr: 0x100067E5C, symSize: 0x24C }
  - { offset: 0xF3BD5, size: 0x8, addend: 0x0, symName: __RNCNvNtNtNtCs41t77sgS83u_2cc7windows10find_tools5impl_21find_msvc_environment0B9_, symObjAddr: 0x6030, symBinAddr: 0x1000680A8, symSize: 0x8C }
  - { offset: 0xF3C1A, size: 0x8, addend: 0x0, symName: __RNCNCNvNtNtNtCs41t77sgS83u_2cc7windows10find_tools5impl_21find_msvc_environment00Bb_, symObjAddr: 0x60BC, symBinAddr: 0x100068134, symSize: 0xA4 }
  - { offset: 0xF3C5B, size: 0x8, addend: 0x0, symName: __RNCNCNvNtNtNtCs41t77sgS83u_2cc7windows10find_tools5impl_21find_msvc_environment0s_0Bb_, symObjAddr: 0x6160, symBinAddr: 0x1000681D8, symSize: 0x44 }
  - { offset: 0xF3C94, size: 0x8, addend: 0x0, symName: __RNCNCNvNtNtNtCs41t77sgS83u_2cc7windows10find_tools5impl_21find_msvc_environment0s0_0Bb_, symObjAddr: 0x61A4, symBinAddr: 0x10006821C, symSize: 0x40 }
  - { offset: 0xF3CDD, size: 0x8, addend: 0x0, symName: __RNCNvNtNtNtCs41t77sgS83u_2cc7windows10find_tools5impl_21find_msvc_environments_0B9_, symObjAddr: 0x61E4, symBinAddr: 0x10006825C, symSize: 0x60 }
  - { offset: 0xF3D20, size: 0x8, addend: 0x0, symName: __RNCNvNtNtNtCs41t77sgS83u_2cc7windows10find_tools5impl_21find_msvc_environments0_0B9_, symObjAddr: 0x6244, symBinAddr: 0x1000682BC, symSize: 0xD0 }
  - { offset: 0xF3D68, size: 0x8, addend: 0x0, symName: __RNCNCNvNtNtNtCs41t77sgS83u_2cc7windows10find_tools5impl_21find_msvc_environments0_00Bb_, symObjAddr: 0x6314, symBinAddr: 0x10006838C, symSize: 0x34 }
  - { offset: 0xF433A, size: 0x8, addend: 0x0, symName: __RNvXs5_NtNtNtCs27l1GJC5rMQ_3std2os4unix7processNtNtBb_7process11ChildStderrNtNtNtB9_2fd3raw7AsRawFd9as_raw_fdCs41t77sgS83u_2cc, symObjAddr: 0x3D4C, symBinAddr: 0x100065DC4, symSize: 0x30 }
  - { offset: 0xF4B3B, size: 0x8, addend: 0x0, symName: __RNvXs_NtNtCsdze8u8oDPro_5alloc3vec15set_len_on_dropNtB4_12SetLenOnDropNtNtNtCs9f3LFPSIp77_4core3ops4drop4Drop4dropCs41t77sgS83u_2cc, symObjAddr: 0x4A8C, symBinAddr: 0x100066B04, symSize: 0x20 }
  - { offset: 0xF5295, size: 0x8, addend: 0x0, symName: __RINvMsk_NtCs27l1GJC5rMQ_3std7processNtB6_7Command10env_removeReECs41t77sgS83u_2cc, symObjAddr: 0xA4C, symBinAddr: 0x100062AC4, symSize: 0x78 }
  - { offset: 0xF52EE, size: 0x8, addend: 0x0, symName: __RINvMsk_NtCs27l1GJC5rMQ_3std7processNtB6_7Command3argNtNtCsdze8u8oDPro_5alloc6string6StringECs41t77sgS83u_2cc, symObjAddr: 0xAC4, symBinAddr: 0x100062B3C, symSize: 0x84 }
  - { offset: 0xF532A, size: 0x8, addend: 0x0, symName: __RINvMsk_NtCs27l1GJC5rMQ_3std7processNtB6_7Command3argNtNtNtB8_3ffi6os_str8OsStringECs41t77sgS83u_2cc, symObjAddr: 0xB48, symBinAddr: 0x100062BC0, symSize: 0x84 }
  - { offset: 0xF538D, size: 0x8, addend: 0x0, symName: __RINvMsk_NtCs27l1GJC5rMQ_3std7processNtB6_7Command3argRNtNtB8_4path4PathECs41t77sgS83u_2cc, symObjAddr: 0xBCC, symBinAddr: 0x100062C44, symSize: 0x70 }
  - { offset: 0xF53D5, size: 0x8, addend: 0x0, symName: __RINvMsk_NtCs27l1GJC5rMQ_3std7processNtB6_7Command3argRNtNtB8_4path7PathBufECs41t77sgS83u_2cc, symObjAddr: 0xC3C, symBinAddr: 0x100062CB4, symSize: 0x6C }
  - { offset: 0xF5437, size: 0x8, addend: 0x0, symName: __RINvMsk_NtCs27l1GJC5rMQ_3std7processNtB6_7Command3argRNtNtNtB8_3ffi6os_str5OsStrECs41t77sgS83u_2cc, symObjAddr: 0xCA8, symBinAddr: 0x100062D20, symSize: 0x70 }
  - { offset: 0xF5472, size: 0x8, addend: 0x0, symName: __RINvMsk_NtCs27l1GJC5rMQ_3std7processNtB6_7Command3argReECs41t77sgS83u_2cc, symObjAddr: 0xD18, symBinAddr: 0x100062D90, symSize: 0x70 }
  - { offset: 0xF54F4, size: 0x8, addend: 0x0, symName: __RINvMsk_NtCs27l1GJC5rMQ_3std7processNtB6_7Command3envRINtNtCsdze8u8oDPro_5alloc4sync3ArcNtNtNtB8_3ffi6os_str5OsStrEBP_ECs41t77sgS83u_2cc, symObjAddr: 0xD88, symBinAddr: 0x100062E00, symSize: 0x9C }
  - { offset: 0xF5585, size: 0x8, addend: 0x0, symName: __RINvMsk_NtCs27l1GJC5rMQ_3std7processNtB6_7Command3envRNtNtNtB8_3ffi6os_str8OsStringBP_ECs41t77sgS83u_2cc, symObjAddr: 0xE24, symBinAddr: 0x100062E9C, symSize: 0x9C }
  - { offset: 0xF5609, size: 0x8, addend: 0x0, symName: __RINvMsk_NtCs27l1GJC5rMQ_3std7processNtB6_7Command3envReBP_ECs41t77sgS83u_2cc, symObjAddr: 0xEC0, symBinAddr: 0x100062F38, symSize: 0xA4 }
  - { offset: 0xF567A, size: 0x8, addend: 0x0, symName: __RINvMsk_NtCs27l1GJC5rMQ_3std7processNtB6_7Command3newNtNtB8_4path7PathBufECs41t77sgS83u_2cc, symObjAddr: 0xF64, symBinAddr: 0x100062FDC, symSize: 0x90 }
  - { offset: 0xF56A7, size: 0x8, addend: 0x0, symName: __RINvMsk_NtCs27l1GJC5rMQ_3std7processNtB6_7Command3newRNtNtB8_4path4PathECs41t77sgS83u_2cc, symObjAddr: 0xFF4, symBinAddr: 0x10006306C, symSize: 0x84 }
  - { offset: 0xF56D3, size: 0x8, addend: 0x0, symName: __RINvMsk_NtCs27l1GJC5rMQ_3std7processNtB6_7Command3newRNtNtB8_4path7PathBufECs41t77sgS83u_2cc, symObjAddr: 0x1078, symBinAddr: 0x1000630F0, symSize: 0x80 }
  - { offset: 0xF570C, size: 0x8, addend: 0x0, symName: __RINvMsk_NtCs27l1GJC5rMQ_3std7processNtB6_7Command3newRNtNtCsdze8u8oDPro_5alloc6string6StringECs41t77sgS83u_2cc, symObjAddr: 0x10F8, symBinAddr: 0x100063170, symSize: 0x80 }
