---
triple:          'arm64-apple-darwin'
binary-path:     '/Users/teddy/code/zero_to_production/newsletter_server/target/debug/build/slab-fbc81d825ccad022/build_script_build-fbc81d825ccad022'
relocations:
  - { offset: 0x1E, size: 0x8, addend: 0x0, symName: __RINvMs0_NtCs9f3LFPSIp77_4core3fmtNtB6_9Arguments9new_constKj1_ECsbLWR5XilTXw_18build_script_build, symObjAddr: 0x0, symBinAddr: 0x100003160, symSize: 0x48 }
  - { offset: 0x68, size: 0x8, addend: 0x0, symName: __RNCINvNtCs27l1GJC5rMQ_3std2rt10lang_startuE0CsbLWR5XilTXw_18build_script_build, symObjAddr: 0xE8, symBinAddr: 0x100003248, symSize: 0x3C }
  - { offset: 0xDB, size: 0x8, addend: 0x0, symName: __RINvNtCs27l1GJC5rMQ_3std2rt10lang_startuECsbLWR5XilTXw_18build_script_build, symObjAddr: 0x48, symBinAddr: 0x1000031A8, symSize: 0x6C }
  - { offset: 0x39D, size: 0x8, addend: 0x0, symName: __RINvNtNtCs27l1GJC5rMQ_3std3sys9backtrace28___rust_begin_short_backtraceFEuuECsbLWR5XilTXw_18build_script_build, symObjAddr: 0xC4, symBinAddr: 0x100003224, symSize: 0x24 }
  - { offset: 0x4C6, size: 0x8, addend: 0x0, symName: __RNvXsT_NtCs27l1GJC5rMQ_3std7processuNtB5_11Termination6reportCsbLWR5XilTXw_18build_script_build, symObjAddr: 0x14C, symBinAddr: 0x1000032AC, symSize: 0x10 }
  - { offset: 0xA96, size: 0x8, addend: 0x0, symName: __RINvNtCs9f3LFPSIp77_4core3ptr13drop_in_placeNCINvNtCs27l1GJC5rMQ_3std2rt10lang_startuE0ECsbLWR5XilTXw_18build_script_build, symObjAddr: 0xB4, symBinAddr: 0x100003214, symSize: 0x10 }
  - { offset: 0xC02, size: 0x8, addend: 0x0, symName: __RNSNvYNCINvNtCs27l1GJC5rMQ_3std2rt10lang_startuE0INtNtNtCs9f3LFPSIp77_4core3ops8function6FnOnceuE9call_once6vtableCsbLWR5XilTXw_18build_script_build, symObjAddr: 0x124, symBinAddr: 0x100003284, symSize: 0x28 }
  - { offset: 0xC46, size: 0x8, addend: 0x0, symName: __RNvYFEuINtNtNtCs9f3LFPSIp77_4core3ops8function6FnOnceuE9call_onceCsbLWR5XilTXw_18build_script_build, symObjAddr: 0x15C, symBinAddr: 0x1000032BC, symSize: 0x20 }
  - { offset: 0xC86, size: 0x8, addend: 0x0, symName: __RNvYNCINvNtCs27l1GJC5rMQ_3std2rt10lang_startuE0INtNtNtCs9f3LFPSIp77_4core3ops8function6FnOnceuE9call_onceCsbLWR5XilTXw_18build_script_build, symObjAddr: 0x17C, symBinAddr: 0x1000032DC, symSize: 0x4C }
  - { offset: 0xE53, size: 0x8, addend: 0x0, symName: __RINvMs0_NtCs9f3LFPSIp77_4core3fmtNtB6_9Arguments9new_constKj1_ECsbLWR5XilTXw_18build_script_build, symObjAddr: 0x0, symBinAddr: 0x100003160, symSize: 0x48 }
  - { offset: 0x1138, size: 0x8, addend: 0x0, symName: __RNvCsbLWR5XilTXw_18build_script_build4main, symObjAddr: 0x1C8, symBinAddr: 0x100003328, symSize: 0x260 }
  - { offset: 0x13A0, size: 0x8, addend: 0x0, symName: __RINvMsx_NtNtCs9f3LFPSIp77_4core3str7patternNtB6_14TwoWaySearcher4nextNtB6_14RejectAndMatchECsh9ovbnNyhRg_7autocfg, symObjAddr: 0x0, symBinAddr: 0x1000035D4, symSize: 0x4FC }
  - { offset: 0x1435, size: 0x8, addend: 0x0, symName: __RNvXs4_NtNtCs9f3LFPSIp77_4core3num5errorNtB5_13ParseIntErrorNtNtB9_5error5Error11descriptionCsh9ovbnNyhRg_7autocfg, symObjAddr: 0x24C4, symBinAddr: 0x100005A98, symSize: 0xD8 }
  - { offset: 0x1467, size: 0x8, addend: 0x0, symName: __RNvXs5_NtNtCs9f3LFPSIp77_4core3num5errorNtB5_15TryFromIntErrorNtNtB9_3fmt5Debug3fmtCsh9ovbnNyhRg_7autocfg, symObjAddr: 0x259C, symBinAddr: 0x100005B70, symSize: 0x54 }
  - { offset: 0x14A7, size: 0x8, addend: 0x0, symName: __RNvXsb_NtNtCs9f3LFPSIp77_4core3num5errorNtB5_13ParseIntErrorNtNtB9_3fmt5Debug3fmtCsh9ovbnNyhRg_7autocfg, symObjAddr: 0x2F8C, symBinAddr: 0x100006560, symSize: 0x64 }
  - { offset: 0x14E7, size: 0x8, addend: 0x0, symName: __RNvXsg_NtNtCs9f3LFPSIp77_4core3num5errorNtB5_12IntErrorKindNtNtB9_3fmt5Debug3fmtCsh9ovbnNyhRg_7autocfg, symObjAddr: 0x2FF0, symBinAddr: 0x1000065C4, symSize: 0xF4 }
  - { offset: 0x15FB, size: 0x8, addend: 0x0, symName: __RNvNvMs9_NtCs9f3LFPSIp77_4core3numj13unchecked_add18precondition_checkCsh9ovbnNyhRg_7autocfg, symObjAddr: 0x1A94, symBinAddr: 0x100005068, symSize: 0x4C }
  - { offset: 0x16A2, size: 0x8, addend: 0x0, symName: __RNvNvMs9_NtCs9f3LFPSIp77_4core3numj13unchecked_sub18precondition_checkCsh9ovbnNyhRg_7autocfg, symObjAddr: 0x1AE0, symBinAddr: 0x1000050B4, symSize: 0x54 }
  - { offset: 0x189E, size: 0x8, addend: 0x0, symName: __RNvNvMs3_NtCs9f3LFPSIp77_4core3numi13unchecked_neg18precondition_checkCsh9ovbnNyhRg_7autocfg, symObjAddr: 0x19FC, symBinAddr: 0x100004FD0, symSize: 0x4C }
  - { offset: 0x1935, size: 0x8, addend: 0x0, symName: __RNvNvMs7_NtCs9f3LFPSIp77_4core3numy13unchecked_add18precondition_checkCsh9ovbnNyhRg_7autocfg, symObjAddr: 0x1A48, symBinAddr: 0x10000501C, symSize: 0x4C }
  - { offset: 0x1C35, size: 0x8, addend: 0x0, symName: __RNvNvMs1_NtNtCs9f3LFPSIp77_4core3ptr8non_nullINtB7_7NonNullpE13new_unchecked18precondition_checkCsh9ovbnNyhRg_7autocfg, symObjAddr: 0x19BC, symBinAddr: 0x100004F90, symSize: 0x40 }
  - { offset: 0x1CF3, size: 0x8, addend: 0x0, symName: __RINvNtCs9f3LFPSIp77_4core3ptr14read_unalignedNtNtNtNtB4_9core_arch10arm_shared4neon9uint8x8_tECsh9ovbnNyhRg_7autocfg, symObjAddr: 0x9F8, symBinAddr: 0x100003FCC, symSize: 0x8C }
  - { offset: 0x1DC7, size: 0x8, addend: 0x0, symName: __RINvNtCs9f3LFPSIp77_4core3ptr15write_unalignedNtNtNtNtB4_9core_arch10arm_shared4neon9uint8x8_tECsh9ovbnNyhRg_7autocfg, symObjAddr: 0xA84, symBinAddr: 0x100004058, symSize: 0x70 }
  - { offset: 0x2187, size: 0x8, addend: 0x0, symName: __RINvNtCs9f3LFPSIp77_4core3ptr19swap_nonoverlappingNtNtCscXJUXcj6jCz_9hashbrown3raw13RawTableInnerECsh9ovbnNyhRg_7autocfg, symObjAddr: 0xAF4, symBinAddr: 0x1000040C8, symSize: 0x150 }
  - { offset: 0x25DD, size: 0x8, addend: 0x0, symName: __RINvNtCs9f3LFPSIp77_4core3ptr19swap_nonoverlappinghECsh9ovbnNyhRg_7autocfg, symObjAddr: 0xC44, symBinAddr: 0x100004218, symSize: 0x1E4 }
  - { offset: 0x2FC8, size: 0x8, addend: 0x0, symName: __RNvNvNtCs9f3LFPSIp77_4core3ptr13read_volatile18precondition_checkCsh9ovbnNyhRg_7autocfg, symObjAddr: 0x1B34, symBinAddr: 0x100005108, symSize: 0xEC }
  - { offset: 0x30D3, size: 0x8, addend: 0x0, symName: __RNvNvNtCs9f3LFPSIp77_4core3ptr19swap_nonoverlapping18precondition_checkCsh9ovbnNyhRg_7autocfg, symObjAddr: 0x1C20, symBinAddr: 0x1000051F4, symSize: 0x1F0 }
  - { offset: 0x3320, size: 0x8, addend: 0x0, symName: __RNvNvNtCs9f3LFPSIp77_4core3ptr7replace18precondition_checkCsh9ovbnNyhRg_7autocfg, symObjAddr: 0x1E10, symBinAddr: 0x1000053E4, symSize: 0xEC }
  - { offset: 0x45E7, size: 0x8, addend: 0x0, symName: __RNvXsP_NtCs9f3LFPSIp77_4core3fmtRNtNtCsdze8u8oDPro_5alloc6string6StringNtB5_5Debug3fmtCsh9ovbnNyhRg_7autocfg, symObjAddr: 0x29E0, symBinAddr: 0x100005FB4, symSize: 0x30 }
  - { offset: 0x462D, size: 0x8, addend: 0x0, symName: __RNvXsP_NtCs9f3LFPSIp77_4core3fmtRNtNtNtB7_3num5error12IntErrorKindNtB5_5Debug3fmtCsh9ovbnNyhRg_7autocfg, symObjAddr: 0x2A10, symBinAddr: 0x100005FE4, symSize: 0x30 }
  - { offset: 0x4673, size: 0x8, addend: 0x0, symName: __RNvXsP_NtCs9f3LFPSIp77_4core3fmtRNtNtNtB7_3num5error13ParseIntErrorNtB5_5Debug3fmtCsh9ovbnNyhRg_7autocfg, symObjAddr: 0x2A40, symBinAddr: 0x100006014, symSize: 0x30 }
  - { offset: 0x46BF, size: 0x8, addend: 0x0, symName: __RNvXso_NtCs9f3LFPSIp77_4core3fmtSNtNtCsdze8u8oDPro_5alloc6string6StringNtB5_5Debug3fmtCsh9ovbnNyhRg_7autocfg, symObjAddr: 0x3214, symBinAddr: 0x1000067E8, symSize: 0x90 }
  - { offset: 0x51D2, size: 0x8, addend: 0x0, symName: __RNvNvNtNtCs9f3LFPSIp77_4core5slice3raw14from_raw_parts18precondition_checkCsh9ovbnNyhRg_7autocfg, symObjAddr: 0x1EFC, symBinAddr: 0x1000054D0, symSize: 0x164 }
  - { offset: 0x532C, size: 0x8, addend: 0x0, symName: __RNvNvNtNtCs9f3LFPSIp77_4core5slice3raw18from_raw_parts_mut18precondition_checkCsh9ovbnNyhRg_7autocfg, symObjAddr: 0x2060, symBinAddr: 0x100005634, symSize: 0x164 }
  - { offset: 0x574B, size: 0x8, addend: 0x0, symName: __RNvXs2_NtNtCs9f3LFPSIp77_4core3str7patterncNtB5_7Pattern13into_searcherCsh9ovbnNyhRg_7autocfg, symObjAddr: 0x237C, symBinAddr: 0x100005950, symSize: 0x114 }
  - { offset: 0x5867, size: 0x8, addend: 0x0, symName: __RNvXs7_NtNtCs9f3LFPSIp77_4core3str7patternINtB5_18MultiCharEqPatternNCNvMB7_e4trim0ENtB5_7Pattern13into_searcherCsh9ovbnNyhRg_7autocfg, symObjAddr: 0x25F0, symBinAddr: 0x100005BC4, symSize: 0x90 }
  - { offset: 0x58C9, size: 0x8, addend: 0x0, symName: __RNvXs8_NtNtCs9f3LFPSIp77_4core3str7patternINtB5_19MultiCharEqSearcherNCNvMB7_e4trim0ENtB5_8Searcher4nextCsh9ovbnNyhRg_7autocfg, symObjAddr: 0x2680, symBinAddr: 0x100005C54, symSize: 0x1B0 }
  - { offset: 0x5AE6, size: 0x8, addend: 0x0, symName: __RNvXs9_NtNtCs9f3LFPSIp77_4core3str7patternINtB5_19MultiCharEqSearcherNCNvMB7_e4trim0ENtB5_15ReverseSearcher9next_backCsh9ovbnNyhRg_7autocfg, symObjAddr: 0x2830, symBinAddr: 0x100005E04, symSize: 0x1B0 }
  - { offset: 0x5D6A, size: 0x8, addend: 0x0, symName: __RNvXs_NtNtCs9f3LFPSIp77_4core3str7patternNtB4_12CharSearcherNtB4_8Searcher10next_matchCsh9ovbnNyhRg_7autocfg, symObjAddr: 0x2B10, symBinAddr: 0x1000060E4, symSize: 0x3CC }
  - { offset: 0x62E2, size: 0x8, addend: 0x0, symName: __RNvXs_NtNtCs9f3LFPSIp77_4core3str7patternNtB4_12CharSearcherNtB4_8Searcher8haystackCsh9ovbnNyhRg_7autocfg, symObjAddr: 0x2EDC, symBinAddr: 0x1000064B0, symSize: 0x20 }
  - { offset: 0x6316, size: 0x8, addend: 0x0, symName: __RNvXso_NtNtCs9f3LFPSIp77_4core3str7patternINtB5_21CharPredicateSearcherNCNvMB7_e4trim0ENtB5_8Searcher11next_rejectCsh9ovbnNyhRg_7autocfg, symObjAddr: 0x32A4, symBinAddr: 0x100006878, symSize: 0x24 }
  - { offset: 0x6353, size: 0x8, addend: 0x0, symName: __RNvXsp_NtNtCs9f3LFPSIp77_4core3str7patternINtB5_21CharPredicateSearcherNCNvMB7_e4trim0ENtB5_15ReverseSearcher16next_reject_backCsh9ovbnNyhRg_7autocfg, symObjAddr: 0x32C8, symBinAddr: 0x10000689C, symSize: 0x24 }
  - { offset: 0x6390, size: 0x8, addend: 0x0, symName: __RNvXst_NtNtCs9f3LFPSIp77_4core3str7patternReNtB5_7Pattern12is_prefix_ofCsh9ovbnNyhRg_7autocfg, symObjAddr: 0x3310, symBinAddr: 0x1000068E4, symSize: 0x4C }
  - { offset: 0x63F7, size: 0x8, addend: 0x0, symName: __RNvXst_NtNtCs9f3LFPSIp77_4core3str7patternReNtB5_7Pattern15is_contained_inCsh9ovbnNyhRg_7autocfg, symObjAddr: 0x335C, symBinAddr: 0x100006930, symSize: 0x1F8 }
  - { offset: 0x6684, size: 0x8, addend: 0x0, symName: __RNvXst_NtNtCs9f3LFPSIp77_4core3str7patternReNtB5_7Pattern15strip_suffix_ofCsh9ovbnNyhRg_7autocfg, symObjAddr: 0x3554, symBinAddr: 0x100006B28, symSize: 0xE0 }
  - { offset: 0x6891, size: 0x8, addend: 0x0, symName: __RNvXsv_NtNtCs9f3LFPSIp77_4core3str7patternNtB5_11StrSearcherNtB5_8Searcher10next_matchCsh9ovbnNyhRg_7autocfg, symObjAddr: 0x3634, symBinAddr: 0x100006C08, symSize: 0x148 }
  - { offset: 0x691C, size: 0x8, addend: 0x0, symName: __RNvXsv_NtNtCs9f3LFPSIp77_4core3str7patternNtB5_11StrSearcherNtB5_8Searcher4nextCsh9ovbnNyhRg_7autocfg, symObjAddr: 0x377C, symBinAddr: 0x100006D50, symSize: 0x44C }
  - { offset: 0x6DC4, size: 0x8, addend: 0x0, symName: __RNvXsy_NtNtCs9f3LFPSIp77_4core3str7patternNtB5_9MatchOnlyNtB5_14TwoWayStrategy16use_early_rejectCsh9ovbnNyhRg_7autocfg, symObjAddr: 0x3BC8, symBinAddr: 0x10000719C, symSize: 0xC }
  - { offset: 0x6DE2, size: 0x8, addend: 0x0, symName: __RNvXsy_NtNtCs9f3LFPSIp77_4core3str7patternNtB5_9MatchOnlyNtB5_14TwoWayStrategy8matchingCsh9ovbnNyhRg_7autocfg, symObjAddr: 0x3BD4, symBinAddr: 0x1000071A8, symSize: 0x28 }
  - { offset: 0x6E1F, size: 0x8, addend: 0x0, symName: __RNvXsy_NtNtCs9f3LFPSIp77_4core3str7patternNtB5_9MatchOnlyNtB5_14TwoWayStrategy9rejectingCsh9ovbnNyhRg_7autocfg, symObjAddr: 0x3BFC, symBinAddr: 0x1000071D0, symSize: 0x18 }
  - { offset: 0x6E62, size: 0x8, addend: 0x0, symName: __RNvXsz_NtNtCs9f3LFPSIp77_4core3str7patternNtB5_14RejectAndMatchNtB5_14TwoWayStrategy16use_early_rejectCsh9ovbnNyhRg_7autocfg, symObjAddr: 0x3C14, symBinAddr: 0x1000071E8, symSize: 0xC }
  - { offset: 0x6E80, size: 0x8, addend: 0x0, symName: __RNvXsz_NtNtCs9f3LFPSIp77_4core3str7patternNtB5_14RejectAndMatchNtB5_14TwoWayStrategy8matchingCsh9ovbnNyhRg_7autocfg, symObjAddr: 0x3C20, symBinAddr: 0x1000071F4, symSize: 0x20 }
  - { offset: 0x6EBD, size: 0x8, addend: 0x0, symName: __RNvXsz_NtNtCs9f3LFPSIp77_4core3str7patternNtB5_14RejectAndMatchNtB5_14TwoWayStrategy9rejectingCsh9ovbnNyhRg_7autocfg, symObjAddr: 0x3C40, symBinAddr: 0x100007214, symSize: 0x28 }
  - { offset: 0x6F00, size: 0x8, addend: 0x0, symName: __RNvYINtNtNtCs9f3LFPSIp77_4core3str7pattern19MultiCharEqSearcherNCNvMB7_e4trim0ENtB5_15ReverseSearcher16next_reject_backCsh9ovbnNyhRg_7autocfg, symObjAddr: 0x3C68, symBinAddr: 0x10000723C, symSize: 0x90 }
  - { offset: 0x6F6B, size: 0x8, addend: 0x0, symName: __RNvYINtNtNtCs9f3LFPSIp77_4core3str7pattern19MultiCharEqSearcherNCNvMB7_e4trim0ENtB5_8Searcher11next_rejectCsh9ovbnNyhRg_7autocfg, symObjAddr: 0x3CF8, symBinAddr: 0x1000072CC, symSize: 0x90 }
  - { offset: 0x7268, size: 0x8, addend: 0x0, symName: __RNvNvXs5_NtNtCs9f3LFPSIp77_4core3str6traitsINtNtNtBb_3ops5range5RangejEINtNtNtBb_5slice5index10SliceIndexeE13get_unchecked18precondition_checkCsh9ovbnNyhRg_7autocfg, symObjAddr: 0x21C4, symBinAddr: 0x100005798, symSize: 0x60 }
  - { offset: 0x72F7, size: 0x8, addend: 0x0, symName: __RNvXs2_NtNtCs9f3LFPSIp77_4core3str6traitseINtNtNtB9_3ops5index5IndexINtNtBJ_5range7RangeTojEE5indexCsh9ovbnNyhRg_7autocfg, symObjAddr: 0x22F4, symBinAddr: 0x1000058C8, symSize: 0x44 }
  - { offset: 0x733A, size: 0x8, addend: 0x0, symName: __RNvXs2_NtNtCs9f3LFPSIp77_4core3str6traitseINtNtNtB9_3ops5index5IndexINtNtBJ_5range9RangeFromjEE5indexCsh9ovbnNyhRg_7autocfg, symObjAddr: 0x2338, symBinAddr: 0x10000590C, symSize: 0x44 }
  - { offset: 0x7759, size: 0x8, addend: 0x0, symName: __RINvNtNtNtCs9f3LFPSIp77_4core4iter8adapters5chain17and_then_or_clearINtB2_5ChainINtNtB8_6option4IterNtNtCs27l1GJC5rMQ_3std4path7PathBufEB1g_ERB1A_NvYB14_NtNtNtB6_6traits8iterator8Iterator4nextECsh9ovbnNyhRg_7autocfg, symObjAddr: 0xE28, symBinAddr: 0x1000043FC, symSize: 0xC8 }
  - { offset: 0x789E, size: 0x8, addend: 0x0, symName: __RINvNtNtNtCs9f3LFPSIp77_4core4iter8adapters5chain17and_then_or_clearINtNtB8_6option4IterNtNtCs27l1GJC5rMQ_3std4path7PathBufERB1o_NvYB14_NtNtNtB6_6traits8iterator8Iterator4nextECsh9ovbnNyhRg_7autocfg, symObjAddr: 0xEF0, symBinAddr: 0x1000044C4, symSize: 0xC0 }
  - { offset: 0x7A4E, size: 0x8, addend: 0x0, symName: __RNCNvXs_NtNtNtCs9f3LFPSIp77_4core4iter8adapters5chainINtB6_5ChainIBQ_INtNtBc_6option4IterNtNtCs27l1GJC5rMQ_3std4path7PathBufEB15_EINtB18_8IntoIterRB1p_EENtNtNtBa_6traits8iterator8Iterator4next0Csh9ovbnNyhRg_7autocfg, symObjAddr: 0x14F0, symBinAddr: 0x100004AC4, symSize: 0x7C }
  - { offset: 0x7B25, size: 0x8, addend: 0x0, symName: __RNCNvXs_NtNtNtCs9f3LFPSIp77_4core4iter8adapters5chainINtB6_5ChainINtNtBc_6option4IterNtNtCs27l1GJC5rMQ_3std4path7PathBufEB11_ENtNtNtBa_6traits8iterator8Iterator4next0Csh9ovbnNyhRg_7autocfg, symObjAddr: 0x156C, symBinAddr: 0x100004B40, symSize: 0x7C }
  - { offset: 0x7BFD, size: 0x8, addend: 0x0, symName: __RNvXs_NtNtNtCs9f3LFPSIp77_4core4iter8adapters5chainINtB4_5ChainIBO_INtNtBa_6option4IterNtNtCs27l1GJC5rMQ_3std4path7PathBufEB13_EINtB16_8IntoIterRB1n_EENtNtNtB8_6traits8iterator8Iterator4nextCsh9ovbnNyhRg_7autocfg, symObjAddr: 0x2F2C, symBinAddr: 0x100006500, symSize: 0x30 }
  - { offset: 0x7C3B, size: 0x8, addend: 0x0, symName: __RNvXs_NtNtNtCs9f3LFPSIp77_4core4iter8adapters5chainINtB4_5ChainINtNtBa_6option4IterNtNtCs27l1GJC5rMQ_3std4path7PathBufEBZ_ENtNtNtB8_6traits8iterator8Iterator4nextCsh9ovbnNyhRg_7autocfg, symObjAddr: 0x2F5C, symBinAddr: 0x100006530, symSize: 0x30 }
  - { offset: 0x7E38, size: 0x8, addend: 0x0, symName: __RINvYINtNtNtNtCs9f3LFPSIp77_4core4iter8adapters5chain5ChainINtNtBc_6option4IterNtNtCs27l1GJC5rMQ_3std4path7PathBufEBV_ENtNtNtBa_6traits8iterator8Iterator5chainINtBY_6OptionRB1f_EECsh9ovbnNyhRg_7autocfg, symObjAddr: 0x13D0, symBinAddr: 0x1000049A4, symSize: 0xAC }
  - { offset: 0x7EBA, size: 0x8, addend: 0x0, symName: __RNvXs_NtNtNtCs9f3LFPSIp77_4core4iter6traits7collectINtNtNtB8_8adapters5chain5ChainIBO_INtNtBa_6option4IterNtNtCs27l1GJC5rMQ_3std4path7PathBufEB1m_EINtB1p_8IntoIterRB1G_EENtB4_12IntoIterator9into_iterCsh9ovbnNyhRg_7autocfg, symObjAddr: 0x2EFC, symBinAddr: 0x1000064D0, symSize: 0x30 }
  - { offset: 0x8178, size: 0x8, addend: 0x0, symName: __RNvXs2_NtNtNtCs9f3LFPSIp77_4core3ops8function5implsQNvYeNtNtCsdze8u8oDPro_5alloc6string8ToString9to_stringINtB7_6FnOnceTReEE9call_onceCsh9ovbnNyhRg_7autocfg, symObjAddr: 0x2490, symBinAddr: 0x100005A64, symSize: 0x34 }
  - { offset: 0x8605, size: 0x8, addend: 0x0, symName: __RNvNtNtNtNtCs9f3LFPSIp77_4core9core_arch7aarch644neon9generated8vcgez_s8Csh9ovbnNyhRg_7autocfg, symObjAddr: 0x18EC, symBinAddr: 0x100004EC0, symSize: 0x68 }
  - { offset: 0x86A7, size: 0x8, addend: 0x0, symName: __RNvNtNtNtNtCs9f3LFPSIp77_4core9core_arch7aarch644neon9generated8vcltz_s8Csh9ovbnNyhRg_7autocfg, symObjAddr: 0x1954, symBinAddr: 0x100004F28, symSize: 0x68 }
  - { offset: 0x8816, size: 0x8, addend: 0x0, symName: __RNvXNtCs9f3LFPSIp77_4core7convertRNtNtCsdze8u8oDPro_5alloc6string6StringINtB2_5AsRefNtNtNtCs27l1GJC5rMQ_3std3ffi6os_str5OsStrE6as_refCsh9ovbnNyhRg_7autocfg, symObjAddr: 0x2224, symBinAddr: 0x1000057F8, symSize: 0x28 }
  - { offset: 0x8D20, size: 0x8, addend: 0x0, symName: __RNvYNtNtCsh9ovbnNyhRg_7autocfg5rustc5RustcNtNtCs9f3LFPSIp77_4core5clone5Clone10clone_fromB6_, symObjAddr: 0x3D88, symBinAddr: 0x10000735C, symSize: 0x84 }
  - { offset: 0x8D6B, size: 0x8, addend: 0x0, symName: __RNvYNtNtNtCs9f3LFPSIp77_4core3num5error13ParseIntErrorNtNtB8_5error5Error5causeCsh9ovbnNyhRg_7autocfg, symObjAddr: 0x3E0C, symBinAddr: 0x1000073E0, symSize: 0x24 }
  - { offset: 0x8DA0, size: 0x8, addend: 0x0, symName: __RNvYNtNtNtCs9f3LFPSIp77_4core3num5error13ParseIntErrorNtNtB8_5error5Error6sourceCsh9ovbnNyhRg_7autocfg, symObjAddr: 0x3E30, symBinAddr: 0x100007404, symSize: 0x24 }
  - { offset: 0x8DD5, size: 0x8, addend: 0x0, symName: __RNvYNtNtNtCs9f3LFPSIp77_4core3num5error13ParseIntErrorNtNtB8_5error5Error7provideCsh9ovbnNyhRg_7autocfg, symObjAddr: 0x3E54, symBinAddr: 0x100007428, symSize: 0x18 }
  - { offset: 0x8E14, size: 0x8, addend: 0x0, symName: __RNvYNtNtNtCs9f3LFPSIp77_4core3num5error13ParseIntErrorNtNtB8_5error5Error7type_idCsh9ovbnNyhRg_7autocfg, symObjAddr: 0x3E6C, symBinAddr: 0x100007440, symSize: 0x58 }
  - { offset: 0x8F9D, size: 0x8, addend: 0x0, symName: __RNvXsU_NtNtCs27l1GJC5rMQ_3std3ffi6os_strNtNtCsdze8u8oDPro_5alloc6string6StringINtNtCs9f3LFPSIp77_4core7convert5AsRefNtB5_5OsStrE6as_refCsh9ovbnNyhRg_7autocfg, symObjAddr: 0x2A70, symBinAddr: 0x100006044, symSize: 0xA0 }
  - { offset: 0x9CD5, size: 0x8, addend: 0x0, symName: __RINvXs5_NtCsdze8u8oDPro_5alloc6stringNtB6_6StringINtNtNtNtCs9f3LFPSIp77_4core4iter6traits7collect12FromIteratorcE9from_iterINtNtNtBS_8adapters3map3MapNtNtNtBU_3str4iter5CharsNCNvCsh9ovbnNyhRg_7autocfg6mangle0EEB2Q_, symObjAddr: 0x126C, symBinAddr: 0x100004840, symSize: 0xAC }
  - { offset: 0x9DC2, size: 0x8, addend: 0x0, symName: __RINvXsb_NtCsdze8u8oDPro_5alloc6stringNtB6_6StringINtNtNtNtCs9f3LFPSIp77_4core4iter6traits7collect6ExtendcE6extendINtNtNtBS_8adapters3map3MapNtNtNtBU_3str4iter5CharsNCNvCsh9ovbnNyhRg_7autocfg6mangle0EEB2G_, symObjAddr: 0x1318, symBinAddr: 0x1000048EC, symSize: 0xB8 }
  - { offset: 0x9E63, size: 0x8, addend: 0x0, symName: __RNCINvXsb_NtCsdze8u8oDPro_5alloc6stringNtB8_6StringINtNtNtNtCs9f3LFPSIp77_4core4iter6traits7collect6ExtendcE6extendINtNtNtBU_8adapters3map3MapNtNtNtBW_3str4iter5CharsNCNvCsh9ovbnNyhRg_7autocfg6mangle0EE0B2I_, symObjAddr: 0x147C, symBinAddr: 0x100004A50, symSize: 0x2C }
  - { offset: 0x9ED2, size: 0x8, addend: 0x0, symName: __RNvXs1C_NtCsdze8u8oDPro_5alloc6stringeNtB6_8ToString9to_stringCsh9ovbnNyhRg_7autocfg, symObjAddr: 0x224C, symBinAddr: 0x100005820, symSize: 0x50 }
  - { offset: 0xA05D, size: 0x8, addend: 0x0, symName: __RNvXsq_NtCsdze8u8oDPro_5alloc6stringNtB5_6StringNtNtNtCs9f3LFPSIp77_4core3ops5deref5Deref5derefCsh9ovbnNyhRg_7autocfg, symObjAddr: 0x32EC, symBinAddr: 0x1000068C0, symSize: 0x24 }
  - { offset: 0xA091, size: 0x8, addend: 0x0, symName: __RNvXsj_NtCsdze8u8oDPro_5alloc6stringNtB5_6StringNtNtCs9f3LFPSIp77_4core3fmt7Display3fmtCsh9ovbnNyhRg_7autocfg, symObjAddr: 0x30E4, symBinAddr: 0x1000066B8, symSize: 0x98 }
  - { offset: 0xA270, size: 0x8, addend: 0x0, symName: __RNvXsk_NtCsdze8u8oDPro_5alloc6stringNtB5_6StringNtNtCs9f3LFPSIp77_4core3fmt5Debug3fmtCsh9ovbnNyhRg_7autocfg, symObjAddr: 0x317C, symBinAddr: 0x100006750, symSize: 0x98 }
  - { offset: 0xA45A, size: 0x8, addend: 0x0, symName: __RINvXNtNtCsdze8u8oDPro_5alloc5slice4hackNtNtB7_6string6StringNtB3_10ConvertVec6to_vecNtNtB7_5alloc6GlobalECsh9ovbnNyhRg_7autocfg, symObjAddr: 0xFB0, symBinAddr: 0x100004584, symSize: 0x2BC }
  - { offset: 0xA8BF, size: 0x8, addend: 0x0, symName: __RNCNvNtCsdze8u8oDPro_5alloc3fmt6format0Csh9ovbnNyhRg_7autocfg, symObjAddr: 0x14A8, symBinAddr: 0x100004A7C, symSize: 0x48 }
  - { offset: 0xA8F0, size: 0x8, addend: 0x0, symName: __RNvNtCsdze8u8oDPro_5alloc3fmt6formatCsh9ovbnNyhRg_7autocfg, symObjAddr: 0x1818, symBinAddr: 0x100004DEC, symSize: 0xD4 }
  - { offset: 0xABCE, size: 0x8, addend: 0x0, symName: __RINvMsx_NtNtCs9f3LFPSIp77_4core3str7patternNtB6_14TwoWaySearcher4nextNtB6_14RejectAndMatchECsh9ovbnNyhRg_7autocfg, symObjAddr: 0x0, symBinAddr: 0x1000035D4, symSize: 0x4FC }
  - { offset: 0xAF6F, size: 0x8, addend: 0x0, symName: __RINvMsx_NtNtCs9f3LFPSIp77_4core3str7patternNtB6_14TwoWaySearcher4nextNtB6_9MatchOnlyECsh9ovbnNyhRg_7autocfg, symObjAddr: 0x4FC, symBinAddr: 0x100003AD0, symSize: 0x4FC }
  - { offset: 0xB3FF, size: 0x8, addend: 0x0, symName: __RNvXs1_NtCscXJUXcj6jCz_9hashbrown10scopeguardINtB5_10ScopeGuardNtNtB7_3raw13RawTableInnerNCINvMsa_B11_BZ_14prepare_resizeNtNtCsdze8u8oDPro_5alloc5alloc6GlobalE0ENtNtNtCs9f3LFPSIp77_4core3ops4drop4Drop4dropCsh9ovbnNyhRg_7autocfg, symObjAddr: 0x229C, symBinAddr: 0x100005870, symSize: 0x2C }
  - { offset: 0xB439, size: 0x8, addend: 0x0, symName: __RNvXs1_NtCscXJUXcj6jCz_9hashbrown10scopeguardINtB5_10ScopeGuardQNtNtB7_3raw13RawTableInnerNCNvMsa_B12_B10_15rehash_in_place0ENtNtNtCs9f3LFPSIp77_4core3ops4drop4Drop4dropCsh9ovbnNyhRg_7autocfg, symObjAddr: 0x22C8, symBinAddr: 0x10000589C, symSize: 0x2C }
  - { offset: 0xBBD9, size: 0x8, addend: 0x0, symName: __RNvMNtCsdze8u8oDPro_5alloc6stringNtB2_6String4pushCsh9ovbnNyhRg_7autocfg, symObjAddr: 0x15E8, symBinAddr: 0x100004BBC, symSize: 0x180 }
  - { offset: 0xC0A9, size: 0x8, addend: 0x0, symName: __RNvMNtCsdze8u8oDPro_5alloc6stringNtB2_6String6as_strCsh9ovbnNyhRg_7autocfg, symObjAddr: 0x1768, symBinAddr: 0x100004D3C, symSize: 0x88 }
  - { offset: 0xC264, size: 0x8, addend: 0x0, symName: __RNvMNtCsdze8u8oDPro_5alloc6stringNtB2_6String8is_emptyCsh9ovbnNyhRg_7autocfg, symObjAddr: 0x17F0, symBinAddr: 0x100004DC4, symSize: 0x28 }
  - { offset: 0xCC83, size: 0x8, addend: 0x0, symName: __RNCNvMNtCsh9ovbnNyhRg_7autocfg5rustcNtB4_5Rustc3new0B6_, symObjAddr: 0x3FD8, symBinAddr: 0x1000075AC, symSize: 0x44 }
  - { offset: 0xCCB4, size: 0x8, addend: 0x0, symName: __RNvNtCsh9ovbnNyhRg_7autocfg5rustc17get_rustc_wrapper, symObjAddr: 0x45CC, symBinAddr: 0x100007BA0, symSize: 0x304 }
  - { offset: 0xCD11, size: 0x8, addend: 0x0, symName: __RNvXs_NtCsh9ovbnNyhRg_7autocfg5rustcNtB4_5RustcNtNtCs9f3LFPSIp77_4core5clone5Clone5cloneB6_, symObjAddr: 0x48D0, symBinAddr: 0x100007EA4, symSize: 0xCC }
  - { offset: 0xCD43, size: 0x8, addend: 0x0, symName: __RNvXs0_NtCsh9ovbnNyhRg_7autocfg5rustcNtB5_5RustcNtNtCs9f3LFPSIp77_4core3fmt5Debug3fmtB7_, symObjAddr: 0x499C, symBinAddr: 0x100007F70, symSize: 0xB4 }
  - { offset: 0xCEA0, size: 0x8, addend: 0x0, symName: __RNvMNtCsh9ovbnNyhRg_7autocfg5rustcNtB2_5Rustc3new, symObjAddr: 0x3EC4, symBinAddr: 0x100007498, symSize: 0x114 }
  - { offset: 0xD02A, size: 0x8, addend: 0x0, symName: __RNvMNtCsh9ovbnNyhRg_7autocfg5rustcNtB2_5Rustc7command, symObjAddr: 0x401C, symBinAddr: 0x1000075F0, symSize: 0x1B4 }
  - { offset: 0xD122, size: 0x8, addend: 0x0, symName: __RNvMNtCsh9ovbnNyhRg_7autocfg5rustcNtB2_5Rustc7version, symObjAddr: 0x41D0, symBinAddr: 0x1000077A4, symSize: 0x3FC }
  - { offset: 0xD3FC, size: 0x8, addend: 0x0, symName: __RINvMs6_NtCscXJUXcj6jCz_9hashbrown3rawINtB6_8RawTableTyuEE14reserve_rehashNCINvNtB8_3map11make_hasheryuNtNtNtCs27l1GJC5rMQ_3std4hash6random11RandomStateE0ECsh9ovbnNyhRg_7autocfg, symObjAddr: 0x0, symBinAddr: 0x1000AB218, symSize: 0x90C }
  - { offset: 0xD438, size: 0x8, addend: 0x0, symName: __RNCINvMs6_NtCscXJUXcj6jCz_9hashbrown3rawINtB8_8RawTableTyuEE14reserve_rehashNCINvNtBa_3map11make_hasheryuNtNtNtCs27l1GJC5rMQ_3std4hash6random11RandomStateE0E0Csh9ovbnNyhRg_7autocfg, symObjAddr: 0x1214, symBinAddr: 0x10000892C, symSize: 0xC4 }
  - { offset: 0xD607, size: 0x8, addend: 0x0, symName: __RNCINvMs6_NtCscXJUXcj6jCz_9hashbrown3rawINtB8_8RawTableTyuEE24find_or_find_insert_slotNCINvNtBa_3map14equivalent_keyyyuE0NCINvB1r_11make_hasheryuNtNtNtCs27l1GJC5rMQ_3std4hash6random11RandomStateE0E0Csh9ovbnNyhRg_7autocfg, symObjAddr: 0x12D8, symBinAddr: 0x1000089F0, symSize: 0xC8 }
  - { offset: 0xE12A, size: 0x8, addend: 0x0, symName: __RNCINvMsa_NtCscXJUXcj6jCz_9hashbrown3rawNtB8_13RawTableInner14prepare_resizeNtNtCsdze8u8oDPro_5alloc5alloc6GlobalE0Csh9ovbnNyhRg_7autocfg, symObjAddr: 0x13A0, symBinAddr: 0x100008AB8, symSize: 0xBC }
  - { offset: 0xE30B, size: 0x8, addend: 0x0, symName: __RNCNvMsa_NtCscXJUXcj6jCz_9hashbrown3rawNtB7_13RawTableInner15rehash_in_place0Csh9ovbnNyhRg_7autocfg, symObjAddr: 0x145C, symBinAddr: 0x100008B74, symSize: 0x260 }
  - { offset: 0xEBF9, size: 0x8, addend: 0x0, symName: __RNvNtCscXJUXcj6jCz_9hashbrown3raw19capacity_to_bucketsCsh9ovbnNyhRg_7autocfg, symObjAddr: 0x2BBC, symBinAddr: 0x10000A2D4, symSize: 0x1A4 }
  - { offset: 0xEDBD, size: 0x8, addend: 0x0, symName: __RNvXsB_NtCscXJUXcj6jCz_9hashbrown3rawINtB5_11RawIntoIterTyuEENtNtNtCs9f3LFPSIp77_4core3ops4drop4Drop4dropCsh9ovbnNyhRg_7autocfg, symObjAddr: 0x2D60, symBinAddr: 0x10000A478, symSize: 0x78 }
  - { offset: 0xEE79, size: 0x8, addend: 0x0, symName: __RNvXsD_NtCscXJUXcj6jCz_9hashbrown3rawINtB5_11RawIntoIterTyuEENtNtNtNtCs9f3LFPSIp77_4core4iter6traits8iterator8Iterator4nextCsh9ovbnNyhRg_7autocfg, symObjAddr: 0x2DD8, symBinAddr: 0x10000A4F0, symSize: 0xFC }
  - { offset: 0xF018, size: 0x8, addend: 0x0, symName: __RNvXsg_NtCscXJUXcj6jCz_9hashbrown3rawINtB5_8RawTableTyuEENtNtNtCs9f3LFPSIp77_4core3ops4drop4Drop4dropCsh9ovbnNyhRg_7autocfg, symObjAddr: 0x2ED4, symBinAddr: 0x10000A5EC, symSize: 0x38 }
  - { offset: 0xF080, size: 0x8, addend: 0x0, symName: __RNvXsh_NtCscXJUXcj6jCz_9hashbrown3rawINtB5_8RawTableTyuEENtNtNtNtCs9f3LFPSIp77_4core4iter6traits7collect12IntoIterator9into_iterCsh9ovbnNyhRg_7autocfg, symObjAddr: 0x2F0C, symBinAddr: 0x10000A624, symSize: 0x11C }
  - { offset: 0x121AA, size: 0x8, addend: 0x0, symName: __RINvMs6_NtCscXJUXcj6jCz_9hashbrown3rawINtB6_8RawTableTyuEE14reserve_rehashNCINvNtB8_3map11make_hasheryuNtNtNtCs27l1GJC5rMQ_3std4hash6random11RandomStateE0ECsh9ovbnNyhRg_7autocfg, symObjAddr: 0x0, symBinAddr: 0x1000AB218, symSize: 0x90C }
  - { offset: 0x12D97, size: 0x8, addend: 0x0, symName: __RINvMs6_NtCscXJUXcj6jCz_9hashbrown3rawINtB6_8RawTableTyuEE24find_or_find_insert_slotNCINvNtB8_3map14equivalent_keyyyuE0NCINvB1p_11make_hasheryuNtNtNtCs27l1GJC5rMQ_3std4hash6random11RandomStateE0ECsh9ovbnNyhRg_7autocfg, symObjAddr: 0x90C, symBinAddr: 0x100008024, symSize: 0x140 }
  - { offset: 0x12F8C, size: 0x8, addend: 0x0, symName: __RINvMs6_NtCscXJUXcj6jCz_9hashbrown3rawINtB6_8RawTableTyuEE7reserveNCINvNtB8_3map11make_hasheryuNtNtNtCs27l1GJC5rMQ_3std4hash6random11RandomStateE0ECsh9ovbnNyhRg_7autocfg, symObjAddr: 0xA4C, symBinAddr: 0x100008164, symSize: 0xCC }
  - { offset: 0x130E1, size: 0x8, addend: 0x0, symName: __RINvMsa_NtCscXJUXcj6jCz_9hashbrown3rawNtB6_13RawTableInner13drop_elementsTyuEECsh9ovbnNyhRg_7autocfg, symObjAddr: 0xB18, symBinAddr: 0x100008230, symSize: 0x28 }
  - { offset: 0x1346E, size: 0x8, addend: 0x0, symName: __RINvMsa_NtCscXJUXcj6jCz_9hashbrown3rawNtB6_13RawTableInner16drop_inner_tableTyuENtNtCsdze8u8oDPro_5alloc5alloc6GlobalECsh9ovbnNyhRg_7autocfg, symObjAddr: 0xB40, symBinAddr: 0x100008258, symSize: 0xBC }
  - { offset: 0x13680, size: 0x8, addend: 0x0, symName: __RINvMsa_NtCscXJUXcj6jCz_9hashbrown3rawNtB6_13RawTableInner17new_uninitializedNtNtCsdze8u8oDPro_5alloc5alloc6GlobalECsh9ovbnNyhRg_7autocfg, symObjAddr: 0xBFC, symBinAddr: 0x100008314, symSize: 0x1B0 }
  - { offset: 0x138C3, size: 0x8, addend: 0x0, symName: __RINvMsa_NtCscXJUXcj6jCz_9hashbrown3rawNtB6_13RawTableInner22fallible_with_capacityNtNtCsdze8u8oDPro_5alloc5alloc6GlobalECsh9ovbnNyhRg_7autocfg, symObjAddr: 0xDAC, symBinAddr: 0x1000084C4, symSize: 0x2A0 }
  - { offset: 0x13D02, size: 0x8, addend: 0x0, symName: __RINvMsi_NtCscXJUXcj6jCz_9hashbrown3rawINtB6_12RawIterRangeTyuEE9next_implKb0_ECsh9ovbnNyhRg_7autocfg, symObjAddr: 0x104C, symBinAddr: 0x100008764, symSize: 0x1C8 }
  - { offset: 0x14487, size: 0x8, addend: 0x0, symName: __RNvMs1_NtCscXJUXcj6jCz_9hashbrown3rawNtB5_11TableLayout20calculate_layout_forCsh9ovbnNyhRg_7autocfg, symObjAddr: 0x16BC, symBinAddr: 0x100008DD4, symSize: 0x224 }
  - { offset: 0x1492F, size: 0x8, addend: 0x0, symName: __RNvMs6_NtCscXJUXcj6jCz_9hashbrown3rawINtB5_8RawTableTyuEE14insert_in_slotCsh9ovbnNyhRg_7autocfg, symObjAddr: 0x18E0, symBinAddr: 0x100008FF8, symSize: 0x180 }
  - { offset: 0x14DD6, size: 0x8, addend: 0x0, symName: __RNvMs6_NtCscXJUXcj6jCz_9hashbrown3rawINtB5_8RawTableTyuEE14into_iter_fromCsh9ovbnNyhRg_7autocfg, symObjAddr: 0x1A60, symBinAddr: 0x100009178, symSize: 0x90 }
  - { offset: 0x14EC1, size: 0x8, addend: 0x0, symName: __RNvMs6_NtCscXJUXcj6jCz_9hashbrown3rawINtB5_8RawTableTyuEE15into_allocationCsh9ovbnNyhRg_7autocfg, symObjAddr: 0x1AF0, symBinAddr: 0x100009208, symSize: 0x138 }
  - { offset: 0x1510F, size: 0x8, addend: 0x0, symName: __RNvMsa_NtCscXJUXcj6jCz_9hashbrown3rawNtB5_13RawTableInner15fix_insert_slotCsh9ovbnNyhRg_7autocfg, symObjAddr: 0x1C28, symBinAddr: 0x100009340, symSize: 0x118 }
  - { offset: 0x1557E, size: 0x8, addend: 0x0, symName: __RNvMsa_NtCscXJUXcj6jCz_9hashbrown3rawNtB5_13RawTableInner15rehash_in_placeCsh9ovbnNyhRg_7autocfg, symObjAddr: 0x1D40, symBinAddr: 0x100009458, symSize: 0x574 }
  - { offset: 0x160AD, size: 0x8, addend: 0x0, symName: __RNvMsa_NtCscXJUXcj6jCz_9hashbrown3rawNtB5_13RawTableInner16find_insert_slotCsh9ovbnNyhRg_7autocfg, symObjAddr: 0x22B4, symBinAddr: 0x1000099CC, symSize: 0x168 }
  - { offset: 0x16405, size: 0x8, addend: 0x0, symName: __RNvMsa_NtCscXJUXcj6jCz_9hashbrown3rawNtB5_13RawTableInner23prepare_rehash_in_placeCsh9ovbnNyhRg_7autocfg, symObjAddr: 0x241C, symBinAddr: 0x100009B34, symSize: 0x25C }
  - { offset: 0x16ABB, size: 0x8, addend: 0x0, symName: __RNvMsa_NtCscXJUXcj6jCz_9hashbrown3rawNtB5_13RawTableInner25find_insert_slot_in_groupCsh9ovbnNyhRg_7autocfg, symObjAddr: 0x2678, symBinAddr: 0x100009D90, symSize: 0x184 }
  - { offset: 0x16DC4, size: 0x8, addend: 0x0, symName: __RNvMsa_NtCscXJUXcj6jCz_9hashbrown3rawNtB5_13RawTableInner30find_or_find_insert_slot_innerCsh9ovbnNyhRg_7autocfg, symObjAddr: 0x27FC, symBinAddr: 0x100009F14, symSize: 0x300 }
  - { offset: 0x1719C, size: 0x8, addend: 0x0, symName: __RNvMsi_NtCscXJUXcj6jCz_9hashbrown3rawINtB5_12RawIterRangeTyuEE3newCsh9ovbnNyhRg_7autocfg, symObjAddr: 0x2AFC, symBinAddr: 0x10000A214, symSize: 0xA4 }
  - { offset: 0x1738D, size: 0x8, addend: 0x0, symName: __RNvMso_NtCscXJUXcj6jCz_9hashbrown3rawINtB5_7RawIterTyuEE13drop_elementsCsh9ovbnNyhRg_7autocfg, symObjAddr: 0x2BA0, symBinAddr: 0x10000A2B8, symSize: 0x1C }
  - { offset: 0x175CA, size: 0x8, addend: 0x0, symName: __RINvMNtCs9f3LFPSIp77_4core6optionINtB3_6OptionNtNtCs27l1GJC5rMQ_3std4path7PathBufE14unwrap_or_elseNCNCNCNvCsh9ovbnNyhRg_7autocfg19dir_contains_target000EB1G_, symObjAddr: 0x0, symBinAddr: 0x10000A740, symSize: 0x70 }
  - { offset: 0x18AF3, size: 0x8, addend: 0x0, symName: __RNvXs3_NtCs9f3LFPSIp77_4core6optionINtB5_6OptionNtNtCs27l1GJC5rMQ_3std4path7PathBufENtNtB7_5clone5Clone5cloneCsh9ovbnNyhRg_7autocfg, symObjAddr: 0x32E4, symBinAddr: 0x10000DA24, symSize: 0x7C }
  - { offset: 0x18B48, size: 0x8, addend: 0x0, symName: __RNvXs3_NtCs9f3LFPSIp77_4core6optionINtB5_6OptionNtNtNtCs27l1GJC5rMQ_3std3ffi6os_str8OsStringENtNtB7_5clone5Clone5cloneCsh9ovbnNyhRg_7autocfg, symObjAddr: 0x3360, symBinAddr: 0x10000DAA0, symSize: 0x7C }
  - { offset: 0x18BA3, size: 0x8, addend: 0x0, symName: __RNvXs5_NtCs9f3LFPSIp77_4core6optionINtB5_6OptionRNtNtCs27l1GJC5rMQ_3std4path7PathBufENtNtNtNtB7_4iter6traits7collect12IntoIterator9into_iterCsh9ovbnNyhRg_7autocfg, symObjAddr: 0x33DC, symBinAddr: 0x10000DB1C, symSize: 0x14 }
  - { offset: 0x18BE0, size: 0x8, addend: 0x0, symName: __RNvXsI_NtCs9f3LFPSIp77_4core6optionINtB5_6OptionNtNtCs27l1GJC5rMQ_3std4path7PathBufENtNtB7_3fmt5Debug3fmtCsh9ovbnNyhRg_7autocfg, symObjAddr: 0x3478, symBinAddr: 0x10000DBB8, symSize: 0xA0 }
  - { offset: 0x18C44, size: 0x8, addend: 0x0, symName: __RNvXsI_NtCs9f3LFPSIp77_4core6optionINtB5_6OptionNtNtNtCs27l1GJC5rMQ_3std3ffi6os_str8OsStringENtNtB7_3fmt5Debug3fmtCsh9ovbnNyhRg_7autocfg, symObjAddr: 0x3518, symBinAddr: 0x10000DC58, symSize: 0xA0 }
  - { offset: 0x18CA8, size: 0x8, addend: 0x0, symName: __RNvXsI_NtCs9f3LFPSIp77_4core6optionINtB5_6OptionhENtNtB7_3fmt5Debug3fmtCsh9ovbnNyhRg_7autocfg, symObjAddr: 0x35B8, symBinAddr: 0x10000DCF8, symSize: 0x98 }
  - { offset: 0x18E92, size: 0x8, addend: 0x0, symName: __RNvXsc_NtCs9f3LFPSIp77_4core6optionINtB5_6OptionNtNtNtCs27l1GJC5rMQ_3std3ffi6os_str8OsStringENtNtB7_3cmp9PartialEq2eqCsh9ovbnNyhRg_7autocfg, symObjAddr: 0x39FC, symBinAddr: 0x10000E13C, symSize: 0xC4 }
  - { offset: 0x18F60, size: 0x8, addend: 0x0, symName: __RNvXsk_NtCs9f3LFPSIp77_4core6optionINtB5_4IterNtNtCs27l1GJC5rMQ_3std4path7PathBufENtNtNtNtB7_4iter6traits8iterator8Iterator4nextCsh9ovbnNyhRg_7autocfg, symObjAddr: 0x3AC0, symBinAddr: 0x10000E200, symSize: 0x3C }
  - { offset: 0x19031, size: 0x8, addend: 0x0, symName: __RNvXsv_NtCs9f3LFPSIp77_4core6optionINtB5_8IntoIterRNtNtCs27l1GJC5rMQ_3std4path7PathBufENtNtNtNtB7_4iter6traits8iterator8Iterator4nextCsh9ovbnNyhRg_7autocfg, symObjAddr: 0x3B28, symBinAddr: 0x10000E268, symSize: 0x3C }
  - { offset: 0x19B1B, size: 0x8, addend: 0x0, symName: __RINvNtCs9f3LFPSIp77_4core3ptr13drop_in_placeDINtNtNtB4_3ops8function5FnMutuEp6OutputINtNtB4_6result6ResultuNtNtNtCs27l1GJC5rMQ_3std2io5error5ErrorENtNtB4_6marker4SendNtB2n_4SyncEL_ECsh9ovbnNyhRg_7autocfg, symObjAddr: 0xA18, symBinAddr: 0x10000B158, symSize: 0x48 }
  - { offset: 0x19B4A, size: 0x8, addend: 0x0, symName: __RINvNtCs9f3LFPSIp77_4core3ptr13drop_in_placeDNtNtB4_5error5ErrorNtNtB4_6marker4SendNtB12_4SyncEL_ECsh9ovbnNyhRg_7autocfg, symObjAddr: 0xA60, symBinAddr: 0x10000B1A0, symSize: 0x48 }
  - { offset: 0x19B79, size: 0x8, addend: 0x0, symName: __RINvNtCs9f3LFPSIp77_4core3ptr13drop_in_placeINtNtB4_6option6OptionINtNtCsdze8u8oDPro_5alloc5boxed3BoxSmEEECsh9ovbnNyhRg_7autocfg, symObjAddr: 0xAA8, symBinAddr: 0x10000B1E8, symSize: 0x44 }
  - { offset: 0x19BA8, size: 0x8, addend: 0x0, symName: __RINvNtCs9f3LFPSIp77_4core3ptr13drop_in_placeINtNtB4_6option6OptionNtNtCs27l1GJC5rMQ_3std4path7PathBufEECsh9ovbnNyhRg_7autocfg, symObjAddr: 0xAEC, symBinAddr: 0x10000B22C, symSize: 0x48 }
  - { offset: 0x19BD7, size: 0x8, addend: 0x0, symName: __RINvNtCs9f3LFPSIp77_4core3ptr13drop_in_placeINtNtB4_6option6OptionNtNtCs27l1GJC5rMQ_3std7process10ChildStdinEECsh9ovbnNyhRg_7autocfg, symObjAddr: 0xB34, symBinAddr: 0x10000B274, symSize: 0x44 }
  - { offset: 0x19C06, size: 0x8, addend: 0x0, symName: __RINvNtCs9f3LFPSIp77_4core3ptr13drop_in_placeINtNtB4_6option6OptionNtNtCs27l1GJC5rMQ_3std7process11ChildStderrEECsh9ovbnNyhRg_7autocfg, symObjAddr: 0xB78, symBinAddr: 0x10000B2B8, symSize: 0x44 }
  - { offset: 0x19C35, size: 0x8, addend: 0x0, symName: __RINvNtCs9f3LFPSIp77_4core3ptr13drop_in_placeINtNtB4_6option6OptionNtNtCs27l1GJC5rMQ_3std7process11ChildStdoutEECsh9ovbnNyhRg_7autocfg, symObjAddr: 0xBBC, symBinAddr: 0x10000B2FC, symSize: 0x44 }
  - { offset: 0x19C64, size: 0x8, addend: 0x0, symName: __RINvNtCs9f3LFPSIp77_4core3ptr13drop_in_placeINtNtB4_6option6OptionNtNtCsdze8u8oDPro_5alloc6string6StringEECsh9ovbnNyhRg_7autocfg, symObjAddr: 0xC00, symBinAddr: 0x10000B340, symSize: 0x48 }
  - { offset: 0x19C93, size: 0x8, addend: 0x0, symName: __RINvNtCs9f3LFPSIp77_4core3ptr13drop_in_placeINtNtB4_6option6OptionNtNtNtCs27l1GJC5rMQ_3std3ffi6os_str8OsStringEECsh9ovbnNyhRg_7autocfg, symObjAddr: 0xC48, symBinAddr: 0x10000B388, symSize: 0x48 }
  - { offset: 0x19CC2, size: 0x8, addend: 0x0, symName: __RINvNtCs9f3LFPSIp77_4core3ptr13drop_in_placeINtNtB4_6option6OptionNtNtNtCsdze8u8oDPro_5alloc3ffi5c_str7CStringEECsh9ovbnNyhRg_7autocfg, symObjAddr: 0xC90, symBinAddr: 0x10000B3D0, symSize: 0x44 }
  - { offset: 0x19CF1, size: 0x8, addend: 0x0, symName: __RINvNtCs9f3LFPSIp77_4core3ptr13drop_in_placeINtNtB4_6option6OptionNtNtNtNtNtNtCs27l1GJC5rMQ_3std3sys3pal4unix7process14process_common5StdioEECsh9ovbnNyhRg_7autocfg, symObjAddr: 0xCD4, symBinAddr: 0x10000B414, symSize: 0x44 }
  - { offset: 0x19D20, size: 0x8, addend: 0x0, symName: __RINvNtCs9f3LFPSIp77_4core3ptr13drop_in_placeINtNtB4_6result6ResultNtNtCsdze8u8oDPro_5alloc6string6StringNtNtCs27l1GJC5rMQ_3std3env8VarErrorEECsh9ovbnNyhRg_7autocfg, symObjAddr: 0xD18, symBinAddr: 0x10000B458, symSize: 0x50 }
  - { offset: 0x19D4F, size: 0x8, addend: 0x0, symName: __RINvNtCs9f3LFPSIp77_4core3ptr13drop_in_placeINtNtB4_6result6ResultNtNtCsh9ovbnNyhRg_7autocfg7version7VersionNtNtB16_5error5ErrorEEB16_, symObjAddr: 0xD68, symBinAddr: 0x10000B4A8, symSize: 0x40 }
  - { offset: 0x19D7E, size: 0x8, addend: 0x0, symName: __RINvNtCs9f3LFPSIp77_4core3ptr13drop_in_placeINtNtB4_6result6ResultuNtNtCsh9ovbnNyhRg_7autocfg5error5ErrorEEB17_, symObjAddr: 0xDA8, symBinAddr: 0x10000B4E8, symSize: 0x44 }
  - { offset: 0x19DAD, size: 0x8, addend: 0x0, symName: __RINvNtCs9f3LFPSIp77_4core3ptr13drop_in_placeINtNtB4_6result6ResultuNtNtNtCs27l1GJC5rMQ_3std2io5error5ErrorEECsh9ovbnNyhRg_7autocfg, symObjAddr: 0xDEC, symBinAddr: 0x10000B52C, symSize: 0x44 }
  - { offset: 0x19DDC, size: 0x8, addend: 0x0, symName: __RINvNtCs9f3LFPSIp77_4core3ptr13drop_in_placeINtNtCscXJUXcj6jCz_9hashbrown10scopeguard10ScopeGuardNtNtBL_3raw13RawTableInnerNCINvMsa_B1z_B1x_14prepare_resizeNtNtCsdze8u8oDPro_5alloc5alloc6GlobalE0EECsh9ovbnNyhRg_7autocfg, symObjAddr: 0xE30, symBinAddr: 0x10000B570, symSize: 0x24 }
  - { offset: 0x19E0B, size: 0x8, addend: 0x0, symName: __RINvNtCs9f3LFPSIp77_4core3ptr13drop_in_placeINtNtCscXJUXcj6jCz_9hashbrown10scopeguard10ScopeGuardQNtNtBL_3raw13RawTableInnerNCNvMsa_B1A_B1y_15rehash_in_place0EECsh9ovbnNyhRg_7autocfg, symObjAddr: 0xE54, symBinAddr: 0x10000B594, symSize: 0x24 }
  - { offset: 0x19E3A, size: 0x8, addend: 0x0, symName: __RINvNtCs9f3LFPSIp77_4core3ptr13drop_in_placeINtNtCscXJUXcj6jCz_9hashbrown3map7HashMapyuNtNtNtCs27l1GJC5rMQ_3std4hash6random11RandomStateEECsh9ovbnNyhRg_7autocfg, symObjAddr: 0xE78, symBinAddr: 0x10000B5B8, symSize: 0x24 }
  - { offset: 0x19E69, size: 0x8, addend: 0x0, symName: __RINvNtCs9f3LFPSIp77_4core3ptr13drop_in_placeINtNtCscXJUXcj6jCz_9hashbrown3map8IntoIteryuEECsh9ovbnNyhRg_7autocfg, symObjAddr: 0xE9C, symBinAddr: 0x10000B5DC, symSize: 0x24 }
  - { offset: 0x19E98, size: 0x8, addend: 0x0, symName: __RINvNtCs9f3LFPSIp77_4core3ptr13drop_in_placeINtNtCscXJUXcj6jCz_9hashbrown3raw11RawIntoIterTyuEEECsh9ovbnNyhRg_7autocfg, symObjAddr: 0xEC0, symBinAddr: 0x10000B600, symSize: 0x24 }
  - { offset: 0x19EC7, size: 0x8, addend: 0x0, symName: __RINvNtCs9f3LFPSIp77_4core3ptr13drop_in_placeINtNtCscXJUXcj6jCz_9hashbrown3raw8RawTableTyuEEECsh9ovbnNyhRg_7autocfg, symObjAddr: 0xEE4, symBinAddr: 0x10000B624, symSize: 0x24 }
  - { offset: 0x19EF6, size: 0x8, addend: 0x0, symName: __RINvNtCs9f3LFPSIp77_4core3ptr13drop_in_placeINtNtCscXJUXcj6jCz_9hashbrown3set7HashSetyNtNtNtCs27l1GJC5rMQ_3std4hash6random11RandomStateEECsh9ovbnNyhRg_7autocfg, symObjAddr: 0xF08, symBinAddr: 0x10000B648, symSize: 0x24 }
  - { offset: 0x19F25, size: 0x8, addend: 0x0, symName: __RINvNtCs9f3LFPSIp77_4core3ptr13drop_in_placeINtNtCscXJUXcj6jCz_9hashbrown3set8IntoIteryEECsh9ovbnNyhRg_7autocfg, symObjAddr: 0xF2C, symBinAddr: 0x10000B66C, symSize: 0x24 }
  - { offset: 0x19F54, size: 0x8, addend: 0x0, symName: __RINvNtCs9f3LFPSIp77_4core3ptr13drop_in_placeINtNtCsdze8u8oDPro_5alloc3vec3VecINtNtBL_5boxed3BoxDINtNtNtB4_3ops8function5FnMutuEp6OutputINtNtB4_6result6ResultuNtNtNtCs27l1GJC5rMQ_3std2io5error5ErrorENtNtB4_6marker4SendNtB3c_4SyncEL_EEECsh9ovbnNyhRg_7autocfg, symObjAddr: 0xF50, symBinAddr: 0x10000B690, symSize: 0x5C }
  - { offset: 0x19F83, size: 0x8, addend: 0x0, symName: __RINvNtCs9f3LFPSIp77_4core3ptr13drop_in_placeINtNtCsdze8u8oDPro_5alloc3vec3VecNtNtBL_6string6StringEECsh9ovbnNyhRg_7autocfg, symObjAddr: 0xFAC, symBinAddr: 0x10000B6EC, symSize: 0x5C }
  - { offset: 0x19FB2, size: 0x8, addend: 0x0, symName: __RINvNtCs9f3LFPSIp77_4core3ptr13drop_in_placeINtNtCsdze8u8oDPro_5alloc3vec3VecNtNtNtBL_3ffi5c_str7CStringEECsh9ovbnNyhRg_7autocfg, symObjAddr: 0x1008, symBinAddr: 0x10000B748, symSize: 0x5C }
  - { offset: 0x19FE1, size: 0x8, addend: 0x0, symName: __RINvNtCs9f3LFPSIp77_4core3ptr13drop_in_placeINtNtCsdze8u8oDPro_5alloc3vec3VecPaEECsh9ovbnNyhRg_7autocfg, symObjAddr: 0x1064, symBinAddr: 0x10000B7A4, symSize: 0x5C }
  - { offset: 0x1A010, size: 0x8, addend: 0x0, symName: __RINvNtCs9f3LFPSIp77_4core3ptr13drop_in_placeINtNtCsdze8u8oDPro_5alloc3vec3VechEECsh9ovbnNyhRg_7autocfg, symObjAddr: 0x10C0, symBinAddr: 0x10000B800, symSize: 0x5C }
  - { offset: 0x1A03F, size: 0x8, addend: 0x0, symName: __RINvNtCs9f3LFPSIp77_4core3ptr13drop_in_placeINtNtCsdze8u8oDPro_5alloc5boxed3BoxDINtNtNtB4_3ops8function5FnMutuEp6OutputINtNtB4_6result6ResultuNtNtNtCs27l1GJC5rMQ_3std2io5error5ErrorENtNtB4_6marker4SendNtB2W_4SyncEL_EECsh9ovbnNyhRg_7autocfg, symObjAddr: 0x111C, symBinAddr: 0x10000B85C, symSize: 0x80 }
  - { offset: 0x1A06E, size: 0x8, addend: 0x0, symName: __RINvNtCs9f3LFPSIp77_4core3ptr13drop_in_placeINtNtCsdze8u8oDPro_5alloc5boxed3BoxDNtNtB4_5error5ErrorNtNtB4_6marker4SendNtB1B_4SyncEL_EECsh9ovbnNyhRg_7autocfg, symObjAddr: 0x119C, symBinAddr: 0x10000B8DC, symSize: 0x80 }
  - { offset: 0x1A09D, size: 0x8, addend: 0x0, symName: __RINvNtCs9f3LFPSIp77_4core3ptr13drop_in_placeINtNtCsdze8u8oDPro_5alloc5boxed3BoxNtNtNtCs27l1GJC5rMQ_3std2io5error6CustomEECsh9ovbnNyhRg_7autocfg, symObjAddr: 0x121C, symBinAddr: 0x10000B95C, symSize: 0x60 }
  - { offset: 0x1A0CC, size: 0x8, addend: 0x0, symName: __RINvNtCs9f3LFPSIp77_4core3ptr13drop_in_placeINtNtCsdze8u8oDPro_5alloc5boxed3BoxShEECsh9ovbnNyhRg_7autocfg, symObjAddr: 0x127C, symBinAddr: 0x10000B9BC, symSize: 0x2C }
  - { offset: 0x1A0FB, size: 0x8, addend: 0x0, symName: __RINvNtCs9f3LFPSIp77_4core3ptr13drop_in_placeINtNtCsdze8u8oDPro_5alloc5boxed3BoxSmEECsh9ovbnNyhRg_7autocfg, symObjAddr: 0x12A8, symBinAddr: 0x10000B9E8, symSize: 0x2C }
  - { offset: 0x1A12A, size: 0x8, addend: 0x0, symName: __RINvNtCs9f3LFPSIp77_4core3ptr13drop_in_placeINtNtCsdze8u8oDPro_5alloc7raw_vec6RawVecINtNtBL_5boxed3BoxDINtNtNtB4_3ops8function5FnMutuEp6OutputINtNtB4_6result6ResultuNtNtNtCs27l1GJC5rMQ_3std2io5error5ErrorENtNtB4_6marker4SendNtB3j_4SyncEL_EEECsh9ovbnNyhRg_7autocfg, symObjAddr: 0x12D4, symBinAddr: 0x10000BA14, symSize: 0x24 }
  - { offset: 0x1A159, size: 0x8, addend: 0x0, symName: __RINvNtCs9f3LFPSIp77_4core3ptr13drop_in_placeINtNtCsdze8u8oDPro_5alloc7raw_vec6RawVecNtNtBL_6string6StringEECsh9ovbnNyhRg_7autocfg, symObjAddr: 0x12F8, symBinAddr: 0x10000BA38, symSize: 0x24 }
  - { offset: 0x1A188, size: 0x8, addend: 0x0, symName: __RINvNtCs9f3LFPSIp77_4core3ptr13drop_in_placeINtNtCsdze8u8oDPro_5alloc7raw_vec6RawVecNtNtNtBL_3ffi5c_str7CStringEECsh9ovbnNyhRg_7autocfg, symObjAddr: 0x131C, symBinAddr: 0x10000BA5C, symSize: 0x24 }
  - { offset: 0x1A1B7, size: 0x8, addend: 0x0, symName: __RINvNtCs9f3LFPSIp77_4core3ptr13drop_in_placeINtNtCsdze8u8oDPro_5alloc7raw_vec6RawVecPaEECsh9ovbnNyhRg_7autocfg, symObjAddr: 0x1340, symBinAddr: 0x10000BA80, symSize: 0x24 }
  - { offset: 0x1A1E6, size: 0x8, addend: 0x0, symName: __RINvNtCs9f3LFPSIp77_4core3ptr13drop_in_placeINtNtCsdze8u8oDPro_5alloc7raw_vec6RawVechEECsh9ovbnNyhRg_7autocfg, symObjAddr: 0x1364, symBinAddr: 0x10000BAA4, symSize: 0x24 }
  - { offset: 0x1A215, size: 0x8, addend: 0x0, symName: __RINvNtCs9f3LFPSIp77_4core3ptr13drop_in_placeINtNtNtCs27l1GJC5rMQ_3std2io5error9ErrorDataINtNtCsdze8u8oDPro_5alloc5boxed3BoxNtBJ_6CustomEEECsh9ovbnNyhRg_7autocfg, symObjAddr: 0x1388, symBinAddr: 0x10000BAC8, symSize: 0x48 }
  - { offset: 0x1A244, size: 0x8, addend: 0x0, symName: __RINvNtCs9f3LFPSIp77_4core3ptr13drop_in_placeINtNtNtNtCs27l1GJC5rMQ_3std11collections4hash3set7HashSetyEECsh9ovbnNyhRg_7autocfg, symObjAddr: 0x13D0, symBinAddr: 0x10000BB10, symSize: 0x24 }
  - { offset: 0x1A273, size: 0x8, addend: 0x0, symName: __RINvNtCs9f3LFPSIp77_4core3ptr13drop_in_placeINtNtNtNtCs27l1GJC5rMQ_3std11collections4hash3set8IntoIteryEECsh9ovbnNyhRg_7autocfg, symObjAddr: 0x13F4, symBinAddr: 0x10000BB34, symSize: 0x24 }
  - { offset: 0x1A2A2, size: 0x8, addend: 0x0, symName: __RINvNtCs9f3LFPSIp77_4core3ptr13drop_in_placeINtNtNtNtCsdze8u8oDPro_5alloc11collections5btree3map8BTreeMapNtNtNtCs27l1GJC5rMQ_3std3ffi6os_str8OsStringINtNtB4_6option6OptionB1F_EEECsh9ovbnNyhRg_7autocfg, symObjAddr: 0x1418, symBinAddr: 0x10000BB58, symSize: 0x24 }
  - { offset: 0x1A2D1, size: 0x8, addend: 0x0, symName: __RINvNtCs9f3LFPSIp77_4core3ptr13drop_in_placeINtNtNtNtCsdze8u8oDPro_5alloc11collections5btree3map8IntoIterNtNtNtCs27l1GJC5rMQ_3std3ffi6os_str8OsStringINtNtB4_6option6OptionB1F_EEECsh9ovbnNyhRg_7autocfg, symObjAddr: 0x143C, symBinAddr: 0x10000BB7C, symSize: 0x24 }
  - { offset: 0x1A300, size: 0x8, addend: 0x0, symName: __RINvNtCs9f3LFPSIp77_4core3ptr13drop_in_placeINtNvNtNtCs27l1GJC5rMQ_3std2io5Write9write_fmt7AdapterNtNtBP_7process10ChildStdinEECsh9ovbnNyhRg_7autocfg, symObjAddr: 0x1460, symBinAddr: 0x10000BBA0, symSize: 0x24 }
  - { offset: 0x1A32F, size: 0x8, addend: 0x0, symName: __RINvNtCs9f3LFPSIp77_4core3ptr13drop_in_placeINtNvNtNtCs27l1GJC5rMQ_3std2io5Write9write_fmt7AdapterNtNtNtNtNtBP_3sys3pal4unix5stdio6StderrEECsh9ovbnNyhRg_7autocfg, symObjAddr: 0x1484, symBinAddr: 0x10000BBC4, symSize: 0x24 }
  - { offset: 0x1A35E, size: 0x8, addend: 0x0, symName: __RINvNtCs9f3LFPSIp77_4core3ptr13drop_in_placeINtNvXNtNtCsdze8u8oDPro_5alloc5slice4hackpNtBM_10ConvertVec6to_vec9DropGuardNtNtBQ_6string6StringNtNtBQ_5alloc6GlobalEECsh9ovbnNyhRg_7autocfg, symObjAddr: 0x14A8, symBinAddr: 0x10000BBE8, symSize: 0x24 }
  - { offset: 0x1A38D, size: 0x8, addend: 0x0, symName: __RINvNtCs9f3LFPSIp77_4core3ptr13drop_in_placeINtNvXsw_NtNtNtCsdze8u8oDPro_5alloc11collections5btree3mapINtBP_8IntoIterpppENtNtNtB4_3ops4drop4Drop4drop9DropGuardNtNtNtCs27l1GJC5rMQ_3std3ffi6os_str8OsStringINtNtB4_6option6OptionB2x_ENtNtBV_5alloc6GlobalEECsh9ovbnNyhRg_7autocfg, symObjAddr: 0x14CC, symBinAddr: 0x10000BC0C, symSize: 0x24 }
  - { offset: 0x1A3BC, size: 0x8, addend: 0x0, symName: __RINvNtCs9f3LFPSIp77_4core3ptr13drop_in_placeNCINvMs6_NtCscXJUXcj6jCz_9hashbrown3rawINtBP_8RawTableTyuEE14reserve_rehashNCINvNtBR_3map11make_hasheryuNtNtNtCs27l1GJC5rMQ_3std4hash6random11RandomStateE0E0ECsh9ovbnNyhRg_7autocfg, symObjAddr: 0x14F0, symBinAddr: 0x10000BC30, symSize: 0x10 }
  - { offset: 0x1A3EB, size: 0x8, addend: 0x0, symName: __RINvNtCs9f3LFPSIp77_4core3ptr13drop_in_placeNCINvMs6_NtCscXJUXcj6jCz_9hashbrown3rawINtBP_8RawTableTyuEE24find_or_find_insert_slotNCINvNtBR_3map14equivalent_keyyyuE0NCINvB28_11make_hasheryuNtNtNtCs27l1GJC5rMQ_3std4hash6random11RandomStateE0E0ECsh9ovbnNyhRg_7autocfg, symObjAddr: 0x1500, symBinAddr: 0x10000BC40, symSize: 0x10 }
  - { offset: 0x1A41A, size: 0x8, addend: 0x0, symName: __RINvNtCs9f3LFPSIp77_4core3ptr13drop_in_placeNCNCNvCsh9ovbnNyhRg_7autocfg19dir_contains_target00EBM_, symObjAddr: 0x1510, symBinAddr: 0x10000BC50, symSize: 0x24 }
  - { offset: 0x1A449, size: 0x8, addend: 0x0, symName: __RINvNtCs9f3LFPSIp77_4core3ptr13drop_in_placeNCNvCsh9ovbnNyhRg_7autocfg19dir_contains_target0EBK_, symObjAddr: 0x1534, symBinAddr: 0x10000BC74, symSize: 0x24 }
  - { offset: 0x1A478, size: 0x8, addend: 0x0, symName: __RINvNtCs9f3LFPSIp77_4core3ptr13drop_in_placeNtCsh9ovbnNyhRg_7autocfg7AutoCfgEBI_, symObjAddr: 0x1558, symBinAddr: 0x10000BC98, symSize: 0xC0 }
  - { offset: 0x1A4A7, size: 0x8, addend: 0x0, symName: __RINvNtCs9f3LFPSIp77_4core3ptr13drop_in_placeNtNtCs27l1GJC5rMQ_3std3env8VarErrorECsh9ovbnNyhRg_7autocfg, symObjAddr: 0x1618, symBinAddr: 0x10000BD58, symSize: 0x48 }
  - { offset: 0x1A4D6, size: 0x8, addend: 0x0, symName: __RINvNtCs9f3LFPSIp77_4core3ptr13drop_in_placeNtNtCs27l1GJC5rMQ_3std4path7PathBufECsh9ovbnNyhRg_7autocfg, symObjAddr: 0x1660, symBinAddr: 0x10000BDA0, symSize: 0x24 }
  - { offset: 0x1A505, size: 0x8, addend: 0x0, symName: __RINvNtCs9f3LFPSIp77_4core3ptr13drop_in_placeNtNtCs27l1GJC5rMQ_3std7process10ChildStdinECsh9ovbnNyhRg_7autocfg, symObjAddr: 0x1684, symBinAddr: 0x10000BDC4, symSize: 0x24 }
  - { offset: 0x1A534, size: 0x8, addend: 0x0, symName: __RINvNtCs9f3LFPSIp77_4core3ptr13drop_in_placeNtNtCs27l1GJC5rMQ_3std7process11ChildStderrECsh9ovbnNyhRg_7autocfg, symObjAddr: 0x16A8, symBinAddr: 0x10000BDE8, symSize: 0x24 }
  - { offset: 0x1A563, size: 0x8, addend: 0x0, symName: __RINvNtCs9f3LFPSIp77_4core3ptr13drop_in_placeNtNtCs27l1GJC5rMQ_3std7process11ChildStdoutECsh9ovbnNyhRg_7autocfg, symObjAddr: 0x16CC, symBinAddr: 0x10000BE0C, symSize: 0x24 }
  - { offset: 0x1A592, size: 0x8, addend: 0x0, symName: __RINvNtCs9f3LFPSIp77_4core3ptr13drop_in_placeNtNtCs27l1GJC5rMQ_3std7process5ChildECsh9ovbnNyhRg_7autocfg, symObjAddr: 0x16F0, symBinAddr: 0x10000BE30, symSize: 0x94 }
  - { offset: 0x1A5C1, size: 0x8, addend: 0x0, symName: __RINvNtCs9f3LFPSIp77_4core3ptr13drop_in_placeNtNtCs27l1GJC5rMQ_3std7process6OutputECsh9ovbnNyhRg_7autocfg, symObjAddr: 0x1784, symBinAddr: 0x10000BEC4, symSize: 0x60 }
  - { offset: 0x1A5F0, size: 0x8, addend: 0x0, symName: __RINvNtCs9f3LFPSIp77_4core3ptr13drop_in_placeNtNtCs27l1GJC5rMQ_3std7process7CommandECsh9ovbnNyhRg_7autocfg, symObjAddr: 0x17E4, symBinAddr: 0x10000BF24, symSize: 0x24 }
  - { offset: 0x1A61F, size: 0x8, addend: 0x0, symName: __RINvNtCs9f3LFPSIp77_4core3ptr13drop_in_placeNtNtCsdze8u8oDPro_5alloc6string6StringECsh9ovbnNyhRg_7autocfg, symObjAddr: 0x1808, symBinAddr: 0x10000BF48, symSize: 0x24 }
  - { offset: 0x1A64E, size: 0x8, addend: 0x0, symName: __RINvNtCs9f3LFPSIp77_4core3ptr13drop_in_placeNtNtCsh9ovbnNyhRg_7autocfg5error5ErrorEBK_, symObjAddr: 0x182C, symBinAddr: 0x10000BF6C, symSize: 0x24 }
  - { offset: 0x1A67D, size: 0x8, addend: 0x0, symName: __RINvNtCs9f3LFPSIp77_4core3ptr13drop_in_placeNtNtCsh9ovbnNyhRg_7autocfg5error9ErrorKindEBK_, symObjAddr: 0x1850, symBinAddr: 0x10000BF90, symSize: 0x40 }
  - { offset: 0x1A6AC, size: 0x8, addend: 0x0, symName: __RINvNtCs9f3LFPSIp77_4core3ptr13drop_in_placeNtNtCsh9ovbnNyhRg_7autocfg5rustc5RustcEBK_, symObjAddr: 0x1890, symBinAddr: 0x10000BFD0, symSize: 0x90 }
  - { offset: 0x1A6DB, size: 0x8, addend: 0x0, symName: __RINvNtCs9f3LFPSIp77_4core3ptr13drop_in_placeNtNtCsh9ovbnNyhRg_7autocfg7version7VersionEBK_, symObjAddr: 0x1920, symBinAddr: 0x10000C060, symSize: 0x10 }
  - { offset: 0x1A70A, size: 0x8, addend: 0x0, symName: __RINvNtCs9f3LFPSIp77_4core3ptr13drop_in_placeNtNtNtB4_3num5error13ParseIntErrorECsh9ovbnNyhRg_7autocfg, symObjAddr: 0x1930, symBinAddr: 0x10000C070, symSize: 0x10 }
  - { offset: 0x1A739, size: 0x8, addend: 0x0, symName: __RINvNtCs9f3LFPSIp77_4core3ptr13drop_in_placeNtNtNtB4_3num5error15TryFromIntErrorECsh9ovbnNyhRg_7autocfg, symObjAddr: 0x1940, symBinAddr: 0x10000C080, symSize: 0x10 }
  - { offset: 0x1A768, size: 0x8, addend: 0x0, symName: __RINvNtCs9f3LFPSIp77_4core3ptr13drop_in_placeNtNtNtB4_3str5error9Utf8ErrorECsh9ovbnNyhRg_7autocfg, symObjAddr: 0x1950, symBinAddr: 0x10000C090, symSize: 0x10 }
  - { offset: 0x1A797, size: 0x8, addend: 0x0, symName: __RINvNtCs9f3LFPSIp77_4core3ptr13drop_in_placeNtNtNtCs27l1GJC5rMQ_3std10sys_common7process10CommandEnvECsh9ovbnNyhRg_7autocfg, symObjAddr: 0x1960, symBinAddr: 0x10000C0A0, symSize: 0x24 }
  - { offset: 0x1A7C6, size: 0x8, addend: 0x0, symName: __RINvNtCs9f3LFPSIp77_4core3ptr13drop_in_placeNtNtNtCs27l1GJC5rMQ_3std2io5error5ErrorECsh9ovbnNyhRg_7autocfg, symObjAddr: 0x1984, symBinAddr: 0x10000C0C4, symSize: 0x24 }
  - { offset: 0x1A7F5, size: 0x8, addend: 0x0, symName: __RINvNtCs9f3LFPSIp77_4core3ptr13drop_in_placeNtNtNtCs27l1GJC5rMQ_3std2io5error6CustomECsh9ovbnNyhRg_7autocfg, symObjAddr: 0x19A8, symBinAddr: 0x10000C0E8, symSize: 0x24 }
  - { offset: 0x1A824, size: 0x8, addend: 0x0, symName: __RINvNtCs9f3LFPSIp77_4core3ptr13drop_in_placeNtNtNtCs27l1GJC5rMQ_3std3ffi6os_str8OsStringECsh9ovbnNyhRg_7autocfg, symObjAddr: 0x19CC, symBinAddr: 0x10000C10C, symSize: 0x24 }
  - { offset: 0x1A853, size: 0x8, addend: 0x0, symName: __RINvNtCs9f3LFPSIp77_4core3ptr13drop_in_placeNtNtNtCs27l1GJC5rMQ_3std6thread5local11AccessErrorECsh9ovbnNyhRg_7autocfg, symObjAddr: 0x19F0, symBinAddr: 0x10000C130, symSize: 0x10 }
  - { offset: 0x1A882, size: 0x8, addend: 0x0, symName: __RINvNtCs9f3LFPSIp77_4core3ptr13drop_in_placeNtNtNtCsdze8u8oDPro_5alloc3ffi5c_str7CStringECsh9ovbnNyhRg_7autocfg, symObjAddr: 0x1A00, symBinAddr: 0x10000C140, symSize: 0x5C }
  - { offset: 0x1A8B1, size: 0x8, addend: 0x0, symName: __RINvNtCs9f3LFPSIp77_4core3ptr13drop_in_placeNtNtNtNtCs27l1GJC5rMQ_3std2io5error14repr_bitpacked4ReprECsh9ovbnNyhRg_7autocfg, symObjAddr: 0x1A5C, symBinAddr: 0x10000C19C, symSize: 0x24 }
  - { offset: 0x1A8E0, size: 0x8, addend: 0x0, symName: __RINvNtCs9f3LFPSIp77_4core3ptr13drop_in_placeNtNtNtNtCs27l1GJC5rMQ_3std2os2fd5owned7OwnedFdECsh9ovbnNyhRg_7autocfg, symObjAddr: 0x1A80, symBinAddr: 0x10000C1C0, symSize: 0x24 }
  - { offset: 0x1A90F, size: 0x8, addend: 0x0, symName: __RINvNtCs9f3LFPSIp77_4core3ptr13drop_in_placeNtNtNtNtCs27l1GJC5rMQ_3std3sys6os_str5bytes3BufECsh9ovbnNyhRg_7autocfg, symObjAddr: 0x1AA4, symBinAddr: 0x10000C1E4, symSize: 0x24 }
  - { offset: 0x1A93E, size: 0x8, addend: 0x0, symName: __RINvNtCs9f3LFPSIp77_4core3ptr13drop_in_placeNtNtNtNtNtCs27l1GJC5rMQ_3std3sys3pal4unix2fd8FileDescECsh9ovbnNyhRg_7autocfg, symObjAddr: 0x1AC8, symBinAddr: 0x10000C208, symSize: 0x24 }
  - { offset: 0x1A96D, size: 0x8, addend: 0x0, symName: __RINvNtCs9f3LFPSIp77_4core3ptr13drop_in_placeNtNtNtNtNtCs27l1GJC5rMQ_3std3sys3pal4unix4pipe8AnonPipeECsh9ovbnNyhRg_7autocfg, symObjAddr: 0x1AEC, symBinAddr: 0x10000C22C, symSize: 0x24 }
  - { offset: 0x1A99C, size: 0x8, addend: 0x0, symName: __RINvNtCs9f3LFPSIp77_4core3ptr13drop_in_placeNtNtNtNtNtNtCs27l1GJC5rMQ_3std3sys3pal4unix7process14process_common4ArgvECsh9ovbnNyhRg_7autocfg, symObjAddr: 0x1B10, symBinAddr: 0x10000C250, symSize: 0x24 }
  - { offset: 0x1A9CB, size: 0x8, addend: 0x0, symName: __RINvNtCs9f3LFPSIp77_4core3ptr13drop_in_placeNtNtNtNtNtNtCs27l1GJC5rMQ_3std3sys3pal4unix7process14process_common5StdioECsh9ovbnNyhRg_7autocfg, symObjAddr: 0x1B34, symBinAddr: 0x10000C274, symSize: 0x44 }
  - { offset: 0x1A9FA, size: 0x8, addend: 0x0, symName: __RINvNtCs9f3LFPSIp77_4core3ptr13drop_in_placeNtNtNtNtNtNtCs27l1GJC5rMQ_3std3sys3pal4unix7process14process_common7CommandECsh9ovbnNyhRg_7autocfg, symObjAddr: 0x1B78, symBinAddr: 0x10000C2B8, symSize: 0x1DC }
  - { offset: 0x1AA29, size: 0x8, addend: 0x0, symName: __RINvNtCs9f3LFPSIp77_4core3ptr13drop_in_placeNtNvNtNtNtCsdze8u8oDPro_5alloc11collections5btree3mem7replace10PanicGuardECsh9ovbnNyhRg_7autocfg, symObjAddr: 0x1D54, symBinAddr: 0x10000C494, symSize: 0x24 }
  - { offset: 0x1AA58, size: 0x8, addend: 0x0, symName: __RINvNtCs9f3LFPSIp77_4core3ptr13drop_in_placeRINtNtB4_6option6OptionNtNtCs27l1GJC5rMQ_3std4path7PathBufEECsh9ovbnNyhRg_7autocfg, symObjAddr: 0x1D78, symBinAddr: 0x10000C4B8, symSize: 0x10 }
  - { offset: 0x1AA87, size: 0x8, addend: 0x0, symName: __RINvNtCs9f3LFPSIp77_4core3ptr13drop_in_placeRINtNtB4_6option6OptionhEECsh9ovbnNyhRg_7autocfg, symObjAddr: 0x1D88, symBinAddr: 0x10000C4C8, symSize: 0x10 }
  - { offset: 0x1AAB6, size: 0x8, addend: 0x0, symName: __RINvNtCs9f3LFPSIp77_4core3ptr13drop_in_placeRNtNtCs27l1GJC5rMQ_3std4path7PathBufECsh9ovbnNyhRg_7autocfg, symObjAddr: 0x1D98, symBinAddr: 0x10000C4D8, symSize: 0x10 }
  - { offset: 0x1AAE5, size: 0x8, addend: 0x0, symName: __RINvNtCs9f3LFPSIp77_4core3ptr13drop_in_placeRNtNtCs27l1GJC5rMQ_3std7process10ExitStatusECsh9ovbnNyhRg_7autocfg, symObjAddr: 0x1DA8, symBinAddr: 0x10000C4E8, symSize: 0x10 }
  - { offset: 0x1AB14, size: 0x8, addend: 0x0, symName: __RINvNtCs9f3LFPSIp77_4core3ptr13drop_in_placeRNtNtCsdze8u8oDPro_5alloc6string6StringECsh9ovbnNyhRg_7autocfg, symObjAddr: 0x1DB8, symBinAddr: 0x10000C4F8, symSize: 0x10 }
  - { offset: 0x1AB43, size: 0x8, addend: 0x0, symName: __RINvNtCs9f3LFPSIp77_4core3ptr13drop_in_placeRNtNtCsh9ovbnNyhRg_7autocfg5error9ErrorKindEBL_, symObjAddr: 0x1DC8, symBinAddr: 0x10000C508, symSize: 0x10 }
  - { offset: 0x1AB72, size: 0x8, addend: 0x0, symName: __RINvNtCs9f3LFPSIp77_4core3ptr13drop_in_placeRNtNtNtB4_3num5error12IntErrorKindECsh9ovbnNyhRg_7autocfg, symObjAddr: 0x1DD8, symBinAddr: 0x10000C518, symSize: 0x10 }
  - { offset: 0x1ABA1, size: 0x8, addend: 0x0, symName: __RINvNtCs9f3LFPSIp77_4core3ptr13drop_in_placeRNtNtNtB4_3num5error13ParseIntErrorECsh9ovbnNyhRg_7autocfg, symObjAddr: 0x1DE8, symBinAddr: 0x10000C528, symSize: 0x10 }
  - { offset: 0x1ABD0, size: 0x8, addend: 0x0, symName: __RINvNtCs9f3LFPSIp77_4core3ptr13drop_in_placeRNtNtNtB4_3str5error9Utf8ErrorECsh9ovbnNyhRg_7autocfg, symObjAddr: 0x1DF8, symBinAddr: 0x10000C538, symSize: 0x10 }
  - { offset: 0x1ABFF, size: 0x8, addend: 0x0, symName: __RINvNtCs9f3LFPSIp77_4core3ptr13drop_in_placeRNtNtNtCs27l1GJC5rMQ_3std2io5error5ErrorECsh9ovbnNyhRg_7autocfg, symObjAddr: 0x1E08, symBinAddr: 0x10000C548, symSize: 0x10 }
  - { offset: 0x1AC2E, size: 0x8, addend: 0x0, symName: __RINvNtCs9f3LFPSIp77_4core3ptr13drop_in_placeRNtNtNtCs27l1GJC5rMQ_3std3ffi6os_str8OsStringECsh9ovbnNyhRg_7autocfg, symObjAddr: 0x1E18, symBinAddr: 0x10000C558, symSize: 0x10 }
  - { offset: 0x1AC5D, size: 0x8, addend: 0x0, symName: __RINvNtCs9f3LFPSIp77_4core3ptr13drop_in_placeRNtNtNtNtNtNtCs27l1GJC5rMQ_3std3sys3pal4unix7process13process_inner10ExitStatusECsh9ovbnNyhRg_7autocfg, symObjAddr: 0x1E28, symBinAddr: 0x10000C568, symSize: 0x10 }
  - { offset: 0x1AC8C, size: 0x8, addend: 0x0, symName: __RINvNtCs9f3LFPSIp77_4core3ptr13drop_in_placeRReECsh9ovbnNyhRg_7autocfg, symObjAddr: 0x1E38, symBinAddr: 0x10000C578, symSize: 0x10 }
  - { offset: 0x1ACBB, size: 0x8, addend: 0x0, symName: __RINvNtCs9f3LFPSIp77_4core3ptr13drop_in_placeRhECsh9ovbnNyhRg_7autocfg, symObjAddr: 0x1E48, symBinAddr: 0x10000C588, symSize: 0x10 }
  - { offset: 0x1ACEA, size: 0x8, addend: 0x0, symName: __RINvNtCs9f3LFPSIp77_4core3ptr13drop_in_placeRjECsh9ovbnNyhRg_7autocfg, symObjAddr: 0x1E58, symBinAddr: 0x10000C598, symSize: 0x10 }
  - { offset: 0x1AD19, size: 0x8, addend: 0x0, symName: __RINvNtCs9f3LFPSIp77_4core3ptr13drop_in_placeRuECsh9ovbnNyhRg_7autocfg, symObjAddr: 0x1E68, symBinAddr: 0x10000C5A8, symSize: 0x10 }
  - { offset: 0x1AD48, size: 0x8, addend: 0x0, symName: __RINvNtCs9f3LFPSIp77_4core3ptr13drop_in_placeRyECsh9ovbnNyhRg_7autocfg, symObjAddr: 0x1E78, symBinAddr: 0x10000C5B8, symSize: 0x10 }
  - { offset: 0x1AD77, size: 0x8, addend: 0x0, symName: __RINvNtCs9f3LFPSIp77_4core3ptr13drop_in_placeSINtNtCsdze8u8oDPro_5alloc5boxed3BoxDINtNtNtB4_3ops8function5FnMutuEp6OutputINtNtB4_6result6ResultuNtNtNtCs27l1GJC5rMQ_3std2io5error5ErrorENtNtB4_6marker4SendNtB2X_4SyncEL_EECsh9ovbnNyhRg_7autocfg, symObjAddr: 0x1E88, symBinAddr: 0x10000C5C8, symSize: 0xB4 }
  - { offset: 0x1ADA6, size: 0x8, addend: 0x0, symName: __RINvNtCs9f3LFPSIp77_4core3ptr13drop_in_placeSNtNtCsdze8u8oDPro_5alloc6string6StringECsh9ovbnNyhRg_7autocfg, symObjAddr: 0x1F3C, symBinAddr: 0x10000C67C, symSize: 0xC4 }
  - { offset: 0x1ADD5, size: 0x8, addend: 0x0, symName: __RINvNtCs9f3LFPSIp77_4core3ptr13drop_in_placeSNtNtNtCsdze8u8oDPro_5alloc3ffi5c_str7CStringECsh9ovbnNyhRg_7autocfg, symObjAddr: 0x2000, symBinAddr: 0x10000C740, symSize: 0xB4 }
  - { offset: 0x1AE04, size: 0x8, addend: 0x0, symName: __RINvNtCs9f3LFPSIp77_4core3ptr13drop_in_placebECsh9ovbnNyhRg_7autocfg, symObjAddr: 0x20B4, symBinAddr: 0x10000C7F4, symSize: 0x10 }
  - { offset: 0x1AE33, size: 0x8, addend: 0x0, symName: __RINvNtCs9f3LFPSIp77_4core3ptr13drop_in_placejECsh9ovbnNyhRg_7autocfg, symObjAddr: 0x20C4, symBinAddr: 0x10000C804, symSize: 0x10 }
  - { offset: 0x1B34B, size: 0x8, addend: 0x0, symName: __RNvXs0_NtNtCs9f3LFPSIp77_4core3str5errorNtB5_9Utf8ErrorNtNtB9_5error5Error11descriptionCsh9ovbnNyhRg_7autocfg, symObjAddr: 0x2FF0, symBinAddr: 0x10000D730, symSize: 0x20 }
  - { offset: 0x1B37D, size: 0x8, addend: 0x0, symName: __RNvXs8_NtNtCs9f3LFPSIp77_4core3str5errorNtB5_9Utf8ErrorNtNtB9_3fmt5Debug3fmtCsh9ovbnNyhRg_7autocfg, symObjAddr: 0x33F0, symBinAddr: 0x10000DB30, symSize: 0x88 }
  - { offset: 0x1B73E, size: 0x8, addend: 0x0, symName: __RNvXsP_NtCs9f3LFPSIp77_4core3fmtRINtNtB7_6option6OptionNtNtCs27l1GJC5rMQ_3std4path7PathBufENtB5_5Debug3fmtCsh9ovbnNyhRg_7autocfg, symObjAddr: 0x3650, symBinAddr: 0x10000DD90, symSize: 0x30 }
  - { offset: 0x1B784, size: 0x8, addend: 0x0, symName: __RNvXsP_NtCs9f3LFPSIp77_4core3fmtRINtNtB7_6option6OptionhENtB5_5Debug3fmtCsh9ovbnNyhRg_7autocfg, symObjAddr: 0x3680, symBinAddr: 0x10000DDC0, symSize: 0x30 }
  - { offset: 0x1B7CA, size: 0x8, addend: 0x0, symName: __RNvXsP_NtCs9f3LFPSIp77_4core3fmtRNtNtCsh9ovbnNyhRg_7autocfg5error9ErrorKindNtB5_5Debug3fmtBz_, symObjAddr: 0x36B0, symBinAddr: 0x10000DDF0, symSize: 0x30 }
  - { offset: 0x1B810, size: 0x8, addend: 0x0, symName: __RNvXsP_NtCs9f3LFPSIp77_4core3fmtRNtNtNtB7_3str5error9Utf8ErrorNtB5_5Debug3fmtCsh9ovbnNyhRg_7autocfg, symObjAddr: 0x36E0, symBinAddr: 0x10000DE20, symSize: 0x30 }
  - { offset: 0x1B856, size: 0x8, addend: 0x0, symName: __RNvXsP_NtCs9f3LFPSIp77_4core3fmtRNtNtNtCs27l1GJC5rMQ_3std2io5error5ErrorNtB5_5Debug3fmtCsh9ovbnNyhRg_7autocfg, symObjAddr: 0x3710, symBinAddr: 0x10000DE50, symSize: 0x30 }
  - { offset: 0x1B8CB, size: 0x8, addend: 0x0, symName: __RNvXsU_NtNtCs9f3LFPSIp77_4core3cmp5implsjNtB7_10PartialOrd11partial_cmpCsh9ovbnNyhRg_7autocfg, symObjAddr: 0x3740, symBinAddr: 0x10000DE80, symSize: 0x40 }
  - { offset: 0x1B90E, size: 0x8, addend: 0x0, symName: __RNvXsV_NtNtCs9f3LFPSIp77_4core3cmp5implsjNtB7_3Ord3cmpCsh9ovbnNyhRg_7autocfg, symObjAddr: 0x3780, symBinAddr: 0x10000DEC0, symSize: 0x38 }
  - { offset: 0x1B951, size: 0x8, addend: 0x0, symName: __RNvXsn_NtNtCs9f3LFPSIp77_4core3cmp5implsyNtB7_9PartialEq2eqCsh9ovbnNyhRg_7autocfg, symObjAddr: 0x3AFC, symBinAddr: 0x10000E23C, symSize: 0x2C }
  - { offset: 0x1B995, size: 0x8, addend: 0x0, symName: __RNvYINtNtCs9f3LFPSIp77_4core6option6OptionNtNtNtCs27l1GJC5rMQ_3std3ffi6os_str8OsStringENtNtB7_3cmp9PartialEq2neCsh9ovbnNyhRg_7autocfg, symObjAddr: 0x3B64, symBinAddr: 0x10000E2A4, symSize: 0x30 }
  - { offset: 0x1BACA, size: 0x8, addend: 0x0, symName: __RINvXs0_NtNtNtCs9f3LFPSIp77_4core4iter8adapters3mapINtB6_3MapINtNtNtBc_3ops5range5RangeyENCINvXs8_NtCscXJUXcj6jCz_9hashbrown3setINtB1y_7HashSetyNtNtNtCs27l1GJC5rMQ_3std4hash6random11RandomStateEINtNtNtBa_6traits7collect6ExtendyE6extendBX_E0ENtNtB3b_8iterator8Iterator4folduNCINvNvB3R_8for_each4callTyuENCINvXs1i_NtB1A_3mapINtB50_7HashMapyuB2i_EIB37_B4M_E6extendBN_E0E0ECsh9ovbnNyhRg_7autocfg, symObjAddr: 0x20D4, symBinAddr: 0x10000C814, symSize: 0x2C }
  - { offset: 0x1BB3B, size: 0x8, addend: 0x0, symName: __RINvXs0_NtNtNtCs9f3LFPSIp77_4core4iter8adapters3mapINtB6_3MapINtNtNtBc_3str4iter5SplitcENvMB12_e4trimENtNtNtBa_6traits8iterator8Iterator8try_folduNCINvNvB1C_4find5checkReQNCNvCsh9ovbnNyhRg_7autocfg9rustflags0E0INtNtNtBc_3ops12control_flow11ControlFlowB2G_EEB2N_, symObjAddr: 0x2100, symBinAddr: 0x10000C840, symSize: 0x38 }
  - { offset: 0x1BBB9, size: 0x8, addend: 0x0, symName: __RINvXs0_NtNtNtCs9f3LFPSIp77_4core4iter8adapters3mapINtB6_3MapNtNtNtBc_3str4iter5CharsNCNvCsh9ovbnNyhRg_7autocfg6mangle0ENtNtNtBa_6traits8iterator8Iterator4folduNCINvNvB1U_8for_each4callcNCINvXsb_NtCsdze8u8oDPro_5alloc6stringNtB37_6StringINtNtB1Y_7collect6ExtendcE6extendBN_E0E0EB1p_, symObjAddr: 0x2138, symBinAddr: 0x10000C878, symSize: 0x34 }
  - { offset: 0x1BC2A, size: 0x8, addend: 0x0, symName: __RNvXs0_NtNtNtCs9f3LFPSIp77_4core4iter8adapters3mapINtB5_3MapINtNtB7_6filter6FilterIBN_INtNtNtBb_3str4iter5SplitcENvMB1r_e4trimENCNvCsh9ovbnNyhRg_7autocfg9rustflags0ENvYeNtNtCsdze8u8oDPro_5alloc6string8ToString9to_stringENtNtNtB9_6traits8iterator8Iterator4nextB25_, symObjAddr: 0x3010, symBinAddr: 0x10000D750, symSize: 0x9C }
  - { offset: 0x1BCA4, size: 0x8, addend: 0x0, symName: __RNvXs0_NtNtNtCs9f3LFPSIp77_4core4iter8adapters3mapINtB5_3MapINtNtB7_6filter6FilterIBN_INtNtNtBb_3str4iter5SplitcENvMB1r_e4trimENCNvCsh9ovbnNyhRg_7autocfg9rustflags0ENvYeNtNtCsdze8u8oDPro_5alloc6string8ToString9to_stringENtNtNtB9_6traits8iterator8Iterator9size_hintB25_, symObjAddr: 0x30AC, symBinAddr: 0x10000D7EC, symSize: 0x24 }
  - { offset: 0x1BCEB, size: 0x8, addend: 0x0, symName: __RNvXs0_NtNtNtCs9f3LFPSIp77_4core4iter8adapters3mapINtB5_3MapINtNtNtBb_3ops5range5RangeyENCINvXs8_NtCscXJUXcj6jCz_9hashbrown3setINtB1x_7HashSetyNtNtNtCs27l1GJC5rMQ_3std4hash6random11RandomStateEINtNtNtB9_6traits7collect6ExtendyE6extendBW_E0ENtNtB3a_8iterator8Iterator9size_hintCsh9ovbnNyhRg_7autocfg, symObjAddr: 0x30D0, symBinAddr: 0x10000D810, symSize: 0x24 }
  - { offset: 0x1BD32, size: 0x8, addend: 0x0, symName: __RNvXs0_NtNtNtCs9f3LFPSIp77_4core4iter8adapters3mapINtB5_3MapINtNtNtBb_3str4iter14SplitInclusivecENtB11_8LinesMapENtNtNtB9_6traits8iterator8Iterator4nextCsh9ovbnNyhRg_7autocfg, symObjAddr: 0x30F4, symBinAddr: 0x10000D834, symSize: 0x88 }
  - { offset: 0x1BDAC, size: 0x8, addend: 0x0, symName: __RNvXs0_NtNtNtCs9f3LFPSIp77_4core4iter8adapters3mapINtB5_3MapINtNtNtBb_3str4iter5SplitcENvMB11_e4trimENtNtNtB9_6traits8iterator8Iterator9size_hintCsh9ovbnNyhRg_7autocfg, symObjAddr: 0x317C, symBinAddr: 0x10000D8BC, symSize: 0x24 }
  - { offset: 0x1BDF3, size: 0x8, addend: 0x0, symName: __RNvXs0_NtNtNtCs9f3LFPSIp77_4core4iter8adapters3mapINtB5_3MapINtNtNtBb_3str4iter5SplitcENvYeNtNtCsdze8u8oDPro_5alloc6string8ToString9to_stringENtNtNtB9_6traits8iterator8Iterator4nextCsh9ovbnNyhRg_7autocfg, symObjAddr: 0x31A0, symBinAddr: 0x10000D8E0, symSize: 0x9C }
  - { offset: 0x1BE6D, size: 0x8, addend: 0x0, symName: __RNvXs0_NtNtNtCs9f3LFPSIp77_4core4iter8adapters3mapINtB5_3MapINtNtNtBb_3str4iter5SplitcENvYeNtNtCsdze8u8oDPro_5alloc6string8ToString9to_stringENtNtNtB9_6traits8iterator8Iterator9size_hintCsh9ovbnNyhRg_7autocfg, symObjAddr: 0x323C, symBinAddr: 0x10000D97C, symSize: 0x24 }
  - { offset: 0x1BEB4, size: 0x8, addend: 0x0, symName: __RNvXs0_NtNtNtCs9f3LFPSIp77_4core4iter8adapters3mapINtB5_3MapNtNtNtBb_3str4iter5CharsNCNvCsh9ovbnNyhRg_7autocfg6mangle0ENtNtNtB9_6traits8iterator8Iterator9size_hintB1o_, symObjAddr: 0x3260, symBinAddr: 0x10000D9A0, symSize: 0x24 }
  - { offset: 0x1BF34, size: 0x8, addend: 0x0, symName: __RNCINvNtNtNtCs9f3LFPSIp77_4core4iter8adapters3map12map_try_foldReBZ_uINtNtNtBa_3ops12control_flow11ControlFlowBZ_ENvMNtBa_3stre4trimNCINvNvNtNtNtB8_6traits8iterator8Iterator4find5checkBZ_QNCNvCsh9ovbnNyhRg_7autocfg9rustflags0E0E0B34_, symObjAddr: 0x24D8, symBinAddr: 0x10000CC18, symSize: 0x9C }
  - { offset: 0x1BFCC, size: 0x8, addend: 0x0, symName: __RNCINvNtNtNtCs9f3LFPSIp77_4core4iter8adapters3map8map_foldccuNCNvCsh9ovbnNyhRg_7autocfg6mangle0NCINvNvNtNtNtB8_6traits8iterator8Iterator8for_each4callcNCINvXsb_NtCsdze8u8oDPro_5alloc6stringNtB2y_6StringINtNtB1G_7collect6ExtendcE6extendINtB4_3MapNtNtNtBa_3str4iter5CharsBX_EE0E0E0B11_, symObjAddr: 0x2574, symBinAddr: 0x10000CCB4, symSize: 0x78 }
  - { offset: 0x1C050, size: 0x8, addend: 0x0, symName: __RNCINvNtNtNtCs9f3LFPSIp77_4core4iter8adapters3map8map_foldyTyuEuNCINvXs8_NtCscXJUXcj6jCz_9hashbrown3setINtB19_7HashSetyNtNtNtCs27l1GJC5rMQ_3std4hash6random11RandomStateEINtNtNtB8_6traits7collect6ExtendyE6extendINtNtNtBa_3ops5range5RangeyEE0NCINvNvNtNtB2M_8iterator8Iterator8for_each4callBV_NCINvXs1i_NtB1b_3mapINtB4O_7HashMapyuB1T_EIB2I_BV_E6extendINtB4_3MapB3m_B10_EE0E0E0Csh9ovbnNyhRg_7autocfg, symObjAddr: 0x25EC, symBinAddr: 0x10000CD2C, symSize: 0x78 }
  - { offset: 0x1C244, size: 0x8, addend: 0x0, symName: __RNvXs_NtNtNtCs9f3LFPSIp77_4core4iter8adapters9enumerateINtB4_9EnumerateINtNtNtBa_5slice4iter4IterNtNtCsdze8u8oDPro_5alloc6string6StringEENtNtNtB8_6traits8iterator8Iterator4nextCsh9ovbnNyhRg_7autocfg, symObjAddr: 0x391C, symBinAddr: 0x10000E05C, symSize: 0xE0 }
  - { offset: 0x1C361, size: 0x8, addend: 0x0, symName: __RINvYINtNtCs9f3LFPSIp77_4core6option4IterNtNtCs27l1GJC5rMQ_3std4path7PathBufENtNtNtNtB8_4iter6traits8iterator8Iterator5chainB3_ECsh9ovbnNyhRg_7autocfg, symObjAddr: 0x22BC, symBinAddr: 0x10000C9FC, symSize: 0xA8 }
  - { offset: 0x1C3D6, size: 0x8, addend: 0x0, symName: __RINvYINtNtNtNtCs9f3LFPSIp77_4core4iter8adapters3map3MapINtNtB8_6filter6FilterIB4_INtNtNtBc_3str4iter5SplitcENvMB1m_e4trimENCNvCsh9ovbnNyhRg_7autocfg9rustflags0ENvYeNtNtCsdze8u8oDPro_5alloc6string8ToString9to_stringENtNtNtBa_6traits8iterator8Iterator7collectINtNtB2G_3vec3VecNtB2E_6StringEEB20_, symObjAddr: 0x2364, symBinAddr: 0x10000CAA4, symSize: 0x14 }
  - { offset: 0x1C417, size: 0x8, addend: 0x0, symName: __RINvYINtNtNtNtCs9f3LFPSIp77_4core4iter8adapters3map3MapINtNtNtBc_3ops5range5RangeyENCINvXs8_NtCscXJUXcj6jCz_9hashbrown3setINtB1s_7HashSetyNtNtNtCs27l1GJC5rMQ_3std4hash6random11RandomStateEINtNtNtBa_6traits7collect6ExtendyE6extendBR_E0ENtNtB35_8iterator8Iterator8for_eachNCINvXs1i_NtB1u_3mapINtB4u_7HashMapyuB2c_EIB31_TyuEE6extendB3_E0ECsh9ovbnNyhRg_7autocfg, symObjAddr: 0x2378, symBinAddr: 0x10000CAB8, symSize: 0x2C }
  - { offset: 0x1C462, size: 0x8, addend: 0x0, symName: __RINvYINtNtNtNtCs9f3LFPSIp77_4core4iter8adapters3map3MapINtNtNtBc_3str4iter5SplitcENvMBW_e4trimENtNtNtBa_6traits8iterator8Iterator4findQNCNvCsh9ovbnNyhRg_7autocfg9rustflags0EB2d_, symObjAddr: 0x23A4, symBinAddr: 0x10000CAE4, symSize: 0x90 }
  - { offset: 0x1C4DD, size: 0x8, addend: 0x0, symName: __RINvYINtNtNtNtCs9f3LFPSIp77_4core4iter8adapters3map3MapINtNtNtBc_3str4iter5SplitcENvMBW_e4trimENtNtNtBa_6traits8iterator8Iterator6filterNCNvCsh9ovbnNyhRg_7autocfg9rustflags0EB2e_, symObjAddr: 0x2434, symBinAddr: 0x10000CB74, symSize: 0x30 }
  - { offset: 0x1C553, size: 0x8, addend: 0x0, symName: __RINvYINtNtNtNtCs9f3LFPSIp77_4core4iter8adapters3map3MapINtNtNtBc_3str4iter5SplitcENvYeNtNtCsdze8u8oDPro_5alloc6string8ToString9to_stringENtNtNtBa_6traits8iterator8Iterator7collectINtNtB1q_3vec3VecNtB1o_6StringEECsh9ovbnNyhRg_7autocfg, symObjAddr: 0x2464, symBinAddr: 0x10000CBA4, symSize: 0x14 }
  - { offset: 0x1C594, size: 0x8, addend: 0x0, symName: __RINvYINtNtNtNtCs9f3LFPSIp77_4core4iter8adapters3map3MapNtNtNtBc_3str4iter5CharsNCNvCsh9ovbnNyhRg_7autocfg6mangle0ENtNtNtBa_6traits8iterator8Iterator7collectNtNtCsdze8u8oDPro_5alloc6string6StringEB1j_, symObjAddr: 0x2478, symBinAddr: 0x10000CBB8, symSize: 0x2C }
  - { offset: 0x1C5D4, size: 0x8, addend: 0x0, symName: __RINvYINtNtNtNtCs9f3LFPSIp77_4core4iter8adapters3map3MapNtNtNtBc_3str4iter5CharsNCNvCsh9ovbnNyhRg_7autocfg6mangle0ENtNtNtBa_6traits8iterator8Iterator8for_eachNCINvXsb_NtCsdze8u8oDPro_5alloc6stringNtB2E_6StringINtNtB1S_7collect6ExtendcE6extendB3_E0EB1j_, symObjAddr: 0x24A4, symBinAddr: 0x10000CBE4, symSize: 0x34 }
  - { offset: 0x1C67C, size: 0x8, addend: 0x0, symName: __RNvXs_NtNtNtCs9f3LFPSIp77_4core4iter6traits7collectINtNtBa_6option4IterNtNtCs27l1GJC5rMQ_3std4path7PathBufENtB4_12IntoIterator9into_iterCsh9ovbnNyhRg_7autocfg, symObjAddr: 0x3878, symBinAddr: 0x10000DFB8, symSize: 0x14 }
  - { offset: 0x1C6B3, size: 0x8, addend: 0x0, symName: __RNvXs_NtNtNtCs9f3LFPSIp77_4core4iter6traits7collectINtNtNtB8_8adapters3map3MapINtNtBS_6filter6FilterIBO_INtNtNtBa_3str4iter5SplitcENvMB1J_e4trimENCNvCsh9ovbnNyhRg_7autocfg9rustflags0ENvYeNtNtCsdze8u8oDPro_5alloc6string8ToString9to_stringENtB4_12IntoIterator9into_iterB2n_, symObjAddr: 0x388C, symBinAddr: 0x10000DFCC, symSize: 0x30 }
  - { offset: 0x1C6EB, size: 0x8, addend: 0x0, symName: __RNvXs_NtNtNtCs9f3LFPSIp77_4core4iter6traits7collectINtNtNtB8_8adapters3map3MapINtNtNtBa_3ops5range5RangeyENCINvXs8_NtCscXJUXcj6jCz_9hashbrown3setINtB1P_7HashSetyNtNtNtCs27l1GJC5rMQ_3std4hash6random11RandomStateEINtB4_6ExtendyE6extendB1e_E0ENtB4_12IntoIterator9into_iterCsh9ovbnNyhRg_7autocfg, symObjAddr: 0x38BC, symBinAddr: 0x10000DFFC, symSize: 0x14 }
  - { offset: 0x1C722, size: 0x8, addend: 0x0, symName: __RNvXs_NtNtNtCs9f3LFPSIp77_4core4iter6traits7collectINtNtNtB8_8adapters3map3MapINtNtNtBa_3str4iter5SplitcENvYeNtNtCsdze8u8oDPro_5alloc6string8ToString9to_stringENtB4_12IntoIterator9into_iterCsh9ovbnNyhRg_7autocfg, symObjAddr: 0x38D0, symBinAddr: 0x10000E010, symSize: 0x30 }
  - { offset: 0x1C75A, size: 0x8, addend: 0x0, symName: __RNvXs_NtNtNtCs9f3LFPSIp77_4core4iter6traits7collectINtNtNtB8_8adapters3map3MapNtNtNtBa_3str4iter5CharsNCNvCsh9ovbnNyhRg_7autocfg6mangle0ENtB4_12IntoIterator9into_iterB1G_, symObjAddr: 0x3900, symBinAddr: 0x10000E040, symSize: 0x1C }
  - { offset: 0x1D466, size: 0x8, addend: 0x0, symName: __RINvNtCs9f3LFPSIp77_4core10intrinsics10typed_swapNtNtCscXJUXcj6jCz_9hashbrown3raw13RawTableInnerECsh9ovbnNyhRg_7autocfg, symObjAddr: 0x9C4, symBinAddr: 0x10000B104, symSize: 0x3C }
  - { offset: 0x1D4A8, size: 0x8, addend: 0x0, symName: __RINvNtCs9f3LFPSIp77_4core10intrinsics23is_val_statically_knownbECsh9ovbnNyhRg_7autocfg, symObjAddr: 0xA00, symBinAddr: 0x10000B140, symSize: 0x18 }
  - { offset: 0x1D51A, size: 0x8, addend: 0x0, symName: __RNvNtCs9f3LFPSIp77_4core10intrinsics6likelyCsh9ovbnNyhRg_7autocfg, symObjAddr: 0x2C64, symBinAddr: 0x10000D3A4, symSize: 0x10 }
  - { offset: 0x1D548, size: 0x8, addend: 0x0, symName: __RNvNtCs9f3LFPSIp77_4core10intrinsics8unlikelyCsh9ovbnNyhRg_7autocfg, symObjAddr: 0x2C74, symBinAddr: 0x10000D3B4, symSize: 0x10 }
  - { offset: 0x1D57B, size: 0x8, addend: 0x0, symName: __RNvNvNtCs9f3LFPSIp77_4core10intrinsics19copy_nonoverlapping18precondition_checkCsh9ovbnNyhRg_7autocfg, symObjAddr: 0x2DC4, symBinAddr: 0x10000D504, symSize: 0x1EC }
  - { offset: 0x1D7D7, size: 0x8, addend: 0x0, symName: __RINvXs3_NtNtCs9f3LFPSIp77_4core4hash5implsRyNtB8_4Hash4hashNtNtNtCs27l1GJC5rMQ_3std4hash6random13DefaultHasherECsh9ovbnNyhRg_7autocfg, symObjAddr: 0x216C, symBinAddr: 0x10000C8AC, symSize: 0x30 }
  - { offset: 0x1D828, size: 0x8, addend: 0x0, symName: __RINvXsa_NtNtCs9f3LFPSIp77_4core4hash5implsyNtB8_4Hash4hashNtNtNtCs27l1GJC5rMQ_3std4hash6random13DefaultHasherECsh9ovbnNyhRg_7autocfg, symObjAddr: 0x2284, symBinAddr: 0x10000C9C4, symSize: 0x38 }
  - { offset: 0x1DB8D, size: 0x8, addend: 0x0, symName: __RNSNvYNCINvMs6_NtCscXJUXcj6jCz_9hashbrown3rawINtBd_8RawTableTyuEE14reserve_rehashNCINvNtBf_3map11make_hasheryuNtNtNtCs27l1GJC5rMQ_3std4hash6random11RandomStateE0E0INtNtNtCs9f3LFPSIp77_4core3ops8function6FnOnceTQNtBd_13RawTableInnerjEE9call_once6vtableCsh9ovbnNyhRg_7autocfg, symObjAddr: 0x2664, symBinAddr: 0x10000CDA4, symSize: 0x38 }
  - { offset: 0x1DBD1, size: 0x8, addend: 0x0, symName: __RNSNvYNCINvMs6_NtCscXJUXcj6jCz_9hashbrown3rawINtBd_8RawTableTyuEE24find_or_find_insert_slotNCINvNtBf_3map14equivalent_keyyyuE0NCINvB1w_11make_hasheryuNtNtNtCs27l1GJC5rMQ_3std4hash6random11RandomStateE0E0INtNtNtCs9f3LFPSIp77_4core3ops8function6FnOnceTjEE9call_once6vtableCsh9ovbnNyhRg_7autocfg, symObjAddr: 0x269C, symBinAddr: 0x10000CDDC, symSize: 0x38 }
  - { offset: 0x1DC15, size: 0x8, addend: 0x0, symName: __RNvYNCINvMs6_NtCscXJUXcj6jCz_9hashbrown3rawINtBb_8RawTableTyuEE14reserve_rehashNCINvNtBd_3map11make_hasheryuNtNtNtCs27l1GJC5rMQ_3std4hash6random11RandomStateE0E0INtNtNtCs9f3LFPSIp77_4core3ops8function6FnOnceTQNtBb_13RawTableInnerjEE9call_onceCsh9ovbnNyhRg_7autocfg, symObjAddr: 0x3B94, symBinAddr: 0x10000E2D4, symSize: 0x5C }
  - { offset: 0x1DC59, size: 0x8, addend: 0x0, symName: __RNvYNCINvMs6_NtCscXJUXcj6jCz_9hashbrown3rawINtBb_8RawTableTyuEE24find_or_find_insert_slotNCINvNtBd_3map14equivalent_keyyyuE0NCINvB1u_11make_hasheryuNtNtNtCs27l1GJC5rMQ_3std4hash6random11RandomStateE0E0INtNtNtCs9f3LFPSIp77_4core3ops8function6FnOnceTjEE9call_onceCsh9ovbnNyhRg_7autocfg, symObjAddr: 0x3BF0, symBinAddr: 0x10000E330, symSize: 0x58 }
  - { offset: 0x1DC9D, size: 0x8, addend: 0x0, symName: __RNvYNCNkNvNvMNtNtCs27l1GJC5rMQ_3std4hash6randomNtBb_11RandomState3new4KEYS0s_0INtNtNtCs9f3LFPSIp77_4core3ops8function6FnOnceTINtNtB1l_6option6OptionQIB20_INtNtB1l_4cell4CellTyyEEEEEE9call_onceCsh9ovbnNyhRg_7autocfg, symObjAddr: 0x3C48, symBinAddr: 0x10000E388, symSize: 0x4C }
  - { offset: 0x1DCE1, size: 0x8, addend: 0x0, symName: __RNvYNcNtNtCs27l1GJC5rMQ_3std2fs8Metadata0INtNtNtCs9f3LFPSIp77_4core3ops8function6FnOnceTNtNtNtNtNtB8_3sys3pal4unix2fs8FileAttrEE9call_onceCsh9ovbnNyhRg_7autocfg, symObjAddr: 0x3C94, symBinAddr: 0x10000E3D4, symSize: 0x40 }
  - { offset: 0x1DD25, size: 0x8, addend: 0x0, symName: __RNvYNvMNtCs9f3LFPSIp77_4core6optionINtB5_6OptionINtNtB7_4cell4CellTyyEEE4takeINtNtNtB7_3ops8function6FnOnceTQBx_EE9call_onceCsh9ovbnNyhRg_7autocfg, symObjAddr: 0x3EC0, symBinAddr: 0x10000E600, symSize: 0x24 }
  - { offset: 0x1DD69, size: 0x8, addend: 0x0, symName: __RNvYNvNtCsh9ovbnNyhRg_7autocfg5error7from_ioINtNtNtCs9f3LFPSIp77_4core3ops8function6FnOnceTNtNtNtCs27l1GJC5rMQ_3std2io5error5ErrorEE9call_onceB6_, symObjAddr: 0x3EE4, symBinAddr: 0x10000E624, symSize: 0x24 }
  - { offset: 0x1DDAD, size: 0x8, addend: 0x0, symName: __RNvYNvNtCsh9ovbnNyhRg_7autocfg5error8from_numINtNtNtCs9f3LFPSIp77_4core3ops8function6FnOnceTNtNtNtBO_3num5error13ParseIntErrorEE9call_onceB6_, symObjAddr: 0x3F08, symBinAddr: 0x10000E648, symSize: 0x24 }
  - { offset: 0x1DDF1, size: 0x8, addend: 0x0, symName: __RNvYNvNtCsh9ovbnNyhRg_7autocfg5error9from_utf8INtNtNtCs9f3LFPSIp77_4core3ops8function6FnOnceTNtNtNtBP_3str5error9Utf8ErrorEE9call_onceB6_, symObjAddr: 0x3F2C, symBinAddr: 0x10000E66C, symSize: 0x28 }
  - { offset: 0x1DE35, size: 0x8, addend: 0x0, symName: __RNvYNvNvNvMNtNtCs27l1GJC5rMQ_3std4hash6randomNtB9_11RandomState3new4KEYS6___initINtNtNtCs9f3LFPSIp77_4core3ops8function6FnOnceuE9call_onceCsh9ovbnNyhRg_7autocfg, symObjAddr: 0x3F54, symBinAddr: 0x10000E694, symSize: 0x1C }
  - { offset: 0x1DE79, size: 0x8, addend: 0x0, symName: __RNvYNvYINtNtCs9f3LFPSIp77_4core6option4IterNtNtCs27l1GJC5rMQ_3std4path7PathBufENtNtNtNtBa_4iter6traits8iterator8Iterator4nextINtNtNtBa_3ops8function6FnOnceTQB5_EE9call_onceCsh9ovbnNyhRg_7autocfg, symObjAddr: 0x3F70, symBinAddr: 0x10000E6B0, symSize: 0x24 }
  - { offset: 0x1DEBD, size: 0x8, addend: 0x0, symName: __RNvYNvYINtNtNtNtCs9f3LFPSIp77_4core4iter8adapters5chain5ChainINtNtBe_6option4IterNtNtCs27l1GJC5rMQ_3std4path7PathBufEBX_ENtNtNtBc_6traits8iterator8Iterator4nextINtNtNtBe_3ops8function6FnOnceTQB5_EE9call_onceCsh9ovbnNyhRg_7autocfg, symObjAddr: 0x3F94, symBinAddr: 0x10000E6D4, symSize: 0x24 }
  - { offset: 0x1DF01, size: 0x8, addend: 0x0, symName: __RNvYNvYNtNtCs27l1GJC5rMQ_3std4path7PathBufINtNtCs9f3LFPSIp77_4core7convert4FromNtNtNtB9_3ffi6os_str8OsStringE4fromINtNtNtBJ_3ops8function6FnOnceTB1f_EE9call_onceCsh9ovbnNyhRg_7autocfg, symObjAddr: 0x3FB8, symBinAddr: 0x10000E6F8, symSize: 0x34 }
  - { offset: 0x1DF45, size: 0x8, addend: 0x0, symName: __RNvYNvYNtNtCsh9ovbnNyhRg_7autocfg7version7VersionNtNtCs9f3LFPSIp77_4core3cmp3Ord3cmpINtNtNtBP_3ops8function6FnOnceTRB5_B1P_EE9call_onceB9_, symObjAddr: 0x3FEC, symBinAddr: 0x10000E72C, symSize: 0x2C }
  - { offset: 0x1DF89, size: 0x8, addend: 0x0, symName: __RNvYNvYeNtNtCsdze8u8oDPro_5alloc6borrow7ToOwned8to_ownedINtNtNtCs9f3LFPSIp77_4core3ops8function6FnOnceTReEE9call_onceCsh9ovbnNyhRg_7autocfg, symObjAddr: 0x4018, symBinAddr: 0x10000E758, symSize: 0x2C }
  - { offset: 0x1DFCD, size: 0x8, addend: 0x0, symName: __RNvYNvYjNtNtCs9f3LFPSIp77_4core3cmp3Ord3cmpINtNtNtBa_3ops8function6FnOnceTRjB1a_EE9call_onceCsh9ovbnNyhRg_7autocfg, symObjAddr: 0x4074, symBinAddr: 0x10000E7B4, symSize: 0x2C }
  - { offset: 0x1E017, size: 0x8, addend: 0x0, symName: __RNvYNvMNtCs9f3LFPSIp77_4core3stre4trimINtNtNtB7_3ops8function5FnMutTReEE8call_mutCsh9ovbnNyhRg_7autocfg, symObjAddr: 0x3E90, symBinAddr: 0x10000E5D0, symSize: 0x30 }
  - { offset: 0x1E05B, size: 0x8, addend: 0x0, symName: __RNvYNvYeNtNtCsdze8u8oDPro_5alloc6string8ToString9to_stringINtNtNtCs9f3LFPSIp77_4core3ops8function5FnMutTReEE8call_mutCsh9ovbnNyhRg_7autocfg, symObjAddr: 0x4044, symBinAddr: 0x10000E784, symSize: 0x30 }
  - { offset: 0x1E3F8, size: 0x8, addend: 0x0, symName: __RNvNtNtNtNtCs9f3LFPSIp77_4core9core_arch10arm_shared4neon9generated18vreinterpret_s8_u8Csh9ovbnNyhRg_7autocfg, symObjAddr: 0x2D84, symBinAddr: 0x10000D4C4, symSize: 0xC }
  - { offset: 0x1E426, size: 0x8, addend: 0x0, symName: __RNvNtNtNtNtCs9f3LFPSIp77_4core9core_arch10arm_shared4neon9generated19vreinterpret_u64_u8Csh9ovbnNyhRg_7autocfg, symObjAddr: 0x2D90, symBinAddr: 0x10000D4D0, symSize: 0xC }
  - { offset: 0x1E454, size: 0x8, addend: 0x0, symName: __RNvNtNtNtNtCs9f3LFPSIp77_4core9core_arch10arm_shared4neon9generated7vceq_u8Csh9ovbnNyhRg_7autocfg, symObjAddr: 0x2D9C, symBinAddr: 0x10000D4DC, symSize: 0x14 }
  - { offset: 0x1E491, size: 0x8, addend: 0x0, symName: __RNvNtNtNtNtCs9f3LFPSIp77_4core9core_arch10arm_shared4neon9generated7vorr_u8Csh9ovbnNyhRg_7autocfg, symObjAddr: 0x2DB0, symBinAddr: 0x10000D4F0, symSize: 0x14 }
  - { offset: 0x1E585, size: 0x8, addend: 0x0, symName: __RNvXNtCs9f3LFPSIp77_4core6borrowyINtB2_6BorrowyE6borrowCsh9ovbnNyhRg_7autocfg, symObjAddr: 0x2FB0, symBinAddr: 0x10000D6F0, symSize: 0x14 }
  - { offset: 0x1E5C6, size: 0x8, addend: 0x0, symName: __RNvYNtNtCsh9ovbnNyhRg_7autocfg5error5ErrorNtNtCs9f3LFPSIp77_4core5error5Error6sourceB6_, symObjAddr: 0x3CD4, symBinAddr: 0x10000E414, symSize: 0x24 }
  - { offset: 0x1E5FB, size: 0x8, addend: 0x0, symName: __RNvYNtNtCsh9ovbnNyhRg_7autocfg5error5ErrorNtNtCs9f3LFPSIp77_4core5error5Error7provideB6_, symObjAddr: 0x3CF8, symBinAddr: 0x10000E438, symSize: 0x18 }
  - { offset: 0x1E63A, size: 0x8, addend: 0x0, symName: __RNvYNtNtCsh9ovbnNyhRg_7autocfg5error5ErrorNtNtCs9f3LFPSIp77_4core5error5Error7type_idB6_, symObjAddr: 0x3D10, symBinAddr: 0x10000E450, symSize: 0x58 }
  - { offset: 0x1E6BA, size: 0x8, addend: 0x0, symName: __RNvYNtNtNtCs27l1GJC5rMQ_3std2io5error5ErrorNtNtCs9f3LFPSIp77_4core5error5Error7provideCsh9ovbnNyhRg_7autocfg, symObjAddr: 0x3D68, symBinAddr: 0x10000E4A8, symSize: 0x18 }
  - { offset: 0x1E6F9, size: 0x8, addend: 0x0, symName: __RNvYNtNtNtCs27l1GJC5rMQ_3std2io5error5ErrorNtNtCs9f3LFPSIp77_4core5error5Error7type_idCsh9ovbnNyhRg_7autocfg, symObjAddr: 0x3D80, symBinAddr: 0x10000E4C0, symSize: 0x58 }
  - { offset: 0x1E779, size: 0x8, addend: 0x0, symName: __RNvYNtNtNtCs9f3LFPSIp77_4core3str5error9Utf8ErrorNtNtB8_5error5Error5causeCsh9ovbnNyhRg_7autocfg, symObjAddr: 0x3DD8, symBinAddr: 0x10000E518, symSize: 0x24 }
  - { offset: 0x1E7AE, size: 0x8, addend: 0x0, symName: __RNvYNtNtNtCs9f3LFPSIp77_4core3str5error9Utf8ErrorNtNtB8_5error5Error6sourceCsh9ovbnNyhRg_7autocfg, symObjAddr: 0x3DFC, symBinAddr: 0x10000E53C, symSize: 0x24 }
  - { offset: 0x1E7E3, size: 0x8, addend: 0x0, symName: __RNvYNtNtNtCs9f3LFPSIp77_4core3str5error9Utf8ErrorNtNtB8_5error5Error7provideCsh9ovbnNyhRg_7autocfg, symObjAddr: 0x3E20, symBinAddr: 0x10000E560, symSize: 0x18 }
  - { offset: 0x1E822, size: 0x8, addend: 0x0, symName: __RNvYNtNtNtCs9f3LFPSIp77_4core3str5error9Utf8ErrorNtNtB8_5error5Error7type_idCsh9ovbnNyhRg_7autocfg, symObjAddr: 0x3E38, symBinAddr: 0x10000E578, symSize: 0x58 }
  - { offset: 0x1EB5A, size: 0x8, addend: 0x0, symName: __RNvNtCsdze8u8oDPro_5alloc5alloc12alloc_zeroedCsh9ovbnNyhRg_7autocfg, symObjAddr: 0x2C84, symBinAddr: 0x10000D3C4, symSize: 0x80 }
  - { offset: 0x1EBFA, size: 0x8, addend: 0x0, symName: __RNvNtCsdze8u8oDPro_5alloc5alloc5allocCsh9ovbnNyhRg_7autocfg, symObjAddr: 0x2D04, symBinAddr: 0x10000D444, symSize: 0x80 }
  - { offset: 0x1EC9F, size: 0x8, addend: 0x0, symName: __RNvXs1_NtCsdze8u8oDPro_5alloc5allocNtB5_6GlobalNtNtCs9f3LFPSIp77_4core5clone5Clone5cloneCsh9ovbnNyhRg_7autocfg, symObjAddr: 0x3284, symBinAddr: 0x10000D9C4, symSize: 0x10 }
  - { offset: 0x1ECF0, size: 0x8, addend: 0x0, symName: __RNvXs_NtCsdze8u8oDPro_5alloc5allocNtB4_6GlobalNtNtCs9f3LFPSIp77_4core5alloc9Allocator10deallocateCsh9ovbnNyhRg_7autocfg, symObjAddr: 0x37B8, symBinAddr: 0x10000DEF8, symSize: 0x8C }
  - { offset: 0x1EDD4, size: 0x8, addend: 0x0, symName: __RNvXs_NtCsdze8u8oDPro_5alloc5allocNtB4_6GlobalNtNtCs9f3LFPSIp77_4core5alloc9Allocator8allocateCsh9ovbnNyhRg_7autocfg, symObjAddr: 0x3844, symBinAddr: 0x10000DF84, symSize: 0x34 }
  - { offset: 0x1F082, size: 0x8, addend: 0x0, symName: __RINvXs_NtNtCsdze8u8oDPro_5alloc5slice4hackhNtB5_10ConvertVec6to_vecNtNtB9_5alloc6GlobalECsh9ovbnNyhRg_7autocfg, symObjAddr: 0x219C, symBinAddr: 0x10000C8DC, symSize: 0xE8 }
  - { offset: 0x1F2BD, size: 0x8, addend: 0x0, symName: __RNvXNvXNtNtCsdze8u8oDPro_5alloc5slice4hackpNtB5_10ConvertVec6to_vecINtB2_9DropGuardNtNtB9_6string6StringNtNtB9_5alloc6GlobalENtNtNtCs9f3LFPSIp77_4core3ops4drop4Drop4dropCsh9ovbnNyhRg_7autocfg, symObjAddr: 0x2FC4, symBinAddr: 0x10000D704, symSize: 0x2C }
  - { offset: 0x1F42D, size: 0x8, addend: 0x0, symName: __RNvXs2_NtCsdze8u8oDPro_5alloc3streNtNtB7_6borrow7ToOwned8to_ownedCsh9ovbnNyhRg_7autocfg, symObjAddr: 0x3294, symBinAddr: 0x10000D9D4, symSize: 0x50 }
  - { offset: 0x1FAC3, size: 0x8, addend: 0x0, symName: __RNvXNtCsh9ovbnNyhRg_7autocfg5errorNtB2_5ErrorNtNtCs9f3LFPSIp77_4core5error5Error11description, symObjAddr: 0x40A0, symBinAddr: 0x10000E7E0, symSize: 0x30 }
  - { offset: 0x1FAEF, size: 0x8, addend: 0x0, symName: __RNvXNtCsh9ovbnNyhRg_7autocfg5errorNtB2_5ErrorNtNtCs9f3LFPSIp77_4core5error5Error5cause, symObjAddr: 0x40D0, symBinAddr: 0x10000E810, symSize: 0x124 }
  - { offset: 0x1FB78, size: 0x8, addend: 0x0, symName: __RNvXs_NtCsh9ovbnNyhRg_7autocfg5errorNtB4_5ErrorNtNtCs9f3LFPSIp77_4core3fmt7Display3fmt, symObjAddr: 0x41F4, symBinAddr: 0x10000E934, symSize: 0x1E8 }
  - { offset: 0x1FCA1, size: 0x8, addend: 0x0, symName: __RNvNtCsh9ovbnNyhRg_7autocfg5error9from_exit, symObjAddr: 0x43DC, symBinAddr: 0x10000EB1C, symSize: 0x40 }
  - { offset: 0x1FCCD, size: 0x8, addend: 0x0, symName: __RNvNtCsh9ovbnNyhRg_7autocfg5error7from_io, symObjAddr: 0x441C, symBinAddr: 0x10000EB5C, symSize: 0x40 }
  - { offset: 0x1FCF9, size: 0x8, addend: 0x0, symName: __RNvNtCsh9ovbnNyhRg_7autocfg5error8from_num, symObjAddr: 0x445C, symBinAddr: 0x10000EB9C, symSize: 0x40 }
  - { offset: 0x1FD25, size: 0x8, addend: 0x0, symName: __RNvNtCsh9ovbnNyhRg_7autocfg5error9from_utf8, symObjAddr: 0x449C, symBinAddr: 0x10000EBDC, symSize: 0x44 }
  - { offset: 0x1FD51, size: 0x8, addend: 0x0, symName: __RNvNtCsh9ovbnNyhRg_7autocfg5error8from_str, symObjAddr: 0x44E0, symBinAddr: 0x10000EC20, symSize: 0x4C }
  - { offset: 0x1FD82, size: 0x8, addend: 0x0, symName: __RNvXs0_NtCsh9ovbnNyhRg_7autocfg5errorNtB5_5ErrorNtNtCs9f3LFPSIp77_4core3fmt5Debug3fmtB7_, symObjAddr: 0x452C, symBinAddr: 0x10000EC6C, symSize: 0x64 }
  - { offset: 0x1FDC2, size: 0x8, addend: 0x0, symName: __RNvXs1_NtCsh9ovbnNyhRg_7autocfg5errorNtB5_9ErrorKindNtNtCs9f3LFPSIp77_4core3fmt5Debug3fmtB7_, symObjAddr: 0x4590, symBinAddr: 0x10000ECD0, symSize: 0x190 }
  - { offset: 0x2006C, size: 0x8, addend: 0x0, symName: __RINvMNtCs9f3LFPSIp77_4core6optionINtB3_6OptionNtNtCs27l1GJC5rMQ_3std4path7PathBufE14unwrap_or_elseNCNCNCNvCsh9ovbnNyhRg_7autocfg19dir_contains_target000EB1G_, symObjAddr: 0x0, symBinAddr: 0x10000A740, symSize: 0x70 }
  - { offset: 0x200CF, size: 0x8, addend: 0x0, symName: __RINvMNtCs9f3LFPSIp77_4core6optionINtB3_6OptionNtNtNtCs27l1GJC5rMQ_3std3ffi6os_str8OsStringE14unwrap_or_elseNCNvMNtCsh9ovbnNyhRg_7autocfg5rustcNtB1M_5Rustc3new0EB1O_, symObjAddr: 0x70, symBinAddr: 0x10000A7B0, symSize: 0x70 }
  - { offset: 0x2014A, size: 0x8, addend: 0x0, symName: __RINvMNtCs9f3LFPSIp77_4core6optionINtB3_6OptionNtNtNtCs27l1GJC5rMQ_3std3ffi6os_str8OsStringE3mapNtNtBO_4path7PathBufNvYB1v_INtNtB5_7convert4FromBI_E4fromECsh9ovbnNyhRg_7autocfg, symObjAddr: 0xE0, symBinAddr: 0x10000A820, symSize: 0x90 }
  - { offset: 0x201C3, size: 0x8, addend: 0x0, symName: __RINvMNtCs9f3LFPSIp77_4core6optionINtB3_6OptionRNtNtCs27l1GJC5rMQ_3std4path7PathBufE7or_elseNCNvXs_NtNtNtB5_4iter8adapters5chainINtB1y_5ChainIB22_INtB3_4IterBJ_EB2j_EINtB3_8IntoIterBI_EENtNtNtB1C_6traits8iterator8Iterator4next0ECsh9ovbnNyhRg_7autocfg, symObjAddr: 0x170, symBinAddr: 0x10000A8B0, symSize: 0xA8 }
  - { offset: 0x20232, size: 0x8, addend: 0x0, symName: __RINvMNtCs9f3LFPSIp77_4core6optionINtB3_6OptionRNtNtCs27l1GJC5rMQ_3std4path7PathBufE7or_elseNCNvXs_NtNtNtB5_4iter8adapters5chainINtB1y_5ChainINtB3_4IterBJ_EB2e_ENtNtNtB1C_6traits8iterator8Iterator4next0ECsh9ovbnNyhRg_7autocfg, symObjAddr: 0x218, symBinAddr: 0x10000A958, symSize: 0xA8 }
  - { offset: 0x202CF, size: 0x8, addend: 0x0, symName: __RINvMNtCs9f3LFPSIp77_4core6optionINtB3_6OptionRNtNtNtCs27l1GJC5rMQ_3std3ffi6os_str8OsStringE8and_thenbNCNvCsh9ovbnNyhRg_7autocfg19dir_contains_target0EB1G_, symObjAddr: 0x2C0, symBinAddr: 0x10000AA00, symSize: 0x78 }
  - { offset: 0x2033B, size: 0x8, addend: 0x0, symName: __RINvMNtCs9f3LFPSIp77_4core6optionINtB3_6OptionReE10ok_or_elseNtNtCsh9ovbnNyhRg_7autocfg5error5ErrorNCNvMNtB11_7versionNtB1E_7Version12from_commands0_0EB11_, symObjAddr: 0x338, symBinAddr: 0x10000AA78, symSize: 0x80 }
  - { offset: 0x203A6, size: 0x8, addend: 0x0, symName: __RINvMNtCs9f3LFPSIp77_4core6optionINtB3_6OptionReE10ok_or_elseNtNtCsh9ovbnNyhRg_7autocfg5error5ErrorNCNvMNtB11_7versionNtB1E_7Version12from_commands1_0EB11_, symObjAddr: 0x3B8, symBinAddr: 0x10000AAF8, symSize: 0x80 }
  - { offset: 0x20411, size: 0x8, addend: 0x0, symName: __RINvMNtCs9f3LFPSIp77_4core6optionINtB3_6OptionReE10ok_or_elseNtNtCsh9ovbnNyhRg_7autocfg5error5ErrorNCNvMNtB11_7versionNtB1E_7Version12from_commands_0EB11_, symObjAddr: 0x438, symBinAddr: 0x10000AB78, symSize: 0x80 }
  - { offset: 0x2059C, size: 0x8, addend: 0x0, symName: __RINvMNtCs9f3LFPSIp77_4core6optionINtB3_6OptionReE11map_or_elseNtNtCsdze8u8oDPro_5alloc6string6StringNCNvNtB12_3fmt6format0NvYeNtNtB12_6borrow7ToOwned8to_ownedECsh9ovbnNyhRg_7autocfg, symObjAddr: 0x4B8, symBinAddr: 0x10000ABF8, symSize: 0xCC }
  - { offset: 0x2061F, size: 0x8, addend: 0x0, symName: __RINvMNtCs9f3LFPSIp77_4core6optionINtB3_6OptionReE3mapbNCNCNCNvCsh9ovbnNyhRg_7autocfg19dir_contains_target00s_0EBY_, symObjAddr: 0x584, symBinAddr: 0x10000ACC4, symSize: 0x6C }
  - { offset: 0x20697, size: 0x8, addend: 0x0, symName: __RINvMNtCs9f3LFPSIp77_4core6optionINtB3_6OptionReE8and_thenbNCNCNvCsh9ovbnNyhRg_7autocfg19dir_contains_target00EB11_, symObjAddr: 0x5F0, symBinAddr: 0x10000AD30, symSize: 0x84 }
  - { offset: 0x2085F, size: 0x8, addend: 0x0, symName: __RINvMNtCs9f3LFPSIp77_4core6resultINtB3_6ResultNtNtCs27l1GJC5rMQ_3std2fs8MetadataNtNtNtBM_2io5error5ErrorE7map_errNtNtCsh9ovbnNyhRg_7autocfg5error5ErrorNvB1P_7from_ioEB1R_, symObjAddr: 0x674, symBinAddr: 0x10000ADB4, symSize: 0xA0 }
  - { offset: 0x208F2, size: 0x8, addend: 0x0, symName: __RINvMNtCs9f3LFPSIp77_4core6resultINtB3_6ResultNtNtCs27l1GJC5rMQ_3std7process5ChildNtNtNtBM_2io5error5ErrorE7map_errNtNtCsh9ovbnNyhRg_7autocfg5error5ErrorNvB1R_7from_ioEB1T_, symObjAddr: 0x714, symBinAddr: 0x10000AE54, symSize: 0x9C }
  - { offset: 0x20984, size: 0x8, addend: 0x0, symName: __RINvMNtCs9f3LFPSIp77_4core6resultINtB3_6ResultNtNtCs27l1GJC5rMQ_3std7process6OutputNtNtNtBM_2io5error5ErrorE7map_errNtNtCsh9ovbnNyhRg_7autocfg5error5ErrorNvB1S_7from_ioEB1U_, symObjAddr: 0x7B0, symBinAddr: 0x10000AEF0, symSize: 0xA0 }
  - { offset: 0x20A2F, size: 0x8, addend: 0x0, symName: __RINvMNtCs9f3LFPSIp77_4core6resultINtB3_6ResultReNtNtNtB5_3str5error9Utf8ErrorE7map_errNtNtCsh9ovbnNyhRg_7autocfg5error5ErrorNvB1o_9from_utf8EB1q_, symObjAddr: 0x850, symBinAddr: 0x10000AF90, symSize: 0x90 }
  - { offset: 0x20ADA, size: 0x8, addend: 0x0, symName: __RINvMNtCs9f3LFPSIp77_4core6resultINtB3_6ResultjNtNtNtB5_3num5error13ParseIntErrorE7map_errNtNtCsh9ovbnNyhRg_7autocfg5error5ErrorNvB1s_8from_numEB1u_, symObjAddr: 0x8E0, symBinAddr: 0x10000B020, symSize: 0x78 }
  - { offset: 0x20B6C, size: 0x8, addend: 0x0, symName: __RINvMNtCs9f3LFPSIp77_4core6resultINtB3_6ResultuNtNtNtCs27l1GJC5rMQ_3std2io5error5ErrorE7map_errNtNtCsh9ovbnNyhRg_7autocfg5error5ErrorNvB1x_7from_ioEB1z_, symObjAddr: 0x958, symBinAddr: 0x10000B098, symSize: 0x6C }
  - { offset: 0x20EBA, size: 0x8, addend: 0x0, symName: __RNvMNtCs9f3LFPSIp77_4core6optionINtB2_6OptionINtNtB4_4cell4CellTyyEEE4takeCsh9ovbnNyhRg_7autocfg, symObjAddr: 0x26D4, symBinAddr: 0x10000CE14, symSize: 0x3C }
  - { offset: 0x20F9E, size: 0x8, addend: 0x0, symName: __RNvMNtCs9f3LFPSIp77_4core6optionINtB2_6OptionNtNtCs27l1GJC5rMQ_3std4path7PathBufE4iterCsh9ovbnNyhRg_7autocfg, symObjAddr: 0x2710, symBinAddr: 0x10000CE50, symSize: 0x50 }
  - { offset: 0x2100B, size: 0x8, addend: 0x0, symName: __RNvMNtCs9f3LFPSIp77_4core6optionINtB2_6OptionNtNtCs27l1GJC5rMQ_3std7process10ChildStdinE4takeCsh9ovbnNyhRg_7autocfg, symObjAddr: 0x2760, symBinAddr: 0x10000CEA0, symSize: 0x30 }
  - { offset: 0x210B7, size: 0x8, addend: 0x0, symName: __RNvMNtCs9f3LFPSIp77_4core6optionINtB2_6OptionNtNtCs27l1GJC5rMQ_3std7process10ChildStdinE6expectCsh9ovbnNyhRg_7autocfg, symObjAddr: 0x2790, symBinAddr: 0x10000CED0, symSize: 0x5C }
  - { offset: 0x210FF, size: 0x8, addend: 0x0, symName: __RNvMNtCs9f3LFPSIp77_4core6optionINtB2_6OptionNtNtNtCs27l1GJC5rMQ_3std3ffi6os_str8OsStringE6as_refCsh9ovbnNyhRg_7autocfg, symObjAddr: 0x27EC, symBinAddr: 0x10000CF2C, symSize: 0x50 }
  - { offset: 0x21165, size: 0x8, addend: 0x0, symName: __RNvMNtCs9f3LFPSIp77_4core6optionINtB2_6OptionNtNtNtCs27l1GJC5rMQ_3std3ffi6os_str8OsStringE7is_noneCsh9ovbnNyhRg_7autocfg, symObjAddr: 0x283C, symBinAddr: 0x10000CF7C, symSize: 0x50 }
  - { offset: 0x211AF, size: 0x8, addend: 0x0, symName: __RNvMNtCs9f3LFPSIp77_4core6optionINtB2_6OptionbE9unwrap_orCsh9ovbnNyhRg_7autocfg, symObjAddr: 0x288C, symBinAddr: 0x10000CFCC, symSize: 0x5C }
  - { offset: 0x21207, size: 0x8, addend: 0x0, symName: __RNvMNtCs9f3LFPSIp77_4core6resultINtB2_6ResultNtNtNtCs27l1GJC5rMQ_3std4hash6random11RandomStateNtNtNtBN_6thread5local11AccessErrorE6expectCsh9ovbnNyhRg_7autocfg, symObjAddr: 0x28E8, symBinAddr: 0x10000D028, symSize: 0x8C }
  - { offset: 0x21269, size: 0x8, addend: 0x0, symName: __RNvMNtCs9f3LFPSIp77_4core6resultINtB2_6ResulthNtNtNtB4_3num5error15TryFromIntErrorE6expectCsh9ovbnNyhRg_7autocfg, symObjAddr: 0x2974, symBinAddr: 0x10000D0B4, symSize: 0x84 }
  - { offset: 0x212D7, size: 0x8, addend: 0x0, symName: __RNvMNtCs9f3LFPSIp77_4core6resultINtB2_6ResultuNtNtCsh9ovbnNyhRg_7autocfg5error5ErrorE5is_okBM_, symObjAddr: 0x29F8, symBinAddr: 0x10000D138, symSize: 0x44 }
  - { offset: 0x2130C, size: 0x8, addend: 0x0, symName: __RNvMNtCs9f3LFPSIp77_4core6resultINtB2_6ResultuNtNtNtCs27l1GJC5rMQ_3std2io5error5ErrorE2okCsh9ovbnNyhRg_7autocfg, symObjAddr: 0x2A3C, symBinAddr: 0x10000D17C, symSize: 0x6C }
  - { offset: 0x214DE, size: 0x8, addend: 0x0, symName: __RNvMNtCsdze8u8oDPro_5alloc5allocNtB2_6Global10alloc_implCsh9ovbnNyhRg_7autocfg, symObjAddr: 0x2AA8, symBinAddr: 0x10000D1E8, symSize: 0x1BC }
  - { offset: 0x22CB8, size: 0x8, addend: 0x0, symName: __RINvMsi_NtCsdze8u8oDPro_5alloc3vecINtB6_3VecNtNtB8_6string6StringE16extend_desugaredINtNtNtNtCs9f3LFPSIp77_4core4iter8adapters3map3MapINtNtB1p_6filter6FilterIB1l_INtNtNtB1t_3str4iter5SplitcENvMB2F_e4trimENCNvCsh9ovbnNyhRg_7autocfg9rustflags0ENvYeNtBI_8ToString9to_stringEEB3k_, symObjAddr: 0x0, symBinAddr: 0x10000EE60, symSize: 0x1D8 }
  - { offset: 0x22D4D, size: 0x8, addend: 0x0, symName: __RNvXNvNtNtCs27l1GJC5rMQ_3std2io5Write9write_fmtINtB2_7AdapterNtNtB8_7process10ChildStdinENtNtCs9f3LFPSIp77_4core3fmt5Write9write_strCsh9ovbnNyhRg_7autocfg, symObjAddr: 0x1BD8, symBinAddr: 0x100010A38, symSize: 0xB8 }
  - { offset: 0x22DA9, size: 0x8, addend: 0x0, symName: __RNvXNvNtNtCs27l1GJC5rMQ_3std2io5Write9write_fmtINtB2_7AdapterNtNtNtNtNtB8_3sys3pal4unix5stdio6StderrENtNtCs9f3LFPSIp77_4core3fmt5Write9write_strCsh9ovbnNyhRg_7autocfg, symObjAddr: 0x1C90, symBinAddr: 0x100010AF0, symSize: 0xB8 }
  - { offset: 0x22EE7, size: 0x8, addend: 0x0, symName: __RNCNvXs1_NtNtNtCs27l1GJC5rMQ_3std2io5error14repr_bitpackedNtB7_4ReprNtNtNtCs9f3LFPSIp77_4core3ops4drop4Drop4drop0Csh9ovbnNyhRg_7autocfg, symObjAddr: 0xA54, symBinAddr: 0x10000F8B4, symSize: 0x34 }
  - { offset: 0x22F9C, size: 0x8, addend: 0x0, symName: __RNvXs1_NtNtNtCs27l1GJC5rMQ_3std2io5error14repr_bitpackedNtB5_4ReprNtNtNtCs9f3LFPSIp77_4core3ops4drop4Drop4dropCsh9ovbnNyhRg_7autocfg, symObjAddr: 0x1D70, symBinAddr: 0x100010BD0, symSize: 0x38 }
  - { offset: 0x22FC5, size: 0x8, addend: 0x0, symName: __RINvNtNtNtCs27l1GJC5rMQ_3std2io5error14repr_bitpacked11decode_reprINtNtCsdze8u8oDPro_5alloc5boxed3BoxNtB4_6CustomENCNvXs1_B2_NtB2_4ReprNtNtNtCs9f3LFPSIp77_4core3ops4drop4Drop4drop0ECsh9ovbnNyhRg_7autocfg, symObjAddr: 0x418, symBinAddr: 0x10000F278, symSize: 0x234 }
  - { offset: 0x2329F, size: 0x8, addend: 0x0, symName: __RNCNvMs0_NtNtNtCs27l1GJC5rMQ_3std2io5error14repr_bitpackedNtB7_4Repr4data0Csh9ovbnNyhRg_7autocfg, symObjAddr: 0xA40, symBinAddr: 0x10000F8A0, symSize: 0x14 }
  - { offset: 0x232D7, size: 0x8, addend: 0x0, symName: __RINvNtNtNtCs27l1GJC5rMQ_3std2io5error14repr_bitpacked11decode_reprRNtB4_6CustomNCNvMs0_B2_NtB2_4Repr4data0ECsh9ovbnNyhRg_7autocfg, symObjAddr: 0x64C, symBinAddr: 0x10000F4AC, symSize: 0x234 }
  - { offset: 0x235A0, size: 0x8, addend: 0x0, symName: __RNvNtNtNtCs27l1GJC5rMQ_3std2io5error14repr_bitpacked14kind_from_primCsh9ovbnNyhRg_7autocfg, symObjAddr: 0x1000, symBinAddr: 0x10000FE60, symSize: 0x608 }
  - { offset: 0x241D1, size: 0x8, addend: 0x0, symName: __RNvXsG_NtCs27l1GJC5rMQ_3std4pathNtB5_7PathBufNtNtNtCs9f3LFPSIp77_4core3ops5deref5Deref5derefCsh9ovbnNyhRg_7autocfg, symObjAddr: 0x1F5C, symBinAddr: 0x100010DBC, symSize: 0x34 }
  - { offset: 0x2425F, size: 0x8, addend: 0x0, symName: __RNvXs1g_NtCs27l1GJC5rMQ_3std4pathNtB6_7PathBufINtNtCs9f3LFPSIp77_4core7convert5AsRefNtB6_4PathE6as_refCsh9ovbnNyhRg_7autocfg, symObjAddr: 0x1DA8, symBinAddr: 0x100010C08, symSize: 0x34 }
  - { offset: 0x2430B, size: 0x8, addend: 0x0, symName: __RNvXsY_NtCs27l1GJC5rMQ_3std4pathNtB5_7PathBufINtNtCs9f3LFPSIp77_4core7convert5AsRefNtNtNtB7_3ffi6os_str5OsStrE6as_refCsh9ovbnNyhRg_7autocfg, symObjAddr: 0x1FC0, symBinAddr: 0x100010E20, symSize: 0x2C }
  - { offset: 0x2433F, size: 0x8, addend: 0x0, symName: __RNvXss_NtCs27l1GJC5rMQ_3std4pathNtB5_7PathBufNtNtCs9f3LFPSIp77_4core5clone5Clone5cloneCsh9ovbnNyhRg_7autocfg, symObjAddr: 0x262C, symBinAddr: 0x10001148C, symSize: 0x70 }
  - { offset: 0x243CD, size: 0x8, addend: 0x0, symName: __RNvXsz_NtCs27l1GJC5rMQ_3std4pathNtB5_7PathBufINtNtCs9f3LFPSIp77_4core7convert4FromNtNtNtB7_3ffi6os_str8OsStringE4fromCsh9ovbnNyhRg_7autocfg, symObjAddr: 0x2700, symBinAddr: 0x100011560, symSize: 0x18 }
  - { offset: 0x24401, size: 0x8, addend: 0x0, symName: __RNvXsy_NtCs27l1GJC5rMQ_3std4pathNtB5_7PathBufINtNtCs9f3LFPSIp77_4core7convert4FromReE4fromCsh9ovbnNyhRg_7autocfg, symObjAddr: 0x269C, symBinAddr: 0x1000114FC, symSize: 0x64 }
  - { offset: 0x259C8, size: 0x8, addend: 0x0, symName: __RNvXsP_NtCs9f3LFPSIp77_4core3fmtRNtNtCs27l1GJC5rMQ_3std4path7PathBufNtB5_5Debug3fmtCsh9ovbnNyhRg_7autocfg, symObjAddr: 0x1F90, symBinAddr: 0x100010DF0, symSize: 0x30 }
  - { offset: 0x25AD0, size: 0x8, addend: 0x0, symName: __RNvXs_NvNtNtCs9f3LFPSIp77_4core3fmt5Write9write_fmtQINtNvNtNtCs27l1GJC5rMQ_3std2io5Write9write_fmt7AdapterNtNtBX_7process10ChildStdinENtB4_12SpecWriteFmt14spec_write_fmtCsh9ovbnNyhRg_7autocfg, symObjAddr: 0x1FEC, symBinAddr: 0x100010E4C, symSize: 0x190 }
  - { offset: 0x25B94, size: 0x8, addend: 0x0, symName: __RNvXs_NvNtNtCs9f3LFPSIp77_4core3fmt5Write9write_fmtQINtNvNtNtCs27l1GJC5rMQ_3std2io5Write9write_fmt7AdapterNtNtNtNtNtBX_3sys3pal4unix5stdio6StderrENtB4_12SpecWriteFmt14spec_write_fmtCsh9ovbnNyhRg_7autocfg, symObjAddr: 0x217C, symBinAddr: 0x100010FDC, symSize: 0x190 }
  - { offset: 0x25C5A, size: 0x8, addend: 0x0, symName: __RNvYINtNvNtNtCs27l1GJC5rMQ_3std2io5Write9write_fmt7AdapterNtNtBb_7process10ChildStdinENtNtCs9f3LFPSIp77_4core3fmt5Write10write_charCsh9ovbnNyhRg_7autocfg, symObjAddr: 0x2718, symBinAddr: 0x100011578, symSize: 0x70 }
  - { offset: 0x25CC2, size: 0x8, addend: 0x0, symName: __RNvYINtNvNtNtCs27l1GJC5rMQ_3std2io5Write9write_fmt7AdapterNtNtBb_7process10ChildStdinENtNtCs9f3LFPSIp77_4core3fmt5Write9write_fmtCsh9ovbnNyhRg_7autocfg, symObjAddr: 0x2788, symBinAddr: 0x1000115E8, symSize: 0x24 }
  - { offset: 0x25D06, size: 0x8, addend: 0x0, symName: __RNvYINtNvNtNtCs27l1GJC5rMQ_3std2io5Write9write_fmt7AdapterNtNtNtNtNtBb_3sys3pal4unix5stdio6StderrENtNtCs9f3LFPSIp77_4core3fmt5Write10write_charCsh9ovbnNyhRg_7autocfg, symObjAddr: 0x27AC, symBinAddr: 0x10001160C, symSize: 0x70 }
  - { offset: 0x25D6E, size: 0x8, addend: 0x0, symName: __RNvYINtNvNtNtCs27l1GJC5rMQ_3std2io5Write9write_fmt7AdapterNtNtNtNtNtBb_3sys3pal4unix5stdio6StderrENtNtCs9f3LFPSIp77_4core3fmt5Write9write_fmtCsh9ovbnNyhRg_7autocfg, symObjAddr: 0x281C, symBinAddr: 0x10001167C, symSize: 0x24 }
  - { offset: 0x261A1, size: 0x8, addend: 0x0, symName: __RNCINvNvNtNtNtNtCs9f3LFPSIp77_4core4iter6traits8iterator8Iterator4find5checkReNCNvMNtCsh9ovbnNyhRg_7autocfg7versionNtB1j_7Version12from_command0E0B1l_, symObjAddr: 0x8E8, symBinAddr: 0x10000F748, symSize: 0x84 }
  - { offset: 0x261FC, size: 0x8, addend: 0x0, symName: __RNCINvNvNtNtNtNtCs9f3LFPSIp77_4core4iter6traits8iterator8Iterator4find5checkReQNCNvCsh9ovbnNyhRg_7autocfg9rustflags0E0B1j_, symObjAddr: 0x96C, symBinAddr: 0x10000F7CC, symSize: 0x84 }
  - { offset: 0x26264, size: 0x8, addend: 0x0, symName: __RNCINvNvNtNtNtNtCs9f3LFPSIp77_4core4iter6traits8iterator8Iterator8for_each4callTyuENCINvXs1i_NtCscXJUXcj6jCz_9hashbrown3mapINtB1t_7HashMapyuNtNtNtCs27l1GJC5rMQ_3std4hash6random11RandomStateEINtNtBa_7collect6ExtendB1f_E6extendINtNtNtBc_8adapters3map3MapINtNtNtBe_3ops5range5RangeyENCINvXs8_NtB1v_3setINtB4D_7HashSetyB2e_EIB33_yE6extendB42_E0EE0E0Csh9ovbnNyhRg_7autocfg, symObjAddr: 0x9F0, symBinAddr: 0x10000F850, symSize: 0x28 }
  - { offset: 0x262BC, size: 0x8, addend: 0x0, symName: __RNCINvNvNtNtNtNtCs9f3LFPSIp77_4core4iter6traits8iterator8Iterator8for_each4callcNCINvXsb_NtCsdze8u8oDPro_5alloc6stringNtB1p_6StringINtNtBa_7collect6ExtendcE6extendINtNtNtBc_8adapters3map3MapNtNtNtBe_3str4iter5CharsNCNvCsh9ovbnNyhRg_7autocfg6mangle0EE0E0B3u_, symObjAddr: 0xA18, symBinAddr: 0x10000F878, symSize: 0x28 }
  - { offset: 0x26AC8, size: 0x8, addend: 0x0, symName: __RNvXNtCs9f3LFPSIp77_4core7convertRNtNtCs27l1GJC5rMQ_3std4path7PathBufINtB2_5AsRefNtBy_4PathE6as_refCsh9ovbnNyhRg_7autocfg, symObjAddr: 0x1608, symBinAddr: 0x100010468, symSize: 0x28 }
  - { offset: 0x26B08, size: 0x8, addend: 0x0, symName: __RNvXNtCs9f3LFPSIp77_4core7convertRNtNtCs27l1GJC5rMQ_3std4path7PathBufINtB2_5AsRefNtNtNtBA_3ffi6os_str5OsStrE6as_refCsh9ovbnNyhRg_7autocfg, symObjAddr: 0x1630, symBinAddr: 0x100010490, symSize: 0x28 }
  - { offset: 0x26B48, size: 0x8, addend: 0x0, symName: __RNvXNtCs9f3LFPSIp77_4core7convertRRNtNtCs27l1GJC5rMQ_3std4path7PathBufINtB2_5AsRefNtNtNtBB_3ffi6os_str5OsStrE6as_refCsh9ovbnNyhRg_7autocfg, symObjAddr: 0x1658, symBinAddr: 0x1000104B8, symSize: 0x28 }
  - { offset: 0x26B88, size: 0x8, addend: 0x0, symName: __RNvXNtCs9f3LFPSIp77_4core7convertRReINtB2_5AsRefNtNtNtCs27l1GJC5rMQ_3std3ffi6os_str5OsStrE6as_refCsh9ovbnNyhRg_7autocfg, symObjAddr: 0x1680, symBinAddr: 0x1000104E0, symSize: 0x28 }
  - { offset: 0x26BC8, size: 0x8, addend: 0x0, symName: __RNvXNtCs9f3LFPSIp77_4core7convertReINtB2_5AsRefNtNtNtCs27l1GJC5rMQ_3std3ffi6os_str5OsStrE6as_refCsh9ovbnNyhRg_7autocfg, symObjAddr: 0x16A8, symBinAddr: 0x100010508, symSize: 0x30 }
  - { offset: 0x26C0E, size: 0x8, addend: 0x0, symName: __RNvXs1_NtCs9f3LFPSIp77_4core7convertReINtB5_4IntoNtNtNtCs27l1GJC5rMQ_3std3ffi6os_str8OsStringE4intoCsh9ovbnNyhRg_7autocfg, symObjAddr: 0x1D48, symBinAddr: 0x100010BA8, symSize: 0x28 }
  - { offset: 0x26D36, size: 0x8, addend: 0x0, symName: __RNvXsb_NtCs9f3LFPSIp77_4core5arrayRARNtNtCs27l1GJC5rMQ_3std4path7PathBufj2_NtNtNtNtB7_4iter6traits7collect12IntoIterator9into_iterCsh9ovbnNyhRg_7autocfg, symObjAddr: 0x230C, symBinAddr: 0x10001116C, symSize: 0x58 }
  - { offset: 0x26E60, size: 0x8, addend: 0x0, symName: __RNvXsb_NtCs9f3LFPSIp77_4core5arrayRARej2_NtNtNtNtB7_4iter6traits7collect12IntoIterator9into_iterCsh9ovbnNyhRg_7autocfg, symObjAddr: 0x2364, symBinAddr: 0x1000111C4, symSize: 0x58 }
  - { offset: 0x27461, size: 0x8, addend: 0x0, symName: __RINvXsd_NtCsdze8u8oDPro_5alloc3vecINtB6_3VecNtNtB8_6string6StringEINtNtNtNtCs9f3LFPSIp77_4core4iter6traits7collect12FromIteratorBG_E9from_iterINtNtNtB19_8adapters3map3MapINtNtB2l_6filter6FilterIB2h_INtNtNtB1b_3str4iter5SplitcENvMB3f_e4trimENCNvCsh9ovbnNyhRg_7autocfg9rustflags0ENvYeNtBI_8ToString9to_stringEEB3U_, symObjAddr: 0x880, symBinAddr: 0x10000F6E0, symSize: 0x34 }
  - { offset: 0x274A2, size: 0x8, addend: 0x0, symName: __RINvXsd_NtCsdze8u8oDPro_5alloc3vecINtB6_3VecNtNtB8_6string6StringEINtNtNtNtCs9f3LFPSIp77_4core4iter6traits7collect12FromIteratorBG_E9from_iterINtNtNtB19_8adapters3map3MapINtNtNtB1b_3str4iter5SplitcENvYeNtBI_8ToString9to_stringEECsh9ovbnNyhRg_7autocfg, symObjAddr: 0x8B4, symBinAddr: 0x10000F714, symSize: 0x34 }
  - { offset: 0x274EE, size: 0x8, addend: 0x0, symName: __RNvXNtNtCsdze8u8oDPro_5alloc3vec11spec_extendINtB4_3VecNtNtB6_6string6StringEINtB2_10SpecExtendBR_INtNtNtNtCs9f3LFPSIp77_4core4iter8adapters3map3MapINtNtB1D_6filter6FilterIB1z_INtNtNtB1H_3str4iter5SplitcENvMB2T_e4trimENCNvCsh9ovbnNyhRg_7autocfg9rustflags0ENvYeNtBT_8ToString9to_stringEE11spec_extendB3y_, symObjAddr: 0x16D8, symBinAddr: 0x100010538, symSize: 0x24 }
  - { offset: 0x27540, size: 0x8, addend: 0x0, symName: __RNvXNtNtCsdze8u8oDPro_5alloc3vec11spec_extendINtB4_3VecNtNtB6_6string6StringEINtB2_10SpecExtendBR_INtNtNtNtCs9f3LFPSIp77_4core4iter8adapters3map3MapINtNtNtB1H_3str4iter5SplitcENvYeNtBT_8ToString9to_stringEE11spec_extendCsh9ovbnNyhRg_7autocfg, symObjAddr: 0x16FC, symBinAddr: 0x10001055C, symSize: 0x24 }
  - { offset: 0x2759E, size: 0x8, addend: 0x0, symName: __RNvXNtNtCsdze8u8oDPro_5alloc3vec14spec_from_iterINtB4_3VecNtNtB6_6string6StringEINtB2_12SpecFromIterBU_INtNtNtNtCs9f3LFPSIp77_4core4iter8adapters3map3MapINtNtB1I_6filter6FilterIB1E_INtNtNtB1M_3str4iter5SplitcENvMB2Y_e4trimENCNvCsh9ovbnNyhRg_7autocfg9rustflags0ENvYeNtBW_8ToString9to_stringEE9from_iterB3D_, symObjAddr: 0x1720, symBinAddr: 0x100010580, symSize: 0x14 }
  - { offset: 0x275DD, size: 0x8, addend: 0x0, symName: __RNvXNtNtCsdze8u8oDPro_5alloc3vec14spec_from_iterINtB4_3VecNtNtB6_6string6StringEINtB2_12SpecFromIterBU_INtNtNtNtCs9f3LFPSIp77_4core4iter8adapters3map3MapINtNtNtB1M_3str4iter5SplitcENvYeNtBW_8ToString9to_stringEE9from_iterCsh9ovbnNyhRg_7autocfg, symObjAddr: 0x1734, symBinAddr: 0x100010594, symSize: 0x14 }
  - { offset: 0x27628, size: 0x8, addend: 0x0, symName: __RNvXNtNtCsdze8u8oDPro_5alloc3vec21spec_from_iter_nestedINtB4_3VecNtNtB6_6string6StringEINtB2_18SpecFromIterNestedB11_INtNtNtNtCs9f3LFPSIp77_4core4iter8adapters3map3MapINtNtB1W_6filter6FilterIB1S_INtNtNtB20_3str4iter5SplitcENvMB3c_e4trimENCNvCsh9ovbnNyhRg_7autocfg9rustflags0ENvYeNtB13_8ToString9to_stringEE9from_iterB3R_, symObjAddr: 0x1748, symBinAddr: 0x1000105A8, symSize: 0x248 }
  - { offset: 0x2793A, size: 0x8, addend: 0x0, symName: __RNvXNtNtCsdze8u8oDPro_5alloc3vec21spec_from_iter_nestedINtB4_3VecNtNtB6_6string6StringEINtB2_18SpecFromIterNestedB11_INtNtNtNtCs9f3LFPSIp77_4core4iter8adapters3map3MapINtNtNtB20_3str4iter5SplitcENvYeNtB13_8ToString9to_stringEE9from_iterCsh9ovbnNyhRg_7autocfg, symObjAddr: 0x1990, symBinAddr: 0x1000107F0, symSize: 0x248 }
  - { offset: 0x27C53, size: 0x8, addend: 0x0, symName: __RNvXs6_NtCsdze8u8oDPro_5alloc3vecINtB5_3VechENtNtNtCs9f3LFPSIp77_4core3ops5deref5Deref5derefCsh9ovbnNyhRg_7autocfg, symObjAddr: 0x1DDC, symBinAddr: 0x100010C3C, symSize: 0x24 }
  - { offset: 0x27D59, size: 0x8, addend: 0x0, symName: __RNvXs9_NtCsdze8u8oDPro_5alloc3vecINtB5_3VecNtNtB7_6string6StringENtNtCs9f3LFPSIp77_4core5clone5Clone5cloneCsh9ovbnNyhRg_7autocfg, symObjAddr: 0x1E00, symBinAddr: 0x100010C60, symSize: 0xB0 }
  - { offset: 0x27FBD, size: 0x8, addend: 0x0, symName: __RNvXs9_NtCsdze8u8oDPro_5alloc3vecINtB5_3VechENtNtCs9f3LFPSIp77_4core5clone5Clone5cloneCsh9ovbnNyhRg_7autocfg, symObjAddr: 0x1EB0, symBinAddr: 0x100010D10, symSize: 0xAC }
  - { offset: 0x28227, size: 0x8, addend: 0x0, symName: __RNvXsf_NtCsdze8u8oDPro_5alloc3vecRINtB5_3VecNtNtB7_6string6StringENtNtNtNtCs9f3LFPSIp77_4core4iter6traits7collect12IntoIterator9into_iterCsh9ovbnNyhRg_7autocfg, symObjAddr: 0x23BC, symBinAddr: 0x10001121C, symSize: 0xB8 }
  - { offset: 0x28508, size: 0x8, addend: 0x0, symName: __RNvXsn_NtCsdze8u8oDPro_5alloc3vecINtB5_3VecINtNtB7_5boxed3BoxDINtNtNtCs9f3LFPSIp77_4core3ops8function5FnMutuEp6OutputINtNtB15_6result6ResultuNtNtNtCs27l1GJC5rMQ_3std2io5error5ErrorENtNtB15_6marker4SendNtB2V_4SyncEL_EENtNtB13_4drop4Drop4dropCsh9ovbnNyhRg_7autocfg, symObjAddr: 0x2474, symBinAddr: 0x1000112D4, symSize: 0x50 }
  - { offset: 0x28615, size: 0x8, addend: 0x0, symName: __RNvXsn_NtCsdze8u8oDPro_5alloc3vecINtB5_3VecNtNtB7_6string6StringENtNtNtCs9f3LFPSIp77_4core3ops4drop4Drop4dropCsh9ovbnNyhRg_7autocfg, symObjAddr: 0x24C4, symBinAddr: 0x100011324, symSize: 0x50 }
  - { offset: 0x28722, size: 0x8, addend: 0x0, symName: __RNvXsn_NtCsdze8u8oDPro_5alloc3vecINtB5_3VecNtNtNtB7_3ffi5c_str7CStringENtNtNtCs9f3LFPSIp77_4core3ops4drop4Drop4dropCsh9ovbnNyhRg_7autocfg, symObjAddr: 0x2514, symBinAddr: 0x100011374, symSize: 0x50 }
  - { offset: 0x2882F, size: 0x8, addend: 0x0, symName: __RNvXsn_NtCsdze8u8oDPro_5alloc3vecINtB5_3VecPaENtNtNtCs9f3LFPSIp77_4core3ops4drop4Drop4dropCsh9ovbnNyhRg_7autocfg, symObjAddr: 0x2564, symBinAddr: 0x1000113C4, symSize: 0x3C }
  - { offset: 0x289F8, size: 0x8, addend: 0x0, symName: __RNvXsp_NtCsdze8u8oDPro_5alloc3vecINtB5_3VecNtNtB7_6string6StringENtNtCs9f3LFPSIp77_4core3fmt5Debug3fmtCsh9ovbnNyhRg_7autocfg, symObjAddr: 0x25A0, symBinAddr: 0x100011400, symSize: 0x8C }
  - { offset: 0x2956E, size: 0x8, addend: 0x0, symName: __RINvMsi_NtCsdze8u8oDPro_5alloc3vecINtB6_3VecNtNtB8_6string6StringE16extend_desugaredINtNtNtNtCs9f3LFPSIp77_4core4iter8adapters3map3MapINtNtB1p_6filter6FilterIB1l_INtNtNtB1t_3str4iter5SplitcENvMB2F_e4trimENCNvCsh9ovbnNyhRg_7autocfg9rustflags0ENvYeNtBI_8ToString9to_stringEEB3k_, symObjAddr: 0x0, symBinAddr: 0x10000EE60, symSize: 0x1D8 }
  - { offset: 0x299AE, size: 0x8, addend: 0x0, symName: __RINvMsi_NtCsdze8u8oDPro_5alloc3vecINtB6_3VecNtNtB8_6string6StringE16extend_desugaredINtNtNtNtCs9f3LFPSIp77_4core4iter8adapters3map3MapINtNtNtB1t_3str4iter5SplitcENvYeNtBI_8ToString9to_stringEECsh9ovbnNyhRg_7autocfg, symObjAddr: 0x1D8, symBinAddr: 0x10000F038, symSize: 0x1D8 }
  - { offset: 0x29C46, size: 0x8, addend: 0x0, symName: __RINvMsr_NtCs27l1GJC5rMQ_3std4pathNtB6_7PathBuf4pushRNtNtNtB8_3ffi6os_str8OsStringECsh9ovbnNyhRg_7autocfg, symObjAddr: 0x3B0, symBinAddr: 0x10000F210, symSize: 0x68 }
  - { offset: 0x29F32, size: 0x8, addend: 0x0, symName: __RNvMNtCsdze8u8oDPro_5alloc3vecINtB2_3VecNtNtB4_6string6StringE3newCsh9ovbnNyhRg_7autocfg, symObjAddr: 0xA88, symBinAddr: 0x10000F8E8, symSize: 0x28 }
  - { offset: 0x29FBB, size: 0x8, addend: 0x0, symName: __RNvMNtNtNtCs9f3LFPSIp77_4core4iter8adapters7step_byINtB2_6StepByINtNtNtB8_3ops5range5RangejEE3newCsh9ovbnNyhRg_7autocfg, symObjAddr: 0xAB0, symBinAddr: 0x10000F910, symSize: 0xE0 }
  - { offset: 0x2A0A6, size: 0x8, addend: 0x0, symName: __RNvMsZ_NtCs27l1GJC5rMQ_3std4pathNtB5_4Path6to_strCsh9ovbnNyhRg_7autocfg, symObjAddr: 0xB90, symBinAddr: 0x10000F9F0, symSize: 0x88 }
  - { offset: 0x2A296, size: 0x8, addend: 0x0, symName: __RNvMs_NtCsdze8u8oDPro_5alloc3vecINtB4_3VecNtNtB6_6string6StringE18spare_capacity_mutCsh9ovbnNyhRg_7autocfg, symObjAddr: 0xC18, symBinAddr: 0x10000FA78, symSize: 0xE0 }
  - { offset: 0x2A553, size: 0x8, addend: 0x0, symName: __RNvMs_NtCsdze8u8oDPro_5alloc3vecINtB4_3VecNtNtB6_6string6StringE7reserveCsh9ovbnNyhRg_7autocfg, symObjAddr: 0xCF8, symBinAddr: 0x10000FB58, symSize: 0xC4 }
  - { offset: 0x2A803, size: 0x8, addend: 0x0, symName: __RNvMs_NtCsdze8u8oDPro_5alloc3vecINtB4_3VechE15append_elementsCsh9ovbnNyhRg_7autocfg, symObjAddr: 0xDBC, symBinAddr: 0x10000FC1C, symSize: 0xE4 }
  - { offset: 0x2AAFF, size: 0x8, addend: 0x0, symName: __RNvMs_NtCsdze8u8oDPro_5alloc3vecINtB4_3VechE4pushCsh9ovbnNyhRg_7autocfg, symObjAddr: 0xEA0, symBinAddr: 0x10000FD00, symSize: 0xE8 }
  - { offset: 0x2ADEC, size: 0x8, addend: 0x0, symName: __RNvMs_NtCsdze8u8oDPro_5alloc3vecINtB4_3VechE8as_sliceCsh9ovbnNyhRg_7autocfg, symObjAddr: 0xF88, symBinAddr: 0x10000FDE8, symSize: 0x78 }
  - { offset: 0x2C3D5, size: 0x8, addend: 0x0, symName: __RINvMsh_NtNtNtCsdze8u8oDPro_5alloc11collections5btree4nodeINtB6_7NodeRefNtNtB6_6marker5DyingNtNtNtCs27l1GJC5rMQ_3std3ffi6os_str8OsStringINtNtCs9f3LFPSIp77_4core6option6OptionB1s_ENtB1a_14LeafOrInternalE21deallocate_and_ascendNtNtBc_5alloc6GlobalECsh9ovbnNyhRg_7autocfg, symObjAddr: 0x0, symBinAddr: 0x1000116A0, symSize: 0x178 }
  - { offset: 0x2C43C, size: 0x8, addend: 0x0, symName: __RNvYNtNtNtNtNtCs27l1GJC5rMQ_3std3sys3pal4unix5stdio6StderrNtNtBc_2io5Write9write_allCsh9ovbnNyhRg_7autocfg, symObjAddr: 0x1FA0, symBinAddr: 0x100013640, symSize: 0x288 }
  - { offset: 0x2C62E, size: 0x8, addend: 0x0, symName: __RNvYNtNtNtNtNtCs27l1GJC5rMQ_3std3sys3pal4unix5stdio6StderrNtNtBc_2io5Write9write_fmtCsh9ovbnNyhRg_7autocfg, symObjAddr: 0x2228, symBinAddr: 0x1000138C8, symSize: 0x128 }
  - { offset: 0x2CE43, size: 0x8, addend: 0x0, symName: __RINvNtCs27l1GJC5rMQ_3std2fs8metadataRNtNtB4_4path7PathBufECsh9ovbnNyhRg_7autocfg, symObjAddr: 0x4E0, symBinAddr: 0x100011B80, symSize: 0xFC }
  - { offset: 0x2CECA, size: 0x8, addend: 0x0, symName: __RNcNtNtCs27l1GJC5rMQ_3std2fs8Metadata0Csh9ovbnNyhRg_7autocfg, symObjAddr: 0xF74, symBinAddr: 0x100012614, symSize: 0x30 }
  - { offset: 0x2DB6E, size: 0x8, addend: 0x0, symName: __RINvNtCs9f3LFPSIp77_4core3cmp6max_byNtNtCsh9ovbnNyhRg_7autocfg7version7VersionNvYBy_NtB2_3Ord3cmpEBC_, symObjAddr: 0x5DC, symBinAddr: 0x100011C7C, symSize: 0xD0 }
  - { offset: 0x2DBCE, size: 0x8, addend: 0x0, symName: __RINvNtCs9f3LFPSIp77_4core3cmp6max_byjNvYjNtB2_3Ord3cmpECsh9ovbnNyhRg_7autocfg, symObjAddr: 0x6AC, symBinAddr: 0x100011D4C, symSize: 0xC0 }
  - { offset: 0x2DC2C, size: 0x8, addend: 0x0, symName: __RINvNtCs9f3LFPSIp77_4core3cmp6min_byNtNtCsh9ovbnNyhRg_7autocfg7version7VersionNvYBy_NtB2_3Ord3cmpEBC_, symObjAddr: 0x76C, symBinAddr: 0x100011E0C, symSize: 0xD8 }
  - { offset: 0x2DC8C, size: 0x8, addend: 0x0, symName: __RINvNtCs9f3LFPSIp77_4core3cmp6min_byjNvYjNtB2_3Ord3cmpECsh9ovbnNyhRg_7autocfg, symObjAddr: 0x844, symBinAddr: 0x100011EE4, symSize: 0xC8 }
  - { offset: 0x2DCEF, size: 0x8, addend: 0x0, symName: __RNvYNtNtCsh9ovbnNyhRg_7autocfg7version7VersionNtNtCs9f3LFPSIp77_4core3cmp10PartialOrd2geB6_, symObjAddr: 0x1BB8, symBinAddr: 0x100013258, symSize: 0x78 }
  - { offset: 0x2DD3E, size: 0x8, addend: 0x0, symName: __RNvYNtNtCsh9ovbnNyhRg_7autocfg7version7VersionNtNtCs9f3LFPSIp77_4core3cmp10PartialOrd2gtB6_, symObjAddr: 0x1C30, symBinAddr: 0x1000132D0, symSize: 0x6C }
  - { offset: 0x2DD8D, size: 0x8, addend: 0x0, symName: __RNvYNtNtCsh9ovbnNyhRg_7autocfg7version7VersionNtNtCs9f3LFPSIp77_4core3cmp10PartialOrd2leB6_, symObjAddr: 0x1C9C, symBinAddr: 0x10001333C, symSize: 0x7C }
  - { offset: 0x2DDDC, size: 0x8, addend: 0x0, symName: __RNvYNtNtCsh9ovbnNyhRg_7autocfg7version7VersionNtNtCs9f3LFPSIp77_4core3cmp10PartialOrd2ltB6_, symObjAddr: 0x1D18, symBinAddr: 0x1000133B8, symSize: 0x6C }
  - { offset: 0x2DE31, size: 0x8, addend: 0x0, symName: __RNvYNtNtCsh9ovbnNyhRg_7autocfg7version7VersionNtNtCs9f3LFPSIp77_4core3cmp3Ord3maxB6_, symObjAddr: 0x1D84, symBinAddr: 0x100013424, symSize: 0x14 }
  - { offset: 0x2DE79, size: 0x8, addend: 0x0, symName: __RNvYNtNtCsh9ovbnNyhRg_7autocfg7version7VersionNtNtCs9f3LFPSIp77_4core3cmp3Ord3minB6_, symObjAddr: 0x1D98, symBinAddr: 0x100013438, symSize: 0x14 }
  - { offset: 0x2DEC1, size: 0x8, addend: 0x0, symName: __RNvYNtNtCsh9ovbnNyhRg_7autocfg7version7VersionNtNtCs9f3LFPSIp77_4core3cmp3Ord5clampB6_, symObjAddr: 0x1DAC, symBinAddr: 0x10001344C, symSize: 0x174 }
  - { offset: 0x2DF1F, size: 0x8, addend: 0x0, symName: __RNvYNtNtCsh9ovbnNyhRg_7autocfg7version7VersionNtNtCs9f3LFPSIp77_4core3cmp9PartialEq2neB6_, symObjAddr: 0x1F20, symBinAddr: 0x1000135C0, symSize: 0x30 }
  - { offset: 0x2E171, size: 0x8, addend: 0x0, symName: __RNvXs1k_NtNtCs9f3LFPSIp77_4core3fmt3numhNtB8_5Debug3fmtCsh9ovbnNyhRg_7autocfg, symObjAddr: 0x19F8, symBinAddr: 0x100013098, symSize: 0x90 }
  - { offset: 0x2E1EB, size: 0x8, addend: 0x0, symName: __RNvXs1p_NtNtCs9f3LFPSIp77_4core3fmt3numjNtB8_5Debug3fmtCsh9ovbnNyhRg_7autocfg, symObjAddr: 0x1A88, symBinAddr: 0x100013128, symSize: 0x90 }
  - { offset: 0x2EDE9, size: 0x8, addend: 0x0, symName: __RINvNtCs9f3LFPSIp77_4core3mem4dropNtNtCs27l1GJC5rMQ_3std7process10ChildStdinECsh9ovbnNyhRg_7autocfg, symObjAddr: 0x90C, symBinAddr: 0x100011FAC, symSize: 0x28 }
  - { offset: 0x2EF22, size: 0x8, addend: 0x0, symName: __RINvNtNtCs9f3LFPSIp77_4core3str11validations15next_code_pointINtNtNtB6_5slice4iter4IterhEECsh9ovbnNyhRg_7autocfg, symObjAddr: 0x934, symBinAddr: 0x100011FD4, symSize: 0x20C }
  - { offset: 0x2F1DA, size: 0x8, addend: 0x0, symName: __RINvNtNtCs9f3LFPSIp77_4core3str11validations23next_code_point_reverseINtNtNtB6_5slice4iter4IterhEECsh9ovbnNyhRg_7autocfg, symObjAddr: 0xB40, symBinAddr: 0x1000121E0, symSize: 0x220 }
  - { offset: 0x2F635, size: 0x8, addend: 0x0, symName: __RNvXNtNtCs9f3LFPSIp77_4core3ops12control_flowINtB2_11ControlFlowReENtNtB4_9try_trait3Try11from_outputCsh9ovbnNyhRg_7autocfg, symObjAddr: 0x197C, symBinAddr: 0x10001301C, symSize: 0x18 }
  - { offset: 0x2F673, size: 0x8, addend: 0x0, symName: __RNvXNtNtCs9f3LFPSIp77_4core3ops12control_flowINtB2_11ControlFlowReENtNtB4_9try_trait3Try6branchCsh9ovbnNyhRg_7autocfg, symObjAddr: 0x1994, symBinAddr: 0x100013034, symSize: 0x64 }
  - { offset: 0x2F6F1, size: 0x8, addend: 0x0, symName: __RNvXs_NtNtCs9f3LFPSIp77_4core3ops12control_flowINtB4_11ControlFlowReEINtNtB6_9try_trait12FromResidualIBK_B12_NtNtB8_7convert10InfallibleEE13from_residualCsh9ovbnNyhRg_7autocfg, symObjAddr: 0x1B84, symBinAddr: 0x100013224, symSize: 0x34 }
  - { offset: 0x2FA22, size: 0x8, addend: 0x0, symName: __RNvNvXs0_NtNtCs9f3LFPSIp77_4core5slice5indexjINtB7_10SliceIndexSpE13get_unchecked18precondition_checkCsh9ovbnNyhRg_7autocfg, symObjAddr: 0x189C, symBinAddr: 0x100012F3C, symSize: 0x40 }
  - { offset: 0x2FA5E, size: 0x8, addend: 0x0, symName: __RNvNvXs0_NtNtCs9f3LFPSIp77_4core5slice5indexjINtB7_10SliceIndexSpE17get_unchecked_mut18precondition_checkCsh9ovbnNyhRg_7autocfg, symObjAddr: 0x18DC, symBinAddr: 0x100012F7C, symSize: 0x40 }
  - { offset: 0x2FB5A, size: 0x8, addend: 0x0, symName: __RNvNvXs2_NtNtCs9f3LFPSIp77_4core5slice5indexINtNtNtBb_3ops5range5RangejEINtB7_10SliceIndexSpE13get_unchecked18precondition_checkCsh9ovbnNyhRg_7autocfg, symObjAddr: 0x191C, symBinAddr: 0x100012FBC, symSize: 0x60 }
  - { offset: 0x2FCD4, size: 0x8, addend: 0x0, symName: __RNvNtNtCs9f3LFPSIp77_4core5slice6memchr6memchrCsh9ovbnNyhRg_7autocfg, symObjAddr: 0x1724, symBinAddr: 0x100012DC4, symSize: 0x114 }
  - { offset: 0x2FD86, size: 0x8, addend: 0x0, symName: __RNvNtNtNtCs9f3LFPSIp77_4core9core_arch7aarch644neon7vld1_u8Csh9ovbnNyhRg_7autocfg, symObjAddr: 0x1838, symBinAddr: 0x100012ED8, symSize: 0x2C }
  - { offset: 0x2FDB4, size: 0x8, addend: 0x0, symName: __RNvNtNtNtCs9f3LFPSIp77_4core9core_arch7aarch644neon7vst1_u8Csh9ovbnNyhRg_7autocfg, symObjAddr: 0x1864, symBinAddr: 0x100012F04, symSize: 0x38 }
  - { offset: 0x2FE1C, size: 0x8, addend: 0x0, symName: __RNvYNtNtCsh9ovbnNyhRg_7autocfg7version7VersionNtNtCs9f3LFPSIp77_4core5clone5Clone10clone_fromB6_, symObjAddr: 0x1F50, symBinAddr: 0x1000135F0, symSize: 0x50 }
  - { offset: 0x30E1B, size: 0x8, addend: 0x0, symName: __RINvMsh_NtNtNtCsdze8u8oDPro_5alloc11collections5btree4nodeINtB6_7NodeRefNtNtB6_6marker5DyingNtNtNtCs27l1GJC5rMQ_3std3ffi6os_str8OsStringINtNtCs9f3LFPSIp77_4core6option6OptionB1s_ENtB1a_14LeafOrInternalE21deallocate_and_ascendNtNtBc_5alloc6GlobalECsh9ovbnNyhRg_7autocfg, symObjAddr: 0x0, symBinAddr: 0x1000116A0, symSize: 0x178 }
  - { offset: 0x31102, size: 0x8, addend: 0x0, symName: __RINvMsj_NtNtNtCsdze8u8oDPro_5alloc11collections5btree8navigateINtNtB8_4node6HandleINtB11_7NodeRefNtNtB11_6marker5DyingNtNtNtCs27l1GJC5rMQ_3std3ffi6os_str8OsStringINtNtCs9f3LFPSIp77_4core6option6OptionB1S_ENtB1z_4LeafENtB1z_4EdgeE16deallocating_endNtNtBc_5alloc6GlobalECsh9ovbnNyhRg_7autocfg, symObjAddr: 0x178, symBinAddr: 0x100011818, symSize: 0xF4 }
  - { offset: 0x3147F, size: 0x8, addend: 0x0, symName: __RINvMsj_NtNtNtCsdze8u8oDPro_5alloc11collections5btree8navigateINtNtB8_4node6HandleINtB11_7NodeRefNtNtB11_6marker5DyingNtNtNtCs27l1GJC5rMQ_3std3ffi6os_str8OsStringINtNtCs9f3LFPSIp77_4core6option6OptionB1S_ENtB1z_4LeafENtB1z_4EdgeE17deallocating_nextNtNtBc_5alloc6GlobalECsh9ovbnNyhRg_7autocfg, symObjAddr: 0x26C, symBinAddr: 0x10001190C, symSize: 0x274 }
  - { offset: 0x31AD0, size: 0x8, addend: 0x0, symName: __RINvXs1i_NtCscXJUXcj6jCz_9hashbrown3mapINtB7_7HashMapyuNtNtNtCs27l1GJC5rMQ_3std4hash6random11RandomStateEINtNtNtNtCs9f3LFPSIp77_4core4iter6traits7collect6ExtendTyuEE6extendINtNtNtB1M_8adapters3map3MapINtNtNtB1O_3ops5range5RangeyENCINvXs8_NtB9_3setINtB3O_7HashSetyBR_EIB1G_yE6extendB3c_E0EECsh9ovbnNyhRg_7autocfg, symObjAddr: 0xD60, symBinAddr: 0x100012400, symSize: 0x108 }
  - { offset: 0x31BE7, size: 0x8, addend: 0x0, symName: __RNCINvXs1i_NtCscXJUXcj6jCz_9hashbrown3mapINtB9_7HashMapyuNtNtNtCs27l1GJC5rMQ_3std4hash6random11RandomStateEINtNtNtNtCs9f3LFPSIp77_4core4iter6traits7collect6ExtendTyuEE6extendINtNtNtB1O_8adapters3map3MapINtNtNtB1Q_3ops5range5RangeyENCINvXs8_NtBb_3setINtB3Q_7HashSetyBT_EIB1I_yE6extendB3e_E0EE0Csh9ovbnNyhRg_7autocfg, symObjAddr: 0xF28, symBinAddr: 0x1000125C8, symSize: 0x30 }
  - { offset: 0x31CB8, size: 0x8, addend: 0x0, symName: __RNCINvNtCscXJUXcj6jCz_9hashbrown3map11make_hasheryuNtNtNtCs27l1GJC5rMQ_3std4hash6random11RandomStateE0Csh9ovbnNyhRg_7autocfg, symObjAddr: 0xEBC, symBinAddr: 0x10001255C, symSize: 0x3C }
  - { offset: 0x31D3A, size: 0x8, addend: 0x0, symName: __RNCINvNtCscXJUXcj6jCz_9hashbrown3map14equivalent_keyyyuE0Csh9ovbnNyhRg_7autocfg, symObjAddr: 0xEF8, symBinAddr: 0x100012598, symSize: 0x30 }
  - { offset: 0x31DD0, size: 0x8, addend: 0x0, symName: __RNvXsE_NtCscXJUXcj6jCz_9hashbrown3mapINtB5_7HashMapyuNtNtNtCs27l1GJC5rMQ_3std4hash6random11RandomStateENtNtNtNtCs9f3LFPSIp77_4core4iter6traits7collect12IntoIterator9into_iterCsh9ovbnNyhRg_7autocfg, symObjAddr: 0x1B18, symBinAddr: 0x1000131B8, symSize: 0x6C }
  - { offset: 0x32051, size: 0x8, addend: 0x0, symName: __RINvXs8_NtCscXJUXcj6jCz_9hashbrown3setINtB6_7HashSetyNtNtNtCs27l1GJC5rMQ_3std4hash6random11RandomStateEINtNtNtNtCs9f3LFPSIp77_4core4iter6traits7collect6ExtendyE6extendINtNtNtB1M_3ops5range5RangeyEECsh9ovbnNyhRg_7autocfg, symObjAddr: 0xE68, symBinAddr: 0x100012508, symSize: 0x54 }
  - { offset: 0x320B3, size: 0x8, addend: 0x0, symName: __RNCINvXs8_NtCscXJUXcj6jCz_9hashbrown3setINtB8_7HashSetyNtNtNtCs27l1GJC5rMQ_3std4hash6random11RandomStateEINtNtNtNtCs9f3LFPSIp77_4core4iter6traits7collect6ExtendyE6extendINtNtNtB1O_3ops5range5RangeyEE0Csh9ovbnNyhRg_7autocfg, symObjAddr: 0xF58, symBinAddr: 0x1000125F8, symSize: 0x1C }
  - { offset: 0x32360, size: 0x8, addend: 0x0, symName: __RNvMs1_NtCscXJUXcj6jCz_9hashbrown3mapINtB5_7HashMapyuNtNtNtCs27l1GJC5rMQ_3std4hash6random11RandomStateE6insertCsh9ovbnNyhRg_7autocfg, symObjAddr: 0xFA4, symBinAddr: 0x100012644, symSize: 0x17C }
  - { offset: 0x32590, size: 0x8, addend: 0x0, symName: __RNvMsO_NtNtNtCsdze8u8oDPro_5alloc11collections5btree4nodeINtB5_6HandleINtB5_7NodeRefNtNtB5_6marker5DyingNtNtNtCs27l1GJC5rMQ_3std3ffi6os_str8OsStringINtNtCs9f3LFPSIp77_4core6option6OptionB1E_ENtB1m_8InternalENtB1m_4EdgeE7descendCsh9ovbnNyhRg_7autocfg, symObjAddr: 0x1120, symBinAddr: 0x1000127C0, symSize: 0xA0 }
  - { offset: 0x328B9, size: 0x8, addend: 0x0, symName: __RNvMsT_NtNtNtCsdze8u8oDPro_5alloc11collections5btree4nodeINtB5_6HandleINtB5_7NodeRefNtNtB5_6marker5DyingNtNtNtCs27l1GJC5rMQ_3std3ffi6os_str8OsStringINtNtCs9f3LFPSIp77_4core6option6OptionB1E_ENtB1m_14LeafOrInternalENtB1m_2KVE12drop_key_valCsh9ovbnNyhRg_7autocfg, symObjAddr: 0x11C0, symBinAddr: 0x100012860, symSize: 0x120 }
  - { offset: 0x32C22, size: 0x8, addend: 0x0, symName: __RNvMse_NtNtNtCsdze8u8oDPro_5alloc11collections5btree4nodeINtB5_7NodeRefNtNtB5_6marker5DyingNtNtNtCs27l1GJC5rMQ_3std3ffi6os_str8OsStringINtNtCs9f3LFPSIp77_4core6option6OptionB1r_ENtB19_14LeafOrInternalE6ascendCsh9ovbnNyhRg_7autocfg, symObjAddr: 0x12E0, symBinAddr: 0x100012980, symSize: 0x18C }
  - { offset: 0x32DC7, size: 0x8, addend: 0x0, symName: __RNvMsf_NtCs27l1GJC5rMQ_3std2fsNtB5_8Metadata11permissionsCsh9ovbnNyhRg_7autocfg, symObjAddr: 0x146C, symBinAddr: 0x100012B0C, symSize: 0x20 }
  - { offset: 0x32EA0, size: 0x8, addend: 0x0, symName: __RNvMsf_NtCs27l1GJC5rMQ_3std2fsNtB5_8Metadata6is_dirCsh9ovbnNyhRg_7autocfg, symObjAddr: 0x148C, symBinAddr: 0x100012B2C, symSize: 0x4C }
  - { offset: 0x32F94, size: 0x8, addend: 0x0, symName: __RNvMsm_NtCs27l1GJC5rMQ_3std2fsNtB5_11Permissions8readonlyCsh9ovbnNyhRg_7autocfg, symObjAddr: 0x14D8, symBinAddr: 0x100012B78, symSize: 0x2C }
  - { offset: 0x33233, size: 0x8, addend: 0x0, symName: __RNvMsp_NtNtNtCsdze8u8oDPro_5alloc11collections5btree8navigateINtNtB7_4node6HandleINtB10_7NodeRefNtNtB10_6marker5DyingNtNtNtCs27l1GJC5rMQ_3std3ffi6os_str8OsStringINtNtCs9f3LFPSIp77_4core6option6OptionB1R_ENtB1y_14LeafOrInternalENtB1y_2KVE14next_leaf_edgeCsh9ovbnNyhRg_7autocfg, symObjAddr: 0x1504, symBinAddr: 0x100012BA4, symSize: 0x220 }
  - { offset: 0x337AD, size: 0x8, addend: 0x0, symName: __RNCNvMNtCsh9ovbnNyhRg_7autocfg7versionNtB4_7Version12from_command0B6_, symObjAddr: 0x2B8C, symBinAddr: 0x10001422C, symSize: 0x50 }
  - { offset: 0x337E3, size: 0x8, addend: 0x0, symName: __RNCNvMNtCsh9ovbnNyhRg_7autocfg7versionNtB4_7Version12from_commands_0B6_, symObjAddr: 0x2EAC, symBinAddr: 0x10001454C, symSize: 0x3C }
  - { offset: 0x3380B, size: 0x8, addend: 0x0, symName: __RNCNvMNtCsh9ovbnNyhRg_7autocfg7versionNtB4_7Version12from_commands0_0B6_, symObjAddr: 0x2EE8, symBinAddr: 0x100014588, symSize: 0x3C }
  - { offset: 0x33833, size: 0x8, addend: 0x0, symName: __RNCNvMNtCsh9ovbnNyhRg_7autocfg7versionNtB4_7Version12from_commands1_0B6_, symObjAddr: 0x2F24, symBinAddr: 0x1000145C4, symSize: 0x3C }
  - { offset: 0x3387E, size: 0x8, addend: 0x0, symName: __RNvXs_NtCsh9ovbnNyhRg_7autocfg7versionNtB4_7VersionNtNtCs9f3LFPSIp77_4core5clone5Clone5cloneB6_, symObjAddr: 0x2BDC, symBinAddr: 0x10001427C, symSize: 0x30 }
  - { offset: 0x338B0, size: 0x8, addend: 0x0, symName: __RNvXs0_NtCsh9ovbnNyhRg_7autocfg7versionNtB5_7VersionNtNtCs9f3LFPSIp77_4core3fmt5Debug3fmtB7_, symObjAddr: 0x2C0C, symBinAddr: 0x1000142AC, symSize: 0xAC }
  - { offset: 0x338F0, size: 0x8, addend: 0x0, symName: __RNvXs2_NtCsh9ovbnNyhRg_7autocfg7versionNtB5_7VersionNtNtCs9f3LFPSIp77_4core3cmp9PartialEq2eqB7_, symObjAddr: 0x2CB8, symBinAddr: 0x100014358, symSize: 0x84 }
  - { offset: 0x33930, size: 0x8, addend: 0x0, symName: __RNvXs3_NtCsh9ovbnNyhRg_7autocfg7versionNtB5_7VersionNtNtCs9f3LFPSIp77_4core3cmp2Eq27assert_receiver_is_total_eqB7_, symObjAddr: 0x2D3C, symBinAddr: 0x1000143DC, symSize: 0x10 }
  - { offset: 0x3395E, size: 0x8, addend: 0x0, symName: __RNvXs4_NtCsh9ovbnNyhRg_7autocfg7versionNtB5_7VersionNtNtCs9f3LFPSIp77_4core3cmp10PartialOrd11partial_cmpB7_, symObjAddr: 0x2D4C, symBinAddr: 0x1000143EC, symSize: 0xC8 }
  - { offset: 0x339D6, size: 0x8, addend: 0x0, symName: __RNvXs5_NtCsh9ovbnNyhRg_7autocfg7versionNtB5_7VersionNtNtCs9f3LFPSIp77_4core3cmp3Ord3cmpB7_, symObjAddr: 0x2E14, symBinAddr: 0x1000144B4, symSize: 0x98 }
  - { offset: 0x33B2B, size: 0x8, addend: 0x0, symName: __RNvMNtCsh9ovbnNyhRg_7autocfg7versionNtB2_7Version3new, symObjAddr: 0x2350, symBinAddr: 0x1000139F0, symSize: 0x34 }
  - { offset: 0x33C66, size: 0x8, addend: 0x0, symName: __RNvMNtCsh9ovbnNyhRg_7autocfg7versionNtB2_7Version12from_command, symObjAddr: 0x2384, symBinAddr: 0x100013A24, symSize: 0x808 }
  - { offset: 0x33F4F, size: 0x8, addend: 0x0, symName: __RINvMNtCs9f3LFPSIp77_4core3stre11starts_withReECsh9ovbnNyhRg_7autocfg, symObjAddr: 0x0, symBinAddr: 0x100014600, symSize: 0x4C }
  - { offset: 0x341F6, size: 0x8, addend: 0x0, symName: __RNvXsP_NtCs9f3LFPSIp77_4core3fmtRNtNtNtNtNtNtCs27l1GJC5rMQ_3std3sys3pal4unix7process13process_inner10ExitStatusNtB5_5Debug3fmtCsh9ovbnNyhRg_7autocfg, symObjAddr: 0x251C, symBinAddr: 0x1000168C0, symSize: 0x30 }
  - { offset: 0x34EE2, size: 0x8, addend: 0x0, symName: __RINvMNtCs9f3LFPSIp77_4core3stre11starts_withReECsh9ovbnNyhRg_7autocfg, symObjAddr: 0x0, symBinAddr: 0x100014600, symSize: 0x4C }
  - { offset: 0x34F5C, size: 0x8, addend: 0x0, symName: __RINvMNtCs9f3LFPSIp77_4core3stre12trim_matchesNCNvB2_4trim0ECsh9ovbnNyhRg_7autocfg, symObjAddr: 0x4C, symBinAddr: 0x10001464C, symSize: 0x128 }
  - { offset: 0x35106, size: 0x8, addend: 0x0, symName: __RINvMNtCs9f3LFPSIp77_4core3stre4findcECsh9ovbnNyhRg_7autocfg, symObjAddr: 0x174, symBinAddr: 0x100014774, symSize: 0xC8 }
  - { offset: 0x3518E, size: 0x8, addend: 0x0, symName: __RINvMNtCs9f3LFPSIp77_4core3stre5parsejECsh9ovbnNyhRg_7autocfg, symObjAddr: 0x23C, symBinAddr: 0x10001483C, symSize: 0x28 }
  - { offset: 0x351C5, size: 0x8, addend: 0x0, symName: __RINvMNtCs9f3LFPSIp77_4core3stre5splitcECsh9ovbnNyhRg_7autocfg, symObjAddr: 0x264, symBinAddr: 0x100014864, symSize: 0x98 }
  - { offset: 0x3523E, size: 0x8, addend: 0x0, symName: __RINvMNtCs9f3LFPSIp77_4core3stre6splitncECsh9ovbnNyhRg_7autocfg, symObjAddr: 0x2FC, symBinAddr: 0x1000148FC, symSize: 0xD0 }
  - { offset: 0x352B9, size: 0x8, addend: 0x0, symName: __RINvMNtCs9f3LFPSIp77_4core3stre8containsReECsh9ovbnNyhRg_7autocfg, symObjAddr: 0x3CC, symBinAddr: 0x1000149CC, symSize: 0x4C }
  - { offset: 0x35304, size: 0x8, addend: 0x0, symName: __RNCNvMNtCs9f3LFPSIp77_4core3stre4trim0Csh9ovbnNyhRg_7autocfg, symObjAddr: 0xCB8, symBinAddr: 0x10001505C, symSize: 0x94 }
  - { offset: 0x35371, size: 0x8, addend: 0x0, symName: __RNvMNtCs9f3LFPSIp77_4core3stre3lenCsh9ovbnNyhRg_7autocfg, symObjAddr: 0xD4C, symBinAddr: 0x1000150F0, symSize: 0x1C }
  - { offset: 0x3539D, size: 0x8, addend: 0x0, symName: __RNvMNtCs9f3LFPSIp77_4core3stre4trimCsh9ovbnNyhRg_7autocfg, symObjAddr: 0xD68, symBinAddr: 0x10001510C, symSize: 0x28 }
  - { offset: 0x353E9, size: 0x8, addend: 0x0, symName: __RNvMNtCs9f3LFPSIp77_4core3stre5charsCsh9ovbnNyhRg_7autocfg, symObjAddr: 0xD90, symBinAddr: 0x100015134, symSize: 0x38 }
  - { offset: 0x3554D, size: 0x8, addend: 0x0, symName: __RNvMNtCs9f3LFPSIp77_4core3stre5linesCsh9ovbnNyhRg_7autocfg, symObjAddr: 0xDC8, symBinAddr: 0x10001516C, symSize: 0xC4 }
  - { offset: 0x355EF, size: 0x8, addend: 0x0, symName: __RNvMNtCs9f3LFPSIp77_4core3stre8is_emptyCsh9ovbnNyhRg_7autocfg, symObjAddr: 0xE8C, symBinAddr: 0x100015230, symSize: 0x1C }
  - { offset: 0x35816, size: 0x8, addend: 0x0, symName: __RNvXs8_NtNtCs9f3LFPSIp77_4core3str6traitsINtNtNtB9_3ops5range7RangeTojEINtNtNtB9_5slice5index10SliceIndexeE3getCsh9ovbnNyhRg_7autocfg, symObjAddr: 0x1FEC, symBinAddr: 0x100016390, symSize: 0x120 }
  - { offset: 0x359DE, size: 0x8, addend: 0x0, symName: __RNvXs8_NtNtCs9f3LFPSIp77_4core3str6traitsINtNtNtB9_3ops5range7RangeTojEINtNtNtB9_5slice5index10SliceIndexeE5indexCsh9ovbnNyhRg_7autocfg, symObjAddr: 0x210C, symBinAddr: 0x1000164B0, symSize: 0x84 }
  - { offset: 0x35A79, size: 0x8, addend: 0x0, symName: __RNvXs9_NtNtCs9f3LFPSIp77_4core3str6traitsINtNtNtB9_3ops5range9RangeFromjEINtNtNtB9_5slice5index10SliceIndexeE3getCsh9ovbnNyhRg_7autocfg, symObjAddr: 0x2190, symBinAddr: 0x100016534, symSize: 0x130 }
  - { offset: 0x35C96, size: 0x8, addend: 0x0, symName: __RNvXs9_NtNtCs9f3LFPSIp77_4core3str6traitsINtNtNtB9_3ops5range9RangeFromjEINtNtNtB9_5slice5index10SliceIndexeE5indexCsh9ovbnNyhRg_7autocfg, symObjAddr: 0x22C0, symBinAddr: 0x100016664, symSize: 0x88 }
  - { offset: 0x35ECF, size: 0x8, addend: 0x0, symName: __RNvXs3_NtNtCs9f3LFPSIp77_4core3str7patternNCNvMB7_e4trim0NtB5_11MultiCharEq7matchesCsh9ovbnNyhRg_7autocfg, symObjAddr: 0x1C58, symBinAddr: 0x100015FFC, symSize: 0x28 }
  - { offset: 0x35F1B, size: 0x8, addend: 0x0, symName: __RNvXsr_NtNtCs9f3LFPSIp77_4core3str7patternNCNvMB7_e4trim0NtB5_7Pattern13into_searcherCsh9ovbnNyhRg_7autocfg, symObjAddr: 0x2750, symBinAddr: 0x100016AF4, symSize: 0x48 }
  - { offset: 0x35FC4, size: 0x8, addend: 0x0, symName: __RNvXs3_NtCs9f3LFPSIp77_4core3strNtB5_8LinesMapINtNtNtB7_3ops8function2FnTReEE4callCsh9ovbnNyhRg_7autocfg, symObjAddr: 0x1ADC, symBinAddr: 0x100015E80, symSize: 0x17C }
  - { offset: 0x360ED, size: 0x8, addend: 0x0, symName: __RNvXs4_NtCs9f3LFPSIp77_4core3strNtB5_8LinesMapINtNtNtB7_3ops8function5FnMutTReEE8call_mutCsh9ovbnNyhRg_7autocfg, symObjAddr: 0x1D14, symBinAddr: 0x1000160B8, symSize: 0x3C }
  - { offset: 0x362F1, size: 0x8, addend: 0x0, symName: __RNvXs2_NtNtNtCs9f3LFPSIp77_4core3ops8function5implsQNtNtBb_3str8LinesMapINtB7_6FnOnceTReEE9call_onceCsh9ovbnNyhRg_7autocfg, symObjAddr: 0x1AA8, symBinAddr: 0x100015E4C, symSize: 0x34 }
  - { offset: 0x3765C, size: 0x8, addend: 0x0, symName: __RINvNtNtNtCs9f3LFPSIp77_4core9core_arch10arm_shared4neon13vget_lane_u64Kl0_ECsh9ovbnNyhRg_7autocfg, symObjAddr: 0x9C8, symBinAddr: 0x100014D6C, symSize: 0x18 }
  - { offset: 0x376D6, size: 0x8, addend: 0x0, symName: __RNvNtNtNtCs9f3LFPSIp77_4core9core_arch10arm_shared4neon9vdup_n_u8Csh9ovbnNyhRg_7autocfg, symObjAddr: 0x1504, symBinAddr: 0x1000158A8, symSize: 0x34 }
  - { offset: 0x37764, size: 0x8, addend: 0x0, symName: __RINvYINtNtNtCs9f3LFPSIp77_4core3ops5range5RangeyENtNtNtNtBa_4iter6traits8iterator8Iterator3mapTyuENCINvXs8_NtCscXJUXcj6jCz_9hashbrown3setINtB1H_7HashSetyNtNtNtCs27l1GJC5rMQ_3std4hash6random11RandomStateEINtNtBP_7collect6ExtendyE6extendB3_E0ECsh9ovbnNyhRg_7autocfg, symObjAddr: 0xB3C, symBinAddr: 0x100014EE0, symSize: 0x14 }
  - { offset: 0x377BC, size: 0x8, addend: 0x0, symName: __RINvYINtNtNtCs9f3LFPSIp77_4core3ops5range5RangeyENtNtNtNtBa_4iter6traits8iterator8Iterator4folduNCINvNtNtBR_8adapters3map8map_foldyTyuEuNCINvXs8_NtCscXJUXcj6jCz_9hashbrown3setINtB2j_7HashSetyNtNtNtCs27l1GJC5rMQ_3std4hash6random11RandomStateEINtNtBP_7collect6ExtendyE6extendB3_E0NCINvNvBL_8for_each4callB25_NCINvXs1i_NtB2l_3mapINtB54_7HashMapyuB33_EIB3S_B25_E6extendINtB1B_3MapB3_B2a_EE0E0E0ECsh9ovbnNyhRg_7autocfg, symObjAddr: 0xB50, symBinAddr: 0x100014EF4, symSize: 0xBC }
  - { offset: 0x3784A, size: 0x8, addend: 0x0, symName: __RINvYINtNtNtCs9f3LFPSIp77_4core3ops5range5RangeyENtNtNtNtBa_4iter6traits8iterator8Iterator7collectINtNtNtNtCs27l1GJC5rMQ_3std11collections4hash3set7HashSetyEECsh9ovbnNyhRg_7autocfg, symObjAddr: 0xC0C, symBinAddr: 0x100014FB0, symSize: 0x24 }
  - { offset: 0x3788A, size: 0x8, addend: 0x0, symName: __RINvYINtNtNtNtCs9f3LFPSIp77_4core4iter8adapters6filter6FilterINtNtB8_3map3MapINtNtNtBc_3str4iter5SplitcENvMB1i_e4trimENCNvCsh9ovbnNyhRg_7autocfg9rustflags0ENtNtNtBa_6traits8iterator8Iterator3mapNtNtCsdze8u8oDPro_5alloc6string6StringNvYeNtB38_8ToString9to_stringEB1W_, symObjAddr: 0xC30, symBinAddr: 0x100014FD4, symSize: 0x30 }
  - { offset: 0x37979, size: 0x8, addend: 0x0, symName: __RNvXs_NtNtNtCs9f3LFPSIp77_4core4iter6traits7collectINtNtNtBa_3ops5range5RangeyENtB4_12IntoIterator9into_iterCsh9ovbnNyhRg_7autocfg, symObjAddr: 0x254C, symBinAddr: 0x1000168F0, symSize: 0x14 }
  - { offset: 0x379B0, size: 0x8, addend: 0x0, symName: __RNvXs_NtNtNtCs9f3LFPSIp77_4core4iter6traits7collectINtNtNtBa_5slice4iter4IterNtNtCsdze8u8oDPro_5alloc6string6StringENtB4_12IntoIterator9into_iterCsh9ovbnNyhRg_7autocfg, symObjAddr: 0x2560, symBinAddr: 0x100016904, symSize: 0x1C }
  - { offset: 0x37B7A, size: 0x8, addend: 0x0, symName: __RNvXs1_NtNtNtCs9f3LFPSIp77_4core4iter8adapters6filterINtB5_6FilterINtNtB7_3map3MapINtNtNtBb_3str4iter5SplitcENvMB1n_e4trimENCNvCsh9ovbnNyhRg_7autocfg9rustflags0ENtNtNtB9_6traits8iterator8Iterator4nextB21_, symObjAddr: 0x15EC, symBinAddr: 0x100015990, symSize: 0x2C }
  - { offset: 0x37BB8, size: 0x8, addend: 0x0, symName: __RNvXs1_NtNtNtCs9f3LFPSIp77_4core4iter8adapters6filterINtB5_6FilterINtNtB7_3map3MapINtNtNtBb_3str4iter5SplitcENvMB1n_e4trimENCNvCsh9ovbnNyhRg_7autocfg9rustflags0ENtNtNtB9_6traits8iterator8Iterator9size_hintB21_, symObjAddr: 0x1618, symBinAddr: 0x1000159BC, symSize: 0x4C }
  - { offset: 0x37C1F, size: 0x8, addend: 0x0, symName: __RNvXsh_NtNtNtCs9f3LFPSIp77_4core4iter8adapters7step_byINtNtNtBb_3ops5range5RangejEINtB5_14SpecRangeSetupBQ_E5setupCsh9ovbnNyhRg_7autocfg, symObjAddr: 0x260C, symBinAddr: 0x1000169B0, symSize: 0xD4 }
  - { offset: 0x37CE7, size: 0x8, addend: 0x0, symName: __RNvXs3_NtNtCs9f3LFPSIp77_4core4iter5rangeINtNtNtB9_3ops5range5RangeyENtB5_17RangeIteratorImpl9spec_nextCsh9ovbnNyhRg_7autocfg, symObjAddr: 0x1C80, symBinAddr: 0x100016024, symSize: 0x94 }
  - { offset: 0x37D68, size: 0x8, addend: 0x0, symName: __RNvXs4_NtNtCs9f3LFPSIp77_4core4iter5rangeINtNtNtB9_3ops5range5RangejENtNtNtB7_6traits8iterator8Iterator9size_hintCsh9ovbnNyhRg_7autocfg, symObjAddr: 0x1D50, symBinAddr: 0x1000160F4, symSize: 0xD8 }
  - { offset: 0x37E0F, size: 0x8, addend: 0x0, symName: __RNvXs4_NtNtCs9f3LFPSIp77_4core4iter5rangeINtNtNtB9_3ops5range5RangeyENtNtNtB7_6traits8iterator8Iterator4nextCsh9ovbnNyhRg_7autocfg, symObjAddr: 0x1E28, symBinAddr: 0x1000161CC, symSize: 0x24 }
  - { offset: 0x37E46, size: 0x8, addend: 0x0, symName: __RNvXs4_NtNtCs9f3LFPSIp77_4core4iter5rangeINtNtNtB9_3ops5range5RangeyENtNtNtB7_6traits8iterator8Iterator9size_hintCsh9ovbnNyhRg_7autocfg, symObjAddr: 0x1E4C, symBinAddr: 0x1000161F0, symSize: 0xD8 }
  - { offset: 0x37EF3, size: 0x8, addend: 0x0, symName: __RNvXsD_NtNtCs9f3LFPSIp77_4core4iter5rangeyNtB5_4Step13steps_betweenCsh9ovbnNyhRg_7autocfg, symObjAddr: 0x2348, symBinAddr: 0x1000166EC, symSize: 0x7C }
  - { offset: 0x37F30, size: 0x8, addend: 0x0, symName: __RNvXsD_NtNtCs9f3LFPSIp77_4core4iter5rangeyNtB5_4Step17forward_uncheckedCsh9ovbnNyhRg_7autocfg, symObjAddr: 0x23C4, symBinAddr: 0x100016768, symSize: 0x4C }
  - { offset: 0x37F95, size: 0x8, addend: 0x0, symName: __RNvXsF_NtNtCs9f3LFPSIp77_4core4iter5rangejNtB5_4Step13steps_betweenCsh9ovbnNyhRg_7autocfg, symObjAddr: 0x2410, symBinAddr: 0x1000167B4, symSize: 0x7C }
  - { offset: 0x37FD2, size: 0x8, addend: 0x0, symName: __RNvXsF_NtNtCs9f3LFPSIp77_4core4iter5rangejNtB5_4Step17forward_uncheckedCsh9ovbnNyhRg_7autocfg, symObjAddr: 0x248C, symBinAddr: 0x100016830, symSize: 0x48 }
  - { offset: 0x38031, size: 0x8, addend: 0x0, symName: __RNvXsF_NtNtCs9f3LFPSIp77_4core4iter5rangejNtB5_4Step18backward_uncheckedCsh9ovbnNyhRg_7autocfg, symObjAddr: 0x24D4, symBinAddr: 0x100016878, symSize: 0x48 }
  - { offset: 0x382BD, size: 0x8, addend: 0x0, symName: __RNvXs2U_NtNtCs9f3LFPSIp77_4core5slice4iterINtB6_4IterNtNtCsdze8u8oDPro_5alloc6string6StringENtNtNtNtBa_4iter6traits8iterator8Iterator4nextCsh9ovbnNyhRg_7autocfg, symObjAddr: 0x1664, symBinAddr: 0x100015A08, symSize: 0xCC }
  - { offset: 0x3841E, size: 0x8, addend: 0x0, symName: __RNvXs2U_NtNtCs9f3LFPSIp77_4core5slice4iterINtB6_4IterRNtNtCs27l1GJC5rMQ_3std4path7PathBufENtNtNtNtBa_4iter6traits8iterator8Iterator4nextCsh9ovbnNyhRg_7autocfg, symObjAddr: 0x1730, symBinAddr: 0x100015AD4, symSize: 0xCC }
  - { offset: 0x3857F, size: 0x8, addend: 0x0, symName: __RNvXs2U_NtNtCs9f3LFPSIp77_4core5slice4iterINtB6_4IterReENtNtNtNtBa_4iter6traits8iterator8Iterator4nextCsh9ovbnNyhRg_7autocfg, symObjAddr: 0x17FC, symBinAddr: 0x100015BA0, symSize: 0xCC }
  - { offset: 0x386E0, size: 0x8, addend: 0x0, symName: __RNvXs2U_NtNtCs9f3LFPSIp77_4core5slice4iterINtB6_4IterhENtNtNtNtBa_4iter6traits8iterator8Iterator4nextCsh9ovbnNyhRg_7autocfg, symObjAddr: 0x18C8, symBinAddr: 0x100015C6C, symSize: 0xCC }
  - { offset: 0x388F9, size: 0x8, addend: 0x0, symName: __RNvXs2V_NtNtCs9f3LFPSIp77_4core5slice4iterINtB6_4IterhENtNtNtNtBa_4iter6traits12double_ended19DoubleEndedIterator9next_backCsh9ovbnNyhRg_7autocfg, symObjAddr: 0x1994, symBinAddr: 0x100015D38, symSize: 0x114 }
  - { offset: 0x38BAD, size: 0x8, addend: 0x0, symName: __RNvXs5_NtNtCs9f3LFPSIp77_4core5slice5indexINtNtNtB9_3ops5range9RangeFromjEINtB5_10SliceIndexShE5indexCsh9ovbnNyhRg_7autocfg, symObjAddr: 0x1F24, symBinAddr: 0x1000162C8, symSize: 0x90 }
  - { offset: 0x38E2F, size: 0x8, addend: 0x0, symName: __RNvNtNtNtCs9f3LFPSIp77_4core7unicode12unicode_data11white_space6lookupCsh9ovbnNyhRg_7autocfg, symObjAddr: 0x13B8, symBinAddr: 0x10001575C, symSize: 0x14C }
  - { offset: 0x3925C, size: 0x8, addend: 0x0, symName: __RINvXNtNtNtNtCs27l1GJC5rMQ_3std3sys12thread_local6native4lazyzNtB3_14DestroyedState13register_dtorINtNtCs9f3LFPSIp77_4core4cell4CellTyyEEECsh9ovbnNyhRg_7autocfg, symObjAddr: 0x9E0, symBinAddr: 0x100014D84, symSize: 0x10 }
  - { offset: 0x39500, size: 0x8, addend: 0x0, symName: __RINvXs5_NtNtNtCs27l1GJC5rMQ_3std11collections4hash3setINtB6_7HashSetyEINtNtNtNtCs9f3LFPSIp77_4core4iter6traits7collect12FromIteratoryE9from_iterINtNtNtB1f_3ops5range5RangeyEECsh9ovbnNyhRg_7autocfg, symObjAddr: 0x9F0, symBinAddr: 0x100014D94, symSize: 0x14C }
  - { offset: 0x395FC, size: 0x8, addend: 0x0, symName: __RNvXsh_NtNtNtCs27l1GJC5rMQ_3std11collections4hash3setINtB5_7HashSetyENtNtNtNtCs9f3LFPSIp77_4core4iter6traits7collect12IntoIterator9into_iterCsh9ovbnNyhRg_7autocfg, symObjAddr: 0x257C, symBinAddr: 0x100016920, symSize: 0x90 }
  - { offset: 0x39662, size: 0x8, addend: 0x0, symName: __RNvXsn_NtNtNtCs27l1GJC5rMQ_3std11collections4hash3setINtB5_8IntoIteryENtNtNtNtCs9f3LFPSIp77_4core4iter6traits8iterator8Iterator4nextCsh9ovbnNyhRg_7autocfg, symObjAddr: 0x26E0, symBinAddr: 0x100016A84, symSize: 0x70 }
  - { offset: 0x39717, size: 0x8, addend: 0x0, symName: __RNvNtNtCs27l1GJC5rMQ_3std2io5stdio6stderrCsh9ovbnNyhRg_7autocfg, symObjAddr: 0x13AC, symBinAddr: 0x100015750, symSize: 0xC }
  - { offset: 0x39790, size: 0x8, addend: 0x0, symName: __RNvXs5_NtNtNtCs27l1GJC5rMQ_3std2os2fd5ownedNtB5_7OwnedFdNtNtNtCs9f3LFPSIp77_4core3ops4drop4Drop4dropCsh9ovbnNyhRg_7autocfg, symObjAddr: 0x1FB4, symBinAddr: 0x100016358, symSize: 0x38 }
  - { offset: 0x3988C, size: 0x8, addend: 0x0, symName: __RINvMs0_NtNtNtNtCs27l1GJC5rMQ_3std3sys12thread_local6native4lazyINtB6_7StorageINtNtCs9f3LFPSIp77_4core4cell4CellTyyEEzE10initializeNvNvNvMNtNtBe_4hash6randomNtB2c_11RandomState3new4KEYS6___initECsh9ovbnNyhRg_7autocfg, symObjAddr: 0x418, symBinAddr: 0x1000ABB24, symSize: 0x25C }
  - { offset: 0x39B14, size: 0x8, addend: 0x0, symName: __RINvMs0_NtNtNtNtCs27l1GJC5rMQ_3std3sys12thread_local6native4lazyINtB6_7StorageINtNtCs9f3LFPSIp77_4core4cell4CellTyyEEzE11get_or_initNvNvNvMNtNtBe_4hash6randomNtB2d_11RandomState3new4KEYS6___initECsh9ovbnNyhRg_7autocfg, symObjAddr: 0x674, symBinAddr: 0x100014A18, symSize: 0xCC }
  - { offset: 0x39C2B, size: 0x8, addend: 0x0, symName: __RINvMs2_NtNtCs27l1GJC5rMQ_3std6thread5localINtB6_8LocalKeyINtNtCs9f3LFPSIp77_4core4cell4CellTyyEEE4withNCNvMNtNtBa_4hash6randomNtB1I_11RandomState3new0B21_ECsh9ovbnNyhRg_7autocfg, symObjAddr: 0x740, symBinAddr: 0x100014AE4, symSize: 0x4C }
  - { offset: 0x39CC5, size: 0x8, addend: 0x0, symName: __RINvMs2_NtNtCs27l1GJC5rMQ_3std6thread5localINtB6_8LocalKeyINtNtCs9f3LFPSIp77_4core4cell4CellTyyEEE8try_withNCNvMNtNtBa_4hash6randomNtB1M_11RandomState3new0B25_ECsh9ovbnNyhRg_7autocfg, symObjAddr: 0x78C, symBinAddr: 0x100014B30, symSize: 0xEC }
  - { offset: 0x39FE9, size: 0x8, addend: 0x0, symName: __RNCINvMsm_NtNtNtCsdze8u8oDPro_5alloc11collections5btree8navigateINtNtBa_4node6HandleINtB13_7NodeRefNtNtB13_6marker5DyingNtNtNtCs27l1GJC5rMQ_3std3ffi6os_str8OsStringINtNtCs9f3LFPSIp77_4core6option6OptionB1U_ENtB1B_4LeafENtB1B_4EdgeE27deallocating_next_uncheckedNtNtBe_5alloc6GlobalE0Csh9ovbnNyhRg_7autocfg, symObjAddr: 0xC60, symBinAddr: 0x100015004, symSize: 0x58 }
  - { offset: 0x3A6C5, size: 0x8, addend: 0x0, symName: __RNvXNtNtNtCsdze8u8oDPro_5alloc11collections5btree3mapINtB2_8BTreeMapNtNtNtCs27l1GJC5rMQ_3std3ffi6os_str8OsStringINtNtCs9f3LFPSIp77_4core6option6OptionB14_EENtNtNtB1R_3ops4drop4Drop4dropCsh9ovbnNyhRg_7autocfg, symObjAddr: 0x1538, symBinAddr: 0x1000158DC, symSize: 0x4C }
  - { offset: 0x3A752, size: 0x8, addend: 0x0, symName: __RNvXNvXsw_NtNtNtCsdze8u8oDPro_5alloc11collections5btree3mapINtB8_8IntoIterpppENtNtNtCs9f3LFPSIp77_4core3ops4drop4Drop4dropINtB2_9DropGuardNtNtNtCs27l1GJC5rMQ_3std3ffi6os_str8OsStringINtNtB1k_6option6OptionB2c_ENtNtBe_5alloc6GlobalEB1e_4dropCsh9ovbnNyhRg_7autocfg, symObjAddr: 0x1584, symBinAddr: 0x100015928, symSize: 0x68 }
  - { offset: 0x3A7E7, size: 0x8, addend: 0x0, symName: __RNvXsw_NtNtNtCsdze8u8oDPro_5alloc11collections5btree3mapINtB5_8IntoIterNtNtNtCs27l1GJC5rMQ_3std3ffi6os_str8OsStringINtNtCs9f3LFPSIp77_4core6option6OptionB17_EENtNtNtB1U_3ops4drop4Drop4dropCsh9ovbnNyhRg_7autocfg, symObjAddr: 0x29A8, symBinAddr: 0x100016D4C, symSize: 0xA0 }
  - { offset: 0x3A85E, size: 0x8, addend: 0x0, symName: __RNvXsv_NtNtNtCsdze8u8oDPro_5alloc11collections5btree3mapINtB5_8BTreeMapNtNtNtCs27l1GJC5rMQ_3std3ffi6os_str8OsStringINtNtCs9f3LFPSIp77_4core6option6OptionB17_EENtNtNtNtB1U_4iter6traits7collect12IntoIterator9into_iterCsh9ovbnNyhRg_7autocfg, symObjAddr: 0x2798, symBinAddr: 0x100016B3C, symSize: 0x210 }
  - { offset: 0x3AC0E, size: 0x8, addend: 0x0, symName: __RINvMsb_NtNtNtCsdze8u8oDPro_5alloc11collections5btree8navigateINtB6_13LazyLeafRangeNtNtNtB8_4node6marker5DyingNtNtNtCs27l1GJC5rMQ_3std3ffi6os_str8OsStringINtNtCs9f3LFPSIp77_4core6option6OptionB1K_EE16deallocating_endNtNtBc_5alloc6GlobalECsh9ovbnNyhRg_7autocfg, symObjAddr: 0x878, symBinAddr: 0x100014C1C, symSize: 0xA8 }
  - { offset: 0x3ACE0, size: 0x8, addend: 0x0, symName: __RINvMsb_NtNtNtCsdze8u8oDPro_5alloc11collections5btree8navigateINtB6_13LazyLeafRangeNtNtNtB8_4node6marker5DyingNtNtNtCs27l1GJC5rMQ_3std3ffi6os_str8OsStringINtNtCs9f3LFPSIp77_4core6option6OptionB1K_EE27deallocating_next_uncheckedNtNtBc_5alloc6GlobalECsh9ovbnNyhRg_7autocfg, symObjAddr: 0x920, symBinAddr: 0x100014CC4, symSize: 0xA8 }
  - { offset: 0x3B3E5, size: 0x8, addend: 0x0, symName: __RNvMs1e_NtNtCs9f3LFPSIp77_4core4sync6atomicNtB6_11AtomicUsize9fetch_addCsh9ovbnNyhRg_7autocfg, symObjAddr: 0xEA8, symBinAddr: 0x10001524C, symSize: 0xDC }
  - { offset: 0x3B63C, size: 0x8, addend: 0x0, symName: __RNvMsb_NtNtNtCsdze8u8oDPro_5alloc11collections5btree8navigateINtB5_13LazyLeafRangeNtNtNtB7_4node6marker5DyingNtNtNtCs27l1GJC5rMQ_3std3ffi6os_str8OsStringINtNtCs9f3LFPSIp77_4core6option6OptionB1J_EE10take_frontCsh9ovbnNyhRg_7autocfg, symObjAddr: 0xF84, symBinAddr: 0x100015328, symSize: 0x1CC }
  - { offset: 0x3BA1B, size: 0x8, addend: 0x0, symName: __RNvMsc_NtNtNtCsdze8u8oDPro_5alloc11collections5btree8navigateINtB5_13LazyLeafRangeNtNtNtB7_4node6marker5DyingNtNtNtCs27l1GJC5rMQ_3std3ffi6os_str8OsStringINtNtCs9f3LFPSIp77_4core6option6OptionB1J_EE10init_frontCsh9ovbnNyhRg_7autocfg, symObjAddr: 0x1150, symBinAddr: 0x1000154F4, symSize: 0x1CC }
  - { offset: 0x3BBA1, size: 0x8, addend: 0x0, symName: __RNvMsx_NtNtNtCsdze8u8oDPro_5alloc11collections5btree3mapINtB5_8IntoIterNtNtNtCs27l1GJC5rMQ_3std3ffi6os_str8OsStringINtNtCs9f3LFPSIp77_4core6option6OptionB17_EE10dying_nextCsh9ovbnNyhRg_7autocfg, symObjAddr: 0x131C, symBinAddr: 0x1000156C0, symSize: 0x90 }
  - { offset: 0x3C56D, size: 0x8, addend: 0x0, symName: __RINvMs5_NtNtCs9f3LFPSIp77_4core3fmt8buildersNtB6_9DebugList7entriesRNtNtCsdze8u8oDPro_5alloc6string6StringINtNtNtBa_5slice4iter4IterB14_EECsh9ovbnNyhRg_7autocfg, symObjAddr: 0x0, symBinAddr: 0x100016DEC, symSize: 0xD0 }
  - { offset: 0x3CA7F, size: 0x8, addend: 0x0, symName: __RNvXs2_NtCsdze8u8oDPro_5alloc7raw_vecINtB5_6RawVecINtNtB7_5boxed3BoxDINtNtNtCs9f3LFPSIp77_4core3ops8function5FnMutuEp6OutputINtNtB1c_6result6ResultuNtNtNtCs27l1GJC5rMQ_3std2io5error5ErrorENtNtB1c_6marker4SendNtB32_4SyncEL_EENtNtB1a_4drop4Drop4dropCsh9ovbnNyhRg_7autocfg, symObjAddr: 0x1A6C, symBinAddr: 0x100018858, symSize: 0x34 }
  - { offset: 0x3CABB, size: 0x8, addend: 0x0, symName: __RNvXs2_NtCsdze8u8oDPro_5alloc7raw_vecINtB5_6RawVecNtNtB7_6string6StringENtNtNtCs9f3LFPSIp77_4core3ops4drop4Drop4dropCsh9ovbnNyhRg_7autocfg, symObjAddr: 0x1AA0, symBinAddr: 0x10001888C, symSize: 0x34 }
  - { offset: 0x3CAF7, size: 0x8, addend: 0x0, symName: __RNvXs2_NtCsdze8u8oDPro_5alloc7raw_vecINtB5_6RawVecNtNtNtB7_3ffi5c_str7CStringENtNtNtCs9f3LFPSIp77_4core3ops4drop4Drop4dropCsh9ovbnNyhRg_7autocfg, symObjAddr: 0x1AD4, symBinAddr: 0x1000188C0, symSize: 0x34 }
  - { offset: 0x3CB33, size: 0x8, addend: 0x0, symName: __RNvXs2_NtCsdze8u8oDPro_5alloc7raw_vecINtB5_6RawVecPaENtNtNtCs9f3LFPSIp77_4core3ops4drop4Drop4dropCsh9ovbnNyhRg_7autocfg, symObjAddr: 0x1B08, symBinAddr: 0x1000188F4, symSize: 0x30 }
  - { offset: 0x3CB95, size: 0x8, addend: 0x0, symName: __RNvXs0_NtNtCsdze8u8oDPro_5alloc3ffi5c_strNtB5_7CStringNtNtNtCs9f3LFPSIp77_4core3ops4drop4Drop4dropCsh9ovbnNyhRg_7autocfg, symObjAddr: 0x1918, symBinAddr: 0x100018704, symSize: 0x80 }
  - { offset: 0x3CE1A, size: 0x8, addend: 0x0, symName: __RNvXs6_NtCsdze8u8oDPro_5alloc5boxedINtB5_3BoxDINtNtNtCs9f3LFPSIp77_4core3ops8function5FnMutuEp6OutputINtNtBP_6result6ResultuNtNtNtCs27l1GJC5rMQ_3std2io5error5ErrorENtNtBP_6marker4SendNtB2E_4SyncEL_ENtNtBN_4drop4Drop4dropCsh9ovbnNyhRg_7autocfg, symObjAddr: 0x1FA0, symBinAddr: 0x100018D8C, symSize: 0xC4 }
  - { offset: 0x3CF98, size: 0x8, addend: 0x0, symName: __RNvXs6_NtCsdze8u8oDPro_5alloc5boxedINtB5_3BoxDNtNtCs9f3LFPSIp77_4core5error5ErrorNtNtBM_6marker4SendNtB1j_4SyncEL_ENtNtNtBM_3ops4drop4Drop4dropCsh9ovbnNyhRg_7autocfg, symObjAddr: 0x2064, symBinAddr: 0x100018E50, symSize: 0xC4 }
  - { offset: 0x3D116, size: 0x8, addend: 0x0, symName: __RNvXs6_NtCsdze8u8oDPro_5alloc5boxedINtB5_3BoxNtNtNtCs27l1GJC5rMQ_3std2io5error6CustomENtNtNtCs9f3LFPSIp77_4core3ops4drop4Drop4dropCsh9ovbnNyhRg_7autocfg, symObjAddr: 0x2128, symBinAddr: 0x100018F14, symSize: 0xB0 }
  - { offset: 0x3D294, size: 0x8, addend: 0x0, symName: __RNvXs6_NtCsdze8u8oDPro_5alloc5boxedINtB5_3BoxShENtNtNtCs9f3LFPSIp77_4core3ops4drop4Drop4dropCsh9ovbnNyhRg_7autocfg, symObjAddr: 0x21D8, symBinAddr: 0x100018FC4, symSize: 0xBC }
  - { offset: 0x3D412, size: 0x8, addend: 0x0, symName: __RNvXs6_NtCsdze8u8oDPro_5alloc5boxedINtB5_3BoxSmENtNtNtCs9f3LFPSIp77_4core3ops4drop4Drop4dropCsh9ovbnNyhRg_7autocfg, symObjAddr: 0x2294, symBinAddr: 0x100019080, symSize: 0xBC }
  - { offset: 0x3E725, size: 0x8, addend: 0x0, symName: __RNvXsP_NtCs9f3LFPSIp77_4core3fmtRNtNtCs27l1GJC5rMQ_3std7process10ExitStatusNtB5_5Debug3fmtCsh9ovbnNyhRg_7autocfg, symObjAddr: 0x23CC, symBinAddr: 0x1000191B8, symSize: 0x30 }
  - { offset: 0x3E76B, size: 0x8, addend: 0x0, symName: __RNvXsP_NtCs9f3LFPSIp77_4core3fmtRNtNtNtCs27l1GJC5rMQ_3std3ffi6os_str8OsStringNtB5_5Debug3fmtCsh9ovbnNyhRg_7autocfg, symObjAddr: 0x23FC, symBinAddr: 0x1000191E8, symSize: 0x30 }
  - { offset: 0x3E7B7, size: 0x8, addend: 0x0, symName: __RNvXsR_NtCs9f3LFPSIp77_4core3fmtRNtNtCs27l1GJC5rMQ_3std7process10ExitStatusNtB5_7Display3fmtCsh9ovbnNyhRg_7autocfg, symObjAddr: 0x242C, symBinAddr: 0x100019218, symSize: 0x30 }
  - { offset: 0x3F6D6, size: 0x8, addend: 0x0, symName: __RINvYINtNtNtCs9f3LFPSIp77_4core3str4iter5SplitcENtNtNtNtBa_4iter6traits8iterator8Iterator3mapNtNtCsdze8u8oDPro_5alloc6string6StringNvYeNtB1v_8ToString9to_stringECsh9ovbnNyhRg_7autocfg, symObjAddr: 0x664, symBinAddr: 0x100017450, symSize: 0x30 }
  - { offset: 0x3F755, size: 0x8, addend: 0x0, symName: __RINvYINtNtNtCs9f3LFPSIp77_4core3str4iter5SplitcENtNtNtNtBa_4iter6traits8iterator8Iterator3mapReNvMB8_e4trimECsh9ovbnNyhRg_7autocfg, symObjAddr: 0x694, symBinAddr: 0x100017480, symSize: 0x30 }
  - { offset: 0x3F7D4, size: 0x8, addend: 0x0, symName: __RINvYINtNtNtCs9f3LFPSIp77_4core3str4iter5SplitcENtNtNtNtBa_4iter6traits8iterator8Iterator8try_folduNCINvNtNtBQ_8adapters3map12map_try_foldReB2c_uINtNtNtBa_3ops12control_flow11ControlFlowB2c_ENvMB8_e4trimNCINvNvBK_4find5checkB2c_QNCNvCsh9ovbnNyhRg_7autocfg9rustflags0E0E0B2j_EB3J_, symObjAddr: 0x6C4, symBinAddr: 0x1000174B0, symSize: 0x19C }
  - { offset: 0x3F891, size: 0x8, addend: 0x0, symName: __RINvYNtNtNtCs9f3LFPSIp77_4core3str4iter5CharsNtNtNtNtB9_4iter6traits8iterator8Iterator3mapcNCNvCsh9ovbnNyhRg_7autocfg6mangle0EB1v_, symObjAddr: 0x8E4, symBinAddr: 0x1000176D0, symSize: 0x1C }
  - { offset: 0x3F8E9, size: 0x8, addend: 0x0, symName: __RINvYNtNtNtCs9f3LFPSIp77_4core3str4iter5CharsNtNtNtNtB9_4iter6traits8iterator8Iterator4folduNCINvNtNtBN_8adapters3map8map_foldccuNCNvCsh9ovbnNyhRg_7autocfg6mangle0NCINvNvBH_8for_each4callcNCINvXsb_NtCsdze8u8oDPro_5alloc6stringNtB39_6StringINtNtBL_7collect6ExtendcE6extendINtB1x_3MapB3_B23_EE0E0E0EB27_, symObjAddr: 0x900, symBinAddr: 0x1000176EC, symSize: 0xB8 }
  - { offset: 0x3F976, size: 0x8, addend: 0x0, symName: __RINvYNtNtNtCs9f3LFPSIp77_4core3str4iter5LinesNtNtNtNtB9_4iter6traits8iterator8Iterator4findNCNvMNtCsh9ovbnNyhRg_7autocfg7versionNtB1w_7Version12from_command0EB1y_, symObjAddr: 0x9B8, symBinAddr: 0x1000177A4, symSize: 0x88 }
  - { offset: 0x3F9F1, size: 0x8, addend: 0x0, symName: __RINvYNtNtNtCs9f3LFPSIp77_4core3str4iter5LinesNtNtNtNtB9_4iter6traits8iterator8Iterator8try_folduNCINvNvBH_4find5checkReNCNvMNtCsh9ovbnNyhRg_7autocfg7versionNtB1Y_7Version12from_command0E0INtNtNtB9_3ops12control_flow11ControlFlowB1R_EEB20_, symObjAddr: 0xA40, symBinAddr: 0x10001782C, symSize: 0x194 }
  - { offset: 0x3FAAE, size: 0x8, addend: 0x0, symName: __RNvYINtNtNtCs9f3LFPSIp77_4core3str4iter5SplitcENtNtNtNtB9_4iter6traits8iterator8Iterator9size_hintCsh9ovbnNyhRg_7autocfg, symObjAddr: 0x275C, symBinAddr: 0x100019548, symSize: 0x34 }
  - { offset: 0x3FC9E, size: 0x8, addend: 0x0, symName: __RNvXNtNtCs9f3LFPSIp77_4core3str4iterNtB2_5CharsNtNtNtNtB6_4iter6traits8iterator8Iterator4nextCsh9ovbnNyhRg_7autocfg, symObjAddr: 0x1800, symBinAddr: 0x1000185EC, symSize: 0x70 }
  - { offset: 0x3FD35, size: 0x8, addend: 0x0, symName: __RNvXNtNtCs9f3LFPSIp77_4core3str4iterNtB2_5CharsNtNtNtNtB6_4iter6traits8iterator8Iterator9size_hintCsh9ovbnNyhRg_7autocfg, symObjAddr: 0x1870, symBinAddr: 0x10001865C, symSize: 0xA8 }
  - { offset: 0x3FE49, size: 0x8, addend: 0x0, symName: __RNvXs1i_NtNtCs9f3LFPSIp77_4core3str4iterINtB6_6SplitNcENtNtNtNtBa_4iter6traits8iterator8Iterator4nextCsh9ovbnNyhRg_7autocfg, symObjAddr: 0x1A48, symBinAddr: 0x100018834, symSize: 0x24 }
  - { offset: 0x3FE9B, size: 0x8, addend: 0x0, symName: __RNvXs3_NtNtCs9f3LFPSIp77_4core3str4iterNtB5_11CharIndicesNtNtNtNtB9_4iter6traits8iterator8Iterator4nextCsh9ovbnNyhRg_7autocfg, symObjAddr: 0x1C9C, symBinAddr: 0x100018A88, symSize: 0x194 }
  - { offset: 0x401CF, size: 0x8, addend: 0x0, symName: __RNvXs4_NtNtCs9f3LFPSIp77_4core3str4iterNtB5_11CharIndicesNtNtNtNtB9_4iter6traits12double_ended19DoubleEndedIterator9next_backCsh9ovbnNyhRg_7autocfg, symObjAddr: 0x1E30, symBinAddr: 0x100018C1C, symSize: 0x170 }
  - { offset: 0x403A1, size: 0x8, addend: 0x0, symName: __RNvXsH_NtNtCs9f3LFPSIp77_4core3str4iterINtB5_14SplitInclusivecENtNtNtNtB9_4iter6traits8iterator8Iterator4nextCsh9ovbnNyhRg_7autocfg, symObjAddr: 0x23A8, symBinAddr: 0x100019194, symSize: 0x24 }
  - { offset: 0x403DE, size: 0x8, addend: 0x0, symName: __RNvXsX_NtNtCs9f3LFPSIp77_4core3str4iterINtB5_5SplitcENtNtNtNtB9_4iter6traits8iterator8Iterator4nextCsh9ovbnNyhRg_7autocfg, symObjAddr: 0x24D0, symBinAddr: 0x1000192BC, symSize: 0x24 }
  - { offset: 0x4041B, size: 0x8, addend: 0x0, symName: __RNvXss_NtNtCs9f3LFPSIp77_4core3str4iterNtB5_5LinesNtNtNtNtB9_4iter6traits8iterator8Iterator4nextCsh9ovbnNyhRg_7autocfg, symObjAddr: 0x2738, symBinAddr: 0x100019524, symSize: 0x24 }
  - { offset: 0x406BF, size: 0x8, addend: 0x0, symName: __RINvYNtNtNtCs27l1GJC5rMQ_3std4hash6random11RandomStateNtNtCs9f3LFPSIp77_4core4hash11BuildHasher8hash_oneRyECsh9ovbnNyhRg_7autocfg, symObjAddr: 0x860, symBinAddr: 0x10001764C, symSize: 0x84 }
  - { offset: 0x4086E, size: 0x8, addend: 0x0, symName: __RNvYNtNtNtCs27l1GJC5rMQ_3std4hash6random13DefaultHasherNtNtCs9f3LFPSIp77_4core4hash6Hasher9write_u64Csh9ovbnNyhRg_7autocfg, symObjAddr: 0x2B70, symBinAddr: 0x10001995C, symSize: 0x3C }
  - { offset: 0x40DBC, size: 0x8, addend: 0x0, symName: __RNvNvMNtNtCs9f3LFPSIp77_4core5alloc6layoutNtB4_6Layout25from_size_align_unchecked18precondition_checkCsh9ovbnNyhRg_7autocfg, symObjAddr: 0x1584, symBinAddr: 0x100018370, symSize: 0x50 }
  - { offset: 0x40E18, size: 0x8, addend: 0x0, symName: __RNvNvNtCs9f3LFPSIp77_4core4hint16assert_unchecked18precondition_checkCsh9ovbnNyhRg_7autocfg, symObjAddr: 0x15D4, symBinAddr: 0x1000183C0, symSize: 0x38 }
  - { offset: 0x40E46, size: 0x8, addend: 0x0, symName: __RNvNvNtCs9f3LFPSIp77_4core4hint21unreachable_unchecked18precondition_checkCsh9ovbnNyhRg_7autocfg, symObjAddr: 0x160C, symBinAddr: 0x1000183F8, symSize: 0x1C }
  - { offset: 0x40E95, size: 0x8, addend: 0x0, symName: __RNvXNtCs9f3LFPSIp77_4core7convertRNtNtNtCs27l1GJC5rMQ_3std3ffi6os_str5OsStrINtB2_5AsRefBw_E6as_refCsh9ovbnNyhRg_7autocfg, symObjAddr: 0x1780, symBinAddr: 0x10001856C, symSize: 0x30 }
  - { offset: 0x40ED5, size: 0x8, addend: 0x0, symName: __RNvXNtCs9f3LFPSIp77_4core7convertRNtNtNtCs27l1GJC5rMQ_3std3ffi6os_str8OsStringINtB2_5AsRefNtBy_5OsStrE6as_refCsh9ovbnNyhRg_7autocfg, symObjAddr: 0x17B0, symBinAddr: 0x10001859C, symSize: 0x28 }
  - { offset: 0x40F15, size: 0x8, addend: 0x0, symName: __RNvXNtCs9f3LFPSIp77_4core7convertRNtNtNtCs27l1GJC5rMQ_3std3ffi6os_str8OsStringINtB2_5AsRefNtNtBC_4path4PathE6as_refCsh9ovbnNyhRg_7autocfg, symObjAddr: 0x17D8, symBinAddr: 0x1000185C4, symSize: 0x28 }
  - { offset: 0x40F5B, size: 0x8, addend: 0x0, symName: __RNvXs1_NtCs9f3LFPSIp77_4core7convertNtNtCs27l1GJC5rMQ_3std7process5StdioINtB5_4IntoBy_E4intoCsh9ovbnNyhRg_7autocfg, symObjAddr: 0x19EC, symBinAddr: 0x1000187D8, symSize: 0x1C }
  - { offset: 0x40F9B, size: 0x8, addend: 0x0, symName: __RNvXs1_NtCs9f3LFPSIp77_4core7convertNtNtNtCs27l1GJC5rMQ_3std3ffi6os_str8OsStringINtB5_4IntoNtNtBE_4path7PathBufE4intoCsh9ovbnNyhRg_7autocfg, symObjAddr: 0x1A08, symBinAddr: 0x1000187F4, symSize: 0x14 }
  - { offset: 0x41010, size: 0x8, addend: 0x0, symName: __RNvNtNtCs9f3LFPSIp77_4core4char7methods15encode_utf8_rawCsh9ovbnNyhRg_7autocfg, symObjAddr: 0x12A0, symBinAddr: 0x10001808C, symSize: 0x21C }
  - { offset: 0x41251, size: 0x8, addend: 0x0, symName: __RNvNvNtCs9f3LFPSIp77_4core9ub_checks17is_nonoverlapping7runtimeCsh9ovbnNyhRg_7autocfg, symObjAddr: 0x1628, symBinAddr: 0x100018414, symSize: 0xE4 }
  - { offset: 0x41486, size: 0x8, addend: 0x0, symName: __RNvYNtNtNtCs27l1GJC5rMQ_3std3ffi6os_str8OsStringNtNtCs9f3LFPSIp77_4core3cmp9PartialEq2neCsh9ovbnNyhRg_7autocfg, symObjAddr: 0x2B40, symBinAddr: 0x10001992C, symSize: 0x30 }
  - { offset: 0x41721, size: 0x8, addend: 0x0, symName: __RNvNtNtNtNtCs27l1GJC5rMQ_3std3sys3pal4unix2fs23debug_assert_fd_is_openCsh9ovbnNyhRg_7autocfg, symObjAddr: 0x14BC, symBinAddr: 0x1000182A8, symSize: 0xC8 }
  - { offset: 0x418B3, size: 0x8, addend: 0x0, symName: __RNvYNtNtCs27l1GJC5rMQ_3std7process10ChildStdinNtNtB6_2io5Write9write_allCsh9ovbnNyhRg_7autocfg, symObjAddr: 0x2790, symBinAddr: 0x10001957C, symSize: 0x288 }
  - { offset: 0x41AA5, size: 0x8, addend: 0x0, symName: __RNvYNtNtCs27l1GJC5rMQ_3std7process10ChildStdinNtNtB6_2io5Write9write_fmtCsh9ovbnNyhRg_7autocfg, symObjAddr: 0x2A18, symBinAddr: 0x100019804, symSize: 0x128 }
  - { offset: 0x4211C, size: 0x8, addend: 0x0, symName: __RNvXs18_NtCs27l1GJC5rMQ_3std7processNtB6_10ExitStatusNtNtCs9f3LFPSIp77_4core3fmt5Debug3fmtCsh9ovbnNyhRg_7autocfg, symObjAddr: 0x1998, symBinAddr: 0x100018784, symSize: 0x54 }
  - { offset: 0x422E4, size: 0x8, addend: 0x0, symName: __RNvXsS_NtNtCs27l1GJC5rMQ_3std3ffi6os_strNtB5_8OsStringINtNtCs9f3LFPSIp77_4core7convert5AsRefNtB5_5OsStrE6as_refCsh9ovbnNyhRg_7autocfg, symObjAddr: 0x2474, symBinAddr: 0x100019260, symSize: 0x2C }
  - { offset: 0x42336, size: 0x8, addend: 0x0, symName: __RNvXs2_NtNtCs27l1GJC5rMQ_3std3ffi6os_strNtB5_8OsStringINtNtCs9f3LFPSIp77_4core7convert4FromReE4fromCsh9ovbnNyhRg_7autocfg, symObjAddr: 0x1B38, symBinAddr: 0x100018924, symSize: 0x54 }
  - { offset: 0x42391, size: 0x8, addend: 0x0, symName: __RNvXs3_NtNtCs27l1GJC5rMQ_3std3ffi6os_strNtB5_8OsStringINtNtNtCs9f3LFPSIp77_4core3ops5index5IndexNtNtBV_5range9RangeFullE5indexCsh9ovbnNyhRg_7autocfg, symObjAddr: 0x1BF0, symBinAddr: 0x1000189DC, symSize: 0x90 }
  - { offset: 0x42559, size: 0x8, addend: 0x0, symName: __RNvXs8_NtNtCs27l1GJC5rMQ_3std3ffi6os_strNtB5_8OsStringNtNtCs9f3LFPSIp77_4core5clone5Clone5cloneCsh9ovbnNyhRg_7autocfg, symObjAddr: 0x2350, symBinAddr: 0x10001913C, symSize: 0x58 }
  - { offset: 0x425AB, size: 0x8, addend: 0x0, symName: __RNvXsR_NtNtCs27l1GJC5rMQ_3std3ffi6os_strNtB5_5OsStrINtNtCs9f3LFPSIp77_4core7convert5AsRefBC_E6as_refCsh9ovbnNyhRg_7autocfg, symObjAddr: 0x245C, symBinAddr: 0x100019248, symSize: 0x18 }
  - { offset: 0x425DF, size: 0x8, addend: 0x0, symName: __RNvXsT_NtNtCs27l1GJC5rMQ_3std3ffi6os_streINtNtCs9f3LFPSIp77_4core7convert5AsRefNtB5_5OsStrE6as_refCsh9ovbnNyhRg_7autocfg, symObjAddr: 0x24A0, symBinAddr: 0x10001928C, symSize: 0x30 }
  - { offset: 0x4269D, size: 0x8, addend: 0x0, symName: __RNvXsa_NtNtCs27l1GJC5rMQ_3std3ffi6os_strNtB5_8OsStringNtNtCs9f3LFPSIp77_4core3cmp9PartialEq2eqCsh9ovbnNyhRg_7autocfg, symObjAddr: 0x25C0, symBinAddr: 0x1000193AC, symSize: 0x178 }
  - { offset: 0x42BF4, size: 0x8, addend: 0x0, symName: __RNvXs1d_NtCs27l1GJC5rMQ_3std4pathNtNtNtB8_3ffi6os_str8OsStringINtNtCs9f3LFPSIp77_4core7convert5AsRefNtB6_4PathE6as_refCsh9ovbnNyhRg_7autocfg, symObjAddr: 0x1A1C, symBinAddr: 0x100018808, symSize: 0x2C }
  - { offset: 0x42C9C, size: 0x8, addend: 0x0, symName: __RNCNkNvNvMNtNtCs27l1GJC5rMQ_3std4hash6randomNtB8_11RandomState3new4KEYS0s_0Csh9ovbnNyhRg_7autocfg, symObjAddr: 0xBD4, symBinAddr: 0x1000179C0, symSize: 0x3C }
  - { offset: 0x42CDA, size: 0x8, addend: 0x0, symName: __RNvNvNvMNtNtCs27l1GJC5rMQ_3std4hash6randomNtB6_11RandomState3new4KEYS6___initCsh9ovbnNyhRg_7autocfg, symObjAddr: 0x170C, symBinAddr: 0x1000184F8, symSize: 0x24 }
  - { offset: 0x42CF8, size: 0x8, addend: 0x0, symName: __RNCNvMNtNtCs27l1GJC5rMQ_3std4hash6randomNtB4_11RandomState3new0Csh9ovbnNyhRg_7autocfg, symObjAddr: 0xC10, symBinAddr: 0x1000179FC, symSize: 0x6C }
  - { offset: 0x42E8F, size: 0x8, addend: 0x0, symName: __RNvXs2_NtNtCs27l1GJC5rMQ_3std4hash6randomNtB5_13DefaultHasherNtNtCs9f3LFPSIp77_4core4hash6Hasher5writeCsh9ovbnNyhRg_7autocfg, symObjAddr: 0x1B8C, symBinAddr: 0x100018978, symSize: 0x38 }
  - { offset: 0x42EEA, size: 0x8, addend: 0x0, symName: __RNvXs2_NtNtCs27l1GJC5rMQ_3std4hash6randomNtB5_13DefaultHasherNtNtCs9f3LFPSIp77_4core4hash6Hasher6finishCsh9ovbnNyhRg_7autocfg, symObjAddr: 0x1BC4, symBinAddr: 0x1000189B0, symSize: 0x2C }
  - { offset: 0x42F69, size: 0x8, addend: 0x0, symName: __RNvXs3_NtNtCs27l1GJC5rMQ_3std4hash6randomNtB5_11RandomStateNtNtCs9f3LFPSIp77_4core7default7Default7defaultCsh9ovbnNyhRg_7autocfg, symObjAddr: 0x1C80, symBinAddr: 0x100018A6C, symSize: 0x1C }
  - { offset: 0x42FA1, size: 0x8, addend: 0x0, symName: __RNvXs_NtNtCs27l1GJC5rMQ_3std4hash6randomNtB4_11RandomStateNtNtCs9f3LFPSIp77_4core4hash11BuildHasher12build_hasherCsh9ovbnNyhRg_7autocfg, symObjAddr: 0x24F4, symBinAddr: 0x1000192E0, symSize: 0xCC }
  - { offset: 0x43176, size: 0x8, addend: 0x0, symName: __RINvMs5_NtNtCs9f3LFPSIp77_4core3fmt8buildersNtB6_9DebugList7entriesRNtNtCsdze8u8oDPro_5alloc6string6StringINtNtNtBa_5slice4iter4IterB14_EECsh9ovbnNyhRg_7autocfg, symObjAddr: 0x0, symBinAddr: 0x100016DEC, symSize: 0xD0 }
  - { offset: 0x4333A, size: 0x8, addend: 0x0, symName: __RINvMsk_NtCs27l1GJC5rMQ_3std7processNtB6_7Command3argNtNtCsdze8u8oDPro_5alloc6string6StringECsh9ovbnNyhRg_7autocfg, symObjAddr: 0xD0, symBinAddr: 0x100016EBC, symSize: 0x84 }
  - { offset: 0x43383, size: 0x8, addend: 0x0, symName: __RINvMsk_NtCs27l1GJC5rMQ_3std7processNtB6_7Command3argRNtNtB8_4path7PathBufECsh9ovbnNyhRg_7autocfg, symObjAddr: 0x154, symBinAddr: 0x100016F40, symSize: 0x6C }
  - { offset: 0x433E5, size: 0x8, addend: 0x0, symName: __RINvMsk_NtCs27l1GJC5rMQ_3std7processNtB6_7Command3argRNtNtNtB8_3ffi6os_str5OsStrECsh9ovbnNyhRg_7autocfg, symObjAddr: 0x1C0, symBinAddr: 0x100016FAC, symSize: 0x70 }
  - { offset: 0x4342D, size: 0x8, addend: 0x0, symName: __RINvMsk_NtCs27l1GJC5rMQ_3std7processNtB6_7Command3argRNtNtNtB8_3ffi6os_str8OsStringECsh9ovbnNyhRg_7autocfg, symObjAddr: 0x230, symBinAddr: 0x10001701C, symSize: 0x6C }
  - { offset: 0x43468, size: 0x8, addend: 0x0, symName: __RINvMsk_NtCs27l1GJC5rMQ_3std7processNtB6_7Command3argReECsh9ovbnNyhRg_7autocfg, symObjAddr: 0x29C, symBinAddr: 0x100017088, symSize: 0x70 }
  - { offset: 0x434A3, size: 0x8, addend: 0x0, symName: __RINvMsk_NtCs27l1GJC5rMQ_3std7processNtB6_7Command3newRNtNtB8_4path7PathBufECsh9ovbnNyhRg_7autocfg, symObjAddr: 0x30C, symBinAddr: 0x1000170F8, symSize: 0x80 }
  - { offset: 0x434F6, size: 0x8, addend: 0x0, symName: __RINvMsk_NtCs27l1GJC5rMQ_3std7processNtB6_7Command4argsRARNtNtB8_4path7PathBufj2_RBS_ECsh9ovbnNyhRg_7autocfg, symObjAddr: 0x38C, symBinAddr: 0x100017178, symSize: 0xD4 }
  - { offset: 0x4358D, size: 0x8, addend: 0x0, symName: __RINvMsk_NtCs27l1GJC5rMQ_3std7processNtB6_7Command4argsRARej2_RBS_ECsh9ovbnNyhRg_7autocfg, symObjAddr: 0x460, symBinAddr: 0x10001724C, symSize: 0xD4 }
  - { offset: 0x4360A, size: 0x8, addend: 0x0, symName: __RINvMsk_NtCs27l1GJC5rMQ_3std7processNtB6_7Command4argsRINtNtCsdze8u8oDPro_5alloc3vec3VecNtNtBW_6string6StringERB1o_ECsh9ovbnNyhRg_7autocfg, symObjAddr: 0x534, symBinAddr: 0x100017320, symSize: 0xD4 }
  - { offset: 0x4367A, size: 0x8, addend: 0x0, symName: __RINvMsk_NtCs27l1GJC5rMQ_3std7processNtB6_7Command5stdinNtB6_5StdioECsh9ovbnNyhRg_7autocfg, symObjAddr: 0x608, symBinAddr: 0x1000173F4, symSize: 0x5C }
  - { offset: 0x438E3, size: 0x8, addend: 0x0, symName: __RNvMs0_NtNtCs27l1GJC5rMQ_3std3ffi6os_strNtB5_8OsString3newCsh9ovbnNyhRg_7autocfg, symObjAddr: 0xC7C, symBinAddr: 0x100017A68, symSize: 0x5C }
  - { offset: 0x43A46, size: 0x8, addend: 0x0, symName: __RNvMs3_NtCsdze8u8oDPro_5alloc7raw_vecNtB5_11RawVecInner16with_capacity_inCsh9ovbnNyhRg_7autocfg, symObjAddr: 0xCD8, symBinAddr: 0x100017AC4, symSize: 0xF8 }
  - { offset: 0x43C2B, size: 0x8, addend: 0x0, symName: __RNvMsC_NtCs27l1GJC5rMQ_3std7processNtB5_10ExitStatus7successCsh9ovbnNyhRg_7autocfg, symObjAddr: 0xDD0, symBinAddr: 0x100017BBC, symSize: 0x8C }
  - { offset: 0x43D3B, size: 0x8, addend: 0x0, symName: __RNvMsf_NtNtCs9f3LFPSIp77_4core3str4iterINtB5_13SplitInternalcE14next_inclusiveCsh9ovbnNyhRg_7autocfg, symObjAddr: 0xE5C, symBinAddr: 0x100017C48, symSize: 0x128 }
  - { offset: 0x43E66, size: 0x8, addend: 0x0, symName: __RNvMsf_NtNtCs9f3LFPSIp77_4core3str4iterINtB5_13SplitInternalcE4nextCsh9ovbnNyhRg_7autocfg, symObjAddr: 0xF84, symBinAddr: 0x100017D70, symSize: 0x138 }
  - { offset: 0x43FA2, size: 0x8, addend: 0x0, symName: __RNvMsf_NtNtCs9f3LFPSIp77_4core3str4iterINtB5_13SplitInternalcE7get_endCsh9ovbnNyhRg_7autocfg, symObjAddr: 0x10BC, symBinAddr: 0x100017EA8, symSize: 0x120 }
  - { offset: 0x440AD, size: 0x8, addend: 0x0, symName: __RNvMsl_NtNtCs9f3LFPSIp77_4core3str4iterINtB5_14SplitNInternalcE4nextCsh9ovbnNyhRg_7autocfg, symObjAddr: 0x11DC, symBinAddr: 0x100017FC8, symSize: 0xAC }
  - { offset: 0x440D9, size: 0x8, addend: 0x0, symName: __RNvMsr_NtCs27l1GJC5rMQ_3std7processNtB5_5Stdio5pipedCsh9ovbnNyhRg_7autocfg, symObjAddr: 0x1288, symBinAddr: 0x100018074, symSize: 0x18 }
  - { offset: 0x4424C, size: 0x8, addend: 0x0, symName: __RNvXCscXJUXcj6jCz_9hashbrownyINtB2_10EquivalentyE10equivalentCsh9ovbnNyhRg_7autocfg, symObjAddr: 0x1730, symBinAddr: 0x10001851C, symSize: 0x50 }
  - { offset: 0x450A1, size: 0x8, addend: 0x0, symName: __RINvMs0_NtCs9f3LFPSIp77_4core3fmtNtB6_9Arguments6new_v1Kj1_KBS_ECsh9ovbnNyhRg_7autocfg, symObjAddr: 0x0, symBinAddr: 0x100019998, symSize: 0x50 }
  - { offset: 0x451C6, size: 0x8, addend: 0x0, symName: __RNvNvMCsh9ovbnNyhRg_7autocfgNtB4_7AutoCfg14new_crate_name2ID, symObjAddr: 0x1CC30, symBinAddr: 0x10010FF40, symSize: 0x0 }
  - { offset: 0x4523B, size: 0x8, addend: 0x0, symName: __RNvCsh9ovbnNyhRg_7autocfg4emit, symObjAddr: 0x149C, symBinAddr: 0x10001AE34, symSize: 0x8C }
  - { offset: 0x452C2, size: 0x8, addend: 0x0, symName: __RNvCsh9ovbnNyhRg_7autocfg10rerun_path, symObjAddr: 0x1528, symBinAddr: 0x10001AEC0, symSize: 0x8C }
  - { offset: 0x45349, size: 0x8, addend: 0x0, symName: __RNvCsh9ovbnNyhRg_7autocfg9rerun_env, symObjAddr: 0x15B4, symBinAddr: 0x10001AF4C, symSize: 0x8C }
  - { offset: 0x453D0, size: 0x8, addend: 0x0, symName: __RNvCsh9ovbnNyhRg_7autocfg16emit_possibility, symObjAddr: 0x1640, symBinAddr: 0x10001AFD8, symSize: 0x8C }
  - { offset: 0x45738, size: 0x8, addend: 0x0, symName: __RNvCsh9ovbnNyhRg_7autocfg3new, symObjAddr: 0x16CC, symBinAddr: 0x10001B064, symSize: 0xD4 }
  - { offset: 0x45789, size: 0x8, addend: 0x0, symName: __RNvCsh9ovbnNyhRg_7autocfg6mangle, symObjAddr: 0x3858, symBinAddr: 0x10001D1F0, symSize: 0x48 }
  - { offset: 0x457BC, size: 0x8, addend: 0x0, symName: __RNCNvCsh9ovbnNyhRg_7autocfg6mangle0B3_, symObjAddr: 0x38A0, symBinAddr: 0x10001D238, symSize: 0x160 }
  - { offset: 0x457FD, size: 0x8, addend: 0x0, symName: __RNvCsh9ovbnNyhRg_7autocfg19dir_contains_target, symObjAddr: 0x3A00, symBinAddr: 0x10001D398, symSize: 0xD8 }
  - { offset: 0x4584F, size: 0x8, addend: 0x0, symName: __RNCNvCsh9ovbnNyhRg_7autocfg19dir_contains_target0B3_, symObjAddr: 0x3AD8, symBinAddr: 0x10001D470, symSize: 0xC8 }
  - { offset: 0x458A4, size: 0x8, addend: 0x0, symName: __RNCNCNvCsh9ovbnNyhRg_7autocfg19dir_contains_target00B5_, symObjAddr: 0x3BA0, symBinAddr: 0x10001D538, symSize: 0x100 }
  - { offset: 0x45911, size: 0x8, addend: 0x0, symName: __RNCNCNCNvCsh9ovbnNyhRg_7autocfg19dir_contains_target000B7_, symObjAddr: 0x3CA0, symBinAddr: 0x10001D638, symSize: 0x3C }
  - { offset: 0x4593B, size: 0x8, addend: 0x0, symName: __RNCNCNCNvCsh9ovbnNyhRg_7autocfg19dir_contains_target00s_0B7_, symObjAddr: 0x3CDC, symBinAddr: 0x10001D674, symSize: 0x54 }
  - { offset: 0x45984, size: 0x8, addend: 0x0, symName: __RNvCsh9ovbnNyhRg_7autocfg9rustflags, symObjAddr: 0x3D30, symBinAddr: 0x10001D6C8, symSize: 0x3C0 }
  - { offset: 0x459F4, size: 0x8, addend: 0x0, symName: __RNCNvCsh9ovbnNyhRg_7autocfg9rustflags0B3_, symObjAddr: 0x40F0, symBinAddr: 0x10001DA88, symSize: 0x44 }
  - { offset: 0x45A35, size: 0x8, addend: 0x0, symName: __RNvCsh9ovbnNyhRg_7autocfg8new_uuid, symObjAddr: 0x4134, symBinAddr: 0x10001DACC, symSize: 0x134 }
  - { offset: 0x45AD9, size: 0x8, addend: 0x0, symName: __RNvXs_Csh9ovbnNyhRg_7autocfgNtB4_7AutoCfgNtNtCs9f3LFPSIp77_4core5clone5Clone5cloneB4_, symObjAddr: 0x4268, symBinAddr: 0x10001DC00, symSize: 0x164 }
  - { offset: 0x45B0B, size: 0x8, addend: 0x0, symName: __RNvXs0_Csh9ovbnNyhRg_7autocfgNtB5_7AutoCfgNtNtCs9f3LFPSIp77_4core3fmt5Debug3fmtB5_, symObjAddr: 0x43CC, symBinAddr: 0x10001DD64, symSize: 0x10C }
  - { offset: 0x46167, size: 0x8, addend: 0x0, symName: __RINvNtCs27l1GJC5rMQ_3std3env3varReECsh9ovbnNyhRg_7autocfg, symObjAddr: 0xF4, symBinAddr: 0x100019A8C, symSize: 0x68 }
  - { offset: 0x4619C, size: 0x8, addend: 0x0, symName: __RINvNtCs27l1GJC5rMQ_3std3env6var_osReECsh9ovbnNyhRg_7autocfg, symObjAddr: 0x15C, symBinAddr: 0x100019AF4, symSize: 0x68 }
  - { offset: 0x468C3, size: 0x8, addend: 0x0, symName: __RNvNvMNtNtCs9f3LFPSIp77_4core3ptr9const_ptrPp7sub_ptr18precondition_checkCsh9ovbnNyhRg_7autocfg, symObjAddr: 0x924, symBinAddr: 0x10001A2BC, symSize: 0x40 }
  - { offset: 0x477D9, size: 0x8, addend: 0x0, symName: __RNvXsP_NtCs9f3LFPSIp77_4core3fmtRReNtB5_5Debug3fmtCsh9ovbnNyhRg_7autocfg, symObjAddr: 0x1274, symBinAddr: 0x10001AC0C, symSize: 0x30 }
  - { offset: 0x4781F, size: 0x8, addend: 0x0, symName: __RNvXsP_NtCs9f3LFPSIp77_4core3fmtReNtB5_5Debug3fmtCsh9ovbnNyhRg_7autocfg, symObjAddr: 0x12A4, symBinAddr: 0x10001AC3C, symSize: 0x3C }
  - { offset: 0x47865, size: 0x8, addend: 0x0, symName: __RNvXsP_NtCs9f3LFPSIp77_4core3fmtRhNtB5_5Debug3fmtCsh9ovbnNyhRg_7autocfg, symObjAddr: 0x12E0, symBinAddr: 0x10001AC78, symSize: 0x30 }
  - { offset: 0x478AB, size: 0x8, addend: 0x0, symName: __RNvXsP_NtCs9f3LFPSIp77_4core3fmtRjNtB5_5Debug3fmtCsh9ovbnNyhRg_7autocfg, symObjAddr: 0x1310, symBinAddr: 0x10001ACA8, symSize: 0x30 }
  - { offset: 0x478F1, size: 0x8, addend: 0x0, symName: __RNvXsP_NtCs9f3LFPSIp77_4core3fmtRuNtB5_5Debug3fmtCsh9ovbnNyhRg_7autocfg, symObjAddr: 0x1340, symBinAddr: 0x10001ACD8, symSize: 0x30 }
  - { offset: 0x4793D, size: 0x8, addend: 0x0, symName: __RNvXsR_NtCs9f3LFPSIp77_4core3fmtReNtB5_7Display3fmtCsh9ovbnNyhRg_7autocfg, symObjAddr: 0x1370, symBinAddr: 0x10001AD08, symSize: 0x3C }
  - { offset: 0x47989, size: 0x8, addend: 0x0, symName: __RNvXsc_NtCs9f3LFPSIp77_4core3fmtbNtB5_5Debug3fmtCsh9ovbnNyhRg_7autocfg, symObjAddr: 0x13AC, symBinAddr: 0x10001AD44, symSize: 0x2C }
  - { offset: 0x479CC, size: 0x8, addend: 0x0, symName: __RNvXsp_NtCs9f3LFPSIp77_4core3fmtuNtB5_5Debug3fmtCsh9ovbnNyhRg_7autocfg, symObjAddr: 0x13D8, symBinAddr: 0x10001AD70, symSize: 0x40 }
  - { offset: 0x47F23, size: 0x8, addend: 0x0, symName: __RNvNtNtCs9f3LFPSIp77_4core4hash3sip9u8to64_leCsh9ovbnNyhRg_7autocfg, symObjAddr: 0x6F4, symBinAddr: 0x10001A08C, symSize: 0x230 }
  - { offset: 0x48102, size: 0x8, addend: 0x0, symName: __RNvXs3_NtNtCs9f3LFPSIp77_4core4hash3sipINtB5_6HasherNtB5_11Sip13RoundsENtB7_6Hasher5writeCsh9ovbnNyhRg_7autocfg, symObjAddr: 0xA2C, symBinAddr: 0x10001A3C4, symSize: 0x230 }
  - { offset: 0x482A2, size: 0x8, addend: 0x0, symName: __RNvXs3_NtNtCs9f3LFPSIp77_4core4hash3sipINtB5_6HasherNtB5_11Sip13RoundsENtB7_6Hasher6finishCsh9ovbnNyhRg_7autocfg, symObjAddr: 0xC5C, symBinAddr: 0x10001A5F4, symSize: 0xA0 }
  - { offset: 0x4831B, size: 0x8, addend: 0x0, symName: __RNvXs6_NtNtCs9f3LFPSIp77_4core4hash3sipNtB5_11Sip13RoundsNtB5_3Sip8c_roundsCsh9ovbnNyhRg_7autocfg, symObjAddr: 0xCFC, symBinAddr: 0x10001A694, symSize: 0x170 }
  - { offset: 0x48491, size: 0x8, addend: 0x0, symName: __RNvXs6_NtNtCs9f3LFPSIp77_4core4hash3sipNtB5_11Sip13RoundsNtB5_3Sip8d_roundsCsh9ovbnNyhRg_7autocfg, symObjAddr: 0xE6C, symBinAddr: 0x10001A804, symSize: 0x408 }
  - { offset: 0x487BF, size: 0x8, addend: 0x0, symName: __RNvNvNtNtCs9f3LFPSIp77_4core4char7convert18from_u32_unchecked18precondition_checkCsh9ovbnNyhRg_7autocfg, symObjAddr: 0x964, symBinAddr: 0x10001A2FC, symSize: 0x98 }
  - { offset: 0x48855, size: 0x8, addend: 0x0, symName: __RNvXs1_NtNtNtCs9f3LFPSIp77_4core3ops8function5implsQNCNvCsh9ovbnNyhRg_7autocfg9rustflags0INtB7_5FnMutTRReEE8call_mutBS_, symObjAddr: 0x9FC, symBinAddr: 0x10001A394, symSize: 0x30 }
  - { offset: 0x48924, size: 0x8, addend: 0x0, symName: __RNvYNtCsh9ovbnNyhRg_7autocfg7AutoCfgNtNtCs9f3LFPSIp77_4core5clone5Clone10clone_fromB4_, symObjAddr: 0x1418, symBinAddr: 0x10001ADB0, symSize: 0x84 }
  - { offset: 0x48F6B, size: 0x8, addend: 0x0, symName: __RINvNtNtNtCsdze8u8oDPro_5alloc11collections5btree3mem7replaceINtNtB4_4node6HandleINtB10_7NodeRefNtNtB10_6marker5DyingNtNtNtCs27l1GJC5rMQ_3std3ffi6os_str8OsStringINtNtCs9f3LFPSIp77_4core6option6OptionB1R_ENtB1y_4LeafENtB1y_4EdgeEIBY_IB1i_B1w_B1R_B2z_NtB1y_14LeafOrInternalENtB1y_2KVENCINvMsm_NtB4_8navigateBX_27deallocating_next_uncheckedNtNtB8_5alloc6GlobalE0ECsh9ovbnNyhRg_7autocfg, symObjAddr: 0x1C4, symBinAddr: 0x100019B5C, symSize: 0xCC }
  - { offset: 0x4926A, size: 0x8, addend: 0x0, symName: __RINvMs0_NtCs9f3LFPSIp77_4core3fmtNtB6_9Arguments6new_v1Kj1_KBS_ECsh9ovbnNyhRg_7autocfg, symObjAddr: 0x0, symBinAddr: 0x100019998, symSize: 0x50 }
  - { offset: 0x492D0, size: 0x8, addend: 0x0, symName: __RINvMs0_NtCs9f3LFPSIp77_4core3fmtNtB6_9Arguments6new_v1Kj2_KBS_ECsh9ovbnNyhRg_7autocfg, symObjAddr: 0x50, symBinAddr: 0x1000199E8, symSize: 0x50 }
  - { offset: 0x49302, size: 0x8, addend: 0x0, symName: __RINvMs0_NtCs9f3LFPSIp77_4core3fmtNtB6_9Arguments6new_v1Kj2_Kj1_ECsh9ovbnNyhRg_7autocfg, symObjAddr: 0xA0, symBinAddr: 0x100019A38, symSize: 0x54 }
  - { offset: 0x4967D, size: 0x8, addend: 0x0, symName: __RNvMNtNtCscXJUXcj6jCz_9hashbrown3raw4neonNtB2_5Group10match_byteCsh9ovbnNyhRg_7autocfg, symObjAddr: 0x290, symBinAddr: 0x100019C28, symSize: 0x7C }
  - { offset: 0x496CB, size: 0x8, addend: 0x0, symName: __RNvMNtNtCscXJUXcj6jCz_9hashbrown3raw4neonNtB2_5Group10match_fullCsh9ovbnNyhRg_7autocfg, symObjAddr: 0x30C, symBinAddr: 0x100019CA4, symSize: 0x68 }
  - { offset: 0x49703, size: 0x8, addend: 0x0, symName: __RNvMNtNtCscXJUXcj6jCz_9hashbrown3raw4neonNtB2_5Group22match_empty_or_deletedCsh9ovbnNyhRg_7autocfg, symObjAddr: 0x374, symBinAddr: 0x100019D0C, symSize: 0x68 }
  - { offset: 0x4973B, size: 0x8, addend: 0x0, symName: __RNvMNtNtCscXJUXcj6jCz_9hashbrown3raw4neonNtB2_5Group44convert_special_to_empty_and_full_to_deletedCsh9ovbnNyhRg_7autocfg, symObjAddr: 0x3DC, symBinAddr: 0x100019D74, symSize: 0x88 }
  - { offset: 0x49773, size: 0x8, addend: 0x0, symName: __RNvMs0_NtCs9f3LFPSIp77_4core3fmtNtB5_9Arguments16new_v1_formattedCsh9ovbnNyhRg_7autocfg, symObjAddr: 0x464, symBinAddr: 0x100019DFC, symSize: 0x58 }
  - { offset: 0x497DD, size: 0x8, addend: 0x0, symName: __RNvMs0_NtNtCs9f3LFPSIp77_4core4hash3sipINtB5_6HasherNtB5_11Sip13RoundsE5resetCsh9ovbnNyhRg_7autocfg, symObjAddr: 0x4BC, symBinAddr: 0x100019E54, symSize: 0x8C }
  - { offset: 0x4988F, size: 0x8, addend: 0x0, symName: __RNvMs7_NtCs9f3LFPSIp77_4core3fmtNtB5_9Formatter9write_fmtCsh9ovbnNyhRg_7autocfg, symObjAddr: 0x548, symBinAddr: 0x100019EE0, symSize: 0x1AC }
  - { offset: 0x49A69, size: 0x8, addend: 0x0, symName: __RNvMCsh9ovbnNyhRg_7autocfgNtB2_7AutoCfg3new, symObjAddr: 0x17A0, symBinAddr: 0x10001B138, symSize: 0xC8 }
  - { offset: 0x49A9A, size: 0x8, addend: 0x0, symName: __RINvMCsh9ovbnNyhRg_7autocfgNtB3_7AutoCfg8with_dirNtNtNtCs27l1GJC5rMQ_3std3ffi6os_str8OsStringEB3_, symObjAddr: 0x1868, symBinAddr: 0x10001B200, symSize: 0x6B4 }
  - { offset: 0x49BB6, size: 0x8, addend: 0x0, symName: __RNvMCsh9ovbnNyhRg_7autocfgNtB2_7AutoCfg6no_std, symObjAddr: 0x1F1C, symBinAddr: 0x10001B8B4, symSize: 0x2C }
  - { offset: 0x49BE5, size: 0x8, addend: 0x0, symName: __RNvMCsh9ovbnNyhRg_7autocfgNtB2_7AutoCfg10set_no_std, symObjAddr: 0x1F48, symBinAddr: 0x10001B8E0, symSize: 0x2C }
  - { offset: 0x49C15, size: 0x8, addend: 0x0, symName: __RNvMCsh9ovbnNyhRg_7autocfgNtB2_7AutoCfg19probe_rustc_version, symObjAddr: 0x1F74, symBinAddr: 0x10001B90C, symSize: 0x64 }
  - { offset: 0x49CCB, size: 0x8, addend: 0x0, symName: __RNvMCsh9ovbnNyhRg_7autocfgNtB2_7AutoCfg18emit_rustc_version, symObjAddr: 0x1FD8, symBinAddr: 0x10001B970, symSize: 0x1A0 }
  - { offset: 0x49EBD, size: 0x8, addend: 0x0, symName: __RNvMCsh9ovbnNyhRg_7autocfgNtB2_7AutoCfg14new_crate_name, symObjAddr: 0x2178, symBinAddr: 0x10001BB10, symSize: 0x250 }
  - { offset: 0x4A07A, size: 0x8, addend: 0x0, symName: __RNvMCsh9ovbnNyhRg_7autocfgNtB2_7AutoCfg9probe_fmt, symObjAddr: 0x23C8, symBinAddr: 0x10001BD60, symSize: 0x550 }
  - { offset: 0x4A214, size: 0x8, addend: 0x0, symName: __RNvMCsh9ovbnNyhRg_7autocfgNtB2_7AutoCfg5probe, symObjAddr: 0x2918, symBinAddr: 0x10001C2B0, symSize: 0x130 }
  - { offset: 0x4A2C6, size: 0x8, addend: 0x0, symName: __RNvMCsh9ovbnNyhRg_7autocfgNtB2_7AutoCfg9probe_raw, symObjAddr: 0x2A48, symBinAddr: 0x10001C3E0, symSize: 0xA0 }
  - { offset: 0x4A358, size: 0x8, addend: 0x0, symName: __RNvMCsh9ovbnNyhRg_7autocfgNtB2_7AutoCfg19probe_sysroot_crate, symObjAddr: 0x2AE8, symBinAddr: 0x10001C480, symSize: 0x98 }
  - { offset: 0x4A462, size: 0x8, addend: 0x0, symName: __RNvMCsh9ovbnNyhRg_7autocfgNtB2_7AutoCfg18emit_sysroot_crate, symObjAddr: 0x2B80, symBinAddr: 0x10001C518, symSize: 0x1E8 }
  - { offset: 0x4A54B, size: 0x8, addend: 0x0, symName: __RNvMCsh9ovbnNyhRg_7autocfgNtB2_7AutoCfg10probe_path, symObjAddr: 0x2D68, symBinAddr: 0x10001C700, symSize: 0x98 }
  - { offset: 0x4A5DD, size: 0x8, addend: 0x0, symName: __RNvMCsh9ovbnNyhRg_7autocfgNtB2_7AutoCfg13emit_has_path, symObjAddr: 0x2E00, symBinAddr: 0x10001C798, symSize: 0x190 }
  - { offset: 0x4A6AF, size: 0x8, addend: 0x0, symName: __RNvMCsh9ovbnNyhRg_7autocfgNtB2_7AutoCfg13emit_path_cfg, symObjAddr: 0x2F90, symBinAddr: 0x10001C928, symSize: 0xA8 }
  - { offset: 0x4A6F0, size: 0x8, addend: 0x0, symName: __RNvMCsh9ovbnNyhRg_7autocfgNtB2_7AutoCfg11probe_trait, symObjAddr: 0x3038, symBinAddr: 0x10001C9D0, symSize: 0x98 }
  - { offset: 0x4A782, size: 0x8, addend: 0x0, symName: __RNvMCsh9ovbnNyhRg_7autocfgNtB2_7AutoCfg14emit_has_trait, symObjAddr: 0x30D0, symBinAddr: 0x10001CA68, symSize: 0x190 }
  - { offset: 0x4A854, size: 0x8, addend: 0x0, symName: __RNvMCsh9ovbnNyhRg_7autocfgNtB2_7AutoCfg14emit_trait_cfg, symObjAddr: 0x3260, symBinAddr: 0x10001CBF8, symSize: 0xA8 }
  - { offset: 0x4A895, size: 0x8, addend: 0x0, symName: __RNvMCsh9ovbnNyhRg_7autocfgNtB2_7AutoCfg10probe_type, symObjAddr: 0x3308, symBinAddr: 0x10001CCA0, symSize: 0x98 }
  - { offset: 0x4A927, size: 0x8, addend: 0x0, symName: __RNvMCsh9ovbnNyhRg_7autocfgNtB2_7AutoCfg13emit_has_type, symObjAddr: 0x33A0, symBinAddr: 0x10001CD38, symSize: 0x190 }
  - { offset: 0x4A9F9, size: 0x8, addend: 0x0, symName: __RNvMCsh9ovbnNyhRg_7autocfgNtB2_7AutoCfg13emit_type_cfg, symObjAddr: 0x3530, symBinAddr: 0x10001CEC8, symSize: 0xA8 }
  - { offset: 0x4AA3A, size: 0x8, addend: 0x0, symName: __RNvMCsh9ovbnNyhRg_7autocfgNtB2_7AutoCfg16probe_expression, symObjAddr: 0x35D8, symBinAddr: 0x10001CF70, symSize: 0x98 }
  - { offset: 0x4AACC, size: 0x8, addend: 0x0, symName: __RNvMCsh9ovbnNyhRg_7autocfgNtB2_7AutoCfg19emit_expression_cfg, symObjAddr: 0x3670, symBinAddr: 0x10001D008, symSize: 0xA8 }
  - { offset: 0x4AB0D, size: 0x8, addend: 0x0, symName: __RNvMCsh9ovbnNyhRg_7autocfgNtB2_7AutoCfg14probe_constant, symObjAddr: 0x3718, symBinAddr: 0x10001D0B0, symSize: 0x98 }
  - { offset: 0x4AB9F, size: 0x8, addend: 0x0, symName: __RNvMCsh9ovbnNyhRg_7autocfgNtB2_7AutoCfg17emit_constant_cfg, symObjAddr: 0x37B0, symBinAddr: 0x10001D148, symSize: 0xA8 }
  - { offset: 0x4B033, size: 0x8, addend: 0x0, symName: ___llvm_profile_set_timestamp, symObjAddr: 0x0, symBinAddr: 0x10001DE70, symSize: 0x28 }
  - { offset: 0x4B03B, size: 0x8, addend: 0x0, symName: ___llvm_profile_global_timestamp, symObjAddr: 0x130, symBinAddr: 0x100108618, symSize: 0x0 }
  - { offset: 0x4B050, size: 0x8, addend: 0x0, symName: ___llvm_profile_global_timestamp, symObjAddr: 0x130, symBinAddr: 0x100108618, symSize: 0x0 }
  - { offset: 0x4B0D5, size: 0x8, addend: 0x0, symName: ___llvm_profile_set_timestamp, symObjAddr: 0x0, symBinAddr: 0x10001DE70, symSize: 0x28 }
  - { offset: 0x4B0DD, size: 0x8, addend: 0x0, symName: ___llvm_profile_get_magic, symObjAddr: 0x28, symBinAddr: 0x10001DE98, symSize: 0x14 }
  - { offset: 0x4B100, size: 0x8, addend: 0x0, symName: ___llvm_profile_get_magic, symObjAddr: 0x28, symBinAddr: 0x10001DE98, symSize: 0x14 }
  - { offset: 0x4B108, size: 0x8, addend: 0x0, symName: ___llvm_profile_set_dumped, symObjAddr: 0x3C, symBinAddr: 0x10001DEAC, symSize: 0x8 }
  - { offset: 0x4B121, size: 0x8, addend: 0x0, symName: ___llvm_profile_set_dumped, symObjAddr: 0x3C, symBinAddr: 0x10001DEAC, symSize: 0x8 }
  - { offset: 0x4B129, size: 0x8, addend: 0x0, symName: ___llvm_profile_get_num_padding_bytes, symObjAddr: 0x44, symBinAddr: 0x10001DEB4, symSize: 0xC }
  - { offset: 0x4B13D, size: 0x8, addend: 0x0, symName: ___llvm_profile_get_num_padding_bytes, symObjAddr: 0x44, symBinAddr: 0x10001DEB4, symSize: 0xC }
  - { offset: 0x4B145, size: 0x8, addend: 0x0, symName: ___llvm_profile_get_version, symObjAddr: 0x50, symBinAddr: 0x10001DEC0, symSize: 0xC }
  - { offset: 0x4B16E, size: 0x8, addend: 0x0, symName: ___llvm_profile_get_version, symObjAddr: 0x50, symBinAddr: 0x10001DEC0, symSize: 0xC }
  - { offset: 0x4B176, size: 0x8, addend: 0x0, symName: ___llvm_profile_reset_counters, symObjAddr: 0x5C, symBinAddr: 0x10001DECC, symSize: 0xD4 }
  - { offset: 0x4B195, size: 0x8, addend: 0x0, symName: ___llvm_profile_reset_counters, symObjAddr: 0x5C, symBinAddr: 0x10001DECC, symSize: 0xD4 }
  - { offset: 0x4B19D, size: 0x8, addend: 0x0, symName: ___llvm_profile_global_timestamp, symObjAddr: 0x130, symBinAddr: 0x100108618, symSize: 0x0 }
  - { offset: 0x4B3D0, size: 0x8, addend: 0x0, symName: ___llvm_profile_is_continuous_mode_enabled, symObjAddr: 0x0, symBinAddr: 0x10001DFA0, symSize: 0x20 }
  - { offset: 0x4B3ED, size: 0x8, addend: 0x0, symName: __MergedGlobals, symObjAddr: 0x3E20, symBinAddr: 0x10010FFC0, symSize: 0x0 }
  - { offset: 0x4B40F, size: 0x8, addend: 0x0, symName: __MergedGlobals, symObjAddr: 0x3E20, symBinAddr: 0x10010FFC0, symSize: 0x0 }
  - { offset: 0x4B43F, size: 0x8, addend: 0x0, symName: ___llvm_profile_is_continuous_mode_enabled, symObjAddr: 0x0, symBinAddr: 0x10001DFA0, symSize: 0x20 }
  - { offset: 0x4B447, size: 0x8, addend: 0x0, symName: ___llvm_profile_enable_continuous_mode, symObjAddr: 0x20, symBinAddr: 0x10001DFC0, symSize: 0x10 }
  - { offset: 0x4B457, size: 0x8, addend: 0x0, symName: ___llvm_profile_enable_continuous_mode, symObjAddr: 0x20, symBinAddr: 0x10001DFC0, symSize: 0x10 }
  - { offset: 0x4B45F, size: 0x8, addend: 0x0, symName: ___llvm_profile_disable_continuous_mode, symObjAddr: 0x30, symBinAddr: 0x10001DFD0, symSize: 0xC }
  - { offset: 0x4B474, size: 0x8, addend: 0x0, symName: ___llvm_profile_disable_continuous_mode, symObjAddr: 0x30, symBinAddr: 0x10001DFD0, symSize: 0xC }
  - { offset: 0x4B47C, size: 0x8, addend: 0x0, symName: ___llvm_profile_set_page_size, symObjAddr: 0x3C, symBinAddr: 0x10001DFDC, symSize: 0xC }
  - { offset: 0x4B491, size: 0x8, addend: 0x0, symName: ___llvm_profile_set_page_size, symObjAddr: 0x3C, symBinAddr: 0x10001DFDC, symSize: 0xC }
  - { offset: 0x4B499, size: 0x8, addend: 0x0, symName: ___llvm_profile_get_size_for_buffer, symObjAddr: 0x48, symBinAddr: 0x10001DFE8, symSize: 0xC4 }
  - { offset: 0x4B4BC, size: 0x8, addend: 0x0, symName: ___llvm_profile_get_size_for_buffer, symObjAddr: 0x48, symBinAddr: 0x10001DFE8, symSize: 0xC4 }
  - { offset: 0x4B4C4, size: 0x8, addend: 0x0, symName: ___llvm_profile_get_size_for_buffer_internal, symObjAddr: 0x10C, symBinAddr: 0x10001E0AC, symSize: 0x1C0 }
  - { offset: 0x4B927, size: 0x8, addend: 0x0, symName: ___llvm_profile_get_size_for_buffer_internal, symObjAddr: 0x10C, symBinAddr: 0x10001E0AC, symSize: 0x1C0 }
  - { offset: 0x4B92F, size: 0x8, addend: 0x0, symName: ___llvm_profile_get_num_data, symObjAddr: 0x2CC, symBinAddr: 0x10001E26C, symSize: 0x10 }
  - { offset: 0x4BD46, size: 0x8, addend: 0x0, symName: ___llvm_profile_get_num_data, symObjAddr: 0x2CC, symBinAddr: 0x10001E26C, symSize: 0x10 }
  - { offset: 0x4BD4E, size: 0x8, addend: 0x0, symName: ___llvm_profile_get_data_size, symObjAddr: 0x2DC, symBinAddr: 0x10001E27C, symSize: 0x10 }
  - { offset: 0x4BD84, size: 0x8, addend: 0x0, symName: ___llvm_profile_get_data_size, symObjAddr: 0x2DC, symBinAddr: 0x10001E27C, symSize: 0x10 }
  - { offset: 0x4BD8C, size: 0x8, addend: 0x0, symName: ___llvm_profile_get_num_vtable, symObjAddr: 0x2EC, symBinAddr: 0x10001E28C, symSize: 0x18 }
  - { offset: 0x4BDB3, size: 0x8, addend: 0x0, symName: ___llvm_profile_get_data_size, symObjAddr: 0x2DC, symBinAddr: 0x10001E27C, symSize: 0x10 }
  - { offset: 0x4BDE9, size: 0x8, addend: 0x0, symName: ___llvm_profile_get_num_vtable, symObjAddr: 0x2EC, symBinAddr: 0x10001E28C, symSize: 0x18 }
  - { offset: 0x4BDF1, size: 0x8, addend: 0x0, symName: ___llvm_profile_get_vtable_section_size, symObjAddr: 0x304, symBinAddr: 0x10001E2A4, symSize: 0x8 }
  - { offset: 0x4BE45, size: 0x8, addend: 0x0, symName: ___llvm_profile_get_vtable_section_size, symObjAddr: 0x304, symBinAddr: 0x10001E2A4, symSize: 0x8 }
  - { offset: 0x4BE4D, size: 0x8, addend: 0x0, symName: ___llvm_profile_counter_entry_size, symObjAddr: 0x30C, symBinAddr: 0x10001E2AC, symSize: 0x1C }
  - { offset: 0x4BE70, size: 0x8, addend: 0x0, symName: ___llvm_profile_counter_entry_size, symObjAddr: 0x30C, symBinAddr: 0x10001E2AC, symSize: 0x1C }
  - { offset: 0x4BE78, size: 0x8, addend: 0x0, symName: ___llvm_profile_get_num_counters, symObjAddr: 0x328, symBinAddr: 0x10001E2C8, symSize: 0x48 }
  - { offset: 0x4BE89, size: 0x8, addend: 0x0, symName: ___llvm_profile_get_num_counters, symObjAddr: 0x328, symBinAddr: 0x10001E2C8, symSize: 0x48 }
  - { offset: 0x4BE91, size: 0x8, addend: 0x0, symName: ___llvm_profile_get_counters_size, symObjAddr: 0x370, symBinAddr: 0x10001E310, symSize: 0x5C }
  - { offset: 0x4BEFB, size: 0x8, addend: 0x0, symName: ___llvm_profile_get_counters_size, symObjAddr: 0x370, symBinAddr: 0x10001E310, symSize: 0x5C }
  - { offset: 0x4BF03, size: 0x8, addend: 0x0, symName: ___llvm_profile_get_num_bitmap_bytes, symObjAddr: 0x3CC, symBinAddr: 0x10001E36C, symSize: 0x8 }
  - { offset: 0x4BFAF, size: 0x8, addend: 0x0, symName: ___llvm_profile_get_num_bitmap_bytes, symObjAddr: 0x3CC, symBinAddr: 0x10001E36C, symSize: 0x8 }
  - { offset: 0x4BFB7, size: 0x8, addend: 0x0, symName: ___llvm_profile_get_name_size, symObjAddr: 0x3D4, symBinAddr: 0x10001E374, symSize: 0x8 }
  - { offset: 0x4BFDB, size: 0x8, addend: 0x0, symName: ___llvm_profile_get_name_size, symObjAddr: 0x3D4, symBinAddr: 0x10001E374, symSize: 0x8 }
  - { offset: 0x4BFE3, size: 0x8, addend: 0x0, symName: ___llvm_profile_get_padding_sizes_for_counters, symObjAddr: 0x3DC, symBinAddr: 0x10001E37C, symSize: 0x15C }
  - { offset: 0x4C007, size: 0x8, addend: 0x0, symName: ___llvm_profile_get_padding_sizes_for_counters, symObjAddr: 0x3DC, symBinAddr: 0x10001E37C, symSize: 0x15C }
  - { offset: 0x4C00F, size: 0x8, addend: 0x0, symName: _initBufferWriter, symObjAddr: 0x538, symBinAddr: 0x10001E4D8, symSize: 0x10 }
  - { offset: 0x4C17D, size: 0x8, addend: 0x0, symName: _initBufferWriter, symObjAddr: 0x538, symBinAddr: 0x10001E4D8, symSize: 0x10 }
  - { offset: 0x4C185, size: 0x8, addend: 0x0, symName: ___llvm_profile_write_buffer, symObjAddr: 0x548, symBinAddr: 0x10001E4E8, symSize: 0x30 }
  - { offset: 0x4C287, size: 0x8, addend: 0x0, symName: ___llvm_profile_write_buffer, symObjAddr: 0x548, symBinAddr: 0x10001E4E8, symSize: 0x30 }
  - { offset: 0x4C28F, size: 0x8, addend: 0x0, symName: ___llvm_profile_write_buffer_internal, symObjAddr: 0x578, symBinAddr: 0x10001E518, symSize: 0x40 }
  - { offset: 0x4C2F1, size: 0x8, addend: 0x0, symName: ___llvm_profile_write_buffer_internal, symObjAddr: 0x578, symBinAddr: 0x10001E518, symSize: 0x40 }
  - { offset: 0x4C3F9, size: 0x8, addend: 0x0, symName: _lprofCreateBufferIOInternal, symObjAddr: 0x0, symBinAddr: 0x10001E558, symSize: 0x74 }
  - { offset: 0x4C425, size: 0x8, addend: 0x0, symName: ___llvm_profile_register_write_file_atexit, symObjAddr: 0xBF8, symBinAddr: 0x10001F150, symSize: 0x44 }
  - { offset: 0x4C42D, size: 0x8, addend: 0x0, symName: ___llvm_profile_set_filename, symObjAddr: 0xC3C, symBinAddr: 0x10001F194, symSize: 0x38 }
  - { offset: 0x4C44B, size: 0x8, addend: 0x0, symName: ___llvm_profile_register_write_file_atexit.HasBeenRegistered, symObjAddr: 0xA4E8, symBinAddr: 0x10010FFC8, symSize: 0x0 }
  - { offset: 0x4C46E, size: 0x8, addend: 0x0, symName: __MergedGlobals, symObjAddr: 0xA4F0, symBinAddr: 0x10010FFD0, symSize: 0x0 }
  - { offset: 0x4C58C, size: 0x8, addend: 0x0, symName: __MergedGlobals, symObjAddr: 0xA4F0, symBinAddr: 0x10010FFD0, symSize: 0x0 }
  - { offset: 0x4C7C1, size: 0x8, addend: 0x0, symName: __MergedGlobals, symObjAddr: 0xA4F0, symBinAddr: 0x10010FFD0, symSize: 0x0 }
  - { offset: 0x4C8FA, size: 0x8, addend: 0x0, symName: _lprofCreateBufferIOInternal, symObjAddr: 0x0, symBinAddr: 0x10001E558, symSize: 0x74 }
  - { offset: 0x4C902, size: 0x8, addend: 0x0, symName: ___llvm_profile_get_path_prefix, symObjAddr: 0x74, symBinAddr: 0x10001E5CC, symSize: 0x154 }
  - { offset: 0x4C98D, size: 0x8, addend: 0x0, symName: ___llvm_profile_get_path_prefix, symObjAddr: 0x74, symBinAddr: 0x10001E5CC, symSize: 0x154 }
  - { offset: 0x4C995, size: 0x8, addend: 0x0, symName: _getCurFilenameLength, symObjAddr: 0x1C8, symBinAddr: 0x10001E720, symSize: 0x108 }
  - { offset: 0x4CA05, size: 0x8, addend: 0x0, symName: _getCurFilenameLength, symObjAddr: 0x1C8, symBinAddr: 0x10001E720, symSize: 0x108 }
  - { offset: 0x4CA0D, size: 0x8, addend: 0x0, symName: _getCurFilename, symObjAddr: 0x2D0, symBinAddr: 0x10001E828, symSize: 0x2B8 }
  - { offset: 0x4CA8D, size: 0x8, addend: 0x0, symName: _getCurFilename, symObjAddr: 0x2D0, symBinAddr: 0x10001E828, symSize: 0x2B8 }
  - { offset: 0x4CA95, size: 0x8, addend: 0x0, symName: ___llvm_profile_get_filename, symObjAddr: 0x588, symBinAddr: 0x10001EAE0, symSize: 0x88 }
  - { offset: 0x4CBBF, size: 0x8, addend: 0x0, symName: ___llvm_profile_get_filename, symObjAddr: 0x588, symBinAddr: 0x10001EAE0, symSize: 0x88 }
  - { offset: 0x4CBC7, size: 0x8, addend: 0x0, symName: ___llvm_profile_initialize_file, symObjAddr: 0x610, symBinAddr: 0x10001EB68, symSize: 0x78 }
  - { offset: 0x4CC32, size: 0x8, addend: 0x0, symName: ___llvm_profile_initialize_file, symObjAddr: 0x610, symBinAddr: 0x10001EB68, symSize: 0x78 }
  - { offset: 0x4CC3A, size: 0x8, addend: 0x0, symName: _parseAndSetFilename, symObjAddr: 0x688, symBinAddr: 0x10001EBE0, symSize: 0x4B8 }
  - { offset: 0x4CD6F, size: 0x8, addend: 0x0, symName: _parseAndSetFilename, symObjAddr: 0x688, symBinAddr: 0x10001EBE0, symSize: 0x4B8 }
  - { offset: 0x4CD77, size: 0x8, addend: 0x0, symName: ___llvm_profile_initialize, symObjAddr: 0xB40, symBinAddr: 0x10001F098, symSize: 0xB8 }
  - { offset: 0x4CF6B, size: 0x8, addend: 0x0, symName: ___llvm_profile_initialize, symObjAddr: 0xB40, symBinAddr: 0x10001F098, symSize: 0xB8 }
  - { offset: 0x4CF73, size: 0x8, addend: 0x0, symName: ___llvm_profile_register_write_file_atexit, symObjAddr: 0xBF8, symBinAddr: 0x10001F150, symSize: 0x44 }
  - { offset: 0x4CFEB, size: 0x8, addend: 0x0, symName: ___llvm_profile_set_filename, symObjAddr: 0xC3C, symBinAddr: 0x10001F194, symSize: 0x38 }
  - { offset: 0x4CFF3, size: 0x8, addend: 0x0, symName: ___llvm_profile_write_file, symObjAddr: 0xC74, symBinAddr: 0x10001F1CC, symSize: 0x1B4 }
  - { offset: 0x4D01C, size: 0x8, addend: 0x0, symName: ___llvm_profile_write_file, symObjAddr: 0xC74, symBinAddr: 0x10001F1CC, symSize: 0x1B4 }
  - { offset: 0x4D024, size: 0x8, addend: 0x0, symName: _writeFile, symObjAddr: 0xE28, symBinAddr: 0x10001F380, symSize: 0x294 }
  - { offset: 0x4D179, size: 0x8, addend: 0x0, symName: _writeFile, symObjAddr: 0xE28, symBinAddr: 0x10001F380, symSize: 0x294 }
  - { offset: 0x4D181, size: 0x8, addend: 0x0, symName: ___llvm_profile_dump, symObjAddr: 0x10BC, symBinAddr: 0x10001F614, symSize: 0x6C }
  - { offset: 0x4D2F0, size: 0x8, addend: 0x0, symName: ___llvm_profile_dump, symObjAddr: 0x10BC, symBinAddr: 0x10001F614, symSize: 0x6C }
  - { offset: 0x4D2F8, size: 0x8, addend: 0x0, symName: ___llvm_orderfile_write_file, symObjAddr: 0x1128, symBinAddr: 0x10001F680, symSize: 0x260 }
  - { offset: 0x4D3B3, size: 0x8, addend: 0x0, symName: ___llvm_orderfile_write_file, symObjAddr: 0x1128, symBinAddr: 0x10001F680, symSize: 0x260 }
  - { offset: 0x4D3BB, size: 0x8, addend: 0x0, symName: ___llvm_orderfile_dump, symObjAddr: 0x1388, symBinAddr: 0x10001F8E0, symSize: 0x4 }
  - { offset: 0x4D4BE, size: 0x8, addend: 0x0, symName: ___llvm_orderfile_dump, symObjAddr: 0x1388, symBinAddr: 0x10001F8E0, symSize: 0x4 }
  - { offset: 0x4D4C6, size: 0x8, addend: 0x0, symName: _writeFileWithoutReturn, symObjAddr: 0x138C, symBinAddr: 0x10001F8E4, symSize: 0x4 }
  - { offset: 0x4D4EE, size: 0x8, addend: 0x0, symName: _writeFileWithoutReturn, symObjAddr: 0x138C, symBinAddr: 0x10001F8E4, symSize: 0x4 }
  - { offset: 0x4D4F6, size: 0x8, addend: 0x0, symName: ___llvm_profile_set_file_object, symObjAddr: 0x1390, symBinAddr: 0x10001F8E8, symSize: 0x1E4 }
  - { offset: 0x4D53E, size: 0x8, addend: 0x0, symName: ___llvm_profile_set_file_object, symObjAddr: 0x1390, symBinAddr: 0x10001F8E8, symSize: 0x1E4 }
  - { offset: 0x4D546, size: 0x8, addend: 0x0, symName: _getProfileFileSizeForMerging, symObjAddr: 0x1574, symBinAddr: 0x10001FACC, symSize: 0x110 }
  - { offset: 0x4D66A, size: 0x8, addend: 0x0, symName: _getProfileFileSizeForMerging, symObjAddr: 0x1574, symBinAddr: 0x10001FACC, symSize: 0x110 }
  - { offset: 0x4D672, size: 0x8, addend: 0x0, symName: _mmapProfileForMerging, symObjAddr: 0x1684, symBinAddr: 0x10001FBDC, symSize: 0xBC }
  - { offset: 0x4D6AF, size: 0x8, addend: 0x0, symName: _mmapProfileForMerging, symObjAddr: 0x1684, symBinAddr: 0x10001FBDC, symSize: 0xBC }
  - { offset: 0x4D6B7, size: 0x8, addend: 0x0, symName: _mmapForContinuousMode, symObjAddr: 0x1740, symBinAddr: 0x10001FC98, symSize: 0x264 }
  - { offset: 0x4D705, size: 0x8, addend: 0x0, symName: _mmapForContinuousMode, symObjAddr: 0x1740, symBinAddr: 0x10001FC98, symSize: 0x264 }
  - { offset: 0x4D70D, size: 0x8, addend: 0x0, symName: _fileWriter, symObjAddr: 0x19A4, symBinAddr: 0x10001FEFC, symSize: 0x140 }
  - { offset: 0x4D8CC, size: 0x8, addend: 0x0, symName: _fileWriter, symObjAddr: 0x19A4, symBinAddr: 0x10001FEFC, symSize: 0x140 }
  - { offset: 0x4D8D4, size: 0x8, addend: 0x0, symName: _truncateCurrentFile, symObjAddr: 0x1AE4, symBinAddr: 0x10002003C, symSize: 0xD8 }
  - { offset: 0x4D99A, size: 0x8, addend: 0x0, symName: _truncateCurrentFile, symObjAddr: 0x1AE4, symBinAddr: 0x10002003C, symSize: 0xD8 }
  - { offset: 0x4D9A2, size: 0x8, addend: 0x0, symName: _initializeProfileForContinuousMode, symObjAddr: 0x1BBC, symBinAddr: 0x100020114, symSize: 0x25C }
  - { offset: 0x4DA3E, size: 0x8, addend: 0x0, symName: _initializeProfileForContinuousMode, symObjAddr: 0x1BBC, symBinAddr: 0x100020114, symSize: 0x25C }
  - { offset: 0x4DA46, size: 0x8, addend: 0x0, symName: _createProfileDir, symObjAddr: 0x1E18, symBinAddr: 0x100020370, symSize: 0xA4 }
  - { offset: 0x4DC1C, size: 0x8, addend: 0x0, symName: _createProfileDir, symObjAddr: 0x1E18, symBinAddr: 0x100020370, symSize: 0xA4 }
  - { offset: 0x4DC24, size: 0x8, addend: 0x0, symName: _parseAndSetFilename.cold.1, symObjAddr: 0x1EBC, symBinAddr: 0x1000ABD80, symSize: 0x24 }
  - { offset: 0x4DC80, size: 0x8, addend: 0x0, symName: _parseAndSetFilename.cold.1, symObjAddr: 0x1EBC, symBinAddr: 0x1000ABD80, symSize: 0x24 }
  - { offset: 0x4DC88, size: 0x8, addend: 0x0, symName: _parseAndSetFilename.cold.2, symObjAddr: 0x1EE0, symBinAddr: 0x1000ABDA4, symSize: 0x24 }
  - { offset: 0x4DCAA, size: 0x8, addend: 0x0, symName: _parseAndSetFilename.cold.2, symObjAddr: 0x1EE0, symBinAddr: 0x1000ABDA4, symSize: 0x24 }
  - { offset: 0x4DCC4, size: 0x8, addend: 0x0, symName: _parseAndSetFilename.cold.2, symObjAddr: 0x1EE0, symBinAddr: 0x1000ABDA4, symSize: 0x24 }
  - { offset: 0x4DCD4, size: 0x8, addend: 0x0, symName: _parseAndSetFilename.cold.2, symObjAddr: 0x1EE0, symBinAddr: 0x1000ABDA4, symSize: 0x24 }
  - { offset: 0x4DE98, size: 0x8, addend: 0x0, symName: _lprofProfileDumped, symObjAddr: 0x0, symBinAddr: 0x100020414, symSize: 0xC }
  - { offset: 0x4DEB5, size: 0x8, addend: 0x0, symName: _ProfileDumped, symObjAddr: 0x4E0, symBinAddr: 0x1001100A0, symSize: 0x0 }
  - { offset: 0x4DEC5, size: 0x8, addend: 0x0, symName: _lprofProfileDumped, symObjAddr: 0x0, symBinAddr: 0x100020414, symSize: 0xC }
  - { offset: 0x4DECD, size: 0x8, addend: 0x0, symName: _lprofSetProfileDumped, symObjAddr: 0xC, symBinAddr: 0x100020420, symSize: 0xC }
  - { offset: 0x4DEE6, size: 0x8, addend: 0x0, symName: _lprofSetProfileDumped, symObjAddr: 0xC, symBinAddr: 0x100020420, symSize: 0xC }
  - { offset: 0x4DF38, size: 0x8, addend: 0x0, symName: _lprofGetLoadModuleSignature, symObjAddr: 0x0, symBinAddr: 0x10002042C, symSize: 0xD0 }
  - { offset: 0x4DF65, size: 0x8, addend: 0x0, symName: _VPMergeHook, symBinAddr: 0x10010FF48, symSize: 0x0 }
  - { offset: 0x4E1C9, size: 0x8, addend: 0x0, symName: _lprofGetLoadModuleSignature, symObjAddr: 0x0, symBinAddr: 0x10002042C, symSize: 0xD0 }
  - { offset: 0x4E1D1, size: 0x8, addend: 0x0, symName: ___llvm_profile_check_compatibility, symObjAddr: 0xD0, symBinAddr: 0x1000204FC, symSize: 0x1CC }
  - { offset: 0x4E240, size: 0x8, addend: 0x0, symName: ___llvm_profile_check_compatibility, symObjAddr: 0xD0, symBinAddr: 0x1000204FC, symSize: 0x1CC }
  - { offset: 0x4E248, size: 0x8, addend: 0x0, symName: ___llvm_profile_merge_from_buffer, symObjAddr: 0x29C, symBinAddr: 0x1000206C8, symSize: 0x48C }
  - { offset: 0x4E320, size: 0x8, addend: 0x0, symName: ___llvm_profile_merge_from_buffer, symObjAddr: 0x29C, symBinAddr: 0x1000206C8, symSize: 0x48C }
  - { offset: 0x4E588, size: 0x8, addend: 0x0, symName: _lprofMergeValueProfData, symObjAddr: 0x0, symBinAddr: 0x100020B54, symSize: 0xF0 }
  - { offset: 0x4E599, size: 0x8, addend: 0x0, symName: _lprofMergeValueProfData, symObjAddr: 0x0, symBinAddr: 0x100020B54, symSize: 0xF0 }
  - { offset: 0x4E864, size: 0x8, addend: 0x0, symName: ___llvm_profile_begin_data, symObjAddr: 0x0, symBinAddr: 0x100020C44, symSize: 0xC }
  - { offset: 0x4E883, size: 0x8, addend: 0x0, symName: _CurrentVNode, symObjAddr: 0xC0, symBinAddr: 0x100108620, symSize: 0x0 }
  - { offset: 0x4E8FF, size: 0x8, addend: 0x0, symName: _EndVNode, symObjAddr: 0xC8, symBinAddr: 0x100108628, symSize: 0x0 }
  - { offset: 0x4E908, size: 0x8, addend: 0x0, symName: ___llvm_profile_begin_data, symObjAddr: 0x0, symBinAddr: 0x100020C44, symSize: 0xC }
  - { offset: 0x4E910, size: 0x8, addend: 0x0, symName: ___llvm_profile_end_data, symObjAddr: 0xC, symBinAddr: 0x100020C50, symSize: 0xC }
  - { offset: 0x4E929, size: 0x8, addend: 0x0, symName: ___llvm_profile_end_data, symObjAddr: 0xC, symBinAddr: 0x100020C50, symSize: 0xC }
  - { offset: 0x4E931, size: 0x8, addend: 0x0, symName: ___llvm_profile_begin_names, symObjAddr: 0x18, symBinAddr: 0x100020C5C, symSize: 0xC }
  - { offset: 0x4E94A, size: 0x8, addend: 0x0, symName: ___llvm_profile_begin_names, symObjAddr: 0x18, symBinAddr: 0x100020C5C, symSize: 0xC }
  - { offset: 0x4E952, size: 0x8, addend: 0x0, symName: ___llvm_profile_end_names, symObjAddr: 0x24, symBinAddr: 0x100020C68, symSize: 0xC }
  - { offset: 0x4E96B, size: 0x8, addend: 0x0, symName: ___llvm_profile_end_names, symObjAddr: 0x24, symBinAddr: 0x100020C68, symSize: 0xC }
  - { offset: 0x4E973, size: 0x8, addend: 0x0, symName: ___llvm_profile_begin_counters, symObjAddr: 0x30, symBinAddr: 0x100020C74, symSize: 0xC }
  - { offset: 0x4E98C, size: 0x8, addend: 0x0, symName: ___llvm_profile_begin_counters, symObjAddr: 0x30, symBinAddr: 0x100020C74, symSize: 0xC }
  - { offset: 0x4E994, size: 0x8, addend: 0x0, symName: ___llvm_profile_end_counters, symObjAddr: 0x3C, symBinAddr: 0x100020C80, symSize: 0xC }
  - { offset: 0x4E9AD, size: 0x8, addend: 0x0, symName: ___llvm_profile_end_counters, symObjAddr: 0x3C, symBinAddr: 0x100020C80, symSize: 0xC }
  - { offset: 0x4E9B5, size: 0x8, addend: 0x0, symName: ___llvm_profile_begin_bitmap, symObjAddr: 0x48, symBinAddr: 0x100020C8C, symSize: 0xC }
  - { offset: 0x4E9CE, size: 0x8, addend: 0x0, symName: ___llvm_profile_begin_bitmap, symObjAddr: 0x48, symBinAddr: 0x100020C8C, symSize: 0xC }
  - { offset: 0x4E9D6, size: 0x8, addend: 0x0, symName: ___llvm_profile_end_bitmap, symObjAddr: 0x54, symBinAddr: 0x100020C98, symSize: 0xC }
  - { offset: 0x4E9EF, size: 0x8, addend: 0x0, symName: ___llvm_profile_end_bitmap, symObjAddr: 0x54, symBinAddr: 0x100020C98, symSize: 0xC }
  - { offset: 0x4E9F7, size: 0x8, addend: 0x0, symName: ___llvm_profile_begin_vtables, symObjAddr: 0x60, symBinAddr: 0x100020CA4, symSize: 0xC }
  - { offset: 0x4EA11, size: 0x8, addend: 0x0, symName: ___llvm_profile_begin_vtables, symObjAddr: 0x60, symBinAddr: 0x100020CA4, symSize: 0xC }
  - { offset: 0x4EA19, size: 0x8, addend: 0x0, symName: ___llvm_profile_end_vtables, symObjAddr: 0x6C, symBinAddr: 0x100020CB0, symSize: 0xC }
  - { offset: 0x4EA32, size: 0x8, addend: 0x0, symName: ___llvm_profile_end_vtables, symObjAddr: 0x6C, symBinAddr: 0x100020CB0, symSize: 0xC }
  - { offset: 0x4EA3A, size: 0x8, addend: 0x0, symName: ___llvm_profile_begin_vtabnames, symObjAddr: 0x78, symBinAddr: 0x100020CBC, symSize: 0xC }
  - { offset: 0x4EA52, size: 0x8, addend: 0x0, symName: ___llvm_profile_begin_vtabnames, symObjAddr: 0x78, symBinAddr: 0x100020CBC, symSize: 0xC }
  - { offset: 0x4EA5A, size: 0x8, addend: 0x0, symName: ___llvm_profile_end_vtabnames, symObjAddr: 0x84, symBinAddr: 0x100020CC8, symSize: 0xC }
  - { offset: 0x4EA73, size: 0x8, addend: 0x0, symName: ___llvm_profile_end_vtabnames, symObjAddr: 0x84, symBinAddr: 0x100020CC8, symSize: 0xC }
  - { offset: 0x4EA7B, size: 0x8, addend: 0x0, symName: ___llvm_profile_begin_orderfile, symObjAddr: 0x90, symBinAddr: 0x100020CD4, symSize: 0xC }
  - { offset: 0x4EA95, size: 0x8, addend: 0x0, symName: ___llvm_profile_begin_orderfile, symObjAddr: 0x90, symBinAddr: 0x100020CD4, symSize: 0xC }
  - { offset: 0x4EA9D, size: 0x8, addend: 0x0, symName: ___llvm_profile_begin_vnodes, symObjAddr: 0x9C, symBinAddr: 0x100020CE0, symSize: 0xC }
  - { offset: 0x4EAB6, size: 0x8, addend: 0x0, symName: ___llvm_profile_begin_vnodes, symObjAddr: 0x9C, symBinAddr: 0x100020CE0, symSize: 0xC }
  - { offset: 0x4EABE, size: 0x8, addend: 0x0, symName: ___llvm_profile_end_vnodes, symObjAddr: 0xA8, symBinAddr: 0x100020CEC, symSize: 0xC }
  - { offset: 0x4EAD7, size: 0x8, addend: 0x0, symName: ___llvm_profile_end_vnodes, symObjAddr: 0xA8, symBinAddr: 0x100020CEC, symSize: 0xC }
  - { offset: 0x4EADF, size: 0x8, addend: 0x0, symName: ___llvm_write_binary_ids, symObjAddr: 0xB4, symBinAddr: 0x100020CF8, symSize: 0x8 }
  - { offset: 0x4EAF7, size: 0x8, addend: 0x0, symName: ___llvm_write_binary_ids, symObjAddr: 0xB4, symBinAddr: 0x100020CF8, symSize: 0x8 }
  - { offset: 0x4ED98, size: 0x8, addend: 0x0, symName: ___llvm_profile_runtime, symObjAddr: 0x590, symBinAddr: 0x10010FF50, symSize: 0x0 }
  - { offset: 0x4EDCF, size: 0x8, addend: 0x0, symName: ___llvm_profile_recursive_mkdir, symObjAddr: 0x0, symBinAddr: 0x100020D18, symSize: 0x58 }
  - { offset: 0x4EDD7, size: 0x8, addend: 0x0, symName: _lprofDirMode, symObjAddr: 0x5A8, symBinAddr: 0x100108630, symSize: 0x0 }
  - { offset: 0x4EDEE, size: 0x8, addend: 0x0, symName: _lprofDirMode, symObjAddr: 0x5A8, symBinAddr: 0x100108630, symSize: 0x0 }
  - { offset: 0x4EE2E, size: 0x8, addend: 0x0, symName: ___llvm_profile_recursive_mkdir, symObjAddr: 0x0, symBinAddr: 0x100020D18, symSize: 0x58 }
  - { offset: 0x4EE36, size: 0x8, addend: 0x0, symName: ___llvm_profile_get_dir_mode, symObjAddr: 0x58, symBinAddr: 0x100020D70, symSize: 0xC }
  - { offset: 0x4EEAC, size: 0x8, addend: 0x0, symName: ___llvm_profile_get_dir_mode, symObjAddr: 0x58, symBinAddr: 0x100020D70, symSize: 0xC }
  - { offset: 0x4EEB4, size: 0x8, addend: 0x0, symName: ___llvm_profile_set_dir_mode, symObjAddr: 0x64, symBinAddr: 0x100020D7C, symSize: 0xC }
  - { offset: 0x4EEC4, size: 0x8, addend: 0x0, symName: ___llvm_profile_set_dir_mode, symObjAddr: 0x64, symBinAddr: 0x100020D7C, symSize: 0xC }
  - { offset: 0x4EECC, size: 0x8, addend: 0x0, symName: _lprofGetHostName, symObjAddr: 0x70, symBinAddr: 0x100020D88, symSize: 0x80 }
  - { offset: 0x4EEEF, size: 0x8, addend: 0x0, symName: _lprofGetHostName, symObjAddr: 0x70, symBinAddr: 0x100020D88, symSize: 0x80 }
  - { offset: 0x4EEF7, size: 0x8, addend: 0x0, symName: _lprofLockFd, symObjAddr: 0xF0, symBinAddr: 0x100020E08, symSize: 0x8C }
  - { offset: 0x4EF4E, size: 0x8, addend: 0x0, symName: _lprofLockFd, symObjAddr: 0xF0, symBinAddr: 0x100020E08, symSize: 0x8C }
  - { offset: 0x4EF56, size: 0x8, addend: 0x0, symName: _lprofUnlockFd, symObjAddr: 0x17C, symBinAddr: 0x100020E94, symSize: 0x8C }
  - { offset: 0x4EF7B, size: 0x8, addend: 0x0, symName: _lprofUnlockFd, symObjAddr: 0x17C, symBinAddr: 0x100020E94, symSize: 0x8C }
  - { offset: 0x4EF83, size: 0x8, addend: 0x0, symName: _lprofLockFileHandle, symObjAddr: 0x208, symBinAddr: 0x100020F20, symSize: 0x90 }
  - { offset: 0x4F07F, size: 0x8, addend: 0x0, symName: _lprofLockFileHandle, symObjAddr: 0x208, symBinAddr: 0x100020F20, symSize: 0x90 }
  - { offset: 0x4F087, size: 0x8, addend: 0x0, symName: _lprofUnlockFileHandle, symObjAddr: 0x298, symBinAddr: 0x100020FB0, symSize: 0x90 }
  - { offset: 0x4F110, size: 0x8, addend: 0x0, symName: _lprofUnlockFileHandle, symObjAddr: 0x298, symBinAddr: 0x100020FB0, symSize: 0x90 }
  - { offset: 0x4F118, size: 0x8, addend: 0x0, symName: _lprofOpenFileEx, symObjAddr: 0x328, symBinAddr: 0x100021040, symSize: 0xD0 }
  - { offset: 0x4F17B, size: 0x8, addend: 0x0, symName: _lprofOpenFileEx, symObjAddr: 0x328, symBinAddr: 0x100021040, symSize: 0xD0 }
  - { offset: 0x4F183, size: 0x8, addend: 0x0, symName: _lprofGetPathPrefix, symObjAddr: 0x3F8, symBinAddr: 0x100021110, symSize: 0x98 }
  - { offset: 0x4F1F5, size: 0x8, addend: 0x0, symName: _lprofGetPathPrefix, symObjAddr: 0x3F8, symBinAddr: 0x100021110, symSize: 0x98 }
  - { offset: 0x4F1FD, size: 0x8, addend: 0x0, symName: _lprofApplyPathPrefix, symObjAddr: 0x490, symBinAddr: 0x1000211A8, symSize: 0xA8 }
  - { offset: 0x4F25A, size: 0x8, addend: 0x0, symName: _lprofApplyPathPrefix, symObjAddr: 0x490, symBinAddr: 0x1000211A8, symSize: 0xA8 }
  - { offset: 0x4F262, size: 0x8, addend: 0x0, symName: _lprofFindFirstDirSeparator, symObjAddr: 0x538, symBinAddr: 0x100021250, symSize: 0x8 }
  - { offset: 0x4F2FD, size: 0x8, addend: 0x0, symName: _lprofFindFirstDirSeparator, symObjAddr: 0x538, symBinAddr: 0x100021250, symSize: 0x8 }
  - { offset: 0x4F305, size: 0x8, addend: 0x0, symName: _lprofFindLastDirSeparator, symObjAddr: 0x540, symBinAddr: 0x100021258, symSize: 0x8 }
  - { offset: 0x4F33C, size: 0x8, addend: 0x0, symName: _lprofFindLastDirSeparator, symObjAddr: 0x540, symBinAddr: 0x100021258, symSize: 0x8 }
  - { offset: 0x4F344, size: 0x8, addend: 0x0, symName: _lprofSuspendSigKill, symObjAddr: 0x548, symBinAddr: 0x100021260, symSize: 0x8 }
  - { offset: 0x4F37B, size: 0x8, addend: 0x0, symName: _lprofSuspendSigKill, symObjAddr: 0x548, symBinAddr: 0x100021260, symSize: 0x8 }
  - { offset: 0x4F383, size: 0x8, addend: 0x0, symName: _lprofRestoreSigKill, symObjAddr: 0x550, symBinAddr: 0x100021268, symSize: 0x4 }
  - { offset: 0x4F39D, size: 0x8, addend: 0x0, symName: _lprofRestoreSigKill, symObjAddr: 0x550, symBinAddr: 0x100021268, symSize: 0x4 }
  - { offset: 0x4F3A5, size: 0x8, addend: 0x0, symName: _lprofReleaseMemoryPagesToOS, symObjAddr: 0x554, symBinAddr: 0x10002126C, symSize: 0x54 }
  - { offset: 0x4F41B, size: 0x8, addend: 0x0, symName: _lprofReleaseMemoryPagesToOS, symObjAddr: 0x554, symBinAddr: 0x10002126C, symSize: 0x54 }
  - { offset: 0x4F423, size: 0x8, addend: 0x0, symName: _lprofDirMode, symObjAddr: 0x5A8, symBinAddr: 0x100108630, symSize: 0x0 }
  - { offset: 0x4F77F, size: 0x8, addend: 0x0, symName: _getValueProfRecordHeaderSize, symObjAddr: 0x0, symBinAddr: 0x1000212C0, symSize: 0xC }
  - { offset: 0x4F79E, size: 0x8, addend: 0x0, symName: _VPMaxNumValsPerSite, symObjAddr: 0x1740, symBinAddr: 0x100108638, symSize: 0x0 }
  - { offset: 0x4F7D5, size: 0x8, addend: 0x0, symName: _lprofValueProfNodes, symObjAddr: 0x18C0, symBinAddr: 0x100109D80, symSize: 0x0 }
  - { offset: 0x4F858, size: 0x8, addend: 0x0, symName: __MergedGlobals, symObjAddr: 0xEF68, symBinAddr: 0x1001100D0, symSize: 0x0 }
  - { offset: 0x4F87F, size: 0x8, addend: 0x0, symName: __MergedGlobals, symObjAddr: 0xEF68, symBinAddr: 0x1001100D0, symSize: 0x0 }
  - { offset: 0x4F896, size: 0x8, addend: 0x0, symName: __MergedGlobals, symObjAddr: 0xEF68, symBinAddr: 0x1001100D0, symSize: 0x0 }
  - { offset: 0x4F8B6, size: 0x8, addend: 0x0, symName: _TheVPDataReader, symObjAddr: 0x1748, symBinAddr: 0x100108640, symSize: 0x0 }
  - { offset: 0x4FB5C, size: 0x8, addend: 0x0, symName: _RTRecord, symObjAddr: 0xEF40, symBinAddr: 0x1001100A8, symSize: 0x0 }
  - { offset: 0x4FD57, size: 0x8, addend: 0x0, symName: _getValueProfRecordHeaderSize, symObjAddr: 0x0, symBinAddr: 0x1000212C0, symSize: 0xC }
  - { offset: 0x4FD5F, size: 0x8, addend: 0x0, symName: _getValueProfRecordSize, symObjAddr: 0xC, symBinAddr: 0x1000212CC, symSize: 0x10 }
  - { offset: 0x4FDAF, size: 0x8, addend: 0x0, symName: _getValueProfRecordSize, symObjAddr: 0xC, symBinAddr: 0x1000212CC, symSize: 0x10 }
  - { offset: 0x4FDB7, size: 0x8, addend: 0x0, symName: _getValueProfRecordValueData, symObjAddr: 0x1C, symBinAddr: 0x1000212DC, symSize: 0x14 }
  - { offset: 0x4FDDE, size: 0x8, addend: 0x0, symName: _getValueProfRecordSize, symObjAddr: 0xC, symBinAddr: 0x1000212CC, symSize: 0x10 }
  - { offset: 0x4FE08, size: 0x8, addend: 0x0, symName: _getValueProfRecordValueData, symObjAddr: 0x1C, symBinAddr: 0x1000212DC, symSize: 0x14 }
  - { offset: 0x4FE10, size: 0x8, addend: 0x0, symName: _getValueProfRecordNumValueData, symObjAddr: 0x30, symBinAddr: 0x1000212F0, symSize: 0x184 }
  - { offset: 0x4FE57, size: 0x8, addend: 0x0, symName: _getValueProfRecordNumValueData, symObjAddr: 0x30, symBinAddr: 0x1000212F0, symSize: 0x184 }
  - { offset: 0x4FE5F, size: 0x8, addend: 0x0, symName: _getValueProfRecordNext, symObjAddr: 0x1B4, symBinAddr: 0x100021474, symSize: 0x1A4 }
  - { offset: 0x4FEEF, size: 0x8, addend: 0x0, symName: _getValueProfRecordNext, symObjAddr: 0x1B4, symBinAddr: 0x100021474, symSize: 0x1A4 }
  - { offset: 0x4FEF7, size: 0x8, addend: 0x0, symName: _getFirstValueProfRecord, symObjAddr: 0x358, symBinAddr: 0x100021618, symSize: 0x8 }
  - { offset: 0x4FF63, size: 0x8, addend: 0x0, symName: _getFirstValueProfRecord, symObjAddr: 0x358, symBinAddr: 0x100021618, symSize: 0x8 }
  - { offset: 0x4FF6B, size: 0x8, addend: 0x0, symName: _getValueProfDataSize, symObjAddr: 0x360, symBinAddr: 0x100021620, symSize: 0xEC }
  - { offset: 0x4FF87, size: 0x8, addend: 0x0, symName: _getValueProfDataSize, symObjAddr: 0x360, symBinAddr: 0x100021620, symSize: 0xEC }
  - { offset: 0x4FF8F, size: 0x8, addend: 0x0, symName: _serializeValueProfRecordFrom, symObjAddr: 0x44C, symBinAddr: 0x10002170C, symSize: 0x9C }
  - { offset: 0x5003E, size: 0x8, addend: 0x0, symName: _serializeValueProfRecordFrom, symObjAddr: 0x44C, symBinAddr: 0x10002170C, symSize: 0x9C }
  - { offset: 0x50046, size: 0x8, addend: 0x0, symName: _serializeValueProfDataFrom, symObjAddr: 0x4E8, symBinAddr: 0x1000217A8, symSize: 0x5CC }
  - { offset: 0x50213, size: 0x8, addend: 0x0, symName: _serializeValueProfDataFrom, symObjAddr: 0x4E8, symBinAddr: 0x1000217A8, symSize: 0x5CC }
  - { offset: 0x5021B, size: 0x8, addend: 0x0, symName: _InstProfClzll, symObjAddr: 0xAB4, symBinAddr: 0x100021D74, symSize: 0x8 }
  - { offset: 0x5045D, size: 0x8, addend: 0x0, symName: _InstProfClzll, symObjAddr: 0xAB4, symBinAddr: 0x100021D74, symSize: 0x8 }
  - { offset: 0x50465, size: 0x8, addend: 0x0, symName: _InstProfPopcountll, symObjAddr: 0xABC, symBinAddr: 0x100021D7C, symSize: 0x14 }
  - { offset: 0x50481, size: 0x8, addend: 0x0, symName: _InstProfPopcountll, symObjAddr: 0xABC, symBinAddr: 0x100021D7C, symSize: 0x14 }
  - { offset: 0x50489, size: 0x8, addend: 0x0, symName: _InstrProfGetRangeRepValue, symObjAddr: 0xAD0, symBinAddr: 0x100021D90, symSize: 0x48 }
  - { offset: 0x504E1, size: 0x8, addend: 0x0, symName: _InstrProfGetRangeRepValue, symObjAddr: 0xAD0, symBinAddr: 0x100021D90, symSize: 0x48 }
  - { offset: 0x504E9, size: 0x8, addend: 0x0, symName: _InstrProfIsSingleValRange, symObjAddr: 0xB18, symBinAddr: 0x100021DD8, symSize: 0x20 }
  - { offset: 0x5054B, size: 0x8, addend: 0x0, symName: _InstrProfIsSingleValRange, symObjAddr: 0xB18, symBinAddr: 0x100021DD8, symSize: 0x20 }
  - { offset: 0x50553, size: 0x8, addend: 0x0, symName: _lprofSetupValueProfiler, symObjAddr: 0xB38, symBinAddr: 0x100021DF8, symSize: 0x64 }
  - { offset: 0x50580, size: 0x8, addend: 0x0, symName: _lprofSetupValueProfiler, symObjAddr: 0xB38, symBinAddr: 0x100021DF8, symSize: 0x64 }
  - { offset: 0x50588, size: 0x8, addend: 0x0, symName: _lprofSetMaxValsPerSite, symObjAddr: 0xB9C, symBinAddr: 0x100021E5C, symSize: 0x18 }
  - { offset: 0x505AC, size: 0x8, addend: 0x0, symName: _lprofSetMaxValsPerSite, symObjAddr: 0xB9C, symBinAddr: 0x100021E5C, symSize: 0x18 }
  - { offset: 0x505B4, size: 0x8, addend: 0x0, symName: ___llvm_profile_set_num_value_sites, symObjAddr: 0xBB4, symBinAddr: 0x100021E74, symSize: 0xC }
  - { offset: 0x505D7, size: 0x8, addend: 0x0, symName: ___llvm_profile_set_num_value_sites, symObjAddr: 0xBB4, symBinAddr: 0x100021E74, symSize: 0xC }
  - { offset: 0x505DF, size: 0x8, addend: 0x0, symName: ___llvm_profile_iterate_data, symObjAddr: 0xBC0, symBinAddr: 0x100021E80, symSize: 0x8 }
  - { offset: 0x5061C, size: 0x8, addend: 0x0, symName: ___llvm_profile_iterate_data, symObjAddr: 0xBC0, symBinAddr: 0x100021E80, symSize: 0x8 }
  - { offset: 0x50624, size: 0x8, addend: 0x0, symName: ___llvm_get_function_addr, symObjAddr: 0xBC8, symBinAddr: 0x100021E88, symSize: 0x8 }
  - { offset: 0x5064D, size: 0x8, addend: 0x0, symName: ___llvm_get_function_addr, symObjAddr: 0xBC8, symBinAddr: 0x100021E88, symSize: 0x8 }
  - { offset: 0x50655, size: 0x8, addend: 0x0, symName: ___llvm_profile_instrument_target, symObjAddr: 0xBD0, symBinAddr: 0x100021E90, symSize: 0x260 }
  - { offset: 0x50763, size: 0x8, addend: 0x0, symName: ___llvm_profile_instrument_target, symObjAddr: 0xBD0, symBinAddr: 0x100021E90, symSize: 0x260 }
  - { offset: 0x5076B, size: 0x8, addend: 0x0, symName: ___llvm_profile_instrument_target_value, symObjAddr: 0xE30, symBinAddr: 0x1000220F0, symSize: 0x290 }
  - { offset: 0x50882, size: 0x8, addend: 0x0, symName: ___llvm_profile_instrument_target_value, symObjAddr: 0xE30, symBinAddr: 0x1000220F0, symSize: 0x290 }
  - { offset: 0x5088A, size: 0x8, addend: 0x0, symName: ___llvm_profile_instrument_memop, symObjAddr: 0x10C0, symBinAddr: 0x100022380, symSize: 0x48 }
  - { offset: 0x509CF, size: 0x8, addend: 0x0, symName: ___llvm_profile_instrument_memop, symObjAddr: 0x10C0, symBinAddr: 0x100022380, symSize: 0x48 }
  - { offset: 0x509D7, size: 0x8, addend: 0x0, symName: _lprofGetVPDataReader, symObjAddr: 0x1108, symBinAddr: 0x1000223C8, symSize: 0xC }
  - { offset: 0x50A8E, size: 0x8, addend: 0x0, symName: _lprofGetVPDataReader, symObjAddr: 0x1108, symBinAddr: 0x1000223C8, symSize: 0xC }
  - { offset: 0x50A96, size: 0x8, addend: 0x0, symName: _initializeValueProfRuntimeRecord, symObjAddr: 0x1114, symBinAddr: 0x1000223D4, symSize: 0x210 }
  - { offset: 0x50AB0, size: 0x8, addend: 0x0, symName: _initializeValueProfRuntimeRecord, symObjAddr: 0x1114, symBinAddr: 0x1000223D4, symSize: 0x210 }
  - { offset: 0x50AB8, size: 0x8, addend: 0x0, symName: _getNumValueDataForSiteWrapper, symObjAddr: 0x1324, symBinAddr: 0x1000225E4, symSize: 0x14 }
  - { offset: 0x50BD0, size: 0x8, addend: 0x0, symName: _getNumValueDataForSiteWrapper, symObjAddr: 0x1324, symBinAddr: 0x1000225E4, symSize: 0x14 }
  - { offset: 0x50BD8, size: 0x8, addend: 0x0, symName: _getValueProfDataSizeWrapper, symObjAddr: 0x1338, symBinAddr: 0x1000225F8, symSize: 0xDC }
  - { offset: 0x50C16, size: 0x8, addend: 0x0, symName: _getNumValueDataForSiteWrapper, symObjAddr: 0x1324, symBinAddr: 0x1000225E4, symSize: 0x14 }
  - { offset: 0x50C3E, size: 0x8, addend: 0x0, symName: _getValueProfDataSizeWrapper, symObjAddr: 0x1338, symBinAddr: 0x1000225F8, symSize: 0xDC }
  - { offset: 0x50C46, size: 0x8, addend: 0x0, symName: _getNextNValueData, symObjAddr: 0x1414, symBinAddr: 0x1000226D4, symSize: 0x44 }
  - { offset: 0x50CE5, size: 0x8, addend: 0x0, symName: _getNextNValueData, symObjAddr: 0x1414, symBinAddr: 0x1000226D4, symSize: 0x44 }
  - { offset: 0x50CED, size: 0x8, addend: 0x0, symName: _getNumValueSitesRT, symObjAddr: 0x1458, symBinAddr: 0x100022718, symSize: 0x10 }
  - { offset: 0x50D7B, size: 0x8, addend: 0x0, symName: _getNumValueSitesRT, symObjAddr: 0x1458, symBinAddr: 0x100022718, symSize: 0x10 }
  - { offset: 0x50D83, size: 0x8, addend: 0x0, symName: _getNumValueDataRT, symObjAddr: 0x1468, symBinAddr: 0x100022728, symSize: 0x190 }
  - { offset: 0x50DBE, size: 0x8, addend: 0x0, symName: _getNumValueDataRT, symObjAddr: 0x1468, symBinAddr: 0x100022728, symSize: 0x190 }
  - { offset: 0x50DC6, size: 0x8, addend: 0x0, symName: ___llvm_profile_instrument_target.cold.1, symObjAddr: 0x15F8, symBinAddr: 0x1000ABDC8, symSize: 0x24 }
  - { offset: 0x50E34, size: 0x8, addend: 0x0, symName: ___llvm_profile_instrument_target.cold.1, symObjAddr: 0x15F8, symBinAddr: 0x1000ABDC8, symSize: 0x24 }
  - { offset: 0x50E3C, size: 0x8, addend: 0x0, symName: ___llvm_profile_instrument_target_value.cold.1, symObjAddr: 0x161C, symBinAddr: 0x1000ABDEC, symSize: 0x24 }
  - { offset: 0x50E5E, size: 0x8, addend: 0x0, symName: ___llvm_profile_instrument_target_value.cold.1, symObjAddr: 0x161C, symBinAddr: 0x1000ABDEC, symSize: 0x24 }
  - { offset: 0x50E76, size: 0x8, addend: 0x0, symName: ___llvm_profile_instrument_target_value.cold.1, symObjAddr: 0x161C, symBinAddr: 0x1000ABDEC, symSize: 0x24 }
  - { offset: 0x50E85, size: 0x8, addend: 0x0, symName: ___llvm_profile_instrument_target_value.cold.1, symObjAddr: 0x161C, symBinAddr: 0x1000ABDEC, symSize: 0x24 }
  - { offset: 0x50F16, size: 0x8, addend: 0x0, symName: ___llvm_profile_raw_version, symObjAddr: 0x0, symBinAddr: 0x100108670, symSize: 0x0 }
  - { offset: 0x50F58, size: 0x8, addend: 0x0, symName: _lprofBufferWriter, symObjAddr: 0x0, symBinAddr: 0x1000228B8, symSize: 0x6C }
  - { offset: 0x50F77, size: 0x8, addend: 0x0, symName: _FreeHook, symObjAddr: 0x4F30, symBinAddr: 0x10010FF58, symSize: 0x0 }
  - { offset: 0x50F9D, size: 0x8, addend: 0x0, symName: _DynamicBufferIOBuffer, symObjAddr: 0x4F38, symBinAddr: 0x10010FF60, symSize: 0x0 }
  - { offset: 0x50FCB, size: 0x8, addend: 0x0, symName: _VPBufferSize, symObjAddr: 0x4F40, symBinAddr: 0x10010FF68, symSize: 0x0 }
  - { offset: 0x50FF2, size: 0x8, addend: 0x0, symName: __MergedGlobals, symObjAddr: 0x6F48, symBinAddr: 0x1001120E0, symSize: 0x0 }
  - { offset: 0x5113E, size: 0x8, addend: 0x0, symName: _BufferIOBuffer, symObjAddr: 0x4F48, symBinAddr: 0x1001100E0, symSize: 0x0 }
  - { offset: 0x51168, size: 0x8, addend: 0x0, symName: __MergedGlobals, symObjAddr: 0x6F48, symBinAddr: 0x1001120E0, symSize: 0x0 }
  - { offset: 0x511E5, size: 0x8, addend: 0x0, symName: _lprofBufferWriter, symObjAddr: 0x0, symBinAddr: 0x1000228B8, symSize: 0x6C }
  - { offset: 0x511ED, size: 0x8, addend: 0x0, symName: _lprofCreateBufferIO, symObjAddr: 0x6C, symBinAddr: 0x100022924, symSize: 0x48 }
  - { offset: 0x5127B, size: 0x8, addend: 0x0, symName: _lprofCreateBufferIO, symObjAddr: 0x6C, symBinAddr: 0x100022924, symSize: 0x48 }
  - { offset: 0x51283, size: 0x8, addend: 0x0, symName: _lprofDeleteBufferIO, symObjAddr: 0xB4, symBinAddr: 0x10002296C, symSize: 0x4C }
  - { offset: 0x512DD, size: 0x8, addend: 0x0, symName: _lprofDeleteBufferIO, symObjAddr: 0xB4, symBinAddr: 0x10002296C, symSize: 0x4C }
  - { offset: 0x512E5, size: 0x8, addend: 0x0, symName: _lprofBufferIOWrite, symObjAddr: 0x100, symBinAddr: 0x1000229B8, symSize: 0x134 }
  - { offset: 0x51388, size: 0x8, addend: 0x0, symName: _lprofBufferIOWrite, symObjAddr: 0x100, symBinAddr: 0x1000229B8, symSize: 0x134 }
  - { offset: 0x51390, size: 0x8, addend: 0x0, symName: _lprofBufferIOFlush, symObjAddr: 0x234, symBinAddr: 0x100022AEC, symSize: 0xC0 }
  - { offset: 0x51490, size: 0x8, addend: 0x0, symName: _lprofBufferIOFlush, symObjAddr: 0x234, symBinAddr: 0x100022AEC, symSize: 0xC0 }
  - { offset: 0x51498, size: 0x8, addend: 0x0, symName: _lprofWriteData, symObjAddr: 0x2F4, symBinAddr: 0x100022BAC, symSize: 0xD4 }
  - { offset: 0x514C3, size: 0x8, addend: 0x0, symName: _lprofWriteData, symObjAddr: 0x2F4, symBinAddr: 0x100022BAC, symSize: 0xD4 }
  - { offset: 0x514CB, size: 0x8, addend: 0x0, symName: _lprofWriteDataImpl, symObjAddr: 0x3C8, symBinAddr: 0x100022C80, symSize: 0x46C }
  - { offset: 0x518F7, size: 0x8, addend: 0x0, symName: _lprofWriteDataImpl, symObjAddr: 0x3C8, symBinAddr: 0x100022C80, symSize: 0x46C }
  - { offset: 0x518FF, size: 0x8, addend: 0x0, symName: _lprofWriteOneBinaryId, symObjAddr: 0x834, symBinAddr: 0x1000230EC, symSize: 0x8C }
  - { offset: 0x51C2B, size: 0x8, addend: 0x0, symName: _lprofWriteOneBinaryId, symObjAddr: 0x834, symBinAddr: 0x1000230EC, symSize: 0x8C }
  - { offset: 0x51C33, size: 0x8, addend: 0x0, symName: _writeOneValueProfData, symObjAddr: 0x8C0, symBinAddr: 0x100023178, symSize: 0x4A8 }
  - { offset: 0x51CA3, size: 0x8, addend: 0x0, symName: _writeOneValueProfData, symObjAddr: 0x8C0, symBinAddr: 0x100023178, symSize: 0x4A8 }
  - { offset: 0x51F76, size: 0x8, addend: 0x0, symName: '__ZN108_$LT$alloc..collections..btree..map..Iter$LT$K$C$V$GT$$u20$as$u20$core..iter..traits..iterator..Iterator$GT$4next17h72af6d586fb705daE', symObjAddr: 0x0, symBinAddr: 0x100023620, symSize: 0x13C }
  - { offset: 0x5243F, size: 0x8, addend: 0x0, symName: '__ZN5alloc11collections5btree4node208Handle$LT$alloc..collections..btree..node..NodeRef$LT$alloc..collections..btree..node..marker..Mut$C$K$C$V$C$alloc..collections..btree..node..marker..Leaf$GT$$C$alloc..collections..btree..node..marker..KV$GT$5split17h83cb0d4b5dcc386eE', symObjAddr: 0xE474, symBinAddr: 0x1000318CC, symSize: 0x1D8 }
  - { offset: 0x5291C, size: 0x8, addend: 0x0, symName: '__ZN5alloc11collections5btree4node208Handle$LT$alloc..collections..btree..node..NodeRef$LT$alloc..collections..btree..node..marker..Mut$C$K$C$V$C$alloc..collections..btree..node..marker..Leaf$GT$$C$alloc..collections..btree..node..marker..KV$GT$5split17hc6f87347b433a116E', symObjAddr: 0xE64C, symBinAddr: 0x100031AA4, symSize: 0x1CC }
  - { offset: 0x52DD0, size: 0x8, addend: 0x0, symName: '__ZN5alloc11collections5btree4node212Handle$LT$alloc..collections..btree..node..NodeRef$LT$alloc..collections..btree..node..marker..Mut$C$K$C$V$C$alloc..collections..btree..node..marker..Internal$GT$$C$alloc..collections..btree..node..marker..KV$GT$5split17h2e83c4e5af9f09d0E', symObjAddr: 0xE818, symBinAddr: 0x100031C70, symSize: 0x2A8 }
  - { offset: 0x534D0, size: 0x8, addend: 0x0, symName: '__ZN5alloc11collections5btree4node212Handle$LT$alloc..collections..btree..node..NodeRef$LT$alloc..collections..btree..node..marker..Mut$C$K$C$V$C$alloc..collections..btree..node..marker..Internal$GT$$C$alloc..collections..btree..node..marker..KV$GT$5split17h99bf6663766894d1E', symObjAddr: 0xEAC0, symBinAddr: 0x100031F18, symSize: 0x29C }
  - { offset: 0x53BDF, size: 0x8, addend: 0x0, symName: '__ZN5alloc11collections5btree6remove259_$LT$impl$u20$alloc..collections..btree..node..Handle$LT$alloc..collections..btree..node..NodeRef$LT$alloc..collections..btree..node..marker..Mut$C$K$C$V$C$alloc..collections..btree..node..marker..Leaf$GT$$C$alloc..collections..btree..node..marker..KV$GT$$GT$14remove_leaf_kv17h5572f2f2101eea06E', symObjAddr: 0xF4E4, symBinAddr: 0x10003293C, symSize: 0x5B8 }
  - { offset: 0x54897, size: 0x8, addend: 0x0, symName: '__ZN5alloc11collections5btree6remove259_$LT$impl$u20$alloc..collections..btree..node..Handle$LT$alloc..collections..btree..node..NodeRef$LT$alloc..collections..btree..node..marker..Mut$C$K$C$V$C$alloc..collections..btree..node..marker..Leaf$GT$$C$alloc..collections..btree..node..marker..KV$GT$$GT$14remove_leaf_kv17h621c038cfd960be5E', symObjAddr: 0xFA9C, symBinAddr: 0x100032EF4, symSize: 0x5B8 }
  - { offset: 0x563B1, size: 0x8, addend: 0x0, symName: '__ZN5alloc11collections5btree4node29BalancingContext$LT$K$C$V$GT$15bulk_steal_left17h5ad73c5a1cd4fc61E', symObjAddr: 0xED5C, symBinAddr: 0x1000321B4, symSize: 0x288 }
  - { offset: 0x569EA, size: 0x8, addend: 0x0, symName: '__ZN5alloc11collections5btree4node29BalancingContext$LT$K$C$V$GT$16bulk_steal_right17hd17767b56be9ca08E', symObjAddr: 0xEFE4, symBinAddr: 0x10003243C, symSize: 0x2A8 }
  - { offset: 0x57108, size: 0x8, addend: 0x0, symName: '__ZN5alloc11collections5btree4node29BalancingContext$LT$K$C$V$GT$8do_merge17h9664da17306ee4f1E', symObjAddr: 0xF28C, symBinAddr: 0x1000326E4, symSize: 0x258 }
  - { offset: 0x578E4, size: 0x8, addend: 0x0, symName: '__ZN108_$LT$alloc..collections..btree..map..Iter$LT$K$C$V$GT$$u20$as$u20$core..iter..traits..iterator..Iterator$GT$4next17h72af6d586fb705daE', symObjAddr: 0x0, symBinAddr: 0x100023620, symSize: 0x13C }
  - { offset: 0x57C9E, size: 0x8, addend: 0x0, symName: '__ZN5alloc11collections5btree3map25BTreeMap$LT$K$C$V$C$A$GT$6insert17h5a0071cde28f6078E', symObjAddr: 0xCA54, symBinAddr: 0x10002FEAC, symSize: 0x9BC }
  - { offset: 0x5948C, size: 0x8, addend: 0x0, symName: '__ZN5alloc11collections5btree3map25BTreeMap$LT$K$C$V$C$A$GT$6insert17h82fa5985676a7aa2E', symObjAddr: 0xD410, symBinAddr: 0x100030868, symSize: 0x9F8 }
  - { offset: 0x5ADFF, size: 0x8, addend: 0x0, symName: '__ZN5alloc11collections5btree3map25IntoIter$LT$K$C$V$C$A$GT$10dying_next17h12e3dcf500453660E', symObjAddr: 0xDE08, symBinAddr: 0x100031260, symSize: 0x224 }
  - { offset: 0x5B1EE, size: 0x8, addend: 0x0, symName: '__ZN5alloc11collections5btree3map25IntoIter$LT$K$C$V$C$A$GT$10dying_next17h792957020d65e57cE', symObjAddr: 0xE02C, symBinAddr: 0x100031484, symSize: 0x224 }
  - { offset: 0x5B5DD, size: 0x8, addend: 0x0, symName: '__ZN5alloc11collections5btree3map25IntoIter$LT$K$C$V$C$A$GT$10dying_next17hb31974b0eaedc10cE', symObjAddr: 0xE250, symBinAddr: 0x1000316A8, symSize: 0x224 }
  - { offset: 0x5B9D2, size: 0x8, addend: 0x0, symName: '__ZN94_$LT$alloc..collections..btree..map..BTreeMap$LT$K$C$V$C$A$GT$$u20$as$u20$core..fmt..Debug$GT$3fmt17hc35a8022216a2258E', symObjAddr: 0x18980, symBinAddr: 0x10003BCF4, symSize: 0xB8 }
  - { offset: 0x5CD02, size: 0x8, addend: 0x0, symName: '__ZN5alloc7raw_vec19RawVec$LT$T$C$A$GT$8grow_one17h075c6c7443abaefeE', symObjAddr: 0x10450, symBinAddr: 0x1000338A8, symSize: 0xB4 }
  - { offset: 0x5CE84, size: 0x8, addend: 0x0, symName: '__ZN5alloc7raw_vec19RawVec$LT$T$C$A$GT$8grow_one17h166a1991bc1b1d4bE', symObjAddr: 0x10504, symBinAddr: 0x10003395C, symSize: 0xB4 }
  - { offset: 0x5D006, size: 0x8, addend: 0x0, symName: '__ZN5alloc7raw_vec19RawVec$LT$T$C$A$GT$8grow_one17h16773fc118d04764E', symObjAddr: 0x105B8, symBinAddr: 0x100033A10, symSize: 0xCC }
  - { offset: 0x5D188, size: 0x8, addend: 0x0, symName: '__ZN5alloc7raw_vec19RawVec$LT$T$C$A$GT$8grow_one17h26d3c3e0c0035d3aE', symObjAddr: 0x10684, symBinAddr: 0x100033ADC, symSize: 0xB4 }
  - { offset: 0x5D30A, size: 0x8, addend: 0x0, symName: '__ZN5alloc7raw_vec19RawVec$LT$T$C$A$GT$8grow_one17h2dcc28b3ce16ceb9E', symObjAddr: 0x10738, symBinAddr: 0x100033B90, symSize: 0xC8 }
  - { offset: 0x5D48C, size: 0x8, addend: 0x0, symName: '__ZN5alloc7raw_vec19RawVec$LT$T$C$A$GT$8grow_one17h34433ccfa33c1548E', symObjAddr: 0x10800, symBinAddr: 0x100033C58, symSize: 0xCC }
  - { offset: 0x5D60E, size: 0x8, addend: 0x0, symName: '__ZN5alloc7raw_vec19RawVec$LT$T$C$A$GT$8grow_one17h39d85b90b601d05aE', symObjAddr: 0x108CC, symBinAddr: 0x100033D24, symSize: 0xC8 }
  - { offset: 0x5D790, size: 0x8, addend: 0x0, symName: '__ZN5alloc7raw_vec19RawVec$LT$T$C$A$GT$8grow_one17h3c721d352546eaf3E', symObjAddr: 0x10994, symBinAddr: 0x100033DEC, symSize: 0xCC }
  - { offset: 0x5D912, size: 0x8, addend: 0x0, symName: '__ZN5alloc7raw_vec19RawVec$LT$T$C$A$GT$8grow_one17h586e05289c1bd44cE', symObjAddr: 0x10A60, symBinAddr: 0x100033EB8, symSize: 0xA0 }
  - { offset: 0x5DA3D, size: 0x8, addend: 0x0, symName: '__ZN5alloc7raw_vec19RawVec$LT$T$C$A$GT$8grow_one17h5f91a7a76a6c09aeE', symObjAddr: 0x10B00, symBinAddr: 0x100033F58, symSize: 0xCC }
  - { offset: 0x5DBBF, size: 0x8, addend: 0x0, symName: '__ZN5alloc7raw_vec19RawVec$LT$T$C$A$GT$8grow_one17h80e9c1852df717ecE', symObjAddr: 0x10BCC, symBinAddr: 0x100034024, symSize: 0xD4 }
  - { offset: 0x5DD41, size: 0x8, addend: 0x0, symName: '__ZN5alloc7raw_vec19RawVec$LT$T$C$A$GT$8grow_one17hc17bf94f7bc0544cE', symObjAddr: 0x10CA0, symBinAddr: 0x1000340F8, symSize: 0xB4 }
  - { offset: 0x5DEC3, size: 0x8, addend: 0x0, symName: '__ZN5alloc7raw_vec19RawVec$LT$T$C$A$GT$8grow_one17hc3a6727d65a81183E', symObjAddr: 0x10D54, symBinAddr: 0x1000341AC, symSize: 0xCC }
  - { offset: 0x5E045, size: 0x8, addend: 0x0, symName: '__ZN5alloc7raw_vec19RawVec$LT$T$C$A$GT$8grow_one17hf967a23dcc49c53fE', symObjAddr: 0x10E20, symBinAddr: 0x100034278, symSize: 0xB4 }
  - { offset: 0x5ECF1, size: 0x8, addend: 0x0, symName: __ZN5alloc7raw_vec11finish_grow17h862ca5a250277ca2E, symObjAddr: 0x103C8, symBinAddr: 0x100033820, symSize: 0x88 }
  - { offset: 0x5ED8B, size: 0x8, addend: 0x0, symName: '__ZN5alloc7raw_vec20RawVecInner$LT$A$GT$7reserve21do_reserve_and_handle17h5bd7c8b81169b16eE', symObjAddr: 0x10ED4, symBinAddr: 0x1000ABFD8, symSize: 0xE4 }
  - { offset: 0x60515, size: 0x8, addend: 0x0, symName: '__ZN65_$LT$alloc..vec..Vec$LT$T$C$A$GT$$u20$as$u20$core..fmt..Debug$GT$3fmt17h7c2ad0cf10328a44E', symObjAddr: 0x17C40, symBinAddr: 0x10003AFB4, symSize: 0x74 }
  - { offset: 0x60641, size: 0x8, addend: 0x0, symName: '__ZN65_$LT$alloc..vec..Vec$LT$T$C$A$GT$$u20$as$u20$core..fmt..Debug$GT$3fmt17hc81b2c0dfcc69ebaE', symObjAddr: 0x17CB4, symBinAddr: 0x10003B028, symSize: 0x70 }
  - { offset: 0x60E0F, size: 0x8, addend: 0x0, symName: '__ZN5alloc4sync16Arc$LT$T$C$A$GT$9drop_slow17h0aa5665700f36d09E', symObjAddr: 0x10054, symBinAddr: 0x1000334AC, symSize: 0x44 }
  - { offset: 0x60F10, size: 0x8, addend: 0x0, symName: '__ZN5alloc4sync16Arc$LT$T$C$A$GT$9drop_slow17h387c17a8068f8b46E', symObjAddr: 0x10098, symBinAddr: 0x1000334F0, symSize: 0x7C }
  - { offset: 0x61115, size: 0x8, addend: 0x0, symName: '__ZN5alloc4sync16Arc$LT$T$C$A$GT$9drop_slow17h8140ef5e91500a1cE', symObjAddr: 0x10114, symBinAddr: 0x10003356C, symSize: 0xC4 }
  - { offset: 0x613BD, size: 0x8, addend: 0x0, symName: '__ZN5alloc4sync16Arc$LT$T$C$A$GT$9drop_slow17h838bbef7addedadcE', symObjAddr: 0x101D8, symBinAddr: 0x100033630, symSize: 0xC0 }
  - { offset: 0x61543, size: 0x8, addend: 0x0, symName: '__ZN5alloc4sync16Arc$LT$T$C$A$GT$9drop_slow17hd93bb8d0d3f31befE', symObjAddr: 0x10298, symBinAddr: 0x1000336F0, symSize: 0xA0 }
  - { offset: 0x61862, size: 0x8, addend: 0x0, symName: '__ZN5alloc4sync16Arc$LT$T$C$A$GT$9drop_slow17hf04d07aeddb693f2E', symObjAddr: 0x10338, symBinAddr: 0x100033790, symSize: 0x90 }
  - { offset: 0x62038, size: 0x8, addend: 0x0, symName: '__ZN64_$LT$alloc..ffi..c_str..NulError$u20$as$u20$core..fmt..Debug$GT$3fmt17h73df61ef3778c398E', symObjAddr: 0x17BF4, symBinAddr: 0x10003AF68, symSize: 0x4C }
  - { offset: 0x627E5, size: 0x8, addend: 0x0, symName: '__ZN58_$LT$alloc..string..String$u20$as$u20$core..fmt..Debug$GT$3fmt17hdfa762a84976360aE', symObjAddr: 0xC86C, symBinAddr: 0x10002FCC4, symSize: 0x1C }
  - { offset: 0x628A0, size: 0x8, addend: 0x0, symName: '__ZN58_$LT$alloc..string..String$u20$as$u20$core..fmt..Write$GT$10write_char17hd93e9ff1698e117fE', symObjAddr: 0xC888, symBinAddr: 0x10002FCE0, symSize: 0x14C }
  - { offset: 0x62B05, size: 0x8, addend: 0x0, symName: '__ZN58_$LT$alloc..string..String$u20$as$u20$core..fmt..Write$GT$9write_str17h0e58f50c5cceb6ccE', symObjAddr: 0xC9D4, symBinAddr: 0x10002FE2C, symSize: 0x80 }
  - { offset: 0x62C5E, size: 0x8, addend: 0x0, symName: '__ZN60_$LT$alloc..string..String$u20$as$u20$core..fmt..Display$GT$3fmt17hb1770a38898258b9E', symObjAddr: 0x17BD8, symBinAddr: 0x10003AF4C, symSize: 0x1C }
  - { offset: 0x62D6F, size: 0x8, addend: 0x0, symName: '__ZN66_$LT$alloc..borrow..Cow$LT$B$GT$$u20$as$u20$core..fmt..Display$GT$3fmt17h934f636a5b650a82E', symObjAddr: 0x17D24, symBinAddr: 0x10003B098, symSize: 0x1C }
  - { offset: 0x63C68, size: 0x8, addend: 0x0, symName: '__ZN66_$LT$core..option..Option$LT$T$GT$$u20$as$u20$core..fmt..Debug$GT$3fmt17h0d22586c1d7cf264E', symObjAddr: 0x17D40, symBinAddr: 0x10003B0B4, symSize: 0x60 }
  - { offset: 0x63C83, size: 0x8, addend: 0x0, symName: '__ZN66_$LT$core..option..Option$LT$T$GT$$u20$as$u20$core..fmt..Debug$GT$3fmt17h1d04b85820ad1c64E', symObjAddr: 0x17DA0, symBinAddr: 0x10003B114, symSize: 0x5C }
  - { offset: 0x63C9E, size: 0x8, addend: 0x0, symName: '__ZN66_$LT$core..option..Option$LT$T$GT$$u20$as$u20$core..fmt..Debug$GT$3fmt17h3070b5aff61757efE', symObjAddr: 0x17DFC, symBinAddr: 0x10003B170, symSize: 0x5C }
  - { offset: 0x63CB9, size: 0x8, addend: 0x0, symName: '__ZN66_$LT$core..option..Option$LT$T$GT$$u20$as$u20$core..fmt..Debug$GT$3fmt17h508bebe52f9eac05E', symObjAddr: 0x17E58, symBinAddr: 0x10003B1CC, symSize: 0x60 }
  - { offset: 0x63CD4, size: 0x8, addend: 0x0, symName: '__ZN66_$LT$core..option..Option$LT$T$GT$$u20$as$u20$core..fmt..Debug$GT$3fmt17h5c0325d17553f2d8E', symObjAddr: 0x17EB8, symBinAddr: 0x10003B22C, symSize: 0x60 }
  - { offset: 0x63CEF, size: 0x8, addend: 0x0, symName: '__ZN66_$LT$core..option..Option$LT$T$GT$$u20$as$u20$core..fmt..Debug$GT$3fmt17h6cba7647c1409c4eE', symObjAddr: 0x17F18, symBinAddr: 0x10003B28C, symSize: 0x60 }
  - { offset: 0x63D0A, size: 0x8, addend: 0x0, symName: '__ZN66_$LT$core..option..Option$LT$T$GT$$u20$as$u20$core..fmt..Debug$GT$3fmt17h6d1b1bba33696c84E', symObjAddr: 0x17F78, symBinAddr: 0x10003B2EC, symSize: 0x5C }
  - { offset: 0x63D25, size: 0x8, addend: 0x0, symName: '__ZN66_$LT$core..option..Option$LT$T$GT$$u20$as$u20$core..fmt..Debug$GT$3fmt17h98c512daf50572b8E', symObjAddr: 0x17FD4, symBinAddr: 0x10003B348, symSize: 0x60 }
  - { offset: 0x63D40, size: 0x8, addend: 0x0, symName: '__ZN66_$LT$core..option..Option$LT$T$GT$$u20$as$u20$core..fmt..Debug$GT$3fmt17hc0b8a09cde12bbabE', symObjAddr: 0x18034, symBinAddr: 0x10003B3A8, symSize: 0x60 }
  - { offset: 0x6515F, size: 0x8, addend: 0x0, symName: '__ZN4core3ptr100drop_in_place$LT$core..option..Option$LT$std..sys..pal..unix..process..process_common..Stdio$GT$$GT$17h390c4c4b36e9449aE', symObjAddr: 0x1888, symBinAddr: 0x100024EA8, symSize: 0x28 }
  - { offset: 0x651CB, size: 0x8, addend: 0x0, symName: '__ZN4core3ptr101drop_in_place$LT$alloc..sync..Arc$LT$std..sync..mutex..Mutex$LT$alloc..vec..Vec$LT$u8$GT$$GT$$GT$$GT$17he47baf29b04fcdf3E', symObjAddr: 0x18B0, symBinAddr: 0x100024ED0, symSize: 0x30 }
  - { offset: 0x6528A, size: 0x8, addend: 0x0, symName: '__ZN4core3ptr104drop_in_place$LT$alloc..vec..Vec$LT$$LP$usize$C$std..backtrace_rs..symbolize..gimli..Mapping$RP$$GT$$GT$17h3724f6026d57679bE', symObjAddr: 0x18E0, symBinAddr: 0x100024F00, symSize: 0xC4 }
  - { offset: 0x65446, size: 0x8, addend: 0x0, symName: '__ZN4core3ptr107drop_in_place$LT$alloc..vec..Vec$LT$$LP$std..ffi..os_str..OsString$C$std..ffi..os_str..OsString$RP$$GT$$GT$17hfc68f09190e14b8aE', symObjAddr: 0x19A4, symBinAddr: 0x100024FC4, symSize: 0x94 }
  - { offset: 0x656CD, size: 0x8, addend: 0x0, symName: '__ZN4core3ptr107drop_in_place$LT$core..option..Option$LT$std..sys..pal..unix..process..process_common..CStringArray$GT$$GT$17hc04f4be0667d32faE', symObjAddr: 0x1A38, symBinAddr: 0x100025058, symSize: 0xAC }
  - { offset: 0x65916, size: 0x8, addend: 0x0, symName: '__ZN4core3ptr108drop_in_place$LT$alloc..collections..btree..map..BTreeMap$LT$u64$C$gimli..read..abbrev..Abbreviation$GT$$GT$17hdd51dbb9038dd43cE', symObjAddr: 0x1AE4, symBinAddr: 0x100025104, symSize: 0xB0 }
  - { offset: 0x65AC9, size: 0x8, addend: 0x0, symName: '__ZN4core3ptr112drop_in_place$LT$$LP$std..ffi..os_str..OsString$C$core..option..Option$LT$std..ffi..os_str..OsString$GT$$RP$$GT$17h2ec7e858acbba68fE', symObjAddr: 0x1B94, symBinAddr: 0x1000251B4, symSize: 0x58 }
  - { offset: 0x65C3E, size: 0x8, addend: 0x0, symName: '__ZN4core3ptr118drop_in_place$LT$$LT$std..backtrace..Backtrace$u20$as$u20$core..fmt..Display$GT$..fmt..$u7b$$u7b$closure$u7d$$u7d$$GT$17h29129ac2cd345645E', symObjAddr: 0x1BEC, symBinAddr: 0x10002520C, symSize: 0x40 }
  - { offset: 0x65D53, size: 0x8, addend: 0x0, symName: '__ZN4core3ptr123drop_in_place$LT$addr2line..Context$LT$gimli..read..endian_slice..EndianSlice$LT$gimli..endianity..LittleEndian$GT$$GT$$GT$17hda46d454f19ff930E', symObjAddr: 0x1C2C, symBinAddr: 0x10002524C, symSize: 0x120 }
  - { offset: 0x66073, size: 0x8, addend: 0x0, symName: '__ZN4core3ptr123drop_in_place$LT$addr2line..ResUnit$LT$gimli..read..endian_slice..EndianSlice$LT$gimli..endianity..LittleEndian$GT$$GT$$GT$17h140d0dcd1acd9019E', symObjAddr: 0x1D4C, symBinAddr: 0x10002536C, symSize: 0xE4 }
  - { offset: 0x6624D, size: 0x8, addend: 0x0, symName: '__ZN4core3ptr123drop_in_place$LT$addr2line..SupUnit$LT$gimli..read..endian_slice..EndianSlice$LT$gimli..endianity..LittleEndian$GT$$GT$$GT$17h8a819a68b5060ec8E', symObjAddr: 0x1E30, symBinAddr: 0x100025450, symSize: 0x54 }
  - { offset: 0x6631A, size: 0x8, addend: 0x0, symName: '__ZN4core3ptr124drop_in_place$LT$alloc..collections..btree..map..BTreeMap$LT$std..ffi..os_str..OsString$C$std..ffi..os_str..OsString$GT$$GT$17ha893cf0c42a9c308E', symObjAddr: 0x1E84, symBinAddr: 0x1000254A4, symSize: 0xC4 }
  - { offset: 0x66521, size: 0x8, addend: 0x0, symName: '__ZN4core3ptr124drop_in_place$LT$alloc..collections..btree..map..IntoIter$LT$std..ffi..os_str..OsString$C$std..ffi..os_str..OsString$GT$$GT$17hbedd65009acb7ebfE', symObjAddr: 0x1F48, symBinAddr: 0x100025568, symSize: 0x94 }
  - { offset: 0x666D4, size: 0x8, addend: 0x0, symName: '__ZN4core3ptr127drop_in_place$LT$std..sync..poison..PoisonError$LT$std..sync..mutex..MutexGuard$LT$std..sync..barrier..BarrierState$GT$$GT$$GT$17hcab5faa07d09967aE', symObjAddr: 0x1FDC, symBinAddr: 0x1000255FC, symSize: 0x4C }
  - { offset: 0x66820, size: 0x8, addend: 0x0, symName: '__ZN4core3ptr130drop_in_place$LT$gimli..read..dwarf..Dwarf$LT$gimli..read..endian_slice..EndianSlice$LT$gimli..endianity..LittleEndian$GT$$GT$$GT$17h7eb35384c5128c5bE', symObjAddr: 0x2028, symBinAddr: 0x100025648, symSize: 0x58 }
  - { offset: 0x668B6, size: 0x8, addend: 0x0, symName: '__ZN4core3ptr131drop_in_place$LT$alloc..boxed..Box$LT$dyn$u20$core..ops..function..FnOnce$LT$$LP$$RP$$GT$$u2b$Output$u20$$u3d$$u20$$LP$$RP$$GT$$GT$17h5d8ec31e29fde23dE', symObjAddr: 0x2080, symBinAddr: 0x1000256A0, symSize: 0x78 }
  - { offset: 0x669A1, size: 0x8, addend: 0x0, symName: '__ZN4core3ptr137drop_in_place$LT$gimli..read..dwarf..Unit$LT$gimli..read..endian_slice..EndianSlice$LT$gimli..endianity..LittleEndian$GT$$C$usize$GT$$GT$17h3d24796a2679cbf6E', symObjAddr: 0x20F8, symBinAddr: 0x100025718, symSize: 0x54 }
  - { offset: 0x66A74, size: 0x8, addend: 0x0, symName: '__ZN4core3ptr144drop_in_place$LT$alloc..vec..Vec$LT$core..option..Option$LT$core..option..Option$LT$std..backtrace_rs..symbolize..gimli..Mapping$GT$$GT$$GT$$GT$17h0e8af9afa59793f6E', symObjAddr: 0x214C, symBinAddr: 0x10002576C, symSize: 0x10C }
  - { offset: 0x66C38, size: 0x8, addend: 0x0, symName: '__ZN4core3ptr146drop_in_place$LT$alloc..vec..Vec$LT$addr2line..ResUnit$LT$gimli..read..endian_slice..EndianSlice$LT$gimli..endianity..LittleEndian$GT$$GT$$GT$$GT$17hf181f44a2a3444f1E', symObjAddr: 0x2258, symBinAddr: 0x100025878, symSize: 0xC4 }
  - { offset: 0x66DC3, size: 0x8, addend: 0x0, symName: '__ZN4core3ptr146drop_in_place$LT$alloc..vec..Vec$LT$addr2line..SupUnit$LT$gimli..read..endian_slice..EndianSlice$LT$gimli..endianity..LittleEndian$GT$$GT$$GT$$GT$17hc91732f1d0903df2E', symObjAddr: 0x231C, symBinAddr: 0x10002593C, symSize: 0xF4 }
  - { offset: 0x66FE9, size: 0x8, addend: 0x0, symName: '__ZN4core3ptr152drop_in_place$LT$alloc..collections..btree..map..BTreeMap$LT$std..ffi..os_str..OsString$C$core..option..Option$LT$std..ffi..os_str..OsString$GT$$GT$$GT$17hb355194dd4ca3852E', symObjAddr: 0x2410, symBinAddr: 0x100025A30, symSize: 0xD0 }
  - { offset: 0x67211, size: 0x8, addend: 0x0, symName: '__ZN4core3ptr158drop_in_place$LT$alloc..boxed..Box$LT$$u5b$addr2line..ResUnit$LT$gimli..read..endian_slice..EndianSlice$LT$gimli..endianity..LittleEndian$GT$$GT$$u5d$$GT$$GT$17h4bf939d7a7f1ac07E', symObjAddr: 0x24E0, symBinAddr: 0x100025B00, symSize: 0xB4 }
  - { offset: 0x6730A, size: 0x8, addend: 0x0, symName: '__ZN4core3ptr158drop_in_place$LT$alloc..boxed..Box$LT$$u5b$addr2line..SupUnit$LT$gimli..read..endian_slice..EndianSlice$LT$gimli..endianity..LittleEndian$GT$$GT$$u5d$$GT$$GT$17hcbd148f67d377a72E', symObjAddr: 0x2594, symBinAddr: 0x100025BB4, symSize: 0xE4 }
  - { offset: 0x674BA, size: 0x8, addend: 0x0, symName: '__ZN4core3ptr159drop_in_place$LT$alloc..sync..ArcInner$LT$gimli..read..dwarf..Dwarf$LT$gimli..read..endian_slice..EndianSlice$LT$gimli..endianity..LittleEndian$GT$$GT$$GT$$GT$17h350dc7a25fa01851E', symObjAddr: 0x2678, symBinAddr: 0x100025C98, symSize: 0x58 }
  - { offset: 0x675CF, size: 0x8, addend: 0x0, symName: '__ZN4core3ptr174drop_in_place$LT$core..result..Result$LT$addr2line..FrameIter$LT$gimli..read..endian_slice..EndianSlice$LT$gimli..endianity..LittleEndian$GT$$GT$$C$gimli..read..Error$GT$$GT$17h20520c9c39e2d0f6E', symObjAddr: 0x26D0, symBinAddr: 0x100025CF0, symSize: 0x44 }
  - { offset: 0x67753, size: 0x8, addend: 0x0, symName: '__ZN4core3ptr181drop_in_place$LT$core..option..Option$LT$gimli..read..line..IncompleteLineProgram$LT$gimli..read..endian_slice..EndianSlice$LT$gimli..endianity..LittleEndian$GT$$C$usize$GT$$GT$$GT$17heefdf74aaf21e555E', symObjAddr: 0x2714, symBinAddr: 0x100025D34, symSize: 0x94 }
  - { offset: 0x67A54, size: 0x8, addend: 0x0, symName: '__ZN4core3ptr184drop_in_place$LT$core..result..Result$LT$addr2line..function..Functions$LT$gimli..read..endian_slice..EndianSlice$LT$gimli..endianity..LittleEndian$GT$$GT$$C$gimli..read..Error$GT$$GT$17h8a8e7727ae990110E', symObjAddr: 0x27A8, symBinAddr: 0x100025DC8, symSize: 0xD8 }
  - { offset: 0x67CF2, size: 0x8, addend: 0x0, symName: '__ZN4core3ptr205drop_in_place$LT$$LT$alloc..boxed..Box$LT$dyn$u20$core..error..Error$u2b$core..marker..Send$u2b$core..marker..Sync$GT$$u20$as$u20$core..convert..From$LT$alloc..string..String$GT$$GT$..from..StringError$GT$17h83ef85c47549147cE', symObjAddr: 0x2880, symBinAddr: 0x100025EA0, symSize: 0x28 }
  - { offset: 0x67DD5, size: 0x8, addend: 0x0, symName: '__ZN4core3ptr215drop_in_place$LT$std..sys..thread_local..native..lazy..State$LT$core..cell..Cell$LT$core..option..Option$LT$alloc..sync..Arc$LT$std..sync..mutex..Mutex$LT$alloc..vec..Vec$LT$u8$GT$$GT$$GT$$GT$$GT$$C$$LP$$RP$$GT$$GT$17h359053fe13b33dfcE', symObjAddr: 0x28A8, symBinAddr: 0x100025EC8, symSize: 0x40 }
  - { offset: 0x67E97, size: 0x8, addend: 0x0, symName: '__ZN4core3ptr250drop_in_place$LT$$LP$gimli..read..UnitOffset$C$addr2line..lazy..LazyCell$LT$core..result..Result$LT$addr2line..function..Function$LT$gimli..read..endian_slice..EndianSlice$LT$gimli..endianity..LittleEndian$GT$$GT$$C$gimli..read..Error$GT$$GT$$RP$$GT$17h9a2b3fa9b348f67fE', symObjAddr: 0x28E8, symBinAddr: 0x100025F08, symSize: 0x64 }
  - { offset: 0x67EAE, size: 0x8, addend: 0x0, symName: '__ZN4core3ptr250drop_in_place$LT$$LP$gimli..read..UnitOffset$C$addr2line..lazy..LazyCell$LT$core..result..Result$LT$addr2line..function..Function$LT$gimli..read..endian_slice..EndianSlice$LT$gimli..endianity..LittleEndian$GT$$GT$$C$gimli..read..Error$GT$$GT$$RP$$GT$17h9a2b3fa9b348f67fE', symObjAddr: 0x28E8, symBinAddr: 0x100025F08, symSize: 0x64 }
  - { offset: 0x67EC3, size: 0x8, addend: 0x0, symName: '__ZN4core3ptr250drop_in_place$LT$$LP$gimli..read..UnitOffset$C$addr2line..lazy..LazyCell$LT$core..result..Result$LT$addr2line..function..Function$LT$gimli..read..endian_slice..EndianSlice$LT$gimli..endianity..LittleEndian$GT$$GT$$C$gimli..read..Error$GT$$GT$$RP$$GT$17h9a2b3fa9b348f67fE', symObjAddr: 0x28E8, symBinAddr: 0x100025F08, symSize: 0x64 }
  - { offset: 0x67ED8, size: 0x8, addend: 0x0, symName: '__ZN4core3ptr250drop_in_place$LT$$LP$gimli..read..UnitOffset$C$addr2line..lazy..LazyCell$LT$core..result..Result$LT$addr2line..function..Function$LT$gimli..read..endian_slice..EndianSlice$LT$gimli..endianity..LittleEndian$GT$$GT$$C$gimli..read..Error$GT$$GT$$RP$$GT$17h9a2b3fa9b348f67fE', symObjAddr: 0x28E8, symBinAddr: 0x100025F08, symSize: 0x64 }
  - { offset: 0x6801A, size: 0x8, addend: 0x0, symName: '__ZN4core3ptr273drop_in_place$LT$alloc..vec..Vec$LT$$LP$gimli..read..UnitOffset$C$addr2line..lazy..LazyCell$LT$core..result..Result$LT$addr2line..function..Function$LT$gimli..read..endian_slice..EndianSlice$LT$gimli..endianity..LittleEndian$GT$$GT$$C$gimli..read..Error$GT$$GT$$RP$$GT$$GT$17ha71c34fa9df1ee80E', symObjAddr: 0x294C, symBinAddr: 0x100025F6C, symSize: 0xAC }
  - { offset: 0x68249, size: 0x8, addend: 0x0, symName: '__ZN4core3ptr275drop_in_place$LT$gimli..read..line..LineRows$LT$gimli..read..endian_slice..EndianSlice$LT$gimli..endianity..LittleEndian$GT$$C$gimli..read..line..IncompleteLineProgram$LT$gimli..read..endian_slice..EndianSlice$LT$gimli..endianity..LittleEndian$GT$$C$usize$GT$$C$usize$GT$$GT$17hbb9d7d3d040ba386E', symObjAddr: 0x29F8, symBinAddr: 0x100026018, symSize: 0x88 }
  - { offset: 0x684B0, size: 0x8, addend: 0x0, symName: '__ZN4core3ptr280drop_in_place$LT$$LT$alloc..collections..btree..map..IntoIter$LT$K$C$V$C$A$GT$$u20$as$u20$core..ops..drop..Drop$GT$..drop..DropGuard$LT$u64$C$core..result..Result$LT$alloc..sync..Arc$LT$gimli..read..abbrev..Abbreviations$GT$$C$gimli..read..Error$GT$$C$alloc..alloc..Global$GT$$GT$17h74b13c23f0977491E', symObjAddr: 0x2A80, symBinAddr: 0x1000260A0, symSize: 0x84 }
  - { offset: 0x685FB, size: 0x8, addend: 0x0, symName: '__ZN4core3ptr285drop_in_place$LT$alloc..boxed..Box$LT$$u5b$$LP$gimli..read..UnitOffset$C$addr2line..lazy..LazyCell$LT$core..result..Result$LT$addr2line..function..Function$LT$gimli..read..endian_slice..EndianSlice$LT$gimli..endianity..LittleEndian$GT$$GT$$C$gimli..read..Error$GT$$GT$$RP$$u5d$$GT$$GT$17h4c0e5fff1642bc53E', symObjAddr: 0x2B04, symBinAddr: 0x100026124, symSize: 0x9C }
  - { offset: 0x68612, size: 0x8, addend: 0x0, symName: '__ZN4core3ptr285drop_in_place$LT$alloc..boxed..Box$LT$$u5b$$LP$gimli..read..UnitOffset$C$addr2line..lazy..LazyCell$LT$core..result..Result$LT$addr2line..function..Function$LT$gimli..read..endian_slice..EndianSlice$LT$gimli..endianity..LittleEndian$GT$$GT$$C$gimli..read..Error$GT$$GT$$RP$$u5d$$GT$$GT$17h4c0e5fff1642bc53E', symObjAddr: 0x2B04, symBinAddr: 0x100026124, symSize: 0x9C }
  - { offset: 0x690A4, size: 0x8, addend: 0x0, symName: '__ZN4core3ptr37drop_in_place$LT$std..env..VarsOs$GT$17ha2a13263ce231697E', symObjAddr: 0x2BA0, symBinAddr: 0x1000261C0, symSize: 0xAC }
  - { offset: 0x6938D, size: 0x8, addend: 0x0, symName: '__ZN4core3ptr383drop_in_place$LT$core..result..Result$LT$core..option..Option$LT$alloc..boxed..Box$LT$$LP$alloc..sync..Arc$LT$gimli..read..dwarf..Dwarf$LT$gimli..read..endian_slice..EndianSlice$LT$gimli..endianity..LittleEndian$GT$$GT$$GT$$C$gimli..read..dwarf..Unit$LT$gimli..read..endian_slice..EndianSlice$LT$gimli..endianity..LittleEndian$GT$$C$usize$GT$$RP$$GT$$GT$$C$gimli..read..Error$GT$$GT$17h724d051af7e3a1c4E', symObjAddr: 0x2C4C, symBinAddr: 0x10002626C, symSize: 0xD4 }
  - { offset: 0x69578, size: 0x8, addend: 0x0, symName: '__ZN4core3ptr39drop_in_place$LT$std..path..PathBuf$GT$17h29ea4d3650142468E', symObjAddr: 0x2D20, symBinAddr: 0x100026340, symSize: 0x28 }
  - { offset: 0x6968B, size: 0x8, addend: 0x0, symName: '__ZN4core3ptr40drop_in_place$LT$std..process..Child$GT$17ha28c2d8694893892E', symObjAddr: 0x2D48, symBinAddr: 0x100026368, symSize: 0x54 }
  - { offset: 0x69845, size: 0x8, addend: 0x0, symName: '__ZN4core3ptr40drop_in_place$LT$std..thread..Thread$GT$17hf9ac34a9babe1e81E', symObjAddr: 0x2D9C, symBinAddr: 0x1000263BC, symSize: 0x30 }
  - { offset: 0x69914, size: 0x8, addend: 0x0, symName: '__ZN4core3ptr41drop_in_place$LT$std..panicking..Hook$GT$17h8ea2bbaad34def32E', symObjAddr: 0x2DCC, symBinAddr: 0x1000263EC, symSize: 0x7C }
  - { offset: 0x69A0D, size: 0x8, addend: 0x0, symName: '__ZN4core3ptr42drop_in_place$LT$alloc..string..String$GT$17h61495ec7b922a046E', symObjAddr: 0x2E48, symBinAddr: 0x100026468, symSize: 0x28 }
  - { offset: 0x69AE8, size: 0x8, addend: 0x0, symName: '__ZN4core3ptr42drop_in_place$LT$std..io..error..Error$GT$17h924dbebc5083d819E', symObjAddr: 0x2E70, symBinAddr: 0x100026490, symSize: 0xAC }
  - { offset: 0x69D02, size: 0x8, addend: 0x0, symName: '__ZN4core3ptr44drop_in_place$LT$object..read..ObjectMap$GT$17h9f6d8c9bbe8676a4E', symObjAddr: 0x2F1C, symBinAddr: 0x10002653C, symSize: 0x58 }
  - { offset: 0x69E5B, size: 0x8, addend: 0x0, symName: '__ZN4core3ptr44drop_in_place$LT$std..backtrace..Capture$GT$17h4396dcd7c24d0d65E', symObjAddr: 0x2F74, symBinAddr: 0x100026594, symSize: 0x6C }
  - { offset: 0x69F50, size: 0x8, addend: 0x0, symName: '__ZN4core3ptr44drop_in_place$LT$std..thread..PanicGuard$GT$17h65c4bc54c991acbeE', symObjAddr: 0x2FE0, symBinAddr: 0x100026600, symSize: 0x44 }
  - { offset: 0x69FA4, size: 0x8, addend: 0x0, symName: '__ZN4core3ptr44drop_in_place$LT$std..thread..ThreadName$GT$17he9179243778e7ac8E', symObjAddr: 0x3024, symBinAddr: 0x100026644, symSize: 0x3C }
  - { offset: 0x6A051, size: 0x8, addend: 0x0, symName: '__ZN4core3ptr46drop_in_place$LT$alloc..vec..Vec$LT$u8$GT$$GT$17h13af7ebb5aaf6ccbE', symObjAddr: 0x3060, symBinAddr: 0x100026680, symSize: 0x28 }
  - { offset: 0x6A0DE, size: 0x8, addend: 0x0, symName: '__ZN4core3ptr46drop_in_place$LT$std..io..stdio..StdinLock$GT$17h25432cf1b9b631dbE', symObjAddr: 0x3088, symBinAddr: 0x1000266A8, symSize: 0x54 }
  - { offset: 0x6A0F5, size: 0x8, addend: 0x0, symName: '__ZN4core3ptr46drop_in_place$LT$std..io..stdio..StdinLock$GT$17h25432cf1b9b631dbE', symObjAddr: 0x3088, symBinAddr: 0x1000266A8, symSize: 0x54 }
  - { offset: 0x6A10A, size: 0x8, addend: 0x0, symName: '__ZN4core3ptr46drop_in_place$LT$std..io..stdio..StdinLock$GT$17h25432cf1b9b631dbE', symObjAddr: 0x3088, symBinAddr: 0x1000266A8, symSize: 0x54 }
  - { offset: 0x6A1EE, size: 0x8, addend: 0x0, symName: '__ZN4core3ptr47drop_in_place$LT$alloc..ffi..c_str..CString$GT$17h6d50cff863a8567eE', symObjAddr: 0x30DC, symBinAddr: 0x1000266FC, symSize: 0x30 }
  - { offset: 0x6A26F, size: 0x8, addend: 0x0, symName: '__ZN4core3ptr47drop_in_place$LT$std..ffi..os_str..OsString$GT$17h3d977e70f01e62acE', symObjAddr: 0x310C, symBinAddr: 0x10002672C, symSize: 0x28 }
  - { offset: 0x6A30A, size: 0x8, addend: 0x0, symName: '__ZN4core3ptr48drop_in_place$LT$alloc..ffi..c_str..NulError$GT$17h170c9316592988dfE', symObjAddr: 0x3134, symBinAddr: 0x100026754, symSize: 0x28 }
  - { offset: 0x6A39F, size: 0x8, addend: 0x0, symName: '__ZN4core3ptr49drop_in_place$LT$std..sys..pal..unix..os..Env$GT$17h6181626924e3fdd9E', symObjAddr: 0x315C, symBinAddr: 0x10002677C, symSize: 0xAC }
  - { offset: 0x6A6C6, size: 0x8, addend: 0x0, symName: '__ZN4core3ptr51drop_in_place$LT$std..backtrace..BacktraceFrame$GT$17hbc2143e5e5b18343E', symObjAddr: 0x3208, symBinAddr: 0x100026828, symSize: 0xE4 }
  - { offset: 0x6A97D, size: 0x8, addend: 0x0, symName: '__ZN4core3ptr52drop_in_place$LT$std..backtrace..BacktraceSymbol$GT$17h7d0f6a62cf2fd49aE', symObjAddr: 0x32EC, symBinAddr: 0x10002690C, symSize: 0x90 }
  - { offset: 0x6AB85, size: 0x8, addend: 0x0, symName: '__ZN4core3ptr52drop_in_place$LT$std..sys..pal..unix..args..Args$GT$17h3073c13bc92f9695E', symObjAddr: 0x337C, symBinAddr: 0x10002699C, symSize: 0x98 }
  - { offset: 0x6AD8B, size: 0x8, addend: 0x0, symName: '__ZN4core3ptr54drop_in_place$LT$std..sys..pal..unix..fd..FileDesc$GT$17hcab0674bd3465431E', symObjAddr: 0x3414, symBinAddr: 0x100026A34, symSize: 0x14 }
  - { offset: 0x6ADF5, size: 0x8, addend: 0x0, symName: '__ZN4core3ptr55drop_in_place$LT$gimli..read..abbrev..Abbreviations$GT$17he9582e6a4b4189b0E', symObjAddr: 0x3428, symBinAddr: 0x100026A48, symSize: 0x84 }
  - { offset: 0x6AF86, size: 0x8, addend: 0x0, symName: '__ZN4core3ptr57drop_in_place$LT$std..sys_common..process..CommandEnv$GT$17ha6790f433a4385d0E', symObjAddr: 0x34AC, symBinAddr: 0x100026ACC, symSize: 0x10 }
  - { offset: 0x6AFCB, size: 0x8, addend: 0x0, symName: '__ZN4core3ptr60drop_in_place$LT$gimli..read..abbrev..AbbreviationsCache$GT$17h9d0eba5c9dda23c4E', symObjAddr: 0x34BC, symBinAddr: 0x100026ADC, symSize: 0xCC }
  - { offset: 0x6B15F, size: 0x8, addend: 0x0, symName: '__ZN4core3ptr62drop_in_place$LT$std..sys..sync..rwlock..queue..PanicGuard$GT$17hce38602be2122707E', symObjAddr: 0x3588, symBinAddr: 0x100026BA8, symSize: 0x44 }
  - { offset: 0x6B1C1, size: 0x8, addend: 0x0, symName: '__ZN4core3ptr65drop_in_place$LT$alloc..vec..Vec$LT$alloc..string..String$GT$$GT$17h2f36e88bfd8770e1E', symObjAddr: 0x35CC, symBinAddr: 0x100026BEC, symSize: 0x80 }
  - { offset: 0x6B335, size: 0x8, addend: 0x0, symName: '__ZN4core3ptr65drop_in_place$LT$std..backtrace_rs..symbolize..gimli..Mapping$GT$17h31344005bd4b7e99E', symObjAddr: 0x364C, symBinAddr: 0x100026C6C, symSize: 0x70 }
  - { offset: 0x6B3ED, size: 0x8, addend: 0x0, symName: '__ZN4core3ptr67drop_in_place$LT$alloc..vec..Vec$LT$addr2line..LineSequence$GT$$GT$17heb663068d829c259E', symObjAddr: 0x36BC, symBinAddr: 0x100026CDC, symSize: 0x84 }
  - { offset: 0x6B553, size: 0x8, addend: 0x0, symName: '__ZN4core3ptr68drop_in_place$LT$core..option..Option$LT$std..thread..Thread$GT$$GT$17h2b48afe567b2e886E', symObjAddr: 0x3740, symBinAddr: 0x100026D60, symSize: 0x34 }
  - { offset: 0x6B5FF, size: 0x8, addend: 0x0, symName: '__ZN4core3ptr70drop_in_place$LT$alloc..vec..Vec$LT$alloc..ffi..c_str..CString$GT$$GT$17h3b9160088b32d04dE', symObjAddr: 0x3774, symBinAddr: 0x100026D94, symSize: 0x7C }
  - { offset: 0x6B742, size: 0x8, addend: 0x0, symName: '__ZN4core3ptr70drop_in_place$LT$alloc..vec..Vec$LT$std..ffi..os_str..OsString$GT$$GT$17h524967ec3c4e93cbE', symObjAddr: 0x37F0, symBinAddr: 0x100026E10, symSize: 0x80 }
  - { offset: 0x6B91F, size: 0x8, addend: 0x0, symName: '__ZN4core3ptr70drop_in_place$LT$std..backtrace_rs..symbolize..gimli..stash..Stash$GT$17h849b9347acaa4f9dE', symObjAddr: 0x3870, symBinAddr: 0x100026E90, symSize: 0xB8 }
  - { offset: 0x6BBFD, size: 0x8, addend: 0x0, symName: '__ZN4core3ptr71drop_in_place$LT$std..backtrace_rs..symbolize..gimli..macho..Object$GT$17he464dace0837fc07E', symObjAddr: 0x3928, symBinAddr: 0x100026F48, symSize: 0x15C }
  - { offset: 0x6BF33, size: 0x8, addend: 0x0, symName: '__ZN4core3ptr71drop_in_place$LT$std..panicking..rust_panic_without_hook..RewrapBox$GT$17h308d01dbab3d6c7dE', symObjAddr: 0x3A84, symBinAddr: 0x1000270A4, symSize: 0x6C }
  - { offset: 0x6C02C, size: 0x8, addend: 0x0, symName: '__ZN4core3ptr71drop_in_place$LT$std..sync..rwlock..RwLockReadGuard$LT$$LP$$RP$$GT$$GT$17h33a87c778f6ff8acE', symObjAddr: 0x3AF0, symBinAddr: 0x100027110, symSize: 0x44 }
  - { offset: 0x6C0DE, size: 0x8, addend: 0x0, symName: '__ZN4core3ptr72drop_in_place$LT$core..option..Option$LT$object..read..ObjectMap$GT$$GT$17h15a58a385d75b662E', symObjAddr: 0x3B34, symBinAddr: 0x100027154, symSize: 0x64 }
  - { offset: 0x6C223, size: 0x8, addend: 0x0, symName: '__ZN4core3ptr73drop_in_place$LT$core..option..Option$LT$std..process..ChildStdin$GT$$GT$17h1c52abee359a693fE', symObjAddr: 0x3B98, symBinAddr: 0x1000271B8, symSize: 0x24 }
  - { offset: 0x6C2A5, size: 0x8, addend: 0x0, symName: '__ZN4core3ptr75drop_in_place$LT$core..option..Option$LT$alloc..ffi..c_str..CString$GT$$GT$17h52c93e5af4b1ec14E', symObjAddr: 0x3BBC, symBinAddr: 0x1000271DC, symSize: 0x34 }
  - { offset: 0x6C33C, size: 0x8, addend: 0x0, symName: '__ZN4core3ptr77drop_in_place$LT$alloc..boxed..Box$LT$$u5b$alloc..string..String$u5d$$GT$$GT$17hb20cef3002c71789E', symObjAddr: 0x3BF0, symBinAddr: 0x100027210, symSize: 0x70 }
  - { offset: 0x6C353, size: 0x8, addend: 0x0, symName: '__ZN4core3ptr77drop_in_place$LT$alloc..boxed..Box$LT$$u5b$alloc..string..String$u5d$$GT$$GT$17hb20cef3002c71789E', symObjAddr: 0x3BF0, symBinAddr: 0x100027210, symSize: 0x70 }
  - { offset: 0x6C45F, size: 0x8, addend: 0x0, symName: '__ZN4core3ptr77drop_in_place$LT$std..panicking..begin_panic_handler..FormatStringPayload$GT$17h6ebba54a748b8d0eE', symObjAddr: 0x3C60, symBinAddr: 0x100027280, symSize: 0x34 }
  - { offset: 0x6C529, size: 0x8, addend: 0x0, symName: '__ZN4core3ptr77drop_in_place$LT$std..sys..pal..unix..process..process_common..ChildPipes$GT$17hf391d66dbdcd733dE', symObjAddr: 0x3C94, symBinAddr: 0x1000272B4, symSize: 0x78 }
  - { offset: 0x6C639, size: 0x8, addend: 0x0, symName: '__ZN4core3ptr77drop_in_place$LT$std..sys..pal..unix..process..process_common..StdioPipes$GT$17h184b157db316495bE', symObjAddr: 0x3D0C, symBinAddr: 0x10002732C, symSize: 0x54 }
  - { offset: 0x6C795, size: 0x8, addend: 0x0, symName: '__ZN4core3ptr78drop_in_place$LT$core..result..Result$LT$usize$C$std..io..error..Error$GT$$GT$17hbb84f5e706f52986E', symObjAddr: 0x3D60, symBinAddr: 0x100027380, symSize: 0x24 }
  - { offset: 0x6C7A9, size: 0x8, addend: 0x0, symName: '__ZN4core3ptr79drop_in_place$LT$std..sys..pal..unix..process..process_common..CStringArray$GT$17h95c7f0f7786fc7e5E', symObjAddr: 0x3D84, symBinAddr: 0x1000273A4, symSize: 0x94 }
  - { offset: 0x6C988, size: 0x8, addend: 0x0, symName: '__ZN4core3ptr81drop_in_place$LT$core..result..Result$LT$$LP$$RP$$C$std..io..error..Error$GT$$GT$17hbb03115a4eeb66a9E', symObjAddr: 0x3E18, symBinAddr: 0x100027438, symSize: 0x20 }
  - { offset: 0x6C99C, size: 0x8, addend: 0x0, symName: '__ZN4core3ptr84drop_in_place$LT$$LP$std..ffi..os_str..OsString$C$std..ffi..os_str..OsString$RP$$GT$17h8d473b7a70bf8406E', symObjAddr: 0x3E38, symBinAddr: 0x100027458, symSize: 0x4C }
  - { offset: 0x6CAF7, size: 0x8, addend: 0x0, symName: '__ZN4core3ptr84drop_in_place$LT$alloc..sync..ArcInner$LT$gimli..read..abbrev..Abbreviations$GT$$GT$17h09919f3cea72f38fE', symObjAddr: 0x3E84, symBinAddr: 0x1000274A4, symSize: 0x84 }
  - { offset: 0x6CCCF, size: 0x8, addend: 0x0, symName: '__ZN4core3ptr86drop_in_place$LT$core..result..Result$LT$addr2line..Lines$C$gimli..read..Error$GT$$GT$17h696468a68b624ac5E', symObjAddr: 0x3F08, symBinAddr: 0x100027528, symSize: 0xE4 }
  - { offset: 0x6CF31, size: 0x8, addend: 0x0, symName: '__ZN4core3ptr87drop_in_place$LT$alloc..sync..ArcInner$LT$std..sys..pal..unix..fs..InnerReadDir$GT$$GT$17hfabe36cee593aef6E', symObjAddr: 0x3FEC, symBinAddr: 0x10002760C, symSize: 0x60 }
  - { offset: 0x6D0E2, size: 0x8, addend: 0x0, symName: '__ZN4core3ptr87drop_in_place$LT$core..option..Option$LT$alloc..boxed..Box$LT$$u5b$u32$u5d$$GT$$GT$$GT$17hf51293850919e573E', symObjAddr: 0x404C, symBinAddr: 0x10002766C, symSize: 0x34 }
  - { offset: 0x6D1BE, size: 0x8, addend: 0x0, symName: '__ZN4core3ptr88drop_in_place$LT$alloc..vec..Vec$LT$std..backtrace_rs..symbolize..gimli..Library$GT$$GT$17hd7628073410dd88cE', symObjAddr: 0x4080, symBinAddr: 0x1000276A0, symSize: 0x98 }
  - { offset: 0x6D3B8, size: 0x8, addend: 0x0, symName: '__ZN4core3ptr88drop_in_place$LT$std..io..Write..write_fmt..Adapter$LT$alloc..vec..Vec$LT$u8$GT$$GT$$GT$17h0ba66fdde445a72aE', symObjAddr: 0x4118, symBinAddr: 0x100027738, symSize: 0x20 }
  - { offset: 0x6D3FE, size: 0x8, addend: 0x0, symName: '__ZN4core3ptr90drop_in_place$LT$std..io..buffered..bufwriter..BufWriter$LT$W$GT$..flush_buf..BufGuard$GT$17h754dc72f05aa7ca1E', symObjAddr: 0x4138, symBinAddr: 0x100027758, symSize: 0x60 }
  - { offset: 0x6D5A3, size: 0x8, addend: 0x0, symName: '__ZN4core3ptr91drop_in_place$LT$core..result..Result$LT$alloc..string..String$C$std..env..VarError$GT$$GT$17hbf7a65496cd0550fE', symObjAddr: 0x4198, symBinAddr: 0x1000277B8, symSize: 0x3C }
  - { offset: 0x6D650, size: 0x8, addend: 0x0, symName: '__ZN4core3ptr91drop_in_place$LT$core..result..Result$LT$std..path..PathBuf$C$std..io..error..Error$GT$$GT$17h737c67071e1fc1aeE', symObjAddr: 0x41D4, symBinAddr: 0x1000277F4, symSize: 0x40 }
  - { offset: 0x6D725, size: 0x8, addend: 0x0, symName: '__ZN4core3ptr92drop_in_place$LT$alloc..boxed..Box$LT$std..sys..sync..mutex..pthread..AllocatedMutex$GT$$GT$17h9dd5aab7a942150fE', symObjAddr: 0x4214, symBinAddr: 0x100027834, symSize: 0x2C }
  - { offset: 0x6D7C2, size: 0x8, addend: 0x0, symName: '__ZN4core3ptr95drop_in_place$LT$core..option..IntoIter$LT$std..backtrace_rs..symbolize..gimli..Library$GT$$GT$17h3a42cf7a46444decE', symObjAddr: 0x4240, symBinAddr: 0x100027860, symSize: 0x5C }
  - { offset: 0x6D7E0, size: 0x8, addend: 0x0, symName: '__ZN4core3ptr95drop_in_place$LT$core..option..IntoIter$LT$std..backtrace_rs..symbolize..gimli..Library$GT$$GT$17h3a42cf7a46444decE', symObjAddr: 0x4240, symBinAddr: 0x100027860, symSize: 0x5C }
  - { offset: 0x6D7F5, size: 0x8, addend: 0x0, symName: '__ZN4core3ptr95drop_in_place$LT$core..option..IntoIter$LT$std..backtrace_rs..symbolize..gimli..Library$GT$$GT$17h3a42cf7a46444decE', symObjAddr: 0x4240, symBinAddr: 0x100027860, symSize: 0x5C }
  - { offset: 0x6D95E, size: 0x8, addend: 0x0, symName: '__ZN4core3ptr95drop_in_place$LT$std..io..buffered..linewriter..LineWriter$LT$std..io..stdio..StdoutRaw$GT$$GT$17hd24c1063f9cfa17bE', symObjAddr: 0x429C, symBinAddr: 0x1000278BC, symSize: 0xF0 }
  - { offset: 0x716BB, size: 0x8, addend: 0x0, symName: __ZN4core5slice4sort6shared5pivot11median3_rec17h001c9adca1ce03d7E, symObjAddr: 0x4658, symBinAddr: 0x100027B64, symSize: 0xD0 }
  - { offset: 0x717B6, size: 0x8, addend: 0x0, symName: __ZN4core5slice4sort6shared5pivot11median3_rec17h37b7dffe14755907E, symObjAddr: 0x4728, symBinAddr: 0x100027C34, symSize: 0xCC }
  - { offset: 0x718B1, size: 0x8, addend: 0x0, symName: __ZN4core5slice4sort6shared5pivot11median3_rec17h3e2c744abf11ed91E, symObjAddr: 0x47F4, symBinAddr: 0x100027D00, symSize: 0xD0 }
  - { offset: 0x719AC, size: 0x8, addend: 0x0, symName: __ZN4core5slice4sort6shared5pivot11median3_rec17h46f11f9d50e51431E, symObjAddr: 0x48C4, symBinAddr: 0x100027DD0, symSize: 0x134 }
  - { offset: 0x71BD3, size: 0x8, addend: 0x0, symName: __ZN4core5slice4sort6shared5pivot11median3_rec17h5170fde408f06997E, symObjAddr: 0x49F8, symBinAddr: 0x100027F04, symSize: 0x11C }
  - { offset: 0x71CD2, size: 0x8, addend: 0x0, symName: __ZN4core5slice4sort6shared5pivot11median3_rec17h992825939e560474E, symObjAddr: 0x4B14, symBinAddr: 0x100028020, symSize: 0xCC }
  - { offset: 0x71E23, size: 0x8, addend: 0x0, symName: __ZN4core5slice4sort6shared5pivot11median3_rec17hd01de3caf36e971aE, symObjAddr: 0x4BE0, symBinAddr: 0x1000280EC, symSize: 0xD0 }
  - { offset: 0x71F1E, size: 0x8, addend: 0x0, symName: __ZN4core5slice4sort6shared5pivot11median3_rec17hebd71e6e10af7f96E, symObjAddr: 0x4CB0, symBinAddr: 0x1000281BC, symSize: 0xCC }
  - { offset: 0x720F0, size: 0x8, addend: 0x0, symName: __ZN4core5slice4sort6shared9smallsort12sort4_stable17h500d0959a0c776afE, symObjAddr: 0x4D7C, symBinAddr: 0x100028288, symSize: 0x1B4 }
  - { offset: 0x7229B, size: 0x8, addend: 0x0, symName: __ZN4core5slice4sort6shared9smallsort12sort4_stable17h575b1b9a90e5d5d6E, symObjAddr: 0x4F30, symBinAddr: 0x10002843C, symSize: 0x180 }
  - { offset: 0x726BD, size: 0x8, addend: 0x0, symName: __ZN4core5slice4sort6shared9smallsort12sort8_stable17hf52532f2ad9efec4E, symObjAddr: 0x50B0, symBinAddr: 0x1000285BC, symSize: 0x2B8 }
  - { offset: 0x72C46, size: 0x8, addend: 0x0, symName: __ZN4core5slice4sort6shared9smallsort18small_sort_general17h1b187870bc21ec9cE, symObjAddr: 0x5368, symBinAddr: 0x100028874, symSize: 0x3E0 }
  - { offset: 0x731A1, size: 0x8, addend: 0x0, symName: __ZN4core5slice4sort6shared9smallsort18small_sort_general17hf99124f86d438951E, symObjAddr: 0x5748, symBinAddr: 0x100028C54, symSize: 0x490 }
  - { offset: 0x73B8C, size: 0x8, addend: 0x0, symName: __ZN4core5slice4sort6stable14driftsort_main17h336c0b6e9b4b9d03E, symObjAddr: 0x5BD8, symBinAddr: 0x1000290E4, symSize: 0x14C }
  - { offset: 0x73EC8, size: 0x8, addend: 0x0, symName: __ZN4core5slice4sort6stable14driftsort_main17h5acccd599c2d49beE, symObjAddr: 0x5D24, symBinAddr: 0x100029230, symSize: 0x14C }
  - { offset: 0x74204, size: 0x8, addend: 0x0, symName: __ZN4core5slice4sort6stable14driftsort_main17h7c78856ad3a60825E, symObjAddr: 0x5E70, symBinAddr: 0x10002937C, symSize: 0x134 }
  - { offset: 0x744EA, size: 0x8, addend: 0x0, symName: __ZN4core5slice4sort6stable14driftsort_main17h84941de99c019b23E, symObjAddr: 0x5FA4, symBinAddr: 0x1000294B0, symSize: 0x134 }
  - { offset: 0x7474E, size: 0x8, addend: 0x0, symName: __ZN4core5slice4sort6stable14driftsort_main17ha2d4c6ddba5a32c0E, symObjAddr: 0x60D8, symBinAddr: 0x1000295E4, symSize: 0x134 }
  - { offset: 0x74A34, size: 0x8, addend: 0x0, symName: __ZN4core5slice4sort6stable14driftsort_main17hd36e3da279c0caf2E, symObjAddr: 0x620C, symBinAddr: 0x100029718, symSize: 0x134 }
  - { offset: 0x74F0B, size: 0x8, addend: 0x0, symName: __ZN4core5slice4sort6stable5drift4sort17h0910c22a7aed7d80E, symObjAddr: 0x6340, symBinAddr: 0x10002984C, symSize: 0x53C }
  - { offset: 0x7562E, size: 0x8, addend: 0x0, symName: __ZN4core5slice4sort6stable5drift4sort17h332562468c2be195E, symObjAddr: 0x687C, symBinAddr: 0x100029D88, symSize: 0x618 }
  - { offset: 0x75D02, size: 0x8, addend: 0x0, symName: __ZN4core5slice4sort6stable5drift4sort17h71452eb72df08de3E, symObjAddr: 0x6E94, symBinAddr: 0x10002A3A0, symSize: 0x6DC }
  - { offset: 0x76423, size: 0x8, addend: 0x0, symName: __ZN4core5slice4sort6stable5drift4sort17h783f7383454d67d0E, symObjAddr: 0x7570, symBinAddr: 0x10002AA7C, symSize: 0x4DC }
  - { offset: 0x76ABE, size: 0x8, addend: 0x0, symName: __ZN4core5slice4sort6stable5drift4sort17ha690b9c547494817E, symObjAddr: 0x7A4C, symBinAddr: 0x10002AF58, symSize: 0x5A8 }
  - { offset: 0x7717E, size: 0x8, addend: 0x0, symName: __ZN4core5slice4sort6stable5drift4sort17heeed68b538603972E, symObjAddr: 0x7FF4, symBinAddr: 0x10002B500, symSize: 0x5B0 }
  - { offset: 0x77A6A, size: 0x8, addend: 0x0, symName: __ZN4core5slice4sort6stable9quicksort9quicksort17h07609bc7b46cc4c3E, symObjAddr: 0x85A4, symBinAddr: 0x10002BAB0, symSize: 0x80C }
  - { offset: 0x78631, size: 0x8, addend: 0x0, symName: __ZN4core5slice4sort6stable9quicksort9quicksort17h2208f4fd7ef38689E, symObjAddr: 0x8DB0, symBinAddr: 0x10002C2BC, symSize: 0x730 }
  - { offset: 0x78D4D, size: 0x8, addend: 0x0, symName: __ZN4core5slice4sort6stable9quicksort9quicksort17h698d50eee9524539E, symObjAddr: 0x94E0, symBinAddr: 0x10002C9EC, symSize: 0x7F0 }
  - { offset: 0x79914, size: 0x8, addend: 0x0, symName: __ZN4core5slice4sort6stable9quicksort9quicksort17h71557a9ccb20f345E, symObjAddr: 0x9CD0, symBinAddr: 0x10002D1DC, symSize: 0x6BC }
  - { offset: 0x7A39B, size: 0x8, addend: 0x0, symName: __ZN4core5slice4sort6stable9quicksort9quicksort17h7d18675e56ccfb08E, symObjAddr: 0xA38C, symBinAddr: 0x10002D898, symSize: 0x81C }
  - { offset: 0x7B456, size: 0x8, addend: 0x0, symName: __ZN4core5slice4sort6stable9quicksort9quicksort17ha6ab4781e3122c0bE, symObjAddr: 0xABA8, symBinAddr: 0x10002E0B4, symSize: 0x6E4 }
  - { offset: 0x7BF18, size: 0x8, addend: 0x0, symName: __ZN4core5slice4sort8unstable7ipnsort17h0c1df14bd3af3f85E, symObjAddr: 0xB28C, symBinAddr: 0x10002E798, symSize: 0x288 }
  - { offset: 0x7C1AA, size: 0x8, addend: 0x0, symName: __ZN4core5slice4sort8unstable7ipnsort17h1f03437c860126fdE, symObjAddr: 0xB514, symBinAddr: 0x10002EA20, symSize: 0x1E4 }
  - { offset: 0x7C2CD, size: 0x8, addend: 0x0, symName: __ZN4core5slice4sort8unstable8heapsort8heapsort17h6c6484d3e7d22d28E, symObjAddr: 0xB6F8, symBinAddr: 0x10002EC04, symSize: 0x160 }
  - { offset: 0x7C5DF, size: 0x8, addend: 0x0, symName: __ZN4core5slice4sort8unstable8heapsort8heapsort17hc2e0562e52d73606E, symObjAddr: 0xB858, symBinAddr: 0x10002ED64, symSize: 0x10C }
  - { offset: 0x7C870, size: 0x8, addend: 0x0, symName: __ZN4core5slice4sort8unstable9quicksort9quicksort17h340ba531f4e54d1bE, symObjAddr: 0xB964, symBinAddr: 0x10002EE70, symSize: 0x5B4 }
  - { offset: 0x7D49B, size: 0x8, addend: 0x0, symName: __ZN4core5slice4sort8unstable9quicksort9quicksort17h91c5d9a2f27051c0E, symObjAddr: 0xBF18, symBinAddr: 0x10002F424, symSize: 0x440 }
  - { offset: 0x7DECC, size: 0x8, addend: 0x0, symName: '__ZN36_$LT$T$u20$as$u20$core..any..Any$GT$7type_id17h05f8617bbf325208E', symObjAddr: 0x13C, symBinAddr: 0x10002375C, symSize: 0x30 }
  - { offset: 0x7DEE6, size: 0x8, addend: 0x0, symName: '__ZN36_$LT$T$u20$as$u20$core..any..Any$GT$7type_id17h691ab2dff0fbe812E', symObjAddr: 0x16C, symBinAddr: 0x10002378C, symSize: 0x30 }
  - { offset: 0x7DF00, size: 0x8, addend: 0x0, symName: '__ZN36_$LT$T$u20$as$u20$core..any..Any$GT$7type_id17h9ca45d236155799cE', symObjAddr: 0x19C, symBinAddr: 0x1000237BC, symSize: 0x30 }
  - { offset: 0x7DF9C, size: 0x8, addend: 0x0, symName: '__ZN41_$LT$bool$u20$as$u20$core..fmt..Debug$GT$3fmt17h9e9b2eff902fdd93E', symObjAddr: 0x1CC, symBinAddr: 0x1000237EC, symSize: 0x10 }
  - { offset: 0x7DFBD, size: 0x8, addend: 0x0, symName: '__ZN42_$LT$$RF$T$u20$as$u20$core..fmt..Debug$GT$3fmt17h0c83902e8ea752acE', symObjAddr: 0x1DC, symBinAddr: 0x1000237FC, symSize: 0x58 }
  - { offset: 0x7DFEE, size: 0x8, addend: 0x0, symName: '__ZN42_$LT$$RF$T$u20$as$u20$core..fmt..Debug$GT$3fmt17h177df7372056bd30E', symObjAddr: 0x234, symBinAddr: 0x100023854, symSize: 0x30 }
  - { offset: 0x7E034, size: 0x8, addend: 0x0, symName: '__ZN42_$LT$$RF$T$u20$as$u20$core..fmt..Debug$GT$3fmt17h178dbf31caae2ffeE', symObjAddr: 0x264, symBinAddr: 0x100023884, symSize: 0x78 }
  - { offset: 0x7E0F3, size: 0x8, addend: 0x0, symName: '__ZN42_$LT$$RF$T$u20$as$u20$core..fmt..Debug$GT$3fmt17h245b5f550df0d893E', symObjAddr: 0x2DC, symBinAddr: 0x1000238FC, symSize: 0xC8 }
  - { offset: 0x7E11D, size: 0x8, addend: 0x0, symName: '__ZN42_$LT$$RF$T$u20$as$u20$core..fmt..Debug$GT$3fmt17h2b4369e16ec214b1E', symObjAddr: 0x3A4, symBinAddr: 0x1000239C4, symSize: 0x74 }
  - { offset: 0x7E26D, size: 0x8, addend: 0x0, symName: '__ZN42_$LT$$RF$T$u20$as$u20$core..fmt..Debug$GT$3fmt17h2f7cb0653a474c6fE', symObjAddr: 0x418, symBinAddr: 0x100023A38, symSize: 0x9C }
  - { offset: 0x7E317, size: 0x8, addend: 0x0, symName: '__ZN42_$LT$$RF$T$u20$as$u20$core..fmt..Debug$GT$3fmt17h3b4c7e82f91c2851E', symObjAddr: 0x4B4, symBinAddr: 0x100023AD4, symSize: 0x14 }
  - { offset: 0x7E332, size: 0x8, addend: 0x0, symName: '__ZN42_$LT$$RF$T$u20$as$u20$core..fmt..Debug$GT$3fmt17h3e34b492a7e96395E', symObjAddr: 0x4C8, symBinAddr: 0x100023AE8, symSize: 0x64 }
  - { offset: 0x7E363, size: 0x8, addend: 0x0, symName: '__ZN42_$LT$$RF$T$u20$as$u20$core..fmt..Debug$GT$3fmt17h46a456e504746f37E', symObjAddr: 0x52C, symBinAddr: 0x100023B4C, symSize: 0x14 }
  - { offset: 0x7E37E, size: 0x8, addend: 0x0, symName: '__ZN42_$LT$$RF$T$u20$as$u20$core..fmt..Debug$GT$3fmt17h6017eb553f555eeaE', symObjAddr: 0x540, symBinAddr: 0x100023B60, symSize: 0x30 }
  - { offset: 0x7E3D2, size: 0x8, addend: 0x0, symName: '__ZN42_$LT$$RF$T$u20$as$u20$core..fmt..Debug$GT$3fmt17h6fe4a21a5a9dc639E', symObjAddr: 0x570, symBinAddr: 0x100023B90, symSize: 0x1C }
  - { offset: 0x7E403, size: 0x8, addend: 0x0, symName: '__ZN42_$LT$$RF$T$u20$as$u20$core..fmt..Debug$GT$3fmt17h7483ad4d5a6f3c17E', symObjAddr: 0x58C, symBinAddr: 0x100023BAC, symSize: 0x44 }
  - { offset: 0x7E434, size: 0x8, addend: 0x0, symName: '__ZN42_$LT$$RF$T$u20$as$u20$core..fmt..Debug$GT$3fmt17h77a5695ac77f08b5E', symObjAddr: 0x5D0, symBinAddr: 0x100023BF0, symSize: 0x4C }
  - { offset: 0x7E4A3, size: 0x8, addend: 0x0, symName: '__ZN42_$LT$$RF$T$u20$as$u20$core..fmt..Debug$GT$3fmt17h85d76e334d46ea19E', symObjAddr: 0x61C, symBinAddr: 0x100023C3C, symSize: 0x1C }
  - { offset: 0x7E4D4, size: 0x8, addend: 0x0, symName: '__ZN42_$LT$$RF$T$u20$as$u20$core..fmt..Debug$GT$3fmt17h9393fbad5eb3bf13E', symObjAddr: 0x638, symBinAddr: 0x100023C58, symSize: 0x1C }
  - { offset: 0x7E4F6, size: 0x8, addend: 0x0, symName: '__ZN42_$LT$$RF$T$u20$as$u20$core..fmt..Debug$GT$3fmt17h97369a355d5a0815E', symObjAddr: 0x654, symBinAddr: 0x100023C74, symSize: 0x74 }
  - { offset: 0x7E5B5, size: 0x8, addend: 0x0, symName: '__ZN42_$LT$$RF$T$u20$as$u20$core..fmt..Debug$GT$3fmt17h9b3910cf5098e39aE', symObjAddr: 0x6C8, symBinAddr: 0x100023CE8, symSize: 0x30 }
  - { offset: 0x7E5FB, size: 0x8, addend: 0x0, symName: '__ZN42_$LT$$RF$T$u20$as$u20$core..fmt..Debug$GT$3fmt17hab1bf34c3776e549E', symObjAddr: 0x6F8, symBinAddr: 0x100023D18, symSize: 0x38 }
  - { offset: 0x7E62C, size: 0x8, addend: 0x0, symName: '__ZN42_$LT$$RF$T$u20$as$u20$core..fmt..Debug$GT$3fmt17hb5e58b4cf471debeE', symObjAddr: 0x730, symBinAddr: 0x100023D50, symSize: 0x30 }
  - { offset: 0x7E672, size: 0x8, addend: 0x0, symName: '__ZN42_$LT$$RF$T$u20$as$u20$core..fmt..Debug$GT$3fmt17hba34b26fb7987f8bE', symObjAddr: 0x760, symBinAddr: 0x100023D80, symSize: 0x64 }
  - { offset: 0x7E6A3, size: 0x8, addend: 0x0, symName: '__ZN42_$LT$$RF$T$u20$as$u20$core..fmt..Debug$GT$3fmt17hbd10464c890b4696E', symObjAddr: 0x7C4, symBinAddr: 0x100023DE4, symSize: 0x14 }
  - { offset: 0x7E6BE, size: 0x8, addend: 0x0, symName: '__ZN42_$LT$$RF$T$u20$as$u20$core..fmt..Debug$GT$3fmt17hbeb26db500e53543E', symObjAddr: 0x7D8, symBinAddr: 0x100023DF8, symSize: 0x1C }
  - { offset: 0x7E6D9, size: 0x8, addend: 0x0, symName: '__ZN42_$LT$$RF$T$u20$as$u20$core..fmt..Debug$GT$3fmt17hc36902adef03794fE', symObjAddr: 0x7F4, symBinAddr: 0x100023E14, symSize: 0x70 }
  - { offset: 0x7E70A, size: 0x8, addend: 0x0, symName: '__ZN42_$LT$$RF$T$u20$as$u20$core..fmt..Debug$GT$3fmt17hc56882e380cb3f1cE', symObjAddr: 0x864, symBinAddr: 0x100023E84, symSize: 0x144 }
  - { offset: 0x7E749, size: 0x8, addend: 0x0, symName: '__ZN42_$LT$$RF$T$u20$as$u20$core..fmt..Debug$GT$3fmt17hd3ffafe468f6f39dE', symObjAddr: 0x9A8, symBinAddr: 0x100023FC8, symSize: 0x2C }
  - { offset: 0x7E7BB, size: 0x8, addend: 0x0, symName: '__ZN42_$LT$$RF$T$u20$as$u20$core..fmt..Debug$GT$3fmt17hd6fff32b815d6c00E', symObjAddr: 0x9D4, symBinAddr: 0x100023FF4, symSize: 0x74 }
  - { offset: 0x7E7EC, size: 0x8, addend: 0x0, symName: '__ZN42_$LT$$RF$T$u20$as$u20$core..fmt..Debug$GT$3fmt17hd793938e439b1e01E', symObjAddr: 0xA48, symBinAddr: 0x100024068, symSize: 0x38 }
  - { offset: 0x7E81D, size: 0x8, addend: 0x0, symName: '__ZN42_$LT$$RF$T$u20$as$u20$core..fmt..Debug$GT$3fmt17hd81565514df3c78bE', symObjAddr: 0xA80, symBinAddr: 0x1000240A0, symSize: 0x6C }
  - { offset: 0x7E84E, size: 0x8, addend: 0x0, symName: '__ZN42_$LT$$RF$T$u20$as$u20$core..fmt..Debug$GT$3fmt17hee44d9bace0a9d8dE', symObjAddr: 0xAEC, symBinAddr: 0x10002410C, symSize: 0x68 }
  - { offset: 0x7E87F, size: 0x8, addend: 0x0, symName: '__ZN42_$LT$$RF$T$u20$as$u20$core..fmt..Debug$GT$3fmt17hf09abca958d0012bE', symObjAddr: 0xB54, symBinAddr: 0x100024174, symSize: 0x2C }
  - { offset: 0x7E9B5, size: 0x8, addend: 0x0, symName: '__ZN42_$LT$$RF$T$u20$as$u20$core..fmt..Debug$GT$3fmt17hf8e4e8e01235cb62E', symObjAddr: 0xB80, symBinAddr: 0x1000241A0, symSize: 0x38 }
  - { offset: 0x7E9E6, size: 0x8, addend: 0x0, symName: '__ZN42_$LT$$RF$T$u20$as$u20$core..fmt..Debug$GT$3fmt17hf9f0136a72e97d04E', symObjAddr: 0xBB8, symBinAddr: 0x1000241D8, symSize: 0x20 }
  - { offset: 0x7EACF, size: 0x8, addend: 0x0, symName: '__ZN4core3fmt3num52_$LT$impl$u20$core..fmt..Debug$u20$for$u20$usize$GT$3fmt17hbcf940b80966635eE', symObjAddr: 0xD58, symBinAddr: 0x100024378, symSize: 0x2C }
  - { offset: 0x7EB0B, size: 0x8, addend: 0x0, symName: '__ZN4core3fmt3num50_$LT$impl$u20$core..fmt..Debug$u20$for$u20$i32$GT$3fmt17hd380ad7a4fef2800E', symObjAddr: 0xCA8, symBinAddr: 0x1000242C8, symSize: 0x2C }
  - { offset: 0x7EB47, size: 0x8, addend: 0x0, symName: '__ZN4core3fmt3num50_$LT$impl$u20$core..fmt..Debug$u20$for$u20$u64$GT$3fmt17hcf93b17fc1abb0a9E', symObjAddr: 0xD2C, symBinAddr: 0x10002434C, symSize: 0x2C }
  - { offset: 0x7EB83, size: 0x8, addend: 0x0, symName: '__ZN4core3fmt3num49_$LT$impl$u20$core..fmt..Debug$u20$for$u20$u8$GT$3fmt17hdc70f7e91b6e92feE', symObjAddr: 0xC7C, symBinAddr: 0x10002429C, symSize: 0x2C }
  - { offset: 0x7EBBF, size: 0x8, addend: 0x0, symName: '__ZN4core3fmt3num50_$LT$impl$u20$core..fmt..Debug$u20$for$u20$u32$GT$3fmt17h20423420560f3e4aE', symObjAddr: 0xD00, symBinAddr: 0x100024320, symSize: 0x2C }
  - { offset: 0x7EBEE, size: 0x8, addend: 0x0, symName: '__ZN4core3fmt3num50_$LT$impl$u20$core..fmt..Debug$u20$for$u20$i64$GT$3fmt17hec167f918c8ef705E', symObjAddr: 0xCD4, symBinAddr: 0x1000242F4, symSize: 0x2C }
  - { offset: 0x7ED0E, size: 0x8, addend: 0x0, symName: '__ZN50_$LT$$LP$U$C$T$RP$$u20$as$u20$core..fmt..Debug$GT$3fmt17h98d36de4e34baa2eE', symObjAddr: 0xC420, symBinAddr: 0x10002F878, symSize: 0x74 }
  - { offset: 0x7ED3D, size: 0x8, addend: 0x0, symName: '__ZN45_$LT$$LP$$RP$$u20$as$u20$core..fmt..Debug$GT$3fmt17h51ca4bbc42111efeE', symObjAddr: 0xC5C, symBinAddr: 0x10002427C, symSize: 0x20 }
  - { offset: 0x7ED57, size: 0x8, addend: 0x0, symName: '__ZN44_$LT$$RF$T$u20$as$u20$core..fmt..Display$GT$3fmt17h78eac1383a7063d7E', symObjAddr: 0xBD8, symBinAddr: 0x1000241F8, symSize: 0x1C }
  - { offset: 0x7ED72, size: 0x8, addend: 0x0, symName: '__ZN44_$LT$$RF$T$u20$as$u20$core..fmt..Display$GT$3fmt17hcf9db2113d250371E', symObjAddr: 0xBF4, symBinAddr: 0x100024214, symSize: 0x68 }
  - { offset: 0x7F3AC, size: 0x8, addend: 0x0, symName: __ZN4core3fmt5Write10write_char17h4f2ce982b115088dE, symObjAddr: 0xD84, symBinAddr: 0x1000243A4, symSize: 0x17C }
  - { offset: 0x7F536, size: 0x8, addend: 0x0, symName: __ZN4core3fmt5Write10write_char17h561dbab5b5c32ca3E, symObjAddr: 0xF00, symBinAddr: 0x100024520, symSize: 0x140 }
  - { offset: 0x7F59C, size: 0x8, addend: 0x0, symName: __ZN4core3fmt5Write10write_char17h5faeed758c2200efE, symObjAddr: 0x1040, symBinAddr: 0x100024660, symSize: 0x128 }
  - { offset: 0x7F734, size: 0x8, addend: 0x0, symName: __ZN4core3fmt5Write10write_char17h902297fe9019c92dE, symObjAddr: 0x1168, symBinAddr: 0x100024788, symSize: 0x17C }
  - { offset: 0x7F8BE, size: 0x8, addend: 0x0, symName: __ZN4core3fmt5Write10write_char17hc47f3f15ef1db82aE, symObjAddr: 0x12E4, symBinAddr: 0x100024904, symSize: 0x140 }
  - { offset: 0x7F97E, size: 0x8, addend: 0x0, symName: __ZN4core3fmt5Write9write_fmt17h273b6f5d029be9e0E, symObjAddr: 0x1424, symBinAddr: 0x100024A44, symSize: 0x1C }
  - { offset: 0x7F9AD, size: 0x8, addend: 0x0, symName: __ZN4core3fmt5Write9write_fmt17h4a87f4fec52c05fcE, symObjAddr: 0x1440, symBinAddr: 0x100024A60, symSize: 0x1C }
  - { offset: 0x7F9DC, size: 0x8, addend: 0x0, symName: __ZN4core3fmt5Write9write_fmt17h710862463af65ce5E, symObjAddr: 0x145C, symBinAddr: 0x100024A7C, symSize: 0x1C }
  - { offset: 0x7FA0B, size: 0x8, addend: 0x0, symName: __ZN4core3fmt5Write9write_fmt17hb8ba3d0d23b58844E, symObjAddr: 0x1478, symBinAddr: 0x100024A98, symSize: 0x1C }
  - { offset: 0x7FA3A, size: 0x8, addend: 0x0, symName: __ZN4core3fmt5Write9write_fmt17hc8a95e3c90fe4721E, symObjAddr: 0x1494, symBinAddr: 0x100024AB4, symSize: 0x1C }
  - { offset: 0x7FA69, size: 0x8, addend: 0x0, symName: __ZN4core3fmt5Write9write_fmt17he65f057c4ddb1bf2E, symObjAddr: 0x14B0, symBinAddr: 0x100024AD0, symSize: 0x1C }
  - { offset: 0x7FAC6, size: 0x8, addend: 0x0, symName: '__ZN50_$LT$$BP$mut$u20$T$u20$as$u20$core..fmt..Debug$GT$3fmt17he21299819320e252E', symObjAddr: 0xC40C, symBinAddr: 0x10002F864, symSize: 0x14 }
  - { offset: 0x7FB13, size: 0x8, addend: 0x0, symName: '__ZN52_$LT$$RF$mut$u20$T$u20$as$u20$core..fmt..Display$GT$3fmt17h7c765da0058d0c3fE', symObjAddr: 0xC494, symBinAddr: 0x10002F8EC, symSize: 0x1C }
  - { offset: 0x7FB48, size: 0x8, addend: 0x0, symName: '__ZN4core5array69_$LT$impl$u20$core..fmt..Debug$u20$for$u20$$u5b$T$u3b$$u20$N$u5d$$GT$3fmt17h82acd2cb7f141bddE', symObjAddr: 0x44A0, symBinAddr: 0x1000279AC, symSize: 0xFC }
  - { offset: 0x80241, size: 0x8, addend: 0x0, symName: '__ZN73_$LT$core..num..nonzero..NonZero$LT$T$GT$$u20$as$u20$core..fmt..Debug$GT$3fmt17hddcefe0dccb396cdE', symObjAddr: 0x18488, symBinAddr: 0x10003B7FC, symSize: 0x48 }
  - { offset: 0x8088B, size: 0x8, addend: 0x0, symName: '__ZN70_$LT$core..num..error..TryFromIntError$u20$as$u20$core..fmt..Debug$GT$3fmt17hd581645ad523dbd4E', symObjAddr: 0x1842C, symBinAddr: 0x10003B7A0, symSize: 0x40 }
  - { offset: 0x808AB, size: 0x8, addend: 0x0, symName: '__ZN72_$LT$core..num..error..TryFromIntError$u20$as$u20$core..error..Error$GT$11description17h6516769c44e1ac39E', symObjAddr: 0x1846C, symBinAddr: 0x10003B7E0, symSize: 0x1C }
  - { offset: 0x80B17, size: 0x8, addend: 0x0, symName: '__ZN55_$LT$$RF$str$u20$as$u20$core..str..pattern..Pattern$GT$15is_contained_in17h61deb4b8b00e9356E', symObjAddr: 0xC4B0, symBinAddr: 0x10002F908, symSize: 0x3BC }
  - { offset: 0x80FFB, size: 0x8, addend: 0x0, symName: __ZN4core5panic12PanicPayload6as_str17h7a58625bedad2dd7E, symObjAddr: 0x4644, symBinAddr: 0x100027B50, symSize: 0x14 }
  - { offset: 0x82895, size: 0x8, addend: 0x0, symName: __ZN4core3ops8function2Fn4call17h5a9d1a4a112cc64dE, symObjAddr: 0x14CC, symBinAddr: 0x100024AEC, symSize: 0x14 }
  - { offset: 0x828B5, size: 0x8, addend: 0x0, symName: __ZN4core3ops8function5FnMut8call_mut17h9b398cd5398202c3E, symObjAddr: 0x14E0, symBinAddr: 0x100024B00, symSize: 0x14 }
  - { offset: 0x82916, size: 0x8, addend: 0x0, symName: '__ZN4core3ops8function6FnOnce40call_once$u7b$$u7b$vtable.shim$u7d$$u7d$17h0eb852fd7c380454E', symObjAddr: 0x14F4, symBinAddr: 0x100024B14, symSize: 0x18 }
  - { offset: 0x82967, size: 0x8, addend: 0x0, symName: '__ZN4core3ops8function6FnOnce40call_once$u7b$$u7b$vtable.shim$u7d$$u7d$17h1e3c31538c4557bcE', symObjAddr: 0x150C, symBinAddr: 0x100024B2C, symSize: 0x74 }
  - { offset: 0x82AE0, size: 0x8, addend: 0x0, symName: '__ZN4core3ops8function6FnOnce40call_once$u7b$$u7b$vtable.shim$u7d$$u7d$17h2d847a7cd888d5d5E', symObjAddr: 0x1580, symBinAddr: 0x100024BA0, symSize: 0x18 }
  - { offset: 0x82B31, size: 0x8, addend: 0x0, symName: '__ZN4core3ops8function6FnOnce40call_once$u7b$$u7b$vtable.shim$u7d$$u7d$17h3750d9ec770c10b1E', symObjAddr: 0x1598, symBinAddr: 0x100024BB8, symSize: 0xB0 }
  - { offset: 0x82C82, size: 0x8, addend: 0x0, symName: '__ZN4core3ops8function6FnOnce40call_once$u7b$$u7b$vtable.shim$u7d$$u7d$17h4dab06bdd193d52eE', symObjAddr: 0x1648, symBinAddr: 0x100024C68, symSize: 0x14 }
  - { offset: 0x82CBE, size: 0x8, addend: 0x0, symName: '__ZN4core3ops8function6FnOnce40call_once$u7b$$u7b$vtable.shim$u7d$$u7d$17h5e1873a29e148d92E', symObjAddr: 0x165C, symBinAddr: 0x100024C7C, symSize: 0x18 }
  - { offset: 0x82CFA, size: 0x8, addend: 0x0, symName: '__ZN4core3ops8function6FnOnce40call_once$u7b$$u7b$vtable.shim$u7d$$u7d$17h921122b90dd376f4E', symObjAddr: 0x1674, symBinAddr: 0x100024C94, symSize: 0x28 }
  - { offset: 0x82D36, size: 0x8, addend: 0x0, symName: '__ZN4core3ops8function6FnOnce40call_once$u7b$$u7b$vtable.shim$u7d$$u7d$17ha9e675c9b3024f0cE', symObjAddr: 0x169C, symBinAddr: 0x100024CBC, symSize: 0x10 }
  - { offset: 0x82D72, size: 0x8, addend: 0x0, symName: '__ZN4core3ops8function6FnOnce40call_once$u7b$$u7b$vtable.shim$u7d$$u7d$17hb3bffd20ef83a1afE', symObjAddr: 0x16AC, symBinAddr: 0x100024CCC, symSize: 0x78 }
  - { offset: 0x82F07, size: 0x8, addend: 0x0, symName: '__ZN4core3ops8function6FnOnce40call_once$u7b$$u7b$vtable.shim$u7d$$u7d$17hce554f1a6421566bE', symObjAddr: 0x1724, symBinAddr: 0x100024D44, symSize: 0x28 }
  - { offset: 0x82F43, size: 0x8, addend: 0x0, symName: '__ZN4core3ops8function6FnOnce40call_once$u7b$$u7b$vtable.shim$u7d$$u7d$17hd3f4c9f3cd25c962E', symObjAddr: 0x174C, symBinAddr: 0x100024D6C, symSize: 0xA4 }
  - { offset: 0x83089, size: 0x8, addend: 0x0, symName: '__ZN4core3ops8function6FnOnce40call_once$u7b$$u7b$vtable.shim$u7d$$u7d$17hd455b8914116fed3E', symObjAddr: 0x17F0, symBinAddr: 0x100024E10, symSize: 0x10 }
  - { offset: 0x830C5, size: 0x8, addend: 0x0, symName: '__ZN4core3ops8function6FnOnce40call_once$u7b$$u7b$vtable.shim$u7d$$u7d$17hedaaa27097ec661bE', symObjAddr: 0x1800, symBinAddr: 0x100024E20, symSize: 0x60 }
  - { offset: 0x831D4, size: 0x8, addend: 0x0, symName: '__ZN4core3ops8function6FnOnce40call_once$u7b$$u7b$vtable.shim$u7d$$u7d$17hf3f69d97b1da84c4E', symObjAddr: 0x1860, symBinAddr: 0x100024E80, symSize: 0x28 }
  - { offset: 0x87327, size: 0x8, addend: 0x0, symName: '__ZN4core4cell4once17OnceCell$LT$T$GT$8try_init17hc4adabb9fa3e8a4dE', symObjAddr: 0x438C, symBinAddr: 0x1000ABE10, symSize: 0x114 }
  - { offset: 0x87901, size: 0x8, addend: 0x0, symName: __ZN4core5error5Error5cause17he5f5866634b34abeE, symObjAddr: 0x459C, symBinAddr: 0x100027AA8, symSize: 0x14 }
  - { offset: 0x8791B, size: 0x8, addend: 0x0, symName: __ZN4core5error5Error5cause17hed71aa76d36b00cbE, symObjAddr: 0x45B0, symBinAddr: 0x100027ABC, symSize: 0x14 }
  - { offset: 0x87935, size: 0x8, addend: 0x0, symName: __ZN4core5error5Error7provide17hbb88aaecb7888c77E, symObjAddr: 0x45C4, symBinAddr: 0x100027AD0, symSize: 0x10 }
  - { offset: 0x8794F, size: 0x8, addend: 0x0, symName: __ZN4core5error5Error7provide17hd090dbf8d04f3e78E, symObjAddr: 0x45D4, symBinAddr: 0x100027AE0, symSize: 0x10 }
  - { offset: 0x87969, size: 0x8, addend: 0x0, symName: __ZN4core5error5Error7type_id17h9bbf77c273b002ecE, symObjAddr: 0x45E4, symBinAddr: 0x100027AF0, symSize: 0x30 }
  - { offset: 0x87983, size: 0x8, addend: 0x0, symName: __ZN4core5error5Error7type_id17hcb9f32e88d3ef938E, symObjAddr: 0x4614, symBinAddr: 0x100027B20, symSize: 0x30 }
  - { offset: 0x879A4, size: 0x8, addend: 0x0, symName: __ZN4core9panicking13assert_failed17h44dfa2b6b0a073dcE, symObjAddr: 0xC358, symBinAddr: 0x1000ABF24, symSize: 0x44 }
  - { offset: 0x879C0, size: 0x8, addend: 0x0, symName: __ZN4core9panicking13assert_failed17h5af2e1f3f6cf3b70E, symObjAddr: 0xC39C, symBinAddr: 0x1000ABF68, symSize: 0x40 }
  - { offset: 0x879DC, size: 0x8, addend: 0x0, symName: __ZN4core9panicking13assert_failed17h69463876ec72e065E, symObjAddr: 0xC3DC, symBinAddr: 0x1000ABFA8, symSize: 0x30 }
  - { offset: 0x881FA, size: 0x8, addend: 0x0, symName: '__ZN92_$LT$std..sys..pal..unix..process..process_inner..ExitStatus$u20$as$u20$core..fmt..Debug$GT$3fmt17h119e992c6eb699a5E', symObjAddr: 0x4212C, symBinAddr: 0x100064530, symSize: 0x58 }
  - { offset: 0x8825A, size: 0x8, addend: 0x0, symName: __ZN3std3sys3pal4unix7process13process_inner7Process4wait17h325cd4976e583510E, symObjAddr: 0x4208C, symBinAddr: 0x100064490, symSize: 0xA0 }
  - { offset: 0x883F7, size: 0x8, addend: 0x0, symName: '__ZN193_$LT$std..sys..pal..unix..process..process_inner..$LT$impl$u20$std..sys..pal..unix..process..process_common..Command$GT$..posix_spawn..PosixSpawnFileActions$u20$as$u20$core..ops..drop..Drop$GT$4drop17hab4e80a4f6e4a5deE', symObjAddr: 0x42064, symBinAddr: 0x100064468, symSize: 0x14 }
  - { offset: 0x8841F, size: 0x8, addend: 0x0, symName: '__ZN186_$LT$std..sys..pal..unix..process..process_inner..$LT$impl$u20$std..sys..pal..unix..process..process_common..Command$GT$..posix_spawn..PosixSpawnattr$u20$as$u20$core..ops..drop..Drop$GT$4drop17heead820de25b879eE', symObjAddr: 0x42078, symBinAddr: 0x10006447C, symSize: 0x14 }
  - { offset: 0x88485, size: 0x8, addend: 0x0, symName: '__ZN173_$LT$std..sys..pal..unix..process..process_inner..$LT$impl$u20$std..sys..pal..unix..process..process_common..Command$GT$..do_exec..Reset$u20$as$u20$core..ops..drop..Drop$GT$4drop17h5a7ac91c7eca8b6eE', symObjAddr: 0x42040, symBinAddr: 0x100064444, symSize: 0x24 }
  - { offset: 0x884DF, size: 0x8, addend: 0x0, symName: '__ZN94_$LT$std..sys..pal..unix..process..process_inner..ExitStatus$u20$as$u20$core..fmt..Display$GT$3fmt17h71f65b4645dd1f42E', symObjAddr: 0x42184, symBinAddr: 0x100064588, symSize: 0x1B4 }
  - { offset: 0x8867F, size: 0x8, addend: 0x0, symName: '__ZN97_$LT$std..sys..pal..unix..process..process_inner..ExitStatusError$u20$as$u20$core..fmt..Debug$GT$3fmt17hdb01f360f0679bbaE', symObjAddr: 0x42338, symBinAddr: 0x10006473C, symSize: 0x58 }
  - { offset: 0x88719, size: 0x8, addend: 0x0, symName: __ZN3std3sys3pal4unix7process14process_common7Command3new17h13672917ae485a29E, symObjAddr: 0x3E838, symBinAddr: 0x100060C3C, symSize: 0x234 }
  - { offset: 0x88B04, size: 0x8, addend: 0x0, symName: __ZN3std3sys3pal4unix7process14process_common7Command9set_arg_017hee26392c083e5594E, symObjAddr: 0x3EA6C, symBinAddr: 0x100060E70, symSize: 0xCC }
  - { offset: 0x88C71, size: 0x8, addend: 0x0, symName: __ZN3std3sys3pal4unix7process14process_common7Command3arg17h622a73bda66b03c8E, symObjAddr: 0x3EB38, symBinAddr: 0x100060F3C, symSize: 0xEC }
  - { offset: 0x88DFA, size: 0x8, addend: 0x0, symName: __ZN3std3sys3pal4unix7process14process_common7Command3cwd17h26cafd8b8f9a653eE, symObjAddr: 0x3EC24, symBinAddr: 0x100061028, symSize: 0x60 }
  - { offset: 0x88EAC, size: 0x8, addend: 0x0, symName: __ZN3std3sys3pal4unix7process14process_common7Command8pre_exec17h8fbda1b127efca37E, symObjAddr: 0x3EC84, symBinAddr: 0x100061088, symSize: 0x70 }
  - { offset: 0x88F82, size: 0x8, addend: 0x0, symName: __ZN3std3sys3pal4unix7process14process_common7Command5stdin17h2d29b891b3e6b449E, symObjAddr: 0x3ECF4, symBinAddr: 0x1000610F8, symSize: 0x44 }
  - { offset: 0x8900B, size: 0x8, addend: 0x0, symName: __ZN3std3sys3pal4unix7process14process_common7Command6stdout17hd3f7b58da7056ed1E, symObjAddr: 0x3ED38, symBinAddr: 0x10006113C, symSize: 0x44 }
  - { offset: 0x89094, size: 0x8, addend: 0x0, symName: __ZN3std3sys3pal4unix7process14process_common7Command6stderr17h60f395c88f8fe6c9E, symObjAddr: 0x3ED7C, symBinAddr: 0x100061180, symSize: 0x44 }
  - { offset: 0x8911D, size: 0x8, addend: 0x0, symName: __ZN3std3sys3pal4unix7process14process_common7Command11capture_env17h787ff731e01e6cefE, symObjAddr: 0x3EDC0, symBinAddr: 0x1000611C4, symSize: 0xA60 }
  - { offset: 0x8AD68, size: 0x8, addend: 0x0, symName: __ZN3std3sys3pal4unix7process14process_common7Command8setup_io17h823e3e9ebaf4453eE, symObjAddr: 0x3F820, symBinAddr: 0x100061C24, symSize: 0x2F0 }
  - { offset: 0x8B248, size: 0x8, addend: 0x0, symName: '__ZN3std3sys3pal4unix7process13process_inner71_$LT$impl$u20$std..sys..pal..unix..process..process_common..Command$GT$5spawn17h5d451167e50d386fE', symObjAddr: 0x4132C, symBinAddr: 0x100063730, symSize: 0x9B4 }
  - { offset: 0x8C4D3, size: 0x8, addend: 0x0, symName: '__ZN3std3sys3pal4unix7process13process_inner71_$LT$impl$u20$std..sys..pal..unix..process..process_common..Command$GT$7do_exec17haa393386a4cc0c22E', symObjAddr: 0x41CE0, symBinAddr: 0x1000640E4, symSize: 0x360 }
  - { offset: 0x8CD97, size: 0x8, addend: 0x0, symName: '__ZN116_$LT$std..sys..pal..unix..process..process_common..CommandArgs$u20$as$u20$core..iter..traits..iterator..Iterator$GT$4next17h963e2f9af6b20000E', symObjAddr: 0x40488, symBinAddr: 0x10006288C, symSize: 0x34 }
  - { offset: 0x8CDAE, size: 0x8, addend: 0x0, symName: '__ZN116_$LT$std..sys..pal..unix..process..process_common..CommandArgs$u20$as$u20$core..iter..traits..iterator..Iterator$GT$4next17h963e2f9af6b20000E', symObjAddr: 0x40488, symBinAddr: 0x10006288C, symSize: 0x34 }
  - { offset: 0x8CE42, size: 0x8, addend: 0x0, symName: '__ZN116_$LT$std..sys..pal..unix..process..process_common..CommandArgs$u20$as$u20$core..iter..traits..iterator..Iterator$GT$9size_hint17h4a07d16a7e5b1de7E', symObjAddr: 0x404BC, symBinAddr: 0x1000628C0, symSize: 0x28 }
  - { offset: 0x8CEAB, size: 0x8, addend: 0x0, symName: '__ZN127_$LT$std..sys..pal..unix..process..process_common..CommandArgs$u20$as$u20$core..iter..traits..exact_size..ExactSizeIterator$GT$3len17hdc3073d741c6fa55E', symObjAddr: 0x404E4, symBinAddr: 0x1000628E8, symSize: 0x1C }
  - { offset: 0x8CFA2, size: 0x8, addend: 0x0, symName: __ZN3std3sys3pal4unix7process14process_common4os2c17hab5722c37a201f70E, symObjAddr: 0x3FB10, symBinAddr: 0x100061F14, symSize: 0x10C }
  - { offset: 0x8D209, size: 0x8, addend: 0x0, symName: __ZN3std3sys3pal4unix7process14process_common5Stdio14to_child_stdio17hfb2b89b82b9db403E, symObjAddr: 0x3FC1C, symBinAddr: 0x100062020, symSize: 0x154 }
  - { offset: 0x8D32A, size: 0x8, addend: 0x0, symName: '__ZN90_$LT$std..sys..pal..unix..process..process_common..Command$u20$as$u20$core..fmt..Debug$GT$3fmt17hb44da7dbd632b33bE', symObjAddr: 0x3FD70, symBinAddr: 0x100062174, symSize: 0x6C0 }
  - { offset: 0x8D92A, size: 0x8, addend: 0x0, symName: '__ZN91_$LT$std..sys..pal..unix..process..process_common..ExitCode$u20$as$u20$core..fmt..Debug$GT$3fmt17h9f632dc3c7ee331bE', symObjAddr: 0x40430, symBinAddr: 0x100062834, symSize: 0x58 }
  - { offset: 0x8D94B, size: 0x8, addend: 0x0, symName: '__ZN94_$LT$std..sys..pal..unix..process..process_common..CommandArgs$u20$as$u20$core..fmt..Debug$GT$3fmt17h6ff63ba1900d0c7eE', symObjAddr: 0x40500, symBinAddr: 0x100062904, symSize: 0x78 }
  - { offset: 0x8DA1B, size: 0x8, addend: 0x0, symName: '__ZN70_$LT$std..sys..pal..unix..fd..FileDesc$u20$as$u20$core..fmt..Debug$GT$3fmt17h45787680a0859c59E', symObjAddr: 0x412EC, symBinAddr: 0x1000636F0, symSize: 0x40 }
  - { offset: 0x8DAF4, size: 0x8, addend: 0x0, symName: __ZN3std3sys3pal4unix2fd8FileDesc4read17h90c48124debd7791E, symObjAddr: 0x39DD0, symBinAddr: 0x10005C1D4, symSize: 0x4C }
  - { offset: 0x8DBDE, size: 0x8, addend: 0x0, symName: __ZN3std3sys3pal4unix2fd8FileDesc13read_vectored17h54ed93f4c17c4f18E, symObjAddr: 0x39E1C, symBinAddr: 0x10005C220, symSize: 0x4C }
  - { offset: 0x8DCC8, size: 0x8, addend: 0x0, symName: __ZN3std3sys3pal4unix2fd8FileDesc11read_to_end17h9ea6c331881a94ebE, symObjAddr: 0x39E68, symBinAddr: 0x10005C26C, symSize: 0x23C }
  - { offset: 0x8E11C, size: 0x8, addend: 0x0, symName: __ZN3std3sys3pal4unix2fd8FileDesc7read_at17hbf768989317d5a5eE, symObjAddr: 0x3A0A4, symBinAddr: 0x10005C4A8, symSize: 0x4C }
  - { offset: 0x8E206, size: 0x8, addend: 0x0, symName: __ZN3std3sys3pal4unix2fd8FileDesc8read_buf17h32381f6ce0c6485dE, symObjAddr: 0x3A0F0, symBinAddr: 0x10005C4F4, symSize: 0x78 }
  - { offset: 0x8E3CA, size: 0x8, addend: 0x0, symName: __ZN3std3sys3pal4unix2fd8FileDesc16read_vectored_at17hef0c6763fa7c4a56E, symObjAddr: 0x3A168, symBinAddr: 0x10005C56C, symSize: 0x10C }
  - { offset: 0x8E56B, size: 0x8, addend: 0x0, symName: __ZN3std3sys3pal4unix2fd8FileDesc5write17h63a709af80a65a02E, symObjAddr: 0x3A274, symBinAddr: 0x10005C678, symSize: 0x4C }
  - { offset: 0x8E658, size: 0x8, addend: 0x0, symName: __ZN3std3sys3pal4unix2fd8FileDesc14write_vectored17h656b27771d6be626E, symObjAddr: 0x3A2C0, symBinAddr: 0x10005C6C4, symSize: 0x4C }
  - { offset: 0x8E745, size: 0x8, addend: 0x0, symName: __ZN3std3sys3pal4unix2fd8FileDesc8write_at17h16b68f91c6459658E, symObjAddr: 0x3A30C, symBinAddr: 0x10005C710, symSize: 0x4C }
  - { offset: 0x8E832, size: 0x8, addend: 0x0, symName: __ZN3std3sys3pal4unix2fd8FileDesc17write_vectored_at17hc35e7a548cda2a22E, symObjAddr: 0x3A358, symBinAddr: 0x10005C75C, symSize: 0x10C }
  - { offset: 0x8E9D4, size: 0x8, addend: 0x0, symName: __ZN3std3sys3pal4unix2fd8FileDesc11set_cloexec17he0dbf185f3ec21d5E, symObjAddr: 0x3A464, symBinAddr: 0x10005C868, symSize: 0x40 }
  - { offset: 0x8EA80, size: 0x8, addend: 0x0, symName: __ZN3std3sys3pal4unix2fd8FileDesc15set_nonblocking17h500574ddab38a851E, symObjAddr: 0x3A4A4, symBinAddr: 0x10005C8A8, symSize: 0x88 }
  - { offset: 0x8ECE5, size: 0x8, addend: 0x0, symName: '__ZN78_$LT$std..sys..pal..unix..fd..FileDesc$u20$as$u20$std..os..fd..owned..AsFd$GT$5as_fd17hd283742411f76864E', symObjAddr: 0x3A52C, symBinAddr: 0x10005C930, symSize: 0x30 }
  - { offset: 0x8ED09, size: 0x8, addend: 0x0, symName: '__ZN78_$LT$std..sys..pal..unix..fd..FileDesc$u20$as$u20$std..os..fd..owned..AsFd$GT$5as_fd17hd283742411f76864E', symObjAddr: 0x3A52C, symBinAddr: 0x10005C930, symSize: 0x30 }
  - { offset: 0x8ED67, size: 0x8, addend: 0x0, symName: '__ZN77_$LT$std..sys..pal..unix..fs..FilePermissions$u20$as$u20$core..fmt..Debug$GT$3fmt17h902032d0149dd0f1E', symObjAddr: 0x3A5C8, symBinAddr: 0x10005C9CC, symSize: 0x6C }
  - { offset: 0x8EF10, size: 0x8, addend: 0x0, symName: __ZN3std3sys3pal4unix2fs4File6open_c17h8034e496f140d197E, symObjAddr: 0x3AAF0, symBinAddr: 0x10005CEF4, symSize: 0x1A8 }
  - { offset: 0x8EFF2, size: 0x8, addend: 0x0, symName: __ZN3std3sys3pal4unix2fs4File4read17h8aa089257f1a9f2aE, symObjAddr: 0x3AC98, symBinAddr: 0x10005D09C, symSize: 0x4C }
  - { offset: 0x8F0F2, size: 0x8, addend: 0x0, symName: __ZN3std3sys3pal4unix2fs4File13read_vectored17h6e76d8d21667602dE, symObjAddr: 0x3ACE4, symBinAddr: 0x10005D0E8, symSize: 0x4C }
  - { offset: 0x8F1F2, size: 0x8, addend: 0x0, symName: __ZN3std3sys3pal4unix2fs4File8read_buf17hf58c120f1b5c20b0E, symObjAddr: 0x3AD30, symBinAddr: 0x10005D134, symSize: 0x78 }
  - { offset: 0x8F58A, size: 0x8, addend: 0x0, symName: __ZN3std3sys3pal4unix2fs8DirEntry8metadata17hae6f0264f833a24dE, symObjAddr: 0x3A864, symBinAddr: 0x10005CC68, symSize: 0x16C }
  - { offset: 0x8FB68, size: 0x8, addend: 0x0, symName: '__ZN3std3sys3pal4unix2fs10DirBuilder5mkdir28_$u7b$$u7b$closure$u7d$$u7d$17h6560d605ee2f73cbE', symObjAddr: 0x3ADA8, symBinAddr: 0x10005D1AC, symSize: 0x44 }
  - { offset: 0x8FC0C, size: 0x8, addend: 0x0, symName: '__ZN3std3sys3pal4unix2fs4stat28_$u7b$$u7b$closure$u7d$$u7d$17h70f9192ee568bef6E', symObjAddr: 0x3C260, symBinAddr: 0x10005E664, symSize: 0xAC }
  - { offset: 0x8FD13, size: 0x8, addend: 0x0, symName: '__ZN3std3sys3pal4unix2fs5lstat28_$u7b$$u7b$closure$u7d$$u7d$17hd0283e1cdef8ce8bE', symObjAddr: 0x3C430, symBinAddr: 0x10005E834, symSize: 0xAC }
  - { offset: 0x8FE26, size: 0x8, addend: 0x0, symName: '__ZN70_$LT$std..sys..pal..unix..fs..FileType$u20$as$u20$core..fmt..Debug$GT$3fmt17h92dd30575d7df99aE', symObjAddr: 0x3A55C, symBinAddr: 0x10005C960, symSize: 0x6C }
  - { offset: 0x8FE47, size: 0x8, addend: 0x0, symName: '__ZN69_$LT$std..sys..pal..unix..fs..ReadDir$u20$as$u20$core..fmt..Debug$GT$3fmt17hc96cca0d8a532facE', symObjAddr: 0x3A634, symBinAddr: 0x10005CA38, symSize: 0x2C }
  - { offset: 0x90006, size: 0x8, addend: 0x0, symName: '__ZN91_$LT$std..sys..pal..unix..fs..ReadDir$u20$as$u20$core..iter..traits..iterator..Iterator$GT$4next17hfd848aedf765e6c4E', symObjAddr: 0x3A660, symBinAddr: 0x10005CA64, symSize: 0x138 }
  - { offset: 0x9027D, size: 0x8, addend: 0x0, symName: '__ZN70_$LT$std..sys..pal..unix..fs..Dir$u20$as$u20$core..ops..drop..Drop$GT$4drop17he97ce98f5d03c2b0E', symObjAddr: 0x3A798, symBinAddr: 0x10005CB9C, symSize: 0xCC }
  - { offset: 0x9034F, size: 0x8, addend: 0x0, symName: '__ZN73_$LT$std..sys..pal..unix..fs..OpenOptions$u20$as$u20$core..fmt..Debug$GT$3fmt17ha06b6c2eff7953ecE', symObjAddr: 0x3A9D0, symBinAddr: 0x10005CDD4, symSize: 0x120 }
  - { offset: 0x90370, size: 0x8, addend: 0x0, symName: '__ZN72_$LT$std..sys..pal..unix..fs..DirBuilder$u20$as$u20$core..fmt..Debug$GT$3fmt17h85a4248a83adaeacE', symObjAddr: 0x3ADEC, symBinAddr: 0x10005D1F0, symSize: 0x6C }
  - { offset: 0x903E3, size: 0x8, addend: 0x0, symName: '__ZN66_$LT$std..sys..pal..unix..fs..File$u20$as$u20$core..fmt..Debug$GT$3fmt17h6f5f6f71f40e63f3E', symObjAddr: 0x3AE58, symBinAddr: 0x10005D25C, symSize: 0x22C }
  - { offset: 0x90849, size: 0x8, addend: 0x0, symName: '__ZN66_$LT$std..sys..pal..unix..fs..Mode$u20$as$u20$core..fmt..Debug$GT$3fmt17hd154ad7162f80a67E', symObjAddr: 0x3B084, symBinAddr: 0x10005D488, symSize: 0x328 }
  - { offset: 0x908B2, size: 0x8, addend: 0x0, symName: __ZN3std3sys3pal4unix2fs7readdir17h59e2c8552d831ce3E, symObjAddr: 0x3B3AC, symBinAddr: 0x10005D7B0, symSize: 0x19C }
  - { offset: 0x90B69, size: 0x8, addend: 0x0, symName: '__ZN3std3sys3pal4unix2fs6unlink28_$u7b$$u7b$closure$u7d$$u7d$17h904cc607837fa578E', symObjAddr: 0x3B608, symBinAddr: 0x10005DA0C, symSize: 0x38 }
  - { offset: 0x90BEB, size: 0x8, addend: 0x0, symName: __ZN3std3sys3pal4unix2fs6unlink17h51654ca4416998bfE, symObjAddr: 0x3B548, symBinAddr: 0x10005D94C, symSize: 0xC0 }
  - { offset: 0x90D15, size: 0x8, addend: 0x0, symName: '__ZN3std3sys3pal4unix2fs6rename28_$u7b$$u7b$closure$u7d$$u7d$28_$u7b$$u7b$closure$u7d$$u7d$17h5eac3de4cd12b91dE', symObjAddr: 0x3B820, symBinAddr: 0x10005DC24, symSize: 0x38 }
  - { offset: 0x90D97, size: 0x8, addend: 0x0, symName: '__ZN3std3sys3pal4unix2fs6rename28_$u7b$$u7b$closure$u7d$$u7d$17h5cb34c4ac39bf188E', symObjAddr: 0x3B764, symBinAddr: 0x10005DB68, symSize: 0xBC }
  - { offset: 0x90EAC, size: 0x8, addend: 0x0, symName: __ZN3std3sys3pal4unix2fs6rename17h423f31950d2b69dbE, symObjAddr: 0x3B640, symBinAddr: 0x10005DA44, symSize: 0x124 }
  - { offset: 0x91049, size: 0x8, addend: 0x0, symName: '__ZN3std3sys3pal4unix2fs8set_perm28_$u7b$$u7b$closure$u7d$$u7d$17h332511d630c810aeE', symObjAddr: 0x3B930, symBinAddr: 0x10005DD34, symSize: 0x64 }
  - { offset: 0x910F6, size: 0x8, addend: 0x0, symName: __ZN3std3sys3pal4unix2fs8set_perm17h0cc9045b929a09c2E, symObjAddr: 0x3B858, symBinAddr: 0x10005DC5C, symSize: 0xD8 }
  - { offset: 0x9123F, size: 0x8, addend: 0x0, symName: '__ZN3std3sys3pal4unix2fs5rmdir28_$u7b$$u7b$closure$u7d$$u7d$17hdfa7291090e85a51E', symObjAddr: 0x3BA54, symBinAddr: 0x10005DE58, symSize: 0x38 }
  - { offset: 0x912C1, size: 0x8, addend: 0x0, symName: __ZN3std3sys3pal4unix2fs5rmdir17hf9189da7425d3a20E, symObjAddr: 0x3B994, symBinAddr: 0x10005DD98, symSize: 0xC0 }
  - { offset: 0x913CC, size: 0x8, addend: 0x0, symName: __ZN3std3sys3pal4unix2fs8readlink17ha63c92b4e28c0771E, symObjAddr: 0x3BA8C, symBinAddr: 0x10005DE90, symSize: 0xA4 }
  - { offset: 0x9145B, size: 0x8, addend: 0x0, symName: '__ZN3std3sys3pal4unix2fs8readlink28_$u7b$$u7b$closure$u7d$$u7d$17hfd52ab05a230d6bdE', symObjAddr: 0x3BB30, symBinAddr: 0x10005DF34, symSize: 0x1B4 }
  - { offset: 0x91805, size: 0x8, addend: 0x0, symName: '__ZN3std3sys3pal4unix2fs7symlink28_$u7b$$u7b$closure$u7d$$u7d$28_$u7b$$u7b$closure$u7d$$u7d$17hb5d7d6a83c638dcaE', symObjAddr: 0x3BEC4, symBinAddr: 0x10005E2C8, symSize: 0x38 }
  - { offset: 0x91887, size: 0x8, addend: 0x0, symName: '__ZN3std3sys3pal4unix2fs7symlink28_$u7b$$u7b$closure$u7d$$u7d$17h9587199af3cce2bcE', symObjAddr: 0x3BE08, symBinAddr: 0x10005E20C, symSize: 0xBC }
  - { offset: 0x9199C, size: 0x8, addend: 0x0, symName: __ZN3std3sys3pal4unix2fs7symlink17hcc38b4e9ae9ad1f4E, symObjAddr: 0x3BCE4, symBinAddr: 0x10005E0E8, symSize: 0x124 }
  - { offset: 0x91B38, size: 0x8, addend: 0x0, symName: '__ZN3std3sys3pal4unix2fs4link28_$u7b$$u7b$closure$u7d$$u7d$28_$u7b$$u7b$closure$u7d$$u7d$17hf5431f77450cfe6dE', symObjAddr: 0x3C0F4, symBinAddr: 0x10005E4F8, symSize: 0x48 }
  - { offset: 0x91BBA, size: 0x8, addend: 0x0, symName: '__ZN3std3sys3pal4unix2fs4link28_$u7b$$u7b$closure$u7d$$u7d$17h943a14a56d26b6c6E', symObjAddr: 0x3C02C, symBinAddr: 0x10005E430, symSize: 0xC8 }
  - { offset: 0x91CCF, size: 0x8, addend: 0x0, symName: __ZN3std3sys3pal4unix2fs4link17hb2219213d38fb1d8E, symObjAddr: 0x3BEFC, symBinAddr: 0x10005E300, symSize: 0x130 }
  - { offset: 0x91E45, size: 0x8, addend: 0x0, symName: __ZN3std3sys3pal4unix2fs4stat17h377df69614e2934aE, symObjAddr: 0x3C13C, symBinAddr: 0x10005E540, symSize: 0x124 }
  - { offset: 0x91F98, size: 0x8, addend: 0x0, symName: __ZN3std3sys3pal4unix2fs5lstat17h900a4bf8c1264612E, symObjAddr: 0x3C30C, symBinAddr: 0x10005E710, symSize: 0x124 }
  - { offset: 0x920EB, size: 0x8, addend: 0x0, symName: __ZN3std3sys3pal4unix2fs12canonicalize17h2e5842a84e15ba49E, symObjAddr: 0x3C4DC, symBinAddr: 0x10005E8E0, symSize: 0x14C }
  - { offset: 0x92378, size: 0x8, addend: 0x0, symName: '__ZN83_$LT$std..sys..pal..unix..fs..copy..FreeOnDrop$u20$as$u20$core..ops..drop..Drop$GT$4drop17hfb70b9f3505e5ae5E', symObjAddr: 0x3C9B8, symBinAddr: 0x10005EDBC, symSize: 0x14 }
  - { offset: 0x9238D, size: 0x8, addend: 0x0, symName: '__ZN3std3sys3pal4unix2fs4copy28_$u7b$$u7b$closure$u7d$$u7d$17h98093cb2c36557cdE', symObjAddr: 0x3C9CC, symBinAddr: 0x10005EDD0, symSize: 0x64 }
  - { offset: 0x92473, size: 0x8, addend: 0x0, symName: __ZN3std3sys3pal4unix2fs4copy17hd16c887ec02b5327E, symObjAddr: 0x3C628, symBinAddr: 0x10005EA2C, symSize: 0x390 }
  - { offset: 0x92D55, size: 0x8, addend: 0x0, symName: '__ZN3std3sys3pal4unix2fs5chown28_$u7b$$u7b$closure$u7d$$u7d$17h8878573eafe1b90bE', symObjAddr: 0x3CAF8, symBinAddr: 0x10005EEFC, symSize: 0x48 }
  - { offset: 0x92DD7, size: 0x8, addend: 0x0, symName: __ZN3std3sys3pal4unix2fs5chown17h35d7c6c607c2d877E, symObjAddr: 0x3CA30, symBinAddr: 0x10005EE34, symSize: 0xC8 }
  - { offset: 0x92EF2, size: 0x8, addend: 0x0, symName: __ZN3std3sys3pal4unix2fs6fchown17hf19b0675192098a4E, symObjAddr: 0x3CB40, symBinAddr: 0x10005EF44, symSize: 0x34 }
  - { offset: 0x92F8D, size: 0x8, addend: 0x0, symName: '__ZN3std3sys3pal4unix2fs6lchown28_$u7b$$u7b$closure$u7d$$u7d$17hd37140a6b5c7c39bE', symObjAddr: 0x3CC3C, symBinAddr: 0x10005F040, symSize: 0x48 }
  - { offset: 0x9300F, size: 0x8, addend: 0x0, symName: __ZN3std3sys3pal4unix2fs6lchown17h625b4f15b6e42471E, symObjAddr: 0x3CB74, symBinAddr: 0x10005EF78, symSize: 0xC8 }
  - { offset: 0x9313D, size: 0x8, addend: 0x0, symName: '__ZN3std3sys3pal4unix2fs6chroot28_$u7b$$u7b$closure$u7d$$u7d$17hfd92ada6cd8105fbE', symObjAddr: 0x3CD44, symBinAddr: 0x10005F148, symSize: 0x38 }
  - { offset: 0x931BF, size: 0x8, addend: 0x0, symName: __ZN3std3sys3pal4unix2fs6chroot17h5bf6487a7174953bE, symObjAddr: 0x3CC84, symBinAddr: 0x10005F088, symSize: 0xC0 }
  - { offset: 0x9331B, size: 0x8, addend: 0x0, symName: __ZN3std3sys3pal4unix2fs15remove_dir_impl24remove_dir_all_recursive17h30ffcd62a59917b6E, symObjAddr: 0x3CD7C, symBinAddr: 0x10005F180, symSize: 0x34C }
  - { offset: 0x93AFF, size: 0x8, addend: 0x0, symName: '__ZN3std3sys3pal4unix2fs15remove_dir_impl21remove_dir_all_modern28_$u7b$$u7b$closure$u7d$$u7d$17hbde53dd9c99deaa1E', symObjAddr: 0x3D0C8, symBinAddr: 0x10005F4CC, symSize: 0x18 }
  - { offset: 0x93B30, size: 0x8, addend: 0x0, symName: __ZN3std3sys3pal4unix2fs15remove_dir_impl14remove_dir_all17hdfda94a86efc363dE, symObjAddr: 0x3D0E0, symBinAddr: 0x10005F4E4, symSize: 0x228 }
  - { offset: 0x93ED1, size: 0x8, addend: 0x0, symName: '__ZN87_$LT$std..sys..pal..unix..os..Env$u20$as$u20$core..iter..traits..iterator..Iterator$GT$4next17h961674535a00c810E', symObjAddr: 0x3DB10, symBinAddr: 0x10005FF14, symSize: 0x48 }
  - { offset: 0x93F46, size: 0x8, addend: 0x0, symName: '__ZN87_$LT$std..sys..pal..unix..os..Env$u20$as$u20$core..iter..traits..iterator..Iterator$GT$9size_hint17h7fd0ba134e6e8605E', symObjAddr: 0x3DB58, symBinAddr: 0x10005FF5C, symSize: 0x38 }
  - { offset: 0x93FD0, size: 0x8, addend: 0x0, symName: '__ZN94_$LT$std..sys..pal..unix..os..SplitPaths$u20$as$u20$core..iter..traits..iterator..Iterator$GT$4next17h8adfb56bf64e97a4E', symObjAddr: 0x3D8BC, symBinAddr: 0x10005FCC0, symSize: 0xA8 }
  - { offset: 0x9411A, size: 0x8, addend: 0x0, symName: '__ZN78_$LT$std..sys..pal..unix..os..JoinPathsError$u20$as$u20$core..fmt..Display$GT$3fmt17h99e812a4fc7fc885E', symObjAddr: 0x3D964, symBinAddr: 0x10005FD68, symSize: 0x5C }
  - { offset: 0x941F6, size: 0x8, addend: 0x0, symName: __ZN3std3sys3pal4unix2os5errno17hf15802e79216ebd1E, symObjAddr: 0x3D714, symBinAddr: 0x10005FB18, symSize: 0x18 }
  - { offset: 0x9421C, size: 0x8, addend: 0x0, symName: '__ZN3std3sys3pal4unix2os5chdir28_$u7b$$u7b$closure$u7d$$u7d$17h9d4313e141ecf218E', symObjAddr: 0x3D804, symBinAddr: 0x10005FC08, symSize: 0x28 }
  - { offset: 0x94231, size: 0x8, addend: 0x0, symName: __ZN3std3sys3pal4unix2os5chdir17h7f0db4d9c5a26554E, symObjAddr: 0x3D72C, symBinAddr: 0x10005FB30, symSize: 0xD8 }
  - { offset: 0x9432C, size: 0x8, addend: 0x0, symName: __ZN3std3sys3pal4unix2os11split_paths13bytes_to_path17hbca2e3f88d7eafe0E, symObjAddr: 0x3D82C, symBinAddr: 0x10005FC30, symSize: 0x90 }
  - { offset: 0x944A8, size: 0x8, addend: 0x0, symName: '__ZN73_$LT$std..sys..pal..unix..os..EnvStrDebug$u20$as$u20$core..fmt..Debug$GT$3fmt17ha2df699f1968b6dcE', symObjAddr: 0x3D9C0, symBinAddr: 0x10005FDC4, symSize: 0xD4 }
  - { offset: 0x94762, size: 0x8, addend: 0x0, symName: '__ZN65_$LT$std..sys..pal..unix..os..Env$u20$as$u20$core..fmt..Debug$GT$3fmt17hf729ffe8cccea148E', symObjAddr: 0x3DA94, symBinAddr: 0x10005FE98, symSize: 0x7C }
  - { offset: 0x947E2, size: 0x8, addend: 0x0, symName: __ZN3std3sys3pal4unix2os13env_read_lock17heec4de91a1003e89E, symObjAddr: 0x3DB90, symBinAddr: 0x10005FF94, symSize: 0x2D4 }
  - { offset: 0x94EAD, size: 0x8, addend: 0x0, symName: '__ZN3std3sys3pal4unix2os6getenv28_$u7b$$u7b$closure$u7d$$u7d$17h2173bbb195afe723E', symObjAddr: 0x3DE64, symBinAddr: 0x100060268, symSize: 0x124 }
  - { offset: 0x950D2, size: 0x8, addend: 0x0, symName: '__ZN3std3sys3pal4unix2os6setenv28_$u7b$$u7b$closure$u7d$$u7d$17h4535e32ddfcd29d4E', symObjAddr: 0x3E08C, symBinAddr: 0x100060490, symSize: 0x9C }
  - { offset: 0x9514D, size: 0x8, addend: 0x0, symName: '__ZN3std3sys3pal4unix2os6setenv28_$u7b$$u7b$closure$u7d$$u7d$28_$u7b$$u7b$closure$u7d$$u7d$17h910eee0392f788b0E', symObjAddr: 0x3E128, symBinAddr: 0x10006052C, symSize: 0x144 }
  - { offset: 0x954E9, size: 0x8, addend: 0x0, symName: __ZN3std3sys3pal4unix2os6setenv17haf8f7ff42abf18dfE, symObjAddr: 0x3DF88, symBinAddr: 0x10006038C, symSize: 0x104 }
  - { offset: 0x955D4, size: 0x8, addend: 0x0, symName: __ZN3std3sys3pal4unix2os8unsetenv17h5dba0418dc58f071E, symObjAddr: 0x3E26C, symBinAddr: 0x100060670, symSize: 0xA0 }
  - { offset: 0x95656, size: 0x8, addend: 0x0, symName: '__ZN3std3sys3pal4unix2os8unsetenv28_$u7b$$u7b$closure$u7d$$u7d$17h6bfa87e1d96cb775E', symObjAddr: 0x3E30C, symBinAddr: 0x100060710, symSize: 0x138 }
  - { offset: 0x959F1, size: 0x8, addend: 0x0, symName: __ZN3std3sys3pal4unix2os4exit17h3a3d7ff3160d21ccE, symObjAddr: 0x3E444, symBinAddr: 0x100060848, symSize: 0xC }
  - { offset: 0x95A3F, size: 0x8, addend: 0x0, symName: '__ZN69_$LT$std..sys..pal..unix..stdio..Stdout$u20$as$u20$std..io..Write$GT$5write17h2c8e99cf8df1b876E', symObjAddr: 0x40A50, symBinAddr: 0x100062E54, symSize: 0x4C }
  - { offset: 0x95B16, size: 0x8, addend: 0x0, symName: '__ZN69_$LT$std..sys..pal..unix..stdio..Stdout$u20$as$u20$std..io..Write$GT$14write_vectored17hc778735c99724205E', symObjAddr: 0x40A9C, symBinAddr: 0x100062EA0, symSize: 0x4C }
  - { offset: 0x95C0D, size: 0x8, addend: 0x0, symName: '__ZN69_$LT$std..sys..pal..unix..stdio..Stderr$u20$as$u20$std..io..Write$GT$5write17h581d052a4ab9b3deE', symObjAddr: 0x40AE8, symBinAddr: 0x100062EEC, symSize: 0x4C }
  - { offset: 0x95CE4, size: 0x8, addend: 0x0, symName: '__ZN69_$LT$std..sys..pal..unix..stdio..Stderr$u20$as$u20$std..io..Write$GT$14write_vectored17h967e552d16c4a95bE', symObjAddr: 0x40B34, symBinAddr: 0x100062F38, symSize: 0x4C }
  - { offset: 0x95DE8, size: 0x8, addend: 0x0, symName: '__ZN67_$LT$std..sys..pal..unix..stdio..Stdin$u20$as$u20$std..io..Read$GT$4read17h1f7106f5fd232849E', symObjAddr: 0x40940, symBinAddr: 0x100062D44, symSize: 0x4C }
  - { offset: 0x95EBD, size: 0x8, addend: 0x0, symName: '__ZN67_$LT$std..sys..pal..unix..stdio..Stdin$u20$as$u20$std..io..Read$GT$8read_buf17h839c987ef257d142E', symObjAddr: 0x4098C, symBinAddr: 0x100062D90, symSize: 0x78 }
  - { offset: 0x9606C, size: 0x8, addend: 0x0, symName: '__ZN67_$LT$std..sys..pal..unix..stdio..Stdin$u20$as$u20$std..io..Read$GT$13read_vectored17he5642246701c7358E', symObjAddr: 0x40A04, symBinAddr: 0x100062E08, symSize: 0x4C }
  - { offset: 0x961ED, size: 0x8, addend: 0x0, symName: __ZN3std3sys3pal4unix14stack_overflow3imp14signal_handler17hd8f4cd1bd95d9476E, symObjAddr: 0x405D0, symBinAddr: 0x1000629D4, symSize: 0x190 }
  - { offset: 0x9654A, size: 0x8, addend: 0x0, symName: __ZN3std3sys3pal4unix14stack_overflow3imp12make_handler17hc1d87bb8ee5d5c4cE, symObjAddr: 0x40760, symBinAddr: 0x100062B64, symSize: 0x1E0 }
  - { offset: 0x9682F, size: 0x8, addend: 0x0, symName: '__ZN86_$LT$std..sys..pal..unix..stack_overflow..Handler$u20$as$u20$core..ops..drop..Drop$GT$4drop17h0887be861cc23615E', symObjAddr: 0x40578, symBinAddr: 0x10006297C, symSize: 0x58 }
  - { offset: 0x968F9, size: 0x8, addend: 0x0, symName: __ZN3std3sys3pal4unix6thread6Thread3new17h7d3072f74311db85E, symObjAddr: 0x40B80, symBinAddr: 0x100062F84, symSize: 0x234 }
  - { offset: 0x96C03, size: 0x8, addend: 0x0, symName: __ZN3std3sys3pal4unix6thread6Thread8set_name17h67d7833f508721f7E, symObjAddr: 0x40E84, symBinAddr: 0x100063288, symSize: 0x70 }
  - { offset: 0x96D0A, size: 0x8, addend: 0x0, symName: __ZN3std3sys3pal4unix6thread6Thread4join17h8d47e550b49f733bE, symObjAddr: 0x40EF4, symBinAddr: 0x1000632F8, symSize: 0x90 }
  - { offset: 0x96D76, size: 0x8, addend: 0x0, symName: __ZN3std3sys3pal4unix6thread6Thread3new12thread_start17h44ebc83f14222f58E, symObjAddr: 0x40DB4, symBinAddr: 0x1000631B8, symSize: 0xD0 }
  - { offset: 0x96F9E, size: 0x8, addend: 0x0, symName: '__ZN77_$LT$std..sys..pal..unix..thread..Thread$u20$as$u20$core..ops..drop..Drop$GT$4drop17h404423c1980cfc1eE', symObjAddr: 0x40F84, symBinAddr: 0x100063388, symSize: 0x14 }
  - { offset: 0x9702A, size: 0x8, addend: 0x0, symName: __ZN3std3sys3pal4unix4time8Timespec3now17hb800598ec95e3dd7E, symObjAddr: 0x41018, symBinAddr: 0x10006341C, symSize: 0x114 }
  - { offset: 0x970CF, size: 0x8, addend: 0x0, symName: __ZN3std3sys3pal4unix4time8Timespec12sub_timespec17h410a57af25b6c873E, symObjAddr: 0x4112C, symBinAddr: 0x100063530, symSize: 0x104 }
  - { offset: 0x97205, size: 0x8, addend: 0x0, symName: '__ZN71_$LT$std..sys..pal..unix..time..Instant$u20$as$u20$core..fmt..Debug$GT$3fmt17hc9a9167d67939574E', symObjAddr: 0x41230, symBinAddr: 0x100063634, symSize: 0x80 }
  - { offset: 0x9722C, size: 0x8, addend: 0x0, symName: '__ZN74_$LT$std..sys..pal..unix..time..SystemTime$u20$as$u20$core..fmt..Debug$GT$3fmt17h40a3ed3a2e92c980E', symObjAddr: 0x40F98, symBinAddr: 0x10006339C, symSize: 0x80 }
  - { offset: 0x972AC, size: 0x8, addend: 0x0, symName: '__ZN90_$LT$std..sys..pal..unix..args..Args$u20$as$u20$core..iter..traits..iterator..Iterator$GT$4next17h6dc1f36e5b56ecb4E', symObjAddr: 0x39CDC, symBinAddr: 0x10005C0E0, symSize: 0x48 }
  - { offset: 0x97320, size: 0x8, addend: 0x0, symName: '__ZN90_$LT$std..sys..pal..unix..args..Args$u20$as$u20$core..iter..traits..iterator..Iterator$GT$9size_hint17hc2e721243b57ec39E', symObjAddr: 0x39D24, symBinAddr: 0x10005C128, symSize: 0x38 }
  - { offset: 0x97387, size: 0x8, addend: 0x0, symName: '__ZN101_$LT$std..sys..pal..unix..args..Args$u20$as$u20$core..iter..traits..exact_size..ExactSizeIterator$GT$3len17hd1c29999101b7a4dE', symObjAddr: 0x39D5C, symBinAddr: 0x10005C160, symSize: 0x2C }
  - { offset: 0x97403, size: 0x8, addend: 0x0, symName: '__ZN105_$LT$std..sys..pal..unix..args..Args$u20$as$u20$core..iter..traits..double_ended..DoubleEndedIterator$GT$9next_back17h5dfde64d852e0c84E', symObjAddr: 0x39D88, symBinAddr: 0x10005C18C, symSize: 0x48 }
  - { offset: 0x9746A, size: 0x8, addend: 0x0, symName: '__ZN68_$LT$std..sys..pal..unix..args..Args$u20$as$u20$core..fmt..Debug$GT$3fmt17h7b05237ccd4bb9f5E', symObjAddr: 0x39C64, symBinAddr: 0x10005C068, symSize: 0x78 }
  - { offset: 0x97729, size: 0x8, addend: 0x0, symName: __ZN3std3sys3pal4unix3net6Socket7new_raw17hc3cff1fed2cd94dbE, symObjAddr: 0x3D308, symBinAddr: 0x10005F70C, symSize: 0xF8 }
  - { offset: 0x9795A, size: 0x8, addend: 0x0, symName: __ZN3std3sys3pal4unix3net6Socket8new_pair17hf336db163fd6fb36E, symObjAddr: 0x3D400, symBinAddr: 0x10005F804, symSize: 0x150 }
  - { offset: 0x97BCC, size: 0x8, addend: 0x0, symName: __ZN3std3sys3pal4unix3net6Socket20recv_from_with_flags17hb31a7c83116cc977E, symObjAddr: 0x3D550, symBinAddr: 0x10005F954, symSize: 0x154 }
  - { offset: 0x97D51, size: 0x8, addend: 0x0, symName: __ZN3std3sys3pal4unix3net6Socket10take_error17h826870d320615af0E, symObjAddr: 0x3D6A4, symBinAddr: 0x10005FAA8, symSize: 0x70 }
  - { offset: 0x97F13, size: 0x8, addend: 0x0, symName: '__ZN3std3sys3pal4unix4weak18DlsymWeak$LT$F$GT$10initialize17h76aaaf986b63e616E', symObjAddr: 0x39BB4, symBinAddr: 0x1000ACF7C, symSize: 0x58 }
  - { offset: 0x97F65, size: 0x8, addend: 0x0, symName: '__ZN3std3sys3pal4unix4weak18DlsymWeak$LT$F$GT$10initialize17hc3fe0ee1a7eae5a8E', symObjAddr: 0x39C0C, symBinAddr: 0x1000ACFD4, symSize: 0x58 }
  - { offset: 0x98004, size: 0x8, addend: 0x0, symName: __ZN3std3sys3pal4unix4pipe8AnonPipe5write17hfe3431f78398e153E, symObjAddr: 0x3E598, symBinAddr: 0x10006099C, symSize: 0x48 }
  - { offset: 0x980E2, size: 0x8, addend: 0x0, symName: __ZN3std3sys3pal4unix4pipe9anon_pipe17h40c7c126628bdb8aE, symObjAddr: 0x3E450, symBinAddr: 0x100060854, symSize: 0x148 }
  - { offset: 0x98386, size: 0x8, addend: 0x0, symName: __ZN3std3sys3pal4unix4pipe5read217ha57a074b8fd713b3E, symObjAddr: 0x3E5E0, symBinAddr: 0x1000609E4, symSize: 0x258 }
  - { offset: 0x988C6, size: 0x8, addend: 0x0, symName: __ZN3std3sys3pal4unix17decode_error_kind17h658fcc0fb80bec02E, symObjAddr: 0x412B0, symBinAddr: 0x1000636B4, symSize: 0x30 }
  - { offset: 0x988E0, size: 0x8, addend: 0x0, symName: __ZN3std3sys3pal4unix14abort_internal17h857d2ad66020786fE, symObjAddr: 0x412E0, symBinAddr: 0x1000636E4, symSize: 0xC }
  - { offset: 0x98A1C, size: 0x8, addend: 0x0, symName: __ZN3std3sys3pal6common14small_c_string24run_with_cstr_allocating17h07c7b1463ef282ffE, symObjAddr: 0x35538, symBinAddr: 0x1000AC74C, symSize: 0xCC }
  - { offset: 0x98BE5, size: 0x8, addend: 0x0, symName: __ZN3std3sys3pal6common14small_c_string24run_with_cstr_allocating17h25f07dd948e5663fE, symObjAddr: 0x35604, symBinAddr: 0x1000AC818, symSize: 0xD0 }
  - { offset: 0x98DAE, size: 0x8, addend: 0x0, symName: __ZN3std3sys3pal6common14small_c_string24run_with_cstr_allocating17h41459cfa947e9fbeE, symObjAddr: 0x356D4, symBinAddr: 0x1000AC8E8, symSize: 0x9C }
  - { offset: 0x98F1D, size: 0x8, addend: 0x0, symName: __ZN3std3sys3pal6common14small_c_string24run_with_cstr_allocating17h4254890aff01fe87E, symObjAddr: 0x35770, symBinAddr: 0x1000AC984, symSize: 0xE4 }
  - { offset: 0x990E6, size: 0x8, addend: 0x0, symName: __ZN3std3sys3pal6common14small_c_string24run_with_cstr_allocating17h8b1440fcb4733dd8E, symObjAddr: 0x35854, symBinAddr: 0x1000ACA68, symSize: 0xBC }
  - { offset: 0x992C2, size: 0x8, addend: 0x0, symName: __ZN3std3sys3pal6common14small_c_string24run_with_cstr_allocating17h94e9a16e1340d926E, symObjAddr: 0x35910, symBinAddr: 0x1000ACB24, symSize: 0xA0 }
  - { offset: 0x99431, size: 0x8, addend: 0x0, symName: __ZN3std3sys3pal6common14small_c_string24run_with_cstr_allocating17hae94c44ef5e1b55cE, symObjAddr: 0x359B0, symBinAddr: 0x1000ACBC4, symSize: 0xAC }
  - { offset: 0x9958D, size: 0x8, addend: 0x0, symName: __ZN3std3sys3pal6common14small_c_string24run_with_cstr_allocating17he36e3b3fe29d10a0E, symObjAddr: 0x35A5C, symBinAddr: 0x1000ACC70, symSize: 0xC0 }
  - { offset: 0x99756, size: 0x8, addend: 0x0, symName: __ZN3std3sys3pal6common14small_c_string24run_with_cstr_allocating17hee0f08c345321870E, symObjAddr: 0x35B1C, symBinAddr: 0x1000ACD30, symSize: 0xC4 }
  - { offset: 0x99C9E, size: 0x8, addend: 0x0, symName: __ZN3std3sys6os_str5bytes3Buf11into_string17hdc2468d309fa0c98E, symObjAddr: 0x4285C, symBinAddr: 0x100064C60, symSize: 0xA0 }
  - { offset: 0x99D6C, size: 0x8, addend: 0x0, symName: __ZN3std3sys6os_str5bytes3Buf10push_slice17h8a703bbca690c8b4E, symObjAddr: 0x428FC, symBinAddr: 0x100064D00, symSize: 0x7C }
  - { offset: 0x99F1D, size: 0x8, addend: 0x0, symName: __ZN3std3sys6os_str5bytes5Slice15to_string_lossy17h4b48930754b70c94E, symObjAddr: 0x42AB4, symBinAddr: 0x100064EB8, symSize: 0x10 }
  - { offset: 0x99F31, size: 0x8, addend: 0x0, symName: __ZN3std3sys6os_str5bytes5Slice8to_owned17h8393c3ede916cc17E, symObjAddr: 0x42AC4, symBinAddr: 0x100064EC8, symSize: 0x90 }
  - { offset: 0x9A04F, size: 0x8, addend: 0x0, symName: __ZN3std3sys6os_str5bytes5Slice10clone_into17hd980377dd9f381faE, symObjAddr: 0x42B54, symBinAddr: 0x100064F58, symSize: 0x7C }
  - { offset: 0x9A1B0, size: 0x8, addend: 0x0, symName: __ZN3std3sys6os_str5bytes5Slice9empty_box17h575668486f2acf10E, symObjAddr: 0x42BD0, symBinAddr: 0x100064FD4, symSize: 0x18 }
  - { offset: 0x9A1E4, size: 0x8, addend: 0x0, symName: '__ZN69_$LT$std..sys..os_str..bytes..Slice$u20$as$u20$core..fmt..Display$GT$3fmt17hfde323060867e81fE', symObjAddr: 0x427A0, symBinAddr: 0x100064BA4, symSize: 0xA0 }
  - { offset: 0x9A22D, size: 0x8, addend: 0x0, symName: '__ZN67_$LT$std..sys..os_str..bytes..Buf$u20$as$u20$core..fmt..Display$GT$3fmt17h82497104819e3626E', symObjAddr: 0x42840, symBinAddr: 0x100064C44, symSize: 0x1C }
  - { offset: 0x9A2EA, size: 0x8, addend: 0x0, symName: __ZN3std3sys6os_str5bytes5Slice21check_public_boundary9slow_path17hfe90d30f719d6df5E, symObjAddr: 0x42978, symBinAddr: 0x100064D7C, symSize: 0x13C }
  - { offset: 0x9A4A7, size: 0x8, addend: 0x0, symName: '__ZN3std3sys11personality3gcc14find_eh_action28_$u7b$$u7b$closure$u7d$$u7d$17h305f2ac54b218de4E', symObjAddr: 0x42390, symBinAddr: 0x100064794, symSize: 0x18 }
  - { offset: 0x9A4BB, size: 0x8, addend: 0x0, symName: '__ZN3std3sys11personality3gcc14find_eh_action28_$u7b$$u7b$closure$u7d$$u7d$17h17bcf6bd34e05be0E', symObjAddr: 0x423A8, symBinAddr: 0x1000647AC, symSize: 0x18 }
  - { offset: 0x9A4EB, size: 0x8, addend: 0x0, symName: _rust_eh_personality, symObjAddr: 0x423C0, symBinAddr: 0x1000647C4, symSize: 0x368 }
  - { offset: 0x9A808, size: 0x8, addend: 0x0, symName: __ZN3std3sys11personality5dwarf2eh19read_encoded_offset17hffdd6e829f9c05a8E, symObjAddr: 0x35C90, symBinAddr: 0x1000582CC, symSize: 0x150 }
  - { offset: 0x9A967, size: 0x8, addend: 0x0, symName: '__ZN3std3sys9backtrace10_print_fmt28_$u7b$$u7b$closure$u7d$$u7d$17h6a8bb32777d977e8E', symObjAddr: 0x360CC, symBinAddr: 0x100058708, symSize: 0x30 }
  - { offset: 0x9A990, size: 0x8, addend: 0x0, symName: '__ZN3std3sys9backtrace10_print_fmt28_$u7b$$u7b$closure$u7d$$u7d$17h4acb2355784ec558E', symObjAddr: 0x360FC, symBinAddr: 0x100058738, symSize: 0x134 }
  - { offset: 0x9AAA4, size: 0x8, addend: 0x0, symName: '__ZN3std3sys9backtrace10_print_fmt28_$u7b$$u7b$closure$u7d$$u7d$28_$u7b$$u7b$closure$u7d$$u7d$17h4fbd43930ba51a17E', symObjAddr: 0x36230, symBinAddr: 0x10005886C, symSize: 0x26C }
  - { offset: 0x9ACD0, size: 0x8, addend: 0x0, symName: __ZN3std3sys9backtrace4lock17h9c02986e58c7150eE, symObjAddr: 0x35DE0, symBinAddr: 0x10005841C, symSize: 0x70 }
  - { offset: 0x9AE0C, size: 0x8, addend: 0x0, symName: __ZN3std3sys9backtrace13BacktraceLock5print17h8baf33e22611de71E, symObjAddr: 0x35E50, symBinAddr: 0x10005848C, symSize: 0x54 }
  - { offset: 0x9AE59, size: 0x8, addend: 0x0, symName: '__ZN98_$LT$std..sys..backtrace..BacktraceLock..print..DisplayBacktrace$u20$as$u20$core..fmt..Display$GT$3fmt17h7adefaad4a31afc0E', symObjAddr: 0x35EA4, symBinAddr: 0x1000584E0, symSize: 0x228 }
  - { offset: 0x9B3D9, size: 0x8, addend: 0x0, symName: __ZN3std3sys9backtrace26__rust_end_short_backtrace17heed121414170e0c7E, symObjAddr: 0x3649C, symBinAddr: 0x100058AD8, symSize: 0xC }
  - { offset: 0x9B3F3, size: 0x8, addend: 0x0, symName: __ZN3std3sys9backtrace15output_filename17hc977e54bfca8d5d8E, symObjAddr: 0x364A8, symBinAddr: 0x100058AE4, symSize: 0xFC }
  - { offset: 0x9B5E2, size: 0x8, addend: 0x0, symName: '__ZN3std3sys4sync8once_box16OnceBox$LT$T$GT$10initialize17hc285a164175f3564E', symObjAddr: 0x36614, symBinAddr: 0x1000ACDF4, symSize: 0xBC }
  - { offset: 0x9B74E, size: 0x8, addend: 0x0, symName: '__ZN3std3sys4sync8once_box16OnceBox$LT$T$GT$10initialize17hd3c004cd62d9b478E', symObjAddr: 0x366D0, symBinAddr: 0x1000ACEB0, symSize: 0x4C }
  - { offset: 0x9B9E7, size: 0x8, addend: 0x0, symName: '__ZN79_$LT$std..sys..sync..mutex..pthread..Mutex$u20$as$u20$core..ops..drop..Drop$GT$4drop17h7a9ec4c70d3f823bE', symObjAddr: 0x433D0, symBinAddr: 0x1000656F8, symSize: 0x58 }
  - { offset: 0x9BAFA, size: 0x8, addend: 0x0, symName: '__ZN90_$LT$std..sys..sync..mutex..pthread..PthreadMutexAttr$u20$as$u20$core..ops..drop..Drop$GT$4drop17hb588028fd0399639E', symObjAddr: 0x43428, symBinAddr: 0x100065750, symSize: 0x14 }
  - { offset: 0x9BB14, size: 0x8, addend: 0x0, symName: __ZN3std3sys4sync5mutex7pthread14AllocatedMutex3new17h0685a95bbf6234c8E, symObjAddr: 0x4312C, symBinAddr: 0x100065530, symSize: 0x1C8 }
  - { offset: 0x9BC76, size: 0x8, addend: 0x0, symName: __ZN3std3sys4sync5mutex7pthread5Mutex4lock4fail17h65b585fc519334efE, symObjAddr: 0x432F4, symBinAddr: 0x1000AD02C, symSize: 0xDC }
  - { offset: 0x9BED4, size: 0x8, addend: 0x0, symName: '__ZN83_$LT$std..sys..sync..rwlock..queue..PanicGuard$u20$as$u20$core..ops..drop..Drop$GT$4drop17h87bf2687cd460d89E', symObjAddr: 0x43BE8, symBinAddr: 0x1000659AC, symSize: 0x44 }
  - { offset: 0x9BFB9, size: 0x8, addend: 0x0, symName: __ZN3std3sys4sync6rwlock5queue6RwLock14lock_contended17hf7593e321a55ad93E, symObjAddr: 0x43C2C, symBinAddr: 0x1000AD66C, symSize: 0x250 }
  - { offset: 0x9C4CE, size: 0x8, addend: 0x0, symName: __ZN3std3sys4sync6rwlock5queue6RwLock21read_unlock_contended17h96494ba44518a708E, symObjAddr: 0x43E7C, symBinAddr: 0x1000AD8BC, symSize: 0x70 }
  - { offset: 0x9C6D4, size: 0x8, addend: 0x0, symName: __ZN3std3sys4sync6rwlock5queue6RwLock16unlock_contended17hf58cac95d821706eE, symObjAddr: 0x43EEC, symBinAddr: 0x1000AD92C, symSize: 0x38 }
  - { offset: 0x9C769, size: 0x8, addend: 0x0, symName: __ZN3std3sys4sync6rwlock5queue6RwLock12unlock_queue17h91b974f598e765f2E, symObjAddr: 0x43F24, symBinAddr: 0x1000659F0, symSize: 0x17C }
  - { offset: 0x9CEFC, size: 0x8, addend: 0x0, symName: __ZN3std3sys4sync6rwlock5queue10write_lock17h81126dfc2e3ae727E, symObjAddr: 0x43BA4, symBinAddr: 0x100065968, symSize: 0x18 }
  - { offset: 0x9CF51, size: 0x8, addend: 0x0, symName: __ZN3std3sys4sync6rwlock5queue9read_lock17h82656e185711842bE, symObjAddr: 0x43BBC, symBinAddr: 0x100065980, symSize: 0x2C }
  - { offset: 0x9CFAA, size: 0x8, addend: 0x0, symName: '__ZN88_$LT$std..sys..sync..thread_parking..darwin..Parker$u20$as$u20$core..ops..drop..Drop$GT$4drop17h4a2537d61f71da57E', symObjAddr: 0x440D0, symBinAddr: 0x100065B9C, symSize: 0x14 }
  - { offset: 0x9CFF8, size: 0x8, addend: 0x0, symName: __ZN3std3sys4sync14thread_parking6darwin6Parker6unpark17he31f88f7204e4d70E, symObjAddr: 0x440A0, symBinAddr: 0x100065B6C, symSize: 0x30 }
  - { offset: 0x9D0D3, size: 0x8, addend: 0x0, symName: __ZN3std3sys4sync4once5queue4Once4wait17hdfd6a0b8673eb5d9E, symObjAddr: 0x4343C, symBinAddr: 0x1000AD108, symSize: 0x404 }
  - { offset: 0x9DBC2, size: 0x8, addend: 0x0, symName: __ZN3std3sys4sync4once5queue4Once4call17h37550d946806f870E, symObjAddr: 0x43840, symBinAddr: 0x1000AD50C, symSize: 0x160 }
  - { offset: 0x9DD0B, size: 0x8, addend: 0x0, symName: __ZN3std3sys4sync4once5queue4wait17h959a6f4df97f75a9E, symObjAddr: 0x439A0, symBinAddr: 0x100065764, symSize: 0x12C }
  - { offset: 0x9E14F, size: 0x8, addend: 0x0, symName: '__ZN82_$LT$std..sys..sync..once..queue..WaiterQueue$u20$as$u20$core..ops..drop..Drop$GT$4drop17ha1403e3a0b27a600E', symObjAddr: 0x43ACC, symBinAddr: 0x100065890, symSize: 0xD8 }
  - { offset: 0x9E397, size: 0x8, addend: 0x0, symName: __ZN3std3sys4sync7condvar7pthread7Condvar3get17h234d19e3852d5a67E, symObjAddr: 0x42F60, symBinAddr: 0x100065364, symSize: 0x24 }
  - { offset: 0x9E3F7, size: 0x8, addend: 0x0, symName: __ZN3std3sys4sync7condvar7pthread7Condvar12wait_timeout17hdcd7f84a5af7fdf2E, symObjAddr: 0x42F84, symBinAddr: 0x100065388, symSize: 0x1A8 }
  - { offset: 0x9E896, size: 0x8, addend: 0x0, symName: '__ZN3std3sys12thread_local6native4lazy20Storage$LT$T$C$D$GT$10initialize17h279b4dc40ec31e26E', symObjAddr: 0x440E4, symBinAddr: 0x1000AD964, symSize: 0xC0 }
  - { offset: 0x9EA8C, size: 0x8, addend: 0x0, symName: __ZN3std3sys12thread_local6native4lazy7destroy17hbca9a89daea3b1a7E, symObjAddr: 0x441A4, symBinAddr: 0x100065BB0, symSize: 0x54 }
  - { offset: 0x9EBFA, size: 0x8, addend: 0x0, symName: __ZN3std3sys12thread_local5guard5apple6enable9run_dtors17h7df97e6abb62bbefE, symObjAddr: 0x44334, symBinAddr: 0x100065D40, symSize: 0x13C }
  - { offset: 0x9F150, size: 0x8, addend: 0x0, symName: __ZN3std3sys12thread_local11destructors4list8register17ha72f6427785942b6E, symObjAddr: 0x441F8, symBinAddr: 0x100065C04, symSize: 0x13C }
  - { offset: 0x9F4DB, size: 0x8, addend: 0x0, symName: __ZN3std3sys4path4unix8absolute17h0ffd76950466d673E, symObjAddr: 0x42BE8, symBinAddr: 0x100064FEC, symSize: 0x378 }
  - { offset: 0x9FE23, size: 0x8, addend: 0x0, symName: __ZN3std3sys6random19hashmap_random_keys17h532c9bbf992f4940E, symObjAddr: 0x365A4, symBinAddr: 0x100058BE0, symSize: 0x70 }
  - { offset: 0x9FEEA, size: 0x8, addend: 0x0, symName: __ZN3std3sys5alloc16realloc_fallback17h7b538be94df5836dE, symObjAddr: 0x35BE0, symBinAddr: 0x10005821C, symSize: 0xB0 }
  - { offset: 0x9FFE4, size: 0x8, addend: 0x0, symName: '__ZN3std3sys14anonymous_pipe4unix76_$LT$impl$u20$std..os..fd..owned..AsFd$u20$for$u20$std..pipe..PipeReader$GT$5as_fd17hb4f76b4b9f1d59eeE', symObjAddr: 0x42728, symBinAddr: 0x100064B2C, symSize: 0x30 }
  - { offset: 0xA001A, size: 0x8, addend: 0x0, symName: '__ZN3std3sys14anonymous_pipe4unix76_$LT$impl$u20$std..os..fd..owned..AsFd$u20$for$u20$std..pipe..PipeReader$GT$5as_fd17hb4f76b4b9f1d59eeE', symObjAddr: 0x42728, symBinAddr: 0x100064B2C, symSize: 0x30 }
  - { offset: 0xA0043, size: 0x8, addend: 0x0, symName: '__ZN3std3sys14anonymous_pipe4unix79_$LT$impl$u20$std..os..fd..raw..FromRawFd$u20$for$u20$std..pipe..PipeReader$GT$11from_raw_fd17h467fe91045867c9bE', symObjAddr: 0x42758, symBinAddr: 0x100064B5C, symSize: 0x48 }
  - { offset: 0xA009E, size: 0x8, addend: 0x0, symName: '__ZN67_$LT$std..os..fd..owned..BorrowedFd$u20$as$u20$core..fmt..Debug$GT$3fmt17h870b2acb579d6841E', symObjAddr: 0x2F448, symBinAddr: 0x1000523B0, symSize: 0x64 }
  - { offset: 0xA00C5, size: 0x8, addend: 0x0, symName: '__ZN64_$LT$std..os..fd..owned..OwnedFd$u20$as$u20$core..fmt..Debug$GT$3fmt17h9d56aab72f2ddd25E', symObjAddr: 0x2F4AC, symBinAddr: 0x100052414, symSize: 0x64 }
  - { offset: 0xA010C, size: 0x8, addend: 0x0, symName: __ZN3std2os2fd5owned10BorrowedFd18try_clone_to_owned17h75a86df941c5858fE, symObjAddr: 0x2F3E0, symBinAddr: 0x100052348, symSize: 0x68 }
  - { offset: 0xA01EE, size: 0x8, addend: 0x0, symName: __ZN3std2os2fd5owned7OwnedFd9try_clone17hda3924227bb6fc52E, symObjAddr: 0x2F358, symBinAddr: 0x1000522C0, symSize: 0x88 }
  - { offset: 0xA044E, size: 0x8, addend: 0x0, symName: '__ZN60_$LT$std..fs..File$u20$as$u20$std..os..unix..fs..FileExt$GT$7read_at17he473ec3f69be9fe1E', symObjAddr: 0x2D118, symBinAddr: 0x100050080, symSize: 0x4C }
  - { offset: 0xA0541, size: 0x8, addend: 0x0, symName: '__ZN60_$LT$std..fs..File$u20$as$u20$std..os..unix..fs..FileExt$GT$16read_vectored_at17h57d6953fee5b44b0E', symObjAddr: 0x2D164, symBinAddr: 0x1000500CC, symSize: 0x10C }
  - { offset: 0xA0715, size: 0x8, addend: 0x0, symName: '__ZN60_$LT$std..fs..File$u20$as$u20$std..os..unix..fs..FileExt$GT$8write_at17h22bdadd76db924c2E', symObjAddr: 0x2D270, symBinAddr: 0x1000501D8, symSize: 0x4C }
  - { offset: 0xA080A, size: 0x8, addend: 0x0, symName: '__ZN60_$LT$std..fs..File$u20$as$u20$std..os..unix..fs..FileExt$GT$17write_vectored_at17h85b10c10e96d124bE', symObjAddr: 0x2D2BC, symBinAddr: 0x100050224, symSize: 0x10C }
  - { offset: 0xA09E5, size: 0x8, addend: 0x0, symName: '__ZN69_$LT$std..fs..DirEntry$u20$as$u20$std..os..unix..fs..DirEntryExt2$GT$13file_name_ref17h71cc60895542f74eE', symObjAddr: 0x2D3C8, symBinAddr: 0x100050330, symSize: 0x18 }
  - { offset: 0xA0A4C, size: 0x8, addend: 0x0, symName: __ZN3std2os4unix3net4addr11sockaddr_un17h663776f7effa1c64E, symObjAddr: 0x2D3E0, symBinAddr: 0x100050348, symSize: 0x124 }
  - { offset: 0xA0B4B, size: 0x8, addend: 0x0, symName: __ZN3std2os4unix3net4addr10SocketAddr10is_unnamed17hae824e50ef52267aE, symObjAddr: 0x2D504, symBinAddr: 0x10005046C, symSize: 0x44 }
  - { offset: 0xA0B9B, size: 0x8, addend: 0x0, symName: __ZN3std2os4unix3net4addr10SocketAddr11as_pathname17hae35fc319c094212E, symObjAddr: 0x2D548, symBinAddr: 0x1000504B0, symSize: 0x48 }
  - { offset: 0xA0C4C, size: 0x8, addend: 0x0, symName: '__ZN73_$LT$std..os..unix..net..addr..SocketAddr$u20$as$u20$core..fmt..Debug$GT$3fmt17h9156d6e9c1f71ff6E', symObjAddr: 0x2D590, symBinAddr: 0x1000504F8, symSize: 0xAC }
  - { offset: 0xA0D12, size: 0x8, addend: 0x0, symName: __ZN3std2os4unix3net8datagram12UnixDatagram9bind_addr17h646996cf8dda9b84E, symObjAddr: 0x2D9B8, symBinAddr: 0x100050920, symSize: 0xB0 }
  - { offset: 0xA0E3E, size: 0x8, addend: 0x0, symName: __ZN3std2os4unix3net8datagram12UnixDatagram7unbound17hffc8bdb5f22a07c0E, symObjAddr: 0x2DA68, symBinAddr: 0x1000509D0, symSize: 0x5C }
  - { offset: 0xA0E74, size: 0x8, addend: 0x0, symName: __ZN3std2os4unix3net8datagram12UnixDatagram4pair17he3f3f48f0d166291E, symObjAddr: 0x2DAC4, symBinAddr: 0x100050A2C, symSize: 0x58 }
  - { offset: 0xA0EB0, size: 0x8, addend: 0x0, symName: __ZN3std2os4unix3net8datagram12UnixDatagram12connect_addr17h1ad0202f53982847E, symObjAddr: 0x2DB1C, symBinAddr: 0x100050A84, symSize: 0x3C }
  - { offset: 0xA0F84, size: 0x8, addend: 0x0, symName: __ZN3std2os4unix3net8datagram12UnixDatagram9recv_from17h7f8ab1b146866192E, symObjAddr: 0x2DB58, symBinAddr: 0x100050AC0, symSize: 0x118 }
  - { offset: 0xA110A, size: 0x8, addend: 0x0, symName: __ZN3std2os4unix3net8datagram12UnixDatagram4recv17h3bcd5d2415768c77E, symObjAddr: 0x2DC70, symBinAddr: 0x100050BD8, symSize: 0x44 }
  - { offset: 0xA11BE, size: 0x8, addend: 0x0, symName: __ZN3std2os4unix3net8datagram12UnixDatagram12send_to_addr17h163b0b1d304f4c3cE, symObjAddr: 0x2DCB4, symBinAddr: 0x100050C1C, symSize: 0x4C }
  - { offset: 0xA1287, size: 0x8, addend: 0x0, symName: __ZN3std2os4unix3net8datagram12UnixDatagram4send17hda31e0b4737ed3a0E, symObjAddr: 0x2DD00, symBinAddr: 0x100050C68, symSize: 0x4C }
  - { offset: 0xA137C, size: 0x8, addend: 0x0, symName: __ZN3std2os4unix3net8datagram12UnixDatagram9peek_from17h1d273869b0bd752cE, symObjAddr: 0x2DD4C, symBinAddr: 0x100050CB4, symSize: 0x118 }
  - { offset: 0xA154A, size: 0x8, addend: 0x0, symName: '__ZN79_$LT$std..os..unix..net..datagram..UnixDatagram$u20$as$u20$core..fmt..Debug$GT$3fmt17heb52f0dcc6a270e6E', symObjAddr: 0x2D63C, symBinAddr: 0x1000505A4, symSize: 0x37C }
  - { offset: 0xA1BC1, size: 0x8, addend: 0x0, symName: __ZN3std2os4unix3net8listener12UnixListener9bind_addr17ha825ce98acca609aE, symObjAddr: 0x2E068, symBinAddr: 0x100050FD0, symSize: 0xC4 }
  - { offset: 0xA1CFA, size: 0x8, addend: 0x0, symName: __ZN3std2os4unix3net8listener12UnixListener6accept17h5a02f3f3dd122328E, symObjAddr: 0x2E12C, symBinAddr: 0x100051094, symSize: 0x148 }
  - { offset: 0xA1F6C, size: 0x8, addend: 0x0, symName: '__ZN79_$LT$std..os..unix..net..listener..UnixListener$u20$as$u20$core..fmt..Debug$GT$3fmt17h10580feab0a14512E', symObjAddr: 0x2DE64, symBinAddr: 0x100050DCC, symSize: 0x204 }
  - { offset: 0xA2254, size: 0x8, addend: 0x0, symName: '__ZN97_$LT$std..os..unix..net..listener..Incoming$u20$as$u20$core..iter..traits..iterator..Iterator$GT$4next17hbd4410a8bbd60f21E', symObjAddr: 0x2E274, symBinAddr: 0x1000511DC, symSize: 0x40 }
  - { offset: 0xA22AB, size: 0x8, addend: 0x0, symName: __ZN3std2os4unix3net6stream10UnixStream12connect_addr17hda7849bd2fff92b1E, symObjAddr: 0x2E630, symBinAddr: 0x100051598, symSize: 0xB0 }
  - { offset: 0xA23B4, size: 0x8, addend: 0x0, symName: __ZN3std2os4unix3net6stream10UnixStream4pair17ha3a6080a74019f3cE, symObjAddr: 0x2E6E0, symBinAddr: 0x100051648, symSize: 0x58 }
  - { offset: 0xA23F0, size: 0x8, addend: 0x0, symName: __ZN3std2os4unix3net6stream10UnixStream10local_addr17hb7eda4cb9f9e1dd2E, symObjAddr: 0x2E738, symBinAddr: 0x1000516A0, symSize: 0xE0 }
  - { offset: 0xA24F4, size: 0x8, addend: 0x0, symName: __ZN3std2os4unix3net6stream10UnixStream9peer_addr17h68d7f2557d71e96cE, symObjAddr: 0x2E818, symBinAddr: 0x100051780, symSize: 0xE0 }
  - { offset: 0xA25F8, size: 0x8, addend: 0x0, symName: __ZN3std2os4unix3net6stream10UnixStream9peer_cred17h52ee3f57276ec082E, symObjAddr: 0x2E8F8, symBinAddr: 0x100051860, symSize: 0xD0 }
  - { offset: 0xA26D2, size: 0x8, addend: 0x0, symName: __ZN3std2os4unix3net6stream10UnixStream16set_read_timeout17hb5fb14c01db82e87E, symObjAddr: 0x2E9C8, symBinAddr: 0x100051930, symSize: 0xB4 }
  - { offset: 0xA2792, size: 0x8, addend: 0x0, symName: __ZN3std2os4unix3net6stream10UnixStream17set_write_timeout17h88881bf6d0f55bc5E, symObjAddr: 0x2EA7C, symBinAddr: 0x1000519E4, symSize: 0xB4 }
  - { offset: 0xA2852, size: 0x8, addend: 0x0, symName: __ZN3std2os4unix3net6stream10UnixStream12read_timeout17h3065f0969ad3e8b0E, symObjAddr: 0x2EB30, symBinAddr: 0x100051A98, symSize: 0xFC }
  - { offset: 0xA2978, size: 0x8, addend: 0x0, symName: __ZN3std2os4unix3net6stream10UnixStream13write_timeout17h51ff5b52a392a6b3E, symObjAddr: 0x2EC2C, symBinAddr: 0x100051B94, symSize: 0xFC }
  - { offset: 0xA2A9E, size: 0x8, addend: 0x0, symName: __ZN3std2os4unix3net6stream10UnixStream15set_nonblocking17h0cf9b9830e001df5E, symObjAddr: 0x2ED28, symBinAddr: 0x100051C90, symSize: 0x54 }
  - { offset: 0xA2B3C, size: 0x8, addend: 0x0, symName: __ZN3std2os4unix3net6stream10UnixStream10take_error17hb8659af938c5e7f0E, symObjAddr: 0x2ED7C, symBinAddr: 0x100051CE4, symSize: 0x74 }
  - { offset: 0xA2C4A, size: 0x8, addend: 0x0, symName: __ZN3std2os4unix3net6stream10UnixStream8shutdown17h93309307659cacd1E, symObjAddr: 0x2EDF0, symBinAddr: 0x100051D58, symSize: 0x3C }
  - { offset: 0xA2CE8, size: 0x8, addend: 0x0, symName: __ZN3std2os4unix3net6stream10UnixStream4peek17h294005e8958a2189E, symObjAddr: 0x2EE2C, symBinAddr: 0x100051D94, symSize: 0x44 }
  - { offset: 0xA2DCE, size: 0x8, addend: 0x0, symName: '__ZN75_$LT$std..os..unix..net..stream..UnixStream$u20$as$u20$core..fmt..Debug$GT$3fmt17h56862e618568ec25E', symObjAddr: 0x2E2B4, symBinAddr: 0x10005121C, symSize: 0x37C }
  - { offset: 0xA342A, size: 0x8, addend: 0x0, symName: '__ZN76_$LT$$RF$std..os..unix..net..stream..UnixStream$u20$as$u20$std..io..Read$GT$8read_buf17h7c3528c617477d11E', symObjAddr: 0x2EF70, symBinAddr: 0x100051ED8, symSize: 0x74 }
  - { offset: 0xA35BA, size: 0x8, addend: 0x0, symName: '__ZN72_$LT$std..os..unix..net..stream..UnixStream$u20$as$u20$std..io..Read$GT$4read17h0b930058fe4e7a6dE', symObjAddr: 0x2EE70, symBinAddr: 0x100051DD8, symSize: 0x44 }
  - { offset: 0xA3684, size: 0x8, addend: 0x0, symName: '__ZN72_$LT$std..os..unix..net..stream..UnixStream$u20$as$u20$std..io..Read$GT$8read_buf17h98e277f120ae50c9E', symObjAddr: 0x2EEB4, symBinAddr: 0x100051E1C, symSize: 0x70 }
  - { offset: 0xA382B, size: 0x8, addend: 0x0, symName: '__ZN72_$LT$std..os..unix..net..stream..UnixStream$u20$as$u20$std..io..Read$GT$13read_vectored17hbbe22e0a908249e4E', symObjAddr: 0x2EF24, symBinAddr: 0x100051E8C, symSize: 0x4C }
  - { offset: 0xA395A, size: 0x8, addend: 0x0, symName: '__ZN76_$LT$std..process..Command$u20$as$u20$std..os..unix..process..CommandExt$GT$6groups17h7d529a2dfa98468bE', symObjAddr: 0x2EFE4, symBinAddr: 0x100051F4C, symSize: 0xD0 }
  - { offset: 0xA3B17, size: 0x8, addend: 0x0, symName: '__ZN76_$LT$std..process..Command$u20$as$u20$std..os..unix..process..CommandExt$GT$4exec17h93a1ea9d3b4400c1E', symObjAddr: 0x2F0B4, symBinAddr: 0x10005201C, symSize: 0x25C }
  - { offset: 0xA415D, size: 0x8, addend: 0x0, symName: '__ZN87_$LT$std..process..ExitStatusError$u20$as$u20$std..os..unix..process..ExitStatusExt$GT$8from_raw17hc736a082c3d462feE', symObjAddr: 0x2F310, symBinAddr: 0x100052278, symSize: 0x38 }
  - { offset: 0xA4188, size: 0x8, addend: 0x0, symName: __ZN3std2os4unix7process9parent_id17ha7a517664647d5f6E, symObjAddr: 0x2F348, symBinAddr: 0x1000522B0, symSize: 0x10 }
  - { offset: 0xA41D4, size: 0x8, addend: 0x0, symName: '__ZN62_$LT$std..process..ChildStderr$u20$as$u20$core..fmt..Debug$GT$3fmt17h677e54a7a098980cE', symObjAddr: 0x32DD4, symBinAddr: 0x100055D3C, symSize: 0x38 }
  - { offset: 0xA41FC, size: 0x8, addend: 0x0, symName: '__ZN62_$LT$std..process..ChildStdout$u20$as$u20$core..fmt..Debug$GT$3fmt17h10ce2c4247152729E', symObjAddr: 0x32CD8, symBinAddr: 0x100055C40, symSize: 0x38 }
  - { offset: 0xA4224, size: 0x8, addend: 0x0, symName: '__ZN61_$LT$std..process..ChildStdin$u20$as$u20$core..fmt..Debug$GT$3fmt17h5f90dbc778df0040E', symObjAddr: 0x32CA0, symBinAddr: 0x100055C08, symSize: 0x38 }
  - { offset: 0xA423E, size: 0x8, addend: 0x0, symName: '__ZN193_$LT$std..process..Child$u20$as$u20$std..sys_common..FromInner$LT$$LP$std..sys..pal..unix..process..process_inner..Process$C$std..sys..pal..unix..process..process_common..StdioPipes$RP$$GT$$GT$10from_inner17h0fba2cdc4d03c302E', symObjAddr: 0x32B74, symBinAddr: 0x100055ADC, symSize: 0x30 }
  - { offset: 0xA425F, size: 0x8, addend: 0x0, symName: '__ZN126_$LT$std..process..Child$u20$as$u20$std..sys_common..IntoInner$LT$std..sys..pal..unix..process..process_inner..Process$GT$$GT$10into_inner17h862dd3674cfec9c5E', symObjAddr: 0x32BA4, symBinAddr: 0x100055B0C, symSize: 0x60 }
  - { offset: 0xA4420, size: 0x8, addend: 0x0, symName: '__ZN56_$LT$std..process..Child$u20$as$u20$core..fmt..Debug$GT$3fmt17h47ab4fe98eda2ceeE', symObjAddr: 0x32C04, symBinAddr: 0x100055B6C, symSize: 0x9C }
  - { offset: 0xA4441, size: 0x8, addend: 0x0, symName: '__ZN59_$LT$std..process..ChildStderr$u20$as$u20$std..io..Read$GT$4read17hd8af2a4c3c6eeeabE', symObjAddr: 0x32D10, symBinAddr: 0x100055C78, symSize: 0x4C }
  - { offset: 0xA4533, size: 0x8, addend: 0x0, symName: '__ZN59_$LT$std..process..ChildStderr$u20$as$u20$std..io..Read$GT$8read_buf17h03ed8e5e001ecc40E', symObjAddr: 0x32D5C, symBinAddr: 0x100055CC4, symSize: 0x78 }
  - { offset: 0xA4713, size: 0x8, addend: 0x0, symName: __ZN3std7process7Command9env_clear17h146d4e0649a2b8e8E, symObjAddr: 0x32E0C, symBinAddr: 0x100055D74, symSize: 0x50 }
  - { offset: 0xA47CB, size: 0x8, addend: 0x0, symName: __ZN3std7process7Command5spawn17h266f02ed69b6b94cE, symObjAddr: 0x32E5C, symBinAddr: 0x100055DC4, symSize: 0x78 }
  - { offset: 0xA47FC, size: 0x8, addend: 0x0, symName: __ZN3std7process7Command6output17h59ad43b401eb7b7aE, symObjAddr: 0x32ED4, symBinAddr: 0x100055E3C, symSize: 0x2FC }
  - { offset: 0xA4DCA, size: 0x8, addend: 0x0, symName: __ZN3std7process7Command6status17hb1476875a54afa3bE, symObjAddr: 0x331D0, symBinAddr: 0x100056138, symSize: 0x100 }
  - { offset: 0xA507E, size: 0x8, addend: 0x0, symName: __ZN3std7process7Command11get_program17hb3521bae146b0ee5E, symObjAddr: 0x332D0, symBinAddr: 0x100056238, symSize: 0x1C }
  - { offset: 0xA50C5, size: 0x8, addend: 0x0, symName: __ZN3std7process7Command8get_args17hd2a20429ba5b9c9cE, symObjAddr: 0x332EC, symBinAddr: 0x100056254, symSize: 0x24 }
  - { offset: 0xA514C, size: 0x8, addend: 0x0, symName: __ZN3std7process7Command15get_current_dir17h05434e5d408fd71bE, symObjAddr: 0x33310, symBinAddr: 0x100056278, symSize: 0x1C }
  - { offset: 0xA51A7, size: 0x8, addend: 0x0, symName: __ZN3std7process5Child4kill17hbcc4cd7d18db2e76E, symObjAddr: 0x33634, symBinAddr: 0x10005659C, symSize: 0x4C }
  - { offset: 0xA5252, size: 0x8, addend: 0x0, symName: __ZN3std7process5Child4wait17hfd16e40a21ace0b6E, symObjAddr: 0x33680, symBinAddr: 0x1000565E8, symSize: 0xBC }
  - { offset: 0xA5409, size: 0x8, addend: 0x0, symName: __ZN3std7process5Child8try_wait17hab194fd7dcf6164aE, symObjAddr: 0x3373C, symBinAddr: 0x1000566A4, symSize: 0xB4 }
  - { offset: 0xA54C9, size: 0x8, addend: 0x0, symName: __ZN3std7process5Child16wait_with_output17h7f885c4faec66dfaE, symObjAddr: 0x337F0, symBinAddr: 0x100056758, symSize: 0x2DC }
  - { offset: 0xA5B32, size: 0x8, addend: 0x0, symName: '__ZN58_$LT$std..process..Command$u20$as$u20$core..fmt..Debug$GT$3fmt17h2eb960460f470b7dE', symObjAddr: 0x3332C, symBinAddr: 0x100056294, symSize: 0x10 }
  - { offset: 0xA5B53, size: 0x8, addend: 0x0, symName: '__ZN84_$LT$std..process..CommandArgs$u20$as$u20$core..iter..traits..iterator..Iterator$GT$4next17h2070c5632d0143b9E', symObjAddr: 0x3333C, symBinAddr: 0x1000562A4, symSize: 0x34 }
  - { offset: 0xA5B71, size: 0x8, addend: 0x0, symName: '__ZN84_$LT$std..process..CommandArgs$u20$as$u20$core..iter..traits..iterator..Iterator$GT$4next17h2070c5632d0143b9E', symObjAddr: 0x3333C, symBinAddr: 0x1000562A4, symSize: 0x34 }
  - { offset: 0xA5B86, size: 0x8, addend: 0x0, symName: '__ZN84_$LT$std..process..CommandArgs$u20$as$u20$core..iter..traits..iterator..Iterator$GT$4next17h2070c5632d0143b9E', symObjAddr: 0x3333C, symBinAddr: 0x1000562A4, symSize: 0x34 }
  - { offset: 0xA5C1B, size: 0x8, addend: 0x0, symName: '__ZN84_$LT$std..process..CommandArgs$u20$as$u20$core..iter..traits..iterator..Iterator$GT$9size_hint17hc63d5b1de5148b9aE', symObjAddr: 0x33370, symBinAddr: 0x1000562D8, symSize: 0x28 }
  - { offset: 0xA5C93, size: 0x8, addend: 0x0, symName: '__ZN95_$LT$std..process..CommandArgs$u20$as$u20$core..iter..traits..exact_size..ExactSizeIterator$GT$3len17h85bde1d725b5d675E', symObjAddr: 0x33398, symBinAddr: 0x100056300, symSize: 0x1C }
  - { offset: 0xA5D0B, size: 0x8, addend: 0x0, symName: '__ZN57_$LT$std..process..Output$u20$as$u20$core..fmt..Debug$GT$3fmt17h4c021b2144c6640cE', symObjAddr: 0x333B4, symBinAddr: 0x10005631C, symSize: 0x10C }
  - { offset: 0xA5E33, size: 0x8, addend: 0x0, symName: '__ZN56_$LT$std..process..Stdio$u20$as$u20$core..fmt..Debug$GT$3fmt17h2a2f40a49915da3bE', symObjAddr: 0x334C0, symBinAddr: 0x100056428, symSize: 0x38 }
  - { offset: 0xA5E54, size: 0x8, addend: 0x0, symName: __ZN3std7process10ExitStatus7exit_ok17h9ce386e50f9e8edeE, symObjAddr: 0x334F8, symBinAddr: 0x100056460, symSize: 0x14 }
  - { offset: 0xA5E8B, size: 0x8, addend: 0x0, symName: '__ZN63_$LT$std..process..ExitStatus$u20$as$u20$core..fmt..Display$GT$3fmt17h19f84d8393cf5e65E', symObjAddr: 0x3350C, symBinAddr: 0x100056474, symSize: 0x10 }
  - { offset: 0xA5EBA, size: 0x8, addend: 0x0, symName: __ZN3std7process15ExitStatusError4code17h9a777bce7c488818E, symObjAddr: 0x3351C, symBinAddr: 0x100056484, symSize: 0x5C }
  - { offset: 0xA5FB3, size: 0x8, addend: 0x0, symName: __ZN3std7process15ExitStatusError12code_nonzero17ha3f1d2194e0660f9E, symObjAddr: 0x33578, symBinAddr: 0x1000564E0, symSize: 0x54 }
  - { offset: 0xA60AB, size: 0x8, addend: 0x0, symName: '__ZN68_$LT$std..process..ExitStatusError$u20$as$u20$core..fmt..Display$GT$3fmt17hc0d2cd6647b1321fE', symObjAddr: 0x335CC, symBinAddr: 0x100056534, symSize: 0x58 }
  - { offset: 0xA611A, size: 0x8, addend: 0x0, symName: __ZN3std7process8ExitCode12exit_process17h576189345c2e7791E, symObjAddr: 0x33624, symBinAddr: 0x10005658C, symSize: 0x10 }
  - { offset: 0xA6176, size: 0x8, addend: 0x0, symName: __ZN3std7process4exit17he1a5b98063b2b340E, symObjAddr: 0x33ACC, symBinAddr: 0x100056A34, symSize: 0x1C }
  - { offset: 0xA6191, size: 0x8, addend: 0x0, symName: __ZN3std7process5abort17hefc10ade1c26ea0eE, symObjAddr: 0x33AE8, symBinAddr: 0x1000AC4C8, symSize: 0xC }
  - { offset: 0xA61AC, size: 0x8, addend: 0x0, symName: __ZN3std7process2id17ha36e775cd374fcadE, symObjAddr: 0x33AF4, symBinAddr: 0x100056A50, symSize: 0x10 }
  - { offset: 0xA61E2, size: 0x8, addend: 0x0, symName: '__ZN61_$LT$std..process..ExitStatus$u20$as$u20$core..fmt..Debug$GT$3fmt17h7508feeb417ed04aE', symObjAddr: 0x39B74, symBinAddr: 0x10005C028, symSize: 0x40 }
  - { offset: 0xA6362, size: 0x8, addend: 0x0, symName: __ZN3std4path4Path11is_absolute17hd4812f4da80066d7E, symObjAddr: 0x31484, symBinAddr: 0x1000543EC, symSize: 0x2C }
  - { offset: 0xA63CD, size: 0x8, addend: 0x0, symName: __ZN3std4path4Path6parent17he35c2f34b9de05cbE, symObjAddr: 0x314B0, symBinAddr: 0x100054418, symSize: 0x84 }
  - { offset: 0xA63E4, size: 0x8, addend: 0x0, symName: __ZN3std4path4Path6parent17he35c2f34b9de05cbE, symObjAddr: 0x314B0, symBinAddr: 0x100054418, symSize: 0x84 }
  - { offset: 0xA63F9, size: 0x8, addend: 0x0, symName: __ZN3std4path4Path6parent17he35c2f34b9de05cbE, symObjAddr: 0x314B0, symBinAddr: 0x100054418, symSize: 0x84 }
  - { offset: 0xA644E, size: 0x8, addend: 0x0, symName: __ZN3std4path4Path9file_name17hdaf0803034112d11E, symObjAddr: 0x31534, symBinAddr: 0x10005449C, symSize: 0x64 }
  - { offset: 0xA6465, size: 0x8, addend: 0x0, symName: __ZN3std4path4Path9file_name17hdaf0803034112d11E, symObjAddr: 0x31534, symBinAddr: 0x10005449C, symSize: 0x64 }
  - { offset: 0xA647A, size: 0x8, addend: 0x0, symName: __ZN3std4path4Path9file_name17hdaf0803034112d11E, symObjAddr: 0x31534, symBinAddr: 0x10005449C, symSize: 0x64 }
  - { offset: 0xA64B9, size: 0x8, addend: 0x0, symName: __ZN3std4path4Path13_strip_prefix17h2da2f8b103717ed8E, symObjAddr: 0x31598, symBinAddr: 0x100054500, symSize: 0x21C }
  - { offset: 0xA65EB, size: 0x8, addend: 0x0, symName: __ZN3std4path4Path12_starts_with17h7e4134ca947ec556E, symObjAddr: 0x317B4, symBinAddr: 0x10005471C, symSize: 0x198 }
  - { offset: 0xA66FA, size: 0x8, addend: 0x0, symName: __ZN3std4path4Path10_ends_with17h82da21b174d4a9f5E, symObjAddr: 0x3194C, symBinAddr: 0x1000548B4, symSize: 0x198 }
  - { offset: 0xA686B, size: 0x8, addend: 0x0, symName: __ZN3std4path4Path9file_stem17he830e8d0e280c6e7E, symObjAddr: 0x31AE4, symBinAddr: 0x100054A4C, symSize: 0xF4 }
  - { offset: 0xA6882, size: 0x8, addend: 0x0, symName: __ZN3std4path4Path9file_stem17he830e8d0e280c6e7E, symObjAddr: 0x31AE4, symBinAddr: 0x100054A4C, symSize: 0xF4 }
  - { offset: 0xA6897, size: 0x8, addend: 0x0, symName: __ZN3std4path4Path9file_stem17he830e8d0e280c6e7E, symObjAddr: 0x31AE4, symBinAddr: 0x100054A4C, symSize: 0xF4 }
  - { offset: 0xA68AC, size: 0x8, addend: 0x0, symName: __ZN3std4path4Path9file_stem17he830e8d0e280c6e7E, symObjAddr: 0x31AE4, symBinAddr: 0x100054A4C, symSize: 0xF4 }
  - { offset: 0xA6B2F, size: 0x8, addend: 0x0, symName: __ZN3std4path4Path11file_prefix17h43cf6b8591ab16dfE, symObjAddr: 0x31BD8, symBinAddr: 0x100054B40, symSize: 0x130 }
  - { offset: 0xA6D11, size: 0x8, addend: 0x0, symName: __ZN3std4path4Path9extension17hb71fa3411a3cead4E, symObjAddr: 0x31D08, symBinAddr: 0x100054C70, symSize: 0xC0 }
  - { offset: 0xA6D28, size: 0x8, addend: 0x0, symName: __ZN3std4path4Path9extension17hb71fa3411a3cead4E, symObjAddr: 0x31D08, symBinAddr: 0x100054C70, symSize: 0xC0 }
  - { offset: 0xA6D3D, size: 0x8, addend: 0x0, symName: __ZN3std4path4Path9extension17hb71fa3411a3cead4E, symObjAddr: 0x31D08, symBinAddr: 0x100054C70, symSize: 0xC0 }
  - { offset: 0xA6D52, size: 0x8, addend: 0x0, symName: __ZN3std4path4Path9extension17hb71fa3411a3cead4E, symObjAddr: 0x31D08, symBinAddr: 0x100054C70, symSize: 0xC0 }
  - { offset: 0xA6FA2, size: 0x8, addend: 0x0, symName: __ZN3std4path4Path5_join17had3a2b8f4cd3c0dfE, symObjAddr: 0x31DC8, symBinAddr: 0x100054D30, symSize: 0x19C }
  - { offset: 0xA73FD, size: 0x8, addend: 0x0, symName: __ZN3std4path4Path15_with_file_name17h7cae80f1d26956c7E, symObjAddr: 0x31F64, symBinAddr: 0x100054ECC, symSize: 0xE8 }
  - { offset: 0xA7636, size: 0x8, addend: 0x0, symName: __ZN3std4path4Path15_with_extension17hdff11c758f17b145E, symObjAddr: 0x3204C, symBinAddr: 0x100054FB4, symSize: 0x210 }
  - { offset: 0xA7AF7, size: 0x8, addend: 0x0, symName: __ZN3std4path4Path10components17hab13bcf09bb47166E, symObjAddr: 0x3225C, symBinAddr: 0x1000551C4, symSize: 0x40 }
  - { offset: 0xA7B37, size: 0x8, addend: 0x0, symName: __ZN3std4path4Path7is_file17ha3427b3c5fa7d627E, symObjAddr: 0x3229C, symBinAddr: 0x100055204, symSize: 0x1C4 }
  - { offset: 0xA7F17, size: 0x8, addend: 0x0, symName: __ZN3std4path4Path6is_dir17hc03774e0a986794eE, symObjAddr: 0x32460, symBinAddr: 0x1000553C8, symSize: 0x1C4 }
  - { offset: 0xA82F7, size: 0x8, addend: 0x0, symName: __ZN3std4path4Path10is_symlink17h394c60b15b4bfc42E, symObjAddr: 0x32624, symBinAddr: 0x10005558C, symSize: 0x1C4 }
  - { offset: 0xA88AF, size: 0x8, addend: 0x0, symName: '__ZN58_$LT$std..path..Components$u20$as$u20$core..fmt..Debug$GT$3fmt17h45149c18893f9be8E', symObjAddr: 0x2F7C8, symBinAddr: 0x100052730, symSize: 0x64 }
  - { offset: 0xA88D4, size: 0x8, addend: 0x0, symName: '__ZN112_$LT$$LT$std..path..Components$u20$as$u20$core..fmt..Debug$GT$..fmt..DebugHelper$u20$as$u20$core..fmt..Debug$GT$3fmt17h4d4b5f6a2fd9d21eE', symObjAddr: 0x2F82C, symBinAddr: 0x100052794, symSize: 0xD4 }
  - { offset: 0xA89A8, size: 0x8, addend: 0x0, symName: __ZN3std4path10Components15len_before_body17he1f50228b1838e6aE, symObjAddr: 0x2F900, symBinAddr: 0x100052868, symSize: 0x188 }
  - { offset: 0xA89BF, size: 0x8, addend: 0x0, symName: __ZN3std4path10Components15len_before_body17he1f50228b1838e6aE, symObjAddr: 0x2F900, symBinAddr: 0x100052868, symSize: 0x188 }
  - { offset: 0xA89D4, size: 0x8, addend: 0x0, symName: __ZN3std4path10Components15len_before_body17he1f50228b1838e6aE, symObjAddr: 0x2F900, symBinAddr: 0x100052868, symSize: 0x188 }
  - { offset: 0xA8BB6, size: 0x8, addend: 0x0, symName: __ZN3std4path10Components7as_path17hc4f4a7b78ce3c07eE, symObjAddr: 0x2FA88, symBinAddr: 0x1000529F0, symSize: 0x530 }
  - { offset: 0xA9080, size: 0x8, addend: 0x0, symName: __ZN3std4path10Components25parse_next_component_back17h20507a478b81ee4cE, symObjAddr: 0x2FFB8, symBinAddr: 0x100052F20, symSize: 0x120 }
  - { offset: 0xA928B, size: 0x8, addend: 0x0, symName: '__ZN52_$LT$std..path..Iter$u20$as$u20$core..fmt..Debug$GT$3fmt17ha71445c770876402E', symObjAddr: 0x300D8, symBinAddr: 0x100053040, symSize: 0x64 }
  - { offset: 0xA92C6, size: 0x8, addend: 0x0, symName: '__ZN106_$LT$$LT$std..path..Iter$u20$as$u20$core..fmt..Debug$GT$..fmt..DebugHelper$u20$as$u20$core..fmt..Debug$GT$3fmt17haec8913f11ef51c4E', symObjAddr: 0x3013C, symBinAddr: 0x1000530A4, symSize: 0x134 }
  - { offset: 0xA93AE, size: 0x8, addend: 0x0, symName: '__ZN80_$LT$std..path..Components$u20$as$u20$core..iter..traits..iterator..Iterator$GT$4next17h240fe092a2974e44E', symObjAddr: 0x30270, symBinAddr: 0x1000531D8, symSize: 0x364 }
  - { offset: 0xA96FB, size: 0x8, addend: 0x0, symName: '__ZN95_$LT$std..path..Components$u20$as$u20$core..iter..traits..double_ended..DoubleEndedIterator$GT$9next_back17h4ddd74a66a548e1dE', symObjAddr: 0x305D4, symBinAddr: 0x10005353C, symSize: 0x330 }
  - { offset: 0xA9883, size: 0x8, addend: 0x0, symName: __ZN3std4path18compare_components17h864d03ef5af4c3e7E, symObjAddr: 0x30904, symBinAddr: 0x10005386C, symSize: 0x304 }
  - { offset: 0xA9C62, size: 0x8, addend: 0x0, symName: __ZN3std4path7PathBuf5_push17h5c087d9a4f5c6e83E, symObjAddr: 0x30C08, symBinAddr: 0x100053B70, symSize: 0x104 }
  - { offset: 0xA9FFB, size: 0x8, addend: 0x0, symName: __ZN3std4path7PathBuf3pop17hfd558862512e7aceE, symObjAddr: 0x30D0C, symBinAddr: 0x100053C74, symSize: 0xA8 }
  - { offset: 0xAA200, size: 0x8, addend: 0x0, symName: __ZN3std4path7PathBuf14_set_file_name17hd47cb42524c0c55bE, symObjAddr: 0x30DB4, symBinAddr: 0x100053D1C, symSize: 0x1C8 }
  - { offset: 0xAA6C4, size: 0x8, addend: 0x0, symName: __ZN3std4path7PathBuf14_set_extension17hb70db3a70ae657adE, symObjAddr: 0x30F7C, symBinAddr: 0x100053EE4, symSize: 0x2AC }
  - { offset: 0xAAE80, size: 0x8, addend: 0x0, symName: __ZN3std4path7PathBuf14_add_extension17h81e5f73615b3c69cE, symObjAddr: 0x31228, symBinAddr: 0x100054190, symSize: 0x1B4 }
  - { offset: 0xAB45A, size: 0x8, addend: 0x0, symName: '__ZN3std4path117_$LT$impl$u20$core..convert..From$LT$$RF$std..path..Path$GT$$u20$for$u20$alloc..boxed..Box$LT$std..path..Path$GT$$GT$4from17h53d0d4b0c1260136E', symObjAddr: 0x313DC, symBinAddr: 0x100054344, symSize: 0x80 }
  - { offset: 0xAB58D, size: 0x8, addend: 0x0, symName: '__ZN52_$LT$std..path..Path$u20$as$u20$core..fmt..Debug$GT$3fmt17hd02d5e990aa2db15E', symObjAddr: 0x327E8, symBinAddr: 0x100055750, symSize: 0x28 }
  - { offset: 0xAB5E8, size: 0x8, addend: 0x0, symName: '__ZN55_$LT$std..path..PathBuf$u20$as$u20$core..fmt..Debug$GT$3fmt17h2e6c8b2a7bd3fe27E', symObjAddr: 0x3145C, symBinAddr: 0x1000543C4, symSize: 0x28 }
  - { offset: 0xAB790, size: 0x8, addend: 0x0, symName: '__ZN55_$LT$std..path..Display$u20$as$u20$core..fmt..Debug$GT$3fmt17hc7ac5ba239202d41E', symObjAddr: 0x32810, symBinAddr: 0x100055778, symSize: 0x28 }
  - { offset: 0xAB81E, size: 0x8, addend: 0x0, symName: '__ZN57_$LT$std..path..Display$u20$as$u20$core..fmt..Display$GT$3fmt17hd78f7f625035d814E', symObjAddr: 0x32838, symBinAddr: 0x1000557A0, symSize: 0x1C }
  - { offset: 0xAB85C, size: 0x8, addend: 0x0, symName: '__ZN66_$LT$std..path..StripPrefixError$u20$as$u20$core..fmt..Display$GT$3fmt17hb7925bb09b4b0778E', symObjAddr: 0x32854, symBinAddr: 0x1000557BC, symSize: 0x20 }
  - { offset: 0xAB8A4, size: 0x8, addend: 0x0, symName: '__ZN61_$LT$std..path..Component$u20$as$u20$core..cmp..PartialEq$GT$2eq17h2e109766e714e46fE', symObjAddr: 0x3996C, symBinAddr: 0x10005BE20, symSize: 0x138 }
  - { offset: 0xAB9FE, size: 0x8, addend: 0x0, symName: '__ZN57_$LT$std..path..Component$u20$as$u20$core..fmt..Debug$GT$3fmt17hc8863aa790253172E', symObjAddr: 0x39AA4, symBinAddr: 0x10005BF58, symSize: 0xD0 }
  - { offset: 0xABC62, size: 0x8, addend: 0x0, symName: __ZN3std3ffi6os_str8OsString17into_boxed_os_str17h7a8d7aea12960c13E, symObjAddr: 0x21918, symBinAddr: 0x100044A98, symSize: 0x98 }
  - { offset: 0xABE9E, size: 0x8, addend: 0x0, symName: __ZN3std3ffi6os_str5OsStr14into_os_string17h231a6cccbee9f4c1E, symObjAddr: 0x21A30, symBinAddr: 0x100044BB0, symSize: 0x18 }
  - { offset: 0xABEB9, size: 0x8, addend: 0x0, symName: __ZN3std3ffi6os_str5OsStr18to_ascii_lowercase17h8ef059aa7f49c1d9E, symObjAddr: 0x21A48, symBinAddr: 0x100044BC8, symSize: 0x190 }
  - { offset: 0xAC03E, size: 0x8, addend: 0x0, symName: __ZN3std3ffi6os_str5OsStr18to_ascii_uppercase17h0cd770b92c928a7fE, symObjAddr: 0x21BD8, symBinAddr: 0x100044D58, symSize: 0x190 }
  - { offset: 0xAC255, size: 0x8, addend: 0x0, symName: '__ZN63_$LT$std..ffi..os_str..OsString$u20$as$u20$core..fmt..Write$GT$9write_str17h88f0e05ad2c9ab2dE', symObjAddr: 0x219B0, symBinAddr: 0x100044B30, symSize: 0x80 }
  - { offset: 0xAC3DD, size: 0x8, addend: 0x0, symName: '__ZN3std3ffi6os_str95_$LT$impl$u20$core..convert..TryFrom$LT$$RF$std..ffi..os_str..OsStr$GT$$u20$for$u20$$RF$str$GT$8try_from17hacf1a48227cba18dE', symObjAddr: 0x21D68, symBinAddr: 0x100044EE8, symSize: 0x10 }
  - { offset: 0xAC414, size: 0x8, addend: 0x0, symName: '__ZN62_$LT$std..ffi..os_str..Display$u20$as$u20$core..fmt..Debug$GT$3fmt17he506d065f9a30d97E', symObjAddr: 0x21D78, symBinAddr: 0x100044EF8, symSize: 0x28 }
  - { offset: 0xAC493, size: 0x8, addend: 0x0, symName: '__ZN64_$LT$std..ffi..os_str..Display$u20$as$u20$core..fmt..Display$GT$3fmt17h2c9e238ad5a6828eE', symObjAddr: 0x21DA0, symBinAddr: 0x100044F20, symSize: 0x1C }
  - { offset: 0xAC6FD, size: 0x8, addend: 0x0, symName: __ZN3std2io5error5Error3new17ha6bd369ff0e694abE, symObjAddr: 0x24D90, symBinAddr: 0x100047CF8, symSize: 0x12C }
  - { offset: 0xACA3E, size: 0x8, addend: 0x0, symName: __ZN3std2io5error5Error3new17hc24aef2a81b5e04bE, symObjAddr: 0x24EBC, symBinAddr: 0x100047E24, symSize: 0x80 }
  - { offset: 0xACB04, size: 0x8, addend: 0x0, symName: __ZN3std2io5error5Error4_new17hb9ca239c11358d50E, symObjAddr: 0x24F3C, symBinAddr: 0x100047EA4, symSize: 0x84 }
  - { offset: 0xACE8F, size: 0x8, addend: 0x0, symName: __ZN3std2io5error14repr_bitpacked4Repr3new17h6c32bd6df2bb9932E, symObjAddr: 0x24C4C, symBinAddr: 0x100047BB4, symSize: 0x58 }
  - { offset: 0xAD0CD, size: 0x8, addend: 0x0, symName: __ZN3std2io5error14repr_bitpacked11decode_repr17h61864a3e30e49abfE, symObjAddr: 0x24CA4, symBinAddr: 0x100047C0C, symSize: 0x64 }
  - { offset: 0xAD170, size: 0x8, addend: 0x0, symName: '__ZN58_$LT$std..io..error..Error$u20$as$u20$core..fmt..Debug$GT$3fmt17h8bf91d1757b352fdE', symObjAddr: 0x24D08, symBinAddr: 0x100047C70, symSize: 0x10 }
  - { offset: 0xAD190, size: 0x8, addend: 0x0, symName: '__ZN96_$LT$std..io..error..Error$u20$as$u20$core..convert..From$LT$alloc..ffi..c_str..NulError$GT$$GT$4from17h3bdf74734a2b5af8E', symObjAddr: 0x24D18, symBinAddr: 0x100047C80, symSize: 0x2C }
  - { offset: 0xAD1AD, size: 0x8, addend: 0x0, symName: '__ZN96_$LT$std..io..error..Error$u20$as$u20$core..convert..From$LT$alloc..ffi..c_str..NulError$GT$$GT$4from17h3bdf74734a2b5af8E', symObjAddr: 0x24D18, symBinAddr: 0x100047C80, symSize: 0x2C }
  - { offset: 0xAD1C1, size: 0x8, addend: 0x0, symName: '__ZN96_$LT$std..io..error..Error$u20$as$u20$core..convert..From$LT$alloc..ffi..c_str..NulError$GT$$GT$4from17h3bdf74734a2b5af8E', symObjAddr: 0x24D18, symBinAddr: 0x100047C80, symSize: 0x2C }
  - { offset: 0xAD246, size: 0x8, addend: 0x0, symName: '__ZN104_$LT$std..io..error..Error$u20$as$u20$core..convert..From$LT$alloc..collections..TryReserveError$GT$$GT$4from17h711c115f3f93aab3E', symObjAddr: 0x24D44, symBinAddr: 0x100047CAC, symSize: 0x18 }
  - { offset: 0xAD27A, size: 0x8, addend: 0x0, symName: '__ZN64_$LT$std..io..error..ErrorKind$u20$as$u20$core..fmt..Display$GT$3fmt17hddd422a0ecfef250E', symObjAddr: 0x24D5C, symBinAddr: 0x100047CC4, symSize: 0x34 }
  - { offset: 0xAD2C4, size: 0x8, addend: 0x0, symName: '__ZN3std2io5error83_$LT$impl$u20$core..fmt..Debug$u20$for$u20$std..io..error..repr_bitpacked..Repr$GT$3fmt17h5a95a85f37e3c23bE', symObjAddr: 0x24FC0, symBinAddr: 0x100047F28, symSize: 0x294 }
  - { offset: 0xAD50F, size: 0x8, addend: 0x0, symName: '__ZN60_$LT$std..io..error..Error$u20$as$u20$core..fmt..Display$GT$3fmt17hf6832004bfff0787E', symObjAddr: 0x25254, symBinAddr: 0x1000481BC, symSize: 0x204 }
  - { offset: 0xAD76C, size: 0x8, addend: 0x0, symName: '__ZN60_$LT$std..io..error..Error$u20$as$u20$core..error..Error$GT$11description17hb3150e6eefe42711E', symObjAddr: 0x25458, symBinAddr: 0x1000483C0, symSize: 0x8C }
  - { offset: 0xAD7F6, size: 0x8, addend: 0x0, symName: '__ZN60_$LT$std..io..error..Error$u20$as$u20$core..error..Error$GT$5cause17hf96e89352a6620cdE', symObjAddr: 0x254E4, symBinAddr: 0x10004844C, symSize: 0x38 }
  - { offset: 0xAD814, size: 0x8, addend: 0x0, symName: '__ZN60_$LT$std..io..error..Error$u20$as$u20$core..error..Error$GT$5cause17hf96e89352a6620cdE', symObjAddr: 0x254E4, symBinAddr: 0x10004844C, symSize: 0x38 }
  - { offset: 0xAD83C, size: 0x8, addend: 0x0, symName: '__ZN60_$LT$std..io..error..Error$u20$as$u20$core..error..Error$GT$6source17h9312daf3ac3f4260E', symObjAddr: 0x2551C, symBinAddr: 0x100048484, symSize: 0x38 }
  - { offset: 0xAD85A, size: 0x8, addend: 0x0, symName: '__ZN60_$LT$std..io..error..Error$u20$as$u20$core..error..Error$GT$6source17h9312daf3ac3f4260E', symObjAddr: 0x2551C, symBinAddr: 0x100048484, symSize: 0x38 }
  - { offset: 0xAD888, size: 0x8, addend: 0x0, symName: '__ZN62_$LT$std..io..error..ErrorKind$u20$as$u20$core..fmt..Debug$GT$3fmt17hb4e443c8fdea1addE', symObjAddr: 0x39938, symBinAddr: 0x10005BDEC, symSize: 0x34 }
  - { offset: 0xAD907, size: 0x8, addend: 0x0, symName: '__ZN80_$LT$std..io..Write..write_fmt..Adapter$LT$T$GT$$u20$as$u20$core..fmt..Write$GT$9write_str17h4e3a703fbc391c88E', symObjAddr: 0x2ABFC, symBinAddr: 0x10004DB64, symSize: 0x50 }
  - { offset: 0xAD931, size: 0x8, addend: 0x0, symName: '__ZN80_$LT$std..io..Write..write_fmt..Adapter$LT$T$GT$$u20$as$u20$core..fmt..Write$GT$9write_str17h99ff46d68fae9060E', symObjAddr: 0x2AC4C, symBinAddr: 0x10004DBB4, symSize: 0xD4 }
  - { offset: 0xADA6F, size: 0x8, addend: 0x0, symName: '__ZN80_$LT$std..io..Write..write_fmt..Adapter$LT$T$GT$$u20$as$u20$core..fmt..Write$GT$9write_str17hb40acde172c4080dE', symObjAddr: 0x2AD20, symBinAddr: 0x10004DC88, symSize: 0x80 }
  - { offset: 0xADBBB, size: 0x8, addend: 0x0, symName: '__ZN80_$LT$std..io..Write..write_fmt..Adapter$LT$T$GT$$u20$as$u20$core..fmt..Write$GT$9write_str17hccd0b6fc5be13c44E', symObjAddr: 0x2ADA0, symBinAddr: 0x10004DD08, symSize: 0x50 }
  - { offset: 0xADBE5, size: 0x8, addend: 0x0, symName: '__ZN80_$LT$std..io..Write..write_fmt..Adapter$LT$T$GT$$u20$as$u20$core..fmt..Write$GT$9write_str17hfa3cc98e01093c8dE', symObjAddr: 0x2ADF0, symBinAddr: 0x10004DD58, symSize: 0xD4 }
  - { offset: 0xADD87, size: 0x8, addend: 0x0, symName: __ZN3std2io5Write18write_all_vectored17hdae03fff64c0bf59E, symObjAddr: 0x2A7F8, symBinAddr: 0x10004D760, symSize: 0x1BC }
  - { offset: 0xAE06F, size: 0x8, addend: 0x0, symName: __ZN3std2io5Write9write_fmt17h75af97148630d8d3E, symObjAddr: 0x2A9B4, symBinAddr: 0x10004D91C, symSize: 0x124 }
  - { offset: 0xAE2AD, size: 0x8, addend: 0x0, symName: __ZN3std2io5Write9write_fmt17h9610cdd27cd3672cE, symObjAddr: 0x2AAD8, symBinAddr: 0x10004DA40, symSize: 0x124 }
  - { offset: 0xAE54C, size: 0x8, addend: 0x0, symName: '__ZN3std2io5impls83_$LT$impl$u20$std..io..Write$u20$for$u20$core..io..borrowed_buf..BorrowedCursor$GT$5write17he304c4a96d16e78dE', symObjAddr: 0x25554, symBinAddr: 0x1000484BC, symSize: 0x58 }
  - { offset: 0xAE6F9, size: 0x8, addend: 0x0, symName: __ZN3std2io8buffered9bufreader6buffer6Buffer9backshift17hd61e5f00ca8899a5E, symObjAddr: 0x23D0C, symBinAddr: 0x100046E8C, symSize: 0x58 }
  - { offset: 0xAE95B, size: 0x8, addend: 0x0, symName: '__ZN82_$LT$std..io..buffered..bufreader..BufReader$LT$R$GT$$u20$as$u20$std..io..Read$GT$4read17hb98662383eab68f8E', symObjAddr: 0x23D64, symBinAddr: 0x100046EE4, symSize: 0x1B0 }
  - { offset: 0xAED3E, size: 0x8, addend: 0x0, symName: '__ZN82_$LT$std..io..buffered..bufreader..BufReader$LT$R$GT$$u20$as$u20$std..io..Read$GT$8read_buf17hb49c2ea41f7ae7aeE', symObjAddr: 0x23F14, symBinAddr: 0x100047094, symSize: 0x1B0 }
  - { offset: 0xAF379, size: 0x8, addend: 0x0, symName: '__ZN82_$LT$std..io..buffered..bufreader..BufReader$LT$R$GT$$u20$as$u20$std..io..Read$GT$11read_to_end17hd33ccd3b46de5a30E', symObjAddr: 0x240C4, symBinAddr: 0x100047244, symSize: 0x15C }
  - { offset: 0xAF71F, size: 0x8, addend: 0x0, symName: '__ZN3std2io8buffered9bufwriter18BufWriter$LT$W$GT$9flush_buf17h8caf5baab3909c0eE', symObjAddr: 0x24220, symBinAddr: 0x1000473A0, symSize: 0x204 }
  - { offset: 0xAFC7D, size: 0x8, addend: 0x0, symName: '__ZN3std2io8buffered9bufwriter18BufWriter$LT$W$GT$10write_cold17hb2cd0c49dfbb647bE', symObjAddr: 0x244B8, symBinAddr: 0x1000AC2B0, symSize: 0xF8 }
  - { offset: 0xAFED4, size: 0x8, addend: 0x0, symName: '__ZN3std2io8buffered9bufwriter18BufWriter$LT$W$GT$14write_all_cold17h5452cfd42e3caf48E', symObjAddr: 0x245B0, symBinAddr: 0x1000AC3A8, symSize: 0x120 }
  - { offset: 0xB01C2, size: 0x8, addend: 0x0, symName: '__ZN111_$LT$std..io..buffered..bufwriter..BufWriter$LT$W$GT$..flush_buf..BufGuard$u20$as$u20$core..ops..drop..Drop$GT$4drop17h69591a2c9f0cb0b2E', symObjAddr: 0x24458, symBinAddr: 0x1000475D8, symSize: 0x60 }
  - { offset: 0xB0378, size: 0x8, addend: 0x0, symName: '__ZN3std2io8buffered9bufwriter18BufWriter$LT$W$GT$9flush_buf8BufGuard9remaining17hc0b18bfe3e00374bE', symObjAddr: 0x24424, symBinAddr: 0x1000475A4, symSize: 0x34 }
  - { offset: 0xB0427, size: 0x8, addend: 0x0, symName: '__ZN83_$LT$std..io..buffered..bufwriter..WriterPanicked$u20$as$u20$core..fmt..Display$GT$3fmt17h0ad0299d24e2616eE', symObjAddr: 0x246D0, symBinAddr: 0x100047638, symSize: 0x54 }
  - { offset: 0xB0473, size: 0x8, addend: 0x0, symName: '__ZN81_$LT$std..io..buffered..bufwriter..WriterPanicked$u20$as$u20$core..fmt..Debug$GT$3fmt17ha1177804a1855087E', symObjAddr: 0x24724, symBinAddr: 0x10004768C, symSize: 0xA4 }
  - { offset: 0xB05F8, size: 0x8, addend: 0x0, symName: '__ZN93_$LT$std..io..buffered..linewritershim..LineWriterShim$LT$W$GT$$u20$as$u20$std..io..Write$GT$14write_vectored17hed0aef1b26992b91E', symObjAddr: 0x247C8, symBinAddr: 0x100047730, symSize: 0x45C }
  - { offset: 0xB0EE9, size: 0x8, addend: 0x0, symName: '__ZN58_$LT$std..io..stdio..StdinRaw$u20$as$u20$std..io..Read$GT$4read17h387e37e377cba61dE', symObjAddr: 0x255AC, symBinAddr: 0x100048514, symSize: 0x74 }
  - { offset: 0xB0FE7, size: 0x8, addend: 0x0, symName: '__ZN58_$LT$std..io..stdio..StdinRaw$u20$as$u20$std..io..Read$GT$8read_buf17h552ce8e9bdc47091E', symObjAddr: 0x25620, symBinAddr: 0x100048588, symSize: 0x88 }
  - { offset: 0xB11BF, size: 0x8, addend: 0x0, symName: '__ZN58_$LT$std..io..stdio..StdinRaw$u20$as$u20$std..io..Read$GT$13read_vectored17hc60583448e868c88E', symObjAddr: 0x256A8, symBinAddr: 0x100048610, symSize: 0x74 }
  - { offset: 0xB12BD, size: 0x8, addend: 0x0, symName: '__ZN58_$LT$std..io..stdio..StdinRaw$u20$as$u20$std..io..Read$GT$11read_to_end17h9cc78a1ef7a3dbd8E', symObjAddr: 0x2571C, symBinAddr: 0x100048684, symSize: 0x44 }
  - { offset: 0xB12FA, size: 0x8, addend: 0x0, symName: '__ZN58_$LT$std..io..stdio..StdinRaw$u20$as$u20$std..io..Read$GT$14read_to_string17he2edb8a3a26005d3E', symObjAddr: 0x25760, symBinAddr: 0x1000486C8, symSize: 0xE0 }
  - { offset: 0xB158B, size: 0x8, addend: 0x0, symName: '__ZN60_$LT$std..io..stdio..StdoutRaw$u20$as$u20$std..io..Write$GT$5write17h6d80a2315418ce1aE', symObjAddr: 0x25840, symBinAddr: 0x1000487A8, symSize: 0x7C }
  - { offset: 0xB168B, size: 0x8, addend: 0x0, symName: '__ZN60_$LT$std..io..stdio..StdoutRaw$u20$as$u20$std..io..Write$GT$14write_vectored17h820c5dfe52b6cdbbE', symObjAddr: 0x258BC, symBinAddr: 0x100048824, symSize: 0x100 }
  - { offset: 0xB17DD, size: 0x8, addend: 0x0, symName: '__ZN60_$LT$std..io..stdio..StdoutRaw$u20$as$u20$std..io..Write$GT$9write_all17hf87f9c7cee071567E', symObjAddr: 0x259BC, symBinAddr: 0x100048924, symSize: 0xB8 }
  - { offset: 0xB1919, size: 0x8, addend: 0x0, symName: '__ZN60_$LT$std..io..stdio..StdoutRaw$u20$as$u20$std..io..Write$GT$18write_all_vectored17h5d9248b4edae636aE', symObjAddr: 0x25A74, symBinAddr: 0x1000489DC, symSize: 0x1CC }
  - { offset: 0xB1C21, size: 0x8, addend: 0x0, symName: '__ZN60_$LT$std..io..stdio..StdoutRaw$u20$as$u20$std..io..Write$GT$9write_fmt17hb957db6ba19087cbE', symObjAddr: 0x25C40, symBinAddr: 0x100048BA8, symSize: 0x134 }
  - { offset: 0xB1E92, size: 0x8, addend: 0x0, symName: '__ZN60_$LT$std..io..stdio..StderrRaw$u20$as$u20$std..io..Write$GT$5write17h85aaae0f35548c00E', symObjAddr: 0x25D74, symBinAddr: 0x100048CDC, symSize: 0x7C }
  - { offset: 0xB1FA5, size: 0x8, addend: 0x0, symName: '__ZN60_$LT$std..io..stdio..StderrRaw$u20$as$u20$std..io..Write$GT$14write_vectored17hd78174db8fc147a4E', symObjAddr: 0x25DF0, symBinAddr: 0x100048D58, symSize: 0x100 }
  - { offset: 0xB20F7, size: 0x8, addend: 0x0, symName: '__ZN60_$LT$std..io..stdio..StderrRaw$u20$as$u20$std..io..Write$GT$5flush17h68ff36f973374809E', symObjAddr: 0x25EF0, symBinAddr: 0x100048E58, symSize: 0x14 }
  - { offset: 0xB2111, size: 0x8, addend: 0x0, symName: '__ZN60_$LT$std..io..stdio..StderrRaw$u20$as$u20$std..io..Write$GT$9write_all17h9d5354f74368a8c1E', symObjAddr: 0x25F04, symBinAddr: 0x100048E6C, symSize: 0xB8 }
  - { offset: 0xB224D, size: 0x8, addend: 0x0, symName: '__ZN60_$LT$std..io..stdio..StderrRaw$u20$as$u20$std..io..Write$GT$18write_all_vectored17hd4d446d85c5d3c9aE', symObjAddr: 0x25FBC, symBinAddr: 0x100048F24, symSize: 0x28 }
  - { offset: 0xB2276, size: 0x8, addend: 0x0, symName: '__ZN60_$LT$std..io..stdio..StderrRaw$u20$as$u20$std..io..Write$GT$9write_fmt17h1f221e18c2a1037cE', symObjAddr: 0x25FE4, symBinAddr: 0x100048F4C, symSize: 0x28 }
  - { offset: 0xB22E7, size: 0x8, addend: 0x0, symName: __ZN3std2io5stdio5stdin17h35bb502fde595575E, symObjAddr: 0x2600C, symBinAddr: 0x100048F74, symSize: 0x3C }
  - { offset: 0xB231F, size: 0x8, addend: 0x0, symName: __ZN3std2io5stdio5stdin17h35bb502fde595575E, symObjAddr: 0x2600C, symBinAddr: 0x100048F74, symSize: 0x3C }
  - { offset: 0xB2334, size: 0x8, addend: 0x0, symName: __ZN3std2io5stdio5stdin17h35bb502fde595575E, symObjAddr: 0x2600C, symBinAddr: 0x100048F74, symSize: 0x3C }
  - { offset: 0xB2348, size: 0x8, addend: 0x0, symName: __ZN3std2io5stdio5stdin17h35bb502fde595575E, symObjAddr: 0x2600C, symBinAddr: 0x100048F74, symSize: 0x3C }
  - { offset: 0xB235D, size: 0x8, addend: 0x0, symName: __ZN3std2io5stdio5stdin17h35bb502fde595575E, symObjAddr: 0x2600C, symBinAddr: 0x100048F74, symSize: 0x3C }
  - { offset: 0xB2372, size: 0x8, addend: 0x0, symName: __ZN3std2io5stdio5stdin17h35bb502fde595575E, symObjAddr: 0x2600C, symBinAddr: 0x100048F74, symSize: 0x3C }
  - { offset: 0xB2386, size: 0x8, addend: 0x0, symName: __ZN3std2io5stdio5stdin17h35bb502fde595575E, symObjAddr: 0x2600C, symBinAddr: 0x100048F74, symSize: 0x3C }
  - { offset: 0xB23A5, size: 0x8, addend: 0x0, symName: __ZN3std2io5stdio5Stdin4lock17ha4e0539eb022067cE, symObjAddr: 0x26048, symBinAddr: 0x100048FB0, symSize: 0x68 }
  - { offset: 0xB24EB, size: 0x8, addend: 0x0, symName: __ZN3std2io5stdio5Stdin9read_line17h0c6bd250cfaf5e45E, symObjAddr: 0x260B0, symBinAddr: 0x100049018, symSize: 0x15C }
  - { offset: 0xB2970, size: 0x8, addend: 0x0, symName: __ZN3std2io5stdio5Stdin5lines17h59cbd7fe24270455E, symObjAddr: 0x2620C, symBinAddr: 0x100049174, symSize: 0x68 }
  - { offset: 0xB2AD1, size: 0x8, addend: 0x0, symName: '__ZN62_$LT$std..io..stdio..StdinLock$u20$as$u20$std..io..BufRead$GT$8fill_buf17ha03984886177e0b8E', symObjAddr: 0x27698, symBinAddr: 0x10004A600, symSize: 0xD0 }
  - { offset: 0xB2CE5, size: 0x8, addend: 0x0, symName: '__ZN62_$LT$std..io..stdio..StdinLock$u20$as$u20$std..io..BufRead$GT$7consume17hac69548ccca8fcacE', symObjAddr: 0x27768, symBinAddr: 0x10004A6D0, symSize: 0x28 }
  - { offset: 0xB2D82, size: 0x8, addend: 0x0, symName: '__ZN62_$LT$std..io..stdio..StdinLock$u20$as$u20$std..io..BufRead$GT$10read_until17ha39fa5e38bb78c4cE', symObjAddr: 0x27790, symBinAddr: 0x10004A6F8, symSize: 0x18 }
  - { offset: 0xB2DDE, size: 0x8, addend: 0x0, symName: '__ZN62_$LT$std..io..stdio..StdinLock$u20$as$u20$std..io..BufRead$GT$9read_line17h2dc1e74edb12761cE', symObjAddr: 0x277A8, symBinAddr: 0x10004A710, symSize: 0xC0 }
  - { offset: 0xB300A, size: 0x8, addend: 0x0, symName: '__ZN58_$LT$std..io..stdio..Stdin$u20$as$u20$core..fmt..Debug$GT$3fmt17h18506d32217dd156E', symObjAddr: 0x26274, symBinAddr: 0x1000491DC, symSize: 0x38 }
  - { offset: 0xB3055, size: 0x8, addend: 0x0, symName: '__ZN59_$LT$std..io..stdio..StdinLock$u20$as$u20$std..io..Read$GT$4read17h6b490506125ae8cbE', symObjAddr: 0x26EF8, symBinAddr: 0x100049E60, symSize: 0x18 }
  - { offset: 0xB3095, size: 0x8, addend: 0x0, symName: '__ZN59_$LT$std..io..stdio..StdinLock$u20$as$u20$std..io..Read$GT$8read_buf17h8f9b5467f999e3daE', symObjAddr: 0x26F10, symBinAddr: 0x100049E78, symSize: 0x18 }
  - { offset: 0xB30D5, size: 0x8, addend: 0x0, symName: '__ZN59_$LT$std..io..stdio..StdinLock$u20$as$u20$std..io..Read$GT$13read_vectored17hbc7d58e4612f164aE', symObjAddr: 0x26F28, symBinAddr: 0x100049E90, symSize: 0x284 }
  - { offset: 0xB35EA, size: 0x8, addend: 0x0, symName: '__ZN59_$LT$std..io..stdio..StdinLock$u20$as$u20$std..io..Read$GT$11read_to_end17h3e8246cdb665890bE', symObjAddr: 0x271AC, symBinAddr: 0x10004A114, symSize: 0x18 }
  - { offset: 0xB362A, size: 0x8, addend: 0x0, symName: '__ZN59_$LT$std..io..stdio..StdinLock$u20$as$u20$std..io..Read$GT$14read_to_string17h654ac4f98cdc5becE', symObjAddr: 0x271C4, symBinAddr: 0x10004A12C, symSize: 0x1B4 }
  - { offset: 0xB3BDB, size: 0x8, addend: 0x0, symName: '__ZN59_$LT$std..io..stdio..StdinLock$u20$as$u20$std..io..Read$GT$10read_exact17h7f1bef035b9584e8E', symObjAddr: 0x27378, symBinAddr: 0x10004A2E0, symSize: 0x194 }
  - { offset: 0xB3FBE, size: 0x8, addend: 0x0, symName: '__ZN59_$LT$std..io..stdio..StdinLock$u20$as$u20$std..io..Read$GT$14read_buf_exact17h158cfdefe25dc32dE', symObjAddr: 0x2750C, symBinAddr: 0x10004A474, symSize: 0x18C }
  - { offset: 0xB4493, size: 0x8, addend: 0x0, symName: '__ZN55_$LT$std..io..stdio..Stdin$u20$as$u20$std..io..Read$GT$4read17hee660d4ff490e299E', symObjAddr: 0x262AC, symBinAddr: 0x100049214, symSize: 0xF0 }
  - { offset: 0xB4704, size: 0x8, addend: 0x0, symName: '__ZN55_$LT$std..io..stdio..Stdin$u20$as$u20$std..io..Read$GT$8read_buf17hae8d40d6ce62b485E', symObjAddr: 0x2639C, symBinAddr: 0x100049304, symSize: 0xD0 }
  - { offset: 0xB4975, size: 0x8, addend: 0x0, symName: '__ZN55_$LT$std..io..stdio..Stdin$u20$as$u20$std..io..Read$GT$13read_vectored17hea240284dfd9c325E', symObjAddr: 0x2646C, symBinAddr: 0x1000493D4, symSize: 0xD8 }
  - { offset: 0xB4BE2, size: 0x8, addend: 0x0, symName: '__ZN55_$LT$std..io..stdio..Stdin$u20$as$u20$std..io..Read$GT$11read_to_end17h3066023e07621165E', symObjAddr: 0x26544, symBinAddr: 0x1000494AC, symSize: 0xD8 }
  - { offset: 0xB4E90, size: 0x8, addend: 0x0, symName: '__ZN55_$LT$std..io..stdio..Stdin$u20$as$u20$std..io..Read$GT$14read_to_string17h84dedb3c483f10b6E', symObjAddr: 0x2661C, symBinAddr: 0x100049584, symSize: 0xE8 }
  - { offset: 0xB50FD, size: 0x8, addend: 0x0, symName: '__ZN55_$LT$std..io..stdio..Stdin$u20$as$u20$std..io..Read$GT$10read_exact17h9bedca47acee2b71E', symObjAddr: 0x26704, symBinAddr: 0x10004966C, symSize: 0xE8 }
  - { offset: 0xB536A, size: 0x8, addend: 0x0, symName: '__ZN55_$LT$std..io..stdio..Stdin$u20$as$u20$std..io..Read$GT$14read_buf_exact17h87765d806fbabebaE', symObjAddr: 0x267EC, symBinAddr: 0x100049754, symSize: 0xD8 }
  - { offset: 0xB55DD, size: 0x8, addend: 0x0, symName: '__ZN59_$LT$$RF$std..io..stdio..Stdin$u20$as$u20$std..io..Read$GT$4read17hf096518c72d5cc56E', symObjAddr: 0x268C4, symBinAddr: 0x10004982C, symSize: 0xF4 }
  - { offset: 0xB584E, size: 0x8, addend: 0x0, symName: '__ZN59_$LT$$RF$std..io..stdio..Stdin$u20$as$u20$std..io..Read$GT$8read_buf17he112e687fad55dd9E', symObjAddr: 0x269B8, symBinAddr: 0x100049920, symSize: 0xD4 }
  - { offset: 0xB5ABF, size: 0x8, addend: 0x0, symName: '__ZN59_$LT$$RF$std..io..stdio..Stdin$u20$as$u20$std..io..Read$GT$13read_vectored17hf7fb5277fb2e0819E', symObjAddr: 0x26A8C, symBinAddr: 0x1000499F4, symSize: 0xDC }
  - { offset: 0xB5D2C, size: 0x8, addend: 0x0, symName: '__ZN59_$LT$$RF$std..io..stdio..Stdin$u20$as$u20$std..io..Read$GT$11read_to_end17h615809d91a599e28E', symObjAddr: 0x26B68, symBinAddr: 0x100049AD0, symSize: 0xDC }
  - { offset: 0xB5FDA, size: 0x8, addend: 0x0, symName: '__ZN59_$LT$$RF$std..io..stdio..Stdin$u20$as$u20$std..io..Read$GT$14read_to_string17hbb05555b83851c99E', symObjAddr: 0x26C44, symBinAddr: 0x100049BAC, symSize: 0xEC }
  - { offset: 0xB6247, size: 0x8, addend: 0x0, symName: '__ZN59_$LT$$RF$std..io..stdio..Stdin$u20$as$u20$std..io..Read$GT$10read_exact17hfc3057923c143f9cE', symObjAddr: 0x26D30, symBinAddr: 0x100049C98, symSize: 0xEC }
  - { offset: 0xB64B4, size: 0x8, addend: 0x0, symName: '__ZN59_$LT$$RF$std..io..stdio..Stdin$u20$as$u20$std..io..Read$GT$14read_buf_exact17h518c2f93d17d5b8cE', symObjAddr: 0x26E1C, symBinAddr: 0x100049D84, symSize: 0xDC }
  - { offset: 0xB6727, size: 0x8, addend: 0x0, symName: '__ZN62_$LT$std..io..stdio..StdinLock$u20$as$u20$core..fmt..Debug$GT$3fmt17he9ac930417d3455dE', symObjAddr: 0x27868, symBinAddr: 0x10004A7D0, symSize: 0x38 }
  - { offset: 0xB6743, size: 0x8, addend: 0x0, symName: __ZN3std2io5stdio6stdout17h0ff45a09ed3da47aE, symObjAddr: 0x278A0, symBinAddr: 0x10004A808, symSize: 0x3C }
  - { offset: 0xB6774, size: 0x8, addend: 0x0, symName: __ZN3std2io5stdio6stdout17h0ff45a09ed3da47aE, symObjAddr: 0x278A0, symBinAddr: 0x10004A808, symSize: 0x3C }
  - { offset: 0xB6789, size: 0x8, addend: 0x0, symName: __ZN3std2io5stdio6stdout17h0ff45a09ed3da47aE, symObjAddr: 0x278A0, symBinAddr: 0x10004A808, symSize: 0x3C }
  - { offset: 0xB679D, size: 0x8, addend: 0x0, symName: __ZN3std2io5stdio6stdout17h0ff45a09ed3da47aE, symObjAddr: 0x278A0, symBinAddr: 0x10004A808, symSize: 0x3C }
  - { offset: 0xB67B2, size: 0x8, addend: 0x0, symName: __ZN3std2io5stdio6stdout17h0ff45a09ed3da47aE, symObjAddr: 0x278A0, symBinAddr: 0x10004A808, symSize: 0x3C }
  - { offset: 0xB67C7, size: 0x8, addend: 0x0, symName: __ZN3std2io5stdio6stdout17h0ff45a09ed3da47aE, symObjAddr: 0x278A0, symBinAddr: 0x10004A808, symSize: 0x3C }
  - { offset: 0xB67DB, size: 0x8, addend: 0x0, symName: __ZN3std2io5stdio6stdout17h0ff45a09ed3da47aE, symObjAddr: 0x278A0, symBinAddr: 0x10004A808, symSize: 0x3C }
  - { offset: 0xB67FA, size: 0x8, addend: 0x0, symName: '__ZN59_$LT$std..io..stdio..Stdout$u20$as$u20$core..fmt..Debug$GT$3fmt17h1e4064b9fefd85d1E', symObjAddr: 0x278DC, symBinAddr: 0x10004A844, symSize: 0x38 }
  - { offset: 0xB6845, size: 0x8, addend: 0x0, symName: '__ZN61_$LT$$RF$std..io..stdio..Stdout$u20$as$u20$std..io..Write$GT$5write17h497d5ec05727f18eE', symObjAddr: 0x27B5C, symBinAddr: 0x10004AAC4, symSize: 0xA8 }
  - { offset: 0xB6A32, size: 0x8, addend: 0x0, symName: '__ZN61_$LT$$RF$std..io..stdio..Stdout$u20$as$u20$std..io..Write$GT$14write_vectored17hede7d3936fce79b2E', symObjAddr: 0x27C04, symBinAddr: 0x10004AB6C, symSize: 0xDC }
  - { offset: 0xB6E60, size: 0x8, addend: 0x0, symName: '__ZN61_$LT$$RF$std..io..stdio..Stdout$u20$as$u20$std..io..Write$GT$5flush17h0985c76f4a38abafE', symObjAddr: 0x27CE0, symBinAddr: 0x10004AC48, symSize: 0xBC }
  - { offset: 0xB72A3, size: 0x8, addend: 0x0, symName: '__ZN61_$LT$$RF$std..io..stdio..Stdout$u20$as$u20$std..io..Write$GT$9write_all17haa15cea697b461d7E', symObjAddr: 0x27D9C, symBinAddr: 0x10004AD04, symSize: 0xA0 }
  - { offset: 0xB7490, size: 0x8, addend: 0x0, symName: '__ZN61_$LT$$RF$std..io..stdio..Stdout$u20$as$u20$std..io..Write$GT$18write_all_vectored17h939b3811c333e049E', symObjAddr: 0x27E3C, symBinAddr: 0x10004ADA4, symSize: 0xA0 }
  - { offset: 0xB767D, size: 0x8, addend: 0x0, symName: '__ZN61_$LT$$RF$std..io..stdio..Stdout$u20$as$u20$std..io..Write$GT$9write_fmt17h952563a5eefc7f25E', symObjAddr: 0x27EDC, symBinAddr: 0x10004AE44, symSize: 0x18C }
  - { offset: 0xB7A8F, size: 0x8, addend: 0x0, symName: '__ZN57_$LT$std..io..stdio..Stdout$u20$as$u20$std..io..Write$GT$5write17h35f6effde5df7a9cE', symObjAddr: 0x27914, symBinAddr: 0x10004A87C, symSize: 0xA4 }
  - { offset: 0xB7C91, size: 0x8, addend: 0x0, symName: '__ZN57_$LT$std..io..stdio..Stdout$u20$as$u20$std..io..Write$GT$14write_vectored17he302611c0b728527E', symObjAddr: 0x279B8, symBinAddr: 0x10004A920, symSize: 0x24 }
  - { offset: 0xB7CAC, size: 0x8, addend: 0x0, symName: '__ZN57_$LT$std..io..stdio..Stdout$u20$as$u20$std..io..Write$GT$5flush17h7d3e849ee1db19bcE', symObjAddr: 0x279DC, symBinAddr: 0x10004A944, symSize: 0x24 }
  - { offset: 0xB7CC7, size: 0x8, addend: 0x0, symName: '__ZN57_$LT$std..io..stdio..Stdout$u20$as$u20$std..io..Write$GT$9write_all17he35cb3e82310f3d6E', symObjAddr: 0x27A00, symBinAddr: 0x10004A968, symSize: 0x9C }
  - { offset: 0xB7EC9, size: 0x8, addend: 0x0, symName: '__ZN57_$LT$std..io..stdio..Stdout$u20$as$u20$std..io..Write$GT$18write_all_vectored17ha50c9e2cc6870a23E', symObjAddr: 0x27A9C, symBinAddr: 0x10004AA04, symSize: 0x9C }
  - { offset: 0xB80CB, size: 0x8, addend: 0x0, symName: '__ZN57_$LT$std..io..stdio..Stdout$u20$as$u20$std..io..Write$GT$9write_fmt17h60fe04718020a3a8E', symObjAddr: 0x27B38, symBinAddr: 0x10004AAA0, symSize: 0x24 }
  - { offset: 0xB810F, size: 0x8, addend: 0x0, symName: '__ZN61_$LT$std..io..stdio..StdoutLock$u20$as$u20$std..io..Write$GT$5write17h8402da5d90828be8E', symObjAddr: 0x28068, symBinAddr: 0x10004AFD0, symSize: 0x25C }
  - { offset: 0xB8936, size: 0x8, addend: 0x0, symName: '__ZN61_$LT$std..io..stdio..StdoutLock$u20$as$u20$std..io..Write$GT$14write_vectored17h244e66b61a65bc86E', symObjAddr: 0x282C4, symBinAddr: 0x10004B22C, symSize: 0x5C }
  - { offset: 0xB8B8C, size: 0x8, addend: 0x0, symName: '__ZN61_$LT$std..io..stdio..StdoutLock$u20$as$u20$std..io..Write$GT$5flush17hd24afb935d02ca55E', symObjAddr: 0x28320, symBinAddr: 0x10004B288, symSize: 0x5C }
  - { offset: 0xB8DF7, size: 0x8, addend: 0x0, symName: '__ZN61_$LT$std..io..stdio..StdoutLock$u20$as$u20$std..io..Write$GT$9write_all17h0b23f87059158e4bE', symObjAddr: 0x2837C, symBinAddr: 0x10004B2E4, symSize: 0x258 }
  - { offset: 0xB94AF, size: 0x8, addend: 0x0, symName: '__ZN61_$LT$std..io..stdio..StdoutLock$u20$as$u20$std..io..Write$GT$18write_all_vectored17h7c37768515a10ae7E', symObjAddr: 0x285D4, symBinAddr: 0x10004B53C, symSize: 0x2D8 }
  - { offset: 0xB9B6E, size: 0x8, addend: 0x0, symName: '__ZN63_$LT$std..io..stdio..StdoutLock$u20$as$u20$core..fmt..Debug$GT$3fmt17h14ce944173123ce0E', symObjAddr: 0x288AC, symBinAddr: 0x10004B814, symSize: 0x38 }
  - { offset: 0xB9B8F, size: 0x8, addend: 0x0, symName: __ZN3std2io5stdio6Stderr4lock17ha3df19dd37ed7051E, symObjAddr: 0x288E4, symBinAddr: 0x10004B84C, symSize: 0xF0 }
  - { offset: 0xB9E10, size: 0x8, addend: 0x0, symName: '__ZN59_$LT$std..io..stdio..Stderr$u20$as$u20$core..fmt..Debug$GT$3fmt17hd2de10d061b1a8a6E', symObjAddr: 0x289D4, symBinAddr: 0x10004B93C, symSize: 0x38 }
  - { offset: 0xB9E31, size: 0x8, addend: 0x0, symName: '__ZN57_$LT$std..io..stdio..Stderr$u20$as$u20$std..io..Write$GT$5write17h2900f0f33eff241eE', symObjAddr: 0x28A0C, symBinAddr: 0x10004B974, symSize: 0x24 }
  - { offset: 0xB9E4C, size: 0x8, addend: 0x0, symName: '__ZN57_$LT$std..io..stdio..Stderr$u20$as$u20$std..io..Write$GT$14write_vectored17hde43835ab455c89bE', symObjAddr: 0x28A30, symBinAddr: 0x10004B998, symSize: 0x24 }
  - { offset: 0xB9E67, size: 0x8, addend: 0x0, symName: '__ZN57_$LT$std..io..stdio..Stderr$u20$as$u20$std..io..Write$GT$5flush17hea84fa6b8baec6e0E', symObjAddr: 0x28A54, symBinAddr: 0x10004B9BC, symSize: 0x80 }
  - { offset: 0xBA0C6, size: 0x8, addend: 0x0, symName: '__ZN57_$LT$std..io..stdio..Stderr$u20$as$u20$std..io..Write$GT$9write_all17h2469b814dd58888eE', symObjAddr: 0x28AD4, symBinAddr: 0x10004BA3C, symSize: 0x9C }
  - { offset: 0xBA2C8, size: 0x8, addend: 0x0, symName: '__ZN57_$LT$std..io..stdio..Stderr$u20$as$u20$std..io..Write$GT$18write_all_vectored17h832c413a2a233ae4E', symObjAddr: 0x28B70, symBinAddr: 0x10004BAD8, symSize: 0x24 }
  - { offset: 0xBA2E3, size: 0x8, addend: 0x0, symName: '__ZN57_$LT$std..io..stdio..Stderr$u20$as$u20$std..io..Write$GT$9write_fmt17h606a3fc755d6817aE', symObjAddr: 0x28B94, symBinAddr: 0x10004BAFC, symSize: 0x24 }
  - { offset: 0xBA327, size: 0x8, addend: 0x0, symName: '__ZN61_$LT$$RF$std..io..stdio..Stderr$u20$as$u20$std..io..Write$GT$5write17h357bbf13ec847584E', symObjAddr: 0x28BB8, symBinAddr: 0x10004BB20, symSize: 0x10C }
  - { offset: 0xBA776, size: 0x8, addend: 0x0, symName: '__ZN61_$LT$$RF$std..io..stdio..Stderr$u20$as$u20$std..io..Write$GT$14write_vectored17h29a66d029dfa7cc5E', symObjAddr: 0x28CC4, symBinAddr: 0x10004BC2C, symSize: 0x190 }
  - { offset: 0xBAC17, size: 0x8, addend: 0x0, symName: '__ZN61_$LT$$RF$std..io..stdio..Stderr$u20$as$u20$std..io..Write$GT$5flush17hd8877775a97ed460E', symObjAddr: 0x28E54, symBinAddr: 0x10004BDBC, symSize: 0x84 }
  - { offset: 0xBAE61, size: 0x8, addend: 0x0, symName: '__ZN61_$LT$$RF$std..io..stdio..Stderr$u20$as$u20$std..io..Write$GT$9write_all17h30a49fac27e26b55E', symObjAddr: 0x28ED8, symBinAddr: 0x10004BE40, symSize: 0xA0 }
  - { offset: 0xBB04E, size: 0x8, addend: 0x0, symName: '__ZN61_$LT$$RF$std..io..stdio..Stderr$u20$as$u20$std..io..Write$GT$18write_all_vectored17h0331bbc9ec4046acE', symObjAddr: 0x28F78, symBinAddr: 0x10004BEE0, symSize: 0xE4 }
  - { offset: 0xBB474, size: 0x8, addend: 0x0, symName: '__ZN61_$LT$$RF$std..io..stdio..Stderr$u20$as$u20$std..io..Write$GT$9write_fmt17hb13653ece81c305cE', symObjAddr: 0x2905C, symBinAddr: 0x10004BFC4, symSize: 0x18C }
  - { offset: 0xBB8BE, size: 0x8, addend: 0x0, symName: '__ZN61_$LT$std..io..stdio..StderrLock$u20$as$u20$std..io..Write$GT$5write17h8f94425c51e84efeE', symObjAddr: 0x291E8, symBinAddr: 0x10004C150, symSize: 0xA8 }
  - { offset: 0xBBB3D, size: 0x8, addend: 0x0, symName: '__ZN61_$LT$std..io..stdio..StderrLock$u20$as$u20$std..io..Write$GT$14write_vectored17h9746b7075a3a2496E', symObjAddr: 0x29290, symBinAddr: 0x10004C1F8, symSize: 0x134 }
  - { offset: 0xBBE06, size: 0x8, addend: 0x0, symName: '__ZN61_$LT$std..io..stdio..StderrLock$u20$as$u20$std..io..Write$GT$5flush17h6c834dc523fc3904E', symObjAddr: 0x293C4, symBinAddr: 0x10004C32C, symSize: 0x28 }
  - { offset: 0xBBE1D, size: 0x8, addend: 0x0, symName: '__ZN61_$LT$std..io..stdio..StderrLock$u20$as$u20$std..io..Write$GT$5flush17h6c834dc523fc3904E', symObjAddr: 0x293C4, symBinAddr: 0x10004C32C, symSize: 0x28 }
  - { offset: 0xBBE7F, size: 0x8, addend: 0x0, symName: '__ZN61_$LT$std..io..stdio..StderrLock$u20$as$u20$std..io..Write$GT$9write_all17hbcb946b5e19e88f4E', symObjAddr: 0x293EC, symBinAddr: 0x10004C354, symSize: 0x100 }
  - { offset: 0xBC1E7, size: 0x8, addend: 0x0, symName: '__ZN61_$LT$std..io..stdio..StderrLock$u20$as$u20$std..io..Write$GT$18write_all_vectored17haa5d8ae884b9acf4E', symObjAddr: 0x294EC, symBinAddr: 0x10004C454, symSize: 0x6C }
  - { offset: 0xBC443, size: 0x8, addend: 0x0, symName: '__ZN63_$LT$std..io..stdio..StderrLock$u20$as$u20$core..fmt..Debug$GT$3fmt17hc9ca1b7f8693b83eE', symObjAddr: 0x29558, symBinAddr: 0x10004C4C0, symSize: 0x38 }
  - { offset: 0xBC49A, size: 0x8, addend: 0x0, symName: __ZN3std2io5stdio18set_output_capture17hc31b5c53c6a020cfE, symObjAddr: 0x29590, symBinAddr: 0x10004C4F8, symSize: 0x100 }
  - { offset: 0xBC723, size: 0x8, addend: 0x0, symName: __ZN3std2io5stdio22try_set_output_capture17h6b911b9bf0ee8251E, symObjAddr: 0x29690, symBinAddr: 0x10004C5F8, symSize: 0xF4 }
  - { offset: 0xBC9A1, size: 0x8, addend: 0x0, symName: __ZN3std2io5stdio31print_to_buffer_if_capture_used17h4f9af32139a0ca49E, symObjAddr: 0x29784, symBinAddr: 0x10004C6EC, symSize: 0x208 }
  - { offset: 0xBD091, size: 0x8, addend: 0x0, symName: __ZN3std2io5stdio23attempt_print_to_stderr17h594e6b3929eeb5c4E, symObjAddr: 0x2998C, symBinAddr: 0x10004C8F4, symSize: 0xD0 }
  - { offset: 0xBD2BA, size: 0x8, addend: 0x0, symName: __ZN3std2io5stdio6_print17h94312bde6bc5c430E, symObjAddr: 0x29A5C, symBinAddr: 0x10004C9C4, symSize: 0xE4 }
  - { offset: 0xBD3BF, size: 0x8, addend: 0x0, symName: __ZN3std2io5stdio7_eprint17h3b10a1f297042c6eE, symObjAddr: 0x29B40, symBinAddr: 0x10004CAA8, symSize: 0xC8 }
  - { offset: 0xBD530, size: 0x8, addend: 0x0, symName: '__ZN79_$LT$alloc..vec..Vec$LT$u8$GT$$u20$as$u20$std..io..copy..BufferedWriterSpec$GT$11buffer_size17h458740429d1fb006E', symObjAddr: 0x24C24, symBinAddr: 0x100047B8C, symSize: 0x28 }
  - { offset: 0xBD6AF, size: 0x8, addend: 0x0, symName: '__ZN55_$LT$std..io..util..Repeat$u20$as$u20$std..io..Read$GT$8read_buf17h5cf1d927af365ed9E', symObjAddr: 0x29C08, symBinAddr: 0x10004CB70, symSize: 0x4C }
  - { offset: 0xBD7B9, size: 0x8, addend: 0x0, symName: '__ZN55_$LT$std..io..util..Repeat$u20$as$u20$std..io..Read$GT$11read_to_end17h8b4c2a2d465b5e65E', symObjAddr: 0x29C54, symBinAddr: 0x10004CBBC, symSize: 0x1C }
  - { offset: 0xBD7D9, size: 0x8, addend: 0x0, symName: '__ZN58_$LT$std..io..util..Repeat$u20$as$u20$core..fmt..Debug$GT$3fmt17h7ae86ecc3247476cE', symObjAddr: 0x29C70, symBinAddr: 0x10004CBD8, symSize: 0x38 }
  - { offset: 0xBD824, size: 0x8, addend: 0x0, symName: __ZN3std2io19default_read_to_end16small_probe_read17h386ab1740b8e088aE, symObjAddr: 0x2A3E8, symBinAddr: 0x10004D350, symSize: 0xE4 }
  - { offset: 0xBDA25, size: 0x8, addend: 0x0, symName: __ZN3std2io19default_read_to_end16small_probe_read17h9ec7c2c1befd2d15E, symObjAddr: 0x2A4CC, symBinAddr: 0x10004D434, symSize: 0xF8 }
  - { offset: 0xBDC34, size: 0x8, addend: 0x0, symName: __ZN3std2io19default_read_to_end16small_probe_read17hab939eab7b17d624E, symObjAddr: 0x2A5C4, symBinAddr: 0x10004D52C, symSize: 0xE4 }
  - { offset: 0xBDE27, size: 0x8, addend: 0x0, symName: __ZN3std2io19default_read_to_end16small_probe_read17hca71644b21a9be15E, symObjAddr: 0x2A6A8, symBinAddr: 0x10004D610, symSize: 0xE0 }
  - { offset: 0xBE01A, size: 0x8, addend: 0x0, symName: __ZN3std2io19default_read_to_end17h1c94036f1fd73146E, symObjAddr: 0x29CA8, symBinAddr: 0x10004CC10, symSize: 0x278 }
  - { offset: 0xBE4CD, size: 0x8, addend: 0x0, symName: __ZN3std2io19default_read_to_end17ha6aaeb748dd4b98aE, symObjAddr: 0x29F20, symBinAddr: 0x10004CE88, symSize: 0x274 }
  - { offset: 0xBE98E, size: 0x8, addend: 0x0, symName: __ZN3std2io19default_read_to_end17hb1d63bc7815a760dE, symObjAddr: 0x2A194, symBinAddr: 0x10004D0FC, symSize: 0x254 }
  - { offset: 0xBEE37, size: 0x8, addend: 0x0, symName: '__ZN53_$LT$std..io..IoSlice$u20$as$u20$core..fmt..Debug$GT$3fmt17haee523fe3a266c7cE', symObjAddr: 0x2A788, symBinAddr: 0x10004D6F0, symSize: 0x70 }
  - { offset: 0xBEEF6, size: 0x8, addend: 0x0, symName: __ZN3std2io10read_until17h982791ae7de37757E, symObjAddr: 0x2AEC4, symBinAddr: 0x10004DE2C, symSize: 0x574 }
  - { offset: 0xBF61B, size: 0x8, addend: 0x0, symName: '__ZN3std4sync4once4Once15call_once_force28_$u7b$$u7b$closure$u7d$$u7d$17h1fae7beff65a3bbcE', symObjAddr: 0x344FC, symBinAddr: 0x100057308, symSize: 0x60 }
  - { offset: 0xBF6FD, size: 0x8, addend: 0x0, symName: '__ZN3std4sync4once4Once15call_once_force28_$u7b$$u7b$closure$u7d$$u7d$17hd0e01547106cd689E', symObjAddr: 0x3455C, symBinAddr: 0x100057368, symSize: 0x74 }
  - { offset: 0xBF849, size: 0x8, addend: 0x0, symName: '__ZN3std4sync4once4Once15call_once_force28_$u7b$$u7b$closure$u7d$$u7d$17hd99e267cf82614efE', symObjAddr: 0x345D0, symBinAddr: 0x1000573DC, symSize: 0x78 }
  - { offset: 0xBF9B7, size: 0x8, addend: 0x0, symName: '__ZN3std4sync4once4Once9call_once28_$u7b$$u7b$closure$u7d$$u7d$17h01e395b24de1ff34E', symObjAddr: 0x3411C, symBinAddr: 0x100056F28, symSize: 0x25C }
  - { offset: 0xC01A0, size: 0x8, addend: 0x0, symName: '__ZN3std4sync4once4Once9call_once28_$u7b$$u7b$closure$u7d$$u7d$17h580b4a612321d029E', symObjAddr: 0x34378, symBinAddr: 0x100057184, symSize: 0x184 }
  - { offset: 0xC0571, size: 0x8, addend: 0x0, symName: __ZN3std4sync4once4Once4wait17h853937f230b1a179E, symObjAddr: 0x34648, symBinAddr: 0x100057454, symSize: 0x30 }
  - { offset: 0xC05CD, size: 0x8, addend: 0x0, symName: __ZN3std4sync4once4Once10wait_force17hd1bbbb9d1ad25da9E, symObjAddr: 0x34678, symBinAddr: 0x100057484, symSize: 0x30 }
  - { offset: 0xC0656, size: 0x8, addend: 0x0, symName: '__ZN58_$LT$std..sync..once..Once$u20$as$u20$core..fmt..Debug$GT$3fmt17h32e1042471657d90E', symObjAddr: 0x346A8, symBinAddr: 0x1000574B4, symSize: 0x38 }
  - { offset: 0xC068B, size: 0x8, addend: 0x0, symName: '__ZN63_$LT$std..sync..once..OnceState$u20$as$u20$core..fmt..Debug$GT$3fmt17h48204d1cbbc32447E', symObjAddr: 0x346E0, symBinAddr: 0x1000574EC, symSize: 0x6C }
  - { offset: 0xC07CE, size: 0x8, addend: 0x0, symName: '__ZN3std4sync9once_lock17OnceLock$LT$T$GT$10initialize17h464bd6847401a71eE', symObjAddr: 0x3474C, symBinAddr: 0x1000AC624, symSize: 0x68 }
  - { offset: 0xC07F9, size: 0x8, addend: 0x0, symName: '__ZN3std4sync9once_lock17OnceLock$LT$T$GT$10initialize17h464bd6847401a71eE', symObjAddr: 0x3474C, symBinAddr: 0x1000AC624, symSize: 0x68 }
  - { offset: 0xC080D, size: 0x8, addend: 0x0, symName: '__ZN3std4sync9once_lock17OnceLock$LT$T$GT$10initialize17h464bd6847401a71eE', symObjAddr: 0x3474C, symBinAddr: 0x1000AC624, symSize: 0x68 }
  - { offset: 0xC0821, size: 0x8, addend: 0x0, symName: '__ZN3std4sync9once_lock17OnceLock$LT$T$GT$10initialize17h464bd6847401a71eE', symObjAddr: 0x3474C, symBinAddr: 0x1000AC624, symSize: 0x68 }
  - { offset: 0xC0837, size: 0x8, addend: 0x0, symName: '__ZN3std4sync9once_lock17OnceLock$LT$T$GT$10initialize17h4d2568abbe28249dE', symObjAddr: 0x347B4, symBinAddr: 0x1000AC68C, symSize: 0x5C }
  - { offset: 0xC0862, size: 0x8, addend: 0x0, symName: '__ZN3std4sync9once_lock17OnceLock$LT$T$GT$10initialize17h4d2568abbe28249dE', symObjAddr: 0x347B4, symBinAddr: 0x1000AC68C, symSize: 0x5C }
  - { offset: 0xC0876, size: 0x8, addend: 0x0, symName: '__ZN3std4sync9once_lock17OnceLock$LT$T$GT$10initialize17h4d2568abbe28249dE', symObjAddr: 0x347B4, symBinAddr: 0x1000AC68C, symSize: 0x5C }
  - { offset: 0xC088A, size: 0x8, addend: 0x0, symName: '__ZN3std4sync9once_lock17OnceLock$LT$T$GT$10initialize17h4d2568abbe28249dE', symObjAddr: 0x347B4, symBinAddr: 0x1000AC68C, symSize: 0x5C }
  - { offset: 0xC08A0, size: 0x8, addend: 0x0, symName: '__ZN3std4sync9once_lock17OnceLock$LT$T$GT$10initialize17h6fce188f1418e336E', symObjAddr: 0x34810, symBinAddr: 0x1000AC6E8, symSize: 0x64 }
  - { offset: 0xC08CB, size: 0x8, addend: 0x0, symName: '__ZN3std4sync9once_lock17OnceLock$LT$T$GT$10initialize17h6fce188f1418e336E', symObjAddr: 0x34810, symBinAddr: 0x1000AC6E8, symSize: 0x64 }
  - { offset: 0xC08DF, size: 0x8, addend: 0x0, symName: '__ZN3std4sync9once_lock17OnceLock$LT$T$GT$10initialize17h6fce188f1418e336E', symObjAddr: 0x34810, symBinAddr: 0x1000AC6E8, symSize: 0x64 }
  - { offset: 0xC08F3, size: 0x8, addend: 0x0, symName: '__ZN3std4sync9once_lock17OnceLock$LT$T$GT$10initialize17h6fce188f1418e336E', symObjAddr: 0x34810, symBinAddr: 0x1000AC6E8, symSize: 0x64 }
  - { offset: 0xC0ADC, size: 0x8, addend: 0x0, symName: '__ZN76_$LT$std..sync..poison..PoisonError$LT$T$GT$$u20$as$u20$core..fmt..Debug$GT$3fmt17hd2b6c279d37da147E', symObjAddr: 0x34874, symBinAddr: 0x100057558, symSize: 0x38 }
  - { offset: 0xC0CD0, size: 0x8, addend: 0x0, symName: '__ZN3std4sync6rwlock15RwLock$LT$T$GT$5write17h42d42809d61a12b0E', symObjAddr: 0x348AC, symBinAddr: 0x100057590, symSize: 0x27C }
  - { offset: 0xC13B9, size: 0x8, addend: 0x0, symName: '__ZN3std4sync6rwlock15RwLock$LT$T$GT$5write17h9e5b35da47515648E', symObjAddr: 0x34B28, symBinAddr: 0x10005780C, symSize: 0x27C }
  - { offset: 0xC1B66, size: 0x8, addend: 0x0, symName: __ZN3std4sync9lazy_lock14panic_poisoned17h3fefc2b38bd2f68dE, symObjAddr: 0x340E4, symBinAddr: 0x1000AC5EC, symSize: 0x38 }
  - { offset: 0xC1BF1, size: 0x8, addend: 0x0, symName: __ZN3std4sync4mpmc7context7Context3new17hfd86d24701898f2bE, symObjAddr: 0x33B6C, symBinAddr: 0x1000AC4D4, symSize: 0x118 }
  - { offset: 0xC1F0C, size: 0x8, addend: 0x0, symName: '__ZN69_$LT$std..sync..mpmc..zero..ZeroToken$u20$as$u20$core..fmt..Debug$GT$3fmt17h40fecd985b6d58beE', symObjAddr: 0x33C84, symBinAddr: 0x100056AC8, symSize: 0x48 }
  - { offset: 0xC1F5D, size: 0x8, addend: 0x0, symName: '__ZN65_$LT$std..sync..mpsc..RecvError$u20$as$u20$core..fmt..Display$GT$3fmt17h0611be049a7ab45fE', symObjAddr: 0x33CCC, symBinAddr: 0x100056B10, symSize: 0x20 }
  - { offset: 0xC1F7E, size: 0x8, addend: 0x0, symName: '__ZN68_$LT$std..sync..mpsc..TryRecvError$u20$as$u20$core..fmt..Display$GT$3fmt17h01ac5d8d3ebfb131E', symObjAddr: 0x33CEC, symBinAddr: 0x100056B30, symSize: 0x34 }
  - { offset: 0xC1F9F, size: 0x8, addend: 0x0, symName: '__ZN72_$LT$std..sync..mpsc..RecvTimeoutError$u20$as$u20$core..fmt..Display$GT$3fmt17h57526246445363e6E', symObjAddr: 0x33D20, symBinAddr: 0x100056B64, symSize: 0x3C }
  - { offset: 0xC1FC6, size: 0x8, addend: 0x0, symName: '__ZN64_$LT$std..sync..barrier..Barrier$u20$as$u20$core..fmt..Debug$GT$3fmt17h83f7039af54b043dE', symObjAddr: 0x33D5C, symBinAddr: 0x100056BA0, symSize: 0x38 }
  - { offset: 0xC1FE6, size: 0x8, addend: 0x0, symName: __ZN3std4sync7barrier7Barrier4wait17h7bb201eede0366f0E, symObjAddr: 0x33D94, symBinAddr: 0x100056BD8, symSize: 0x25C }
  - { offset: 0xC24CC, size: 0x8, addend: 0x0, symName: '__ZN74_$LT$std..sync..barrier..BarrierWaitResult$u20$as$u20$core..fmt..Debug$GT$3fmt17h5f66b4ac48c612a3E', symObjAddr: 0x33FF0, symBinAddr: 0x100056E34, symSize: 0x6C }
  - { offset: 0xC252F, size: 0x8, addend: 0x0, symName: __ZN3std4sync7condvar7Condvar10notify_one17ha0ac0fdae85b7983E, symObjAddr: 0x3405C, symBinAddr: 0x100056EA0, symSize: 0x28 }
  - { offset: 0xC25B9, size: 0x8, addend: 0x0, symName: __ZN3std4sync7condvar7Condvar10notify_all17hb55b71d932674f22E, symObjAddr: 0x34084, symBinAddr: 0x100056EC8, symSize: 0x28 }
  - { offset: 0xC2642, size: 0x8, addend: 0x0, symName: '__ZN64_$LT$std..sync..condvar..Condvar$u20$as$u20$core..fmt..Debug$GT$3fmt17hdbf6bf0d11d5c3b1E', symObjAddr: 0x340AC, symBinAddr: 0x100056EF0, symSize: 0x38 }
  - { offset: 0xC269A, size: 0x8, addend: 0x0, symName: '__ZN64_$LT$std..backtrace..Backtrace$u20$as$u20$core..fmt..Display$GT$3fmt17h34ba4a73f9b932c0E', symObjAddr: 0x1FDE4, symBinAddr: 0x100042F64, symSize: 0x444 }
  - { offset: 0xC2EC6, size: 0x8, addend: 0x0, symName: '__ZN62_$LT$std..backtrace..Backtrace$u20$as$u20$core..fmt..Debug$GT$3fmt17hb7ca1fda4f31ed32E', symObjAddr: 0x1F2E4, symBinAddr: 0x100042464, symSize: 0x1BC }
  - { offset: 0xC30AE, size: 0x8, addend: 0x0, symName: '__ZN67_$LT$std..backtrace..BacktraceFrame$u20$as$u20$core..fmt..Debug$GT$3fmt17h77df4084bdfe2585E', symObjAddr: 0x1F4A0, symBinAddr: 0x100042620, symSize: 0x80 }
  - { offset: 0xC3150, size: 0x8, addend: 0x0, symName: '__ZN68_$LT$std..backtrace..BacktraceSymbol$u20$as$u20$core..fmt..Debug$GT$3fmt17h3cfe3162cca7580dE', symObjAddr: 0x1F520, symBinAddr: 0x1000426A0, symSize: 0x238 }
  - { offset: 0xC3351, size: 0x8, addend: 0x0, symName: '__ZN64_$LT$std..backtrace..BytesOrWide$u20$as$u20$core..fmt..Debug$GT$3fmt17hb204a5ba8ec64a11E', symObjAddr: 0x1F758, symBinAddr: 0x1000428D8, symSize: 0x120 }
  - { offset: 0xC3633, size: 0x8, addend: 0x0, symName: __ZN3std9backtrace9Backtrace7capture17hea28902c4f4acc3cE, symObjAddr: 0x1F878, symBinAddr: 0x1000429F8, symSize: 0x228 }
  - { offset: 0xC3B1D, size: 0x8, addend: 0x0, symName: __ZN3std9backtrace9Backtrace13force_capture17ha7ad4b3424b65288E, symObjAddr: 0x1FAA0, symBinAddr: 0x100042C20, symSize: 0x1C }
  - { offset: 0xC3B38, size: 0x8, addend: 0x0, symName: __ZN3std9backtrace9Backtrace6create17h246802f9febf9dabE, symObjAddr: 0x1FABC, symBinAddr: 0x100042C3C, symSize: 0x150 }
  - { offset: 0xC3EB1, size: 0x8, addend: 0x0, symName: __ZN3std9backtrace9Backtrace6frames17h2a3f6fd2314cd488E, symObjAddr: 0x1FD54, symBinAddr: 0x100042ED4, symSize: 0x90 }
  - { offset: 0xC3F94, size: 0x8, addend: 0x0, symName: '__ZN3std9backtrace9Backtrace6create28_$u7b$$u7b$closure$u7d$$u7d$17ha082505f2d9d0708E', symObjAddr: 0x1FC0C, symBinAddr: 0x100042D8C, symSize: 0x148 }
  - { offset: 0xC4172, size: 0x8, addend: 0x0, symName: '__ZN3std9backtrace6helper12lazy_resolve28_$u7b$$u7b$closure$u7d$$u7d$28_$u7b$$u7b$closure$u7d$$u7d$17h749c946dd8de5153E', symObjAddr: 0x20228, symBinAddr: 0x1000433A8, symSize: 0x200 }
  - { offset: 0xC465C, size: 0x8, addend: 0x0, symName: __ZN3std9panicking11panic_count8increase17hd263eb8da2264c90E, symObjAddr: 0x3838C, symBinAddr: 0x10005A8C0, symSize: 0x80 }
  - { offset: 0xC473F, size: 0x8, addend: 0x0, symName: __ZN3std9panicking11panic_count19finished_panic_hook17hd443de22c0d44e15E, symObjAddr: 0x3840C, symBinAddr: 0x10005A940, symSize: 0x24 }
  - { offset: 0xC47ED, size: 0x8, addend: 0x0, symName: __ZN3std9panicking11panic_count8decrease17hb5437bf9038348c9E, symObjAddr: 0x38430, symBinAddr: 0x10005A964, symSize: 0x50 }
  - { offset: 0xC48DB, size: 0x8, addend: 0x0, symName: __ZN3std9panicking11panic_count9get_count17h5ec086d3ad2d1f92E, symObjAddr: 0x38480, symBinAddr: 0x10005A9B4, symSize: 0x24 }
  - { offset: 0xC492F, size: 0x8, addend: 0x0, symName: __ZN3std9panicking11panic_count17is_zero_slow_path17h1754b5b62a0b9f50E, symObjAddr: 0x384A4, symBinAddr: 0x1000ACEFC, symSize: 0x2C }
  - { offset: 0xC4A3A, size: 0x8, addend: 0x0, symName: __ZN3std9panicking3try7cleanup17haf3305050ca6c30fE, symObjAddr: 0x384D0, symBinAddr: 0x1000ACF28, symSize: 0x54 }
  - { offset: 0xC4B93, size: 0x8, addend: 0x0, symName: ___rust_drop_panic, symObjAddr: 0x37BAC, symBinAddr: 0x10005A0E0, symSize: 0xB8 }
  - { offset: 0xC4D84, size: 0x8, addend: 0x0, symName: ___rust_foreign_exception, symObjAddr: 0x37C64, symBinAddr: 0x10005A198, symSize: 0xB8 }
  - { offset: 0xC4F83, size: 0x8, addend: 0x0, symName: __ZN3std9panicking8set_hook17h5e3698ab236d7613E, symObjAddr: 0x37D1C, symBinAddr: 0x10005A250, symSize: 0x198 }
  - { offset: 0xC5305, size: 0x8, addend: 0x0, symName: __ZN3std9panicking9take_hook17he7e7f6d1a3970e3bE, symObjAddr: 0x37EB4, symBinAddr: 0x10005A3E8, symSize: 0x114 }
  - { offset: 0xC55A3, size: 0x8, addend: 0x0, symName: '__ZN3std9panicking12default_hook28_$u7b$$u7b$closure$u7d$$u7d$17h369c7295ef58c5b1E', symObjAddr: 0x38230, symBinAddr: 0x10005A764, symSize: 0x15C }
  - { offset: 0xC563E, size: 0x8, addend: 0x0, symName: __ZN3std9panicking12default_hook17h50746358288a9d6aE, symObjAddr: 0x37FC8, symBinAddr: 0x10005A4FC, symSize: 0x268 }
  - { offset: 0xC5A17, size: 0x8, addend: 0x0, symName: _rust_begin_unwind, symObjAddr: 0x38524, symBinAddr: 0x10005A9D8, symSize: 0x20 }
  - { offset: 0xC5A80, size: 0x8, addend: 0x0, symName: '__ZN102_$LT$std..panicking..begin_panic_handler..FormatStringPayload$u20$as$u20$core..panic..PanicPayload$GT$8take_box17h2acdf661b618a275E', symObjAddr: 0x38544, symBinAddr: 0x10005A9F8, symSize: 0x110 }
  - { offset: 0xC5D12, size: 0x8, addend: 0x0, symName: '__ZN102_$LT$std..panicking..begin_panic_handler..FormatStringPayload$u20$as$u20$core..panic..PanicPayload$GT$3get17h2b54113a97f90f6bE', symObjAddr: 0x38654, symBinAddr: 0x10005AB08, symSize: 0xB0 }
  - { offset: 0xC5E49, size: 0x8, addend: 0x0, symName: '__ZN95_$LT$std..panicking..begin_panic_handler..FormatStringPayload$u20$as$u20$core..fmt..Display$GT$3fmt17hac3be7a2cb724666E', symObjAddr: 0x38704, symBinAddr: 0x10005ABB8, symSize: 0x5C }
  - { offset: 0xC5F44, size: 0x8, addend: 0x0, symName: '__ZN99_$LT$std..panicking..begin_panic_handler..StaticStrPayload$u20$as$u20$core..panic..PanicPayload$GT$8take_box17hcb24f453260bcf12E', symObjAddr: 0x38760, symBinAddr: 0x10005AC14, symSize: 0x50 }
  - { offset: 0xC5FBB, size: 0x8, addend: 0x0, symName: '__ZN99_$LT$std..panicking..begin_panic_handler..StaticStrPayload$u20$as$u20$core..panic..PanicPayload$GT$3get17hda0e5aec36f6a39eE', symObjAddr: 0x387B0, symBinAddr: 0x10005AC64, symSize: 0x18 }
  - { offset: 0xC5FD6, size: 0x8, addend: 0x0, symName: '__ZN99_$LT$std..panicking..begin_panic_handler..StaticStrPayload$u20$as$u20$core..panic..PanicPayload$GT$6as_str17h074c1a2d7e0372ceE', symObjAddr: 0x387C8, symBinAddr: 0x10005AC7C, symSize: 0x18 }
  - { offset: 0xC5FF7, size: 0x8, addend: 0x0, symName: '__ZN92_$LT$std..panicking..begin_panic_handler..StaticStrPayload$u20$as$u20$core..fmt..Display$GT$3fmt17h34b3827fbb54675fE', symObjAddr: 0x387E0, symBinAddr: 0x10005AC94, symSize: 0x1C }
  - { offset: 0xC6013, size: 0x8, addend: 0x0, symName: '__ZN3std9panicking19begin_panic_handler28_$u7b$$u7b$closure$u7d$$u7d$17h36f15310ecbde379E', symObjAddr: 0x387FC, symBinAddr: 0x10005ACB0, symSize: 0xC4 }
  - { offset: 0xC616B, size: 0x8, addend: 0x0, symName: __ZN3std9panicking14payload_as_str17hd572ab7b51c466f5E, symObjAddr: 0x388C0, symBinAddr: 0x10005AD74, symSize: 0xB0 }
  - { offset: 0xC6256, size: 0x8, addend: 0x0, symName: __ZN3std9panicking20rust_panic_with_hook17h7d795911432661cbE, symObjAddr: 0x38970, symBinAddr: 0x10005AE24, symSize: 0x3E0 }
  - { offset: 0xC6A5F, size: 0x8, addend: 0x0, symName: __ZN3std9panicking23rust_panic_without_hook17ha5b359e245c580f7E, symObjAddr: 0x38D50, symBinAddr: 0x10005B204, symSize: 0xD4 }
  - { offset: 0xC6C6F, size: 0x8, addend: 0x0, symName: '__ZN96_$LT$std..panicking..rust_panic_without_hook..RewrapBox$u20$as$u20$core..panic..PanicPayload$GT$8take_box17he6bc60a3f1ab3c3aE', symObjAddr: 0x38E24, symBinAddr: 0x10005B2D8, symSize: 0x28 }
  - { offset: 0xC6CCB, size: 0x8, addend: 0x0, symName: '__ZN96_$LT$std..panicking..rust_panic_without_hook..RewrapBox$u20$as$u20$core..panic..PanicPayload$GT$3get17h3dde59947af94813E', symObjAddr: 0x38E4C, symBinAddr: 0x10005B300, symSize: 0x18 }
  - { offset: 0xC6CEC, size: 0x8, addend: 0x0, symName: '__ZN89_$LT$std..panicking..rust_panic_without_hook..RewrapBox$u20$as$u20$core..fmt..Display$GT$3fmt17h61764bbd3fa97782E', symObjAddr: 0x38E64, symBinAddr: 0x10005B318, symSize: 0x20 }
  - { offset: 0xC6D09, size: 0x8, addend: 0x0, symName: _rust_panic, symObjAddr: 0x38E84, symBinAddr: 0x10005B338, symSize: 0x60 }
  - { offset: 0xC6D6A, size: 0x8, addend: 0x0, symName: '__ZN65_$LT$std..thread..PanicGuard$u20$as$u20$core..ops..drop..Drop$GT$4drop17h01b1c82d48337678E', symObjAddr: 0x1EBF0, symBinAddr: 0x100041DA8, symSize: 0x44 }
  - { offset: 0xC6E68, size: 0x8, addend: 0x0, symName: __ZN3std6thread7current11set_current17h26730749f582d83eE, symObjAddr: 0x1E600, symBinAddr: 0x100041934, symSize: 0xC0 }
  - { offset: 0xC7063, size: 0x8, addend: 0x0, symName: __ZN3std6thread7current7current17h896b10c04da969afE, symObjAddr: 0x1E6C0, symBinAddr: 0x1000419F4, symSize: 0x48 }
  - { offset: 0xC7161, size: 0x8, addend: 0x0, symName: __ZN3std6thread7current12init_current17hb65b9a11bbbdf9e3E, symObjAddr: 0x1E708, symBinAddr: 0x1000AC0FC, symSize: 0x17C }
  - { offset: 0xC7571, size: 0x8, addend: 0x0, symName: __ZN3std6thread6Thread3new17hc05f91f44174434dE, symObjAddr: 0x1EFE8, symBinAddr: 0x100042168, symSize: 0x44 }
  - { offset: 0xC75A2, size: 0x8, addend: 0x0, symName: __ZN3std6thread6Thread11new_unnamed17h46ffa4bb6dfdc1ddE, symObjAddr: 0x1F02C, symBinAddr: 0x1000421AC, symSize: 0x28 }
  - { offset: 0xC75B6, size: 0x8, addend: 0x0, symName: __ZN3std6thread6Thread9new_inner17hf72df5a662df1b9dE, symObjAddr: 0x1F054, symBinAddr: 0x1000421D4, symSize: 0x128 }
  - { offset: 0xC775C, size: 0x8, addend: 0x0, symName: __ZN3std6thread6Thread4name17hb5fa340d9c51efbdE, symObjAddr: 0x1F17C, symBinAddr: 0x1000422FC, symSize: 0x44 }
  - { offset: 0xC788C, size: 0x8, addend: 0x0, symName: __ZN3std6thread6Thread8from_raw17h86dd6fea40f25dccE, symObjAddr: 0x1F1C0, symBinAddr: 0x100042340, symSize: 0x14 }
  - { offset: 0xC7990, size: 0x8, addend: 0x0, symName: __ZN3std6thread8ThreadId3new17h66c9df3cc4e4f85eE, symObjAddr: 0x1EE70, symBinAddr: 0x100042028, symSize: 0x44 }
  - { offset: 0xC7B53, size: 0x8, addend: 0x0, symName: '__ZN68_$LT$std..thread..local..AccessError$u20$as$u20$core..fmt..Debug$GT$3fmt17h89270534121e4544E', symObjAddr: 0x1E884, symBinAddr: 0x100041A3C, symSize: 0x38 }
  - { offset: 0xC7B73, size: 0x8, addend: 0x0, symName: '__ZN70_$LT$std..thread..local..AccessError$u20$as$u20$core..fmt..Display$GT$3fmt17ha850e949e998920bE', symObjAddr: 0x1E8BC, symBinAddr: 0x100041A74, symSize: 0x20 }
  - { offset: 0xC7B99, size: 0x8, addend: 0x0, symName: __ZN3std6thread6scoped9ScopeData29increment_num_running_threads17h9245c33c42a37f43E, symObjAddr: 0x1E494, symBinAddr: 0x100041808, symSize: 0x20 }
  - { offset: 0xC7BB6, size: 0x8, addend: 0x0, symName: __ZN3std6thread6scoped9ScopeData29increment_num_running_threads17h9245c33c42a37f43E, symObjAddr: 0x1E494, symBinAddr: 0x100041808, symSize: 0x20 }
  - { offset: 0xC7BCA, size: 0x8, addend: 0x0, symName: __ZN3std6thread6scoped9ScopeData29increment_num_running_threads17h9245c33c42a37f43E, symObjAddr: 0x1E494, symBinAddr: 0x100041808, symSize: 0x20 }
  - { offset: 0xC7BF3, size: 0x8, addend: 0x0, symName: __ZN3std6thread6scoped9ScopeData8overflow17h55db1e4a96da87caE, symObjAddr: 0x1E4B4, symBinAddr: 0x1000AC0BC, symSize: 0x40 }
  - { offset: 0xC7C22, size: 0x8, addend: 0x0, symName: __ZN3std6thread6scoped9ScopeData29decrement_num_running_threads17h2d7e1d415b2ceb7bE, symObjAddr: 0x1E4F4, symBinAddr: 0x100041828, symSize: 0x54 }
  - { offset: 0xC7D5D, size: 0x8, addend: 0x0, symName: '__ZN63_$LT$std..thread..scoped..Scope$u20$as$u20$core..fmt..Debug$GT$3fmt17h4d5047d45b4be1faE', symObjAddr: 0x1E548, symBinAddr: 0x10004187C, symSize: 0xB8 }
  - { offset: 0xC7E17, size: 0x8, addend: 0x0, symName: __ZN3std6thread7Builder4name17h3362893559363d68E, symObjAddr: 0x1E8DC, symBinAddr: 0x100041A94, symSize: 0x84 }
  - { offset: 0xC7EDB, size: 0x8, addend: 0x0, symName: __ZN3std6thread9yield_now17h8f11521876bfad4fE, symObjAddr: 0x1E960, symBinAddr: 0x100041B18, symSize: 0x10 }
  - { offset: 0xC7F1A, size: 0x8, addend: 0x0, symName: __ZN3std6thread8sleep_ms17hf22ab6c4065ffcebE, symObjAddr: 0x1E970, symBinAddr: 0x100041B28, symSize: 0xDC }
  - { offset: 0xC7FB6, size: 0x8, addend: 0x0, symName: __ZN3std6thread5sleep17h21989ec8c2760d2cE, symObjAddr: 0x1EA4C, symBinAddr: 0x100041C04, symSize: 0xB8 }
  - { offset: 0xC802F, size: 0x8, addend: 0x0, symName: __ZN3std6thread11sleep_until17h46c0a8e26059e6a1E, symObjAddr: 0x1EB04, symBinAddr: 0x100041CBC, symSize: 0xEC }
  - { offset: 0xC8129, size: 0x8, addend: 0x0, symName: __ZN3std6thread4park17hdc05006252eed214E, symObjAddr: 0x1EC34, symBinAddr: 0x100041DEC, symSize: 0xE0 }
  - { offset: 0xC8340, size: 0x8, addend: 0x0, symName: __ZN3std6thread15park_timeout_ms17ha20d2980165f7b42E, symObjAddr: 0x1ED14, symBinAddr: 0x100041ECC, symSize: 0x38 }
  - { offset: 0xC8371, size: 0x8, addend: 0x0, symName: __ZN3std6thread12park_timeout17ha4f33bc649fef25bE, symObjAddr: 0x1ED4C, symBinAddr: 0x100041F04, symSize: 0x124 }
  - { offset: 0xC8607, size: 0x8, addend: 0x0, symName: __ZN3std6thread8ThreadId3new9exhausted17hb461b008978f84c2E, symObjAddr: 0x1EEB4, symBinAddr: 0x1000AC278, symSize: 0x38 }
  - { offset: 0xC8643, size: 0x8, addend: 0x0, symName: '__ZN118_$LT$std..thread..thread_name_string..ThreadNameString$u20$as$u20$core..convert..From$LT$alloc..string..String$GT$$GT$4from17h6360377a8fb99901E', symObjAddr: 0x1EEEC, symBinAddr: 0x10004206C, symSize: 0xFC }
  - { offset: 0xC8879, size: 0x8, addend: 0x0, symName: '__ZN56_$LT$std..thread..Thread$u20$as$u20$core..fmt..Debug$GT$3fmt17h367828c2730f0af8E', symObjAddr: 0x1F1D4, symBinAddr: 0x100042354, symSize: 0xC0 }
  - { offset: 0xC89DD, size: 0x8, addend: 0x0, symName: __ZN3std6thread21available_parallelism17hac4d10ea4917613fE, symObjAddr: 0x1F294, symBinAddr: 0x100042414, symSize: 0x50 }
  - { offset: 0xC8A94, size: 0x8, addend: 0x0, symName: '__ZN58_$LT$std..thread..ThreadId$u20$as$u20$core..fmt..Debug$GT$3fmt17h2b0fa00f2bfce2c0E', symObjAddr: 0x398B8, symBinAddr: 0x10005BD6C, symSize: 0x40 }
  - { offset: 0xC8AE5, size: 0x8, addend: 0x0, symName: '__ZN89_$LT$std..backtrace_rs..symbolize..gimli..mmap..Mmap$u20$as$u20$core..ops..drop..Drop$GT$4drop17h106ecda45d883f25E', symObjAddr: 0x4A38C, symBinAddr: 0x10006BD98, symSize: 0x18 }
  - { offset: 0xC8B12, size: 0x8, addend: 0x0, symName: '__ZN91_$LT$std..backtrace_rs..symbolize..gimli..mmap..Mmap$u20$as$u20$core..ops..deref..Deref$GT$5deref17h84860b6e10e5e957E', symObjAddr: 0x4A374, symBinAddr: 0x10006BD80, symSize: 0x18 }
  - { offset: 0xC8BEF, size: 0x8, addend: 0x0, symName: __ZN3std12backtrace_rs9symbolize5gimli7Context3new17h1e91e4e8ca8f4f43E, symObjAddr: 0x45674, symBinAddr: 0x100067080, symSize: 0x226C }
  - { offset: 0xCD0EC, size: 0x8, addend: 0x0, symName: __ZN3std12backtrace_rs9symbolize5gimli7Context11find_frames17hfd1016a68cde14edE, symObjAddr: 0x478E0, symBinAddr: 0x1000692EC, symSize: 0x3A8 }
  - { offset: 0xCD542, size: 0x8, addend: 0x0, symName: __ZN3std12backtrace_rs9symbolize5gimli5macho6Object5parse17h785faf4743f90f48E, symObjAddr: 0x4A578, symBinAddr: 0x10006BF84, symSize: 0xC78 }
  - { offset: 0xCF200, size: 0x8, addend: 0x0, symName: __ZN3std12backtrace_rs9symbolize5gimli5macho6Object7section17hd87dc726714e9896E, symObjAddr: 0x4B1F0, symBinAddr: 0x10006CBFC, symSize: 0x18C }
  - { offset: 0xCF58E, size: 0x8, addend: 0x0, symName: __ZN3std12backtrace_rs9symbolize5gimli5macho11find_header17h967e7857a577695cE, symObjAddr: 0x4A3A4, symBinAddr: 0x10006BDB0, symSize: 0x1D4 }
  - { offset: 0xCFC82, size: 0x8, addend: 0x0, symName: __ZN3std12backtrace_rs9symbolize5gimli4mmap17h0bd3f9fc60ec7b5cE, symObjAddr: 0x47C88, symBinAddr: 0x100069694, symSize: 0x160 }
  - { offset: 0xD0260, size: 0x8, addend: 0x0, symName: __ZN3std12backtrace_rs9symbolize5gimli7resolve17h59605c61b94de6bdE, symObjAddr: 0x47DE8, symBinAddr: 0x1000697F4, symSize: 0x258C }
  - { offset: 0xD5EC6, size: 0x8, addend: 0x0, symName: __ZN3std12backtrace_rs9symbolize6Symbol4name17h757bb3a891f635ceE, symObjAddr: 0x38FC4, symBinAddr: 0x10005B478, symSize: 0xE4 }
  - { offset: 0xD5FDF, size: 0x8, addend: 0x0, symName: __ZN3std12backtrace_rs9symbolize6Symbol12filename_raw17h51ca9225f93a104cE, symObjAddr: 0x390A8, symBinAddr: 0x10005B55C, symSize: 0x44 }
  - { offset: 0xD6058, size: 0x8, addend: 0x0, symName: '__ZN73_$LT$std..backtrace_rs..symbolize..Symbol$u20$as$u20$core..fmt..Debug$GT$3fmt17h318db3d45b84f6d8E', symObjAddr: 0x390EC, symBinAddr: 0x10005B5A0, symSize: 0xFC }
  - { offset: 0xD60F2, size: 0x8, addend: 0x0, symName: '__ZN79_$LT$std..backtrace_rs..symbolize..SymbolName$u20$as$u20$core..fmt..Display$GT$3fmt17he94ecb4e608d7aaaE', symObjAddr: 0x391E8, symBinAddr: 0x10005B69C, symSize: 0x100 }
  - { offset: 0xD61D2, size: 0x8, addend: 0x0, symName: '__ZN77_$LT$std..backtrace_rs..symbolize..SymbolName$u20$as$u20$core..fmt..Debug$GT$3fmt17hfb6e341f12fc7826E', symObjAddr: 0x392E8, symBinAddr: 0x10005B79C, symSize: 0x100 }
  - { offset: 0xD6324, size: 0x8, addend: 0x0, symName: '__ZN85_$LT$std..backtrace_rs..backtrace..libunwind..Frame$u20$as$u20$core..clone..Clone$GT$5clone17h78e35b8f4ad18a6aE', symObjAddr: 0x45588, symBinAddr: 0x100066F94, symSize: 0x6C }
  - { offset: 0xD6387, size: 0x8, addend: 0x0, symName: '__ZN87_$LT$std..backtrace_rs..backtrace..libunwind..Bomb$u20$as$u20$core..ops..drop..Drop$GT$4drop17hc4a56e0f957f55bbE', symObjAddr: 0x455F4, symBinAddr: 0x100067000, symSize: 0x44 }
  - { offset: 0xD63BC, size: 0x8, addend: 0x0, symName: __ZN3std12backtrace_rs9backtrace9libunwind5trace8trace_fn17he8146b547133e35cE, symObjAddr: 0x45638, symBinAddr: 0x100067044, symSize: 0x3C }
  - { offset: 0xD643F, size: 0x8, addend: 0x0, symName: '__ZN72_$LT$std..backtrace_rs..backtrace..Frame$u20$as$u20$core..fmt..Debug$GT$3fmt17h502890f8c81a0dc9E', symObjAddr: 0x38EE4, symBinAddr: 0x10005B398, symSize: 0xE0 }
  - { offset: 0xD654B, size: 0x8, addend: 0x0, symName: __ZN3std12backtrace_rs5print17BacktraceFrameFmt21print_raw_with_column17h52f7494d1c550af5E, symObjAddr: 0x393E8, symBinAddr: 0x10005B89C, symSize: 0x4D0 }
  - { offset: 0xD6777, size: 0x8, addend: 0x0, symName: __ZN3std2rt7cleanup17hca9dabeefa21ea70E, symObjAddr: 0x1DC08, symBinAddr: 0x100040F7C, symSize: 0x64 }
  - { offset: 0xD679A, size: 0x8, addend: 0x0, symName: __ZN3std2rt7cleanup17hca9dabeefa21ea70E, symObjAddr: 0x1DC08, symBinAddr: 0x100040F7C, symSize: 0x64 }
  - { offset: 0xD67AE, size: 0x8, addend: 0x0, symName: __ZN3std2rt7cleanup17hca9dabeefa21ea70E, symObjAddr: 0x1DC08, symBinAddr: 0x100040F7C, symSize: 0x64 }
  - { offset: 0xD67C2, size: 0x8, addend: 0x0, symName: __ZN3std2rt7cleanup17hca9dabeefa21ea70E, symObjAddr: 0x1DC08, symBinAddr: 0x100040F7C, symSize: 0x64 }
  - { offset: 0xD682C, size: 0x8, addend: 0x0, symName: __ZN3std2rt19lang_start_internal17h77891a2543177e4bE, symObjAddr: 0x1DC6C, symBinAddr: 0x100040FE0, symSize: 0x828 }
  - { offset: 0xD7838, size: 0x8, addend: 0x0, symName: '__ZN64_$LT$std..panic..PanicHookInfo$u20$as$u20$core..fmt..Display$GT$3fmt17hf0d2e800c1362170E', symObjAddr: 0x2F510, symBinAddr: 0x100052478, symSize: 0x164 }
  - { offset: 0xD7A7A, size: 0x8, addend: 0x0, symName: __ZN3std5panic13resume_unwind17hece3c171b14e6084E, symObjAddr: 0x2F674, symBinAddr: 0x1000525DC, symSize: 0xC }
  - { offset: 0xD7A95, size: 0x8, addend: 0x0, symName: __ZN3std5panic12always_abort17h174cc4501837516aE, symObjAddr: 0x2F680, symBinAddr: 0x1000525E8, symSize: 0x20 }
  - { offset: 0xD7B1B, size: 0x8, addend: 0x0, symName: __ZN3std5panic19set_backtrace_style17h8b74176fce996ae1E, symObjAddr: 0x2F6A0, symBinAddr: 0x100052608, symSize: 0x1C }
  - { offset: 0xD7B77, size: 0x8, addend: 0x0, symName: __ZN3std5panic19get_backtrace_style17h1f774776d63cd7d6E, symObjAddr: 0x2F6BC, symBinAddr: 0x100052624, symSize: 0x10C }
  - { offset: 0xD7B95, size: 0x8, addend: 0x0, symName: __ZN3std5panic19get_backtrace_style17h1f774776d63cd7d6E, symObjAddr: 0x2F6BC, symBinAddr: 0x100052624, symSize: 0x10C }
  - { offset: 0xD7BAA, size: 0x8, addend: 0x0, symName: __ZN3std5panic19get_backtrace_style17h1f774776d63cd7d6E, symObjAddr: 0x2F6BC, symBinAddr: 0x100052624, symSize: 0x10C }
  - { offset: 0xD7FE1, size: 0x8, addend: 0x0, symName: __ZN3std4time7Instant3now17h46343cdc613b5f57E, symObjAddr: 0x34DA4, symBinAddr: 0x100057A88, symSize: 0x14 }
  - { offset: 0xD800B, size: 0x8, addend: 0x0, symName: __ZN3std4time7Instant14duration_since17h2f943aa28cf40c72E, symObjAddr: 0x34DB8, symBinAddr: 0x100057A9C, symSize: 0x4C }
  - { offset: 0xD8076, size: 0x8, addend: 0x0, symName: __ZN3std4time7Instant22checked_duration_since17h5c73585122e0cca7E, symObjAddr: 0x34E04, symBinAddr: 0x100057AE8, symSize: 0x50 }
  - { offset: 0xD80B6, size: 0x8, addend: 0x0, symName: __ZN3std4time7Instant7elapsed17h46cf5dc3e9524e87E, symObjAddr: 0x34E54, symBinAddr: 0x100057B38, symSize: 0x6C }
  - { offset: 0xD81A8, size: 0x8, addend: 0x0, symName: '__ZN60_$LT$std..time..Instant$u20$as$u20$core..ops..arith..Sub$GT$3sub17ha8fe53a742e184a2E', symObjAddr: 0x35068, symBinAddr: 0x100057D4C, symSize: 0x50 }
  - { offset: 0xD822F, size: 0x8, addend: 0x0, symName: '__ZN88_$LT$std..time..Instant$u20$as$u20$core..ops..arith..Add$LT$core..time..Duration$GT$$GT$3add17h8a8c7738f7c1be33E', symObjAddr: 0x34EC0, symBinAddr: 0x100057BA4, symSize: 0x64 }
  - { offset: 0xD8246, size: 0x8, addend: 0x0, symName: '__ZN88_$LT$std..time..Instant$u20$as$u20$core..ops..arith..Add$LT$core..time..Duration$GT$$GT$3add17h8a8c7738f7c1be33E', symObjAddr: 0x34EC0, symBinAddr: 0x100057BA4, symSize: 0x64 }
  - { offset: 0xD825B, size: 0x8, addend: 0x0, symName: '__ZN88_$LT$std..time..Instant$u20$as$u20$core..ops..arith..Add$LT$core..time..Duration$GT$$GT$3add17h8a8c7738f7c1be33E', symObjAddr: 0x34EC0, symBinAddr: 0x100057BA4, symSize: 0x64 }
  - { offset: 0xD8270, size: 0x8, addend: 0x0, symName: '__ZN88_$LT$std..time..Instant$u20$as$u20$core..ops..arith..Add$LT$core..time..Duration$GT$$GT$3add17h8a8c7738f7c1be33E', symObjAddr: 0x34EC0, symBinAddr: 0x100057BA4, symSize: 0x64 }
  - { offset: 0xD8285, size: 0x8, addend: 0x0, symName: '__ZN88_$LT$std..time..Instant$u20$as$u20$core..ops..arith..Add$LT$core..time..Duration$GT$$GT$3add17h8a8c7738f7c1be33E', symObjAddr: 0x34EC0, symBinAddr: 0x100057BA4, symSize: 0x64 }
  - { offset: 0xD8299, size: 0x8, addend: 0x0, symName: '__ZN88_$LT$std..time..Instant$u20$as$u20$core..ops..arith..Add$LT$core..time..Duration$GT$$GT$3add17h8a8c7738f7c1be33E', symObjAddr: 0x34EC0, symBinAddr: 0x100057BA4, symSize: 0x64 }
  - { offset: 0xD82AE, size: 0x8, addend: 0x0, symName: '__ZN88_$LT$std..time..Instant$u20$as$u20$core..ops..arith..Add$LT$core..time..Duration$GT$$GT$3add17h8a8c7738f7c1be33E', symObjAddr: 0x34EC0, symBinAddr: 0x100057BA4, symSize: 0x64 }
  - { offset: 0xD8319, size: 0x8, addend: 0x0, symName: '__ZN94_$LT$std..time..Instant$u20$as$u20$core..ops..arith..AddAssign$LT$core..time..Duration$GT$$GT$10add_assign17h9c1ab214357ec28fE', symObjAddr: 0x34F24, symBinAddr: 0x100057C08, symSize: 0x74 }
  - { offset: 0xD83F2, size: 0x8, addend: 0x0, symName: '__ZN88_$LT$std..time..Instant$u20$as$u20$core..ops..arith..Sub$LT$core..time..Duration$GT$$GT$3sub17hec0b69f01e755fb2E', symObjAddr: 0x34F98, symBinAddr: 0x100057C7C, symSize: 0x5C }
  - { offset: 0xD8430, size: 0x8, addend: 0x0, symName: '__ZN88_$LT$std..time..Instant$u20$as$u20$core..ops..arith..Sub$LT$core..time..Duration$GT$$GT$3sub17hec0b69f01e755fb2E', symObjAddr: 0x34F98, symBinAddr: 0x100057C7C, symSize: 0x5C }
  - { offset: 0xD8444, size: 0x8, addend: 0x0, symName: '__ZN88_$LT$std..time..Instant$u20$as$u20$core..ops..arith..Sub$LT$core..time..Duration$GT$$GT$3sub17hec0b69f01e755fb2E', symObjAddr: 0x34F98, symBinAddr: 0x100057C7C, symSize: 0x5C }
  - { offset: 0xD8459, size: 0x8, addend: 0x0, symName: '__ZN88_$LT$std..time..Instant$u20$as$u20$core..ops..arith..Sub$LT$core..time..Duration$GT$$GT$3sub17hec0b69f01e755fb2E', symObjAddr: 0x34F98, symBinAddr: 0x100057C7C, symSize: 0x5C }
  - { offset: 0xD84C4, size: 0x8, addend: 0x0, symName: '__ZN94_$LT$std..time..Instant$u20$as$u20$core..ops..arith..SubAssign$LT$core..time..Duration$GT$$GT$10sub_assign17hb8d9c46f83ec5f0dE', symObjAddr: 0x34FF4, symBinAddr: 0x100057CD8, symSize: 0x74 }
  - { offset: 0xD859D, size: 0x8, addend: 0x0, symName: '__ZN55_$LT$std..time..Instant$u20$as$u20$core..fmt..Debug$GT$3fmt17h802300a72eb2bbeeE', symObjAddr: 0x350B8, symBinAddr: 0x100057D9C, symSize: 0x80 }
  - { offset: 0xD85D4, size: 0x8, addend: 0x0, symName: __ZN3std4time10SystemTime3now17h8856266915829068E, symObjAddr: 0x35138, symBinAddr: 0x100057E1C, symSize: 0x14 }
  - { offset: 0xD85FE, size: 0x8, addend: 0x0, symName: __ZN3std4time10SystemTime14duration_since17h0ea77ff603a0921fE, symObjAddr: 0x3514C, symBinAddr: 0x100057E30, symSize: 0x50 }
  - { offset: 0xD8659, size: 0x8, addend: 0x0, symName: __ZN3std4time10SystemTime7elapsed17h171c00e44e3d153dE, symObjAddr: 0x3519C, symBinAddr: 0x100057E80, symSize: 0x68 }
  - { offset: 0xD86E0, size: 0x8, addend: 0x0, symName: __ZN3std4time10SystemTime11checked_add17h5bf4b576516b9444E, symObjAddr: 0x35204, symBinAddr: 0x100057EE8, symSize: 0x7C }
  - { offset: 0xD8772, size: 0x8, addend: 0x0, symName: __ZN3std4time10SystemTime11checked_sub17hb60a751232d07267E, symObjAddr: 0x35280, symBinAddr: 0x100057F64, symSize: 0x6C }
  - { offset: 0xD8826, size: 0x8, addend: 0x0, symName: '__ZN91_$LT$std..time..SystemTime$u20$as$u20$core..ops..arith..Add$LT$core..time..Duration$GT$$GT$3add17h9dbb5a953bd5e23dE', symObjAddr: 0x352EC, symBinAddr: 0x100057FD0, symSize: 0x64 }
  - { offset: 0xD883D, size: 0x8, addend: 0x0, symName: '__ZN91_$LT$std..time..SystemTime$u20$as$u20$core..ops..arith..Add$LT$core..time..Duration$GT$$GT$3add17h9dbb5a953bd5e23dE', symObjAddr: 0x352EC, symBinAddr: 0x100057FD0, symSize: 0x64 }
  - { offset: 0xD8852, size: 0x8, addend: 0x0, symName: '__ZN91_$LT$std..time..SystemTime$u20$as$u20$core..ops..arith..Add$LT$core..time..Duration$GT$$GT$3add17h9dbb5a953bd5e23dE', symObjAddr: 0x352EC, symBinAddr: 0x100057FD0, symSize: 0x64 }
  - { offset: 0xD8867, size: 0x8, addend: 0x0, symName: '__ZN91_$LT$std..time..SystemTime$u20$as$u20$core..ops..arith..Add$LT$core..time..Duration$GT$$GT$3add17h9dbb5a953bd5e23dE', symObjAddr: 0x352EC, symBinAddr: 0x100057FD0, symSize: 0x64 }
  - { offset: 0xD887B, size: 0x8, addend: 0x0, symName: '__ZN91_$LT$std..time..SystemTime$u20$as$u20$core..ops..arith..Add$LT$core..time..Duration$GT$$GT$3add17h9dbb5a953bd5e23dE', symObjAddr: 0x352EC, symBinAddr: 0x100057FD0, symSize: 0x64 }
  - { offset: 0xD888F, size: 0x8, addend: 0x0, symName: '__ZN91_$LT$std..time..SystemTime$u20$as$u20$core..ops..arith..Add$LT$core..time..Duration$GT$$GT$3add17h9dbb5a953bd5e23dE', symObjAddr: 0x352EC, symBinAddr: 0x100057FD0, symSize: 0x64 }
  - { offset: 0xD88A4, size: 0x8, addend: 0x0, symName: '__ZN91_$LT$std..time..SystemTime$u20$as$u20$core..ops..arith..Add$LT$core..time..Duration$GT$$GT$3add17h9dbb5a953bd5e23dE', symObjAddr: 0x352EC, symBinAddr: 0x100057FD0, symSize: 0x64 }
  - { offset: 0xD890F, size: 0x8, addend: 0x0, symName: '__ZN97_$LT$std..time..SystemTime$u20$as$u20$core..ops..arith..AddAssign$LT$core..time..Duration$GT$$GT$10add_assign17hddaba8bc6bdf9addE', symObjAddr: 0x35350, symBinAddr: 0x100058034, symSize: 0x74 }
  - { offset: 0xD89E7, size: 0x8, addend: 0x0, symName: '__ZN91_$LT$std..time..SystemTime$u20$as$u20$core..ops..arith..Sub$LT$core..time..Duration$GT$$GT$3sub17h1cdd89bd6836f5c1E', symObjAddr: 0x353C4, symBinAddr: 0x1000580A8, symSize: 0x5C }
  - { offset: 0xD8A24, size: 0x8, addend: 0x0, symName: '__ZN91_$LT$std..time..SystemTime$u20$as$u20$core..ops..arith..Sub$LT$core..time..Duration$GT$$GT$3sub17h1cdd89bd6836f5c1E', symObjAddr: 0x353C4, symBinAddr: 0x1000580A8, symSize: 0x5C }
  - { offset: 0xD8A38, size: 0x8, addend: 0x0, symName: '__ZN91_$LT$std..time..SystemTime$u20$as$u20$core..ops..arith..Sub$LT$core..time..Duration$GT$$GT$3sub17h1cdd89bd6836f5c1E', symObjAddr: 0x353C4, symBinAddr: 0x1000580A8, symSize: 0x5C }
  - { offset: 0xD8A4D, size: 0x8, addend: 0x0, symName: '__ZN91_$LT$std..time..SystemTime$u20$as$u20$core..ops..arith..Sub$LT$core..time..Duration$GT$$GT$3sub17h1cdd89bd6836f5c1E', symObjAddr: 0x353C4, symBinAddr: 0x1000580A8, symSize: 0x5C }
  - { offset: 0xD8AB8, size: 0x8, addend: 0x0, symName: '__ZN97_$LT$std..time..SystemTime$u20$as$u20$core..ops..arith..SubAssign$LT$core..time..Duration$GT$$GT$10sub_assign17h3149ddac09cd246bE', symObjAddr: 0x35420, symBinAddr: 0x100058104, symSize: 0x74 }
  - { offset: 0xD8B90, size: 0x8, addend: 0x0, symName: '__ZN58_$LT$std..time..SystemTime$u20$as$u20$core..fmt..Debug$GT$3fmt17h3ddbed0c10c0085cE', symObjAddr: 0x35494, symBinAddr: 0x100058178, symSize: 0x80 }
  - { offset: 0xD8BC7, size: 0x8, addend: 0x0, symName: '__ZN65_$LT$std..time..SystemTimeError$u20$as$u20$core..fmt..Display$GT$3fmt17h8ada7ffbd3d0f2c9E', symObjAddr: 0x35514, symBinAddr: 0x1000581F8, symSize: 0x24 }
  - { offset: 0xD8C27, size: 0x8, addend: 0x0, symName: __ZN3std3env11current_dir17h172f4dc23441f9daE, symObjAddr: 0x20428, symBinAddr: 0x1000435A8, symSize: 0x1C0 }
  - { offset: 0xD8FC5, size: 0x8, addend: 0x0, symName: __ZN3std3env4vars17h88a15c677eaabb89E, symObjAddr: 0x205E8, symBinAddr: 0x100043768, symSize: 0x10 }
  - { offset: 0xD8FDF, size: 0x8, addend: 0x0, symName: __ZN3std3env7vars_os17hecf805c3900c0abcE, symObjAddr: 0x205F8, symBinAddr: 0x100043778, symSize: 0x2D8 }
  - { offset: 0xD9681, size: 0x8, addend: 0x0, symName: '__ZN75_$LT$std..env..VarsOs$u20$as$u20$core..iter..traits..iterator..Iterator$GT$4next17h93913b322dc90427E', symObjAddr: 0x20B4C, symBinAddr: 0x100043CCC, symSize: 0x48 }
  - { offset: 0xD9703, size: 0x8, addend: 0x0, symName: '__ZN75_$LT$std..env..VarsOs$u20$as$u20$core..iter..traits..iterator..Iterator$GT$9size_hint17h6d6cd50624e06536E', symObjAddr: 0x20B94, symBinAddr: 0x100043D14, symSize: 0x38 }
  - { offset: 0xD9786, size: 0x8, addend: 0x0, symName: '__ZN73_$LT$std..env..Vars$u20$as$u20$core..iter..traits..iterator..Iterator$GT$4next17h94c6974832fd39f2E', symObjAddr: 0x208D0, symBinAddr: 0x100043A50, symSize: 0x1C0 }
  - { offset: 0xD9C79, size: 0x8, addend: 0x0, symName: '__ZN73_$LT$std..env..Vars$u20$as$u20$core..iter..traits..iterator..Iterator$GT$9size_hint17h0b52722b9e50904fE', symObjAddr: 0x20A90, symBinAddr: 0x100043C10, symSize: 0x38 }
  - { offset: 0xD9D04, size: 0x8, addend: 0x0, symName: '__ZN51_$LT$std..env..Vars$u20$as$u20$core..fmt..Debug$GT$3fmt17hd152c168b5085782E', symObjAddr: 0x20AC8, symBinAddr: 0x100043C48, symSize: 0x84 }
  - { offset: 0xD9DA4, size: 0x8, addend: 0x0, symName: '__ZN53_$LT$std..env..VarsOs$u20$as$u20$core..fmt..Debug$GT$3fmt17h21e555d39106b009E', symObjAddr: 0x20BCC, symBinAddr: 0x100043D4C, symSize: 0x64 }
  - { offset: 0xD9DBF, size: 0x8, addend: 0x0, symName: __ZN3std3env4_var17h961b7457640dfa72E, symObjAddr: 0x20C30, symBinAddr: 0x100043DB0, symSize: 0xA8 }
  - { offset: 0xD9EBB, size: 0x8, addend: 0x0, symName: __ZN3std3env7_var_os17h0a415fbacbc640bdE, symObjAddr: 0x20CD8, symBinAddr: 0x100043E58, symSize: 0x160 }
  - { offset: 0xDA141, size: 0x8, addend: 0x0, symName: '__ZN57_$LT$std..env..VarError$u20$as$u20$core..fmt..Display$GT$3fmt17hce672328f93a2e98E', symObjAddr: 0x20E38, symBinAddr: 0x100043FB8, symSize: 0x78 }
  - { offset: 0xDA19B, size: 0x8, addend: 0x0, symName: '__ZN79_$LT$std..env..SplitPaths$u20$as$u20$core..iter..traits..iterator..Iterator$GT$4next17h57707b7d8289b21aE', symObjAddr: 0x20EB0, symBinAddr: 0x100044030, symSize: 0xA8 }
  - { offset: 0xDA2ED, size: 0x8, addend: 0x0, symName: '__ZN57_$LT$std..env..SplitPaths$u20$as$u20$core..fmt..Debug$GT$3fmt17hfa73beb9cf93abf2E', symObjAddr: 0x20F58, symBinAddr: 0x1000440D8, symSize: 0x38 }
  - { offset: 0xDA30E, size: 0x8, addend: 0x0, symName: '__ZN63_$LT$std..env..JoinPathsError$u20$as$u20$core..fmt..Display$GT$3fmt17h00ecbab8c6ccb60eE', symObjAddr: 0x20F90, symBinAddr: 0x100044110, symSize: 0x5C }
  - { offset: 0xDA38C, size: 0x8, addend: 0x0, symName: __ZN3std3env8home_dir17hcd028fdcc81c5cbcE, symObjAddr: 0x20FEC, symBinAddr: 0x10004416C, symSize: 0x19C }
  - { offset: 0xDA75B, size: 0x8, addend: 0x0, symName: __ZN3std3env8temp_dir17h29958e54580b16c3E, symObjAddr: 0x21188, symBinAddr: 0x100044308, symSize: 0x98 }
  - { offset: 0xDA8E1, size: 0x8, addend: 0x0, symName: __ZN3std3env11current_exe17he79cce10a5159b7dE, symObjAddr: 0x21220, symBinAddr: 0x1000443A0, symSize: 0xD4 }
  - { offset: 0xDAAC6, size: 0x8, addend: 0x0, symName: __ZN3std3env4args17h271a3d093b5db279E, symObjAddr: 0x212F4, symBinAddr: 0x100044474, symSize: 0x10 }
  - { offset: 0xDAAE1, size: 0x8, addend: 0x0, symName: __ZN3std3env7args_os17hc2de09d0c51d55aeE, symObjAddr: 0x21304, symBinAddr: 0x100044484, symSize: 0x1E8 }
  - { offset: 0xDAF97, size: 0x8, addend: 0x0, symName: '__ZN75_$LT$std..env..ArgsOs$u20$as$u20$core..iter..traits..iterator..Iterator$GT$4next17had9755dd281c065bE', symObjAddr: 0x217A0, symBinAddr: 0x100044920, symSize: 0x48 }
  - { offset: 0xDB019, size: 0x8, addend: 0x0, symName: '__ZN75_$LT$std..env..ArgsOs$u20$as$u20$core..iter..traits..iterator..Iterator$GT$9size_hint17hd52323d7f345a897E', symObjAddr: 0x217E8, symBinAddr: 0x100044968, symSize: 0x38 }
  - { offset: 0xDB09D, size: 0x8, addend: 0x0, symName: '__ZN73_$LT$std..env..Args$u20$as$u20$core..iter..traits..iterator..Iterator$GT$4next17h2f9ba91fefb5cca9E', symObjAddr: 0x214EC, symBinAddr: 0x10004466C, symSize: 0xE8 }
  - { offset: 0xDB2DA, size: 0x8, addend: 0x0, symName: '__ZN73_$LT$std..env..Args$u20$as$u20$core..iter..traits..iterator..Iterator$GT$9size_hint17h2efa74948bde361cE', symObjAddr: 0x215D4, symBinAddr: 0x100044754, symSize: 0x38 }
  - { offset: 0xDB383, size: 0x8, addend: 0x0, symName: '__ZN86_$LT$std..env..ArgsOs$u20$as$u20$core..iter..traits..exact_size..ExactSizeIterator$GT$3len17h9c0aef9eb51040dbE', symObjAddr: 0x21820, symBinAddr: 0x1000449A0, symSize: 0x2C }
  - { offset: 0xDB402, size: 0x8, addend: 0x0, symName: '__ZN86_$LT$std..env..ArgsOs$u20$as$u20$core..iter..traits..exact_size..ExactSizeIterator$GT$8is_empty17hca6a855fa61d42bdE', symObjAddr: 0x2184C, symBinAddr: 0x1000449CC, symSize: 0x20 }
  - { offset: 0xDB447, size: 0x8, addend: 0x0, symName: '__ZN84_$LT$std..env..Args$u20$as$u20$core..iter..traits..exact_size..ExactSizeIterator$GT$3len17h08461ef13c89031eE', symObjAddr: 0x2160C, symBinAddr: 0x10004478C, symSize: 0x2C }
  - { offset: 0xDB4E3, size: 0x8, addend: 0x0, symName: '__ZN84_$LT$std..env..Args$u20$as$u20$core..iter..traits..exact_size..ExactSizeIterator$GT$8is_empty17h9d1be49f9fb3c880E', symObjAddr: 0x21638, symBinAddr: 0x1000447B8, symSize: 0x20 }
  - { offset: 0xDB553, size: 0x8, addend: 0x0, symName: '__ZN90_$LT$std..env..ArgsOs$u20$as$u20$core..iter..traits..double_ended..DoubleEndedIterator$GT$9next_back17hedbcd9204171f206E', symObjAddr: 0x2186C, symBinAddr: 0x1000449EC, symSize: 0x48 }
  - { offset: 0xDB5DC, size: 0x8, addend: 0x0, symName: '__ZN88_$LT$std..env..Args$u20$as$u20$core..iter..traits..double_ended..DoubleEndedIterator$GT$9next_back17h6e8e28899c103c24E', symObjAddr: 0x21658, symBinAddr: 0x1000447D8, symSize: 0xE4 }
  - { offset: 0xDB7F7, size: 0x8, addend: 0x0, symName: '__ZN51_$LT$std..env..Args$u20$as$u20$core..fmt..Debug$GT$3fmt17h058beb73c0e6392fE', symObjAddr: 0x2173C, symBinAddr: 0x1000448BC, symSize: 0x64 }
  - { offset: 0xDB818, size: 0x8, addend: 0x0, symName: '__ZN53_$LT$std..env..ArgsOs$u20$as$u20$core..fmt..Debug$GT$3fmt17ha79aebcee10d6df3E', symObjAddr: 0x218B4, symBinAddr: 0x100044A34, symSize: 0x64 }
  - { offset: 0xDB8A1, size: 0x8, addend: 0x0, symName: __ZN3std2fs11OpenOptions5_open17hbf356a9c8f4ab619E, symObjAddr: 0x22E44, symBinAddr: 0x100045FC4, symSize: 0x244 }
  - { offset: 0xDBA7B, size: 0x8, addend: 0x0, symName: __ZN3std2fs4File8sync_all17hb0626fd75d38c73eE, symObjAddr: 0x2228C, symBinAddr: 0x10004540C, symSize: 0x58 }
  - { offset: 0xDBB5A, size: 0x8, addend: 0x0, symName: __ZN3std2fs4File7set_len17hf7339bc31eb76667E, symObjAddr: 0x222E4, symBinAddr: 0x100045464, symSize: 0x78 }
  - { offset: 0xDBC79, size: 0x8, addend: 0x0, symName: __ZN3std2fs4File8metadata17hdf79d0f35e8f44efE, symObjAddr: 0x2235C, symBinAddr: 0x1000454DC, symSize: 0xAC }
  - { offset: 0xDBD65, size: 0x8, addend: 0x0, symName: __ZN3std2fs4File9try_clone17h8cd06fd55ebc7f55E, symObjAddr: 0x22408, symBinAddr: 0x100045588, symSize: 0x88 }
  - { offset: 0xDBE4B, size: 0x8, addend: 0x0, symName: __ZN3std2fs4File15set_permissions17h3c1f41405b3de318E, symObjAddr: 0x22490, symBinAddr: 0x100045610, symSize: 0x64 }
  - { offset: 0xDBF0D, size: 0x8, addend: 0x0, symName: __ZN3std2fs4File9set_times17h594318b9903ebaefE, symObjAddr: 0x224F4, symBinAddr: 0x100045674, symSize: 0xF0 }
  - { offset: 0xDC085, size: 0x8, addend: 0x0, symName: __ZN3std2fs4read5inner17h4e43e71abe147b85E, symObjAddr: 0x21DBC, symBinAddr: 0x100044F3C, symSize: 0x1A0 }
  - { offset: 0xDC4C6, size: 0x8, addend: 0x0, symName: __ZN3std2fs14read_to_string5inner17hf3e639778e0bc884E, symObjAddr: 0x21F5C, symBinAddr: 0x1000450DC, symSize: 0x20C }
  - { offset: 0xDCAEA, size: 0x8, addend: 0x0, symName: '__ZN52_$LT$$RF$std..fs..File$u20$as$u20$std..io..Write$GT$5write17hc2f22005a6470967E', symObjAddr: 0x2289C, symBinAddr: 0x100045A1C, symSize: 0x50 }
  - { offset: 0xDCBD8, size: 0x8, addend: 0x0, symName: '__ZN52_$LT$$RF$std..fs..File$u20$as$u20$std..io..Write$GT$14write_vectored17h8b27c3bb3c78b37cE', symObjAddr: 0x228EC, symBinAddr: 0x100045A6C, symSize: 0x50 }
  - { offset: 0xDCCE8, size: 0x8, addend: 0x0, symName: '__ZN48_$LT$std..fs..File$u20$as$u20$std..io..Write$GT$5write17hc373434d8b0570e4E', symObjAddr: 0x22AEC, symBinAddr: 0x100045C6C, symSize: 0x4C }
  - { offset: 0xDCDEC, size: 0x8, addend: 0x0, symName: '__ZN48_$LT$std..fs..File$u20$as$u20$std..io..Write$GT$14write_vectored17hfe5660478a96fd02E', symObjAddr: 0x22B38, symBinAddr: 0x100045CB8, symSize: 0x4C }
  - { offset: 0xDCEFD, size: 0x8, addend: 0x0, symName: __ZN3std2fs5write5inner17hd0dfbcf49c8de780E, symObjAddr: 0x22168, symBinAddr: 0x1000452E8, symSize: 0x124 }
  - { offset: 0xDD1F9, size: 0x8, addend: 0x0, symName: '__ZN50_$LT$std..fs..File$u20$as$u20$core..fmt..Debug$GT$3fmt17h2b405762200144e6E', symObjAddr: 0x225E4, symBinAddr: 0x100045764, symSize: 0x10 }
  - { offset: 0xDD236, size: 0x8, addend: 0x0, symName: '__ZN51_$LT$$RF$std..fs..File$u20$as$u20$std..io..Seek$GT$4seek17he6ba1c7c1fcaf53cE', symObjAddr: 0x2293C, symBinAddr: 0x100045ABC, symSize: 0x58 }
  - { offset: 0xDD2D3, size: 0x8, addend: 0x0, symName: '__ZN51_$LT$$RF$std..fs..File$u20$as$u20$std..io..Read$GT$11read_to_end17h98ead3b6fa9d05d2E', symObjAddr: 0x225F4, symBinAddr: 0x100045774, symSize: 0x140 }
  - { offset: 0xDD5D8, size: 0x8, addend: 0x0, symName: '__ZN51_$LT$$RF$std..fs..File$u20$as$u20$std..io..Read$GT$14read_to_string17hf70ed8f32c0de083E', symObjAddr: 0x22734, symBinAddr: 0x1000458B4, symSize: 0x168 }
  - { offset: 0xDD978, size: 0x8, addend: 0x0, symName: '__ZN47_$LT$std..fs..File$u20$as$u20$std..io..Read$GT$4read17h5d0e9e56eb61d89cE', symObjAddr: 0x22994, symBinAddr: 0x100045B14, symSize: 0x4C }
  - { offset: 0xDDAA4, size: 0x8, addend: 0x0, symName: '__ZN47_$LT$std..fs..File$u20$as$u20$std..io..Read$GT$13read_vectored17h22a3cea630082046E', symObjAddr: 0x229E0, symBinAddr: 0x100045B60, symSize: 0x4C }
  - { offset: 0xDDBD7, size: 0x8, addend: 0x0, symName: '__ZN47_$LT$std..fs..File$u20$as$u20$std..io..Read$GT$8read_buf17hd0961d4a1843f456E', symObjAddr: 0x22A2C, symBinAddr: 0x100045BAC, symSize: 0x78 }
  - { offset: 0xDDDDD, size: 0x8, addend: 0x0, symName: '__ZN47_$LT$std..fs..File$u20$as$u20$std..io..Read$GT$11read_to_end17h318d03d6ad02929aE', symObjAddr: 0x22AA4, symBinAddr: 0x100045C24, symSize: 0x24 }
  - { offset: 0xDDDF8, size: 0x8, addend: 0x0, symName: '__ZN47_$LT$std..fs..File$u20$as$u20$std..io..Read$GT$14read_to_string17h1769572193c966f8E', symObjAddr: 0x22AC8, symBinAddr: 0x100045C48, symSize: 0x24 }
  - { offset: 0xDDE35, size: 0x8, addend: 0x0, symName: '__ZN47_$LT$std..fs..File$u20$as$u20$std..io..Seek$GT$4seek17h4368fe7db98b8950E', symObjAddr: 0x22B84, symBinAddr: 0x100045D04, symSize: 0x54 }
  - { offset: 0xDDEEF, size: 0x8, addend: 0x0, symName: '__ZN3std2fs81_$LT$impl$u20$std..io..Read$u20$for$u20$alloc..sync..Arc$LT$std..fs..File$GT$$GT$4read17hb07d447ec8668a9cE', symObjAddr: 0x22BD8, symBinAddr: 0x100045D58, symSize: 0x50 }
  - { offset: 0xDE063, size: 0x8, addend: 0x0, symName: '__ZN3std2fs81_$LT$impl$u20$std..io..Read$u20$for$u20$alloc..sync..Arc$LT$std..fs..File$GT$$GT$13read_vectored17h95ee26fe725e8c46E', symObjAddr: 0x22C28, symBinAddr: 0x100045DA8, symSize: 0x50 }
  - { offset: 0xDE1D7, size: 0x8, addend: 0x0, symName: '__ZN3std2fs81_$LT$impl$u20$std..io..Read$u20$for$u20$alloc..sync..Arc$LT$std..fs..File$GT$$GT$8read_buf17h76eef20790fd7ae9E', symObjAddr: 0x22C78, symBinAddr: 0x100045DF8, symSize: 0x7C }
  - { offset: 0xDE425, size: 0x8, addend: 0x0, symName: '__ZN3std2fs81_$LT$impl$u20$std..io..Read$u20$for$u20$alloc..sync..Arc$LT$std..fs..File$GT$$GT$11read_to_end17h7f98d995276ce08aE', symObjAddr: 0x22CF4, symBinAddr: 0x100045E74, symSize: 0x2C }
  - { offset: 0xDE482, size: 0x8, addend: 0x0, symName: '__ZN3std2fs81_$LT$impl$u20$std..io..Read$u20$for$u20$alloc..sync..Arc$LT$std..fs..File$GT$$GT$14read_to_string17hea621c3ce2bbe2d7E', symObjAddr: 0x22D20, symBinAddr: 0x100045EA0, symSize: 0x2C }
  - { offset: 0xDE4E5, size: 0x8, addend: 0x0, symName: '__ZN3std2fs82_$LT$impl$u20$std..io..Write$u20$for$u20$alloc..sync..Arc$LT$std..fs..File$GT$$GT$5write17hd1669efdbab8584dE', symObjAddr: 0x22D4C, symBinAddr: 0x100045ECC, symSize: 0x50 }
  - { offset: 0xDE631, size: 0x8, addend: 0x0, symName: '__ZN3std2fs82_$LT$impl$u20$std..io..Write$u20$for$u20$alloc..sync..Arc$LT$std..fs..File$GT$$GT$14write_vectored17h4198d18fd61f62abE', symObjAddr: 0x22D9C, symBinAddr: 0x100045F1C, symSize: 0x50 }
  - { offset: 0xDE783, size: 0x8, addend: 0x0, symName: '__ZN3std2fs81_$LT$impl$u20$std..io..Seek$u20$for$u20$alloc..sync..Arc$LT$std..fs..File$GT$$GT$4seek17hd1562351604edea2E', symObjAddr: 0x22DEC, symBinAddr: 0x100045F6C, symSize: 0x58 }
  - { offset: 0xDE87E, size: 0x8, addend: 0x0, symName: __ZN3std2fs8Metadata8modified17h077d07a31319f6f7E, symObjAddr: 0x23088, symBinAddr: 0x100046208, symSize: 0x70 }
  - { offset: 0xDE8DE, size: 0x8, addend: 0x0, symName: __ZN3std2fs8Metadata8accessed17h5d52d3be5756baf3E, symObjAddr: 0x230F8, symBinAddr: 0x100046278, symSize: 0x70 }
  - { offset: 0xDE93E, size: 0x8, addend: 0x0, symName: __ZN3std2fs8Metadata7created17h9006bf6c428f228dE, symObjAddr: 0x23168, symBinAddr: 0x1000462E8, symSize: 0x70 }
  - { offset: 0xDEA22, size: 0x8, addend: 0x0, symName: '__ZN54_$LT$std..fs..Metadata$u20$as$u20$core..fmt..Debug$GT$3fmt17h1f630d0f8784f472E', symObjAddr: 0x231D8, symBinAddr: 0x100046358, symSize: 0x1F0 }
  - { offset: 0xDEBAE, size: 0x8, addend: 0x0, symName: '__ZN54_$LT$std..fs..FileType$u20$as$u20$core..fmt..Debug$GT$3fmt17h2d3db1f3b5f8dddeE', symObjAddr: 0x233C8, symBinAddr: 0x100046548, symSize: 0xC4 }
  - { offset: 0xDECBD, size: 0x8, addend: 0x0, symName: '__ZN75_$LT$std..fs..ReadDir$u20$as$u20$core..iter..traits..iterator..Iterator$GT$4next17hff4a652e9915cafaE', symObjAddr: 0x2348C, symBinAddr: 0x10004660C, symSize: 0x84 }
  - { offset: 0xDED18, size: 0x8, addend: 0x0, symName: __ZN3std2fs8DirEntry4path17h1cd1c2d74de10123E, symObjAddr: 0x23510, symBinAddr: 0x100046690, symSize: 0x24 }
  - { offset: 0xDEECA, size: 0x8, addend: 0x0, symName: __ZN3std2fs8DirEntry8metadata17hef3e9b4f70778ed7E, symObjAddr: 0x23534, symBinAddr: 0x1000466B4, symSize: 0x9C }
  - { offset: 0xDEEFB, size: 0x8, addend: 0x0, symName: __ZN3std2fs8DirEntry9file_type17h33ab1a74729cf95eE, symObjAddr: 0x235D0, symBinAddr: 0x100046750, symSize: 0x88 }
  - { offset: 0xDEF41, size: 0x8, addend: 0x0, symName: __ZN3std2fs8DirEntry9file_name17h2cbf807d428bca80E, symObjAddr: 0x23658, symBinAddr: 0x1000467D8, symSize: 0x78 }
  - { offset: 0xDF0BC, size: 0x8, addend: 0x0, symName: '__ZN54_$LT$std..fs..DirEntry$u20$as$u20$core..fmt..Debug$GT$3fmt17h85442611c54700daE', symObjAddr: 0x236D0, symBinAddr: 0x100046850, symSize: 0xB0 }
  - { offset: 0xDF3DF, size: 0x8, addend: 0x0, symName: __ZN3std2fs10DirBuilder7_create17h71b7c5f0e7b715efE, symObjAddr: 0x23780, symBinAddr: 0x100046900, symSize: 0xC8 }
  - { offset: 0xDF510, size: 0x8, addend: 0x0, symName: __ZN3std2fs10DirBuilder14create_dir_all17h937761d2068da9b1E, symObjAddr: 0x23848, symBinAddr: 0x1000469C8, symSize: 0x48C }
  - { offset: 0xDFCF8, size: 0x8, addend: 0x0, symName: '__ZN57_$LT$std..fs..Permissions$u20$as$u20$core..fmt..Debug$GT$3fmt17heed23be1e8c92bbcE', symObjAddr: 0x398F8, symBinAddr: 0x10005BDAC, symSize: 0x40 }
  - { offset: 0xDFD3F, size: 0x8, addend: 0x0, symName: '__ZN67_$LT$std..hash..random..RandomState$u20$as$u20$core..fmt..Debug$GT$3fmt17h91a5a5309cde5be7E', symObjAddr: 0x23CD4, symBinAddr: 0x100046E54, symSize: 0x38 }
  - { offset: 0xDFD6B, size: 0x8, addend: 0x0, symName: '__ZN3std3net11socket_addr136_$LT$impl$u20$std..sys_common..FromInner$LT$libc..unix..bsd..apple..sockaddr_in$GT$$u20$for$u20$core..net..socket_addr..SocketAddrV4$GT$10from_inner17h003e3f0ae6f8dbe4E', symObjAddr: 0x2B438, symBinAddr: 0x10004E3A0, symSize: 0x24 }
  - { offset: 0xDFDBD, size: 0x8, addend: 0x0, symName: '__ZN3std3net11socket_addr130_$LT$impl$u20$std..sys_common..FromInner$LT$libc..unix..bsd..sockaddr_in6$GT$$u20$for$u20$core..net..socket_addr..SocketAddrV6$GT$10from_inner17h91dc6b4a77973985E', symObjAddr: 0x2B45C, symBinAddr: 0x10004E3C4, symSize: 0x34 }
  - { offset: 0xDFE23, size: 0x8, addend: 0x0, symName: '__ZN3std3net11socket_addr136_$LT$impl$u20$std..sys_common..IntoInner$LT$libc..unix..bsd..apple..sockaddr_in$GT$$u20$for$u20$core..net..socket_addr..SocketAddrV4$GT$10into_inner17h23d4e9200150dfb6E', symObjAddr: 0x2B490, symBinAddr: 0x10004E3F8, symSize: 0x30 }
  - { offset: 0xDFE66, size: 0x8, addend: 0x0, symName: '__ZN3std3net11socket_addr130_$LT$impl$u20$std..sys_common..IntoInner$LT$libc..unix..bsd..sockaddr_in6$GT$$u20$for$u20$core..net..socket_addr..SocketAddrV6$GT$10into_inner17hc8a1181b4e07b926E', symObjAddr: 0x2B4C0, symBinAddr: 0x10004E428, symSize: 0x3C }
  - { offset: 0xDFEEE, size: 0x8, addend: 0x0, symName: __ZN3std3net11socket_addr19resolve_socket_addr17h9a9555674d13c5f9E, symObjAddr: 0x2B4FC, symBinAddr: 0x10004E464, symSize: 0x34C }
  - { offset: 0xE04D1, size: 0x8, addend: 0x0, symName: '__ZN78_$LT$$LP$$RF$str$C$u16$RP$$u20$as$u20$std..net..socket_addr..ToSocketAddrs$GT$15to_socket_addrs17hfdbc94b3ea516bcfE', symObjAddr: 0x2B848, symBinAddr: 0x10004E7B0, symSize: 0x1C8 }
  - { offset: 0xE06BD, size: 0x8, addend: 0x0, symName: '__ZN92_$LT$$LP$alloc..string..String$C$u16$RP$$u20$as$u20$std..net..socket_addr..ToSocketAddrs$GT$15to_socket_addrs17h0d43fb0fed1a67d0E', symObjAddr: 0x2BA10, symBinAddr: 0x10004E978, symSize: 0x30 }
  - { offset: 0xE0778, size: 0x8, addend: 0x0, symName: '__ZN60_$LT$str$u20$as$u20$std..net..socket_addr..ToSocketAddrs$GT$15to_socket_addrs17hf0bd160f491931eaE', symObjAddr: 0x2BA40, symBinAddr: 0x10004E9A8, symSize: 0xCC }
  - { offset: 0xE085F, size: 0x8, addend: 0x0, symName: '__ZN78_$LT$alloc..string..String$u20$as$u20$std..net..socket_addr..ToSocketAddrs$GT$15to_socket_addrs17h58cc2efb5968559eE', symObjAddr: 0x2BB0C, symBinAddr: 0x10004EA74, symSize: 0x18 }
  - { offset: 0xE0920, size: 0x8, addend: 0x0, symName: __ZN3std3net3tcp9TcpStream15connect_timeout17h56cebff8d195f5beE, symObjAddr: 0x2BB24, symBinAddr: 0x10004EA8C, symSize: 0x4A4 }
  - { offset: 0xE103E, size: 0x8, addend: 0x0, symName: __ZN3std3net3tcp9TcpStream9peer_addr17h3554b362af58efedE, symObjAddr: 0x2BFC8, symBinAddr: 0x10004EF30, symSize: 0x18 }
  - { offset: 0xE1058, size: 0x8, addend: 0x0, symName: __ZN3std3net3tcp9TcpStream12read_timeout17h47eed81d4e1a605aE, symObjAddr: 0x2BFE0, symBinAddr: 0x10004EF48, symSize: 0xFC }
  - { offset: 0xE118C, size: 0x8, addend: 0x0, symName: __ZN3std3net3tcp9TcpStream13write_timeout17h464875f35c93936eE, symObjAddr: 0x2C0DC, symBinAddr: 0x10004F044, symSize: 0xFC }
  - { offset: 0xE12C0, size: 0x8, addend: 0x0, symName: __ZN3std3net3tcp9TcpStream10set_linger17h8d4bb2e07016545bE, symObjAddr: 0x2C1D8, symBinAddr: 0x10004F140, symSize: 0x68 }
  - { offset: 0xE139E, size: 0x8, addend: 0x0, symName: __ZN3std3net3tcp9TcpStream6linger17hde64c27886eee0bfE, symObjAddr: 0x2C240, symBinAddr: 0x10004F1A8, symSize: 0x88 }
  - { offset: 0xE14AC, size: 0x8, addend: 0x0, symName: __ZN3std3net3tcp9TcpStream11set_nodelay17ha953f4aa049ec1dbE, symObjAddr: 0x2C2C8, symBinAddr: 0x10004F230, symSize: 0x54 }
  - { offset: 0xE1575, size: 0x8, addend: 0x0, symName: __ZN3std3net3tcp9TcpStream7nodelay17he351364d1421ea02E, symObjAddr: 0x2C31C, symBinAddr: 0x10004F284, symSize: 0x80 }
  - { offset: 0xE1689, size: 0x8, addend: 0x0, symName: '__ZN58_$LT$std..net..tcp..TcpStream$u20$as$u20$std..io..Read$GT$8read_buf17h766ac60dcf1db9b0E', symObjAddr: 0x2C39C, symBinAddr: 0x10004F304, symSize: 0x70 }
  - { offset: 0xE1830, size: 0x8, addend: 0x0, symName: '__ZN58_$LT$std..net..tcp..TcpStream$u20$as$u20$std..io..Read$GT$13read_vectored17h236597a050949e2fE', symObjAddr: 0x2C40C, symBinAddr: 0x10004F374, symSize: 0x4C }
  - { offset: 0xE193F, size: 0x8, addend: 0x0, symName: '__ZN59_$LT$std..net..tcp..TcpStream$u20$as$u20$std..io..Write$GT$14write_vectored17h99e10923c34ffa0fE', symObjAddr: 0x2C458, symBinAddr: 0x10004F3C0, symSize: 0x4C }
  - { offset: 0xE1A50, size: 0x8, addend: 0x0, symName: '__ZN62_$LT$$RF$std..net..tcp..TcpStream$u20$as$u20$std..io..Read$GT$4read17h40e5c288e39be26cE', symObjAddr: 0x2C4A4, symBinAddr: 0x10004F40C, symSize: 0x48 }
  - { offset: 0xE1B1A, size: 0x8, addend: 0x0, symName: '__ZN62_$LT$$RF$std..net..tcp..TcpStream$u20$as$u20$std..io..Read$GT$8read_buf17h17607437e663d4f8E', symObjAddr: 0x2C4EC, symBinAddr: 0x10004F454, symSize: 0x74 }
  - { offset: 0xE1CC1, size: 0x8, addend: 0x0, symName: '__ZN62_$LT$$RF$std..net..tcp..TcpStream$u20$as$u20$std..io..Read$GT$13read_vectored17h3a94ce9bd9fdc4b2E', symObjAddr: 0x2C560, symBinAddr: 0x10004F4C8, symSize: 0x50 }
  - { offset: 0xE1DD0, size: 0x8, addend: 0x0, symName: '__ZN63_$LT$$RF$std..net..tcp..TcpStream$u20$as$u20$std..io..Write$GT$5write17h36cb2328d4cbca5bE', symObjAddr: 0x2C5B0, symBinAddr: 0x10004F518, symSize: 0x48 }
  - { offset: 0xE1E74, size: 0x8, addend: 0x0, symName: '__ZN61_$LT$std..net..tcp..TcpStream$u20$as$u20$core..fmt..Debug$GT$3fmt17h882800acb938acc0E', symObjAddr: 0x2C5F8, symBinAddr: 0x10004F560, symSize: 0x10 }
  - { offset: 0xE1E95, size: 0x8, addend: 0x0, symName: __ZN3std3net3tcp11TcpListener10local_addr17h32788fbd32115766E, symObjAddr: 0x2C608, symBinAddr: 0x10004F570, symSize: 0x18 }
  - { offset: 0xE1EB0, size: 0x8, addend: 0x0, symName: __ZN3std3net3tcp11TcpListener9try_clone17hed07ed956993125eE, symObjAddr: 0x2C620, symBinAddr: 0x10004F588, symSize: 0x88 }
  - { offset: 0xE1F9D, size: 0x8, addend: 0x0, symName: __ZN3std3net3tcp11TcpListener6accept17h904a7fbefd61a2dcE, symObjAddr: 0x2C6A8, symBinAddr: 0x10004F610, symSize: 0x1A4 }
  - { offset: 0xE2297, size: 0x8, addend: 0x0, symName: __ZN3std3net3tcp11TcpListener7set_ttl17hcf505fb70a882ba9E, symObjAddr: 0x2C84C, symBinAddr: 0x10004F7B4, symSize: 0x54 }
  - { offset: 0xE234A, size: 0x8, addend: 0x0, symName: __ZN3std3net3tcp11TcpListener3ttl17ha5ad9ef88b80d615E, symObjAddr: 0x2C8A0, symBinAddr: 0x10004F808, symSize: 0x78 }
  - { offset: 0xE2442, size: 0x8, addend: 0x0, symName: __ZN3std3net3tcp11TcpListener11set_only_v617hcb7077528c321634E, symObjAddr: 0x2C918, symBinAddr: 0x10004F880, symSize: 0x54 }
  - { offset: 0xE24F5, size: 0x8, addend: 0x0, symName: __ZN3std3net3tcp11TcpListener7only_v617h943e319b29fef5f0E, symObjAddr: 0x2C96C, symBinAddr: 0x10004F8D4, symSize: 0x80 }
  - { offset: 0xE25F3, size: 0x8, addend: 0x0, symName: '__ZN82_$LT$std..net..tcp..Incoming$u20$as$u20$core..iter..traits..iterator..Iterator$GT$4next17h297267faa2bbedfdE', symObjAddr: 0x2C9EC, symBinAddr: 0x10004F954, symSize: 0x40 }
  - { offset: 0xE262A, size: 0x8, addend: 0x0, symName: '__ZN86_$LT$std..net..tcp..IntoIncoming$u20$as$u20$core..iter..traits..iterator..Iterator$GT$4next17he792dfa44655d055E', symObjAddr: 0x2CA2C, symBinAddr: 0x10004F994, symSize: 0x3C }
  - { offset: 0xE2661, size: 0x8, addend: 0x0, symName: '__ZN63_$LT$std..net..tcp..TcpListener$u20$as$u20$core..fmt..Debug$GT$3fmt17hba948c462b1a5fb1E', symObjAddr: 0x2CA68, symBinAddr: 0x10004F9D0, symSize: 0x10 }
  - { offset: 0xE2688, size: 0x8, addend: 0x0, symName: __ZN3std3net3udp9UdpSocket9recv_from17h0059481cfc91b9ccE, symObjAddr: 0x2CA78, symBinAddr: 0x10004F9E0, symSize: 0x24 }
  - { offset: 0xE26CD, size: 0x8, addend: 0x0, symName: __ZN3std3net3udp9UdpSocket9peek_from17he5fb53a0f5cdee11E, symObjAddr: 0x2CA9C, symBinAddr: 0x10004FA04, symSize: 0x24 }
  - { offset: 0xE2712, size: 0x8, addend: 0x0, symName: __ZN3std3net3udp9UdpSocket9peer_addr17hc89c2537828f1eaeE, symObjAddr: 0x2CAC0, symBinAddr: 0x10004FA28, symSize: 0x144 }
  - { offset: 0xE28B4, size: 0x8, addend: 0x0, symName: __ZN3std3net3udp9UdpSocket13set_broadcast17h489126a6bfe688bbE, symObjAddr: 0x2CC04, symBinAddr: 0x10004FB6C, symSize: 0x54 }
  - { offset: 0xE2967, size: 0x8, addend: 0x0, symName: __ZN3std3net3udp9UdpSocket9broadcast17h015edf61ef0da8ecE, symObjAddr: 0x2CC58, symBinAddr: 0x10004FBC0, symSize: 0x80 }
  - { offset: 0xE2A5F, size: 0x8, addend: 0x0, symName: __ZN3std3net3udp9UdpSocket21set_multicast_loop_v417hc1339304ef2cd55cE, symObjAddr: 0x2CCD8, symBinAddr: 0x10004FC40, symSize: 0x54 }
  - { offset: 0xE2B12, size: 0x8, addend: 0x0, symName: __ZN3std3net3udp9UdpSocket17multicast_loop_v417h74ee925e6fa1c2beE, symObjAddr: 0x2CD2C, symBinAddr: 0x10004FC94, symSize: 0x80 }
  - { offset: 0xE2C0A, size: 0x8, addend: 0x0, symName: __ZN3std3net3udp9UdpSocket20set_multicast_ttl_v417he0b1503783031abeE, symObjAddr: 0x2CDAC, symBinAddr: 0x10004FD14, symSize: 0x54 }
  - { offset: 0xE2CBD, size: 0x8, addend: 0x0, symName: __ZN3std3net3udp9UdpSocket16multicast_ttl_v417h8073843847bd4943E, symObjAddr: 0x2CE00, symBinAddr: 0x10004FD68, symSize: 0x78 }
  - { offset: 0xE2DB5, size: 0x8, addend: 0x0, symName: __ZN3std3net3udp9UdpSocket21set_multicast_loop_v617h731a02aeafff8655E, symObjAddr: 0x2CE78, symBinAddr: 0x10004FDE0, symSize: 0x54 }
  - { offset: 0xE2E68, size: 0x8, addend: 0x0, symName: __ZN3std3net3udp9UdpSocket17multicast_loop_v617h57a6c540d6afe3f6E, symObjAddr: 0x2CECC, symBinAddr: 0x10004FE34, symSize: 0x80 }
  - { offset: 0xE2F60, size: 0x8, addend: 0x0, symName: __ZN3std3net3udp9UdpSocket17join_multicast_v417h84934bb976abd11bE, symObjAddr: 0x2CF4C, symBinAddr: 0x10004FEB4, symSize: 0x60 }
  - { offset: 0xE3013, size: 0x8, addend: 0x0, symName: __ZN3std3net3udp9UdpSocket17join_multicast_v617he023a6e92232f9f2E, symObjAddr: 0x2CFAC, symBinAddr: 0x10004FF14, symSize: 0x5C }
  - { offset: 0xE30DB, size: 0x8, addend: 0x0, symName: __ZN3std3net3udp9UdpSocket18leave_multicast_v417h8749c6e8b8fd2e24E, symObjAddr: 0x2D008, symBinAddr: 0x10004FF70, symSize: 0x60 }
  - { offset: 0xE318E, size: 0x8, addend: 0x0, symName: __ZN3std3net3udp9UdpSocket18leave_multicast_v617h529b2e09fbad0784E, symObjAddr: 0x2D068, symBinAddr: 0x10004FFD0, symSize: 0x5C }
  - { offset: 0xE3256, size: 0x8, addend: 0x0, symName: __ZN3std3net3udp9UdpSocket4send17hd98e667ffbd7cf05E, symObjAddr: 0x2D0C4, symBinAddr: 0x10005002C, symSize: 0x44 }
  - { offset: 0xE32FA, size: 0x8, addend: 0x0, symName: '__ZN61_$LT$std..net..udp..UdpSocket$u20$as$u20$core..fmt..Debug$GT$3fmt17hcd93dc31a8e62239E', symObjAddr: 0x2D108, symBinAddr: 0x100050070, symSize: 0x10 }
  - { offset: 0xE335A, size: 0x8, addend: 0x0, symName: '__ZN91_$LT$std..sys_common..net..LookupHost$u20$as$u20$core..iter..traits..iterator..Iterator$GT$4next17hf9d375d99b4c6195E', symObjAddr: 0x44470, symBinAddr: 0x100065E7C, symSize: 0xFC }
  - { offset: 0xE3433, size: 0x8, addend: 0x0, symName: '__ZN74_$LT$std..sys_common..net..LookupHost$u20$as$u20$core..ops..drop..Drop$GT$4drop17h6ba72149274629bfE', symObjAddr: 0x4456C, symBinAddr: 0x100065F78, symSize: 0x14 }
  - { offset: 0xE345A, size: 0x8, addend: 0x0, symName: '__ZN104_$LT$std..sys_common..net..LookupHost$u20$as$u20$core..convert..TryFrom$LT$$LP$$RF$str$C$u16$RP$$GT$$GT$8try_from17h501889bd65b56b4cE', symObjAddr: 0x446B8, symBinAddr: 0x1000660C4, symSize: 0xB8 }
  - { offset: 0xE34DF, size: 0x8, addend: 0x0, symName: '__ZN104_$LT$std..sys_common..net..LookupHost$u20$as$u20$core..convert..TryFrom$LT$$LP$$RF$str$C$u16$RP$$GT$$GT$8try_from28_$u7b$$u7b$closure$u7d$$u7d$17h0f122c5a413449d4E', symObjAddr: 0x44770, symBinAddr: 0x10006617C, symSize: 0x1A8 }
  - { offset: 0xE39C4, size: 0x8, addend: 0x0, symName: __ZN3std10sys_common3net9TcpStream7connect17h6eb84a585df2e089E, symObjAddr: 0x44918, symBinAddr: 0x100066324, symSize: 0x12C }
  - { offset: 0xE3B05, size: 0x8, addend: 0x0, symName: __ZN3std10sys_common3net9TcpStream9peer_addr17h8df7a49454ae10f2E, symObjAddr: 0x44A44, symBinAddr: 0x100066450, symSize: 0x148 }
  - { offset: 0xE3CAF, size: 0x8, addend: 0x0, symName: '__ZN3std10sys_common3net154_$LT$impl$u20$std..sys_common..IntoInner$LT$$LP$std..sys_common..net..SocketAddrCRepr$C$u32$RP$$GT$$u20$for$u20$$RF$core..net..socket_addr..SocketAddr$GT$10into_inner17hd4fe49cd365cd086E', symObjAddr: 0x454D4, symBinAddr: 0x100066EE0, symSize: 0x70 }
  - { offset: 0xE3DDF, size: 0x8, addend: 0x0, symName: __ZN3std10sys_common3net11TcpListener4bind17h2453d42d646cd608E, symObjAddr: 0x44D68, symBinAddr: 0x100066774, symSize: 0x14C }
  - { offset: 0xE3F31, size: 0x8, addend: 0x0, symName: __ZN3std10sys_common3net11TcpListener11socket_addr17h14638d8b1d7a7971E, symObjAddr: 0x44EB4, symBinAddr: 0x1000668C0, symSize: 0x148 }
  - { offset: 0xE41AD, size: 0x8, addend: 0x0, symName: __ZN3std10sys_common3net9UdpSocket4bind17h6068654714603269E, symObjAddr: 0x45130, symBinAddr: 0x100066B3C, symSize: 0x10C }
  - { offset: 0xE4324, size: 0x8, addend: 0x0, symName: __ZN3std10sys_common3net9UdpSocket7send_to17h1b7390032ead3c9bE, symObjAddr: 0x4523C, symBinAddr: 0x100066C48, symSize: 0xA0 }
  - { offset: 0xE4342, size: 0x8, addend: 0x0, symName: __ZN3std10sys_common3net9UdpSocket7send_to17h1b7390032ead3c9bE, symObjAddr: 0x4523C, symBinAddr: 0x100066C48, symSize: 0xA0 }
  - { offset: 0xE4410, size: 0x8, addend: 0x0, symName: __ZN3std10sys_common3net9UdpSocket7connect17h637cead969752c50E, symObjAddr: 0x452DC, symBinAddr: 0x100066CE8, symSize: 0xC4 }
  - { offset: 0xE4555, size: 0x8, addend: 0x0, symName: '__ZN90_$LT$std..sys_common..net..LookupHost$u20$as$u20$core..convert..TryFrom$LT$$RF$str$GT$$GT$8try_from17h1d942cf275b45e2aE', symObjAddr: 0x44580, symBinAddr: 0x100065F8C, symSize: 0x138 }
  - { offset: 0xE4798, size: 0x8, addend: 0x0, symName: '__ZN68_$LT$std..sys_common..net..TcpStream$u20$as$u20$core..fmt..Debug$GT$3fmt17h88389b51e1cdbcd7E', symObjAddr: 0x44B8C, symBinAddr: 0x100066598, symSize: 0x1DC }
  - { offset: 0xE4C70, size: 0x8, addend: 0x0, symName: '__ZN70_$LT$std..sys_common..net..TcpListener$u20$as$u20$core..fmt..Debug$GT$3fmt17h7138f0ac777acd2bE', symObjAddr: 0x44FFC, symBinAddr: 0x100066A08, symSize: 0x134 }
  - { offset: 0xE4EC4, size: 0x8, addend: 0x0, symName: '__ZN68_$LT$std..sys_common..net..UdpSocket$u20$as$u20$core..fmt..Debug$GT$3fmt17h20bcab4f019262a9E', symObjAddr: 0x453A0, symBinAddr: 0x100066DAC, symSize: 0x134 }
  - { offset: 0xE5138, size: 0x8, addend: 0x0, symName: __ZN3std10sys_common7process10CommandEnv3set17h5126219c81a5a726E, symObjAddr: 0x369C8, symBinAddr: 0x100058EFC, symSize: 0x198 }
  - { offset: 0xE55F8, size: 0x8, addend: 0x0, symName: __ZN3std10sys_common7process10CommandEnv6remove17h87bd0cfcb067b06aE, symObjAddr: 0x36B60, symBinAddr: 0x100059094, symSize: 0x3AC }
  - { offset: 0xE61AE, size: 0x8, addend: 0x0, symName: '__ZN73_$LT$std..sys_common..process..CommandEnv$u20$as$u20$core..fmt..Debug$GT$3fmt17h08fd758fa16d024dE', symObjAddr: 0x36944, symBinAddr: 0x100058E78, symSize: 0x84 }
  - { offset: 0xE61E1, size: 0x8, addend: 0x0, symName: '__ZN96_$LT$std..sys_common..process..CommandEnvs$u20$as$u20$core..iter..traits..iterator..Iterator$GT$4next17h71912663947a1fd4E', symObjAddr: 0x36F0C, symBinAddr: 0x100059440, symSize: 0x50 }
  - { offset: 0xE625F, size: 0x8, addend: 0x0, symName: __ZN3std10sys_common2fs6exists17hf4237e3163747761E, symObjAddr: 0x3671C, symBinAddr: 0x100058C50, symSize: 0x228 }
  - { offset: 0xE65F8, size: 0x8, addend: 0x0, symName: '__ZN91_$LT$std..sys_common..wstr..WStrUnits$u20$as$u20$core..iter..traits..iterator..Iterator$GT$4next17hf19677f74ce2bd2fE', symObjAddr: 0x36F5C, symBinAddr: 0x100059490, symSize: 0x28 }
  - { offset: 0xE6668, size: 0x8, addend: 0x0, symName: __ZN3std10sys_common4wtf87Wtf8Buf25push_code_point_unchecked17he5117008cc7b5216E, symObjAddr: 0x36F9C, symBinAddr: 0x1000594D0, symSize: 0x124 }
  - { offset: 0xE67D4, size: 0x8, addend: 0x0, symName: '__ZN74_$LT$std..sys_common..wtf8..Wtf8Buf$u20$as$u20$core..ops..deref..Deref$GT$5deref17h5545f02803c8f80cE', symObjAddr: 0x36F84, symBinAddr: 0x1000594B8, symSize: 0x18 }
  - { offset: 0xE68AE, size: 0x8, addend: 0x0, symName: '__ZN64_$LT$std..sys_common..wtf8..Wtf8$u20$as$u20$core..fmt..Debug$GT$3fmt17h01c62b181c72b5cdE', symObjAddr: 0x370C0, symBinAddr: 0x1000595F4, symSize: 0x21C }
  - { offset: 0xE6B5B, size: 0x8, addend: 0x0, symName: '__ZN64_$LT$std..sys_common..wtf8..Wtf8$u20$as$u20$core..fmt..Debug$GT$3fmt17write_str_escaped17habeda8e9b6ef8e1eE', symObjAddr: 0x372DC, symBinAddr: 0x100059810, symSize: 0x320 }
  - { offset: 0xE6DDC, size: 0x8, addend: 0x0, symName: '__ZN66_$LT$std..sys_common..wtf8..Wtf8$u20$as$u20$core..fmt..Display$GT$3fmt17hb9830eabf2a4c043E', symObjAddr: 0x375FC, symBinAddr: 0x100059B30, symSize: 0x1E4 }
  - { offset: 0xE6FAF, size: 0x8, addend: 0x0, symName: __ZN3std10sys_common4wtf816slice_error_fail17h8f85e77ce60fb980E, symObjAddr: 0x377E0, symBinAddr: 0x100059D14, symSize: 0x8C }
  - { offset: 0xE6FF8, size: 0x8, addend: 0x0, symName: __ZN3std4pipe10PipeReader9try_clone17h185984fcffa8a737E, symObjAddr: 0x32874, symBinAddr: 0x1000557DC, symSize: 0x88 }
  - { offset: 0xE70EE, size: 0x8, addend: 0x0, symName: '__ZN59_$LT$$RF$std..pipe..PipeReader$u20$as$u20$std..io..Read$GT$4read17h2d2af7f008861fe6E', symObjAddr: 0x328FC, symBinAddr: 0x100055864, symSize: 0x50 }
  - { offset: 0xE71F3, size: 0x8, addend: 0x0, symName: '__ZN59_$LT$$RF$std..pipe..PipeReader$u20$as$u20$std..io..Read$GT$13read_vectored17h22aac44c262d398aE', symObjAddr: 0x3294C, symBinAddr: 0x1000558B4, symSize: 0x50 }
  - { offset: 0xE72F8, size: 0x8, addend: 0x0, symName: '__ZN59_$LT$$RF$std..pipe..PipeReader$u20$as$u20$std..io..Read$GT$11read_to_end17h8e9c58201554956fE', symObjAddr: 0x3299C, symBinAddr: 0x100055904, symSize: 0x14 }
  - { offset: 0xE7312, size: 0x8, addend: 0x0, symName: '__ZN59_$LT$$RF$std..pipe..PipeReader$u20$as$u20$std..io..Read$GT$8read_buf17h3b69056b1f6f5825E', symObjAddr: 0x329B0, symBinAddr: 0x100055918, symSize: 0x7C }
  - { offset: 0xE74F7, size: 0x8, addend: 0x0, symName: '__ZN55_$LT$std..pipe..PipeReader$u20$as$u20$std..io..Read$GT$11read_to_end17h8e6989b405345275E', symObjAddr: 0x32A2C, symBinAddr: 0x100055994, symSize: 0x10 }
  - { offset: 0xE7517, size: 0x8, addend: 0x0, symName: '__ZN60_$LT$$RF$std..pipe..PipeWriter$u20$as$u20$std..io..Write$GT$5write17h99dd5cf3805ee463E', symObjAddr: 0x32A3C, symBinAddr: 0x1000559A4, symSize: 0x50 }
  - { offset: 0xE761F, size: 0x8, addend: 0x0, symName: '__ZN60_$LT$$RF$std..pipe..PipeWriter$u20$as$u20$std..io..Write$GT$14write_vectored17h0136097c29228641E', symObjAddr: 0x32A8C, symBinAddr: 0x1000559F4, symSize: 0x50 }
  - { offset: 0xE772D, size: 0x8, addend: 0x0, symName: '__ZN56_$LT$std..pipe..PipeWriter$u20$as$u20$std..io..Write$GT$5write17h06706f538c2c4d3eE', symObjAddr: 0x32ADC, symBinAddr: 0x100055A44, symSize: 0x4C }
  - { offset: 0xE7835, size: 0x8, addend: 0x0, symName: '__ZN56_$LT$std..pipe..PipeWriter$u20$as$u20$std..io..Write$GT$14write_vectored17h9dd41bbf66ff562fE', symObjAddr: 0x32B28, symBinAddr: 0x100055A90, symSize: 0x4C }
  - { offset: 0xE7949, size: 0x8, addend: 0x0, symName: '__ZN79_$LT$std..random..DefaultRandomSource$u20$as$u20$core..random..RandomSource$GT$10fill_bytes17h64acf431bece2142E', symObjAddr: 0x33B04, symBinAddr: 0x100056A60, symSize: 0x68 }
  - { offset: 0xE7978, size: 0x8, addend: 0x0, symName: __ZN3std5alloc20set_alloc_error_hook17hd221648460304535E, symObjAddr: 0x3786C, symBinAddr: 0x100059DA0, symSize: 0x1C }
  - { offset: 0xE79BF, size: 0x8, addend: 0x0, symName: __ZN3std5alloc21take_alloc_error_hook17h7569abb2a2bb3769E, symObjAddr: 0x37888, symBinAddr: 0x100059DBC, symSize: 0x2C }
  - { offset: 0xE7A06, size: 0x8, addend: 0x0, symName: __ZN3std5alloc24default_alloc_error_hook17h5cca8f42fb77b5beE, symObjAddr: 0x378B4, symBinAddr: 0x100059DE8, symSize: 0x13C }
  - { offset: 0xE7C3F, size: 0x8, addend: 0x0, symName: ___rdl_alloc, symObjAddr: 0x379F0, symBinAddr: 0x100059F24, symSize: 0x6C }
  - { offset: 0xE7CCE, size: 0x8, addend: 0x0, symName: ___rdl_dealloc, symObjAddr: 0x37A5C, symBinAddr: 0x100059F90, symSize: 0x10 }
  - { offset: 0xE7CFB, size: 0x8, addend: 0x0, symName: ___rdl_realloc, symObjAddr: 0x37A6C, symBinAddr: 0x100059FA0, symSize: 0xB0 }
  - { offset: 0xE7DF6, size: 0x8, addend: 0x0, symName: ___rdl_alloc_zeroed, symObjAddr: 0x37B1C, symBinAddr: 0x10005A050, symSize: 0x90 }
  - { offset: 0xE7EA7, size: 0x8, addend: 0x0, symName: __ZN3std5alloc8rust_oom17ha54d832161426ec7E, symObjAddr: 0x45544, symBinAddr: 0x100066F50, symSize: 0x2C }
  - { offset: 0xE7EF3, size: 0x8, addend: 0x0, symName: ___rg_oom, symObjAddr: 0x45570, symBinAddr: 0x100066F7C, symSize: 0x18 }
  - { offset: 0xE7FAB, size: 0x8, addend: 0x0, symName: '__ZN9addr2line8function17Function$LT$R$GT$14parse_children17h5a96da23ad314619E', symObjAddr: 0x1C9D0, symBinAddr: 0x10003FD44, symSize: 0x1084 }
  - { offset: 0xE948F, size: 0x8, addend: 0x0, symName: __ZN9addr2line8function10name_entry17h60ce7a95dfc3cfa2E, symObjAddr: 0x1C668, symBinAddr: 0x10003F9DC, symSize: 0x368 }
  - { offset: 0xE98A7, size: 0x8, addend: 0x0, symName: __ZN9addr2line8function9name_attr17h8910c26a4607af82E, symObjAddr: 0x1DA54, symBinAddr: 0x100040DC8, symSize: 0x1B4 }
  - { offset: 0xE9A2F, size: 0x8, addend: 0x0, symName: __ZN9addr2line11render_file17h9f078ff6f661a719E, symObjAddr: 0x18A38, symBinAddr: 0x10003BDAC, symSize: 0x4B8 }
  - { offset: 0xEA2BD, size: 0x8, addend: 0x0, symName: '__ZN9addr2line16Context$LT$R$GT$9find_unit17h02e652107e14180dE', symObjAddr: 0x18EF0, symBinAddr: 0x10003C264, symSize: 0x168 }
  - { offset: 0xEA4CA, size: 0x8, addend: 0x0, symName: '__ZN9addr2line16ResUnit$LT$R$GT$25find_function_or_location17h88e9cf0d105a9d5cE', symObjAddr: 0x19058, symBinAddr: 0x10003C3CC, symSize: 0x3B4 }
  - { offset: 0xEA8F6, size: 0x8, addend: 0x0, symName: '__ZN9addr2line16ResUnit$LT$R$GT$25find_function_or_location28_$u7b$$u7b$closure$u7d$$u7d$17hf794ef008246ce60E', symObjAddr: 0x1940C, symBinAddr: 0x10003C780, symSize: 0x16F8 }
  - { offset: 0xED49D, size: 0x8, addend: 0x0, symName: '__ZN9addr2line18FrameIter$LT$R$GT$4next17h5d9dc218a3d70785E', symObjAddr: 0x1AB04, symBinAddr: 0x10003DE78, symSize: 0x2FC }
  - { offset: 0xED95B, size: 0x8, addend: 0x0, symName: '__ZN9addr2line30LoopingLookup$LT$T$C$L$C$F$GT$10new_lookup17h69ec4693d316778dE', symObjAddr: 0x1AE00, symBinAddr: 0x10003E174, symSize: 0x404 }
  - { offset: 0xEDE43, size: 0x8, addend: 0x0, symName: __ZN9addr2line5Lines5parse17h239c9d0fb9e4388cE, symObjAddr: 0x1B204, symBinAddr: 0x10003E578, symSize: 0x1464 }
  - { offset: 0xF0A9E, size: 0x8, addend: 0x0, symName: __ZN5gimli4read6reader6Reader11read_offset17h507167eba07c55b2E, symObjAddr: 0x1688C, symBinAddr: 0x100039C00, symSize: 0xBC }
  - { offset: 0xF0CDA, size: 0x8, addend: 0x0, symName: __ZN5gimli4read6reader6Reader12read_sleb12817h8ea8408dd43930a7E, symObjAddr: 0x16948, symBinAddr: 0x100039CBC, symSize: 0x21C }
  - { offset: 0xF0DC9, size: 0x8, addend: 0x0, symName: __ZN5gimli4read6reader6Reader12read_uleb12817h3f9bded8998600a1E, symObjAddr: 0x16B64, symBinAddr: 0x100039ED8, symSize: 0xB0 }
  - { offset: 0xF0E7E, size: 0x8, addend: 0x0, symName: __ZN5gimli4read6reader6Reader17read_sized_offset17h7fb8b8082a308758E, symObjAddr: 0x16C14, symBinAddr: 0x100039F88, symSize: 0xEC }
  - { offset: 0xF12AF, size: 0x8, addend: 0x0, symName: '__ZN5gimli4read4unit32AttributeValue$LT$R$C$Offset$GT$11udata_value17h78a0cae784eb90bbE', symObjAddr: 0x13DF8, symBinAddr: 0x10003716C, symSize: 0x90 }
  - { offset: 0xF130A, size: 0x8, addend: 0x0, symName: __ZN5gimli4read4unit15parse_attribute17h948770c1726d773bE, symObjAddr: 0x120E0, symBinAddr: 0x100035454, symSize: 0xF68 }
  - { offset: 0xF3F60, size: 0x8, addend: 0x0, symName: __ZN5gimli4read4unit15skip_attributes17hf7d782d82a91ce5dE, symObjAddr: 0x13048, symBinAddr: 0x1000363BC, symSize: 0x520 }
  - { offset: 0xF497D, size: 0x8, addend: 0x0, symName: '__ZN5gimli4read4unit18Attribute$LT$R$GT$5value17hed9fc3bf893aa23aE', symObjAddr: 0x13568, symBinAddr: 0x1000368DC, symSize: 0x5DC }
  - { offset: 0xF4EE9, size: 0x8, addend: 0x0, symName: '__ZN5gimli4read4unit22EntriesCursor$LT$R$GT$10next_entry17hd23780b78bf6f453E', symObjAddr: 0x13B44, symBinAddr: 0x100036EB8, symSize: 0x2B4 }
  - { offset: 0xF545B, size: 0x8, addend: 0x0, symName: '__ZN5gimli4read4unit33DebugInfoUnitHeadersIter$LT$R$GT$4next17h7b27487e1890ae2aE', symObjAddr: 0x13E88, symBinAddr: 0x1000371FC, symSize: 0x4D4 }
  - { offset: 0xF65C1, size: 0x8, addend: 0x0, symName: '__ZN90_$LT$gimli..read..unit..AttributeValue$LT$R$C$Offset$GT$$u20$as$u20$core..clone..Clone$GT$5clone17hac5ae9c9c6c8d42fE', symObjAddr: 0x184D0, symBinAddr: 0x10003B844, symSize: 0x68 }
  - { offset: 0xF66E7, size: 0x8, addend: 0x0, symName: __ZN5gimli4read4line13parse_file_v517h64c1bf063e2a127bE, symObjAddr: 0x10FB8, symBinAddr: 0x10003432C, symSize: 0x278 }
  - { offset: 0xF685E, size: 0x8, addend: 0x0, symName: __ZN5gimli4read4line15FileEntryFormat5parse17hf3c6024dca6e391dE, symObjAddr: 0x11230, symBinAddr: 0x1000345A4, symSize: 0x350 }
  - { offset: 0xF706C, size: 0x8, addend: 0x0, symName: __ZN5gimli4read4line15parse_attribute17hcacf4681423038ddE, symObjAddr: 0x11580, symBinAddr: 0x1000348F4, symSize: 0x868 }
  - { offset: 0xF8801, size: 0x8, addend: 0x0, symName: __ZN5gimli4read4line18parse_directory_v517heb01e2d78153f60bE, symObjAddr: 0x11DE8, symBinAddr: 0x10003515C, symSize: 0xE8 }
  - { offset: 0xF8891, size: 0x8, addend: 0x0, symName: '__ZN5gimli4read4line27FileEntry$LT$R$C$Offset$GT$5parse17hadc56d2b0249308dE', symObjAddr: 0x11ED0, symBinAddr: 0x100035244, symSize: 0x210 }
  - { offset: 0xF8B7A, size: 0x8, addend: 0x0, symName: '__ZN93_$LT$gimli..read..line..LineProgramHeader$LT$R$C$Offset$GT$$u20$as$u20$core..clone..Clone$GT$5clone17h02398f1a99a50a4fE', symObjAddr: 0x18538, symBinAddr: 0x10003B8AC, symSize: 0x448 }
  - { offset: 0xF97A3, size: 0x8, addend: 0x0, symName: '__ZN5gimli4read5dwarf14Dwarf$LT$R$GT$11attr_string17h23281c43e7d8666cE', symObjAddr: 0x15FC4, symBinAddr: 0x100039338, symSize: 0x1E8 }
  - { offset: 0xF9FC4, size: 0x8, addend: 0x0, symName: '__ZN5gimli4read5dwarf13Unit$LT$R$GT$3new17h60a6e7428346a71eE', symObjAddr: 0x1435C, symBinAddr: 0x1000376D0, symSize: 0x1C68 }
  - { offset: 0xFDB24, size: 0x8, addend: 0x0, symName: '__ZN5gimli4read5index18UnitIndex$LT$R$GT$5parse17h55b5c12b00c2d27cE', symObjAddr: 0x161AC, symBinAddr: 0x100039520, symSize: 0x6E0 }
  - { offset: 0xFE0F8, size: 0x8, addend: 0x0, symName: '__ZN5gimli4read7aranges30ArangeHeader$LT$R$C$Offset$GT$5parse17h8b32058b43fa7eedE', symObjAddr: 0x16D00, symBinAddr: 0x10003A074, symSize: 0x29C }
  - { offset: 0xFE928, size: 0x8, addend: 0x0, symName: '__ZN5gimli4read8rnglists20RngListIter$LT$R$GT$4next17hed01def4856eca9aE', symObjAddr: 0x16F9C, symBinAddr: 0x10003A310, symSize: 0xC3C }
  - { offset: 0x1017E3, size: 0x8, addend: 0x0, symName: __ZN6object4read7archive13ArchiveMember5parse17hec8f05bf7f831dc2E, symObjAddr: 0x18094, symBinAddr: 0x10003B408, symSize: 0x2E0 }
  - { offset: 0x101D70, size: 0x8, addend: 0x0, symName: __ZN6object4read7archive23parse_bsd_extended_name17hcd252cd855568d2fE, symObjAddr: 0x18374, symBinAddr: 0x10003B6E8, symSize: 0xB8 }
  - { offset: 0x10249F, size: 0x8, addend: 0x0, symName: _OUTLINED_FUNCTION_0, symObjAddr: 0x4B37C, symBinAddr: 0x10006CD88, symSize: 0x24 }
  - { offset: 0x1024B7, size: 0x8, addend: 0x0, symName: _OUTLINED_FUNCTION_1, symObjAddr: 0x4B3A0, symBinAddr: 0x10006CDAC, symSize: 0x8 }
  - { offset: 0x1024CF, size: 0x8, addend: 0x0, symName: _OUTLINED_FUNCTION_2, symObjAddr: 0x4B3A8, symBinAddr: 0x10006CDB4, symSize: 0x8 }
  - { offset: 0x1024E7, size: 0x8, addend: 0x0, symName: _OUTLINED_FUNCTION_3, symObjAddr: 0x4B3B0, symBinAddr: 0x10006CDBC, symSize: 0x8 }
  - { offset: 0x1024FF, size: 0x8, addend: 0x0, symName: _OUTLINED_FUNCTION_4, symObjAddr: 0x4B3B8, symBinAddr: 0x10006CDC4, symSize: 0x8 }
  - { offset: 0x102517, size: 0x8, addend: 0x0, symName: _OUTLINED_FUNCTION_5, symObjAddr: 0x4B3C0, symBinAddr: 0x10006CDCC, symSize: 0xC }
  - { offset: 0x10252F, size: 0x8, addend: 0x0, symName: _OUTLINED_FUNCTION_6, symObjAddr: 0x4B3CC, symBinAddr: 0x10006CDD8, symSize: 0xC }
  - { offset: 0x102547, size: 0x8, addend: 0x0, symName: _OUTLINED_FUNCTION_7, symObjAddr: 0x4B3D8, symBinAddr: 0x10006CDE4, symSize: 0xC }
  - { offset: 0x10257D, size: 0x8, addend: 0x0, symName: '__ZN4core3ptr49drop_in_place$LT$panic_unwind..imp..Exception$GT$17hed54968f30dd5290E', symObjAddr: 0x0, symBinAddr: 0x10006CDF0, symSize: 0x78 }
  - { offset: 0x1025A3, size: 0x8, addend: 0x0, symName: '__ZN4core3ptr49drop_in_place$LT$panic_unwind..imp..Exception$GT$17hed54968f30dd5290E', symObjAddr: 0x0, symBinAddr: 0x10006CDF0, symSize: 0x78 }
  - { offset: 0x1026AA, size: 0x8, addend: 0x0, symName: '__ZN4core3ptr74drop_in_place$LT$alloc..boxed..Box$LT$panic_unwind..imp..Exception$GT$$GT$17h6b9081c1409d55c1E', symObjAddr: 0x78, symBinAddr: 0x10006CE68, symSize: 0x8C }
  - { offset: 0x10297F, size: 0x8, addend: 0x0, symName: __ZN12panic_unwind3imp5panic17exception_cleanup17hc2dfc11f5b65ae4bE, symObjAddr: 0x214, symBinAddr: 0x10006D004, symSize: 0x18 }
  - { offset: 0x10299B, size: 0x8, addend: 0x0, symName: ___rust_panic_cleanup, symObjAddr: 0x104, symBinAddr: 0x10006CEF4, symSize: 0x68 }
  - { offset: 0x102A3D, size: 0x8, addend: 0x0, symName: ___rust_start_panic, symObjAddr: 0x16C, symBinAddr: 0x10006CF5C, symSize: 0xA8 }
  - { offset: 0x102AF7, size: 0x8, addend: 0x0, symName: '__ZN42_$LT$$RF$T$u20$as$u20$core..fmt..Debug$GT$3fmt17hc10e7420f6dffb19E', symObjAddr: 0x0, symBinAddr: 0x100070B5C, symSize: 0x30 }
  - { offset: 0x102B41, size: 0x8, addend: 0x0, symName: '__ZN42_$LT$$RF$T$u20$as$u20$core..fmt..Debug$GT$3fmt17hc10e7420f6dffb19E', symObjAddr: 0x0, symBinAddr: 0x100070B5C, symSize: 0x30 }
  - { offset: 0x102BB0, size: 0x8, addend: 0x0, symName: __ZN4core9panicking13assert_failed17h01057eccb24808cdE, symObjAddr: 0x30, symBinAddr: 0x1000ADAC4, symSize: 0x38 }
  - { offset: 0x1031CD, size: 0x8, addend: 0x0, symName: __ZN6memchr6memchr8fallback6memchr17h9a7d91b4f82895aaE, symObjAddr: 0x68, symBinAddr: 0x100070B8C, symSize: 0x148 }
  - { offset: 0x1031E4, size: 0x8, addend: 0x0, symName: __ZN6memchr6memchr8fallback6memchr17h9a7d91b4f82895aaE, symObjAddr: 0x68, symBinAddr: 0x100070B8C, symSize: 0x148 }
  - { offset: 0x1032D3, size: 0x8, addend: 0x0, symName: __ZN6memchr6memchr8fallback7memchr217h38dab6640d5cf3f6E, symObjAddr: 0x1B0, symBinAddr: 0x100070CD4, symSize: 0x154 }
  - { offset: 0x1032F0, size: 0x8, addend: 0x0, symName: __ZN6memchr6memchr8fallback7memchr217h38dab6640d5cf3f6E, symObjAddr: 0x1B0, symBinAddr: 0x100070CD4, symSize: 0x154 }
  - { offset: 0x103441, size: 0x8, addend: 0x0, symName: __ZN6memchr6memchr8fallback7memchr317hafed0fa242bbdc25E, symObjAddr: 0x304, symBinAddr: 0x100070E28, symSize: 0x18C }
  - { offset: 0x10345E, size: 0x8, addend: 0x0, symName: __ZN6memchr6memchr8fallback7memchr317hafed0fa242bbdc25E, symObjAddr: 0x304, symBinAddr: 0x100070E28, symSize: 0x18C }
  - { offset: 0x1035B7, size: 0x8, addend: 0x0, symName: __ZN6memchr6memchr8fallback7memrchr17hc1d2f49453f4f6ecE, symObjAddr: 0x490, symBinAddr: 0x100070FB4, symSize: 0x130 }
  - { offset: 0x1035CE, size: 0x8, addend: 0x0, symName: __ZN6memchr6memchr8fallback7memrchr17hc1d2f49453f4f6ecE, symObjAddr: 0x490, symBinAddr: 0x100070FB4, symSize: 0x130 }
  - { offset: 0x10366B, size: 0x8, addend: 0x0, symName: __ZN6memchr6memchr8fallback8memrchr217h7b1b6ee0be3d7d91E, symObjAddr: 0x5C0, symBinAddr: 0x1000710E4, symSize: 0x144 }
  - { offset: 0x103688, size: 0x8, addend: 0x0, symName: __ZN6memchr6memchr8fallback8memrchr217h7b1b6ee0be3d7d91E, symObjAddr: 0x5C0, symBinAddr: 0x1000710E4, symSize: 0x144 }
  - { offset: 0x10378F, size: 0x8, addend: 0x0, symName: __ZN6memchr6memchr8fallback8memrchr317h324e2ab5b51a436fE, symObjAddr: 0x704, symBinAddr: 0x100071228, symSize: 0x17C }
  - { offset: 0x1037AC, size: 0x8, addend: 0x0, symName: __ZN6memchr6memchr8fallback8memrchr317h324e2ab5b51a436fE, symObjAddr: 0x704, symBinAddr: 0x100071228, symSize: 0x17C }
  - { offset: 0x1039F1, size: 0x8, addend: 0x0, symName: __ZN6memchr6memmem9prefilter8fallback4find17hd8329412f41edffbE, symObjAddr: 0x880, symBinAddr: 0x1000713A4, symSize: 0x240 }
  - { offset: 0x103BB2, size: 0x8, addend: 0x0, symName: '__ZN75_$LT$memchr..memmem..prefilter..PrefilterFn$u20$as$u20$core..fmt..Debug$GT$3fmt17hc09b70f550f9b5a1E', symObjAddr: 0xAC0, symBinAddr: 0x1000715E4, symSize: 0x20 }
  - { offset: 0x103D10, size: 0x8, addend: 0x0, symName: __ZN6memchr6memmem9rabinkarp4find17hca20a4ff56292241E, symObjAddr: 0xAE0, symBinAddr: 0x100071604, symSize: 0x12C }
  - { offset: 0x103EDF, size: 0x8, addend: 0x0, symName: __ZN6memchr6memmem9rabinkarp5rfind17h225ffd3602b46ae7E, symObjAddr: 0xC0C, symBinAddr: 0x100071730, symSize: 0x15C }
  - { offset: 0x10409D, size: 0x8, addend: 0x0, symName: __ZN6memchr6memmem9rabinkarp10rfind_with17h3b9b93dc156cbc5fE, symObjAddr: 0xD68, symBinAddr: 0x10007188C, symSize: 0xE0 }
  - { offset: 0x10417D, size: 0x8, addend: 0x0, symName: __ZN6memchr6memmem9rabinkarp9is_prefix17hebf3adbebf958a9cE, symObjAddr: 0xE48, symBinAddr: 0x1000ADAFC, symSize: 0xE0 }
  - { offset: 0x104258, size: 0x8, addend: 0x0, symName: __ZN6memchr6memmem9rabinkarp9is_suffix17h2275ce5477eacdd3E, symObjAddr: 0xF28, symBinAddr: 0x1000ADBDC, symSize: 0xDC }
  - { offset: 0x104438, size: 0x8, addend: 0x0, symName: __ZN6memchr6memmem8Searcher3new17h2aa2be29d8b2b7fdE, symObjAddr: 0x1A9C, symBinAddr: 0x100072404, symSize: 0x7A8 }
  - { offset: 0x104871, size: 0x8, addend: 0x0, symName: __ZN6memchr6memmem8Searcher7find_tw17h709fb61352957be3E, symObjAddr: 0x2244, symBinAddr: 0x100072BAC, symSize: 0x780 }
  - { offset: 0x104BF1, size: 0x8, addend: 0x0, symName: __ZN6memchr6memmem6Finder4find17he3ddc5eb29194132E, symObjAddr: 0x1838, symBinAddr: 0x1000721A0, symSize: 0x264 }
  - { offset: 0x104E5D, size: 0x8, addend: 0x0, symName: '__ZN83_$LT$memchr..memmem..FindIter$u20$as$u20$core..iter..traits..iterator..Iterator$GT$4next17h39fc67b8adebd223E', symObjAddr: 0x1004, symBinAddr: 0x10007196C, symSize: 0x2A8 }
  - { offset: 0x105173, size: 0x8, addend: 0x0, symName: __ZN6memchr6memmem11SearcherRev3new17hdf90e8b31a9cf6c5E, symObjAddr: 0x29C4, symBinAddr: 0x10007332C, symSize: 0x5CC }
  - { offset: 0x10555B, size: 0x8, addend: 0x0, symName: '__ZN86_$LT$memchr..memmem..FindRevIter$u20$as$u20$core..iter..traits..iterator..Iterator$GT$4next17h6357aa1e631a9836E', symObjAddr: 0x12AC, symBinAddr: 0x100071C14, symSize: 0x58C }
  - { offset: 0x105869, size: 0x8, addend: 0x0, symName: __ZN9hashbrown3raw11Fallibility17capacity_overflow17he1c862772a4ef7bfE, symObjAddr: 0x0, symBinAddr: 0x100089534, symSize: 0x44 }
  - { offset: 0x10595D, size: 0x8, addend: 0x0, symName: __ZN9hashbrown3raw11Fallibility17capacity_overflow17he1c862772a4ef7bfE, symObjAddr: 0x0, symBinAddr: 0x100089534, symSize: 0x44 }
  - { offset: 0x10598C, size: 0x8, addend: 0x0, symName: __ZN9hashbrown3raw11Fallibility9alloc_err17hefae1a4e1c23ead4E, symObjAddr: 0x44, symBinAddr: 0x100089578, symSize: 0x24 }
  - { offset: 0x105A73, size: 0x8, addend: 0x0, symName: __ZN9hashbrown3raw16RawIterHashInner3new17h9123fa7483aeaaefE, symObjAddr: 0x68, symBinAddr: 0x10008959C, symSize: 0x44 }
  - { offset: 0x105BA5, size: 0x8, addend: 0x0, symName: '__ZN91_$LT$hashbrown..raw..RawIterHashInner$u20$as$u20$core..iter..traits..iterator..Iterator$GT$4next17hf39fa754a9915ca1E', symObjAddr: 0xAC, symBinAddr: 0x1000895E0, symSize: 0xA0 }
  - { offset: 0x105D0D, size: 0x8, addend: 0x0, symName: '__ZN42_$LT$$RF$T$u20$as$u20$core..fmt..Debug$GT$3fmt17ha0ef3460bf7134daE', symObjAddr: 0x0, symBinAddr: 0x100089680, symSize: 0x1C }
  - { offset: 0x105D2A, size: 0x8, addend: 0x0, symName: '__ZN42_$LT$$RF$T$u20$as$u20$core..fmt..Debug$GT$3fmt17ha0ef3460bf7134daE', symObjAddr: 0x0, symBinAddr: 0x100089680, symSize: 0x1C }
  - { offset: 0x105D64, size: 0x8, addend: 0x0, symName: __ZN4core3fmt5Write9write_fmt17h415e08f145dfb262E, symObjAddr: 0x1C, symBinAddr: 0x10008969C, symSize: 0x1C }
  - { offset: 0x105DA6, size: 0x8, addend: 0x0, symName: '__ZN53_$LT$core..fmt..Error$u20$as$u20$core..fmt..Debug$GT$3fmt17he86a5143693380e6E', symObjAddr: 0xDC, symBinAddr: 0x10008975C, symSize: 0x20 }
  - { offset: 0x105EBD, size: 0x8, addend: 0x0, symName: '__ZN4core3ptr205drop_in_place$LT$$LT$alloc..boxed..Box$LT$dyn$u20$core..error..Error$u2b$core..marker..Send$u2b$core..marker..Sync$GT$$u20$as$u20$core..convert..From$LT$alloc..string..String$GT$$GT$..from..StringError$GT$17heaad1687d35e3e23E', symObjAddr: 0x38, symBinAddr: 0x1000896B8, symSize: 0x28 }
  - { offset: 0x105F60, size: 0x8, addend: 0x0, symName: '__ZN4core3ptr42drop_in_place$LT$alloc..string..String$GT$17hf3dc24f1a9d3aa6cE', symObjAddr: 0x60, symBinAddr: 0x1000896E0, symSize: 0x28 }
  - { offset: 0x1061D1, size: 0x8, addend: 0x0, symName: __ZN4core5error5Error5cause17h3e78fac579f0d2cdE, symObjAddr: 0x88, symBinAddr: 0x100089708, symSize: 0x14 }
  - { offset: 0x1061EB, size: 0x8, addend: 0x0, symName: __ZN4core5error5Error7provide17h04158b094f99fafbE, symObjAddr: 0x9C, symBinAddr: 0x10008971C, symSize: 0x10 }
  - { offset: 0x106205, size: 0x8, addend: 0x0, symName: __ZN4core5error5Error7type_id17ha8c7e9ae09d6f731E, symObjAddr: 0xAC, symBinAddr: 0x10008972C, symSize: 0x30 }
  - { offset: 0x106230, size: 0x8, addend: 0x0, symName: '__ZN69_$LT$core..alloc..layout..LayoutError$u20$as$u20$core..fmt..Debug$GT$3fmt17h38f65cacd4e5603aE', symObjAddr: 0xFC, symBinAddr: 0x10008977C, symSize: 0x20 }
  - { offset: 0x1068F9, size: 0x8, addend: 0x0, symName: '__ZN5alloc3ffi5c_str40_$LT$impl$u20$core..ffi..c_str..CStr$GT$15to_string_lossy17hca96055bc4172724E', symObjAddr: 0x17B0, symBinAddr: 0x10008AD64, symSize: 0x14 }
  - { offset: 0x10692A, size: 0x8, addend: 0x0, symName: '__ZN5alloc3ffi5c_str40_$LT$impl$u20$core..ffi..c_str..CStr$GT$13into_c_string17h0c9912f37761ecd8E', symObjAddr: 0x17C4, symBinAddr: 0x10008AD78, symSize: 0x10 }
  - { offset: 0x1072B8, size: 0x8, addend: 0x0, symName: __ZN5alloc7raw_vec17capacity_overflow17h6035597745bd01e1E, symObjAddr: 0x11C, symBinAddr: 0x10008979C, symSize: 0x38 }
  - { offset: 0x1072FA, size: 0x8, addend: 0x0, symName: '__ZN5alloc7raw_vec19RawVec$LT$T$C$A$GT$8grow_one17hadb5daffdf9dd647E', symObjAddr: 0x154, symBinAddr: 0x1000897D4, symSize: 0xA0 }
  - { offset: 0x107567, size: 0x8, addend: 0x0, symName: '__ZN5alloc7raw_vec20RawVecInner$LT$A$GT$7reserve21do_reserve_and_handle17h02645e5a46a7b399E', symObjAddr: 0x1F4, symBinAddr: 0x1000ADD0C, symSize: 0xA0 }
  - { offset: 0x107680, size: 0x8, addend: 0x0, symName: __ZN5alloc7raw_vec11finish_grow17hb0bd977838508dd5E, symObjAddr: 0x294, symBinAddr: 0x100089874, symSize: 0x88 }
  - { offset: 0x1076F5, size: 0x8, addend: 0x0, symName: __ZN5alloc7raw_vec12handle_error17hbe5ce02d989aad7dE, symObjAddr: 0x31C, symBinAddr: 0x1000ADDAC, symSize: 0x14 }
  - { offset: 0x1077F4, size: 0x8, addend: 0x0, symName: __ZN5alloc5alloc18handle_alloc_error8ct_error17h1374e75f1bc6e215E, symObjAddr: 0x348, symBinAddr: 0x1000898FC, symSize: 0x38 }
  - { offset: 0x107825, size: 0x8, addend: 0x0, symName: __ZN5alloc5alloc18handle_alloc_error17h0a3050efcb156a76E, symObjAddr: 0x330, symBinAddr: 0x1000ADDC0, symSize: 0x18 }
  - { offset: 0x10785B, size: 0x8, addend: 0x0, symName: ___rdl_oom, symObjAddr: 0x380, symBinAddr: 0x100089934, symSize: 0xA4 }
  - { offset: 0x107900, size: 0x8, addend: 0x0, symName: '__ZN88_$LT$alloc..collections..btree..map..UnorderedKeyError$u20$as$u20$core..fmt..Display$GT$3fmt17hd156fab08b5984c2E', symObjAddr: 0xCAC, symBinAddr: 0x10008A260, symSize: 0x24 }
  - { offset: 0x107942, size: 0x8, addend: 0x0, symName: '__ZN93_$LT$alloc..collections..btree..mem..replace..PanicGuard$u20$as$u20$core..ops..drop..Drop$GT$4drop17hd9245f00ec3723f9E', symObjAddr: 0xCD0, symBinAddr: 0x10008A284, symSize: 0xC }
  - { offset: 0x107965, size: 0x8, addend: 0x0, symName: '__ZN74_$LT$alloc..collections..TryReserveError$u20$as$u20$core..fmt..Display$GT$3fmt17h728f07ed85bfed22E', symObjAddr: 0xCDC, symBinAddr: 0x10008A290, symSize: 0x74 }
  - { offset: 0x1079E4, size: 0x8, addend: 0x0, symName: '__ZN67_$LT$alloc..boxed..Box$LT$str$GT$$u20$as$u20$core..clone..Clone$GT$5clone17hc575f0c658516a2cE', symObjAddr: 0x424, symBinAddr: 0x1000899D8, symSize: 0x80 }
  - { offset: 0x107AFE, size: 0x8, addend: 0x0, symName: '__ZN223_$LT$$LT$alloc..boxed..Box$LT$dyn$u20$core..error..Error$u2b$core..marker..Send$u2b$core..marker..Sync$GT$$u20$as$u20$core..convert..From$LT$alloc..string..String$GT$$GT$..from..StringError$u20$as$u20$core..error..Error$GT$11description17hc43c21224f03a43aE', symObjAddr: 0x4A4, symBinAddr: 0x100089A58, symSize: 0x18 }
  - { offset: 0x107BB9, size: 0x8, addend: 0x0, symName: '__ZN223_$LT$$LT$alloc..boxed..Box$LT$dyn$u20$core..error..Error$u2b$core..marker..Send$u2b$core..marker..Sync$GT$$u20$as$u20$core..convert..From$LT$alloc..string..String$GT$$GT$..from..StringError$u20$as$u20$core..fmt..Display$GT$3fmt17h8d04154494b47114E', symObjAddr: 0x4BC, symBinAddr: 0x100089A70, symSize: 0x1C }
  - { offset: 0x107BF0, size: 0x8, addend: 0x0, symName: '__ZN221_$LT$$LT$alloc..boxed..Box$LT$dyn$u20$core..error..Error$u2b$core..marker..Send$u2b$core..marker..Sync$GT$$u20$as$u20$core..convert..From$LT$alloc..string..String$GT$$GT$..from..StringError$u20$as$u20$core..fmt..Debug$GT$3fmt17h4f7a51c962ea880eE', symObjAddr: 0x4D8, symBinAddr: 0x100089A8C, symSize: 0x1C }
  - { offset: 0x107C65, size: 0x8, addend: 0x0, symName: '__ZN120_$LT$alloc..boxed..Box$LT$dyn$u20$core..error..Error$GT$$u20$as$u20$core..convert..From$LT$alloc..string..String$GT$$GT$4from17h8ed31ded0bc70da2E', symObjAddr: 0x4F4, symBinAddr: 0x100089AA8, symSize: 0x84 }
  - { offset: 0x107DD0, size: 0x8, addend: 0x0, symName: '__ZN106_$LT$alloc..boxed..Box$LT$dyn$u20$core..error..Error$GT$$u20$as$u20$core..convert..From$LT$$RF$str$GT$$GT$4from17h59e8c4713237c025E', symObjAddr: 0x578, symBinAddr: 0x100089B2C, symSize: 0xD8 }
  - { offset: 0x108089, size: 0x8, addend: 0x0, symName: '__ZN174_$LT$alloc..boxed..Box$LT$dyn$u20$core..error..Error$u2b$core..marker..Send$u2b$core..marker..Sync$GT$$u20$as$u20$core..convert..From$LT$alloc..borrow..Cow$LT$str$GT$$GT$$GT$4from17h365c6c2451e8218bE', symObjAddr: 0x650, symBinAddr: 0x100089C04, symSize: 0xEC }
  - { offset: 0x108342, size: 0x8, addend: 0x0, symName: '__ZN128_$LT$alloc..boxed..Box$LT$dyn$u20$core..error..Error$GT$$u20$as$u20$core..convert..From$LT$alloc..borrow..Cow$LT$str$GT$$GT$$GT$4from17ha65a262cda67cd0dE', symObjAddr: 0x73C, symBinAddr: 0x100089CF0, symSize: 0xEC }
  - { offset: 0x108A6B, size: 0x8, addend: 0x0, symName: '__ZN5alloc3vec16Vec$LT$T$C$A$GT$11swap_remove13assert_failed17ha8bacf0bd33759e6E', symObjAddr: 0x5068, symBinAddr: 0x1000ADDD8, symSize: 0x34 }
  - { offset: 0x108AA1, size: 0x8, addend: 0x0, symName: '__ZN5alloc3vec16Vec$LT$T$C$A$GT$6insert13assert_failed17hc4dbb912dbd499ceE', symObjAddr: 0x509C, symBinAddr: 0x1000ADE0C, symSize: 0x34 }
  - { offset: 0x108AD7, size: 0x8, addend: 0x0, symName: '__ZN5alloc3vec16Vec$LT$T$C$A$GT$6remove13assert_failed17hb2517dbee879e060E', symObjAddr: 0x50D0, symBinAddr: 0x1000ADE40, symSize: 0x34 }
  - { offset: 0x108B0D, size: 0x8, addend: 0x0, symName: '__ZN5alloc3vec16Vec$LT$T$C$A$GT$9split_off13assert_failed17h8702778ae0f3698bE', symObjAddr: 0x5104, symBinAddr: 0x1000ADE74, symSize: 0x34 }
  - { offset: 0x108B58, size: 0x8, addend: 0x0, symName: '__ZN80_$LT$alloc..vec..Vec$LT$u8$GT$$u20$as$u20$core..convert..From$LT$$RF$str$GT$$GT$4from17hf754f13c4fb6611aE', symObjAddr: 0x5138, symBinAddr: 0x10008E61C, symSize: 0x90 }
  - { offset: 0x108D46, size: 0x8, addend: 0x0, symName: __ZN5alloc6string6String15from_utf8_lossy17hb6a66e2937a0fa0eE, symObjAddr: 0x2ED4, symBinAddr: 0x10008C488, symSize: 0x228 }
  - { offset: 0x1092CC, size: 0x8, addend: 0x0, symName: __ZN5alloc6string6String21from_utf8_lossy_owned17h6a20262cdc645974E, symObjAddr: 0x30FC, symBinAddr: 0x10008C6B0, symSize: 0xB8 }
  - { offset: 0x1094BE, size: 0x8, addend: 0x0, symName: __ZN5alloc6string6String10from_utf1617he8fe441f54626db4E, symObjAddr: 0x31B4, symBinAddr: 0x10008C768, symSize: 0x280 }
  - { offset: 0x1099EA, size: 0x8, addend: 0x0, symName: __ZN5alloc6string6String12from_utf16le17h665c2a127a81c533E, symObjAddr: 0x3434, symBinAddr: 0x10008C9E8, symSize: 0x3E0 }
  - { offset: 0x109EE5, size: 0x8, addend: 0x0, symName: __ZN5alloc6string6String18from_utf16le_lossy17hfdacc83bd8987720E, symObjAddr: 0x3814, symBinAddr: 0x10008CDC8, symSize: 0x414 }
  - { offset: 0x10A94B, size: 0x8, addend: 0x0, symName: __ZN5alloc6string6String12from_utf16be17hb75fef09e4841f7dE, symObjAddr: 0x3C28, symBinAddr: 0x10008D1DC, symSize: 0x3B8 }
  - { offset: 0x10ADDF, size: 0x8, addend: 0x0, symName: __ZN5alloc6string6String18from_utf16be_lossy17h93c4452e2b729505E, symObjAddr: 0x3FE0, symBinAddr: 0x10008D594, symSize: 0x35C }
  - { offset: 0x10B4D4, size: 0x8, addend: 0x0, symName: __ZN5alloc6string6String14into_raw_parts17hcd6c0aa6664ee57fE, symObjAddr: 0x433C, symBinAddr: 0x10008D8F0, symSize: 0x20 }
  - { offset: 0x10B505, size: 0x8, addend: 0x0, symName: __ZN5alloc6string6String11try_reserve17hb819b54b03d63790E, symObjAddr: 0x435C, symBinAddr: 0x10008D910, symSize: 0xC4 }
  - { offset: 0x10B685, size: 0x8, addend: 0x0, symName: __ZN5alloc6string6String17try_reserve_exact17h2ad5c6ad3e68883cE, symObjAddr: 0x4420, symBinAddr: 0x10008D9D4, symSize: 0xAC }
  - { offset: 0x10B791, size: 0x8, addend: 0x0, symName: __ZN5alloc6string6String12insert_bytes17h144788751b492e0bE, symObjAddr: 0x44CC, symBinAddr: 0x10008DA80, symSize: 0x94 }
  - { offset: 0x10B9C8, size: 0x8, addend: 0x0, symName: '__ZN98_$LT$alloc..string..String$u20$as$u20$core..convert..From$LT$alloc..borrow..Cow$LT$str$GT$$GT$$GT$4from17h3362f50b98fe1e8cE', symObjAddr: 0x4C4C, symBinAddr: 0x10008E200, symSize: 0xB4 }
  - { offset: 0x10BB76, size: 0x8, addend: 0x0, symName: '__ZN95_$LT$alloc..string..String$u20$as$u20$core..iter..traits..collect..FromIterator$LT$char$GT$$GT$9from_iter17h16a9bb20b6fc61ecE', symObjAddr: 0x48B8, symBinAddr: 0x10008DE6C, symSize: 0x2DC }
  - { offset: 0x10C13D, size: 0x8, addend: 0x0, symName: __ZN5alloc6string13FromUtf8Error8as_bytes17h965b2218ece9a7d6E, symObjAddr: 0x4560, symBinAddr: 0x10008DB14, symSize: 0x18 }
  - { offset: 0x10C158, size: 0x8, addend: 0x0, symName: __ZN5alloc6string13FromUtf8Error15into_utf8_lossy17hff24a50faab43f5fE, symObjAddr: 0x4578, symBinAddr: 0x10008DB2C, symSize: 0x200 }
  - { offset: 0x10C801, size: 0x8, addend: 0x0, symName: '__ZN67_$LT$alloc..string..FromUtf8Error$u20$as$u20$core..fmt..Display$GT$3fmt17h11d6ca99829f9b41E', symObjAddr: 0x4778, symBinAddr: 0x10008DD2C, symSize: 0x14 }
  - { offset: 0x10C822, size: 0x8, addend: 0x0, symName: '__ZN68_$LT$alloc..string..FromUtf16Error$u20$as$u20$core..fmt..Display$GT$3fmt17h02c5e0f4af44d644E', symObjAddr: 0x478C, symBinAddr: 0x10008DD40, symSize: 0x20 }
  - { offset: 0x10C843, size: 0x8, addend: 0x0, symName: '__ZN60_$LT$alloc..string..String$u20$as$u20$core..clone..Clone$GT$5clone17hb95962ed94d46547E', symObjAddr: 0x47AC, symBinAddr: 0x10008DD60, symSize: 0x90 }
  - { offset: 0x10C97D, size: 0x8, addend: 0x0, symName: '__ZN60_$LT$alloc..string..String$u20$as$u20$core..clone..Clone$GT$10clone_from17hb1eba086b96c08b8E', symObjAddr: 0x483C, symBinAddr: 0x10008DDF0, symSize: 0x7C }
  - { offset: 0x10CAE4, size: 0x8, addend: 0x0, symName: '__ZN73_$LT$$RF$alloc..string..String$u20$as$u20$core..str..pattern..Pattern$GT$13into_searcher17ha8862925e6e71b15E', symObjAddr: 0x4B94, symBinAddr: 0x10008E148, symSize: 0x20 }
  - { offset: 0x10CB1B, size: 0x8, addend: 0x0, symName: '__ZN5alloc6string107_$LT$impl$u20$core..convert..From$LT$alloc..string..String$GT$$u20$for$u20$alloc..boxed..Box$LT$str$GT$$GT$4from17hb09ca83b245a45e0E', symObjAddr: 0x4BB4, symBinAddr: 0x10008E168, symSize: 0x98 }
  - { offset: 0x10CC95, size: 0x8, addend: 0x0, symName: '__ZN58_$LT$alloc..string..String$u20$as$u20$core..fmt..Write$GT$9write_str17h0e58f50c5cceb6ccE', symObjAddr: 0x4D00, symBinAddr: 0x10008E2B4, symSize: 0x78 }
  - { offset: 0x10CDE8, size: 0x8, addend: 0x0, symName: '__ZN58_$LT$alloc..string..String$u20$as$u20$core..fmt..Write$GT$10write_char17hd93e9ff1698e117fE', symObjAddr: 0x4D78, symBinAddr: 0x10008E32C, symSize: 0x13C }
  - { offset: 0x10D061, size: 0x8, addend: 0x0, symName: __ZN5alloc6string5Drain6as_str17hfd5ba675729c09a7E, symObjAddr: 0x4F90, symBinAddr: 0x10008E544, symSize: 0x1C }
  - { offset: 0x10D0E6, size: 0x8, addend: 0x0, symName: '__ZN57_$LT$alloc..string..Drain$u20$as$u20$core..fmt..Debug$GT$3fmt17h27cfcd2c53f5dc19E', symObjAddr: 0x4EB4, symBinAddr: 0x10008E468, symSize: 0x64 }
  - { offset: 0x10D188, size: 0x8, addend: 0x0, symName: '__ZN62_$LT$alloc..string..Drain$u20$as$u20$core..ops..drop..Drop$GT$4drop17h35dfa602296dd454E', symObjAddr: 0x4F18, symBinAddr: 0x10008E4CC, symSize: 0x78 }
  - { offset: 0x10D2E9, size: 0x8, addend: 0x0, symName: '__ZN72_$LT$alloc..string..Drain$u20$as$u20$core..convert..AsRef$LT$str$GT$$GT$6as_ref17ha781e5a4d5a8b2e6E', symObjAddr: 0x4FAC, symBinAddr: 0x10008E560, symSize: 0x1C }
  - { offset: 0x10D38B, size: 0x8, addend: 0x0, symName: '__ZN79_$LT$alloc..string..Drain$u20$as$u20$core..iter..traits..iterator..Iterator$GT$9size_hint17hcf870634aead5977E', symObjAddr: 0x4FC8, symBinAddr: 0x10008E57C, symSize: 0x2C }
  - { offset: 0x10D5E6, size: 0x8, addend: 0x0, symName: '__ZN5alloc3str21_$LT$impl$u20$str$GT$12to_lowercase17h323e575193191549E', symObjAddr: 0x19F0, symBinAddr: 0x10008AFA4, symSize: 0xB94 }
  - { offset: 0x10EA57, size: 0x8, addend: 0x0, symName: '__ZN5alloc3str21_$LT$impl$u20$str$GT$12to_uppercase17h1a5a34c07755b201E', symObjAddr: 0x2584, symBinAddr: 0x10008BB38, symSize: 0x7D4 }
  - { offset: 0x10FAE1, size: 0x8, addend: 0x0, symName: '__ZN5alloc3str21_$LT$impl$u20$str$GT$6repeat17h781b0c9e75b1df9eE', symObjAddr: 0x2D58, symBinAddr: 0x10008C30C, symSize: 0x17C }
  - { offset: 0x10FDD3, size: 0x8, addend: 0x0, symName: '__ZN92_$LT$alloc..borrow..Cow$LT$str$GT$$u20$as$u20$core..ops..arith..AddAssign$LT$$RF$str$GT$$GT$10add_assign17h0f88a115195c284aE', symObjAddr: 0x828, symBinAddr: 0x100089DDC, symSize: 0x1F8 }
  - { offset: 0x110322, size: 0x8, addend: 0x0, symName: '__ZN77_$LT$alloc..borrow..Cow$LT$str$GT$$u20$as$u20$core..ops..arith..AddAssign$GT$10add_assign17h1b1f174471f8dd5dE', symObjAddr: 0xA20, symBinAddr: 0x100089FD4, symSize: 0x28C }
  - { offset: 0x110A94, size: 0x8, addend: 0x0, symName: __ZN5alloc3ffi5c_str19FromVecWithNulError8as_bytes17he9698f11b479dc85E, symObjAddr: 0xD50, symBinAddr: 0x10008A304, symSize: 0x18 }
  - { offset: 0x110ACC, size: 0x8, addend: 0x0, symName: '__ZN72_$LT$$RF$str$u20$as$u20$alloc..ffi..c_str..CString..new..SpecNewImpl$GT$13spec_new_impl17h37c9772315c87d63E', symObjAddr: 0xD68, symBinAddr: 0x10008A31C, symSize: 0x114 }
  - { offset: 0x110CF5, size: 0x8, addend: 0x0, symName: '__ZN89_$LT$$RF$mut$u20$$u5b$u8$u5d$$u20$as$u20$alloc..ffi..c_str..CString..new..SpecNewImpl$GT$13spec_new_impl17h0e205d29520e586fE', symObjAddr: 0xE7C, symBinAddr: 0x10008A430, symSize: 0x114 }
  - { offset: 0x110F34, size: 0x8, addend: 0x0, symName: __ZN5alloc3ffi5c_str7CString18from_vec_unchecked17hb36965a562a614b6E, symObjAddr: 0xF90, symBinAddr: 0x10008A544, symSize: 0x30 }
  - { offset: 0x110F4F, size: 0x8, addend: 0x0, symName: __ZN5alloc3ffi5c_str7CString19_from_vec_unchecked17ha473a1a6d71e3811E, symObjAddr: 0xFC0, symBinAddr: 0x10008A574, symSize: 0x138 }
  - { offset: 0x11127F, size: 0x8, addend: 0x0, symName: __ZN5alloc3ffi5c_str7CString8from_raw17h73df40c3301bc544E, symObjAddr: 0x10F8, symBinAddr: 0x10008A6AC, symSize: 0x28 }
  - { offset: 0x1112A8, size: 0x8, addend: 0x0, symName: __ZN5alloc3ffi5c_str7CString11into_string17h91cab1d5fecbd6aeE, symObjAddr: 0x1120, symBinAddr: 0x10008A6D4, symSize: 0xF8 }
  - { offset: 0x1113C0, size: 0x8, addend: 0x0, symName: __ZN5alloc3ffi5c_str7CString10into_bytes17hb94a14545a04e1bcE, symObjAddr: 0x1218, symBinAddr: 0x10008A7CC, symSize: 0x20 }
  - { offset: 0x1113EA, size: 0x8, addend: 0x0, symName: __ZN5alloc3ffi5c_str7CString19into_bytes_with_nul17hbe851104b5dd6460E, symObjAddr: 0x1238, symBinAddr: 0x10008A7EC, symSize: 0x18 }
  - { offset: 0x11143E, size: 0x8, addend: 0x0, symName: __ZN5alloc3ffi5c_str7CString27from_vec_with_nul_unchecked17hd19c1f93485877fdE, symObjAddr: 0x1250, symBinAddr: 0x10008A804, symSize: 0x98 }
  - { offset: 0x1115B2, size: 0x8, addend: 0x0, symName: __ZN5alloc3ffi5c_str7CString17from_vec_with_nul17h699462252b6395fbE, symObjAddr: 0x12E8, symBinAddr: 0x10008A89C, symSize: 0x130 }
  - { offset: 0x1117DD, size: 0x8, addend: 0x0, symName: '__ZN63_$LT$alloc..ffi..c_str..CString$u20$as$u20$core..fmt..Debug$GT$3fmt17h4ce6e4088f7e656cE', symObjAddr: 0x1418, symBinAddr: 0x10008A9CC, symSize: 0x1C }
  - { offset: 0x111838, size: 0x8, addend: 0x0, symName: '__ZN5alloc3ffi5c_str75_$LT$impl$u20$alloc..borrow..ToOwned$u20$for$u20$core..ffi..c_str..CStr$GT$10clone_into17h0d22677b1bb88d88E', symObjAddr: 0x161C, symBinAddr: 0x10008ABD0, symSize: 0x114 }
  - { offset: 0x111B6B, size: 0x8, addend: 0x0, symName: '__ZN69_$LT$alloc..ffi..c_str..CString$u20$as$u20$core..default..Default$GT$7default17hd1a77f0c94a22d81E', symObjAddr: 0x1434, symBinAddr: 0x10008A9E8, symSize: 0x40 }
  - { offset: 0x111C5E, size: 0x8, addend: 0x0, symName: '__ZN5alloc3ffi5c_str131_$LT$impl$u20$core..convert..From$LT$$RF$core..ffi..c_str..CStr$GT$$u20$for$u20$alloc..boxed..Box$LT$core..ffi..c_str..CStr$GT$$GT$4from17h921772b7e7194e80E', symObjAddr: 0x1474, symBinAddr: 0x10008AA28, symSize: 0x80 }
  - { offset: 0x111D60, size: 0x8, addend: 0x0, symName: '__ZN5alloc3ffi5c_str100_$LT$impl$u20$core..default..Default$u20$for$u20$alloc..boxed..Box$LT$core..ffi..c_str..CStr$GT$$GT$7default17h041044665bad87fdE', symObjAddr: 0x14F4, symBinAddr: 0x10008AAA8, symSize: 0x40 }
  - { offset: 0x111E00, size: 0x8, addend: 0x0, symName: '__ZN66_$LT$alloc..ffi..c_str..NulError$u20$as$u20$core..fmt..Display$GT$3fmt17h243b9ac62b1d0462E', symObjAddr: 0x1534, symBinAddr: 0x10008AAE8, symSize: 0x50 }
  - { offset: 0x111E8B, size: 0x8, addend: 0x0, symName: '__ZN77_$LT$alloc..ffi..c_str..FromVecWithNulError$u20$as$u20$core..fmt..Display$GT$3fmt17hcd6494b9417fe454E', symObjAddr: 0x1584, symBinAddr: 0x10008AB38, symSize: 0x78 }
  - { offset: 0x111EEC, size: 0x8, addend: 0x0, symName: '__ZN73_$LT$alloc..ffi..c_str..IntoStringError$u20$as$u20$core..fmt..Display$GT$3fmt17h18345458c702cf8cE', symObjAddr: 0x15FC, symBinAddr: 0x10008ABB0, symSize: 0x20 }
  - { offset: 0x111F0D, size: 0x8, addend: 0x0, symName: '__ZN100_$LT$alloc..ffi..c_str..CString$u20$as$u20$core..convert..From$LT$$RF$core..ffi..c_str..CStr$GT$$GT$4from17hf8564ab40c5c4f06E', symObjAddr: 0x1730, symBinAddr: 0x10008ACE4, symSize: 0x80 }
  - { offset: 0x112032, size: 0x8, addend: 0x0, symName: __ZN5alloc3fmt6format12format_inner17h65f007f2dcc18b39E, symObjAddr: 0x17D4, symBinAddr: 0x10008AD88, symSize: 0x1A8 }
  - { offset: 0x11227B, size: 0x8, addend: 0x0, symName: __ZN5alloc2rc29rcbox_layout_for_value_layout17h9062364011480a01E, symObjAddr: 0x197C, symBinAddr: 0x10008AF30, symSize: 0x74 }
  - { offset: 0x112347, size: 0x8, addend: 0x0, symName: __ZN5alloc4sync32arcinner_layout_for_value_layout17hc2e63e5c4e3c6fa7E, symObjAddr: 0x4FF4, symBinAddr: 0x10008E5A8, symSize: 0x74 }
  - { offset: 0x11240F, size: 0x8, addend: 0x0, symName: _OUTLINED_FUNCTION_0, symObjAddr: 0x51C8, symBinAddr: 0x10008E6AC, symSize: 0x24 }
  - { offset: 0x112445, size: 0x8, addend: 0x0, symName: __ZN4core3num7dec2flt7decimal7Decimal5round17h39bbb98f9235df67E, symObjAddr: 0x0, symBinAddr: 0x10008E6D0, symSize: 0xC4 }
  - { offset: 0x11315F, size: 0x8, addend: 0x0, symName: __ZN4core3num7dec2flt7decimal7Decimal5round17h39bbb98f9235df67E, symObjAddr: 0x0, symBinAddr: 0x10008E6D0, symSize: 0xC4 }
  - { offset: 0x1131AB, size: 0x8, addend: 0x0, symName: __ZN4core3num7dec2flt7decimal7Decimal10left_shift17h0bd27f16f3e74cf7E, symObjAddr: 0xC4, symBinAddr: 0x10008E794, symSize: 0x210 }
  - { offset: 0x11324F, size: 0x8, addend: 0x0, symName: __ZN4core3num7dec2flt7decimal7Decimal11right_shift17h8d35c1572ddd8c18E, symObjAddr: 0x2D4, symBinAddr: 0x10008E9A4, symSize: 0x1C0 }
  - { offset: 0x1132E1, size: 0x8, addend: 0x0, symName: __ZN4core3num7dec2flt7decimal13parse_decimal17hbe4aa653484e762cE, symObjAddr: 0x494, symBinAddr: 0x10008EB64, symSize: 0x384 }
