---
triple:          'arm64-apple-darwin'
binary-path:     '/Users/teddy/code/zero_to_production/newsletter_server/target/debug/deps/libicu_provider_macros-79b28c2b10e0edf9.dylib'
relocations:
  - { offset: 0x1E, size: 0x8, addend: 0x0, symName: __RINvMs3_NtNtCsjLJ1XWNSM6u_10proc_macro6bridge6bufferNtB6_6Buffer17extend_from_arrayKj4_ECs5PAMpfHI6O6_19icu_provider_macros, symObjAddr: 0x0, symBinAddr: 0x3858, symSize: 0x210 }
  - { offset: 0x27D, size: 0x8, addend: 0x0, symName: __RNCNvXs1_NtNtNtCs27l1GJC5rMQ_3std2io5error14repr_bitpackedNtB7_4ReprNtNtNtCs9f3LFPSIp77_4core3ops4drop4Drop4drop0Cs5PAMpfHI6O6_19icu_provider_macros, symObjAddr: 0xA68, symBinAddr: 0x42C0, symSize: 0x34 }
  - { offset: 0x332, size: 0x8, addend: 0x0, symName: __RNvXs1_NtNtNtCs27l1GJC5rMQ_3std2io5error14repr_bitpackedNtB5_4ReprNtNtNtCs9f3LFPSIp77_4core3ops4drop4Drop4dropCs5PAMpfHI6O6_19icu_provider_macros, symObjAddr: 0x2B00, symBinAddr: 0x6358, symSize: 0x38 }
  - { offset: 0x35B, size: 0x8, addend: 0x0, symName: __RINvNtNtNtCs27l1GJC5rMQ_3std2io5error14repr_bitpacked11decode_reprINtNtCsdze8u8oDPro_5alloc5boxed3BoxNtB4_6CustomENCNvXs1_B2_NtB2_4ReprNtNtNtCs9f3LFPSIp77_4core3ops4drop4Drop4drop0ECs5PAMpfHI6O6_19icu_provider_macros, symObjAddr: 0x420, symBinAddr: 0x3C78, symSize: 0x234 }
  - { offset: 0x624, size: 0x8, addend: 0x0, symName: __RNvNtNtNtCs27l1GJC5rMQ_3std2io5error14repr_bitpacked14kind_from_primCs5PAMpfHI6O6_19icu_provider_macros, symObjAddr: 0x216C, symBinAddr: 0x59C4, symSize: 0x608 }
  - { offset: 0xF0E, size: 0x8, addend: 0x0, symName: __RINvNvNtCs27l1GJC5rMQ_3std9panicking3try7do_callINtNtNtCs9f3LFPSIp77_4core5panic11unwind_safe16AssertUnwindSafeNCINvNtNtCsjLJ1XWNSM6u_10proc_macro6bridge6client10run_clientTNtB1Q_11TokenStreamB2L_EINtNtBR_6option6OptionB2L_ENCNCINvMs8_B1Q_INtB1Q_6ClientTNtB1U_11TokenStreamB44_EB44_E7expand2NvCs5PAMpfHI6O6_19icu_provider_macros11data_structE00E0EuEB4H_, symObjAddr: 0x780, symBinAddr: 0x3FD8, symSize: 0x58 }
  - { offset: 0xFDF, size: 0x8, addend: 0x0, symName: __RINvNvNtCs27l1GJC5rMQ_3std9panicking3try8do_catchINtNtNtCs9f3LFPSIp77_4core5panic11unwind_safe16AssertUnwindSafeNCINvNtNtCsjLJ1XWNSM6u_10proc_macro6bridge6client10run_clientTNtB1R_11TokenStreamB2M_EINtNtBS_6option6OptionB2M_ENCNCINvMs8_B1R_INtB1R_6ClientTNtB1V_11TokenStreamB45_EB45_E7expand2NvCs5PAMpfHI6O6_19icu_provider_macros11data_structE00E0EuEB4I_, symObjAddr: 0x7D8, symBinAddr: 0x4030, symSize: 0x70 }
  - { offset: 0x10C7, size: 0x8, addend: 0x0, symName: ___rustc_proc_macro_decls_43ee3edbd5628dec__, symObjAddr: 0x92F0, symBinAddr: 0x394470, symSize: 0x0 }
  - { offset: 0x11F0, size: 0x8, addend: 0x0, symName: __RNvCs5PAMpfHI6O6_19icu_provider_macros11data_struct, symObjAddr: 0x393C, symBinAddr: 0x7194, symSize: 0x2D8 }
  - { offset: 0x1279, size: 0x8, addend: 0x0, symName: __RNvXCs5PAMpfHI6O6_19icu_provider_macrosNtB2_14DataStructArgsNtNtCsATtFUPiRFW_3syn5parse5Parse5parse, symObjAddr: 0x3C14, symBinAddr: 0x746C, symSize: 0xE8 }
  - { offset: 0x12E7, size: 0x8, addend: 0x0, symName: __RNvXs0_Cs5PAMpfHI6O6_19icu_provider_macrosNtB5_13DataStructArgNtNtCsATtFUPiRFW_3syn5parse5Parse5parse, symObjAddr: 0x3D74, symBinAddr: 0x75CC, symSize: 0x1244 }
  - { offset: 0x1704, size: 0x8, addend: 0x0, symName: __RINvNvXs0_Cs5PAMpfHI6O6_19icu_provider_macrosNtB8_13DataStructArgNtNtCsATtFUPiRFW_3syn5parse5Parse5parse18at_most_one_optionNtNtB15_3lit6LitStrEB8_, symObjAddr: 0x4FB8, symBinAddr: 0x8810, symSize: 0x170 }
  - { offset: 0x17E3, size: 0x8, addend: 0x0, symName: __RINvNvXs0_Cs5PAMpfHI6O6_19icu_provider_macrosNtB8_13DataStructArgNtNtCsATtFUPiRFW_3syn5parse5Parse5parse18at_most_one_optionNtNtB15_4path4PathEB8_, symObjAddr: 0x5128, symBinAddr: 0x8980, symSize: 0x174 }
  - { offset: 0x18C9, size: 0x8, addend: 0x0, symName: __RNvXs1_Cs5PAMpfHI6O6_19icu_provider_macrosNtB5_19DataStructMarkerArgNtNtCsATtFUPiRFW_3syn5parse5Parse5parse, symObjAddr: 0x529C, symBinAddr: 0x8AF4, symSize: 0x60C }
  - { offset: 0x1A07, size: 0x8, addend: 0x0, symName: __RNCNvXs1_Cs5PAMpfHI6O6_19icu_provider_macrosNtB7_19DataStructMarkerArgNtNtCsATtFUPiRFW_3syn5parse5Parse5parse0B7_, symObjAddr: 0x58A8, symBinAddr: 0x9100, symSize: 0x50 }
  - { offset: 0x1A39, size: 0x8, addend: 0x0, symName: __RNvCs5PAMpfHI6O6_19icu_provider_macros16data_struct_impl, symObjAddr: 0x58F8, symBinAddr: 0x9150, symSize: 0x20AC }
  - { offset: 0x2129, size: 0x8, addend: 0x0, symName: __RNCNvCs5PAMpfHI6O6_19icu_provider_macros16data_struct_impl0B3_, symObjAddr: 0x79A4, symBinAddr: 0xB1FC, symSize: 0x50 }
  - { offset: 0x2162, size: 0x8, addend: 0x0, symName: __RNCNvCs5PAMpfHI6O6_19icu_provider_macros16data_struct_impls_0B3_, symObjAddr: 0x79F4, symBinAddr: 0xB24C, symSize: 0x1AC }
  - { offset: 0x21DF, size: 0x8, addend: 0x0, symName: __RNCNvCs5PAMpfHI6O6_19icu_provider_macros16data_struct_impls0_0B3_, symObjAddr: 0x7BA0, symBinAddr: 0xB3F8, symSize: 0x2C }
  - { offset: 0x2445, size: 0x8, addend: 0x0, symName: __RINvNtNtNtCsjLJ1XWNSM6u_10proc_macro6bridge6client5state3setINtNtCs9f3LFPSIp77_4core6option6OptionNtB4_11TokenStreamENCNCINvB4_10run_clientTB1y_B1y_EBW_NCNCINvMs8_B4_INtB4_6ClientTNtB8_11TokenStreamB2S_EB2S_E7expand2NvCs5PAMpfHI6O6_19icu_provider_macros11data_structE00E00EB3u_, symObjAddr: 0x654, symBinAddr: 0x3EAC, symSize: 0x12C }
  - { offset: 0x2543, size: 0x8, addend: 0x0, symName: __RNCNkNvNtNtNtCsjLJ1XWNSM6u_10proc_macro6bridge6client5state12BRIDGE_STATE0s_0Cs5PAMpfHI6O6_19icu_provider_macros, symObjAddr: 0xA34, symBinAddr: 0x428C, symSize: 0x34 }
  - { offset: 0x28C6, size: 0x8, addend: 0x0, symName: __RNvXs5_NtNtCsjLJ1XWNSM6u_10proc_macro6bridge6bufferNtB5_6BufferNtNtNtCs9f3LFPSIp77_4core3ops4drop4Drop4dropCs5PAMpfHI6O6_19icu_provider_macros, symObjAddr: 0x2B38, symBinAddr: 0x6390, symSize: 0x138 }
  - { offset: 0x3089, size: 0x8, addend: 0x0, symName: __RNvXsV_NtCsjLJ1XWNSM6u_10proc_macro6bridgeINtNtCs9f3LFPSIp77_4core6result6ResultINtNtBJ_6option6OptionNtNtB5_6client11TokenStreamEuEINtNtB5_3rpc6EncodeuE6encodeCs5PAMpfHI6O6_19icu_provider_macros, symObjAddr: 0x2FC0, symBinAddr: 0x6818, symSize: 0x108 }
  - { offset: 0x314A, size: 0x8, addend: 0x0, symName: __RNvXsV_NtCsjLJ1XWNSM6u_10proc_macro6bridgeINtNtCs9f3LFPSIp77_4core6result6ResultuNtNtB5_3rpc12PanicMessageEINtB1j_6EncodeuE6encodeCs5PAMpfHI6O6_19icu_provider_macros, symObjAddr: 0x30C8, symBinAddr: 0x6920, symSize: 0x12C }
  - { offset: 0x6094, size: 0x8, addend: 0x0, symName: __RNvNvMs1_NtNtCs9f3LFPSIp77_4core3ptr8non_nullINtB7_7NonNullpE13new_unchecked18precondition_checkCs5PAMpfHI6O6_19icu_provider_macros, symObjAddr: 0x2774, symBinAddr: 0x5FCC, symSize: 0x40 }
  - { offset: 0x6E77, size: 0x8, addend: 0x0, symName: __RNvNtCs9f3LFPSIp77_4core10intrinsics8unlikelyCs5PAMpfHI6O6_19icu_provider_macros, symObjAddr: 0x215C, symBinAddr: 0x59B4, symSize: 0x10 }
  - { offset: 0x6EAA, size: 0x8, addend: 0x0, symName: __RNvNvNtCs9f3LFPSIp77_4core10intrinsics19copy_nonoverlapping18precondition_checkCs5PAMpfHI6O6_19icu_provider_macros, symObjAddr: 0x27B4, symBinAddr: 0x600C, symSize: 0x1EC }
  - { offset: 0x7181, size: 0x8, addend: 0x0, symName: __RINvXs2U_NtNtCs9f3LFPSIp77_4core5slice4iterINtB7_4IterNtNtCsATtFUPiRFW_3syn4attr9AttributeENtNtNtNtBb_4iter6traits8iterator8Iterator4findNCNvCs5PAMpfHI6O6_19icu_provider_macros16data_struct_impl0EB2f_, symObjAddr: 0x848, symBinAddr: 0x40A0, symSize: 0xB0 }
  - { offset: 0x733D, size: 0x8, addend: 0x0, symName: __RNvNvNtCs9f3LFPSIp77_4core4hint21unreachable_unchecked18precondition_checkCs5PAMpfHI6O6_19icu_provider_macros, symObjAddr: 0x29A0, symBinAddr: 0x61F8, symSize: 0x1C }
  - { offset: 0x739D, size: 0x8, addend: 0x0, symName: __RNCINvNvNtNtNtNtCs9f3LFPSIp77_4core4iter6traits8iterator8Iterator8for_each4callNtCs475r2uZUTuc_11proc_macro29TokenTreeNCINvXsa_NtB1h_8fallbackNtB21_11TokenStreamINtNtBa_7collect6ExtendB1f_E6extendNtB1h_11TokenStreamE0E0Cs5PAMpfHI6O6_19icu_provider_macros, symObjAddr: 0x8F8, symBinAddr: 0x4150, symSize: 0x3C }
  - { offset: 0x73F6, size: 0x8, addend: 0x0, symName: __RNCINvNvNtNtNtNtCs9f3LFPSIp77_4core4iter6traits8iterator8Iterator8for_each4callNtCs5PAMpfHI6O6_19icu_provider_macros13DataStructArgNCINvMsi_NtCsdze8u8oDPro_5alloc3vecINtB2e_3VecB1f_E14extend_trustedINtNtBe_6option8IntoIterB1f_EE0E0B1h_, symObjAddr: 0x934, symBinAddr: 0x418C, symSize: 0x40 }
  - { offset: 0x744F, size: 0x8, addend: 0x0, symName: __RNCINvNvNtNtNtNtCs9f3LFPSIp77_4core4iter6traits8iterator8Iterator8for_each4callNtCs5PAMpfHI6O6_19icu_provider_macros13DataStructArgNCINvMsi_NtCsdze8u8oDPro_5alloc3vecINtB2e_3VecB1f_E14extend_trustedINtNtNtBc_8adapters3map3MapINtNtB2e_9into_iter8IntoIterTB1f_NtNtCsATtFUPiRFW_3syn5token5CommaEENCNvXs8_NtB4c_10punctuatedINtB4P_10PunctuatedB1f_B48_ENtNtBa_7collect12IntoIterator9into_iter0EE0E0B1h_, symObjAddr: 0x974, symBinAddr: 0x41CC, symSize: 0x40 }
  - { offset: 0x74A8, size: 0x8, addend: 0x0, symName: __RNCINvNvNtNtNtNtCs9f3LFPSIp77_4core4iter6traits8iterator8Iterator8for_each4callNtCs5PAMpfHI6O6_19icu_provider_macros19DataStructMarkerArgNCINvMsi_NtCsdze8u8oDPro_5alloc3vecINtB2k_3VecB1f_E14extend_trustedINtNtBe_6option8IntoIterB1f_EE0E0B1h_, symObjAddr: 0x9B4, symBinAddr: 0x420C, symSize: 0x40 }
  - { offset: 0x7501, size: 0x8, addend: 0x0, symName: __RNCINvNvNtNtNtNtCs9f3LFPSIp77_4core4iter6traits8iterator8Iterator8for_each4callNtCs5PAMpfHI6O6_19icu_provider_macros19DataStructMarkerArgNCINvMsi_NtCsdze8u8oDPro_5alloc3vecINtB2k_3VecB1f_E14extend_trustedINtNtNtBc_8adapters3map3MapINtNtB2k_9into_iter8IntoIterTB1f_NtNtCsATtFUPiRFW_3syn5token5CommaEENCNvXs8_NtB4i_10punctuatedINtB4V_10PunctuatedB1f_B4e_ENtNtBa_7collect12IntoIterator9into_iter0EE0E0B1h_, symObjAddr: 0x9F4, symBinAddr: 0x424C, symSize: 0x40 }
  - { offset: 0x78B4, size: 0x8, addend: 0x0, symName: __RNvXso_NtCs9f3LFPSIp77_4core6resultINtB5_6ResultINtNtCsATtFUPiRFW_3syn10punctuated10PunctuatedNtCs5PAMpfHI6O6_19icu_provider_macros13DataStructArgNtNtBP_5token5CommaENtNtBP_5error5ErrorENtNtNtB7_3ops9try_trait3Try6branchB1w_, symObjAddr: 0x3358, symBinAddr: 0x6BB0, symSize: 0xA0 }
  - { offset: 0x7931, size: 0x8, addend: 0x0, symName: __RNvXso_NtCs9f3LFPSIp77_4core6resultINtB5_6ResultINtNtCsATtFUPiRFW_3syn10punctuated10PunctuatedNtCs5PAMpfHI6O6_19icu_provider_macros19DataStructMarkerArgNtNtBP_5token5CommaENtNtBP_5error5ErrorENtNtNtB7_3ops9try_trait3Try6branchB1w_, symObjAddr: 0x33F8, symBinAddr: 0x6C50, symSize: 0xA0 }
  - { offset: 0x79AE, size: 0x8, addend: 0x0, symName: __RNvXso_NtCs9f3LFPSIp77_4core6resultINtB5_6ResultNtCs5PAMpfHI6O6_19icu_provider_macros13DataStructArgNtNtCsATtFUPiRFW_3syn5error5ErrorENtNtNtB7_3ops9try_trait3Try6branchBM_, symObjAddr: 0x3498, symBinAddr: 0x6CF0, symSize: 0xB0 }
  - { offset: 0x7A2B, size: 0x8, addend: 0x0, symName: __RNvXso_NtCs9f3LFPSIp77_4core6resultINtB5_6ResultNtCs5PAMpfHI6O6_19icu_provider_macros14DataStructArgsNtNtCsATtFUPiRFW_3syn5error5ErrorENtNtNtB7_3ops9try_trait3Try6branchBM_, symObjAddr: 0x3548, symBinAddr: 0x6DA0, symSize: 0xA0 }
  - { offset: 0x7AA8, size: 0x8, addend: 0x0, symName: __RNvXso_NtCs9f3LFPSIp77_4core6resultINtB5_6ResultNtCs5PAMpfHI6O6_19icu_provider_macros19DataStructMarkerArgNtNtCsATtFUPiRFW_3syn5error5ErrorENtNtNtB7_3ops9try_trait3Try6branchBM_, symObjAddr: 0x35E8, symBinAddr: 0x6E40, symSize: 0xB0 }
  - { offset: 0x7B25, size: 0x8, addend: 0x0, symName: __RNvXso_NtCs9f3LFPSIp77_4core6resultINtB5_6ResultNtNtCsATtFUPiRFW_3syn6derive11DeriveInputNtNtBO_5error5ErrorENtNtNtB7_3ops9try_trait3Try6branchCs5PAMpfHI6O6_19icu_provider_macros, symObjAddr: 0x3698, symBinAddr: 0x6EF0, symSize: 0xB4 }
  - { offset: 0x7BA3, size: 0x8, addend: 0x0, symName: __RNvXso_NtCs9f3LFPSIp77_4core6resultINtB5_6ResultRNtCs475r2uZUTuc_11proc_macro25IdentNtNtCsATtFUPiRFW_3syn5error5ErrorENtNtNtB7_3ops9try_trait3Try6branchCs5PAMpfHI6O6_19icu_provider_macros, symObjAddr: 0x374C, symBinAddr: 0x6FA4, symSize: 0x88 }
  - { offset: 0x7C27, size: 0x8, addend: 0x0, symName: __RNvXsp_NtCs9f3LFPSIp77_4core6resultINtB5_6ResultINtNtCsATtFUPiRFW_3syn10punctuated10PunctuatedNtCs5PAMpfHI6O6_19icu_provider_macros13DataStructArgNtNtBP_5token5CommaENtNtBP_5error5ErrorEINtNtNtB7_3ops9try_trait12FromResidualIBy_NtNtB7_7convert10InfallibleB2E_EE13from_residualB1w_, symObjAddr: 0x37D4, symBinAddr: 0x702C, symSize: 0x48 }
  - { offset: 0x7CAC, size: 0x8, addend: 0x0, symName: __RNvXsp_NtCs9f3LFPSIp77_4core6resultINtB5_6ResultINtNtCsATtFUPiRFW_3syn10punctuated10PunctuatedNtCs5PAMpfHI6O6_19icu_provider_macros19DataStructMarkerArgNtNtBP_5token5CommaENtNtBP_5error5ErrorEINtNtNtB7_3ops9try_trait12FromResidualIBy_NtNtB7_7convert10InfallibleB2K_EE13from_residualB1w_, symObjAddr: 0x381C, symBinAddr: 0x7074, symSize: 0x48 }
  - { offset: 0x7D31, size: 0x8, addend: 0x0, symName: __RNvXsp_NtCs9f3LFPSIp77_4core6resultINtB5_6ResultNtCs5PAMpfHI6O6_19icu_provider_macros13DataStructArgNtNtCsATtFUPiRFW_3syn5error5ErrorEINtNtNtB7_3ops9try_trait12FromResidualIBy_NtNtB7_7convert10InfallibleB1A_EE13from_residualBM_, symObjAddr: 0x3864, symBinAddr: 0x70BC, symSize: 0x48 }
  - { offset: 0x7DB6, size: 0x8, addend: 0x0, symName: __RNvXsp_NtCs9f3LFPSIp77_4core6resultINtB5_6ResultNtCs5PAMpfHI6O6_19icu_provider_macros14DataStructArgsNtNtCsATtFUPiRFW_3syn5error5ErrorEINtNtNtB7_3ops9try_trait12FromResidualIBy_NtNtB7_7convert10InfallibleB1B_EE13from_residualBM_, symObjAddr: 0x38AC, symBinAddr: 0x7104, symSize: 0x48 }
  - { offset: 0x7E3B, size: 0x8, addend: 0x0, symName: __RNvXsp_NtCs9f3LFPSIp77_4core6resultINtB5_6ResultNtCs5PAMpfHI6O6_19icu_provider_macros19DataStructMarkerArgNtNtCsATtFUPiRFW_3syn5error5ErrorEINtNtNtB7_3ops9try_trait12FromResidualIBy_NtNtB7_7convert10InfallibleB1G_EE13from_residualBM_, symObjAddr: 0x38F4, symBinAddr: 0x714C, symSize: 0x48 }
  - { offset: 0x82BA, size: 0x8, addend: 0x0, symName: __RNvNvNtCs9f3LFPSIp77_4core9ub_checks17is_nonoverlapping7runtimeCs5PAMpfHI6O6_19icu_provider_macros, symObjAddr: 0x29BC, symBinAddr: 0x6214, symSize: 0xE4 }
  - { offset: 0x84B2, size: 0x8, addend: 0x0, symName: __RNvXs_NtNtCs9f3LFPSIp77_4core3str6traitseNtNtB8_3cmp9PartialEq2eqCs5PAMpfHI6O6_19icu_provider_macros, symObjAddr: 0x31F4, symBinAddr: 0x6A4C, symSize: 0x64 }
  - { offset: 0x8E05, size: 0x8, addend: 0x0, symName: __RNvXs1_NtCs475r2uZUTuc_11proc_macro26markerNtB5_19ProcMacroAutoTraitsNtNtCs9f3LFPSIp77_4core5clone5Clone5cloneCs5PAMpfHI6O6_19icu_provider_macros, symObjAddr: 0x2AF0, symBinAddr: 0x6348, symSize: 0x10 }
  - { offset: 0xA4C9, size: 0x8, addend: 0x0, symName: __RNvXs1C_NtCsdze8u8oDPro_5alloc6stringeNtB6_8ToString9to_stringCs5PAMpfHI6O6_19icu_provider_macros, symObjAddr: 0x2AA0, symBinAddr: 0x62F8, symSize: 0x50 }
  - { offset: 0xA61E, size: 0x8, addend: 0x0, symName: __RNvXsj_NtCsdze8u8oDPro_5alloc6stringNtB5_6StringNtNtCs9f3LFPSIp77_4core3fmt7Display3fmtCs5PAMpfHI6O6_19icu_provider_macros, symObjAddr: 0x3258, symBinAddr: 0x6AB0, symSize: 0x98 }
  - { offset: 0xABDF, size: 0x8, addend: 0x0, symName: __RINvMs3_NtNtCsjLJ1XWNSM6u_10proc_macro6bridge6bufferNtB6_6Buffer17extend_from_arrayKj4_ECs5PAMpfHI6O6_19icu_provider_macros, symObjAddr: 0x0, symBinAddr: 0x3858, symSize: 0x210 }
  - { offset: 0xB251, size: 0x8, addend: 0x0, symName: __RINvMs3_NtNtCsjLJ1XWNSM6u_10proc_macro6bridge6bufferNtB6_6Buffer17extend_from_arrayKj8_ECs5PAMpfHI6O6_19icu_provider_macros, symObjAddr: 0x210, symBinAddr: 0x3A68, symSize: 0x210 }
  - { offset: 0xB94C, size: 0x8, addend: 0x0, symName: __RNCNvXs8_NtCsATtFUPiRFW_3syn10punctuatedINtB7_10PunctuatedNtCs5PAMpfHI6O6_19icu_provider_macros13DataStructArgNtNtB9_5token5CommaENtNtNtNtCs9f3LFPSIp77_4core4iter6traits7collect12IntoIterator9into_iter0BW_, symObjAddr: 0xA9C, symBinAddr: 0x42F4, symSize: 0x44 }
  - { offset: 0xB998, size: 0x8, addend: 0x0, symName: __RNCNvXs8_NtCsATtFUPiRFW_3syn10punctuatedINtB7_10PunctuatedNtCs5PAMpfHI6O6_19icu_provider_macros13DataStructArgNtNtB9_5token5CommaENtNtNtNtCs9f3LFPSIp77_4core4iter6traits7collect12IntoIterator9into_iters_0BW_, symObjAddr: 0xAE0, symBinAddr: 0x4338, symSize: 0x78 }
  - { offset: 0xB9E3, size: 0x8, addend: 0x0, symName: __RNCNvXs8_NtCsATtFUPiRFW_3syn10punctuatedINtB7_10PunctuatedNtCs5PAMpfHI6O6_19icu_provider_macros19DataStructMarkerArgNtNtB9_5token5CommaENtNtNtNtCs9f3LFPSIp77_4core4iter6traits7collect12IntoIterator9into_iter0BW_, symObjAddr: 0xB58, symBinAddr: 0x43B0, symSize: 0x44 }
  - { offset: 0xBA2F, size: 0x8, addend: 0x0, symName: __RNCNvXs8_NtCsATtFUPiRFW_3syn10punctuatedINtB7_10PunctuatedNtCs5PAMpfHI6O6_19icu_provider_macros19DataStructMarkerArgNtNtB9_5token5CommaENtNtNtNtCs9f3LFPSIp77_4core4iter6traits7collect12IntoIterator9into_iters_0BW_, symObjAddr: 0xB9C, symBinAddr: 0x43F4, symSize: 0x78 }
  - { offset: 0xBA97, size: 0x8, addend: 0x0, symName: __RNvXs8_NtCsATtFUPiRFW_3syn10punctuatedINtB5_10PunctuatedNtCs5PAMpfHI6O6_19icu_provider_macros13DataStructArgNtNtB7_5token5CommaENtNtNtNtCs9f3LFPSIp77_4core4iter6traits7collect12IntoIterator9into_iterBU_, symObjAddr: 0x2C70, symBinAddr: 0x64C8, symSize: 0x1A8 }
  - { offset: 0xBAEE, size: 0x8, addend: 0x0, symName: __RNvXs8_NtCsATtFUPiRFW_3syn10punctuatedINtB5_10PunctuatedNtCs5PAMpfHI6O6_19icu_provider_macros19DataStructMarkerArgNtNtB7_5token5CommaENtNtNtNtCs9f3LFPSIp77_4core4iter6traits7collect12IntoIterator9into_iterBU_, symObjAddr: 0x2E18, symBinAddr: 0x6670, symSize: 0x1A8 }
  - { offset: 0xC121, size: 0x8, addend: 0x0, symName: __RNvXsn_NtCsATtFUPiRFW_3syn10punctuatedINtB5_8IntoIterNtCs5PAMpfHI6O6_19icu_provider_macros13DataStructArgENtNtNtNtCs9f3LFPSIp77_4core4iter6traits8iterator8Iterator4nextBR_, symObjAddr: 0x32F0, symBinAddr: 0x6B48, symSize: 0x34 }
  - { offset: 0xC158, size: 0x8, addend: 0x0, symName: __RNvXsn_NtCsATtFUPiRFW_3syn10punctuatedINtB5_8IntoIterNtCs5PAMpfHI6O6_19icu_provider_macros19DataStructMarkerArgENtNtNtNtCs9f3LFPSIp77_4core4iter6traits8iterator8Iterator4nextBR_, symObjAddr: 0x3324, symBinAddr: 0x6B7C, symSize: 0x34 }
  - { offset: 0x10E42, size: 0x8, addend: 0x0, symName: __RNvMNtCs9f3LFPSIp77_4core6resultINtB2_6ResultPuNtNtNtCs27l1GJC5rMQ_3std6thread5local11AccessErrorE6expectCs5PAMpfHI6O6_19icu_provider_macros, symObjAddr: 0xC14, symBinAddr: 0x446C, symSize: 0x84 }
  - { offset: 0x11400, size: 0x8, addend: 0x0, symName: __RNvMNtCsATtFUPiRFW_3syn10punctuatedINtB2_10PunctuatedNtCs5PAMpfHI6O6_19icu_provider_macros13DataStructArgNtNtB4_5token5CommaE10push_punctBR_, symObjAddr: 0xC98, symBinAddr: 0x44F0, symSize: 0x1D8 }
  - { offset: 0x1147E, size: 0x8, addend: 0x0, symName: __RNvMNtCsATtFUPiRFW_3syn10punctuatedINtB2_10PunctuatedNtCs5PAMpfHI6O6_19icu_provider_macros13DataStructArgNtNtB4_5token5CommaE10push_valueBR_, symObjAddr: 0xE70, symBinAddr: 0x46C8, symSize: 0x1B4 }
  - { offset: 0x114EC, size: 0x8, addend: 0x0, symName: __RNvMNtCsATtFUPiRFW_3syn10punctuatedINtB2_10PunctuatedNtCs5PAMpfHI6O6_19icu_provider_macros13DataStructArgNtNtB4_5token5CommaE17empty_or_trailingBR_, symObjAddr: 0x1024, symBinAddr: 0x487C, symSize: 0x34 }
  - { offset: 0x1156C, size: 0x8, addend: 0x0, symName: __RNvMNtCsATtFUPiRFW_3syn10punctuatedINtB2_10PunctuatedNtCs5PAMpfHI6O6_19icu_provider_macros13DataStructArgNtNtB4_5token5CommaE21parse_terminated_withBR_, symObjAddr: 0x1058, symBinAddr: 0x48B0, symSize: 0x384 }
  - { offset: 0x1166F, size: 0x8, addend: 0x0, symName: __RNvMNtCsATtFUPiRFW_3syn10punctuatedINtB2_10PunctuatedNtCs5PAMpfHI6O6_19icu_provider_macros13DataStructArgNtNtB4_5token5CommaE3lenBR_, symObjAddr: 0x13DC, symBinAddr: 0x4C34, symSize: 0xA0 }
  - { offset: 0x116A3, size: 0x8, addend: 0x0, symName: __RNvMNtCsATtFUPiRFW_3syn10punctuatedINtB2_10PunctuatedNtCs5PAMpfHI6O6_19icu_provider_macros13DataStructArgNtNtB4_5token5CommaE3newBR_, symObjAddr: 0x147C, symBinAddr: 0x4CD4, symSize: 0x54 }
  - { offset: 0x1172C, size: 0x8, addend: 0x0, symName: __RNvMNtCsATtFUPiRFW_3syn10punctuatedINtB2_10PunctuatedNtCs5PAMpfHI6O6_19icu_provider_macros19DataStructMarkerArgNtNtB4_5token5CommaE10push_punctBR_, symObjAddr: 0x14D0, symBinAddr: 0x4D28, symSize: 0x1D8 }
  - { offset: 0x117AA, size: 0x8, addend: 0x0, symName: __RNvMNtCsATtFUPiRFW_3syn10punctuatedINtB2_10PunctuatedNtCs5PAMpfHI6O6_19icu_provider_macros19DataStructMarkerArgNtNtB4_5token5CommaE10push_valueBR_, symObjAddr: 0x16A8, symBinAddr: 0x4F00, symSize: 0x1AC }
  - { offset: 0x11818, size: 0x8, addend: 0x0, symName: __RNvMNtCsATtFUPiRFW_3syn10punctuatedINtB2_10PunctuatedNtCs5PAMpfHI6O6_19icu_provider_macros19DataStructMarkerArgNtNtB4_5token5CommaE17empty_or_trailingBR_, symObjAddr: 0x1854, symBinAddr: 0x50AC, symSize: 0x34 }
  - { offset: 0x11864, size: 0x8, addend: 0x0, symName: __RNvMNtCsATtFUPiRFW_3syn10punctuatedINtB2_10PunctuatedNtCs5PAMpfHI6O6_19icu_provider_macros19DataStructMarkerArgNtNtB4_5token5CommaE21parse_terminated_withBR_, symObjAddr: 0x1888, symBinAddr: 0x50E0, symSize: 0x370 }
  - { offset: 0x11967, size: 0x8, addend: 0x0, symName: __RNvMNtCsATtFUPiRFW_3syn10punctuatedINtB2_10PunctuatedNtCs5PAMpfHI6O6_19icu_provider_macros19DataStructMarkerArgNtNtB4_5token5CommaE3lenBR_, symObjAddr: 0x1BF8, symBinAddr: 0x5450, symSize: 0xA0 }
  - { offset: 0x1199B, size: 0x8, addend: 0x0, symName: __RNvMNtCsATtFUPiRFW_3syn10punctuatedINtB2_10PunctuatedNtCs5PAMpfHI6O6_19icu_provider_macros19DataStructMarkerArgNtNtB4_5token5CommaE3newBR_, symObjAddr: 0x1C98, symBinAddr: 0x54F0, symSize: 0x54 }
  - { offset: 0x11B0B, size: 0x8, addend: 0x0, symName: __RNvMNtCsdze8u8oDPro_5alloc6stringNtB2_6String6as_strCs5PAMpfHI6O6_19icu_provider_macros, symObjAddr: 0x1CEC, symBinAddr: 0x5544, symSize: 0x88 }
  - { offset: 0x11EC9, size: 0x8, addend: 0x0, symName: __RNvMs3_NtNtCsjLJ1XWNSM6u_10proc_macro6bridge6bufferNtB5_6Buffer17extend_from_sliceCs5PAMpfHI6O6_19icu_provider_macros, symObjAddr: 0x1D74, symBinAddr: 0x55CC, symSize: 0x208 }
  - { offset: 0x12533, size: 0x8, addend: 0x0, symName: __RNvMs3_NtNtCsjLJ1XWNSM6u_10proc_macro6bridge6bufferNtB5_6Buffer4pushCs5PAMpfHI6O6_19icu_provider_macros, symObjAddr: 0x1F7C, symBinAddr: 0x57D4, symSize: 0x1E0 }
  - { offset: 0x12D66, size: 0x8, addend: 0x0, symName: __RNvMs_Cs5PAMpfHI6O6_19icu_provider_macrosNtB4_13DataStructArg3new, symObjAddr: 0x3CFC, symBinAddr: 0x7554, symSize: 0x78 }
  - { offset: 0x13139, size: 0x8, addend: 0x0, symName: __RINvMNtCs9f3LFPSIp77_4core6optionINtB3_6OptionINtNtCsdze8u8oDPro_5alloc5boxed3BoxNtCs5PAMpfHI6O6_19icu_provider_macros13DataStructArgEE3mapB1h_NCNvXs8_NtCsATtFUPiRFW_3syn10punctuatedINtB2p_10PunctuatedB1h_NtNtB2r_5token5CommaENtNtNtNtB5_4iter6traits7collect12IntoIterator9into_iters_0EB1j_, symObjAddr: 0x0, symBinAddr: 0xB430, symSize: 0x70 }
  - { offset: 0x1325E, size: 0x8, addend: 0x0, symName: __RNCINvNtNtCsjLJ1XWNSM6u_10proc_macro6bridge6client10run_clientTNtB4_11TokenStreamBZ_EINtNtCs9f3LFPSIp77_4core6option6OptionBZ_ENCNCINvMs8_B4_INtB4_6ClientTNtB8_11TokenStreamB2t_EB2t_E7expand2NvCs5PAMpfHI6O6_19icu_provider_macros11data_structE00E0B35_, symObjAddr: 0x2490, symBinAddr: 0xD8C0, symSize: 0x3FC }
  - { offset: 0x137BD, size: 0x8, addend: 0x0, symName: __RNCNCINvNtNtCsjLJ1XWNSM6u_10proc_macro6bridge6client10run_clientTNtB6_11TokenStreamB11_EINtNtCs9f3LFPSIp77_4core6option6OptionB11_ENCNCINvMs8_B6_INtB6_6ClientTNtBa_11TokenStreamB2x_EB2x_E7expand2NvCs5PAMpfHI6O6_19icu_provider_macros11data_structE00E00B39_, symObjAddr: 0x28D0, symBinAddr: 0xDD00, symSize: 0x24 }
  - { offset: 0x1385A, size: 0x8, addend: 0x0, symName: __RNCNCINvMs8_NtNtCsjLJ1XWNSM6u_10proc_macro6bridge6clientINtBa_6ClientTNtBe_11TokenStreamB16_EB16_E7expand2NvCs5PAMpfHI6O6_19icu_provider_macros11data_structE00B1I_, symObjAddr: 0x288C, symBinAddr: 0xDCBC, symSize: 0x44 }
  - { offset: 0x138CA, size: 0x8, addend: 0x0, symName: __RNCINvMs8_NtNtCsjLJ1XWNSM6u_10proc_macro6bridge6clientINtB8_6ClientTNtBc_11TokenStreamB14_EB14_E7expand2NvCs5PAMpfHI6O6_19icu_provider_macros11data_structE0B1G_, symObjAddr: 0x2280, symBinAddr: 0xD6B0, symSize: 0x30 }
  - { offset: 0x13914, size: 0x8, addend: 0x0, symName: __RINvNtNtCsjLJ1XWNSM6u_10proc_macro6bridge6client10run_clientTNtB2_11TokenStreamBX_EINtNtCs9f3LFPSIp77_4core6option6OptionBX_ENCNCINvMs8_B2_INtB2_6ClientTNtB6_11TokenStreamB2r_EB2r_E7expand2NvCs5PAMpfHI6O6_19icu_provider_macros11data_structE00EB33_, symObjAddr: 0x1C3C, symBinAddr: 0xD06C, symSize: 0x21C }
  - { offset: 0x13B4D, size: 0x8, addend: 0x0, symName: __RNvXsh_NtNtCsjLJ1XWNSM6u_10proc_macro6bridge6clientNtB5_11TokenStreamINtNtB7_3rpc6EncodeuE6encodeCs5PAMpfHI6O6_19icu_provider_macros, symObjAddr: 0x3F30, symBinAddr: 0xF360, symSize: 0x50 }
  - { offset: 0x13C67, size: 0x8, addend: 0x0, symName: __RNvXsk_NtNtCsjLJ1XWNSM6u_10proc_macro6bridge6clientNtB5_11TokenStreamINtNtB7_3rpc9DecodeMutuE6decodeCs5PAMpfHI6O6_19icu_provider_macros, symObjAddr: 0x3F80, symBinAddr: 0xF3B0, symSize: 0x2C }
  - { offset: 0x13CB0, size: 0x8, addend: 0x0, symName: __RNvXsr_NtNtCsjLJ1XWNSM6u_10proc_macro6bridge6clientNtB5_4SpanINtNtB7_3rpc9DecodeMutuE6decodeCs5PAMpfHI6O6_19icu_provider_macros, symObjAddr: 0x4128, symBinAddr: 0xF558, symSize: 0x2C }
  - { offset: 0x1417D, size: 0x8, addend: 0x0, symName: __RNvXs9_NtNtCsjLJ1XWNSM6u_10proc_macro6bridge3rpcTNtNtB7_6client11TokenStreamBL_EINtB5_9DecodeMutuE6decodeCs5PAMpfHI6O6_19icu_provider_macros, symObjAddr: 0x37F0, symBinAddr: 0xEC20, symSize: 0x80 }
  - { offset: 0x142DC, size: 0x8, addend: 0x0, symName: __RNvXsR_NtCsjLJ1XWNSM6u_10proc_macro6bridgeINtNtCs9f3LFPSIp77_4core6option6OptionNtNtB5_6client11TokenStreamEINtNtB5_3rpc6EncodeuE6encodeCs5PAMpfHI6O6_19icu_provider_macros, symObjAddr: 0x3870, symBinAddr: 0xECA0, symSize: 0xCC }
  - { offset: 0x14380, size: 0x8, addend: 0x0, symName: __RNvXsR_NtCsjLJ1XWNSM6u_10proc_macro6bridgeINtNtCs9f3LFPSIp77_4core6option6OptionReEINtNtB5_3rpc6EncodeuE6encodeCs5PAMpfHI6O6_19icu_provider_macros, symObjAddr: 0x393C, symBinAddr: 0xED6C, symSize: 0xD8 }
  - { offset: 0x15831, size: 0x8, addend: 0x0, symName: __RINvNtCs9f3LFPSIp77_4core3ptr13drop_in_placeDNtNtB4_5error5ErrorNtNtB4_6marker4SendNtB12_4SyncEL_ECs5PAMpfHI6O6_19icu_provider_macros, symObjAddr: 0xA84, symBinAddr: 0xBEB4, symSize: 0x48 }
  - { offset: 0x15860, size: 0x8, addend: 0x0, symName: __RINvNtCs9f3LFPSIp77_4core3ptr13drop_in_placeINtNtB4_4cell10UnsafeCellNtNtNtCsjLJ1XWNSM6u_10proc_macro6bridge6client6BridgeEECs5PAMpfHI6O6_19icu_provider_macros, symObjAddr: 0xACC, symBinAddr: 0xBEFC, symSize: 0x24 }
  - { offset: 0x1588F, size: 0x8, addend: 0x0, symName: __RINvNtCs9f3LFPSIp77_4core3ptr13drop_in_placeINtNtB4_4cell7RefCellNtNtNtCsjLJ1XWNSM6u_10proc_macro6bridge6client6BridgeEECs5PAMpfHI6O6_19icu_provider_macros, symObjAddr: 0xAF0, symBinAddr: 0xBF20, symSize: 0x24 }
  - { offset: 0x158BE, size: 0x8, addend: 0x0, symName: __RINvNtCs9f3LFPSIp77_4core3ptr13drop_in_placeINtNtB4_6option4ItemNtCs5PAMpfHI6O6_19icu_provider_macros13DataStructArgEEB12_, symObjAddr: 0xB14, symBinAddr: 0xBF44, symSize: 0x24 }
  - { offset: 0x158ED, size: 0x8, addend: 0x0, symName: __RINvNtCs9f3LFPSIp77_4core3ptr13drop_in_placeINtNtB4_6option4ItemNtCs5PAMpfHI6O6_19icu_provider_macros19DataStructMarkerArgEEB12_, symObjAddr: 0xB38, symBinAddr: 0xBF68, symSize: 0x24 }
  - { offset: 0x1591C, size: 0x8, addend: 0x0, symName: __RINvNtCs9f3LFPSIp77_4core3ptr13drop_in_placeINtNtB4_6option6OptionINtNtCsdze8u8oDPro_5alloc5boxed3BoxNtCs5PAMpfHI6O6_19icu_provider_macros13DataStructArgEEEB1D_, symObjAddr: 0xB5C, symBinAddr: 0xBF8C, symSize: 0x44 }
  - { offset: 0x1594B, size: 0x8, addend: 0x0, symName: __RINvNtCs9f3LFPSIp77_4core3ptr13drop_in_placeINtNtB4_6option6OptionINtNtCsdze8u8oDPro_5alloc5boxed3BoxNtCs5PAMpfHI6O6_19icu_provider_macros19DataStructMarkerArgEEEB1D_, symObjAddr: 0xBA0, symBinAddr: 0xBFD0, symSize: 0x44 }
  - { offset: 0x1597A, size: 0x8, addend: 0x0, symName: __RINvNtCs9f3LFPSIp77_4core3ptr13drop_in_placeINtNtB4_6option6OptionNtCs5PAMpfHI6O6_19icu_provider_macros13DataStructArgEEB14_, symObjAddr: 0xBE4, symBinAddr: 0xC014, symSize: 0x48 }
  - { offset: 0x159A9, size: 0x8, addend: 0x0, symName: __RINvNtCs9f3LFPSIp77_4core3ptr13drop_in_placeINtNtB4_6option6OptionNtCs5PAMpfHI6O6_19icu_provider_macros19DataStructMarkerArgEEB14_, symObjAddr: 0xC2C, symBinAddr: 0xC05C, symSize: 0x48 }
  - { offset: 0x159D8, size: 0x8, addend: 0x0, symName: __RINvNtCs9f3LFPSIp77_4core3ptr13drop_in_placeINtNtB4_6option6OptionNtNtCsATtFUPiRFW_3syn4path4PathEECs5PAMpfHI6O6_19icu_provider_macros, symObjAddr: 0xC74, symBinAddr: 0xC0A4, symSize: 0x48 }
  - { offset: 0x15A07, size: 0x8, addend: 0x0, symName: __RINvNtCs9f3LFPSIp77_4core3ptr13drop_in_placeINtNtB4_6option8IntoIterNtCs5PAMpfHI6O6_19icu_provider_macros13DataStructArgEEB16_, symObjAddr: 0xCBC, symBinAddr: 0xC0EC, symSize: 0x24 }
  - { offset: 0x15A36, size: 0x8, addend: 0x0, symName: __RINvNtCs9f3LFPSIp77_4core3ptr13drop_in_placeINtNtB4_6option8IntoIterNtCs5PAMpfHI6O6_19icu_provider_macros19DataStructMarkerArgEEB16_, symObjAddr: 0xCE0, symBinAddr: 0xC110, symSize: 0x24 }
  - { offset: 0x15A65, size: 0x8, addend: 0x0, symName: __RINvNtCs9f3LFPSIp77_4core3ptr13drop_in_placeINtNtCsATtFUPiRFW_3syn10punctuated10PunctuatedNtCs5PAMpfHI6O6_19icu_provider_macros13DataStructArgNtNtBL_5token5CommaEEB1s_, symObjAddr: 0xD04, symBinAddr: 0xC134, symSize: 0x60 }
  - { offset: 0x15A94, size: 0x8, addend: 0x0, symName: __RINvNtCs9f3LFPSIp77_4core3ptr13drop_in_placeINtNtCsATtFUPiRFW_3syn10punctuated10PunctuatedNtCs5PAMpfHI6O6_19icu_provider_macros19DataStructMarkerArgNtNtBL_5token5CommaEEB1s_, symObjAddr: 0xD64, symBinAddr: 0xC194, symSize: 0x60 }
  - { offset: 0x15AC3, size: 0x8, addend: 0x0, symName: __RINvNtCs9f3LFPSIp77_4core3ptr13drop_in_placeINtNtCsATtFUPiRFW_3syn10punctuated8IntoIterNtCs5PAMpfHI6O6_19icu_provider_macros13DataStructArgEEB1p_, symObjAddr: 0xDC4, symBinAddr: 0xC1F4, symSize: 0x24 }
  - { offset: 0x15AF2, size: 0x8, addend: 0x0, symName: __RINvNtCs9f3LFPSIp77_4core3ptr13drop_in_placeINtNtCsATtFUPiRFW_3syn10punctuated8IntoIterNtCs5PAMpfHI6O6_19icu_provider_macros19DataStructMarkerArgEEB1p_, symObjAddr: 0xDE8, symBinAddr: 0xC218, symSize: 0x24 }
  - { offset: 0x15B21, size: 0x8, addend: 0x0, symName: __RINvNtCs9f3LFPSIp77_4core3ptr13drop_in_placeINtNtCsdze8u8oDPro_5alloc3vec3VecNtCs5PAMpfHI6O6_19icu_provider_macros13DataStructArgEEB1f_, symObjAddr: 0xE0C, symBinAddr: 0xC23C, symSize: 0x5C }
  - { offset: 0x15B50, size: 0x8, addend: 0x0, symName: __RINvNtCs9f3LFPSIp77_4core3ptr13drop_in_placeINtNtCsdze8u8oDPro_5alloc3vec3VecNtCs5PAMpfHI6O6_19icu_provider_macros19DataStructMarkerArgEEB1f_, symObjAddr: 0xE68, symBinAddr: 0xC298, symSize: 0x5C }
  - { offset: 0x15B7F, size: 0x8, addend: 0x0, symName: __RINvNtCs9f3LFPSIp77_4core3ptr13drop_in_placeINtNtCsdze8u8oDPro_5alloc3vec3VecRNtNtCsATtFUPiRFW_3syn8generics13LifetimeParamEECs5PAMpfHI6O6_19icu_provider_macros, symObjAddr: 0xEC4, symBinAddr: 0xC2F4, symSize: 0x5C }
  - { offset: 0x15BAE, size: 0x8, addend: 0x0, symName: __RINvNtCs9f3LFPSIp77_4core3ptr13drop_in_placeINtNtCsdze8u8oDPro_5alloc3vec3VecTNtCs5PAMpfHI6O6_19icu_provider_macros13DataStructArgNtNtCsATtFUPiRFW_3syn5token5CommaEEEB1g_, symObjAddr: 0xF20, symBinAddr: 0xC350, symSize: 0x5C }
  - { offset: 0x15BDD, size: 0x8, addend: 0x0, symName: __RINvNtCs9f3LFPSIp77_4core3ptr13drop_in_placeINtNtCsdze8u8oDPro_5alloc3vec3VecTNtCs5PAMpfHI6O6_19icu_provider_macros19DataStructMarkerArgNtNtCsATtFUPiRFW_3syn5token5CommaEEEB1g_, symObjAddr: 0xF7C, symBinAddr: 0xC3AC, symSize: 0x5C }
  - { offset: 0x15C0C, size: 0x8, addend: 0x0, symName: __RINvNtCs9f3LFPSIp77_4core3ptr13drop_in_placeINtNtCsdze8u8oDPro_5alloc5boxed3BoxDNtNtB4_5error5ErrorNtNtB4_6marker4SendNtB1B_4SyncEL_EECs5PAMpfHI6O6_19icu_provider_macros, symObjAddr: 0xFD8, symBinAddr: 0xC408, symSize: 0x80 }
  - { offset: 0x15C3B, size: 0x8, addend: 0x0, symName: __RINvNtCs9f3LFPSIp77_4core3ptr13drop_in_placeINtNtCsdze8u8oDPro_5alloc5boxed3BoxNtCs5PAMpfHI6O6_19icu_provider_macros13DataStructArgEEB1h_, symObjAddr: 0x1058, symBinAddr: 0xC488, symSize: 0x60 }
  - { offset: 0x15C6A, size: 0x8, addend: 0x0, symName: __RINvNtCs9f3LFPSIp77_4core3ptr13drop_in_placeINtNtCsdze8u8oDPro_5alloc5boxed3BoxNtCs5PAMpfHI6O6_19icu_provider_macros19DataStructMarkerArgEEB1h_, symObjAddr: 0x10B8, symBinAddr: 0xC4E8, symSize: 0x60 }
  - { offset: 0x15C99, size: 0x8, addend: 0x0, symName: __RINvNtCs9f3LFPSIp77_4core3ptr13drop_in_placeINtNtCsdze8u8oDPro_5alloc5boxed3BoxNtNtNtCs27l1GJC5rMQ_3std2io5error6CustomEECs5PAMpfHI6O6_19icu_provider_macros, symObjAddr: 0x1118, symBinAddr: 0xC548, symSize: 0x60 }
  - { offset: 0x15CC8, size: 0x8, addend: 0x0, symName: __RINvNtCs9f3LFPSIp77_4core3ptr13drop_in_placeINtNtCsdze8u8oDPro_5alloc7raw_vec6RawVecNtCs5PAMpfHI6O6_19icu_provider_macros13DataStructArgEEB1m_, symObjAddr: 0x1178, symBinAddr: 0xC5A8, symSize: 0x24 }
  - { offset: 0x15CF7, size: 0x8, addend: 0x0, symName: __RINvNtCs9f3LFPSIp77_4core3ptr13drop_in_placeINtNtCsdze8u8oDPro_5alloc7raw_vec6RawVecNtCs5PAMpfHI6O6_19icu_provider_macros19DataStructMarkerArgEEB1m_, symObjAddr: 0x119C, symBinAddr: 0xC5CC, symSize: 0x24 }
  - { offset: 0x15D26, size: 0x8, addend: 0x0, symName: __RINvNtCs9f3LFPSIp77_4core3ptr13drop_in_placeINtNtCsdze8u8oDPro_5alloc7raw_vec6RawVecRNtNtCsATtFUPiRFW_3syn8generics13LifetimeParamEECs5PAMpfHI6O6_19icu_provider_macros, symObjAddr: 0x11C0, symBinAddr: 0xC5F0, symSize: 0x24 }
  - { offset: 0x15D55, size: 0x8, addend: 0x0, symName: __RINvNtCs9f3LFPSIp77_4core3ptr13drop_in_placeINtNtCsdze8u8oDPro_5alloc7raw_vec6RawVecTNtCs5PAMpfHI6O6_19icu_provider_macros13DataStructArgNtNtCsATtFUPiRFW_3syn5token5CommaEEEB1n_, symObjAddr: 0x11E4, symBinAddr: 0xC614, symSize: 0x24 }
  - { offset: 0x15D84, size: 0x8, addend: 0x0, symName: __RINvNtCs9f3LFPSIp77_4core3ptr13drop_in_placeINtNtCsdze8u8oDPro_5alloc7raw_vec6RawVecTNtCs5PAMpfHI6O6_19icu_provider_macros19DataStructMarkerArgNtNtCsATtFUPiRFW_3syn5token5CommaEEEB1n_, symObjAddr: 0x1208, symBinAddr: 0xC638, symSize: 0x24 }
  - { offset: 0x15DB3, size: 0x8, addend: 0x0, symName: __RINvNtCs9f3LFPSIp77_4core3ptr13drop_in_placeINtNtNtCs27l1GJC5rMQ_3std2io5error9ErrorDataINtNtCsdze8u8oDPro_5alloc5boxed3BoxNtBJ_6CustomEEECs5PAMpfHI6O6_19icu_provider_macros, symObjAddr: 0x122C, symBinAddr: 0xC65C, symSize: 0x48 }
  - { offset: 0x15DE2, size: 0x8, addend: 0x0, symName: __RINvNtCs9f3LFPSIp77_4core3ptr13drop_in_placeINtNtNtCsdze8u8oDPro_5alloc3vec9into_iter8IntoIterNtCs5PAMpfHI6O6_19icu_provider_macros13DataStructArgEEB1w_, symObjAddr: 0x1274, symBinAddr: 0xC6A4, symSize: 0x24 }
  - { offset: 0x15E11, size: 0x8, addend: 0x0, symName: __RINvNtCs9f3LFPSIp77_4core3ptr13drop_in_placeINtNtNtCsdze8u8oDPro_5alloc3vec9into_iter8IntoIterNtCs5PAMpfHI6O6_19icu_provider_macros19DataStructMarkerArgEEB1w_, symObjAddr: 0x1298, symBinAddr: 0xC6C8, symSize: 0x24 }
  - { offset: 0x15E40, size: 0x8, addend: 0x0, symName: __RINvNtCs9f3LFPSIp77_4core3ptr13drop_in_placeINtNtNtCsdze8u8oDPro_5alloc3vec9into_iter8IntoIterTNtCs5PAMpfHI6O6_19icu_provider_macros13DataStructArgNtNtCsATtFUPiRFW_3syn5token5CommaEEEB1x_, symObjAddr: 0x12BC, symBinAddr: 0xC6EC, symSize: 0x24 }
  - { offset: 0x15E6F, size: 0x8, addend: 0x0, symName: __RINvNtCs9f3LFPSIp77_4core3ptr13drop_in_placeINtNtNtCsdze8u8oDPro_5alloc3vec9into_iter8IntoIterTNtCs5PAMpfHI6O6_19icu_provider_macros19DataStructMarkerArgNtNtCsATtFUPiRFW_3syn5token5CommaEEEB1x_, symObjAddr: 0x12E0, symBinAddr: 0xC710, symSize: 0x24 }
  - { offset: 0x15E9E, size: 0x8, addend: 0x0, symName: __RINvNtCs9f3LFPSIp77_4core3ptr13drop_in_placeINtNtNtNtB4_4iter8adapters3map3MapINtNtNtCsdze8u8oDPro_5alloc3vec9into_iter8IntoIterTNtCs5PAMpfHI6O6_19icu_provider_macros13DataStructArgNtNtCsATtFUPiRFW_3syn5token5CommaEENCNvXs8_NtB2X_10punctuatedINtB3A_10PunctuatedB23_B2T_ENtNtNtBN_6traits7collect12IntoIterator9into_iter0EEB25_, symObjAddr: 0x1304, symBinAddr: 0xC734, symSize: 0x24 }
  - { offset: 0x15ECD, size: 0x8, addend: 0x0, symName: __RINvNtCs9f3LFPSIp77_4core3ptr13drop_in_placeINtNtNtNtB4_4iter8adapters3map3MapINtNtNtCsdze8u8oDPro_5alloc3vec9into_iter8IntoIterTNtCs5PAMpfHI6O6_19icu_provider_macros19DataStructMarkerArgNtNtCsATtFUPiRFW_3syn5token5CommaEENCNvXs8_NtB33_10punctuatedINtB3G_10PunctuatedB23_B2Z_ENtNtNtBN_6traits7collect12IntoIterator9into_iter0EEB25_, symObjAddr: 0x1328, symBinAddr: 0xC758, symSize: 0x24 }
  - { offset: 0x15EFC, size: 0x8, addend: 0x0, symName: __RINvNtCs9f3LFPSIp77_4core3ptr13drop_in_placeINtNvXsd_NtNtCsdze8u8oDPro_5alloc3vec9into_iterINtBP_8IntoIterppENtNtNtB4_3ops4drop4Drop4drop9DropGuardNtCs5PAMpfHI6O6_19icu_provider_macros13DataStructArgNtNtBT_5alloc6GlobalEEB2n_, symObjAddr: 0x134C, symBinAddr: 0xC77C, symSize: 0x24 }
  - { offset: 0x15F2B, size: 0x8, addend: 0x0, symName: __RINvNtCs9f3LFPSIp77_4core3ptr13drop_in_placeINtNvXsd_NtNtCsdze8u8oDPro_5alloc3vec9into_iterINtBP_8IntoIterppENtNtNtB4_3ops4drop4Drop4drop9DropGuardNtCs5PAMpfHI6O6_19icu_provider_macros19DataStructMarkerArgNtNtBT_5alloc6GlobalEEB2n_, symObjAddr: 0x1370, symBinAddr: 0xC7A0, symSize: 0x24 }
  - { offset: 0x15F5A, size: 0x8, addend: 0x0, symName: __RINvNtCs9f3LFPSIp77_4core3ptr13drop_in_placeINtNvXsd_NtNtCsdze8u8oDPro_5alloc3vec9into_iterINtBP_8IntoIterppENtNtNtB4_3ops4drop4Drop4drop9DropGuardTNtCs5PAMpfHI6O6_19icu_provider_macros13DataStructArgNtNtCsATtFUPiRFW_3syn5token5CommaENtNtBT_5alloc6GlobalEEB2o_, symObjAddr: 0x1394, symBinAddr: 0xC7C4, symSize: 0x24 }
  - { offset: 0x15F89, size: 0x8, addend: 0x0, symName: __RINvNtCs9f3LFPSIp77_4core3ptr13drop_in_placeINtNvXsd_NtNtCsdze8u8oDPro_5alloc3vec9into_iterINtBP_8IntoIterppENtNtNtB4_3ops4drop4Drop4drop9DropGuardTNtCs5PAMpfHI6O6_19icu_provider_macros19DataStructMarkerArgNtNtCsATtFUPiRFW_3syn5token5CommaENtNtBT_5alloc6GlobalEEB2o_, symObjAddr: 0x13B8, symBinAddr: 0xC7E8, symSize: 0x24 }
  - { offset: 0x15FB8, size: 0x8, addend: 0x0, symName: __RINvNtCs9f3LFPSIp77_4core3ptr13drop_in_placeNCINvMsi_NtCsdze8u8oDPro_5alloc3vecINtBP_3VecNtCs5PAMpfHI6O6_19icu_provider_macros13DataStructArgE14extend_trustedINtNtB4_6option8IntoIterB1p_EE0EB1r_, symObjAddr: 0x13DC, symBinAddr: 0xC80C, symSize: 0x24 }
  - { offset: 0x15FE7, size: 0x8, addend: 0x0, symName: __RINvNtCs9f3LFPSIp77_4core3ptr13drop_in_placeNCINvMsi_NtCsdze8u8oDPro_5alloc3vecINtBP_3VecNtCs5PAMpfHI6O6_19icu_provider_macros13DataStructArgE14extend_trustedINtNtNtNtB4_4iter8adapters3map3MapINtNtBP_9into_iter8IntoIterTB1p_NtNtCsATtFUPiRFW_3syn5token5CommaEENCNvXs8_NtB3E_10punctuatedINtB4h_10PunctuatedB1p_B3A_ENtNtNtB2D_6traits7collect12IntoIterator9into_iter0EE0EB1r_, symObjAddr: 0x1400, symBinAddr: 0xC830, symSize: 0x24 }
  - { offset: 0x16016, size: 0x8, addend: 0x0, symName: __RINvNtCs9f3LFPSIp77_4core3ptr13drop_in_placeNCINvMsi_NtCsdze8u8oDPro_5alloc3vecINtBP_3VecNtCs5PAMpfHI6O6_19icu_provider_macros19DataStructMarkerArgE14extend_trustedINtNtB4_6option8IntoIterB1p_EE0EB1r_, symObjAddr: 0x1424, symBinAddr: 0xC854, symSize: 0x24 }
  - { offset: 0x16045, size: 0x8, addend: 0x0, symName: __RINvNtCs9f3LFPSIp77_4core3ptr13drop_in_placeNCINvMsi_NtCsdze8u8oDPro_5alloc3vecINtBP_3VecNtCs5PAMpfHI6O6_19icu_provider_macros19DataStructMarkerArgE14extend_trustedINtNtNtNtB4_4iter8adapters3map3MapINtNtBP_9into_iter8IntoIterTB1p_NtNtCsATtFUPiRFW_3syn5token5CommaEENCNvXs8_NtB3K_10punctuatedINtB4n_10PunctuatedB1p_B3G_ENtNtNtB2J_6traits7collect12IntoIterator9into_iter0EE0EB1r_, symObjAddr: 0x1448, symBinAddr: 0xC878, symSize: 0x24 }
  - { offset: 0x16074, size: 0x8, addend: 0x0, symName: __RINvNtCs9f3LFPSIp77_4core3ptr13drop_in_placeNCINvNtNtNtB4_4iter8adapters3map8map_foldTNtCs5PAMpfHI6O6_19icu_provider_macros13DataStructArgNtNtCsATtFUPiRFW_3syn5token5CommaEB1m_uNCNvXs8_NtB2g_10punctuatedINtB2X_10PunctuatedB1m_B2c_ENtNtNtBP_6traits7collect12IntoIterator9into_iter0NCINvNvNtNtB3L_8iterator8Iterator8for_each4callB1m_NCINvMsi_NtCsdze8u8oDPro_5alloc3vecINtB5s_3VecB1m_E14extend_trustedINtBL_3MapINtNtB5s_9into_iter8IntoIterB1l_EB2P_EE0E0E0EB1o_, symObjAddr: 0x146C, symBinAddr: 0xC89C, symSize: 0x24 }
  - { offset: 0x160A3, size: 0x8, addend: 0x0, symName: __RINvNtCs9f3LFPSIp77_4core3ptr13drop_in_placeNCINvNtNtNtB4_4iter8adapters3map8map_foldTNtCs5PAMpfHI6O6_19icu_provider_macros19DataStructMarkerArgNtNtCsATtFUPiRFW_3syn5token5CommaEB1m_uNCNvXs8_NtB2m_10punctuatedINtB33_10PunctuatedB1m_B2i_ENtNtNtBP_6traits7collect12IntoIterator9into_iter0NCINvNvNtNtB3R_8iterator8Iterator8for_each4callB1m_NCINvMsi_NtCsdze8u8oDPro_5alloc3vecINtB5y_3VecB1m_E14extend_trustedINtBL_3MapINtNtB5y_9into_iter8IntoIterB1l_EB2V_EE0E0E0EB1o_, symObjAddr: 0x1490, symBinAddr: 0xC8C0, symSize: 0x24 }
  - { offset: 0x160D2, size: 0x8, addend: 0x0, symName: __RINvNtCs9f3LFPSIp77_4core3ptr13drop_in_placeNCINvNvNtNtNtNtB4_4iter6traits8iterator8Iterator8for_each4callNtCs5PAMpfHI6O6_19icu_provider_macros13DataStructArgNCINvMsi_NtCsdze8u8oDPro_5alloc3vecINtB2F_3VecB1G_E14extend_trustedINtNtB4_6option8IntoIterB1G_EE0E0EB1I_, symObjAddr: 0x14B4, symBinAddr: 0xC8E4, symSize: 0x24 }
  - { offset: 0x16101, size: 0x8, addend: 0x0, symName: __RINvNtCs9f3LFPSIp77_4core3ptr13drop_in_placeNCINvNvNtNtNtNtB4_4iter6traits8iterator8Iterator8for_each4callNtCs5PAMpfHI6O6_19icu_provider_macros13DataStructArgNCINvMsi_NtCsdze8u8oDPro_5alloc3vecINtB2F_3VecB1G_E14extend_trustedINtNtNtBT_8adapters3map3MapINtNtB2F_9into_iter8IntoIterTB1G_NtNtCsATtFUPiRFW_3syn5token5CommaEENCNvXs8_NtB4D_10punctuatedINtB5g_10PunctuatedB1G_B4z_ENtNtBR_7collect12IntoIterator9into_iter0EE0E0EB1I_, symObjAddr: 0x14D8, symBinAddr: 0xC908, symSize: 0x24 }
  - { offset: 0x16130, size: 0x8, addend: 0x0, symName: __RINvNtCs9f3LFPSIp77_4core3ptr13drop_in_placeNCINvNvNtNtNtNtB4_4iter6traits8iterator8Iterator8for_each4callNtCs5PAMpfHI6O6_19icu_provider_macros19DataStructMarkerArgNCINvMsi_NtCsdze8u8oDPro_5alloc3vecINtB2L_3VecB1G_E14extend_trustedINtNtB4_6option8IntoIterB1G_EE0E0EB1I_, symObjAddr: 0x14FC, symBinAddr: 0xC92C, symSize: 0x24 }
  - { offset: 0x1615F, size: 0x8, addend: 0x0, symName: __RINvNtCs9f3LFPSIp77_4core3ptr13drop_in_placeNCINvNvNtNtNtNtB4_4iter6traits8iterator8Iterator8for_each4callNtCs5PAMpfHI6O6_19icu_provider_macros19DataStructMarkerArgNCINvMsi_NtCsdze8u8oDPro_5alloc3vecINtB2L_3VecB1G_E14extend_trustedINtNtNtBT_8adapters3map3MapINtNtB2L_9into_iter8IntoIterTB1G_NtNtCsATtFUPiRFW_3syn5token5CommaEENCNvXs8_NtB4J_10punctuatedINtB5m_10PunctuatedB1G_B4F_ENtNtBR_7collect12IntoIterator9into_iter0EE0E0EB1I_, symObjAddr: 0x1520, symBinAddr: 0xC950, symSize: 0x24 }
  - { offset: 0x1618E, size: 0x8, addend: 0x0, symName: __RINvNtCs9f3LFPSIp77_4core3ptr13drop_in_placeNCNCINvNtNtCsjLJ1XWNSM6u_10proc_macro6bridge6client10run_clientTNtBN_11TokenStreamB1I_EINtNtB4_6option6OptionB1I_ENCNCINvMs8_BN_INtBN_6ClientTNtBR_11TokenStreamB2Y_EB2Y_E7expand2NvCs5PAMpfHI6O6_19icu_provider_macros11data_structE00E00EB3A_, symObjAddr: 0x1544, symBinAddr: 0xC974, symSize: 0x24 }
  - { offset: 0x161BD, size: 0x8, addend: 0x0, symName: __RINvNtCs9f3LFPSIp77_4core3ptr13drop_in_placeNtCs5PAMpfHI6O6_19icu_provider_macros13DataStructArgEBI_, symObjAddr: 0x1568, symBinAddr: 0xC998, symSize: 0xF0 }
  - { offset: 0x161EC, size: 0x8, addend: 0x0, symName: __RINvNtCs9f3LFPSIp77_4core3ptr13drop_in_placeNtCs5PAMpfHI6O6_19icu_provider_macros14DataStructArgsEBI_, symObjAddr: 0x1658, symBinAddr: 0xCA88, symSize: 0x24 }
  - { offset: 0x1621B, size: 0x8, addend: 0x0, symName: __RINvNtCs9f3LFPSIp77_4core3ptr13drop_in_placeNtCs5PAMpfHI6O6_19icu_provider_macros19DataStructMarkerArgEBI_, symObjAddr: 0x167C, symBinAddr: 0xCAAC, symSize: 0xD0 }
  - { offset: 0x1624A, size: 0x8, addend: 0x0, symName: __RINvNtCs9f3LFPSIp77_4core3ptr13drop_in_placeNtNtNtCs27l1GJC5rMQ_3std2io5error5ErrorECs5PAMpfHI6O6_19icu_provider_macros, symObjAddr: 0x174C, symBinAddr: 0xCB7C, symSize: 0x24 }
  - { offset: 0x16279, size: 0x8, addend: 0x0, symName: __RINvNtCs9f3LFPSIp77_4core3ptr13drop_in_placeNtNtNtCs27l1GJC5rMQ_3std2io5error6CustomECs5PAMpfHI6O6_19icu_provider_macros, symObjAddr: 0x1770, symBinAddr: 0xCBA0, symSize: 0x24 }
  - { offset: 0x162A8, size: 0x8, addend: 0x0, symName: __RINvNtCs9f3LFPSIp77_4core3ptr13drop_in_placeNtNtNtCs27l1GJC5rMQ_3std6thread5local11AccessErrorECs5PAMpfHI6O6_19icu_provider_macros, symObjAddr: 0x1794, symBinAddr: 0xCBC4, symSize: 0x10 }
  - { offset: 0x162D7, size: 0x8, addend: 0x0, symName: __RINvNtCs9f3LFPSIp77_4core3ptr13drop_in_placeNtNtNtCsjLJ1XWNSM6u_10proc_macro6bridge3rpc12PanicMessageECs5PAMpfHI6O6_19icu_provider_macros, symObjAddr: 0x17A4, symBinAddr: 0xCBD4, symSize: 0x50 }
  - { offset: 0x16306, size: 0x8, addend: 0x0, symName: __RINvNtCs9f3LFPSIp77_4core3ptr13drop_in_placeNtNtNtCsjLJ1XWNSM6u_10proc_macro6bridge6buffer6BufferECs5PAMpfHI6O6_19icu_provider_macros, symObjAddr: 0x17F4, symBinAddr: 0xCC24, symSize: 0x24 }
  - { offset: 0x16335, size: 0x8, addend: 0x0, symName: __RINvNtCs9f3LFPSIp77_4core3ptr13drop_in_placeNtNtNtCsjLJ1XWNSM6u_10proc_macro6bridge6client6BridgeECs5PAMpfHI6O6_19icu_provider_macros, symObjAddr: 0x1818, symBinAddr: 0xCC48, symSize: 0x24 }
  - { offset: 0x16364, size: 0x8, addend: 0x0, symName: __RINvNtCs9f3LFPSIp77_4core3ptr13drop_in_placeNtNtNtNtCs27l1GJC5rMQ_3std2io5error14repr_bitpacked4ReprECs5PAMpfHI6O6_19icu_provider_macros, symObjAddr: 0x183C, symBinAddr: 0xCC6C, symSize: 0x24 }
  - { offset: 0x16393, size: 0x8, addend: 0x0, symName: __RINvNtCs9f3LFPSIp77_4core3ptr13drop_in_placeNtNvNtNtNtCsjLJ1XWNSM6u_10proc_macro6bridge6client5state3set13RestoreOnDropECs5PAMpfHI6O6_19icu_provider_macros, symObjAddr: 0x1860, symBinAddr: 0xCC90, symSize: 0x24 }
  - { offset: 0x163C2, size: 0x8, addend: 0x0, symName: __RINvNtCs9f3LFPSIp77_4core3ptr13drop_in_placeSNtCs5PAMpfHI6O6_19icu_provider_macros13DataStructArgEBJ_, symObjAddr: 0x1884, symBinAddr: 0xCCB4, symSize: 0xC4 }
  - { offset: 0x163F1, size: 0x8, addend: 0x0, symName: __RINvNtCs9f3LFPSIp77_4core3ptr13drop_in_placeSNtCs5PAMpfHI6O6_19icu_provider_macros19DataStructMarkerArgEBJ_, symObjAddr: 0x1948, symBinAddr: 0xCD78, symSize: 0xC4 }
  - { offset: 0x16420, size: 0x8, addend: 0x0, symName: __RINvNtCs9f3LFPSIp77_4core3ptr13drop_in_placeSTNtCs5PAMpfHI6O6_19icu_provider_macros13DataStructArgNtNtCsATtFUPiRFW_3syn5token5CommaEEBK_, symObjAddr: 0x1A0C, symBinAddr: 0xCE3C, symSize: 0xC4 }
  - { offset: 0x1644F, size: 0x8, addend: 0x0, symName: __RINvNtCs9f3LFPSIp77_4core3ptr13drop_in_placeSTNtCs5PAMpfHI6O6_19icu_provider_macros19DataStructMarkerArgNtNtCsATtFUPiRFW_3syn5token5CommaEEBK_, symObjAddr: 0x1AD0, symBinAddr: 0xCF00, symSize: 0xC4 }
  - { offset: 0x1647E, size: 0x8, addend: 0x0, symName: __RINvNtCs9f3LFPSIp77_4core3ptr13drop_in_placeTNtCs5PAMpfHI6O6_19icu_provider_macros13DataStructArgNtNtCsATtFUPiRFW_3syn5token5CommaEEBJ_, symObjAddr: 0x1B94, symBinAddr: 0xCFC4, symSize: 0x24 }
  - { offset: 0x164AD, size: 0x8, addend: 0x0, symName: __RINvNtCs9f3LFPSIp77_4core3ptr13drop_in_placeTNtCs5PAMpfHI6O6_19icu_provider_macros19DataStructMarkerArgNtNtCsATtFUPiRFW_3syn5token5CommaEEBJ_, symObjAddr: 0x1BB8, symBinAddr: 0xCFE8, symSize: 0x24 }
  - { offset: 0x164DC, size: 0x8, addend: 0x0, symName: __RINvNtCs9f3LFPSIp77_4core3ptr13drop_in_placeTNtNtNtCsjLJ1XWNSM6u_10proc_macro6bridge6client11TokenStreamBH_EECs5PAMpfHI6O6_19icu_provider_macros, symObjAddr: 0x1BDC, symBinAddr: 0xD00C, symSize: 0x60 }
  - { offset: 0x18CAB, size: 0x8, addend: 0x0, symName: __RNvXs5_NtCs9f3LFPSIp77_4core6optionINtB5_6OptionNtCs5PAMpfHI6O6_19icu_provider_macros13DataStructArgENtNtNtNtB7_4iter6traits7collect12IntoIterator9into_iterBM_, symObjAddr: 0x3760, symBinAddr: 0xEB90, symSize: 0x48 }
  - { offset: 0x18CE3, size: 0x8, addend: 0x0, symName: __RNvXs5_NtCs9f3LFPSIp77_4core6optionINtB5_6OptionNtCs5PAMpfHI6O6_19icu_provider_macros19DataStructMarkerArgENtNtNtNtB7_4iter6traits7collect12IntoIterator9into_iterBM_, symObjAddr: 0x37A8, symBinAddr: 0xEBD8, symSize: 0x48 }
  - { offset: 0x18DE1, size: 0x8, addend: 0x0, symName: __RNvXsv_NtCs9f3LFPSIp77_4core6optionINtB5_8IntoIterNtCs5PAMpfHI6O6_19icu_provider_macros13DataStructArgENtNtNtNtB7_4iter6traits8iterator8Iterator4nextBO_, symObjAddr: 0x4154, symBinAddr: 0xF584, symSize: 0x70 }
  - { offset: 0x18EBE, size: 0x8, addend: 0x0, symName: __RNvXsv_NtCs9f3LFPSIp77_4core6optionINtB5_8IntoIterNtCs5PAMpfHI6O6_19icu_provider_macros13DataStructArgENtNtNtNtB7_4iter6traits8iterator8Iterator9size_hintBO_, symObjAddr: 0x41C4, symBinAddr: 0xF5F4, symSize: 0x60 }
  - { offset: 0x18F7B, size: 0x8, addend: 0x0, symName: __RNvXsv_NtCs9f3LFPSIp77_4core6optionINtB5_8IntoIterNtCs5PAMpfHI6O6_19icu_provider_macros19DataStructMarkerArgENtNtNtNtB7_4iter6traits8iterator8Iterator4nextBO_, symObjAddr: 0x4224, symBinAddr: 0xF654, symSize: 0x70 }
  - { offset: 0x19058, size: 0x8, addend: 0x0, symName: __RNvXsv_NtCs9f3LFPSIp77_4core6optionINtB5_8IntoIterNtCs5PAMpfHI6O6_19icu_provider_macros19DataStructMarkerArgENtNtNtNtB7_4iter6traits8iterator8Iterator9size_hintBO_, symObjAddr: 0x4294, symBinAddr: 0xF6C4, symSize: 0x60 }
  - { offset: 0x1A0D3, size: 0x8, addend: 0x0, symName: __RINvYINtNtCs9f3LFPSIp77_4core6option8IntoIterNtCs5PAMpfHI6O6_19icu_provider_macros13DataStructArgENtNtNtNtB8_4iter6traits8iterator8Iterator4folduNCINvNvB1y_8for_each4callBH_NCINvMsi_NtCsdze8u8oDPro_5alloc3vecINtB2U_3VecBH_E14extend_trustedB3_E0E0EBJ_, symObjAddr: 0x1F90, symBinAddr: 0xD3C0, symSize: 0x148 }
  - { offset: 0x1A21C, size: 0x8, addend: 0x0, symName: __RINvYINtNtCs9f3LFPSIp77_4core6option8IntoIterNtCs5PAMpfHI6O6_19icu_provider_macros13DataStructArgENtNtNtNtB8_4iter6traits8iterator8Iterator8for_eachNCINvMsi_NtCsdze8u8oDPro_5alloc3vecINtB2v_3VecBH_E14extend_trustedB3_E0EBJ_, symObjAddr: 0x20D8, symBinAddr: 0xD508, symSize: 0x34 }
  - { offset: 0x1A288, size: 0x8, addend: 0x0, symName: __RINvYINtNtCs9f3LFPSIp77_4core6option8IntoIterNtCs5PAMpfHI6O6_19icu_provider_macros19DataStructMarkerArgENtNtNtNtB8_4iter6traits8iterator8Iterator4folduNCINvNvB1E_8for_each4callBH_NCINvMsi_NtCsdze8u8oDPro_5alloc3vecINtB30_3VecBH_E14extend_trustedB3_E0E0EBJ_, symObjAddr: 0x210C, symBinAddr: 0xD53C, symSize: 0x140 }
  - { offset: 0x1A319, size: 0x8, addend: 0x0, symName: __RINvYINtNtCs9f3LFPSIp77_4core6option8IntoIterNtCs5PAMpfHI6O6_19icu_provider_macros19DataStructMarkerArgENtNtNtNtB8_4iter6traits8iterator8Iterator8for_eachNCINvMsi_NtCsdze8u8oDPro_5alloc3vecINtB2B_3VecBH_E14extend_trustedB3_E0EBJ_, symObjAddr: 0x224C, symBinAddr: 0xD67C, symSize: 0x34 }
  - { offset: 0x1AB18, size: 0x8, addend: 0x0, symName: __RNvYNCNkNvNtNtNtCsjLJ1XWNSM6u_10proc_macro6bridge6client5state12BRIDGE_STATE0s_0INtNtNtCs9f3LFPSIp77_4core3ops8function6FnOnceTINtNtB1n_6option6OptionQIB22_INtNtB1n_4cell4CellPuEEEEE9call_onceCs5PAMpfHI6O6_19icu_provider_macros, symObjAddr: 0x42F4, symBinAddr: 0xF724, symSize: 0x4C }
  - { offset: 0x1AB5C, size: 0x8, addend: 0x0, symName: __RNvYNvYNtCs5PAMpfHI6O6_19icu_provider_macros14DataStructArgsNtNtCsATtFUPiRFW_3syn5parse5Parse5parseINtNtNtCs9f3LFPSIp77_4core3ops8function6FnOnceTRNtBY_11ParseBufferEE9call_onceB7_, symObjAddr: 0x4370, symBinAddr: 0xF7A0, symSize: 0x24 }
  - { offset: 0x1ABA0, size: 0x8, addend: 0x0, symName: __RNvYNvYNtNtCsATtFUPiRFW_3syn6derive11DeriveInputNtNtB9_5parse5Parse5parseINtNtNtCs9f3LFPSIp77_4core3ops8function6FnOnceTRNtBM_11ParseBufferEE9call_onceCs5PAMpfHI6O6_19icu_provider_macros, symObjAddr: 0x4394, symBinAddr: 0xF7C4, symSize: 0x24 }
  - { offset: 0x1ABE4, size: 0x8, addend: 0x0, symName: __RNvYNvYNtNtNtCsjLJ1XWNSM6u_10proc_macro6bridge3rpc12PanicMessageINtNtCs9f3LFPSIp77_4core7convert4FromINtNtCsdze8u8oDPro_5alloc5boxed3BoxDNtNtB15_3any3AnyNtNtB15_6marker4SendEL_EE4fromINtNtNtB15_3ops8function6FnOnceTB1B_EE9call_onceCs5PAMpfHI6O6_19icu_provider_macros, symObjAddr: 0x43B8, symBinAddr: 0xF7E8, symSize: 0x2C }
  - { offset: 0x1AC2E, size: 0x8, addend: 0x0, symName: __RNvYNvCs5PAMpfHI6O6_19icu_provider_macros11data_structINtNtNtCs9f3LFPSIp77_4core3ops8function2FnTNtCsjLJ1XWNSM6u_10proc_macro11TokenStreamB1x_EE4callB4_, symObjAddr: 0x4340, symBinAddr: 0xF770, symSize: 0x30 }
  - { offset: 0x20461, size: 0x8, addend: 0x0, symName: __RNvNtCsdze8u8oDPro_5alloc5alloc12alloc_zeroedCs5PAMpfHI6O6_19icu_provider_macros, symObjAddr: 0x3330, symBinAddr: 0xE760, symSize: 0x80 }
  - { offset: 0x2052E, size: 0x8, addend: 0x0, symName: __RNvXs_NtCsdze8u8oDPro_5alloc5allocNtB4_6GlobalNtNtCs9f3LFPSIp77_4core5alloc9Allocator10deallocateCs5PAMpfHI6O6_19icu_provider_macros, symObjAddr: 0x3A14, symBinAddr: 0xEE44, symSize: 0x8C }
  - { offset: 0x20613, size: 0x8, addend: 0x0, symName: __RNvNtCsdze8u8oDPro_5alloc5alloc15exchange_mallocCs5PAMpfHI6O6_19icu_provider_macros, symObjAddr: 0x33B0, symBinAddr: 0xE7E0, symSize: 0xA8 }
  - { offset: 0x20722, size: 0x8, addend: 0x0, symName: __RNvNtCsdze8u8oDPro_5alloc5alloc5allocCs5PAMpfHI6O6_19icu_provider_macros, symObjAddr: 0x3458, symBinAddr: 0xE888, symSize: 0x80 }
  - { offset: 0x215AF, size: 0x8, addend: 0x0, symName: __RINvXsd_NtCsdze8u8oDPro_5alloc3vecINtB6_3VecRNtNtCsATtFUPiRFW_3syn8generics13LifetimeParamEINtNtNtNtCs9f3LFPSIp77_4core4iter6traits7collect12FromIteratorBG_E9from_iterNtBJ_9LifetimesECs5PAMpfHI6O6_19icu_provider_macros, symObjAddr: 0x1E58, symBinAddr: 0xD288, symSize: 0x38 }
  - { offset: 0x215F5, size: 0x8, addend: 0x0, symName: __RINvXsh_NtCsdze8u8oDPro_5alloc3vecINtB6_3VecNtCs5PAMpfHI6O6_19icu_provider_macros13DataStructArgEINtNtNtNtCs9f3LFPSIp77_4core4iter6traits7collect6ExtendBG_E6extendINtNtB1G_6option6OptionBG_EEBI_, symObjAddr: 0x1E90, symBinAddr: 0xD2C0, symSize: 0x40 }
  - { offset: 0x2164A, size: 0x8, addend: 0x0, symName: __RINvXsh_NtCsdze8u8oDPro_5alloc3vecINtB6_3VecNtCs5PAMpfHI6O6_19icu_provider_macros13DataStructArgEINtNtNtNtCs9f3LFPSIp77_4core4iter6traits7collect6ExtendBG_E6extendINtNtNtB1E_8adapters3map3MapINtNtB6_9into_iter8IntoIterTBG_NtNtCsATtFUPiRFW_3syn5token5CommaEENCNvXs8_NtB3C_10punctuatedINtB4f_10PunctuatedBG_B3y_ENtB1A_12IntoIterator9into_iter0EEBI_, symObjAddr: 0x1ED0, symBinAddr: 0xD300, symSize: 0x40 }
  - { offset: 0x2169F, size: 0x8, addend: 0x0, symName: __RINvXsh_NtCsdze8u8oDPro_5alloc3vecINtB6_3VecNtCs5PAMpfHI6O6_19icu_provider_macros19DataStructMarkerArgEINtNtNtNtCs9f3LFPSIp77_4core4iter6traits7collect6ExtendBG_E6extendINtNtB1M_6option6OptionBG_EEBI_, symObjAddr: 0x1F10, symBinAddr: 0xD340, symSize: 0x40 }
  - { offset: 0x216F4, size: 0x8, addend: 0x0, symName: __RINvXsh_NtCsdze8u8oDPro_5alloc3vecINtB6_3VecNtCs5PAMpfHI6O6_19icu_provider_macros19DataStructMarkerArgEINtNtNtNtCs9f3LFPSIp77_4core4iter6traits7collect6ExtendBG_E6extendINtNtNtB1K_8adapters3map3MapINtNtB6_9into_iter8IntoIterTBG_NtNtCsATtFUPiRFW_3syn5token5CommaEENCNvXs8_NtB3I_10punctuatedINtB4l_10PunctuatedBG_B3E_ENtB1G_12IntoIterator9into_iter0EEBI_, symObjAddr: 0x1F50, symBinAddr: 0xD380, symSize: 0x40 }
  - { offset: 0x21790, size: 0x8, addend: 0x0, symName: __RNCINvMsi_NtCsdze8u8oDPro_5alloc3vecINtB8_3VecNtCs5PAMpfHI6O6_19icu_provider_macros13DataStructArgE14extend_trustedINtNtCs9f3LFPSIp77_4core6option8IntoIterBI_EE0BK_, symObjAddr: 0x22B0, symBinAddr: 0xD6E0, symSize: 0x78 }
  - { offset: 0x21883, size: 0x8, addend: 0x0, symName: __RNCINvMsi_NtCsdze8u8oDPro_5alloc3vecINtB8_3VecNtCs5PAMpfHI6O6_19icu_provider_macros13DataStructArgE14extend_trustedINtNtNtNtCs9f3LFPSIp77_4core4iter8adapters3map3MapINtNtB8_9into_iter8IntoIterTBI_NtNtCsATtFUPiRFW_3syn5token5CommaEENCNvXs8_NtB3c_10punctuatedINtB3P_10PunctuatedBI_B38_ENtNtNtB1W_6traits7collect12IntoIterator9into_iter0EE0BK_, symObjAddr: 0x2328, symBinAddr: 0xD758, symSize: 0x78 }
  - { offset: 0x21976, size: 0x8, addend: 0x0, symName: __RNCINvMsi_NtCsdze8u8oDPro_5alloc3vecINtB8_3VecNtCs5PAMpfHI6O6_19icu_provider_macros19DataStructMarkerArgE14extend_trustedINtNtCs9f3LFPSIp77_4core6option8IntoIterBI_EE0BK_, symObjAddr: 0x23A0, symBinAddr: 0xD7D0, symSize: 0x78 }
  - { offset: 0x21A69, size: 0x8, addend: 0x0, symName: __RNCINvMsi_NtCsdze8u8oDPro_5alloc3vecINtB8_3VecNtCs5PAMpfHI6O6_19icu_provider_macros19DataStructMarkerArgE14extend_trustedINtNtNtNtCs9f3LFPSIp77_4core4iter8adapters3map3MapINtNtB8_9into_iter8IntoIterTBI_NtNtCsATtFUPiRFW_3syn5token5CommaEENCNvXs8_NtB3i_10punctuatedINtB3V_10PunctuatedBI_B3e_ENtNtNtB22_6traits7collect12IntoIterator9into_iter0EE0BK_, symObjAddr: 0x2418, symBinAddr: 0xD848, symSize: 0x78 }
  - { offset: 0x21D80, size: 0x8, addend: 0x0, symName: __RNvXNtNtCsdze8u8oDPro_5alloc3vec11spec_extendINtB4_3VecRNtNtCsATtFUPiRFW_3syn8generics13LifetimeParamEINtB2_10SpecExtendBR_NtBU_9LifetimesE11spec_extendCs5PAMpfHI6O6_19icu_provider_macros, symObjAddr: 0x34D8, symBinAddr: 0xE908, symSize: 0x34 }
  - { offset: 0x21DD7, size: 0x8, addend: 0x0, symName: __RNvXs_NtNtCsdze8u8oDPro_5alloc3vec11spec_extendINtB6_3VecNtCs5PAMpfHI6O6_19icu_provider_macros13DataStructArgEINtB4_10SpecExtendBT_INtNtCs9f3LFPSIp77_4core6option8IntoIterBT_EE11spec_extendBV_, symObjAddr: 0x3AA0, symBinAddr: 0xEED0, symSize: 0x24 }
  - { offset: 0x21E29, size: 0x8, addend: 0x0, symName: __RNvXs_NtNtCsdze8u8oDPro_5alloc3vec11spec_extendINtB6_3VecNtCs5PAMpfHI6O6_19icu_provider_macros13DataStructArgEINtB4_10SpecExtendBT_INtNtNtNtCs9f3LFPSIp77_4core4iter8adapters3map3MapINtNtB6_9into_iter8IntoIterTBT_NtNtCsATtFUPiRFW_3syn5token5CommaEENCNvXs8_NtB3s_10punctuatedINtB45_10PunctuatedBT_B3o_ENtNtNtB2c_6traits7collect12IntoIterator9into_iter0EE11spec_extendBV_, symObjAddr: 0x3AC4, symBinAddr: 0xEEF4, symSize: 0x24 }
  - { offset: 0x21E7B, size: 0x8, addend: 0x0, symName: __RNvXs_NtNtCsdze8u8oDPro_5alloc3vec11spec_extendINtB6_3VecNtCs5PAMpfHI6O6_19icu_provider_macros19DataStructMarkerArgEINtB4_10SpecExtendBT_INtNtCs9f3LFPSIp77_4core6option8IntoIterBT_EE11spec_extendBV_, symObjAddr: 0x3AE8, symBinAddr: 0xEF18, symSize: 0x24 }
  - { offset: 0x21ECD, size: 0x8, addend: 0x0, symName: __RNvXs_NtNtCsdze8u8oDPro_5alloc3vec11spec_extendINtB6_3VecNtCs5PAMpfHI6O6_19icu_provider_macros19DataStructMarkerArgEINtB4_10SpecExtendBT_INtNtNtNtCs9f3LFPSIp77_4core4iter8adapters3map3MapINtNtB6_9into_iter8IntoIterTBT_NtNtCsATtFUPiRFW_3syn5token5CommaEENCNvXs8_NtB3y_10punctuatedINtB4b_10PunctuatedBT_B3u_ENtNtNtB2i_6traits7collect12IntoIterator9into_iter0EE11spec_extendBV_, symObjAddr: 0x3B0C, symBinAddr: 0xEF3C, symSize: 0x24 }
  - { offset: 0x21F2B, size: 0x8, addend: 0x0, symName: __RNvXNtNtCsdze8u8oDPro_5alloc3vec14spec_from_iterINtB4_3VecRNtNtCsATtFUPiRFW_3syn8generics13LifetimeParamEINtB2_12SpecFromIterBU_NtBX_9LifetimesE9from_iterCs5PAMpfHI6O6_19icu_provider_macros, symObjAddr: 0x350C, symBinAddr: 0xE93C, symSize: 0x2C }
  - { offset: 0x21F75, size: 0x8, addend: 0x0, symName: __RNvXNtNtCsdze8u8oDPro_5alloc3vec21spec_from_iter_nestedINtB4_3VecRNtNtCsATtFUPiRFW_3syn8generics13LifetimeParamEINtB2_18SpecFromIterNestedB11_NtB14_9LifetimesE9from_iterCs5PAMpfHI6O6_19icu_provider_macros, symObjAddr: 0x3538, symBinAddr: 0xE968, symSize: 0x228 }
  - { offset: 0x2228D, size: 0x8, addend: 0x0, symName: __RNvXse_NtCsdze8u8oDPro_5alloc3vecINtB5_3VecNtCs5PAMpfHI6O6_19icu_provider_macros13DataStructArgENtNtNtNtCs9f3LFPSIp77_4core4iter6traits7collect12IntoIterator9into_iterBH_, symObjAddr: 0x3B30, symBinAddr: 0xEF60, symSize: 0x100 }
  - { offset: 0x2255C, size: 0x8, addend: 0x0, symName: __RNvXse_NtCsdze8u8oDPro_5alloc3vecINtB5_3VecNtCs5PAMpfHI6O6_19icu_provider_macros19DataStructMarkerArgENtNtNtNtCs9f3LFPSIp77_4core4iter6traits7collect12IntoIterator9into_iterBH_, symObjAddr: 0x3C30, symBinAddr: 0xF060, symSize: 0x100 }
  - { offset: 0x2282B, size: 0x8, addend: 0x0, symName: __RNvXse_NtCsdze8u8oDPro_5alloc3vecINtB5_3VecTNtCs5PAMpfHI6O6_19icu_provider_macros13DataStructArgNtNtCsATtFUPiRFW_3syn5token5CommaEENtNtNtNtCs9f3LFPSIp77_4core4iter6traits7collect12IntoIterator9into_iterBI_, symObjAddr: 0x3D30, symBinAddr: 0xF160, symSize: 0x100 }
  - { offset: 0x22AFA, size: 0x8, addend: 0x0, symName: __RNvXse_NtCsdze8u8oDPro_5alloc3vecINtB5_3VecTNtCs5PAMpfHI6O6_19icu_provider_macros19DataStructMarkerArgNtNtCsATtFUPiRFW_3syn5token5CommaEENtNtNtNtCs9f3LFPSIp77_4core4iter6traits7collect12IntoIterator9into_iterBI_, symObjAddr: 0x3E30, symBinAddr: 0xF260, symSize: 0x100 }
  - { offset: 0x22DCF, size: 0x8, addend: 0x0, symName: __RNvXsn_NtCsdze8u8oDPro_5alloc3vecINtB5_3VecNtCs5PAMpfHI6O6_19icu_provider_macros13DataStructArgENtNtNtCs9f3LFPSIp77_4core3ops4drop4Drop4dropBH_, symObjAddr: 0x3FAC, symBinAddr: 0xF3DC, symSize: 0x50 }
  - { offset: 0x22EDC, size: 0x8, addend: 0x0, symName: __RNvXsn_NtCsdze8u8oDPro_5alloc3vecINtB5_3VecNtCs5PAMpfHI6O6_19icu_provider_macros19DataStructMarkerArgENtNtNtCs9f3LFPSIp77_4core3ops4drop4Drop4dropBH_, symObjAddr: 0x3FFC, symBinAddr: 0xF42C, symSize: 0x50 }
  - { offset: 0x22FE9, size: 0x8, addend: 0x0, symName: __RNvXsn_NtCsdze8u8oDPro_5alloc3vecINtB5_3VecRNtNtCsATtFUPiRFW_3syn8generics13LifetimeParamENtNtNtCs9f3LFPSIp77_4core3ops4drop4Drop4dropCs5PAMpfHI6O6_19icu_provider_macros, symObjAddr: 0x404C, symBinAddr: 0xF47C, symSize: 0x3C }
  - { offset: 0x230F6, size: 0x8, addend: 0x0, symName: __RNvXsn_NtCsdze8u8oDPro_5alloc3vecINtB5_3VecTNtCs5PAMpfHI6O6_19icu_provider_macros13DataStructArgNtNtCsATtFUPiRFW_3syn5token5CommaEENtNtNtCs9f3LFPSIp77_4core3ops4drop4Drop4dropBI_, symObjAddr: 0x4088, symBinAddr: 0xF4B8, symSize: 0x50 }
  - { offset: 0x23203, size: 0x8, addend: 0x0, symName: __RNvXsn_NtCsdze8u8oDPro_5alloc3vecINtB5_3VecTNtCs5PAMpfHI6O6_19icu_provider_macros19DataStructMarkerArgNtNtCsATtFUPiRFW_3syn5token5CommaEENtNtNtCs9f3LFPSIp77_4core3ops4drop4Drop4dropBI_, symObjAddr: 0x40D8, symBinAddr: 0xF508, symSize: 0x50 }
  - { offset: 0x24712, size: 0x8, addend: 0x0, symName: __RINvMNtCs9f3LFPSIp77_4core6optionINtB3_6OptionINtNtCsdze8u8oDPro_5alloc5boxed3BoxNtCs5PAMpfHI6O6_19icu_provider_macros13DataStructArgEE3mapB1h_NCNvXs8_NtCsATtFUPiRFW_3syn10punctuatedINtB2p_10PunctuatedB1h_NtNtB2r_5token5CommaENtNtNtNtB5_4iter6traits7collect12IntoIterator9into_iters_0EB1j_, symObjAddr: 0x0, symBinAddr: 0xB430, symSize: 0x70 }
  - { offset: 0x2478A, size: 0x8, addend: 0x0, symName: __RINvMNtCs9f3LFPSIp77_4core6optionINtB3_6OptionINtNtCsdze8u8oDPro_5alloc5boxed3BoxNtCs5PAMpfHI6O6_19icu_provider_macros19DataStructMarkerArgEE3mapB1h_NCNvXs8_NtCsATtFUPiRFW_3syn10punctuatedINtB2v_10PunctuatedB1h_NtNtB2x_5token5CommaENtNtNtNtB5_4iter6traits7collect12IntoIterator9into_iters_0EB1j_, symObjAddr: 0x70, symBinAddr: 0xB4A0, symSize: 0x70 }
  - { offset: 0x24820, size: 0x8, addend: 0x0, symName: __RINvMNtCs9f3LFPSIp77_4core6optionINtB3_6OptionNtCs475r2uZUTuc_11proc_macro211TokenStreamE14unwrap_or_elseNCNvCs5PAMpfHI6O6_19icu_provider_macros16data_struct_impls0_0EB1J_, symObjAddr: 0xE0, symBinAddr: 0xB510, symSize: 0x70 }
  - { offset: 0x2489D, size: 0x8, addend: 0x0, symName: __RINvMNtCs9f3LFPSIp77_4core6optionINtB3_6OptionRNtCs475r2uZUTuc_11proc_macro25IdentE10ok_or_elseNtNtCsATtFUPiRFW_3syn5error5ErrorNCNvXs1_Cs5PAMpfHI6O6_19icu_provider_macrosNtB2a_19DataStructMarkerArgNtNtB1z_5parse5Parse5parse0EB2a_, symObjAddr: 0x150, symBinAddr: 0xB580, symSize: 0x7C }
  - { offset: 0x24915, size: 0x8, addend: 0x0, symName: __RINvMNtCs9f3LFPSIp77_4core6optionINtB3_6OptionRNtNtCsATtFUPiRFW_3syn4attr9AttributeE3mapNtCs475r2uZUTuc_11proc_macro211TokenStreamNCNvCs5PAMpfHI6O6_19icu_provider_macros16data_struct_impls_0EB28_, symObjAddr: 0x1CC, symBinAddr: 0xB5FC, symSize: 0x6C }
  - { offset: 0x24C43, size: 0x8, addend: 0x0, symName: __RINvMsi_NtCsdze8u8oDPro_5alloc3vecINtB6_3VecNtCs5PAMpfHI6O6_19icu_provider_macros13DataStructArgE14extend_trustedINtNtCs9f3LFPSIp77_4core6option8IntoIterBG_EEBI_, symObjAddr: 0x238, symBinAddr: 0xB668, symSize: 0x1B4 }
  - { offset: 0x24FE4, size: 0x8, addend: 0x0, symName: __RINvMsi_NtCsdze8u8oDPro_5alloc3vecINtB6_3VecNtCs5PAMpfHI6O6_19icu_provider_macros13DataStructArgE14extend_trustedINtNtNtNtCs9f3LFPSIp77_4core4iter8adapters3map3MapINtNtB6_9into_iter8IntoIterTBG_NtNtCsATtFUPiRFW_3syn5token5CommaEENCNvXs8_NtB3a_10punctuatedINtB3N_10PunctuatedBG_B36_ENtNtNtB1U_6traits7collect12IntoIterator9into_iter0EEBI_, symObjAddr: 0x3EC, symBinAddr: 0xB81C, symSize: 0x19C }
  - { offset: 0x2538E, size: 0x8, addend: 0x0, symName: __RINvMsi_NtCsdze8u8oDPro_5alloc3vecINtB6_3VecNtCs5PAMpfHI6O6_19icu_provider_macros19DataStructMarkerArgE14extend_trustedINtNtCs9f3LFPSIp77_4core6option8IntoIterBG_EEBI_, symObjAddr: 0x588, symBinAddr: 0xB9B8, symSize: 0x1B4 }
  - { offset: 0x2572F, size: 0x8, addend: 0x0, symName: __RINvMsi_NtCsdze8u8oDPro_5alloc3vecINtB6_3VecNtCs5PAMpfHI6O6_19icu_provider_macros19DataStructMarkerArgE14extend_trustedINtNtNtNtCs9f3LFPSIp77_4core4iter8adapters3map3MapINtNtB6_9into_iter8IntoIterTBG_NtNtCsATtFUPiRFW_3syn5token5CommaEENCNvXs8_NtB3g_10punctuatedINtB3T_10PunctuatedBG_B3c_ENtNtNtB20_6traits7collect12IntoIterator9into_iter0EEBI_, symObjAddr: 0x73C, symBinAddr: 0xBB6C, symSize: 0x19C }
  - { offset: 0x25BBD, size: 0x8, addend: 0x0, symName: __RINvMsi_NtCsdze8u8oDPro_5alloc3vecINtB6_3VecRNtNtCsATtFUPiRFW_3syn8generics13LifetimeParamE16extend_desugaredNtBJ_9LifetimesECs5PAMpfHI6O6_19icu_provider_macros, symObjAddr: 0x8D8, symBinAddr: 0xBD08, symSize: 0x1AC }
  - { offset: 0x2648E, size: 0x8, addend: 0x0, symName: __RNvMNtCs9f3LFPSIp77_4core6optionINtB2_6OptionINtNtCsdze8u8oDPro_5alloc5boxed3BoxNtCs5PAMpfHI6O6_19icu_provider_macros13DataStructArgEE4takeB1i_, symObjAddr: 0x28F4, symBinAddr: 0xDD24, symSize: 0x2C }
  - { offset: 0x26563, size: 0x8, addend: 0x0, symName: __RNvMNtCs9f3LFPSIp77_4core6optionINtB2_6OptionINtNtCsdze8u8oDPro_5alloc5boxed3BoxNtCs5PAMpfHI6O6_19icu_provider_macros13DataStructArgEE7is_noneB1i_, symObjAddr: 0x2920, symBinAddr: 0xDD50, symSize: 0x4C }
  - { offset: 0x265AD, size: 0x8, addend: 0x0, symName: __RNvMNtCs9f3LFPSIp77_4core6optionINtB2_6OptionINtNtCsdze8u8oDPro_5alloc5boxed3BoxNtCs5PAMpfHI6O6_19icu_provider_macros13DataStructArgEE7is_someB1i_, symObjAddr: 0x296C, symBinAddr: 0xDD9C, symSize: 0x48 }
  - { offset: 0x265E6, size: 0x8, addend: 0x0, symName: __RNvMNtCs9f3LFPSIp77_4core6optionINtB2_6OptionINtNtCsdze8u8oDPro_5alloc5boxed3BoxNtCs5PAMpfHI6O6_19icu_provider_macros19DataStructMarkerArgEE4takeB1i_, symObjAddr: 0x29B4, symBinAddr: 0xDDE4, symSize: 0x2C }
  - { offset: 0x266BB, size: 0x8, addend: 0x0, symName: __RNvMNtCs9f3LFPSIp77_4core6optionINtB2_6OptionINtNtCsdze8u8oDPro_5alloc5boxed3BoxNtCs5PAMpfHI6O6_19icu_provider_macros19DataStructMarkerArgEE7is_noneB1i_, symObjAddr: 0x29E0, symBinAddr: 0xDE10, symSize: 0x4C }
  - { offset: 0x26705, size: 0x8, addend: 0x0, symName: __RNvMNtCs9f3LFPSIp77_4core6optionINtB2_6OptionINtNtCsdze8u8oDPro_5alloc5boxed3BoxNtCs5PAMpfHI6O6_19icu_provider_macros19DataStructMarkerArgEE7is_someB1i_, symObjAddr: 0x2A2C, symBinAddr: 0xDE5C, symSize: 0x48 }
  - { offset: 0x2673E, size: 0x8, addend: 0x0, symName: __RNvMNtCs9f3LFPSIp77_4core6optionINtB2_6OptionNtNtCsATtFUPiRFW_3syn3lit6LitStrE7is_someCs5PAMpfHI6O6_19icu_provider_macros, symObjAddr: 0x2A74, symBinAddr: 0xDEA4, symSize: 0x48 }
  - { offset: 0x26777, size: 0x8, addend: 0x0, symName: __RNvMNtCs9f3LFPSIp77_4core6optionINtB2_6OptionNtNtCsATtFUPiRFW_3syn3lit6LitStrE7replaceCs5PAMpfHI6O6_19icu_provider_macros, symObjAddr: 0x2ABC, symBinAddr: 0xDEEC, symSize: 0x34 }
  - { offset: 0x2683F, size: 0x8, addend: 0x0, symName: __RNvMNtCs9f3LFPSIp77_4core6optionINtB2_6OptionNtNtCsATtFUPiRFW_3syn4path4PathE7is_someCs5PAMpfHI6O6_19icu_provider_macros, symObjAddr: 0x2AF0, symBinAddr: 0xDF20, symSize: 0x4C }
  - { offset: 0x26878, size: 0x8, addend: 0x0, symName: __RNvMNtCs9f3LFPSIp77_4core6optionINtB2_6OptionNtNtCsATtFUPiRFW_3syn4path4PathE7replaceCs5PAMpfHI6O6_19icu_provider_macros, symObjAddr: 0x2B3C, symBinAddr: 0xDF6C, symSize: 0x5C }
  - { offset: 0x26995, size: 0x8, addend: 0x0, symName: __RNvMNtCsdze8u8oDPro_5alloc3vecINtB2_3VecNtCs5PAMpfHI6O6_19icu_provider_macros13DataStructArgE13with_capacityBE_, symObjAddr: 0x2B98, symBinAddr: 0xDFC8, symSize: 0x44 }
  - { offset: 0x26A6D, size: 0x8, addend: 0x0, symName: __RNvMNtCsdze8u8oDPro_5alloc3vecINtB2_3VecNtCs5PAMpfHI6O6_19icu_provider_macros19DataStructMarkerArgE13with_capacityBE_, symObjAddr: 0x2BDC, symBinAddr: 0xE00C, symSize: 0x44 }
  - { offset: 0x26B50, size: 0x8, addend: 0x0, symName: __RNvMNtCsdze8u8oDPro_5alloc3vecINtB2_3VecTNtCs5PAMpfHI6O6_19icu_provider_macros13DataStructArgNtNtCsATtFUPiRFW_3syn5token5CommaEE3newBF_, symObjAddr: 0x2C20, symBinAddr: 0xE050, symSize: 0x28 }
  - { offset: 0x26C44, size: 0x8, addend: 0x0, symName: __RNvMNtCsdze8u8oDPro_5alloc3vecINtB2_3VecTNtCs5PAMpfHI6O6_19icu_provider_macros19DataStructMarkerArgNtNtCsATtFUPiRFW_3syn5token5CommaEE3newBF_, symObjAddr: 0x2C48, symBinAddr: 0xE078, symSize: 0x28 }
  - { offset: 0x26E2F, size: 0x8, addend: 0x0, symName: __RNvMNtCsdze8u8oDPro_5alloc5allocNtB2_6Global10alloc_implCs5PAMpfHI6O6_19icu_provider_macros, symObjAddr: 0x2C70, symBinAddr: 0xE0A0, symSize: 0x1BC }
  - { offset: 0x272E5, size: 0x8, addend: 0x0, symName: __RNvMs_NtCsdze8u8oDPro_5alloc3vecINtB4_3VecNtCs5PAMpfHI6O6_19icu_provider_macros13DataStructArgE7reserveBG_, symObjAddr: 0x2E2C, symBinAddr: 0xE25C, symSize: 0xC4 }
  - { offset: 0x27535, size: 0x8, addend: 0x0, symName: __RNvMs_NtCsdze8u8oDPro_5alloc3vecINtB4_3VecNtCs5PAMpfHI6O6_19icu_provider_macros19DataStructMarkerArgE7reserveBG_, symObjAddr: 0x2EF0, symBinAddr: 0xE320, symSize: 0xC4 }
  - { offset: 0x27681, size: 0x8, addend: 0x0, symName: __RNvMs_NtCsdze8u8oDPro_5alloc3vecINtB4_3VecRNtNtCsATtFUPiRFW_3syn8generics13LifetimeParamE3lenCs5PAMpfHI6O6_19icu_provider_macros, symObjAddr: 0x2FB4, symBinAddr: 0xE3E4, symSize: 0x18 }
  - { offset: 0x277BA, size: 0x8, addend: 0x0, symName: __RNvMs_NtCsdze8u8oDPro_5alloc3vecINtB4_3VecRNtNtCsATtFUPiRFW_3syn8generics13LifetimeParamE7reserveCs5PAMpfHI6O6_19icu_provider_macros, symObjAddr: 0x2FCC, symBinAddr: 0xE3FC, symSize: 0xB8 }
  - { offset: 0x2792B, size: 0x8, addend: 0x0, symName: __RNvMs_NtCsdze8u8oDPro_5alloc3vecINtB4_3VecRNtNtCsATtFUPiRFW_3syn8generics13LifetimeParamE8is_emptyCs5PAMpfHI6O6_19icu_provider_macros, symObjAddr: 0x3084, symBinAddr: 0xE4B4, symSize: 0x20 }
  - { offset: 0x2798B, size: 0x8, addend: 0x0, symName: __RNvMs_NtCsdze8u8oDPro_5alloc3vecINtB4_3VecTNtCs5PAMpfHI6O6_19icu_provider_macros13DataStructArgNtNtCsATtFUPiRFW_3syn5token5CommaEE3lenBH_, symObjAddr: 0x30A4, symBinAddr: 0xE4D4, symSize: 0x18 }
  - { offset: 0x27B2E, size: 0x8, addend: 0x0, symName: __RNvMs_NtCsdze8u8oDPro_5alloc3vecINtB4_3VecTNtCs5PAMpfHI6O6_19icu_provider_macros13DataStructArgNtNtCsATtFUPiRFW_3syn5token5CommaEE4pushBH_, symObjAddr: 0x30BC, symBinAddr: 0xE4EC, symSize: 0x12C }
  - { offset: 0x27D31, size: 0x8, addend: 0x0, symName: __RNvMs_NtCsdze8u8oDPro_5alloc3vecINtB4_3VecTNtCs5PAMpfHI6O6_19icu_provider_macros19DataStructMarkerArgNtNtCsATtFUPiRFW_3syn5token5CommaEE3lenBH_, symObjAddr: 0x31E8, symBinAddr: 0xE618, symSize: 0x18 }
  - { offset: 0x27ED4, size: 0x8, addend: 0x0, symName: __RNvMs_NtCsdze8u8oDPro_5alloc3vecINtB4_3VecTNtCs5PAMpfHI6O6_19icu_provider_macros19DataStructMarkerArgNtNtCsATtFUPiRFW_3syn5token5CommaEE4pushBH_, symObjAddr: 0x3200, symBinAddr: 0xE630, symSize: 0x124 }
  - { offset: 0x280D8, size: 0x8, addend: 0x0, symName: __RNvMsa_NtNtCsjLJ1XWNSM6u_10proc_macro6bridge6clientNtB5_14HandleCounters3getCs5PAMpfHI6O6_19icu_provider_macros, symObjAddr: 0x3324, symBinAddr: 0xE754, symSize: 0xC }
  - { offset: 0x2969B, size: 0x8, addend: 0x0, symName: __RINvCsATtFUPiRFW_3syn5parseNtCs5PAMpfHI6O6_19icu_provider_macros14DataStructArgsEBr_, symObjAddr: 0x0, symBinAddr: 0xF868, symSize: 0x30 }
  - { offset: 0x299A3, size: 0x8, addend: 0x0, symName: __RNCNvMs3_NtNtCs27l1GJC5rMQ_3std6thread5localINtB7_8LocalKeyINtNtCs9f3LFPSIp77_4core4cell4CellPuEE7replace0Cs5PAMpfHI6O6_19icu_provider_macros, symObjAddr: 0xC10, symBinAddr: 0x10478, symSize: 0x44 }
  - { offset: 0x2A4FC, size: 0x8, addend: 0x0, symName: __RNvNvMNtNtCs9f3LFPSIp77_4core3ptr9const_ptrPp7sub_ptr18precondition_checkCs5PAMpfHI6O6_19icu_provider_macros, symObjAddr: 0xEDC, symBinAddr: 0x10744, symSize: 0x40 }
  - { offset: 0x2AB3B, size: 0x8, addend: 0x0, symName: __RNvNvNtCs9f3LFPSIp77_4core3ptr13read_volatile18precondition_checkCs5PAMpfHI6O6_19icu_provider_macros, symObjAddr: 0xF6C, symBinAddr: 0x107D4, symSize: 0xEC }
  - { offset: 0x2E0A3, size: 0x8, addend: 0x0, symName: __RNCINvNtNtNtCs9f3LFPSIp77_4core4iter8adapters3map8map_foldTNtCs5PAMpfHI6O6_19icu_provider_macros13DataStructArgNtNtCsATtFUPiRFW_3syn5token5CommaEBV_uNCNvXs8_NtB1P_10punctuatedINtB2v_10PunctuatedBV_B1L_ENtNtNtB8_6traits7collect12IntoIterator9into_iter0NCINvNvNtNtB3i_8iterator8Iterator8for_each4callBV_NCINvMsi_NtCsdze8u8oDPro_5alloc3vecINtB4Y_3VecBV_E14extend_trustedINtB4_3MapINtNtB4Y_9into_iter8IntoIterBU_EB2n_EE0E0E0BX_, symObjAddr: 0xA0C, symBinAddr: 0x10274, symSize: 0xB0 }
  - { offset: 0x2E128, size: 0x8, addend: 0x0, symName: __RNCINvNtNtNtCs9f3LFPSIp77_4core4iter8adapters3map8map_foldTNtCs5PAMpfHI6O6_19icu_provider_macros19DataStructMarkerArgNtNtCsATtFUPiRFW_3syn5token5CommaEBV_uNCNvXs8_NtB1V_10punctuatedINtB2B_10PunctuatedBV_B1R_ENtNtNtB8_6traits7collect12IntoIterator9into_iter0NCINvNvNtNtB3o_8iterator8Iterator8for_each4callBV_NCINvMsi_NtCsdze8u8oDPro_5alloc3vecINtB54_3VecBV_E14extend_trustedINtB4_3MapINtNtB54_9into_iter8IntoIterBU_EB2t_EE0E0E0BX_, symObjAddr: 0xABC, symBinAddr: 0x10324, symSize: 0xA8 }
  - { offset: 0x2E1B3, size: 0x8, addend: 0x0, symName: __RINvXs0_NtNtNtCs9f3LFPSIp77_4core4iter8adapters3mapINtB6_3MapINtNtNtCsdze8u8oDPro_5alloc3vec9into_iter8IntoIterTNtCs5PAMpfHI6O6_19icu_provider_macros13DataStructArgNtNtCsATtFUPiRFW_3syn5token5CommaEENCNvXs8_NtB2G_10punctuatedINtB3j_10PunctuatedB1M_B2C_ENtNtNtBa_6traits7collect12IntoIterator9into_iter0ENtNtB47_8iterator8Iterator4folduNCINvNvB4R_8for_each4callB1M_NCINvMsi_B12_INtB12_3VecB1M_E14extend_trustedBN_E0E0EB1O_, symObjAddr: 0x25C, symBinAddr: 0xFAC4, symSize: 0x4C }
  - { offset: 0x2E24C, size: 0x8, addend: 0x0, symName: __RINvXs0_NtNtNtCs9f3LFPSIp77_4core4iter8adapters3mapINtB6_3MapINtNtNtCsdze8u8oDPro_5alloc3vec9into_iter8IntoIterTNtCs5PAMpfHI6O6_19icu_provider_macros19DataStructMarkerArgNtNtCsATtFUPiRFW_3syn5token5CommaEENCNvXs8_NtB2M_10punctuatedINtB3p_10PunctuatedB1M_B2I_ENtNtNtBa_6traits7collect12IntoIterator9into_iter0ENtNtB4d_8iterator8Iterator4folduNCINvNvB4X_8for_each4callB1M_NCINvMsi_B12_INtB12_3VecB1M_E14extend_trustedBN_E0E0EB1O_, symObjAddr: 0x2A8, symBinAddr: 0xFB10, symSize: 0x4C }
  - { offset: 0x2E2E5, size: 0x8, addend: 0x0, symName: __RNvXs0_NtNtNtCs9f3LFPSIp77_4core4iter8adapters3mapINtB5_3MapINtNtNtCsdze8u8oDPro_5alloc3vec9into_iter8IntoIterTNtCs5PAMpfHI6O6_19icu_provider_macros13DataStructArgNtNtCsATtFUPiRFW_3syn5token5CommaEENCNvXs8_NtB2F_10punctuatedINtB3i_10PunctuatedB1L_B2B_ENtNtNtB9_6traits7collect12IntoIterator9into_iter0ENtNtB46_8iterator8Iterator9size_hintB1N_, symObjAddr: 0x15A0, symBinAddr: 0x10E08, symSize: 0x24 }
  - { offset: 0x2E32C, size: 0x8, addend: 0x0, symName: __RNvXs0_NtNtNtCs9f3LFPSIp77_4core4iter8adapters3mapINtB5_3MapINtNtNtCsdze8u8oDPro_5alloc3vec9into_iter8IntoIterTNtCs5PAMpfHI6O6_19icu_provider_macros19DataStructMarkerArgNtNtCsATtFUPiRFW_3syn5token5CommaEENCNvXs8_NtB2L_10punctuatedINtB3o_10PunctuatedB1L_B2H_ENtNtNtB9_6traits7collect12IntoIterator9into_iter0ENtNtB4c_8iterator8Iterator9size_hintB1N_, symObjAddr: 0x15C4, symBinAddr: 0x10E2C, symSize: 0x24 }
  - { offset: 0x2E53C, size: 0x8, addend: 0x0, symName: __RINvYINtNtNtCsdze8u8oDPro_5alloc3vec9into_iter8IntoIterTNtCs5PAMpfHI6O6_19icu_provider_macros13DataStructArgNtNtCsATtFUPiRFW_3syn5token5CommaEENtNtNtNtCs9f3LFPSIp77_4core4iter6traits8iterator8Iterator3mapBS_NCNvXs8_NtB1M_10punctuatedINtB3r_10PunctuatedBS_B1I_ENtNtB2l_7collect12IntoIterator9into_iter0EBU_, symObjAddr: 0x810, symBinAddr: 0x10078, symSize: 0x1C }
  - { offset: 0x2E5BA, size: 0x8, addend: 0x0, symName: __RINvYINtNtNtCsdze8u8oDPro_5alloc3vec9into_iter8IntoIterTNtCs5PAMpfHI6O6_19icu_provider_macros19DataStructMarkerArgNtNtCsATtFUPiRFW_3syn5token5CommaEENtNtNtNtCs9f3LFPSIp77_4core4iter6traits8iterator8Iterator3mapBS_NCNvXs8_NtB1S_10punctuatedINtB3x_10PunctuatedBS_B1O_ENtNtB2r_7collect12IntoIterator9into_iter0EBU_, symObjAddr: 0x82C, symBinAddr: 0x10094, symSize: 0x1C }
  - { offset: 0x2E638, size: 0x8, addend: 0x0, symName: __RINvYINtNtNtNtCs9f3LFPSIp77_4core4iter8adapters3map3MapINtNtNtCsdze8u8oDPro_5alloc3vec9into_iter8IntoIterTNtCs5PAMpfHI6O6_19icu_provider_macros13DataStructArgNtNtCsATtFUPiRFW_3syn5token5CommaEENCNvXs8_NtB2A_10punctuatedINtB3d_10PunctuatedB1G_B2w_ENtNtNtBa_6traits7collect12IntoIterator9into_iter0ENtNtB41_8iterator8Iterator8for_eachNCINvMsi_BW_INtBW_3VecB1G_E14extend_trustedB3_E0EB1I_, symObjAddr: 0x848, symBinAddr: 0x100B0, symSize: 0x34 }
  - { offset: 0x2E6A4, size: 0x8, addend: 0x0, symName: __RINvYINtNtNtNtCs9f3LFPSIp77_4core4iter8adapters3map3MapINtNtNtCsdze8u8oDPro_5alloc3vec9into_iter8IntoIterTNtCs5PAMpfHI6O6_19icu_provider_macros19DataStructMarkerArgNtNtCsATtFUPiRFW_3syn5token5CommaEENCNvXs8_NtB2G_10punctuatedINtB3j_10PunctuatedB1G_B2C_ENtNtNtBa_6traits7collect12IntoIterator9into_iter0ENtNtB47_8iterator8Iterator8for_eachNCINvMsi_BW_INtBW_3VecB1G_E14extend_trustedB3_E0EB1I_, symObjAddr: 0x87C, symBinAddr: 0x100E4, symSize: 0x34 }
  - { offset: 0x2E710, size: 0x8, addend: 0x0, symName: __RINvYNtNtCs475r2uZUTuc_11proc_macro212token_stream8IntoIterNtNtNtNtCs9f3LFPSIp77_4core4iter6traits8iterator8Iterator4folduNCINvNvBV_8for_each4callNtB7_9TokenTreeNCINvXsa_NtB7_8fallbackNtB2I_11TokenStreamINtNtBZ_7collect6ExtendB2k_E6extendNtB7_11TokenStreamE0E0ECs5PAMpfHI6O6_19icu_provider_macros, symObjAddr: 0x8B0, symBinAddr: 0x10118, symSize: 0x10C }
  - { offset: 0x2E7A0, size: 0x8, addend: 0x0, symName: __RINvYNtNtCs475r2uZUTuc_11proc_macro212token_stream8IntoIterNtNtNtNtCs9f3LFPSIp77_4core4iter6traits8iterator8Iterator8for_eachNCINvXsa_NtB7_8fallbackNtB28_11TokenStreamINtNtBZ_7collect6ExtendNtB7_9TokenTreeE6extendNtB7_11TokenStreamE0ECs5PAMpfHI6O6_19icu_provider_macros, symObjAddr: 0x9BC, symBinAddr: 0x10224, symSize: 0x24 }
  - { offset: 0x2E7EC, size: 0x8, addend: 0x0, symName: __RINvYNtNtCsATtFUPiRFW_3syn8generics9LifetimesNtNtNtNtCs9f3LFPSIp77_4core4iter6traits8iterator8Iterator7collectINtNtCsdze8u8oDPro_5alloc3vec3VecRNtB5_13LifetimeParamEECs5PAMpfHI6O6_19icu_provider_macros, symObjAddr: 0x9E0, symBinAddr: 0x10248, symSize: 0x2C }
  - { offset: 0x2E838, size: 0x8, addend: 0x0, symName: __RNvXs_NtNtNtCs9f3LFPSIp77_4core4iter6traits7collectINtNtNtB8_8adapters3map3MapINtNtNtCsdze8u8oDPro_5alloc3vec9into_iter8IntoIterTNtCs5PAMpfHI6O6_19icu_provider_macros13DataStructArgNtNtCsATtFUPiRFW_3syn5token5CommaEENCNvXs8_NtB2X_10punctuatedINtB3A_10PunctuatedB23_B2T_ENtB4_12IntoIterator9into_iter0EB4k_9into_iterB25_, symObjAddr: 0x2200, symBinAddr: 0x11A68, symSize: 0x14 }
  - { offset: 0x2E86F, size: 0x8, addend: 0x0, symName: __RNvXs_NtNtNtCs9f3LFPSIp77_4core4iter6traits7collectINtNtNtB8_8adapters3map3MapINtNtNtCsdze8u8oDPro_5alloc3vec9into_iter8IntoIterTNtCs5PAMpfHI6O6_19icu_provider_macros19DataStructMarkerArgNtNtCsATtFUPiRFW_3syn5token5CommaEENCNvXs8_NtB33_10punctuatedINtB3G_10PunctuatedB23_B2Z_ENtB4_12IntoIterator9into_iter0EB4q_9into_iterB25_, symObjAddr: 0x2214, symBinAddr: 0x11A7C, symSize: 0x14 }
  - { offset: 0x2E8A6, size: 0x8, addend: 0x0, symName: __RNvXs_NtNtNtCs9f3LFPSIp77_4core4iter6traits7collectNtNtCsATtFUPiRFW_3syn8generics9LifetimesNtB4_12IntoIterator9into_iterCs5PAMpfHI6O6_19icu_provider_macros, symObjAddr: 0x2228, symBinAddr: 0x11A90, symSize: 0x1C }
  - { offset: 0x2E983, size: 0x8, addend: 0x0, symName: __RNvYINtNtNtCsdze8u8oDPro_5alloc3vec9into_iter8IntoIterNtCs5PAMpfHI6O6_19icu_provider_macros13DataStructArgENtNtNtNtCs9f3LFPSIp77_4core4iter6traits10exact_size17ExactSizeIterator3lenBS_, symObjAddr: 0x2F08, symBinAddr: 0x12770, symSize: 0xC4 }
  - { offset: 0x2EA75, size: 0x8, addend: 0x0, symName: __RNvYINtNtNtCsdze8u8oDPro_5alloc3vec9into_iter8IntoIterNtCs5PAMpfHI6O6_19icu_provider_macros19DataStructMarkerArgENtNtNtNtCs9f3LFPSIp77_4core4iter6traits10exact_size17ExactSizeIterator3lenBS_, symObjAddr: 0x2FCC, symBinAddr: 0x12834, symSize: 0xC4 }
  - { offset: 0x2EB67, size: 0x8, addend: 0x0, symName: __RNvYINtNtNtCsdze8u8oDPro_5alloc3vec9into_iter8IntoIterTNtCs5PAMpfHI6O6_19icu_provider_macros13DataStructArgNtNtCsATtFUPiRFW_3syn5token5CommaEENtNtNtNtCs9f3LFPSIp77_4core4iter6traits10exact_size17ExactSizeIterator3lenBT_, symObjAddr: 0x3090, symBinAddr: 0x128F8, symSize: 0xC4 }
  - { offset: 0x2EC59, size: 0x8, addend: 0x0, symName: __RNvYINtNtNtCsdze8u8oDPro_5alloc3vec9into_iter8IntoIterTNtCs5PAMpfHI6O6_19icu_provider_macros19DataStructMarkerArgNtNtCsATtFUPiRFW_3syn5token5CommaEENtNtNtNtCs9f3LFPSIp77_4core4iter6traits10exact_size17ExactSizeIterator3lenBT_, symObjAddr: 0x3154, symBinAddr: 0x129BC, symSize: 0xC4 }
  - { offset: 0x2F127, size: 0x8, addend: 0x0, symName: __RNvMNtCs9f3LFPSIp77_4core5sliceSh15copy_from_sliceCs5PAMpfHI6O6_19icu_provider_macros, symObjAddr: 0xC54, symBinAddr: 0x104BC, symSize: 0xA4 }
  - { offset: 0x2F1D6, size: 0x8, addend: 0x0, symName: __RNvNvNtNtCs9f3LFPSIp77_4core5slice3raw14from_raw_parts18precondition_checkCs5PAMpfHI6O6_19icu_provider_macros, symObjAddr: 0x1058, symBinAddr: 0x108C0, symSize: 0x164 }
  - { offset: 0x2F5EE, size: 0x8, addend: 0x0, symName: __RNvNvMNtNtCs9f3LFPSIp77_4core5alloc6layoutNtB4_6Layout25from_size_align_unchecked18precondition_checkCs5PAMpfHI6O6_19icu_provider_macros, symObjAddr: 0xF1C, symBinAddr: 0x10784, symSize: 0x50 }
  - { offset: 0x2F6F3, size: 0x8, addend: 0x0, symName: __RNvXsn_NtNtCs9f3LFPSIp77_4core5panic11unwind_safeINtB5_16AssertUnwindSafeNCINvNtNtCsjLJ1XWNSM6u_10proc_macro6bridge6client10run_clientTNtB1e_11TokenStreamB29_EINtNtB9_6option6OptionB29_ENCNCINvMs8_B1e_INtB1e_6ClientTNtB1i_11TokenStreamB3s_EB3s_E7expand2NvCs5PAMpfHI6O6_19icu_provider_macros11data_structE00E0EINtNtNtB9_3ops8function6FnOnceuE9call_onceB45_, symObjAddr: 0x2DAC, symBinAddr: 0x12614, symSize: 0x38 }
  - { offset: 0x2FB90, size: 0x8, addend: 0x0, symName: __RINvNvNtNtCsjLJ1XWNSM6u_10proc_macro6bridge14selfless_reify31reify_to_extern_c_fn_hrt_bridge7wrapperNtNtB6_6buffer6BufferNCINvMs8_NtB6_6clientINtB24_6ClientTNtB8_11TokenStreamB2v_EB2v_E7expand2NvCs5PAMpfHI6O6_19icu_provider_macros11data_structE0EB37_, symObjAddr: 0x210, symBinAddr: 0xFA78, symSize: 0x4C }
  - { offset: 0x2FBF7, size: 0x8, addend: 0x0, symName: __RNvXNtNtCsjLJ1XWNSM6u_10proc_macro6bridge3rpcuINtB2_6EncodeuE6encodeCs5PAMpfHI6O6_19icu_provider_macros, symObjAddr: 0x12E4, symBinAddr: 0x10B4C, symSize: 0x14 }
  - { offset: 0x2FC4C, size: 0x8, addend: 0x0, symName: __RNvXs7_NtNtCsjLJ1XWNSM6u_10proc_macro6bridge3rpcINtNtNtCs9f3LFPSIp77_4core3num7nonzero7NonZeromEINtB5_9DecodeMutuE6decodeCs5PAMpfHI6O6_19icu_provider_macros, symObjAddr: 0x1F6C, symBinAddr: 0x117D4, symSize: 0x5C }
  - { offset: 0x2FCCF, size: 0x8, addend: 0x0, symName: __RNvXs9_NtNtCsjLJ1XWNSM6u_10proc_macro6bridge3rpcTINtB7_11ExpnGlobalsNtNtB7_6client4SpanETNtB16_11TokenStreamB1p_EEINtB5_9DecodeMutuE6decodeCs5PAMpfHI6O6_19icu_provider_macros, symObjAddr: 0x1FC8, symBinAddr: 0x11830, symSize: 0x90 }
  - { offset: 0x2FD5C, size: 0x8, addend: 0x0, symName: __RNvXsa_NtNtCsjLJ1XWNSM6u_10proc_macro6bridge3rpcRShINtB5_6EncodeuE6encodeCs5PAMpfHI6O6_19icu_provider_macros, symObjAddr: 0x2244, symBinAddr: 0x11AAC, symSize: 0xD0 }
  - { offset: 0x2FE67, size: 0x8, addend: 0x0, symName: __RNvXsc_NtNtCsjLJ1XWNSM6u_10proc_macro6bridge3rpcReINtB5_6EncodeuE6encodeCs5PAMpfHI6O6_19icu_provider_macros, symObjAddr: 0x2314, symBinAddr: 0x11B7C, symSize: 0x38 }
  - { offset: 0x2FF4F, size: 0x8, addend: 0x0, symName: __RNvXsl_NtNtCsjLJ1XWNSM6u_10proc_macro6bridge3rpcNtB5_12PanicMessageINtB5_6EncodeuE6encodeCs5PAMpfHI6O6_19icu_provider_macros, symObjAddr: 0x2C6C, symBinAddr: 0x124D4, symSize: 0x140 }
  - { offset: 0x30197, size: 0x8, addend: 0x0, symName: __RNvXso_NtNtCsjLJ1XWNSM6u_10proc_macro6bridge3rpcmINtB5_9DecodeMutuE6decodeCs5PAMpfHI6O6_19icu_provider_macros, symObjAddr: 0x2DE4, symBinAddr: 0x1264C, symSize: 0x114 }
  - { offset: 0x30356, size: 0x8, addend: 0x0, symName: __RNvXs1J_NtCsjLJ1XWNSM6u_10proc_macro6bridgeINtB6_11ExpnGlobalsNtNtB6_6client4SpanEINtNtB6_3rpc9DecodeMutuE6decodeCs5PAMpfHI6O6_19icu_provider_macros, symObjAddr: 0x15E8, symBinAddr: 0x10E50, symSize: 0xB0 }
  - { offset: 0x306F4, size: 0x8, addend: 0x0, symName: __RNvXs1l_CsjLJ1XWNSM6u_10proc_macroNtB6_5IdentNtNtCs9f3LFPSIp77_4core5clone5Clone5cloneCs5PAMpfHI6O6_19icu_provider_macros, symObjAddr: 0x1698, symBinAddr: 0x10F00, symSize: 0x40 }
  - { offset: 0x309A2, size: 0x8, addend: 0x0, symName: __RINvXs7_NtCs475r2uZUTuc_11proc_macro23impNtB6_11TokenStreamINtNtNtNtCs9f3LFPSIp77_4core4iter6traits7collect6ExtendNtB8_9TokenTreeE6extendNtB8_11TokenStreamECs5PAMpfHI6O6_19icu_provider_macros, symObjAddr: 0x5E0, symBinAddr: 0xFE48, symSize: 0x170 }
  - { offset: 0x30A3E, size: 0x8, addend: 0x0, symName: __RNvXsF_NtCs475r2uZUTuc_11proc_macro23impNtB5_5IdentNtNtCs9f3LFPSIp77_4core5clone5Clone5cloneCs5PAMpfHI6O6_19icu_provider_macros, symObjAddr: 0x20EC, symBinAddr: 0x11954, symSize: 0x9C }
  - { offset: 0x30BA8, size: 0x8, addend: 0x0, symName: __RINvXsa_NtCs475r2uZUTuc_11proc_macro28fallbackNtB6_11TokenStreamINtNtNtNtCs9f3LFPSIp77_4core4iter6traits7collect6ExtendNtB8_9TokenTreeE6extendNtB8_11TokenStreamECs5PAMpfHI6O6_19icu_provider_macros, symObjAddr: 0x750, symBinAddr: 0xFFB8, symSize: 0xC0 }
  - { offset: 0x30C0E, size: 0x8, addend: 0x0, symName: __RNCINvXsa_NtCs475r2uZUTuc_11proc_macro28fallbackNtB8_11TokenStreamINtNtNtNtCs9f3LFPSIp77_4core4iter6traits7collect6ExtendNtBa_9TokenTreeE6extendNtBa_11TokenStreamE0Cs5PAMpfHI6O6_19icu_provider_macros, symObjAddr: 0xB64, symBinAddr: 0x103CC, symSize: 0xAC }
  - { offset: 0x30C6E, size: 0x8, addend: 0x0, symName: __RNvXsA_NtCs475r2uZUTuc_11proc_macro28fallbackNtB5_5IdentNtNtCs9f3LFPSIp77_4core5clone5Clone5cloneCs5PAMpfHI6O6_19icu_provider_macros, symObjAddr: 0x2058, symBinAddr: 0x118C0, symSize: 0x94 }
  - { offset: 0x30CA2, size: 0x8, addend: 0x0, symName: __RNvXsu_NtCs475r2uZUTuc_11proc_macro28fallbackNtB5_4SpanNtNtCs9f3LFPSIp77_4core5clone5Clone5cloneCs5PAMpfHI6O6_19icu_provider_macros, symObjAddr: 0x2EF8, symBinAddr: 0x12760, symSize: 0x10 }
  - { offset: 0x30F2F, size: 0x8, addend: 0x0, symName: __RINvXs4_Cs475r2uZUTuc_11proc_macro2NtB6_11TokenStreamINtNtNtNtCs9f3LFPSIp77_4core4iter6traits7collect6ExtendNtB6_9TokenTreeE6extendBx_ECs5PAMpfHI6O6_19icu_provider_macros, symObjAddr: 0x5AC, symBinAddr: 0xFE14, symSize: 0x34 }
  - { offset: 0x30F78, size: 0x8, addend: 0x0, symName: __RNvXsY_Cs475r2uZUTuc_11proc_macro2NtB5_5IdentNtNtCs9f3LFPSIp77_4core5clone5Clone5cloneCs5PAMpfHI6O6_19icu_provider_macros, symObjAddr: 0x2188, symBinAddr: 0x119F0, symSize: 0x78 }
  - { offset: 0x30FDB, size: 0x8, addend: 0x0, symName: __RINvCsATtFUPiRFW_3syn5parseNtCs5PAMpfHI6O6_19icu_provider_macros14DataStructArgsEBr_, symObjAddr: 0x0, symBinAddr: 0xF868, symSize: 0x30 }
  - { offset: 0x31012, size: 0x8, addend: 0x0, symName: __RINvCsATtFUPiRFW_3syn5parseNtNtB2_6derive11DeriveInputECs5PAMpfHI6O6_19icu_provider_macros, symObjAddr: 0x30, symBinAddr: 0xF898, symSize: 0x30 }
  - { offset: 0x3116E, size: 0x8, addend: 0x0, symName: __RNvXsh_NtCsATtFUPiRFW_3syn5parseNvYNtCs5PAMpfHI6O6_19icu_provider_macros14DataStructArgsNtB5_5Parse5parseNtB5_6Parser6parse2Bz_, symObjAddr: 0x25AC, symBinAddr: 0x11E14, symSize: 0x354 }
  - { offset: 0x3127B, size: 0x8, addend: 0x0, symName: __RNvXsh_NtCsATtFUPiRFW_3syn5parseNvYNtNtB7_6derive11DeriveInputNtB5_5Parse5parseNtB5_6Parser6parse2Cs5PAMpfHI6O6_19icu_provider_macros, symObjAddr: 0x2900, symBinAddr: 0x12168, symSize: 0x36C }
  - { offset: 0x3138F, size: 0x8, addend: 0x0, symName: __RNvYNvYNtCs5PAMpfHI6O6_19icu_provider_macros14DataStructArgsNtNtCsATtFUPiRFW_3syn5parse5Parse5parseNtBY_6Parser5parseB7_, symObjAddr: 0x3218, symBinAddr: 0x12A80, symSize: 0x88 }
  - { offset: 0x313D5, size: 0x8, addend: 0x0, symName: __RNvYNvYNtNtCsATtFUPiRFW_3syn6derive11DeriveInputNtNtB9_5parse5Parse5parseNtBM_6Parser5parseCs5PAMpfHI6O6_19icu_provider_macros, symObjAddr: 0x32A0, symBinAddr: 0x12B08, symSize: 0x88 }
  - { offset: 0x362B4, size: 0x8, addend: 0x0, symName: __RNvXNtCsATtFUPiRFW_3syn7spannedNtNtB4_4path4PathNtB2_7Spanned4spanCs5PAMpfHI6O6_19icu_provider_macros, symObjAddr: 0x127C, symBinAddr: 0x10AE4, symSize: 0x34 }
  - { offset: 0x362E9, size: 0x8, addend: 0x0, symName: __RNvXNtCsATtFUPiRFW_3syn7spannedNtNtB4_8generics8GenericsNtB2_7Spanned4spanCs5PAMpfHI6O6_19icu_provider_macros, symObjAddr: 0x12B0, symBinAddr: 0x10B18, symSize: 0x34 }
  - { offset: 0x365BF, size: 0x8, addend: 0x0, symName: __RINvMs0_NtCs9f3LFPSIp77_4core3fmtNtB6_9Arguments6new_v1Kj4_KBS_ECs5PAMpfHI6O6_19icu_provider_macros, symObjAddr: 0x60, symBinAddr: 0xF8C8, symSize: 0x50 }
  - { offset: 0x36684, size: 0x8, addend: 0x0, symName: __RINvMs2_NtNtCs27l1GJC5rMQ_3std6thread5localINtB6_8LocalKeyINtNtCs9f3LFPSIp77_4core4cell4CellPuEE8try_withNCNvMs3_B6_BF_7replace0B1s_ECs5PAMpfHI6O6_19icu_provider_macros, symObjAddr: 0xB0, symBinAddr: 0xF918, symSize: 0xE8 }
  - { offset: 0x370AC, size: 0x8, addend: 0x0, symName: __RINvXs3_NtNtCsdze8u8oDPro_5alloc3vec9into_iterINtB6_8IntoIterTNtCs5PAMpfHI6O6_19icu_provider_macros13DataStructArgNtNtCsATtFUPiRFW_3syn5token5CommaEENtNtNtNtCs9f3LFPSIp77_4core4iter6traits8iterator8Iterator4folduNCINvNtNtB2t_8adapters3map8map_foldBX_BY_uNCNvXs8_NtB1S_10punctuatedINtB4c_10PunctuatedBY_B1O_ENtNtB2r_7collect12IntoIterator9into_iter0NCINvNvB2n_8for_each4callBY_NCINvMsi_B8_INtB8_3VecBY_E14extend_trustedINtB3t_3MapBI_B44_EE0E0E0EB10_, symObjAddr: 0x2F4, symBinAddr: 0xFB5C, symSize: 0x15C }
  - { offset: 0x372B9, size: 0x8, addend: 0x0, symName: __RINvXs3_NtNtCsdze8u8oDPro_5alloc3vec9into_iterINtB6_8IntoIterTNtCs5PAMpfHI6O6_19icu_provider_macros19DataStructMarkerArgNtNtCsATtFUPiRFW_3syn5token5CommaEENtNtNtNtCs9f3LFPSIp77_4core4iter6traits8iterator8Iterator4folduNCINvNtNtB2z_8adapters3map8map_foldBX_BY_uNCNvXs8_NtB1Y_10punctuatedINtB4i_10PunctuatedBY_B1U_ENtNtB2x_7collect12IntoIterator9into_iter0NCINvNvB2t_8for_each4callBY_NCINvMsi_B8_INtB8_3VecBY_E14extend_trustedINtB3z_3MapBI_B4a_EE0E0E0EB10_, symObjAddr: 0x450, symBinAddr: 0xFCB8, symSize: 0x15C }
  - { offset: 0x374C6, size: 0x8, addend: 0x0, symName: __RNvXs3_NtNtCsdze8u8oDPro_5alloc3vec9into_iterINtB5_8IntoIterNtCs5PAMpfHI6O6_19icu_provider_macros13DataStructArgENtNtNtNtCs9f3LFPSIp77_4core4iter6traits8iterator8Iterator4nextBY_, symObjAddr: 0x17D8, symBinAddr: 0x11040, symSize: 0xF4 }
  - { offset: 0x37676, size: 0x8, addend: 0x0, symName: __RNvXs3_NtNtCsdze8u8oDPro_5alloc3vec9into_iterINtB5_8IntoIterNtCs5PAMpfHI6O6_19icu_provider_macros13DataStructArgENtNtNtNtCs9f3LFPSIp77_4core4iter6traits8iterator8Iterator9size_hintBY_, symObjAddr: 0x18CC, symBinAddr: 0x11134, symSize: 0xB8 }
  - { offset: 0x37747, size: 0x8, addend: 0x0, symName: __RNvXs3_NtNtCsdze8u8oDPro_5alloc3vec9into_iterINtB5_8IntoIterNtCs5PAMpfHI6O6_19icu_provider_macros19DataStructMarkerArgENtNtNtNtCs9f3LFPSIp77_4core4iter6traits8iterator8Iterator4nextBY_, symObjAddr: 0x1984, symBinAddr: 0x111EC, symSize: 0xEC }
  - { offset: 0x378F6, size: 0x8, addend: 0x0, symName: __RNvXs3_NtNtCsdze8u8oDPro_5alloc3vec9into_iterINtB5_8IntoIterNtCs5PAMpfHI6O6_19icu_provider_macros19DataStructMarkerArgENtNtNtNtCs9f3LFPSIp77_4core4iter6traits8iterator8Iterator9size_hintBY_, symObjAddr: 0x1A70, symBinAddr: 0x112D8, symSize: 0xB8 }
  - { offset: 0x379C7, size: 0x8, addend: 0x0, symName: __RNvXs3_NtNtCsdze8u8oDPro_5alloc3vec9into_iterINtB5_8IntoIterTNtCs5PAMpfHI6O6_19icu_provider_macros13DataStructArgNtNtCsATtFUPiRFW_3syn5token5CommaEENtNtNtNtCs9f3LFPSIp77_4core4iter6traits8iterator8Iterator9size_hintBZ_, symObjAddr: 0x1B28, symBinAddr: 0x11390, symSize: 0xB8 }
  - { offset: 0x37A98, size: 0x8, addend: 0x0, symName: __RNvXs3_NtNtCsdze8u8oDPro_5alloc3vec9into_iterINtB5_8IntoIterTNtCs5PAMpfHI6O6_19icu_provider_macros19DataStructMarkerArgNtNtCsATtFUPiRFW_3syn5token5CommaEENtNtNtNtCs9f3LFPSIp77_4core4iter6traits8iterator8Iterator9size_hintBZ_, symObjAddr: 0x1BE0, symBinAddr: 0x11448, symSize: 0xB8 }
  - { offset: 0x37C8D, size: 0x8, addend: 0x0, symName: __RNvXNvXsd_NtNtCsdze8u8oDPro_5alloc3vec9into_iterINtB8_8IntoIterppENtNtNtCs9f3LFPSIp77_4core3ops4drop4Drop4dropINtB2_9DropGuardNtCs5PAMpfHI6O6_19icu_provider_macros13DataStructArgNtNtBc_5alloc6GlobalEB12_4dropB22_, symObjAddr: 0x12F8, symBinAddr: 0x10B60, symSize: 0x88 }
  - { offset: 0x37D9A, size: 0x8, addend: 0x0, symName: __RNvXNvXsd_NtNtCsdze8u8oDPro_5alloc3vec9into_iterINtB8_8IntoIterppENtNtNtCs9f3LFPSIp77_4core3ops4drop4Drop4dropINtB2_9DropGuardNtCs5PAMpfHI6O6_19icu_provider_macros19DataStructMarkerArgNtNtBc_5alloc6GlobalEB12_4dropB22_, symObjAddr: 0x1380, symBinAddr: 0x10BE8, symSize: 0x88 }
  - { offset: 0x37EA7, size: 0x8, addend: 0x0, symName: __RNvXNvXsd_NtNtCsdze8u8oDPro_5alloc3vec9into_iterINtB8_8IntoIterppENtNtNtCs9f3LFPSIp77_4core3ops4drop4Drop4dropINtB2_9DropGuardTNtCs5PAMpfHI6O6_19icu_provider_macros13DataStructArgNtNtCsATtFUPiRFW_3syn5token5CommaENtNtBc_5alloc6GlobalEB12_4dropB23_, symObjAddr: 0x1408, symBinAddr: 0x10C70, symSize: 0x88 }
  - { offset: 0x37FB4, size: 0x8, addend: 0x0, symName: __RNvXNvXsd_NtNtCsdze8u8oDPro_5alloc3vec9into_iterINtB8_8IntoIterppENtNtNtCs9f3LFPSIp77_4core3ops4drop4Drop4dropINtB2_9DropGuardTNtCs5PAMpfHI6O6_19icu_provider_macros19DataStructMarkerArgNtNtCsATtFUPiRFW_3syn5token5CommaENtNtBc_5alloc6GlobalEB12_4dropB23_, symObjAddr: 0x1490, symBinAddr: 0x10CF8, symSize: 0x88 }
  - { offset: 0x3815F, size: 0x8, addend: 0x0, symName: __RNvXsd_NtNtCsdze8u8oDPro_5alloc3vec9into_iterINtB5_8IntoIterNtCs5PAMpfHI6O6_19icu_provider_macros13DataStructArgENtNtNtCs9f3LFPSIp77_4core3ops4drop4Drop4dropBY_, symObjAddr: 0x234C, symBinAddr: 0x11BB4, symSize: 0x98 }
  - { offset: 0x381F9, size: 0x8, addend: 0x0, symName: __RNvXsd_NtNtCsdze8u8oDPro_5alloc3vec9into_iterINtB5_8IntoIterNtCs5PAMpfHI6O6_19icu_provider_macros19DataStructMarkerArgENtNtNtCs9f3LFPSIp77_4core3ops4drop4Drop4dropBY_, symObjAddr: 0x23E4, symBinAddr: 0x11C4C, symSize: 0x98 }
  - { offset: 0x38293, size: 0x8, addend: 0x0, symName: __RNvXsd_NtNtCsdze8u8oDPro_5alloc3vec9into_iterINtB5_8IntoIterTNtCs5PAMpfHI6O6_19icu_provider_macros13DataStructArgNtNtCsATtFUPiRFW_3syn5token5CommaEENtNtNtCs9f3LFPSIp77_4core3ops4drop4Drop4dropBZ_, symObjAddr: 0x247C, symBinAddr: 0x11CE4, symSize: 0x98 }
  - { offset: 0x3832D, size: 0x8, addend: 0x0, symName: __RNvXsd_NtNtCsdze8u8oDPro_5alloc3vec9into_iterINtB5_8IntoIterTNtCs5PAMpfHI6O6_19icu_provider_macros19DataStructMarkerArgNtNtCsATtFUPiRFW_3syn5token5CommaEENtNtNtCs9f3LFPSIp77_4core3ops4drop4Drop4dropBZ_, symObjAddr: 0x2514, symBinAddr: 0x11D7C, symSize: 0x98 }
  - { offset: 0x38EDF, size: 0x8, addend: 0x0, symName: __RNvXs2_NtCsdze8u8oDPro_5alloc7raw_vecINtB5_6RawVecNtCs5PAMpfHI6O6_19icu_provider_macros13DataStructArgENtNtNtCs9f3LFPSIp77_4core3ops4drop4Drop4dropBO_, symObjAddr: 0x16D8, symBinAddr: 0x10F40, symSize: 0x34 }
  - { offset: 0x38F1B, size: 0x8, addend: 0x0, symName: __RNvXs2_NtCsdze8u8oDPro_5alloc7raw_vecINtB5_6RawVecNtCs5PAMpfHI6O6_19icu_provider_macros19DataStructMarkerArgENtNtNtCs9f3LFPSIp77_4core3ops4drop4Drop4dropBO_, symObjAddr: 0x170C, symBinAddr: 0x10F74, symSize: 0x34 }
  - { offset: 0x38F57, size: 0x8, addend: 0x0, symName: __RNvXs2_NtCsdze8u8oDPro_5alloc7raw_vecINtB5_6RawVecRNtNtCsATtFUPiRFW_3syn8generics13LifetimeParamENtNtNtCs9f3LFPSIp77_4core3ops4drop4Drop4dropCs5PAMpfHI6O6_19icu_provider_macros, symObjAddr: 0x1740, symBinAddr: 0x10FA8, symSize: 0x30 }
  - { offset: 0x38F93, size: 0x8, addend: 0x0, symName: __RNvXs2_NtCsdze8u8oDPro_5alloc7raw_vecINtB5_6RawVecTNtCs5PAMpfHI6O6_19icu_provider_macros13DataStructArgNtNtCsATtFUPiRFW_3syn5token5CommaEENtNtNtCs9f3LFPSIp77_4core3ops4drop4Drop4dropBP_, symObjAddr: 0x1770, symBinAddr: 0x10FD8, symSize: 0x34 }
  - { offset: 0x38FCF, size: 0x8, addend: 0x0, symName: __RNvXs2_NtCsdze8u8oDPro_5alloc7raw_vecINtB5_6RawVecTNtCs5PAMpfHI6O6_19icu_provider_macros19DataStructMarkerArgNtNtCsATtFUPiRFW_3syn5token5CommaEENtNtNtCs9f3LFPSIp77_4core3ops4drop4Drop4dropBP_, symObjAddr: 0x17A4, symBinAddr: 0x1100C, symSize: 0x34 }
  - { offset: 0x390BA, size: 0x8, addend: 0x0, symName: __RNvNtCsdze8u8oDPro_5alloc3fmt6formatCs5PAMpfHI6O6_19icu_provider_macros, symObjAddr: 0xE08, symBinAddr: 0x10670, symSize: 0xD4 }
  - { offset: 0x39120, size: 0x8, addend: 0x0, symName: __RNvXs6_NtCsdze8u8oDPro_5alloc5boxedINtB5_3BoxDNtNtCs9f3LFPSIp77_4core5error5ErrorNtNtBM_6marker4SendNtB1j_4SyncEL_ENtNtNtBM_3ops4drop4Drop4dropCs5PAMpfHI6O6_19icu_provider_macros, symObjAddr: 0x1C98, symBinAddr: 0x11500, symSize: 0xC4 }
  - { offset: 0x3929E, size: 0x8, addend: 0x0, symName: __RNvXs6_NtCsdze8u8oDPro_5alloc5boxedINtB5_3BoxNtCs5PAMpfHI6O6_19icu_provider_macros13DataStructArgENtNtNtCs9f3LFPSIp77_4core3ops4drop4Drop4dropBJ_, symObjAddr: 0x1D5C, symBinAddr: 0x115C4, symSize: 0xB0 }
  - { offset: 0x3941C, size: 0x8, addend: 0x0, symName: __RNvXs6_NtCsdze8u8oDPro_5alloc5boxedINtB5_3BoxNtCs5PAMpfHI6O6_19icu_provider_macros19DataStructMarkerArgENtNtNtCs9f3LFPSIp77_4core3ops4drop4Drop4dropBJ_, symObjAddr: 0x1E0C, symBinAddr: 0x11674, symSize: 0xB0 }
  - { offset: 0x3959A, size: 0x8, addend: 0x0, symName: __RNvXs6_NtCsdze8u8oDPro_5alloc5boxedINtB5_3BoxNtNtNtCs27l1GJC5rMQ_3std2io5error6CustomENtNtNtCs9f3LFPSIp77_4core3ops4drop4Drop4dropCs5PAMpfHI6O6_19icu_provider_macros, symObjAddr: 0x1EBC, symBinAddr: 0x11724, symSize: 0xB0 }
  - { offset: 0x39DD9, size: 0x8, addend: 0x0, symName: __RINvMs9_NtCsATtFUPiRFW_3syn5parseNtB6_11ParseBuffer16parse_terminatedNtCs5PAMpfHI6O6_19icu_provider_macros13DataStructArgINvNtB8_5token5CommaNtNtB8_9lookahead11TokenMarkerEEB17_, symObjAddr: 0x198, symBinAddr: 0xFA00, symSize: 0x3C }
  - { offset: 0x39E6F, size: 0x8, addend: 0x0, symName: __RINvMs9_NtCsATtFUPiRFW_3syn5parseNtB6_11ParseBuffer16parse_terminatedNtCs5PAMpfHI6O6_19icu_provider_macros19DataStructMarkerArgINvNtB8_5token5CommaNtNtB8_9lookahead11TokenMarkerEEB17_, symObjAddr: 0x1D4, symBinAddr: 0xFA3C, symSize: 0x3C }
  - { offset: 0x3A150, size: 0x8, addend: 0x0, symName: __RNvMs1_NtCsdze8u8oDPro_5alloc7raw_vecINtB5_6RawVecTNtCs5PAMpfHI6O6_19icu_provider_macros13DataStructArgNtNtCsATtFUPiRFW_3syn5token5CommaEE8grow_oneBP_, symObjAddr: 0xCF8, symBinAddr: 0x10560, symSize: 0x88 }
  - { offset: 0x3A1FE, size: 0x8, addend: 0x0, symName: __RNvMs1_NtCsdze8u8oDPro_5alloc7raw_vecINtB5_6RawVecTNtCs5PAMpfHI6O6_19icu_provider_macros19DataStructMarkerArgNtNtCsATtFUPiRFW_3syn5token5CommaEE8grow_oneBP_, symObjAddr: 0xD80, symBinAddr: 0x105E8, symSize: 0x88 }
  - { offset: 0x3A2F4, size: 0x8, addend: 0x0, symName: __RNvXNtCs62MdaZFMefA_5quote9to_tokensRNtCs475r2uZUTuc_11proc_macro25IdentNtB2_8ToTokens9to_tokensCs5PAMpfHI6O6_19icu_provider_macros, symObjAddr: 0x11BC, symBinAddr: 0x10A24, symSize: 0x40 }
  - { offset: 0x3A333, size: 0x8, addend: 0x0, symName: __RNvXNtCs62MdaZFMefA_5quote9to_tokensRNtNtCsATtFUPiRFW_3syn4path4PathNtB2_8ToTokens9to_tokensCs5PAMpfHI6O6_19icu_provider_macros, symObjAddr: 0x11FC, symBinAddr: 0x10A64, symSize: 0x40 }
  - { offset: 0x3A372, size: 0x8, addend: 0x0, symName: __RNvXNtCs62MdaZFMefA_5quote9to_tokensRNtNtCsATtFUPiRFW_3syn8generics8GenericsNtB2_8ToTokens9to_tokensCs5PAMpfHI6O6_19icu_provider_macros, symObjAddr: 0x123C, symBinAddr: 0x10AA4, symSize: 0x40 }
  - { offset: 0x3A3B7, size: 0x8, addend: 0x0, symName: __RNvYRNtNtCsATtFUPiRFW_3syn4path4PathNtNtCs62MdaZFMefA_5quote9to_tokens8ToTokens15to_token_streamCs5PAMpfHI6O6_19icu_provider_macros, symObjAddr: 0x3328, symBinAddr: 0x12B90, symSize: 0x8C }
  - { offset: 0x3A401, size: 0x8, addend: 0x0, symName: __RNvYRNtNtCsATtFUPiRFW_3syn4path4PathNtNtCs62MdaZFMefA_5quote9to_tokens8ToTokens17into_token_streamCs5PAMpfHI6O6_19icu_provider_macros, symObjAddr: 0x33B4, symBinAddr: 0x12C1C, symSize: 0x54 }
  - { offset: 0x3A436, size: 0x8, addend: 0x0, symName: __RNvYRNtNtCsATtFUPiRFW_3syn8generics8GenericsNtNtCs62MdaZFMefA_5quote9to_tokens8ToTokens15to_token_streamCs5PAMpfHI6O6_19icu_provider_macros, symObjAddr: 0x3408, symBinAddr: 0x12C70, symSize: 0x8C }
  - { offset: 0x3A480, size: 0x8, addend: 0x0, symName: __RNvYRNtNtCsATtFUPiRFW_3syn8generics8GenericsNtNtCs62MdaZFMefA_5quote9to_tokens8ToTokens17into_token_streamCs5PAMpfHI6O6_19icu_provider_macros, symObjAddr: 0x3494, symBinAddr: 0x12CFC, symSize: 0x54 }
  - { offset: 0x3A4C1, size: 0x8, addend: 0x0, symName: __RNvXs0_NtCs62MdaZFMefA_5quote7spannedNtNtCsATtFUPiRFW_3syn4path4PathNtB5_7Spanned6___spanCs5PAMpfHI6O6_19icu_provider_macros, symObjAddr: 0x1518, symBinAddr: 0x10D80, symSize: 0x44 }
  - { offset: 0x3A4F6, size: 0x8, addend: 0x0, symName: __RNvXs0_NtCs62MdaZFMefA_5quote7spannedNtNtCsATtFUPiRFW_3syn8generics8GenericsNtB5_7Spanned6___spanCs5PAMpfHI6O6_19icu_provider_macros, symObjAddr: 0x155C, symBinAddr: 0x10DC4, symSize: 0x44 }
  - { offset: 0x3B58F, size: 0x8, addend: 0x0, symName: __RINvMs_NtCsdze8u8oDPro_5alloc3vecINtB5_3VecReE10retain_mutNCNvMNtCsATtFUPiRFW_3syn9lookaheadNtBZ_10Lookahead15error0EB11_, symObjAddr: 0x0, symBinAddr: 0x12D64, symSize: 0xE4 }
  - { offset: 0x3C301, size: 0x8, addend: 0x0, symName: __RNvXsP_NtCs9f3LFPSIp77_4core3fmtRINtNtCsdze8u8oDPro_5alloc3vec3VecNtNtCsATtFUPiRFW_3syn4item4ItemENtB5_5Debug3fmtB16_, symObjAddr: 0x9934, symBinAddr: 0x1C698, symSize: 0x30 }
  - { offset: 0x3C347, size: 0x8, addend: 0x0, symName: __RNvXsP_NtCs9f3LFPSIp77_4core3fmtRINtNtCsdze8u8oDPro_5alloc3vec3VechENtB5_5Debug3fmtCsATtFUPiRFW_3syn, symObjAddr: 0x9964, symBinAddr: 0x1C6C8, symSize: 0x30 }
  - { offset: 0x4A39C, size: 0x8, addend: 0x0, symName: __RNvXs1_NtCs9f3LFPSIp77_4core7convertINtNtCsdze8u8oDPro_5alloc3vec3VechEINtB5_4IntoBy_E4intoCsATtFUPiRFW_3syn, symObjAddr: 0x82EC, symBinAddr: 0x1B050, symSize: 0x18 }
  - { offset: 0x4A5DE, size: 0x8, addend: 0x0, symName: __RINvNvMs_NtCsdze8u8oDPro_5alloc3vecINtB7_3VecppE10retain_mut12process_loopNCNvMNtCsATtFUPiRFW_3syn9lookaheadNtB1f_10Lookahead15error0ReNtNtB9_5alloc6GlobalKb0_EB1h_, symObjAddr: 0xCE0, symBinAddr: 0x13A44, symSize: 0xE4 }
  - { offset: 0x4A790, size: 0x8, addend: 0x0, symName: __RINvNvMs_NtCsdze8u8oDPro_5alloc3vecINtB7_3VecppE10retain_mut12process_loopNCNvMNtCsATtFUPiRFW_3syn9lookaheadNtB1f_10Lookahead15error0ReNtNtB9_5alloc6GlobalKb1_EB1h_, symObjAddr: 0xDC4, symBinAddr: 0x13B28, symSize: 0x1B0 }
  - { offset: 0x4AA49, size: 0x8, addend: 0x0, symName: __RNvXNvMs_NtCsdze8u8oDPro_5alloc3vecINtB7_3VecppE10retain_mutINtB2_15BackshiftOnDropReNtNtB9_5alloc6GlobalENtNtNtCs9f3LFPSIp77_4core3ops4drop4Drop4dropCsATtFUPiRFW_3syn, symObjAddr: 0x7F00, symBinAddr: 0x1AC64, symSize: 0x134 }
  - { offset: 0x4DC2A, size: 0x8, addend: 0x0, symName: __RINvXsd_NtCsdze8u8oDPro_5alloc3vecINtB6_3VecNtCs475r2uZUTuc_11proc_macro29TokenTreeEINtNtNtNtCs9f3LFPSIp77_4core4iter6traits7collect12FromIteratorBG_E9from_iterNtNtBI_12token_stream8IntoIterECsATtFUPiRFW_3syn, symObjAddr: 0xF74, symBinAddr: 0x13CD8, symSize: 0x34 }
  - { offset: 0x4DC71, size: 0x8, addend: 0x0, symName: __RINvXsh_NtCsdze8u8oDPro_5alloc3vecINtB6_3VecNtCs475r2uZUTuc_11proc_macro29TokenTreeEINtNtNtNtCs9f3LFPSIp77_4core4iter6traits7collect6ExtendBG_E6extendINtNtNtB1r_8adapters7flatten7FlattenINtNtB2t_3map3MapIB2Z_IB2Z_INtNtNtB1t_5slice4iter4IterNtNtCsATtFUPiRFW_3syn5error12ErrorMessageENvMs_B3S_B3Q_16to_compile_errorENCINvXs7_BI_NtBI_11TokenStreamINtB1n_12FromIteratorB5e_E9from_iterB3k_E0ENCINvXs6_NtBI_3impNtB6m_11TokenStreamIB5x_B6v_E9from_iterB3f_Es_0EEEB3U_, symObjAddr: 0xFA8, symBinAddr: 0x13D0C, symSize: 0x40 }
  - { offset: 0x4DCC6, size: 0x8, addend: 0x0, symName: __RINvXsh_NtCsdze8u8oDPro_5alloc3vecINtB6_3VecNtNtCsATtFUPiRFW_3syn4attr9AttributeEINtNtNtNtCs9f3LFPSIp77_4core4iter6traits7collect6ExtendBG_E6extendBw_EBK_, symObjAddr: 0xFE8, symBinAddr: 0x13D4C, symSize: 0x40 }
  - { offset: 0x4DD1B, size: 0x8, addend: 0x0, symName: __RINvXsh_NtCsdze8u8oDPro_5alloc3vecINtB6_3VecNtNtCsATtFUPiRFW_3syn4data5FieldEINtNtNtNtCs9f3LFPSIp77_4core4iter6traits7collect6ExtendBG_E6extendINtNtB1m_6option6OptionBG_EEBK_, symObjAddr: 0x1028, symBinAddr: 0x13D8C, symSize: 0x48 }
  - { offset: 0x4DD70, size: 0x8, addend: 0x0, symName: __RINvXsh_NtCsdze8u8oDPro_5alloc3vecINtB6_3VecNtNtCsATtFUPiRFW_3syn4data5FieldEINtNtNtNtCs9f3LFPSIp77_4core4iter6traits7collect6ExtendBG_E6extendINtNtNtB1k_8adapters3map3MapINtNtB6_9into_iter8IntoIterTBG_NtNtBK_5token5CommaEENCNvXs8_NtBK_10punctuatedINtB3H_10PunctuatedBG_B3e_ENtB1g_12IntoIterator9into_iter0EEBK_, symObjAddr: 0x1070, symBinAddr: 0x13DD4, symSize: 0x40 }
  - { offset: 0x4DDC5, size: 0x8, addend: 0x0, symName: __RINvXsh_NtCsdze8u8oDPro_5alloc3vecINtB6_3VecNtNtCsATtFUPiRFW_3syn4data5FieldEINtNtNtNtCs9f3LFPSIp77_4core4iter6traits7collect6ExtendBG_E6extendINtNtNtB1k_8adapters3map3MapINtNtB6_9into_iter8IntoIterTBG_uEENCNvXs8_NtBK_10punctuatedINtB3p_10PunctuatedBG_uENtB1g_12IntoIterator9into_iter0EEBK_, symObjAddr: 0x10B0, symBinAddr: 0x13E14, symSize: 0x40 }
  - { offset: 0x4DE1A, size: 0x8, addend: 0x0, symName: __RINvXsh_NtCsdze8u8oDPro_5alloc3vecINtB6_3VecNtNtCsATtFUPiRFW_3syn5error12ErrorMessageEINtNtNtNtCs9f3LFPSIp77_4core4iter6traits7collect6ExtendBG_E6extendBw_EBK_, symObjAddr: 0x10F0, symBinAddr: 0x13E54, symSize: 0x40 }
  - { offset: 0x4DE6F, size: 0x8, addend: 0x0, symName: __RINvXsh_NtCsdze8u8oDPro_5alloc3vecINtB6_3VecNtNtCsATtFUPiRFW_3syn8generics14TypeParamBoundEINtNtNtNtCs9f3LFPSIp77_4core4iter6traits7collect6ExtendBG_E6extendINtNtB1A_6option6OptionBG_EEBK_, symObjAddr: 0x1130, symBinAddr: 0x13E94, symSize: 0x40 }
  - { offset: 0x4DEC4, size: 0x8, addend: 0x0, symName: __RINvXsh_NtCsdze8u8oDPro_5alloc3vecINtB6_3VecNtNtCsATtFUPiRFW_3syn8generics14TypeParamBoundEINtNtNtNtCs9f3LFPSIp77_4core4iter6traits7collect6ExtendBG_E6extendINtNtNtB1y_8adapters3map3MapINtNtB6_9into_iter8IntoIterTBG_NtNtBK_5token4PlusEENCNvXs8_NtBK_10punctuatedINtB3U_10PunctuatedBG_B3s_ENtB1u_12IntoIterator9into_iter0EEBK_, symObjAddr: 0x1170, symBinAddr: 0x13ED4, symSize: 0x40 }
  - { offset: 0x4DF24, size: 0x8, addend: 0x0, symName: __RNCINvMsi_NtCsdze8u8oDPro_5alloc3vecINtB8_3VecNtNtCsATtFUPiRFW_3syn4data5FieldE14extend_trustedINtNtCs9f3LFPSIp77_4core6option8IntoIterBI_EE0BM_, symObjAddr: 0x11B0, symBinAddr: 0x13F14, symSize: 0x78 }
  - { offset: 0x4E017, size: 0x8, addend: 0x0, symName: __RNCINvMsi_NtCsdze8u8oDPro_5alloc3vecINtB8_3VecNtNtCsATtFUPiRFW_3syn4data5FieldE14extend_trustedINtNtNtNtCs9f3LFPSIp77_4core4iter8adapters3map3MapINtNtB8_9into_iter8IntoIterTBI_NtNtBM_5token5CommaEENCNvXs8_NtBM_10punctuatedINtB3h_10PunctuatedBI_B2O_ENtNtNtB1C_6traits7collect12IntoIterator9into_iter0EE0BM_, symObjAddr: 0x1228, symBinAddr: 0x13F8C, symSize: 0x78 }
  - { offset: 0x4E10A, size: 0x8, addend: 0x0, symName: __RNCINvMsi_NtCsdze8u8oDPro_5alloc3vecINtB8_3VecNtNtCsATtFUPiRFW_3syn4data5FieldE14extend_trustedINtNtNtNtCs9f3LFPSIp77_4core4iter8adapters3map3MapINtNtB8_9into_iter8IntoIterTBI_uEENCNvXs8_NtBM_10punctuatedINtB2Z_10PunctuatedBI_uENtNtNtB1C_6traits7collect12IntoIterator9into_iter0EE0BM_, symObjAddr: 0x12A0, symBinAddr: 0x14004, symSize: 0x78 }
  - { offset: 0x4E1FD, size: 0x8, addend: 0x0, symName: __RNCINvMsi_NtCsdze8u8oDPro_5alloc3vecINtB8_3VecNtNtCsATtFUPiRFW_3syn8generics14TypeParamBoundE14extend_trustedINtNtCs9f3LFPSIp77_4core6option8IntoIterBI_EE0BM_, symObjAddr: 0x1318, symBinAddr: 0x1407C, symSize: 0x78 }
  - { offset: 0x4E2F0, size: 0x8, addend: 0x0, symName: __RNCINvMsi_NtCsdze8u8oDPro_5alloc3vecINtB8_3VecNtNtCsATtFUPiRFW_3syn8generics14TypeParamBoundE14extend_trustedINtNtNtNtCs9f3LFPSIp77_4core4iter8adapters3map3MapINtNtB8_9into_iter8IntoIterTBI_NtNtBM_5token4PlusEENCNvXs8_NtBM_10punctuatedINtB3u_10PunctuatedBI_B32_ENtNtNtB1Q_6traits7collect12IntoIterator9into_iter0EE0BM_, symObjAddr: 0x1390, symBinAddr: 0x140F4, symSize: 0x78 }
  - { offset: 0x4E8C9, size: 0x8, addend: 0x0, symName: __RNvXNtNtCsdze8u8oDPro_5alloc3vec10partial_eqINtB4_3VecNtNtCsATtFUPiRFW_3syn4attr9AttributeENtNtCs9f3LFPSIp77_4core3cmp9PartialEq2eqBU_, symObjAddr: 0x7034, symBinAddr: 0x19D98, symSize: 0x7C }
  - { offset: 0x4E94C, size: 0x8, addend: 0x0, symName: __RNvXNtNtCsdze8u8oDPro_5alloc3vec10partial_eqINtB4_3VecNtNtCsATtFUPiRFW_3syn4expr3ArmENtNtCs9f3LFPSIp77_4core3cmp9PartialEq2eqBU_, symObjAddr: 0x70B0, symBinAddr: 0x19E14, symSize: 0x7C }
  - { offset: 0x4E9CF, size: 0x8, addend: 0x0, symName: __RNvXNtNtCsdze8u8oDPro_5alloc3vec10partial_eqINtB4_3VecNtNtCsATtFUPiRFW_3syn4item11ForeignItemENtNtCs9f3LFPSIp77_4core3cmp9PartialEq2eqBU_, symObjAddr: 0x712C, symBinAddr: 0x19E90, symSize: 0x7C }
  - { offset: 0x4EA52, size: 0x8, addend: 0x0, symName: __RNvXNtNtCsdze8u8oDPro_5alloc3vec10partial_eqINtB4_3VecNtNtCsATtFUPiRFW_3syn4item4ItemENtNtCs9f3LFPSIp77_4core3cmp9PartialEq2eqBU_, symObjAddr: 0x71A8, symBinAddr: 0x19F0C, symSize: 0x7C }
  - { offset: 0x4EAD5, size: 0x8, addend: 0x0, symName: __RNvXNtNtCsdze8u8oDPro_5alloc3vec10partial_eqINtB4_3VecNtNtCsATtFUPiRFW_3syn4item8ImplItemENtNtCs9f3LFPSIp77_4core3cmp9PartialEq2eqBU_, symObjAddr: 0x7224, symBinAddr: 0x19F88, symSize: 0x7C }
  - { offset: 0x4EB58, size: 0x8, addend: 0x0, symName: __RNvXNtNtCsdze8u8oDPro_5alloc3vec10partial_eqINtB4_3VecNtNtCsATtFUPiRFW_3syn4item9TraitItemENtNtCs9f3LFPSIp77_4core3cmp9PartialEq2eqBU_, symObjAddr: 0x72A0, symBinAddr: 0x1A004, symSize: 0x7C }
  - { offset: 0x4EBDB, size: 0x8, addend: 0x0, symName: __RNvXNtNtCsdze8u8oDPro_5alloc3vec10partial_eqINtB4_3VecNtNtCsATtFUPiRFW_3syn4stmt4StmtENtNtCs9f3LFPSIp77_4core3cmp9PartialEq2eqBU_, symObjAddr: 0x731C, symBinAddr: 0x1A080, symSize: 0x7C }
  - { offset: 0x4EC5E, size: 0x8, addend: 0x0, symName: __RNvXNtNtCsdze8u8oDPro_5alloc3vec10partial_eqINtB4_3VecTNtNtCsATtFUPiRFW_3syn2ty4TypeNtNtBV_5token5CommaEENtNtCs9f3LFPSIp77_4core3cmp9PartialEq2eqBV_, symObjAddr: 0x7398, symBinAddr: 0x1A0FC, symSize: 0x7C }
  - { offset: 0x4ECE1, size: 0x8, addend: 0x0, symName: __RNvXNtNtCsdze8u8oDPro_5alloc3vec10partial_eqINtB4_3VecTNtNtCsATtFUPiRFW_3syn2ty9BareFnArgNtNtBV_5token5CommaEENtNtCs9f3LFPSIp77_4core3cmp9PartialEq2eqBV_, symObjAddr: 0x7414, symBinAddr: 0x1A178, symSize: 0x7C }
  - { offset: 0x4ED64, size: 0x8, addend: 0x0, symName: __RNvXNtNtCsdze8u8oDPro_5alloc3vec10partial_eqINtB4_3VecTNtNtCsATtFUPiRFW_3syn3pat3PatNtNtBV_5token2OrEENtNtCs9f3LFPSIp77_4core3cmp9PartialEq2eqBV_, symObjAddr: 0x7490, symBinAddr: 0x1A1F4, symSize: 0x7C }
  - { offset: 0x4EDE7, size: 0x8, addend: 0x0, symName: __RNvXNtNtCsdze8u8oDPro_5alloc3vec10partial_eqINtB4_3VecTNtNtCsATtFUPiRFW_3syn3pat3PatNtNtBV_5token5CommaEENtNtCs9f3LFPSIp77_4core3cmp9PartialEq2eqBV_, symObjAddr: 0x750C, symBinAddr: 0x1A270, symSize: 0x7C }
  - { offset: 0x4EE6A, size: 0x8, addend: 0x0, symName: __RNvXNtNtCsdze8u8oDPro_5alloc3vec10partial_eqINtB4_3VecTNtNtCsATtFUPiRFW_3syn3pat8FieldPatNtNtBV_5token5CommaEENtNtCs9f3LFPSIp77_4core3cmp9PartialEq2eqBV_, symObjAddr: 0x7588, symBinAddr: 0x1A2EC, symSize: 0x7C }
  - { offset: 0x4EEED, size: 0x8, addend: 0x0, symName: __RNvXNtNtCsdze8u8oDPro_5alloc3vec10partial_eqINtB4_3VecTNtNtCsATtFUPiRFW_3syn4data5FieldNtNtBV_5token5CommaEENtNtCs9f3LFPSIp77_4core3cmp9PartialEq2eqBV_, symObjAddr: 0x7604, symBinAddr: 0x1A368, symSize: 0x7C }
  - { offset: 0x4EF70, size: 0x8, addend: 0x0, symName: __RNvXNtNtCsdze8u8oDPro_5alloc3vec10partial_eqINtB4_3VecTNtNtCsATtFUPiRFW_3syn4data7VariantNtNtBV_5token5CommaEENtNtCs9f3LFPSIp77_4core3cmp9PartialEq2eqBV_, symObjAddr: 0x7680, symBinAddr: 0x1A3E4, symSize: 0x7C }
  - { offset: 0x4EFF3, size: 0x8, addend: 0x0, symName: __RNvXNtNtCsdze8u8oDPro_5alloc3vec10partial_eqINtB4_3VecTNtNtCsATtFUPiRFW_3syn4expr10FieldValueNtNtBV_5token5CommaEENtNtCs9f3LFPSIp77_4core3cmp9PartialEq2eqBV_, symObjAddr: 0x76FC, symBinAddr: 0x1A460, symSize: 0x7C }
  - { offset: 0x4F076, size: 0x8, addend: 0x0, symName: __RNvXNtNtCsdze8u8oDPro_5alloc3vec10partial_eqINtB4_3VecTNtNtCsATtFUPiRFW_3syn4expr4ExprNtNtBV_5token5CommaEENtNtCs9f3LFPSIp77_4core3cmp9PartialEq2eqBV_, symObjAddr: 0x7778, symBinAddr: 0x1A4DC, symSize: 0x7C }
  - { offset: 0x4F0F9, size: 0x8, addend: 0x0, symName: __RNvXNtNtCsdze8u8oDPro_5alloc3vec10partial_eqINtB4_3VecTNtNtCsATtFUPiRFW_3syn4item5FnArgNtNtBV_5token5CommaEENtNtCs9f3LFPSIp77_4core3cmp9PartialEq2eqBV_, symObjAddr: 0x77F4, symBinAddr: 0x1A558, symSize: 0x7C }
  - { offset: 0x4F17C, size: 0x8, addend: 0x0, symName: __RNvXNtNtCsdze8u8oDPro_5alloc3vec10partial_eqINtB4_3VecTNtNtCsATtFUPiRFW_3syn4item7UseTreeNtNtBV_5token5CommaEENtNtCs9f3LFPSIp77_4core3cmp9PartialEq2eqBV_, symObjAddr: 0x7870, symBinAddr: 0x1A5D4, symSize: 0x7C }
  - { offset: 0x4F1FF, size: 0x8, addend: 0x0, symName: __RNvXNtNtCsdze8u8oDPro_5alloc3vec10partial_eqINtB4_3VecTNtNtCsATtFUPiRFW_3syn4path11PathSegmentNtNtBV_5token7PathSepEENtNtCs9f3LFPSIp77_4core3cmp9PartialEq2eqBV_, symObjAddr: 0x78EC, symBinAddr: 0x1A650, symSize: 0x7C }
  - { offset: 0x4F282, size: 0x8, addend: 0x0, symName: __RNvXNtNtCsdze8u8oDPro_5alloc3vec10partial_eqINtB4_3VecTNtNtCsATtFUPiRFW_3syn4path15GenericArgumentNtNtBV_5token5CommaEENtNtCs9f3LFPSIp77_4core3cmp9PartialEq2eqBV_, symObjAddr: 0x7968, symBinAddr: 0x1A6CC, symSize: 0x7C }
  - { offset: 0x4F305, size: 0x8, addend: 0x0, symName: __RNvXNtNtCsdze8u8oDPro_5alloc3vec10partial_eqINtB4_3VecTNtNtCsATtFUPiRFW_3syn8generics12GenericParamNtNtBV_5token5CommaEENtNtCs9f3LFPSIp77_4core3cmp9PartialEq2eqBV_, symObjAddr: 0x79E4, symBinAddr: 0x1A748, symSize: 0x7C }
  - { offset: 0x4F388, size: 0x8, addend: 0x0, symName: __RNvXNtNtCsdze8u8oDPro_5alloc3vec10partial_eqINtB4_3VecTNtNtCsATtFUPiRFW_3syn8generics13CapturedParamNtNtBV_5token5CommaEENtNtCs9f3LFPSIp77_4core3cmp9PartialEq2eqBV_, symObjAddr: 0x7A60, symBinAddr: 0x1A7C4, symSize: 0x7C }
  - { offset: 0x4F40B, size: 0x8, addend: 0x0, symName: __RNvXNtNtCsdze8u8oDPro_5alloc3vec10partial_eqINtB4_3VecTNtNtCsATtFUPiRFW_3syn8generics14TypeParamBoundNtNtBV_5token4PlusEENtNtCs9f3LFPSIp77_4core3cmp9PartialEq2eqBV_, symObjAddr: 0x7ADC, symBinAddr: 0x1A840, symSize: 0x7C }
  - { offset: 0x4F48E, size: 0x8, addend: 0x0, symName: __RNvXNtNtCsdze8u8oDPro_5alloc3vec10partial_eqINtB4_3VecTNtNtCsATtFUPiRFW_3syn8generics14WherePredicateNtNtBV_5token5CommaEENtNtCs9f3LFPSIp77_4core3cmp9PartialEq2eqBV_, symObjAddr: 0x7B58, symBinAddr: 0x1A8BC, symSize: 0x7C }
  - { offset: 0x4F511, size: 0x8, addend: 0x0, symName: __RNvXNtNtCsdze8u8oDPro_5alloc3vec10partial_eqINtB4_3VecTNtNtCsATtFUPiRFW_3syn8lifetime8LifetimeNtNtBV_5token4PlusEENtNtCs9f3LFPSIp77_4core3cmp9PartialEq2eqBV_, symObjAddr: 0x7BD4, symBinAddr: 0x1A938, symSize: 0x7C }
  - { offset: 0x4F5A0, size: 0x8, addend: 0x0, symName: __RNvXNtNtCsdze8u8oDPro_5alloc3vec11spec_extendINtB4_3VecNtCs475r2uZUTuc_11proc_macro29TokenTreeEINtB2_10SpecExtendBR_INtNtNtNtCs9f3LFPSIp77_4core4iter8adapters7flatten7FlattenINtNtB1V_3map3MapIB2N_IB2N_INtNtNtB1Z_5slice4iter4IterNtNtCsATtFUPiRFW_3syn5error12ErrorMessageENvMs_B3G_B3E_16to_compile_errorENCINvXs7_BT_NtBT_11TokenStreamINtNtNtB1X_6traits7collect12FromIteratorB52_E9from_iterB38_E0ENCINvXs6_NtBT_3impNtB6t_11TokenStreamIB5l_B6C_E9from_iterB33_Es_0EEE11spec_extendB3I_, symObjAddr: 0x7C50, symBinAddr: 0x1A9B4, symSize: 0x24 }
  - { offset: 0x4F5F2, size: 0x8, addend: 0x0, symName: __RNvXNtNtCsdze8u8oDPro_5alloc3vec11spec_extendINtB4_3VecNtCs475r2uZUTuc_11proc_macro29TokenTreeEINtB2_10SpecExtendBR_NtNtBT_12token_stream8IntoIterE11spec_extendCsATtFUPiRFW_3syn, symObjAddr: 0x7C74, symBinAddr: 0x1A9D8, symSize: 0x24 }
  - { offset: 0x4F64A, size: 0x8, addend: 0x0, symName: __RNvXs0_NtNtCsdze8u8oDPro_5alloc3vec11spec_extendINtB7_3VecNtNtCsATtFUPiRFW_3syn4attr9AttributeEINtB5_10SpecExtendBU_INtNtB7_9into_iter8IntoIterBU_EE11spec_extendBY_, symObjAddr: 0x81C4, symBinAddr: 0x1AF28, symSize: 0x94 }
  - { offset: 0x4F6B0, size: 0x8, addend: 0x0, symName: __RNvXs0_NtNtCsdze8u8oDPro_5alloc3vec11spec_extendINtB7_3VecNtNtCsATtFUPiRFW_3syn5error12ErrorMessageEINtB5_10SpecExtendBU_INtNtB7_9into_iter8IntoIterBU_EE11spec_extendBY_, symObjAddr: 0x8258, symBinAddr: 0x1AFBC, symSize: 0x94 }
  - { offset: 0x4F71C, size: 0x8, addend: 0x0, symName: __RNvXs2_NtNtCsdze8u8oDPro_5alloc3vec11spec_extendINtB7_3VechEINtB5_10SpecExtendRhINtNtNtCs9f3LFPSIp77_4core5slice4iter4IterhEE11spec_extendCsATtFUPiRFW_3syn, symObjAddr: 0x8304, symBinAddr: 0x1B068, symSize: 0xA8 }
  - { offset: 0x4F8DB, size: 0x8, addend: 0x0, symName: __RNvXs_NtNtCsdze8u8oDPro_5alloc3vec11spec_extendINtB6_3VecNtNtCsATtFUPiRFW_3syn4data5FieldEINtB4_10SpecExtendBT_INtNtCs9f3LFPSIp77_4core6option8IntoIterBT_EE11spec_extendBX_, symObjAddr: 0x99AC, symBinAddr: 0x1C710, symSize: 0x24 }
  - { offset: 0x4F92D, size: 0x8, addend: 0x0, symName: __RNvXs_NtNtCsdze8u8oDPro_5alloc3vec11spec_extendINtB6_3VecNtNtCsATtFUPiRFW_3syn4data5FieldEINtB4_10SpecExtendBT_INtNtNtNtCs9f3LFPSIp77_4core4iter8adapters3map3MapINtNtB6_9into_iter8IntoIterTBT_NtNtBX_5token5CommaEENCNvXs8_NtBX_10punctuatedINtB3x_10PunctuatedBT_B34_ENtNtNtB1S_6traits7collect12IntoIterator9into_iter0EE11spec_extendBX_, symObjAddr: 0x99D0, symBinAddr: 0x1C734, symSize: 0x24 }
  - { offset: 0x4F97F, size: 0x8, addend: 0x0, symName: __RNvXs_NtNtCsdze8u8oDPro_5alloc3vec11spec_extendINtB6_3VecNtNtCsATtFUPiRFW_3syn4data5FieldEINtB4_10SpecExtendBT_INtNtNtNtCs9f3LFPSIp77_4core4iter8adapters3map3MapINtNtB6_9into_iter8IntoIterTBT_uEENCNvXs8_NtBX_10punctuatedINtB3f_10PunctuatedBT_uENtNtNtB1S_6traits7collect12IntoIterator9into_iter0EE11spec_extendBX_, symObjAddr: 0x99F4, symBinAddr: 0x1C758, symSize: 0x24 }
  - { offset: 0x4F9D1, size: 0x8, addend: 0x0, symName: __RNvXs_NtNtCsdze8u8oDPro_5alloc3vec11spec_extendINtB6_3VecNtNtCsATtFUPiRFW_3syn8generics14TypeParamBoundEINtB4_10SpecExtendBT_INtNtCs9f3LFPSIp77_4core6option8IntoIterBT_EE11spec_extendBX_, symObjAddr: 0x9A18, symBinAddr: 0x1C77C, symSize: 0x24 }
  - { offset: 0x4FA23, size: 0x8, addend: 0x0, symName: __RNvXs_NtNtCsdze8u8oDPro_5alloc3vec11spec_extendINtB6_3VecNtNtCsATtFUPiRFW_3syn8generics14TypeParamBoundEINtB4_10SpecExtendBT_INtNtNtNtCs9f3LFPSIp77_4core4iter8adapters3map3MapINtNtB6_9into_iter8IntoIterTBT_NtNtBX_5token4PlusEENCNvXs8_NtBX_10punctuatedINtB3K_10PunctuatedBT_B3i_ENtNtNtB26_6traits7collect12IntoIterator9into_iter0EE11spec_extendBX_, symObjAddr: 0x9A3C, symBinAddr: 0x1C7A0, symSize: 0x24 }
  - { offset: 0x4FA81, size: 0x8, addend: 0x0, symName: __RNvXNtNtCsdze8u8oDPro_5alloc3vec14spec_from_iterINtB4_3VecNtCs475r2uZUTuc_11proc_macro29TokenTreeEINtB2_12SpecFromIterBU_NtNtBW_12token_stream8IntoIterE9from_iterCsATtFUPiRFW_3syn, symObjAddr: 0x7C98, symBinAddr: 0x1A9FC, symSize: 0x14 }
  - { offset: 0x4FACC, size: 0x8, addend: 0x0, symName: __RNvXNtNtCsdze8u8oDPro_5alloc3vec21spec_from_iter_nestedINtB4_3VecNtCs475r2uZUTuc_11proc_macro29TokenTreeEINtB2_18SpecFromIterNestedB11_NtNtB13_12token_stream8IntoIterE9from_iterCsATtFUPiRFW_3syn, symObjAddr: 0x7CAC, symBinAddr: 0x1AA10, symSize: 0x254 }
  - { offset: 0x4FE15, size: 0x8, addend: 0x0, symName: __RNvXs6_NtCsdze8u8oDPro_5alloc3vecINtB5_3VecNtNtCsATtFUPiRFW_3syn4attr9AttributeENtNtNtCs9f3LFPSIp77_4core3ops5deref5Deref5derefBJ_, symObjAddr: 0x83AC, symBinAddr: 0x1B110, symSize: 0x24 }
  - { offset: 0x4FE55, size: 0x8, addend: 0x0, symName: __RNvXs6_NtCsdze8u8oDPro_5alloc3vecINtB5_3VecNtNtCsATtFUPiRFW_3syn4expr3ArmENtNtNtCs9f3LFPSIp77_4core3ops5deref5Deref5derefBJ_, symObjAddr: 0x83D0, symBinAddr: 0x1B134, symSize: 0x24 }
  - { offset: 0x4FE95, size: 0x8, addend: 0x0, symName: __RNvXs6_NtCsdze8u8oDPro_5alloc3vecINtB5_3VecNtNtCsATtFUPiRFW_3syn5error12ErrorMessageENtNtNtCs9f3LFPSIp77_4core3ops5deref5Deref5derefBJ_, symObjAddr: 0x83F4, symBinAddr: 0x1B158, symSize: 0x24 }
  - { offset: 0x4FED5, size: 0x8, addend: 0x0, symName: __RNvXs6_NtCsdze8u8oDPro_5alloc3vecINtB5_3VecReENtNtNtCs9f3LFPSIp77_4core3ops5deref5Deref5derefCsATtFUPiRFW_3syn, symObjAddr: 0x8418, symBinAddr: 0x1B17C, symSize: 0x24 }
  - { offset: 0x4FF15, size: 0x8, addend: 0x0, symName: __RNvXs6_NtCsdze8u8oDPro_5alloc3vecINtB5_3VecTNtNtCsATtFUPiRFW_3syn2ty4TypeNtNtBK_5token5CommaEENtNtNtCs9f3LFPSIp77_4core3ops5deref5Deref5derefBK_, symObjAddr: 0x843C, symBinAddr: 0x1B1A0, symSize: 0x24 }
  - { offset: 0x4FF55, size: 0x8, addend: 0x0, symName: __RNvXs6_NtCsdze8u8oDPro_5alloc3vecINtB5_3VecTNtNtCsATtFUPiRFW_3syn2ty9BareFnArgNtNtBK_5token5CommaEENtNtNtCs9f3LFPSIp77_4core3ops5deref5Deref5derefBK_, symObjAddr: 0x8460, symBinAddr: 0x1B1C4, symSize: 0x24 }
  - { offset: 0x4FF95, size: 0x8, addend: 0x0, symName: __RNvXs6_NtCsdze8u8oDPro_5alloc3vecINtB5_3VecTNtNtCsATtFUPiRFW_3syn3pat3PatNtNtBK_5token2OrEENtNtNtCs9f3LFPSIp77_4core3ops5deref5Deref5derefBK_, symObjAddr: 0x8484, symBinAddr: 0x1B1E8, symSize: 0x24 }
  - { offset: 0x4FFD5, size: 0x8, addend: 0x0, symName: __RNvXs6_NtCsdze8u8oDPro_5alloc3vecINtB5_3VecTNtNtCsATtFUPiRFW_3syn3pat3PatNtNtBK_5token5CommaEENtNtNtCs9f3LFPSIp77_4core3ops5deref5Deref5derefBK_, symObjAddr: 0x84A8, symBinAddr: 0x1B20C, symSize: 0x24 }
  - { offset: 0x50015, size: 0x8, addend: 0x0, symName: __RNvXs6_NtCsdze8u8oDPro_5alloc3vecINtB5_3VecTNtNtCsATtFUPiRFW_3syn3pat8FieldPatNtNtBK_5token5CommaEENtNtNtCs9f3LFPSIp77_4core3ops5deref5Deref5derefBK_, symObjAddr: 0x84CC, symBinAddr: 0x1B230, symSize: 0x24 }
  - { offset: 0x50055, size: 0x8, addend: 0x0, symName: __RNvXs6_NtCsdze8u8oDPro_5alloc3vecINtB5_3VecTNtNtCsATtFUPiRFW_3syn4data5FieldNtNtBK_5token5CommaEENtNtNtCs9f3LFPSIp77_4core3ops5deref5Deref5derefBK_, symObjAddr: 0x84F0, symBinAddr: 0x1B254, symSize: 0x24 }
  - { offset: 0x50095, size: 0x8, addend: 0x0, symName: __RNvXs6_NtCsdze8u8oDPro_5alloc3vecINtB5_3VecTNtNtCsATtFUPiRFW_3syn4data7VariantNtNtBK_5token5CommaEENtNtNtCs9f3LFPSIp77_4core3ops5deref5Deref5derefBK_, symObjAddr: 0x8514, symBinAddr: 0x1B278, symSize: 0x24 }
  - { offset: 0x500D5, size: 0x8, addend: 0x0, symName: __RNvXs6_NtCsdze8u8oDPro_5alloc3vecINtB5_3VecTNtNtCsATtFUPiRFW_3syn4expr10FieldValueNtNtBK_5token5CommaEENtNtNtCs9f3LFPSIp77_4core3ops5deref5Deref5derefBK_, symObjAddr: 0x8538, symBinAddr: 0x1B29C, symSize: 0x24 }
  - { offset: 0x50115, size: 0x8, addend: 0x0, symName: __RNvXs6_NtCsdze8u8oDPro_5alloc3vecINtB5_3VecTNtNtCsATtFUPiRFW_3syn4expr4ExprNtNtBK_5token5CommaEENtNtNtCs9f3LFPSIp77_4core3ops5deref5Deref5derefBK_, symObjAddr: 0x855C, symBinAddr: 0x1B2C0, symSize: 0x24 }
  - { offset: 0x50155, size: 0x8, addend: 0x0, symName: __RNvXs6_NtCsdze8u8oDPro_5alloc3vecINtB5_3VecTNtNtCsATtFUPiRFW_3syn4item5FnArgNtNtBK_5token5CommaEENtNtNtCs9f3LFPSIp77_4core3ops5deref5Deref5derefBK_, symObjAddr: 0x8580, symBinAddr: 0x1B2E4, symSize: 0x24 }
  - { offset: 0x50195, size: 0x8, addend: 0x0, symName: __RNvXs6_NtCsdze8u8oDPro_5alloc3vecINtB5_3VecTNtNtCsATtFUPiRFW_3syn4item7UseTreeNtNtBK_5token5CommaEENtNtNtCs9f3LFPSIp77_4core3ops5deref5Deref5derefBK_, symObjAddr: 0x85A4, symBinAddr: 0x1B308, symSize: 0x24 }
  - { offset: 0x501D5, size: 0x8, addend: 0x0, symName: __RNvXs6_NtCsdze8u8oDPro_5alloc3vecINtB5_3VecTNtNtCsATtFUPiRFW_3syn4path11PathSegmentNtNtBK_5token7PathSepEENtNtNtCs9f3LFPSIp77_4core3ops5deref5Deref5derefBK_, symObjAddr: 0x85C8, symBinAddr: 0x1B32C, symSize: 0x24 }
  - { offset: 0x50215, size: 0x8, addend: 0x0, symName: __RNvXs6_NtCsdze8u8oDPro_5alloc3vecINtB5_3VecTNtNtCsATtFUPiRFW_3syn4path15GenericArgumentNtNtBK_5token5CommaEENtNtNtCs9f3LFPSIp77_4core3ops5deref5Deref5derefBK_, symObjAddr: 0x85EC, symBinAddr: 0x1B350, symSize: 0x24 }
  - { offset: 0x50255, size: 0x8, addend: 0x0, symName: __RNvXs6_NtCsdze8u8oDPro_5alloc3vecINtB5_3VecTNtNtCsATtFUPiRFW_3syn8generics12GenericParamNtNtBK_5token5CommaEENtNtNtCs9f3LFPSIp77_4core3ops5deref5Deref5derefBK_, symObjAddr: 0x8610, symBinAddr: 0x1B374, symSize: 0x24 }
  - { offset: 0x50295, size: 0x8, addend: 0x0, symName: __RNvXs6_NtCsdze8u8oDPro_5alloc3vecINtB5_3VecTNtNtCsATtFUPiRFW_3syn8generics13CapturedParamNtNtBK_5token5CommaEENtNtNtCs9f3LFPSIp77_4core3ops5deref5Deref5derefBK_, symObjAddr: 0x8634, symBinAddr: 0x1B398, symSize: 0x24 }
  - { offset: 0x502D5, size: 0x8, addend: 0x0, symName: __RNvXs6_NtCsdze8u8oDPro_5alloc3vecINtB5_3VecTNtNtCsATtFUPiRFW_3syn8generics14TypeParamBoundNtNtBK_5token4PlusEENtNtNtCs9f3LFPSIp77_4core3ops5deref5Deref5derefBK_, symObjAddr: 0x8658, symBinAddr: 0x1B3BC, symSize: 0x24 }
  - { offset: 0x50315, size: 0x8, addend: 0x0, symName: __RNvXs6_NtCsdze8u8oDPro_5alloc3vecINtB5_3VecTNtNtCsATtFUPiRFW_3syn8generics14WherePredicateNtNtBK_5token5CommaEENtNtNtCs9f3LFPSIp77_4core3ops5deref5Deref5derefBK_, symObjAddr: 0x867C, symBinAddr: 0x1B3E0, symSize: 0x24 }
  - { offset: 0x50355, size: 0x8, addend: 0x0, symName: __RNvXs6_NtCsdze8u8oDPro_5alloc3vecINtB5_3VecTNtNtCsATtFUPiRFW_3syn8lifetime8LifetimeNtNtBK_5token4PlusEENtNtNtCs9f3LFPSIp77_4core3ops5deref5Deref5derefBK_, symObjAddr: 0x86A0, symBinAddr: 0x1B404, symSize: 0x24 }
  - { offset: 0x50395, size: 0x8, addend: 0x0, symName: __RNvXs6_NtCsdze8u8oDPro_5alloc3vecINtB5_3VechENtNtNtCs9f3LFPSIp77_4core3ops5deref5Deref5derefCsATtFUPiRFW_3syn, symObjAddr: 0x86C4, symBinAddr: 0x1B428, symSize: 0x24 }
  - { offset: 0x514BB, size: 0x8, addend: 0x0, symName: __RNvXs7_NtCsdze8u8oDPro_5alloc3vecINtB5_3VecTNtNtCsATtFUPiRFW_3syn4data5FieldNtNtBK_5token5CommaEENtNtNtCs9f3LFPSIp77_4core3ops5deref8DerefMut9deref_mutBK_, symObjAddr: 0x86E8, symBinAddr: 0x1B44C, symSize: 0x24 }
  - { offset: 0x514FB, size: 0x8, addend: 0x0, symName: __RNvXs7_NtCsdze8u8oDPro_5alloc3vecINtB5_3VecTNtNtCsATtFUPiRFW_3syn4path11PathSegmentNtNtBK_5token7PathSepEENtNtNtCs9f3LFPSIp77_4core3ops5deref8DerefMut9deref_mutBK_, symObjAddr: 0x870C, symBinAddr: 0x1B470, symSize: 0x24 }
  - { offset: 0x5153B, size: 0x8, addend: 0x0, symName: __RNvXs7_NtCsdze8u8oDPro_5alloc3vecINtB5_3VecTNtNtCsATtFUPiRFW_3syn8generics12GenericParamNtNtBK_5token5CommaEENtNtNtCs9f3LFPSIp77_4core3ops5deref8DerefMut9deref_mutBK_, symObjAddr: 0x8730, symBinAddr: 0x1B494, symSize: 0x24 }
  - { offset: 0x51611, size: 0x8, addend: 0x0, symName: __RNvXs9_NtCsdze8u8oDPro_5alloc3vecINtB5_3VecNtNtCsATtFUPiRFW_3syn4attr9AttributeENtNtCs9f3LFPSIp77_4core5clone5Clone5cloneBJ_, symObjAddr: 0x8754, symBinAddr: 0x1B4B8, symSize: 0xB0 }
  - { offset: 0x51875, size: 0x8, addend: 0x0, symName: __RNvXs9_NtCsdze8u8oDPro_5alloc3vecINtB5_3VecNtNtCsATtFUPiRFW_3syn4expr3ArmENtNtCs9f3LFPSIp77_4core5clone5Clone5cloneBJ_, symObjAddr: 0x8804, symBinAddr: 0x1B568, symSize: 0xB0 }
  - { offset: 0x51AD9, size: 0x8, addend: 0x0, symName: __RNvXs9_NtCsdze8u8oDPro_5alloc3vecINtB5_3VecNtNtCsATtFUPiRFW_3syn4item11ForeignItemENtNtCs9f3LFPSIp77_4core5clone5Clone5cloneBJ_, symObjAddr: 0x88B4, symBinAddr: 0x1B618, symSize: 0xB0 }
  - { offset: 0x51D3D, size: 0x8, addend: 0x0, symName: __RNvXs9_NtCsdze8u8oDPro_5alloc3vecINtB5_3VecNtNtCsATtFUPiRFW_3syn4item4ItemENtNtCs9f3LFPSIp77_4core5clone5Clone5cloneBJ_, symObjAddr: 0x8964, symBinAddr: 0x1B6C8, symSize: 0xB0 }
  - { offset: 0x51FA1, size: 0x8, addend: 0x0, symName: __RNvXs9_NtCsdze8u8oDPro_5alloc3vecINtB5_3VecNtNtCsATtFUPiRFW_3syn4item8ImplItemENtNtCs9f3LFPSIp77_4core5clone5Clone5cloneBJ_, symObjAddr: 0x8A14, symBinAddr: 0x1B778, symSize: 0xB0 }
  - { offset: 0x52205, size: 0x8, addend: 0x0, symName: __RNvXs9_NtCsdze8u8oDPro_5alloc3vecINtB5_3VecNtNtCsATtFUPiRFW_3syn4item9TraitItemENtNtCs9f3LFPSIp77_4core5clone5Clone5cloneBJ_, symObjAddr: 0x8AC4, symBinAddr: 0x1B828, symSize: 0xB0 }
  - { offset: 0x52469, size: 0x8, addend: 0x0, symName: __RNvXs9_NtCsdze8u8oDPro_5alloc3vecINtB5_3VecNtNtCsATtFUPiRFW_3syn4stmt4StmtENtNtCs9f3LFPSIp77_4core5clone5Clone5cloneBJ_, symObjAddr: 0x8B74, symBinAddr: 0x1B8D8, symSize: 0xB0 }
  - { offset: 0x526CD, size: 0x8, addend: 0x0, symName: __RNvXs9_NtCsdze8u8oDPro_5alloc3vecINtB5_3VecNtNtCsATtFUPiRFW_3syn5error12ErrorMessageENtNtCs9f3LFPSIp77_4core5clone5Clone5cloneBJ_, symObjAddr: 0x8C24, symBinAddr: 0x1B988, symSize: 0xB0 }
  - { offset: 0x52931, size: 0x8, addend: 0x0, symName: __RNvXs9_NtCsdze8u8oDPro_5alloc3vecINtB5_3VecTNtNtCsATtFUPiRFW_3syn2ty4TypeNtNtBK_5token5CommaEENtNtCs9f3LFPSIp77_4core5clone5Clone5cloneBK_, symObjAddr: 0x8CD4, symBinAddr: 0x1BA38, symSize: 0xB0 }
  - { offset: 0x52B95, size: 0x8, addend: 0x0, symName: __RNvXs9_NtCsdze8u8oDPro_5alloc3vecINtB5_3VecTNtNtCsATtFUPiRFW_3syn2ty9BareFnArgNtNtBK_5token5CommaEENtNtCs9f3LFPSIp77_4core5clone5Clone5cloneBK_, symObjAddr: 0x8D84, symBinAddr: 0x1BAE8, symSize: 0xB0 }
  - { offset: 0x52DF9, size: 0x8, addend: 0x0, symName: __RNvXs9_NtCsdze8u8oDPro_5alloc3vecINtB5_3VecTNtNtCsATtFUPiRFW_3syn3pat3PatNtNtBK_5token2OrEENtNtCs9f3LFPSIp77_4core5clone5Clone5cloneBK_, symObjAddr: 0x8E34, symBinAddr: 0x1BB98, symSize: 0xB0 }
  - { offset: 0x5305D, size: 0x8, addend: 0x0, symName: __RNvXs9_NtCsdze8u8oDPro_5alloc3vecINtB5_3VecTNtNtCsATtFUPiRFW_3syn3pat3PatNtNtBK_5token5CommaEENtNtCs9f3LFPSIp77_4core5clone5Clone5cloneBK_, symObjAddr: 0x8EE4, symBinAddr: 0x1BC48, symSize: 0xB0 }
  - { offset: 0x532C1, size: 0x8, addend: 0x0, symName: __RNvXs9_NtCsdze8u8oDPro_5alloc3vecINtB5_3VecTNtNtCsATtFUPiRFW_3syn3pat8FieldPatNtNtBK_5token5CommaEENtNtCs9f3LFPSIp77_4core5clone5Clone5cloneBK_, symObjAddr: 0x8F94, symBinAddr: 0x1BCF8, symSize: 0xB0 }
  - { offset: 0x53525, size: 0x8, addend: 0x0, symName: __RNvXs9_NtCsdze8u8oDPro_5alloc3vecINtB5_3VecTNtNtCsATtFUPiRFW_3syn4data5FieldNtNtBK_5token5CommaEENtNtCs9f3LFPSIp77_4core5clone5Clone5cloneBK_, symObjAddr: 0x9044, symBinAddr: 0x1BDA8, symSize: 0xB0 }
  - { offset: 0x53789, size: 0x8, addend: 0x0, symName: __RNvXs9_NtCsdze8u8oDPro_5alloc3vecINtB5_3VecTNtNtCsATtFUPiRFW_3syn4data7VariantNtNtBK_5token5CommaEENtNtCs9f3LFPSIp77_4core5clone5Clone5cloneBK_, symObjAddr: 0x90F4, symBinAddr: 0x1BE58, symSize: 0xB0 }
  - { offset: 0x539ED, size: 0x8, addend: 0x0, symName: __RNvXs9_NtCsdze8u8oDPro_5alloc3vecINtB5_3VecTNtNtCsATtFUPiRFW_3syn4expr10FieldValueNtNtBK_5token5CommaEENtNtCs9f3LFPSIp77_4core5clone5Clone5cloneBK_, symObjAddr: 0x91A4, symBinAddr: 0x1BF08, symSize: 0xB0 }
  - { offset: 0x53C51, size: 0x8, addend: 0x0, symName: __RNvXs9_NtCsdze8u8oDPro_5alloc3vecINtB5_3VecTNtNtCsATtFUPiRFW_3syn4expr4ExprNtNtBK_5token5CommaEENtNtCs9f3LFPSIp77_4core5clone5Clone5cloneBK_, symObjAddr: 0x9254, symBinAddr: 0x1BFB8, symSize: 0xB0 }
  - { offset: 0x53EB5, size: 0x8, addend: 0x0, symName: __RNvXs9_NtCsdze8u8oDPro_5alloc3vecINtB5_3VecTNtNtCsATtFUPiRFW_3syn4item5FnArgNtNtBK_5token5CommaEENtNtCs9f3LFPSIp77_4core5clone5Clone5cloneBK_, symObjAddr: 0x9304, symBinAddr: 0x1C068, symSize: 0xB0 }
  - { offset: 0x54119, size: 0x8, addend: 0x0, symName: __RNvXs9_NtCsdze8u8oDPro_5alloc3vecINtB5_3VecTNtNtCsATtFUPiRFW_3syn4item7UseTreeNtNtBK_5token5CommaEENtNtCs9f3LFPSIp77_4core5clone5Clone5cloneBK_, symObjAddr: 0x93B4, symBinAddr: 0x1C118, symSize: 0xB0 }
  - { offset: 0x5437D, size: 0x8, addend: 0x0, symName: __RNvXs9_NtCsdze8u8oDPro_5alloc3vecINtB5_3VecTNtNtCsATtFUPiRFW_3syn4path11PathSegmentNtNtBK_5token7PathSepEENtNtCs9f3LFPSIp77_4core5clone5Clone5cloneBK_, symObjAddr: 0x9464, symBinAddr: 0x1C1C8, symSize: 0xB0 }
  - { offset: 0x545E1, size: 0x8, addend: 0x0, symName: __RNvXs9_NtCsdze8u8oDPro_5alloc3vecINtB5_3VecTNtNtCsATtFUPiRFW_3syn4path15GenericArgumentNtNtBK_5token5CommaEENtNtCs9f3LFPSIp77_4core5clone5Clone5cloneBK_, symObjAddr: 0x9514, symBinAddr: 0x1C278, symSize: 0xB0 }
  - { offset: 0x54845, size: 0x8, addend: 0x0, symName: __RNvXs9_NtCsdze8u8oDPro_5alloc3vecINtB5_3VecTNtNtCsATtFUPiRFW_3syn8generics12GenericParamNtNtBK_5token5CommaEENtNtCs9f3LFPSIp77_4core5clone5Clone5cloneBK_, symObjAddr: 0x95C4, symBinAddr: 0x1C328, symSize: 0xB0 }
  - { offset: 0x54AA9, size: 0x8, addend: 0x0, symName: __RNvXs9_NtCsdze8u8oDPro_5alloc3vecINtB5_3VecTNtNtCsATtFUPiRFW_3syn8generics13CapturedParamNtNtBK_5token5CommaEENtNtCs9f3LFPSIp77_4core5clone5Clone5cloneBK_, symObjAddr: 0x9674, symBinAddr: 0x1C3D8, symSize: 0xB0 }
  - { offset: 0x54D0D, size: 0x8, addend: 0x0, symName: __RNvXs9_NtCsdze8u8oDPro_5alloc3vecINtB5_3VecTNtNtCsATtFUPiRFW_3syn8generics14TypeParamBoundNtNtBK_5token4PlusEENtNtCs9f3LFPSIp77_4core5clone5Clone5cloneBK_, symObjAddr: 0x9724, symBinAddr: 0x1C488, symSize: 0xB0 }
  - { offset: 0x54F71, size: 0x8, addend: 0x0, symName: __RNvXs9_NtCsdze8u8oDPro_5alloc3vecINtB5_3VecTNtNtCsATtFUPiRFW_3syn8generics14WherePredicateNtNtBK_5token5CommaEENtNtCs9f3LFPSIp77_4core5clone5Clone5cloneBK_, symObjAddr: 0x97D4, symBinAddr: 0x1C538, symSize: 0xB0 }
  - { offset: 0x551D5, size: 0x8, addend: 0x0, symName: __RNvXs9_NtCsdze8u8oDPro_5alloc3vecINtB5_3VecTNtNtCsATtFUPiRFW_3syn8lifetime8LifetimeNtNtBK_5token4PlusEENtNtCs9f3LFPSIp77_4core5clone5Clone5cloneBK_, symObjAddr: 0x9884, symBinAddr: 0x1C5E8, symSize: 0xB0 }
  - { offset: 0x5543F, size: 0x8, addend: 0x0, symName: __RNvXsb_NtCsdze8u8oDPro_5alloc3vecINtB5_3VecNtNtCsATtFUPiRFW_3syn4attr9AttributeEINtNtNtCs9f3LFPSIp77_4core3ops5index5IndexNtNtB1l_5range9RangeFullE5indexBJ_, symObjAddr: 0x9A60, symBinAddr: 0x1C7C4, symSize: 0x90 }
  - { offset: 0x5561D, size: 0x8, addend: 0x0, symName: __RNvXsb_NtCsdze8u8oDPro_5alloc3vecINtB5_3VecNtNtCsATtFUPiRFW_3syn4expr3ArmEINtNtNtCs9f3LFPSIp77_4core3ops5index5IndexNtNtB1f_5range9RangeFullE5indexBJ_, symObjAddr: 0x9AF0, symBinAddr: 0x1C854, symSize: 0x90 }
  - { offset: 0x557FB, size: 0x8, addend: 0x0, symName: __RNvXsb_NtCsdze8u8oDPro_5alloc3vecINtB5_3VecNtNtCsATtFUPiRFW_3syn4item11ForeignItemEINtNtNtCs9f3LFPSIp77_4core3ops5index5IndexNtNtB1o_5range9RangeFullE5indexBJ_, symObjAddr: 0x9B80, symBinAddr: 0x1C8E4, symSize: 0x90 }
  - { offset: 0x559D9, size: 0x8, addend: 0x0, symName: __RNvXsb_NtCsdze8u8oDPro_5alloc3vecINtB5_3VecNtNtCsATtFUPiRFW_3syn4item4ItemEINtNtNtCs9f3LFPSIp77_4core3ops5index5IndexNtNtB1g_5range9RangeFullE5indexBJ_, symObjAddr: 0x9C10, symBinAddr: 0x1C974, symSize: 0x90 }
  - { offset: 0x55BB7, size: 0x8, addend: 0x0, symName: __RNvXsb_NtCsdze8u8oDPro_5alloc3vecINtB5_3VecNtNtCsATtFUPiRFW_3syn4item8ImplItemEINtNtNtCs9f3LFPSIp77_4core3ops5index5IndexNtNtB1k_5range9RangeFullE5indexBJ_, symObjAddr: 0x9CA0, symBinAddr: 0x1CA04, symSize: 0x90 }
  - { offset: 0x55D95, size: 0x8, addend: 0x0, symName: __RNvXsb_NtCsdze8u8oDPro_5alloc3vecINtB5_3VecNtNtCsATtFUPiRFW_3syn4item9TraitItemEINtNtNtCs9f3LFPSIp77_4core3ops5index5IndexNtNtB1l_5range9RangeFullE5indexBJ_, symObjAddr: 0x9D30, symBinAddr: 0x1CA94, symSize: 0x90 }
  - { offset: 0x55F73, size: 0x8, addend: 0x0, symName: __RNvXsb_NtCsdze8u8oDPro_5alloc3vecINtB5_3VecNtNtCsATtFUPiRFW_3syn4stmt4StmtEINtNtNtCs9f3LFPSIp77_4core3ops5index5IndexNtNtB1g_5range9RangeFullE5indexBJ_, symObjAddr: 0x9DC0, symBinAddr: 0x1CB24, symSize: 0x90 }
  - { offset: 0x56151, size: 0x8, addend: 0x0, symName: __RNvXsb_NtCsdze8u8oDPro_5alloc3vecINtB5_3VecNtNtCsATtFUPiRFW_3syn5error12ErrorMessageEINtNtNtCs9f3LFPSIp77_4core3ops5index5IndexjE5indexBJ_, symObjAddr: 0x9E50, symBinAddr: 0x1CBB4, symSize: 0x9C }
  - { offset: 0x5632F, size: 0x8, addend: 0x0, symName: __RNvXsb_NtCsdze8u8oDPro_5alloc3vecINtB5_3VecReEINtNtNtCs9f3LFPSIp77_4core3ops5index5IndexjE5indexCsATtFUPiRFW_3syn, symObjAddr: 0x9EEC, symBinAddr: 0x1CC50, symSize: 0x9C }
  - { offset: 0x5650D, size: 0x8, addend: 0x0, symName: __RNvXsb_NtCsdze8u8oDPro_5alloc3vecINtB5_3VecTNtNtCsATtFUPiRFW_3syn2ty4TypeNtNtBK_5token5CommaEEINtNtNtCs9f3LFPSIp77_4core3ops5index5IndexNtNtB1z_5range9RangeFullE5indexBK_, symObjAddr: 0x9F88, symBinAddr: 0x1CCEC, symSize: 0x90 }
  - { offset: 0x566EB, size: 0x8, addend: 0x0, symName: __RNvXsb_NtCsdze8u8oDPro_5alloc3vecINtB5_3VecTNtNtCsATtFUPiRFW_3syn2ty9BareFnArgNtNtBK_5token5CommaEEINtNtNtCs9f3LFPSIp77_4core3ops5index5IndexNtNtB1E_5range9RangeFullE5indexBK_, symObjAddr: 0xA018, symBinAddr: 0x1CD7C, symSize: 0x90 }
  - { offset: 0x568C9, size: 0x8, addend: 0x0, symName: __RNvXsb_NtCsdze8u8oDPro_5alloc3vecINtB5_3VecTNtNtCsATtFUPiRFW_3syn3pat3PatNtNtBK_5token2OrEEINtNtNtCs9f3LFPSIp77_4core3ops5index5IndexNtNtB1w_5range9RangeFullE5indexBK_, symObjAddr: 0xA0A8, symBinAddr: 0x1CE0C, symSize: 0x90 }
  - { offset: 0x56AA7, size: 0x8, addend: 0x0, symName: __RNvXsb_NtCsdze8u8oDPro_5alloc3vecINtB5_3VecTNtNtCsATtFUPiRFW_3syn3pat3PatNtNtBK_5token5CommaEEINtNtNtCs9f3LFPSIp77_4core3ops5index5IndexNtNtB1z_5range9RangeFullE5indexBK_, symObjAddr: 0xA138, symBinAddr: 0x1CE9C, symSize: 0x90 }
  - { offset: 0x56C85, size: 0x8, addend: 0x0, symName: __RNvXsb_NtCsdze8u8oDPro_5alloc3vecINtB5_3VecTNtNtCsATtFUPiRFW_3syn3pat3PatNtNtBK_5token5CommaEEINtNtNtCs9f3LFPSIp77_4core3ops5index5IndexjE5indexBK_, symObjAddr: 0xA1C8, symBinAddr: 0x1CF2C, symSize: 0x9C }
  - { offset: 0x56E63, size: 0x8, addend: 0x0, symName: __RNvXsb_NtCsdze8u8oDPro_5alloc3vecINtB5_3VecTNtNtCsATtFUPiRFW_3syn3pat8FieldPatNtNtBK_5token5CommaEEINtNtNtCs9f3LFPSIp77_4core3ops5index5IndexNtNtB1E_5range9RangeFullE5indexBK_, symObjAddr: 0xA264, symBinAddr: 0x1CFC8, symSize: 0x90 }
  - { offset: 0x57041, size: 0x8, addend: 0x0, symName: __RNvXsb_NtCsdze8u8oDPro_5alloc3vecINtB5_3VecTNtNtCsATtFUPiRFW_3syn4data5FieldNtNtBK_5token5CommaEEINtNtNtCs9f3LFPSIp77_4core3ops5index5IndexNtNtB1C_5range9RangeFullE5indexBK_, symObjAddr: 0xA2F4, symBinAddr: 0x1D058, symSize: 0x90 }
  - { offset: 0x5721F, size: 0x8, addend: 0x0, symName: __RNvXsb_NtCsdze8u8oDPro_5alloc3vecINtB5_3VecTNtNtCsATtFUPiRFW_3syn4data7VariantNtNtBK_5token5CommaEEINtNtNtCs9f3LFPSIp77_4core3ops5index5IndexNtNtB1E_5range9RangeFullE5indexBK_, symObjAddr: 0xA384, symBinAddr: 0x1D0E8, symSize: 0x90 }
  - { offset: 0x573FD, size: 0x8, addend: 0x0, symName: __RNvXsb_NtCsdze8u8oDPro_5alloc3vecINtB5_3VecTNtNtCsATtFUPiRFW_3syn4expr10FieldValueNtNtBK_5token5CommaEEINtNtNtCs9f3LFPSIp77_4core3ops5index5IndexNtNtB1I_5range9RangeFullE5indexBK_, symObjAddr: 0xA414, symBinAddr: 0x1D178, symSize: 0x90 }
  - { offset: 0x575DB, size: 0x8, addend: 0x0, symName: __RNvXsb_NtCsdze8u8oDPro_5alloc3vecINtB5_3VecTNtNtCsATtFUPiRFW_3syn4expr4ExprNtNtBK_5token5CommaEEINtNtNtCs9f3LFPSIp77_4core3ops5index5IndexNtNtB1B_5range9RangeFullE5indexBK_, symObjAddr: 0xA4A4, symBinAddr: 0x1D208, symSize: 0x90 }
  - { offset: 0x577B9, size: 0x8, addend: 0x0, symName: __RNvXsb_NtCsdze8u8oDPro_5alloc3vecINtB5_3VecTNtNtCsATtFUPiRFW_3syn4item5FnArgNtNtBK_5token5CommaEEINtNtNtCs9f3LFPSIp77_4core3ops5index5IndexNtNtB1C_5range9RangeFullE5indexBK_, symObjAddr: 0xA534, symBinAddr: 0x1D298, symSize: 0x90 }
  - { offset: 0x57997, size: 0x8, addend: 0x0, symName: __RNvXsb_NtCsdze8u8oDPro_5alloc3vecINtB5_3VecTNtNtCsATtFUPiRFW_3syn4item7UseTreeNtNtBK_5token5CommaEEINtNtNtCs9f3LFPSIp77_4core3ops5index5IndexNtNtB1E_5range9RangeFullE5indexBK_, symObjAddr: 0xA5C4, symBinAddr: 0x1D328, symSize: 0x90 }
  - { offset: 0x57B75, size: 0x8, addend: 0x0, symName: __RNvXsb_NtCsdze8u8oDPro_5alloc3vecINtB5_3VecTNtNtCsATtFUPiRFW_3syn4path11PathSegmentNtNtBK_5token7PathSepEEINtNtNtCs9f3LFPSIp77_4core3ops5index5IndexNtNtB1L_5range9RangeFullE5indexBK_, symObjAddr: 0xA654, symBinAddr: 0x1D3B8, symSize: 0x90 }
  - { offset: 0x57D53, size: 0x8, addend: 0x0, symName: __RNvXsb_NtCsdze8u8oDPro_5alloc3vecINtB5_3VecTNtNtCsATtFUPiRFW_3syn4path11PathSegmentNtNtBK_5token7PathSepEEINtNtNtCs9f3LFPSIp77_4core3ops5index5IndexjE5indexBK_, symObjAddr: 0xA6E4, symBinAddr: 0x1D448, symSize: 0x9C }
  - { offset: 0x57F31, size: 0x8, addend: 0x0, symName: __RNvXsb_NtCsdze8u8oDPro_5alloc3vecINtB5_3VecTNtNtCsATtFUPiRFW_3syn4path15GenericArgumentNtNtBK_5token5CommaEEINtNtNtCs9f3LFPSIp77_4core3ops5index5IndexNtNtB1N_5range9RangeFullE5indexBK_, symObjAddr: 0xA780, symBinAddr: 0x1D4E4, symSize: 0x90 }
  - { offset: 0x5810F, size: 0x8, addend: 0x0, symName: __RNvXsb_NtCsdze8u8oDPro_5alloc3vecINtB5_3VecTNtNtCsATtFUPiRFW_3syn8generics12GenericParamNtNtBK_5token5CommaEEINtNtNtCs9f3LFPSIp77_4core3ops5index5IndexNtNtB1O_5range9RangeFullE5indexBK_, symObjAddr: 0xA810, symBinAddr: 0x1D574, symSize: 0x90 }
  - { offset: 0x582ED, size: 0x8, addend: 0x0, symName: __RNvXsb_NtCsdze8u8oDPro_5alloc3vecINtB5_3VecTNtNtCsATtFUPiRFW_3syn8generics13CapturedParamNtNtBK_5token5CommaEEINtNtNtCs9f3LFPSIp77_4core3ops5index5IndexNtNtB1P_5range9RangeFullE5indexBK_, symObjAddr: 0xA8A0, symBinAddr: 0x1D604, symSize: 0x90 }
  - { offset: 0x584CB, size: 0x8, addend: 0x0, symName: __RNvXsb_NtCsdze8u8oDPro_5alloc3vecINtB5_3VecTNtNtCsATtFUPiRFW_3syn8generics14TypeParamBoundNtNtBK_5token4PlusEEINtNtNtCs9f3LFPSIp77_4core3ops5index5IndexNtNtB1P_5range9RangeFullE5indexBK_, symObjAddr: 0xA930, symBinAddr: 0x1D694, symSize: 0x90 }
  - { offset: 0x586A9, size: 0x8, addend: 0x0, symName: __RNvXsb_NtCsdze8u8oDPro_5alloc3vecINtB5_3VecTNtNtCsATtFUPiRFW_3syn8generics14WherePredicateNtNtBK_5token5CommaEEINtNtNtCs9f3LFPSIp77_4core3ops5index5IndexNtNtB1Q_5range9RangeFullE5indexBK_, symObjAddr: 0xA9C0, symBinAddr: 0x1D724, symSize: 0x90 }
  - { offset: 0x58887, size: 0x8, addend: 0x0, symName: __RNvXsb_NtCsdze8u8oDPro_5alloc3vecINtB5_3VecTNtNtCsATtFUPiRFW_3syn8lifetime8LifetimeNtNtBK_5token4PlusEEINtNtNtCs9f3LFPSIp77_4core3ops5index5IndexNtNtB1I_5range9RangeFullE5indexBK_, symObjAddr: 0xAA50, symBinAddr: 0x1D7B4, symSize: 0x90 }
  - { offset: 0x58A65, size: 0x8, addend: 0x0, symName: __RNvXsb_NtCsdze8u8oDPro_5alloc3vecINtB5_3VechEINtNtNtCs9f3LFPSIp77_4core3ops5index5IndexINtNtBM_5range9RangeFromjEE5indexCsATtFUPiRFW_3syn, symObjAddr: 0xAAE0, symBinAddr: 0x1D844, symSize: 0x98 }
  - { offset: 0x58C43, size: 0x8, addend: 0x0, symName: __RNvXsb_NtCsdze8u8oDPro_5alloc3vecINtB5_3VechEINtNtNtCs9f3LFPSIp77_4core3ops5index5IndexjE5indexCsATtFUPiRFW_3syn, symObjAddr: 0xAB78, symBinAddr: 0x1D8DC, symSize: 0x98 }
  - { offset: 0x58E27, size: 0x8, addend: 0x0, symName: __RNvXsc_NtCsdze8u8oDPro_5alloc3vecINtB5_3VecNtNtCsATtFUPiRFW_3syn6buffer5EntryEINtNtNtCs9f3LFPSIp77_4core3ops5index8IndexMutjE9index_mutBJ_, symObjAddr: 0xAC10, symBinAddr: 0x1D974, symSize: 0x9C }
  - { offset: 0x58FD8, size: 0x8, addend: 0x0, symName: __RNvXsc_NtCsdze8u8oDPro_5alloc3vecINtB5_3VechEINtNtNtCs9f3LFPSIp77_4core3ops5index8IndexMutjE9index_mutCsATtFUPiRFW_3syn, symObjAddr: 0xACAC, symBinAddr: 0x1DA10, symSize: 0x98 }
  - { offset: 0x5918F, size: 0x8, addend: 0x0, symName: __RNvXse_NtCsdze8u8oDPro_5alloc3vecINtB5_3VecNtNtCsATtFUPiRFW_3syn4attr9AttributeENtNtNtNtCs9f3LFPSIp77_4core4iter6traits7collect12IntoIterator9into_iterBJ_, symObjAddr: 0xAD44, symBinAddr: 0x1DAA8, symSize: 0xF8 }
  - { offset: 0x5945E, size: 0x8, addend: 0x0, symName: __RNvXse_NtCsdze8u8oDPro_5alloc3vecINtB5_3VecNtNtCsATtFUPiRFW_3syn4data5FieldENtNtNtNtCs9f3LFPSIp77_4core4iter6traits7collect12IntoIterator9into_iterBJ_, symObjAddr: 0xAE3C, symBinAddr: 0x1DBA0, symSize: 0x100 }
  - { offset: 0x5972D, size: 0x8, addend: 0x0, symName: __RNvXse_NtCsdze8u8oDPro_5alloc3vecINtB5_3VecNtNtCsATtFUPiRFW_3syn5error12ErrorMessageENtNtNtNtCs9f3LFPSIp77_4core4iter6traits7collect12IntoIterator9into_iterBJ_, symObjAddr: 0xAF3C, symBinAddr: 0x1DCA0, symSize: 0x100 }
  - { offset: 0x599FC, size: 0x8, addend: 0x0, symName: __RNvXse_NtCsdze8u8oDPro_5alloc3vecINtB5_3VecNtNtCsATtFUPiRFW_3syn8generics14TypeParamBoundENtNtNtNtCs9f3LFPSIp77_4core4iter6traits7collect12IntoIterator9into_iterBJ_, symObjAddr: 0xB03C, symBinAddr: 0x1DDA0, symSize: 0x100 }
  - { offset: 0x59CCB, size: 0x8, addend: 0x0, symName: __RNvXse_NtCsdze8u8oDPro_5alloc3vecINtB5_3VecTNtNtCsATtFUPiRFW_3syn4data5FieldNtNtBK_5token5CommaEENtNtNtNtCs9f3LFPSIp77_4core4iter6traits7collect12IntoIterator9into_iterBK_, symObjAddr: 0xB13C, symBinAddr: 0x1DEA0, symSize: 0x100 }
  - { offset: 0x59F9A, size: 0x8, addend: 0x0, symName: __RNvXse_NtCsdze8u8oDPro_5alloc3vecINtB5_3VecTNtNtCsATtFUPiRFW_3syn4data5FielduEENtNtNtNtCs9f3LFPSIp77_4core4iter6traits7collect12IntoIterator9into_iterBK_, symObjAddr: 0xB23C, symBinAddr: 0x1DFA0, symSize: 0x100 }
  - { offset: 0x5A269, size: 0x8, addend: 0x0, symName: __RNvXse_NtCsdze8u8oDPro_5alloc3vecINtB5_3VecTNtNtCsATtFUPiRFW_3syn4path11PathSegmentNtNtBK_5token7PathSepEENtNtNtNtCs9f3LFPSIp77_4core4iter6traits7collect12IntoIterator9into_iterBK_, symObjAddr: 0xB33C, symBinAddr: 0x1E0A0, symSize: 0x100 }
  - { offset: 0x5A538, size: 0x8, addend: 0x0, symName: __RNvXse_NtCsdze8u8oDPro_5alloc3vecINtB5_3VecTNtNtCsATtFUPiRFW_3syn8generics14TypeParamBoundNtNtBK_5token4PlusEENtNtNtNtCs9f3LFPSIp77_4core4iter6traits7collect12IntoIterator9into_iterBK_, symObjAddr: 0xB43C, symBinAddr: 0x1E1A0, symSize: 0xF8 }
  - { offset: 0x5A80D, size: 0x8, addend: 0x0, symName: __RNvXsf_NtCsdze8u8oDPro_5alloc3vecRINtB5_3VecNtNtCsATtFUPiRFW_3syn4attr9AttributeENtNtNtNtCs9f3LFPSIp77_4core4iter6traits7collect12IntoIterator9into_iterBK_, symObjAddr: 0xB534, symBinAddr: 0x1E298, symSize: 0xB0 }
  - { offset: 0x5AA8D, size: 0x8, addend: 0x0, symName: __RNvXsf_NtCsdze8u8oDPro_5alloc3vecRINtB5_3VecNtNtCsATtFUPiRFW_3syn4item11ForeignItemENtNtNtNtCs9f3LFPSIp77_4core4iter6traits7collect12IntoIterator9into_iterBK_, symObjAddr: 0xB5E4, symBinAddr: 0x1E348, symSize: 0xB8 }
  - { offset: 0x5AD0D, size: 0x8, addend: 0x0, symName: __RNvXsf_NtCsdze8u8oDPro_5alloc3vecRINtB5_3VecNtNtCsATtFUPiRFW_3syn4item4ItemENtNtNtNtCs9f3LFPSIp77_4core4iter6traits7collect12IntoIterator9into_iterBK_, symObjAddr: 0xB69C, symBinAddr: 0x1E400, symSize: 0xB8 }
  - { offset: 0x5AF8D, size: 0x8, addend: 0x0, symName: __RNvXsf_NtCsdze8u8oDPro_5alloc3vecRINtB5_3VecNtNtCsATtFUPiRFW_3syn4item8ImplItemENtNtNtNtCs9f3LFPSIp77_4core4iter6traits7collect12IntoIterator9into_iterBK_, symObjAddr: 0xB754, symBinAddr: 0x1E4B8, symSize: 0xB8 }
  - { offset: 0x5B20D, size: 0x8, addend: 0x0, symName: __RNvXsf_NtCsdze8u8oDPro_5alloc3vecRINtB5_3VecNtNtCsATtFUPiRFW_3syn4item9TraitItemENtNtNtNtCs9f3LFPSIp77_4core4iter6traits7collect12IntoIterator9into_iterBK_, symObjAddr: 0xB80C, symBinAddr: 0x1E570, symSize: 0xB8 }
  - { offset: 0x5B48D, size: 0x8, addend: 0x0, symName: __RNvXsf_NtCsdze8u8oDPro_5alloc3vecRINtB5_3VecNtNtCsATtFUPiRFW_3syn4stmt4StmtENtNtNtNtCs9f3LFPSIp77_4core4iter6traits7collect12IntoIterator9into_iterBK_, symObjAddr: 0xB8C4, symBinAddr: 0x1E628, symSize: 0xB8 }
  - { offset: 0x5B70D, size: 0x8, addend: 0x0, symName: __RNvXsf_NtCsdze8u8oDPro_5alloc3vecRINtB5_3VecTNtNtCsATtFUPiRFW_3syn2ty4TypeNtNtBL_5token5CommaEENtNtNtNtCs9f3LFPSIp77_4core4iter6traits7collect12IntoIterator9into_iterBL_, symObjAddr: 0xB97C, symBinAddr: 0x1E6E0, symSize: 0xB8 }
  - { offset: 0x5B98D, size: 0x8, addend: 0x0, symName: __RNvXsf_NtCsdze8u8oDPro_5alloc3vecRINtB5_3VecTNtNtCsATtFUPiRFW_3syn2ty9BareFnArgNtNtBL_5token5CommaEENtNtNtNtCs9f3LFPSIp77_4core4iter6traits7collect12IntoIterator9into_iterBL_, symObjAddr: 0xBA34, symBinAddr: 0x1E798, symSize: 0xB8 }
  - { offset: 0x5BC0D, size: 0x8, addend: 0x0, symName: __RNvXsf_NtCsdze8u8oDPro_5alloc3vecRINtB5_3VecTNtNtCsATtFUPiRFW_3syn3pat3PatNtNtBL_5token2OrEENtNtNtNtCs9f3LFPSIp77_4core4iter6traits7collect12IntoIterator9into_iterBL_, symObjAddr: 0xBAEC, symBinAddr: 0x1E850, symSize: 0xB8 }
  - { offset: 0x5BE8D, size: 0x8, addend: 0x0, symName: __RNvXsf_NtCsdze8u8oDPro_5alloc3vecRINtB5_3VecTNtNtCsATtFUPiRFW_3syn3pat3PatNtNtBL_5token5CommaEENtNtNtNtCs9f3LFPSIp77_4core4iter6traits7collect12IntoIterator9into_iterBL_, symObjAddr: 0xBBA4, symBinAddr: 0x1E908, symSize: 0xB8 }
  - { offset: 0x5C10D, size: 0x8, addend: 0x0, symName: __RNvXsf_NtCsdze8u8oDPro_5alloc3vecRINtB5_3VecTNtNtCsATtFUPiRFW_3syn3pat8FieldPatNtNtBL_5token5CommaEENtNtNtNtCs9f3LFPSIp77_4core4iter6traits7collect12IntoIterator9into_iterBL_, symObjAddr: 0xBC5C, symBinAddr: 0x1E9C0, symSize: 0xB8 }
  - { offset: 0x5C38D, size: 0x8, addend: 0x0, symName: __RNvXsf_NtCsdze8u8oDPro_5alloc3vecRINtB5_3VecTNtNtCsATtFUPiRFW_3syn4data5FieldNtNtBL_5token5CommaEENtNtNtNtCs9f3LFPSIp77_4core4iter6traits7collect12IntoIterator9into_iterBL_, symObjAddr: 0xBD14, symBinAddr: 0x1EA78, symSize: 0xB8 }
  - { offset: 0x5C60D, size: 0x8, addend: 0x0, symName: __RNvXsf_NtCsdze8u8oDPro_5alloc3vecRINtB5_3VecTNtNtCsATtFUPiRFW_3syn4data7VariantNtNtBL_5token5CommaEENtNtNtNtCs9f3LFPSIp77_4core4iter6traits7collect12IntoIterator9into_iterBL_, symObjAddr: 0xBDCC, symBinAddr: 0x1EB30, symSize: 0xB8 }
  - { offset: 0x5C88D, size: 0x8, addend: 0x0, symName: __RNvXsf_NtCsdze8u8oDPro_5alloc3vecRINtB5_3VecTNtNtCsATtFUPiRFW_3syn4expr10FieldValueNtNtBL_5token5CommaEENtNtNtNtCs9f3LFPSIp77_4core4iter6traits7collect12IntoIterator9into_iterBL_, symObjAddr: 0xBE84, symBinAddr: 0x1EBE8, symSize: 0xB8 }
  - { offset: 0x5CB0D, size: 0x8, addend: 0x0, symName: __RNvXsf_NtCsdze8u8oDPro_5alloc3vecRINtB5_3VecTNtNtCsATtFUPiRFW_3syn4expr4ExprNtNtBL_5token5CommaEENtNtNtNtCs9f3LFPSIp77_4core4iter6traits7collect12IntoIterator9into_iterBL_, symObjAddr: 0xBF3C, symBinAddr: 0x1ECA0, symSize: 0xB8 }
  - { offset: 0x5CD8D, size: 0x8, addend: 0x0, symName: __RNvXsf_NtCsdze8u8oDPro_5alloc3vecRINtB5_3VecTNtNtCsATtFUPiRFW_3syn4item5FnArgNtNtBL_5token5CommaEENtNtNtNtCs9f3LFPSIp77_4core4iter6traits7collect12IntoIterator9into_iterBL_, symObjAddr: 0xBFF4, symBinAddr: 0x1ED58, symSize: 0xB8 }
  - { offset: 0x5D00D, size: 0x8, addend: 0x0, symName: __RNvXsf_NtCsdze8u8oDPro_5alloc3vecRINtB5_3VecTNtNtCsATtFUPiRFW_3syn4item7UseTreeNtNtBL_5token5CommaEENtNtNtNtCs9f3LFPSIp77_4core4iter6traits7collect12IntoIterator9into_iterBL_, symObjAddr: 0xC0AC, symBinAddr: 0x1EE10, symSize: 0xB8 }
  - { offset: 0x5D28D, size: 0x8, addend: 0x0, symName: __RNvXsf_NtCsdze8u8oDPro_5alloc3vecRINtB5_3VecTNtNtCsATtFUPiRFW_3syn4path11PathSegmentNtNtBL_5token7PathSepEENtNtNtNtCs9f3LFPSIp77_4core4iter6traits7collect12IntoIterator9into_iterBL_, symObjAddr: 0xC164, symBinAddr: 0x1EEC8, symSize: 0xB8 }
  - { offset: 0x5D50D, size: 0x8, addend: 0x0, symName: __RNvXsf_NtCsdze8u8oDPro_5alloc3vecRINtB5_3VecTNtNtCsATtFUPiRFW_3syn4path15GenericArgumentNtNtBL_5token5CommaEENtNtNtNtCs9f3LFPSIp77_4core4iter6traits7collect12IntoIterator9into_iterBL_, symObjAddr: 0xC21C, symBinAddr: 0x1EF80, symSize: 0xB8 }
  - { offset: 0x5D78D, size: 0x8, addend: 0x0, symName: __RNvXsf_NtCsdze8u8oDPro_5alloc3vecRINtB5_3VecTNtNtCsATtFUPiRFW_3syn8generics12GenericParamNtNtBL_5token5CommaEENtNtNtNtCs9f3LFPSIp77_4core4iter6traits7collect12IntoIterator9into_iterBL_, symObjAddr: 0xC2D4, symBinAddr: 0x1F038, symSize: 0xB8 }
  - { offset: 0x5DA0D, size: 0x8, addend: 0x0, symName: __RNvXsf_NtCsdze8u8oDPro_5alloc3vecRINtB5_3VecTNtNtCsATtFUPiRFW_3syn8generics13CapturedParamNtNtBL_5token5CommaEENtNtNtNtCs9f3LFPSIp77_4core4iter6traits7collect12IntoIterator9into_iterBL_, symObjAddr: 0xC38C, symBinAddr: 0x1F0F0, symSize: 0xB8 }
  - { offset: 0x5DC8D, size: 0x8, addend: 0x0, symName: __RNvXsf_NtCsdze8u8oDPro_5alloc3vecRINtB5_3VecTNtNtCsATtFUPiRFW_3syn8generics14TypeParamBoundNtNtBL_5token4PlusEENtNtNtNtCs9f3LFPSIp77_4core4iter6traits7collect12IntoIterator9into_iterBL_, symObjAddr: 0xC444, symBinAddr: 0x1F1A8, symSize: 0xB0 }
  - { offset: 0x5DF0D, size: 0x8, addend: 0x0, symName: __RNvXsf_NtCsdze8u8oDPro_5alloc3vecRINtB5_3VecTNtNtCsATtFUPiRFW_3syn8generics14WherePredicateNtNtBL_5token5CommaEENtNtNtNtCs9f3LFPSIp77_4core4iter6traits7collect12IntoIterator9into_iterBL_, symObjAddr: 0xC4F4, symBinAddr: 0x1F258, symSize: 0xB8 }
  - { offset: 0x5E18D, size: 0x8, addend: 0x0, symName: __RNvXsf_NtCsdze8u8oDPro_5alloc3vecRINtB5_3VecTNtNtCsATtFUPiRFW_3syn8lifetime8LifetimeNtNtBL_5token4PlusEENtNtNtNtCs9f3LFPSIp77_4core4iter6traits7collect12IntoIterator9into_iterBL_, symObjAddr: 0xC5AC, symBinAddr: 0x1F310, symSize: 0xB8 }
  - { offset: 0x5E413, size: 0x8, addend: 0x0, symName: __RNvXsg_NtCsdze8u8oDPro_5alloc3vecQINtB5_3VechENtNtNtNtCs9f3LFPSIp77_4core4iter6traits7collect12IntoIterator9into_iterCsATtFUPiRFW_3syn, symObjAddr: 0xC664, symBinAddr: 0x1F3C8, symSize: 0xB0 }
  - { offset: 0x5E687, size: 0x8, addend: 0x0, symName: __RNvXsn_NtCsdze8u8oDPro_5alloc3vecINtB5_3VecNtNtCsATtFUPiRFW_3syn4attr9AttributeENtNtNtCs9f3LFPSIp77_4core3ops4drop4Drop4dropBJ_, symObjAddr: 0xC714, symBinAddr: 0x1F478, symSize: 0x50 }
  - { offset: 0x5E794, size: 0x8, addend: 0x0, symName: __RNvXsn_NtCsdze8u8oDPro_5alloc3vecINtB5_3VecNtNtCsATtFUPiRFW_3syn4data5FieldENtNtNtCs9f3LFPSIp77_4core3ops4drop4Drop4dropBJ_, symObjAddr: 0xC764, symBinAddr: 0x1F4C8, symSize: 0x50 }
  - { offset: 0x5E8A1, size: 0x8, addend: 0x0, symName: __RNvXsn_NtCsdze8u8oDPro_5alloc3vecINtB5_3VecNtNtCsATtFUPiRFW_3syn4expr3ArmENtNtNtCs9f3LFPSIp77_4core3ops4drop4Drop4dropBJ_, symObjAddr: 0xC7B4, symBinAddr: 0x1F518, symSize: 0x50 }
  - { offset: 0x5E9AE, size: 0x8, addend: 0x0, symName: __RNvXsn_NtCsdze8u8oDPro_5alloc3vecINtB5_3VecNtNtCsATtFUPiRFW_3syn4expr6ExprIfENtNtNtCs9f3LFPSIp77_4core3ops4drop4Drop4dropBJ_, symObjAddr: 0xC804, symBinAddr: 0x1F568, symSize: 0x50 }
  - { offset: 0x5EABB, size: 0x8, addend: 0x0, symName: __RNvXsn_NtCsdze8u8oDPro_5alloc3vecINtB5_3VecNtNtCsATtFUPiRFW_3syn4item11ForeignItemENtNtNtCs9f3LFPSIp77_4core3ops4drop4Drop4dropBJ_, symObjAddr: 0xC854, symBinAddr: 0x1F5B8, symSize: 0x50 }
  - { offset: 0x5EBC8, size: 0x8, addend: 0x0, symName: __RNvXsn_NtCsdze8u8oDPro_5alloc3vecINtB5_3VecNtNtCsATtFUPiRFW_3syn4item4ItemENtNtNtCs9f3LFPSIp77_4core3ops4drop4Drop4dropBJ_, symObjAddr: 0xC8A4, symBinAddr: 0x1F608, symSize: 0x50 }
  - { offset: 0x5ECD5, size: 0x8, addend: 0x0, symName: __RNvXsn_NtCsdze8u8oDPro_5alloc3vecINtB5_3VecNtNtCsATtFUPiRFW_3syn4item8ImplItemENtNtNtCs9f3LFPSIp77_4core3ops4drop4Drop4dropBJ_, symObjAddr: 0xC8F4, symBinAddr: 0x1F658, symSize: 0x50 }
  - { offset: 0x5EDE2, size: 0x8, addend: 0x0, symName: __RNvXsn_NtCsdze8u8oDPro_5alloc3vecINtB5_3VecNtNtCsATtFUPiRFW_3syn4item9TraitItemENtNtNtCs9f3LFPSIp77_4core3ops4drop4Drop4dropBJ_, symObjAddr: 0xC944, symBinAddr: 0x1F6A8, symSize: 0x50 }
  - { offset: 0x5EEEF, size: 0x8, addend: 0x0, symName: __RNvXsn_NtCsdze8u8oDPro_5alloc3vecINtB5_3VecNtNtCsATtFUPiRFW_3syn4stmt4StmtENtNtNtCs9f3LFPSIp77_4core3ops4drop4Drop4dropBJ_, symObjAddr: 0xC994, symBinAddr: 0x1F6F8, symSize: 0x50 }
  - { offset: 0x5EFFC, size: 0x8, addend: 0x0, symName: __RNvXsn_NtCsdze8u8oDPro_5alloc3vecINtB5_3VecNtNtCsATtFUPiRFW_3syn5error12ErrorMessageENtNtNtCs9f3LFPSIp77_4core3ops4drop4Drop4dropBJ_, symObjAddr: 0xC9E4, symBinAddr: 0x1F748, symSize: 0x50 }
  - { offset: 0x5F109, size: 0x8, addend: 0x0, symName: __RNvXsn_NtCsdze8u8oDPro_5alloc3vecINtB5_3VecNtNtCsATtFUPiRFW_3syn6buffer5EntryENtNtNtCs9f3LFPSIp77_4core3ops4drop4Drop4dropBJ_, symObjAddr: 0xCA34, symBinAddr: 0x1F798, symSize: 0x50 }
  - { offset: 0x5F216, size: 0x8, addend: 0x0, symName: __RNvXsn_NtCsdze8u8oDPro_5alloc3vecINtB5_3VecNtNtCsATtFUPiRFW_3syn8generics14TypeParamBoundENtNtNtCs9f3LFPSIp77_4core3ops4drop4Drop4dropBJ_, symObjAddr: 0xCA84, symBinAddr: 0x1F7E8, symSize: 0x50 }
  - { offset: 0x5F323, size: 0x8, addend: 0x0, symName: __RNvXsn_NtCsdze8u8oDPro_5alloc3vecINtB5_3VecReENtNtNtCs9f3LFPSIp77_4core3ops4drop4Drop4dropCsATtFUPiRFW_3syn, symObjAddr: 0xCAD4, symBinAddr: 0x1F838, symSize: 0x3C }
  - { offset: 0x5F430, size: 0x8, addend: 0x0, symName: __RNvXsn_NtCsdze8u8oDPro_5alloc3vecINtB5_3VecTNtNtCsATtFUPiRFW_3syn2ty4TypeNtNtBK_5token5CommaEENtNtNtCs9f3LFPSIp77_4core3ops4drop4Drop4dropBK_, symObjAddr: 0xCB10, symBinAddr: 0x1F874, symSize: 0x50 }
  - { offset: 0x5F53D, size: 0x8, addend: 0x0, symName: __RNvXsn_NtCsdze8u8oDPro_5alloc3vecINtB5_3VecTNtNtCsATtFUPiRFW_3syn2ty9BareFnArgNtNtBK_5token5CommaEENtNtNtCs9f3LFPSIp77_4core3ops4drop4Drop4dropBK_, symObjAddr: 0xCB60, symBinAddr: 0x1F8C4, symSize: 0x50 }
  - { offset: 0x5F64A, size: 0x8, addend: 0x0, symName: __RNvXsn_NtCsdze8u8oDPro_5alloc3vecINtB5_3VecTNtNtCsATtFUPiRFW_3syn3pat3PatNtNtBK_5token2OrEENtNtNtCs9f3LFPSIp77_4core3ops4drop4Drop4dropBK_, symObjAddr: 0xCBB0, symBinAddr: 0x1F914, symSize: 0x50 }
  - { offset: 0x5F757, size: 0x8, addend: 0x0, symName: __RNvXsn_NtCsdze8u8oDPro_5alloc3vecINtB5_3VecTNtNtCsATtFUPiRFW_3syn3pat3PatNtNtBK_5token5CommaEENtNtNtCs9f3LFPSIp77_4core3ops4drop4Drop4dropBK_, symObjAddr: 0xCC00, symBinAddr: 0x1F964, symSize: 0x50 }
  - { offset: 0x5F864, size: 0x8, addend: 0x0, symName: __RNvXsn_NtCsdze8u8oDPro_5alloc3vecINtB5_3VecTNtNtCsATtFUPiRFW_3syn3pat8FieldPatNtNtBK_5token5CommaEENtNtNtCs9f3LFPSIp77_4core3ops4drop4Drop4dropBK_, symObjAddr: 0xCC50, symBinAddr: 0x1F9B4, symSize: 0x50 }
  - { offset: 0x5F971, size: 0x8, addend: 0x0, symName: __RNvXsn_NtCsdze8u8oDPro_5alloc3vecINtB5_3VecTNtNtCsATtFUPiRFW_3syn4data5FieldNtNtBK_5token5CommaEENtNtNtCs9f3LFPSIp77_4core3ops4drop4Drop4dropBK_, symObjAddr: 0xCCA0, symBinAddr: 0x1FA04, symSize: 0x50 }
  - { offset: 0x5FA7E, size: 0x8, addend: 0x0, symName: __RNvXsn_NtCsdze8u8oDPro_5alloc3vecINtB5_3VecTNtNtCsATtFUPiRFW_3syn4data5FielduEENtNtNtCs9f3LFPSIp77_4core3ops4drop4Drop4dropBK_, symObjAddr: 0xCCF0, symBinAddr: 0x1FA54, symSize: 0x50 }
  - { offset: 0x5FB8B, size: 0x8, addend: 0x0, symName: __RNvXsn_NtCsdze8u8oDPro_5alloc3vecINtB5_3VecTNtNtCsATtFUPiRFW_3syn4data7VariantNtNtBK_5token5CommaEENtNtNtCs9f3LFPSIp77_4core3ops4drop4Drop4dropBK_, symObjAddr: 0xCD40, symBinAddr: 0x1FAA4, symSize: 0x50 }
  - { offset: 0x5FC98, size: 0x8, addend: 0x0, symName: __RNvXsn_NtCsdze8u8oDPro_5alloc3vecINtB5_3VecTNtNtCsATtFUPiRFW_3syn4expr10FieldValueNtNtBK_5token5CommaEENtNtNtCs9f3LFPSIp77_4core3ops4drop4Drop4dropBK_, symObjAddr: 0xCD90, symBinAddr: 0x1FAF4, symSize: 0x50 }
  - { offset: 0x5FDA5, size: 0x8, addend: 0x0, symName: __RNvXsn_NtCsdze8u8oDPro_5alloc3vecINtB5_3VecTNtNtCsATtFUPiRFW_3syn4expr4ExprNtNtBK_5token5CommaEENtNtNtCs9f3LFPSIp77_4core3ops4drop4Drop4dropBK_, symObjAddr: 0xCDE0, symBinAddr: 0x1FB44, symSize: 0x50 }
  - { offset: 0x5FEB2, size: 0x8, addend: 0x0, symName: __RNvXsn_NtCsdze8u8oDPro_5alloc3vecINtB5_3VecTNtNtCsATtFUPiRFW_3syn4item5FnArgNtNtBK_5token5CommaEENtNtNtCs9f3LFPSIp77_4core3ops4drop4Drop4dropBK_, symObjAddr: 0xCE30, symBinAddr: 0x1FB94, symSize: 0x50 }
  - { offset: 0x5FFBF, size: 0x8, addend: 0x0, symName: __RNvXsn_NtCsdze8u8oDPro_5alloc3vecINtB5_3VecTNtNtCsATtFUPiRFW_3syn4item7UseTreeNtNtBK_5token5CommaEENtNtNtCs9f3LFPSIp77_4core3ops4drop4Drop4dropBK_, symObjAddr: 0xCE80, symBinAddr: 0x1FBE4, symSize: 0x50 }
  - { offset: 0x600CC, size: 0x8, addend: 0x0, symName: __RNvXsn_NtCsdze8u8oDPro_5alloc3vecINtB5_3VecTNtNtCsATtFUPiRFW_3syn4path11PathSegmentNtNtBK_5token7PathSepEENtNtNtCs9f3LFPSIp77_4core3ops4drop4Drop4dropBK_, symObjAddr: 0xCED0, symBinAddr: 0x1FC34, symSize: 0x50 }
  - { offset: 0x601D9, size: 0x8, addend: 0x0, symName: __RNvXsn_NtCsdze8u8oDPro_5alloc3vecINtB5_3VecTNtNtCsATtFUPiRFW_3syn4path15GenericArgumentNtNtBK_5token5CommaEENtNtNtCs9f3LFPSIp77_4core3ops4drop4Drop4dropBK_, symObjAddr: 0xCF20, symBinAddr: 0x1FC84, symSize: 0x50 }
  - { offset: 0x602E6, size: 0x8, addend: 0x0, symName: __RNvXsn_NtCsdze8u8oDPro_5alloc3vecINtB5_3VecTNtNtCsATtFUPiRFW_3syn8generics12GenericParamNtNtBK_5token5CommaEENtNtNtCs9f3LFPSIp77_4core3ops4drop4Drop4dropBK_, symObjAddr: 0xCF70, symBinAddr: 0x1FCD4, symSize: 0x50 }
  - { offset: 0x603F3, size: 0x8, addend: 0x0, symName: __RNvXsn_NtCsdze8u8oDPro_5alloc3vecINtB5_3VecTNtNtCsATtFUPiRFW_3syn8generics13CapturedParamNtNtBK_5token5CommaEENtNtNtCs9f3LFPSIp77_4core3ops4drop4Drop4dropBK_, symObjAddr: 0xCFC0, symBinAddr: 0x1FD24, symSize: 0x50 }
  - { offset: 0x60500, size: 0x8, addend: 0x0, symName: __RNvXsn_NtCsdze8u8oDPro_5alloc3vecINtB5_3VecTNtNtCsATtFUPiRFW_3syn8generics14TypeParamBoundNtNtBK_5token4PlusEENtNtNtCs9f3LFPSIp77_4core3ops4drop4Drop4dropBK_, symObjAddr: 0xD010, symBinAddr: 0x1FD74, symSize: 0x50 }
  - { offset: 0x6060D, size: 0x8, addend: 0x0, symName: __RNvXsn_NtCsdze8u8oDPro_5alloc3vecINtB5_3VecTNtNtCsATtFUPiRFW_3syn8generics14WherePredicateNtNtBK_5token5CommaEENtNtNtCs9f3LFPSIp77_4core3ops4drop4Drop4dropBK_, symObjAddr: 0xD060, symBinAddr: 0x1FDC4, symSize: 0x50 }
  - { offset: 0x6071A, size: 0x8, addend: 0x0, symName: __RNvXsn_NtCsdze8u8oDPro_5alloc3vecINtB5_3VecTNtNtCsATtFUPiRFW_3syn8lifetime8LifetimeNtNtBK_5token4PlusEENtNtNtCs9f3LFPSIp77_4core3ops4drop4Drop4dropBK_, symObjAddr: 0xD0B0, symBinAddr: 0x1FE14, symSize: 0x50 }
  - { offset: 0x6082D, size: 0x8, addend: 0x0, symName: __RNvXsp_NtCsdze8u8oDPro_5alloc3vecINtB5_3VecNtNtCsATtFUPiRFW_3syn4attr9AttributeENtNtCs9f3LFPSIp77_4core3fmt5Debug3fmtBJ_, symObjAddr: 0xD100, symBinAddr: 0x1FE64, symSize: 0x8C }
  - { offset: 0x60991, size: 0x8, addend: 0x0, symName: __RNvXsp_NtCsdze8u8oDPro_5alloc3vecINtB5_3VecNtNtCsATtFUPiRFW_3syn4expr3ArmENtNtCs9f3LFPSIp77_4core3fmt5Debug3fmtBJ_, symObjAddr: 0xD18C, symBinAddr: 0x1FEF0, symSize: 0x8C }
  - { offset: 0x60AF5, size: 0x8, addend: 0x0, symName: __RNvXsp_NtCsdze8u8oDPro_5alloc3vecINtB5_3VecNtNtCsATtFUPiRFW_3syn4item11ForeignItemENtNtCs9f3LFPSIp77_4core3fmt5Debug3fmtBJ_, symObjAddr: 0xD218, symBinAddr: 0x1FF7C, symSize: 0x8C }
  - { offset: 0x60C59, size: 0x8, addend: 0x0, symName: __RNvXsp_NtCsdze8u8oDPro_5alloc3vecINtB5_3VecNtNtCsATtFUPiRFW_3syn4item4ItemENtNtCs9f3LFPSIp77_4core3fmt5Debug3fmtBJ_, symObjAddr: 0xD2A4, symBinAddr: 0x20008, symSize: 0x8C }
  - { offset: 0x60DBD, size: 0x8, addend: 0x0, symName: __RNvXsp_NtCsdze8u8oDPro_5alloc3vecINtB5_3VecNtNtCsATtFUPiRFW_3syn4item8ImplItemENtNtCs9f3LFPSIp77_4core3fmt5Debug3fmtBJ_, symObjAddr: 0xD330, symBinAddr: 0x20094, symSize: 0x8C }
  - { offset: 0x60F21, size: 0x8, addend: 0x0, symName: __RNvXsp_NtCsdze8u8oDPro_5alloc3vecINtB5_3VecNtNtCsATtFUPiRFW_3syn4item9TraitItemENtNtCs9f3LFPSIp77_4core3fmt5Debug3fmtBJ_, symObjAddr: 0xD3BC, symBinAddr: 0x20120, symSize: 0x8C }
  - { offset: 0x61085, size: 0x8, addend: 0x0, symName: __RNvXsp_NtCsdze8u8oDPro_5alloc3vecINtB5_3VecNtNtCsATtFUPiRFW_3syn4stmt4StmtENtNtCs9f3LFPSIp77_4core3fmt5Debug3fmtBJ_, symObjAddr: 0xD448, symBinAddr: 0x201AC, symSize: 0x8C }
  - { offset: 0x611E9, size: 0x8, addend: 0x0, symName: __RNvXsp_NtCsdze8u8oDPro_5alloc3vecINtB5_3VecNtNtCsATtFUPiRFW_3syn5error12ErrorMessageENtNtCs9f3LFPSIp77_4core3fmt5Debug3fmtBJ_, symObjAddr: 0xD4D4, symBinAddr: 0x20238, symSize: 0x8C }
  - { offset: 0x6134D, size: 0x8, addend: 0x0, symName: __RNvXsp_NtCsdze8u8oDPro_5alloc3vecINtB5_3VechENtNtCs9f3LFPSIp77_4core3fmt5Debug3fmtCsATtFUPiRFW_3syn, symObjAddr: 0xD560, symBinAddr: 0x202C4, symSize: 0x88 }
  - { offset: 0x6430E, size: 0x8, addend: 0x0, symName: __RNvXsS_NtCsdze8u8oDPro_5alloc6stringINtNtB7_3vec3VechEINtNtCs9f3LFPSIp77_4core7convert4FromNtB5_6StringE4fromCsATtFUPiRFW_3syn, symObjAddr: 0x9994, symBinAddr: 0x1C6F8, symSize: 0x18 }
  - { offset: 0x6454D, size: 0x8, addend: 0x0, symName: __RNvXNvMs_NtNtCsdze8u8oDPro_5alloc3ffi5c_strNtB7_7CString3newINtNtBb_3vec3VechENtB2_11SpecNewImpl13spec_new_implCsATtFUPiRFW_3syn, symObjAddr: 0x8034, symBinAddr: 0x1AD98, symSize: 0x190 }
  - { offset: 0x6A1DC, size: 0x8, addend: 0x0, symName: __RNvXs0_NtCsATtFUPiRFW_3syn11parse_quoteINtNtCsdze8u8oDPro_5alloc3vec3VecNtNtB7_4attr9AttributeENtB5_10ParseQuote5parse, symObjAddr: 0xD5E8, symBinAddr: 0x2034C, symSize: 0x1C4 }
  - { offset: 0x6A241, size: 0x8, addend: 0x0, symName: __RNvXs5_NtCsATtFUPiRFW_3syn11parse_quoteINtNtCsdze8u8oDPro_5alloc3vec3VecNtNtB7_4stmt4StmtENtB5_10ParseQuote5parse, symObjAddr: 0xD7AC, symBinAddr: 0x20510, symSize: 0x34 }
  - { offset: 0x6A273, size: 0x8, addend: 0x0, symName: __RNvXs6_NtCsATtFUPiRFW_3syn11parse_quoteINtNtCsdze8u8oDPro_5alloc3vec3VecNtNtB7_4expr3ArmENtB5_10ParseQuote5parse, symObjAddr: 0xD7E0, symBinAddr: 0x20544, symSize: 0x34 }
  - { offset: 0x6A3EE, size: 0x8, addend: 0x0, symName: __RINvMs_NtCsdze8u8oDPro_5alloc3vecINtB5_3VecReE10retain_mutNCNvMNtCsATtFUPiRFW_3syn9lookaheadNtBZ_10Lookahead15error0EB11_, symObjAddr: 0x0, symBinAddr: 0x12D64, symSize: 0xE4 }
  - { offset: 0x6A725, size: 0x8, addend: 0x0, symName: __RINvMsi_NtCsdze8u8oDPro_5alloc3vecINtB6_3VecNtCs475r2uZUTuc_11proc_macro29TokenTreeE16extend_desugaredINtNtNtNtCs9f3LFPSIp77_4core4iter8adapters7flatten7FlattenINtNtB1H_3map3MapIB2z_IB2z_INtNtNtB1L_5slice4iter4IterNtNtCsATtFUPiRFW_3syn5error12ErrorMessageENvMs_B3s_B3q_16to_compile_errorENCINvXs7_BI_NtBI_11TokenStreamINtNtNtB1J_6traits7collect12FromIteratorB4O_E9from_iterB2U_E0ENCINvXs6_NtBI_3impNtB6f_11TokenStreamIB57_B6o_E9from_iterB2P_Es_0EEEB3u_, symObjAddr: 0xE4, symBinAddr: 0x12E48, symSize: 0x1E0 }
  - { offset: 0x6AB72, size: 0x8, addend: 0x0, symName: __RINvMsi_NtCsdze8u8oDPro_5alloc3vecINtB6_3VecNtCs475r2uZUTuc_11proc_macro29TokenTreeE16extend_desugaredNtNtBI_12token_stream8IntoIterECsATtFUPiRFW_3syn, symObjAddr: 0x2C4, symBinAddr: 0x13028, symSize: 0x1E0 }
  - { offset: 0x6B56F, size: 0x8, addend: 0x0, symName: __RINvMsi_NtCsdze8u8oDPro_5alloc3vecINtB6_3VecNtNtCsATtFUPiRFW_3syn4data5FieldE14extend_trustedINtNtCs9f3LFPSIp77_4core6option8IntoIterBG_EEBK_, symObjAddr: 0x4A4, symBinAddr: 0x13208, symSize: 0x1B4 }
  - { offset: 0x6B8F2, size: 0x8, addend: 0x0, symName: __RINvMsi_NtCsdze8u8oDPro_5alloc3vecINtB6_3VecNtNtCsATtFUPiRFW_3syn4data5FieldE14extend_trustedINtNtNtNtCs9f3LFPSIp77_4core4iter8adapters3map3MapINtNtB6_9into_iter8IntoIterTBG_NtNtBK_5token5CommaEENCNvXs8_NtBK_10punctuatedINtB3f_10PunctuatedBG_B2M_ENtNtNtB1A_6traits7collect12IntoIterator9into_iter0EEBK_, symObjAddr: 0x658, symBinAddr: 0x133BC, symSize: 0x19C }
  - { offset: 0x6BC95, size: 0x8, addend: 0x0, symName: __RINvMsi_NtCsdze8u8oDPro_5alloc3vecINtB6_3VecNtNtCsATtFUPiRFW_3syn4data5FieldE14extend_trustedINtNtNtNtCs9f3LFPSIp77_4core4iter8adapters3map3MapINtNtB6_9into_iter8IntoIterTBG_uEENCNvXs8_NtBK_10punctuatedINtB2X_10PunctuatedBG_uENtNtNtB1A_6traits7collect12IntoIterator9into_iter0EEBK_, symObjAddr: 0x7F4, symBinAddr: 0x13558, symSize: 0x19C }
  - { offset: 0x6C03F, size: 0x8, addend: 0x0, symName: __RINvMsi_NtCsdze8u8oDPro_5alloc3vecINtB6_3VecNtNtCsATtFUPiRFW_3syn8generics14TypeParamBoundE14extend_trustedINtNtCs9f3LFPSIp77_4core6option8IntoIterBG_EEBK_, symObjAddr: 0x990, symBinAddr: 0x136F4, symSize: 0x1B4 }
  - { offset: 0x6C3C2, size: 0x8, addend: 0x0, symName: __RINvMsi_NtCsdze8u8oDPro_5alloc3vecINtB6_3VecNtNtCsATtFUPiRFW_3syn8generics14TypeParamBoundE14extend_trustedINtNtNtNtCs9f3LFPSIp77_4core4iter8adapters3map3MapINtNtB6_9into_iter8IntoIterTBG_NtNtBK_5token4PlusEENCNvXs8_NtBK_10punctuatedINtB3s_10PunctuatedBG_B30_ENtNtNtB1O_6traits7collect12IntoIterator9into_iter0EEBK_, symObjAddr: 0xB44, symBinAddr: 0x138A8, symSize: 0x19C }
  - { offset: 0x6C995, size: 0x8, addend: 0x0, symName: __RNvMNtCsdze8u8oDPro_5alloc3vecINtB2_3VecNtNtCsATtFUPiRFW_3syn4attr9AttributeE3newBG_, symObjAddr: 0x1408, symBinAddr: 0x1416C, symSize: 0x28 }
  - { offset: 0x6CA7E, size: 0x8, addend: 0x0, symName: __RNvMNtCsdze8u8oDPro_5alloc3vecINtB2_3VecNtNtCsATtFUPiRFW_3syn4data5FieldE13with_capacityBG_, symObjAddr: 0x1430, symBinAddr: 0x14194, symSize: 0x44 }
  - { offset: 0x6CB61, size: 0x8, addend: 0x0, symName: __RNvMNtCsdze8u8oDPro_5alloc3vecINtB2_3VecNtNtCsATtFUPiRFW_3syn4expr3ArmE3newBG_, symObjAddr: 0x1474, symBinAddr: 0x141D8, symSize: 0x28 }
  - { offset: 0x6CC55, size: 0x8, addend: 0x0, symName: __RNvMNtCsdze8u8oDPro_5alloc3vecINtB2_3VecNtNtCsATtFUPiRFW_3syn4expr6ExprIfE3newBG_, symObjAddr: 0x149C, symBinAddr: 0x14200, symSize: 0x28 }
  - { offset: 0x6CD49, size: 0x8, addend: 0x0, symName: __RNvMNtCsdze8u8oDPro_5alloc3vecINtB2_3VecNtNtCsATtFUPiRFW_3syn4item11ForeignItemE3newBG_, symObjAddr: 0x14C4, symBinAddr: 0x14228, symSize: 0x28 }
  - { offset: 0x6CE3D, size: 0x8, addend: 0x0, symName: __RNvMNtCsdze8u8oDPro_5alloc3vecINtB2_3VecNtNtCsATtFUPiRFW_3syn4item4ItemE3newBG_, symObjAddr: 0x14EC, symBinAddr: 0x14250, symSize: 0x28 }
  - { offset: 0x6CF31, size: 0x8, addend: 0x0, symName: __RNvMNtCsdze8u8oDPro_5alloc3vecINtB2_3VecNtNtCsATtFUPiRFW_3syn4item8ImplItemE3newBG_, symObjAddr: 0x1514, symBinAddr: 0x14278, symSize: 0x28 }
  - { offset: 0x6D025, size: 0x8, addend: 0x0, symName: __RNvMNtCsdze8u8oDPro_5alloc3vecINtB2_3VecNtNtCsATtFUPiRFW_3syn4item9TraitItemE3newBG_, symObjAddr: 0x153C, symBinAddr: 0x142A0, symSize: 0x28 }
  - { offset: 0x6D119, size: 0x8, addend: 0x0, symName: __RNvMNtCsdze8u8oDPro_5alloc3vecINtB2_3VecNtNtCsATtFUPiRFW_3syn4stmt4StmtE3newBG_, symObjAddr: 0x1564, symBinAddr: 0x142C8, symSize: 0x28 }
  - { offset: 0x6D20D, size: 0x8, addend: 0x0, symName: __RNvMNtCsdze8u8oDPro_5alloc3vecINtB2_3VecNtNtCsATtFUPiRFW_3syn6buffer5EntryE3newBG_, symObjAddr: 0x158C, symBinAddr: 0x142F0, symSize: 0x28 }
  - { offset: 0x6D2F6, size: 0x8, addend: 0x0, symName: __RNvMNtCsdze8u8oDPro_5alloc3vecINtB2_3VecNtNtCsATtFUPiRFW_3syn8generics14TypeParamBoundE13with_capacityBG_, symObjAddr: 0x15B4, symBinAddr: 0x14318, symSize: 0x44 }
  - { offset: 0x6D3D9, size: 0x8, addend: 0x0, symName: __RNvMNtCsdze8u8oDPro_5alloc3vecINtB2_3VecReE3newCsATtFUPiRFW_3syn, symObjAddr: 0x15F8, symBinAddr: 0x1435C, symSize: 0x28 }
  - { offset: 0x6D4CD, size: 0x8, addend: 0x0, symName: __RNvMNtCsdze8u8oDPro_5alloc3vecINtB2_3VecTNtNtCsATtFUPiRFW_3syn2ty4TypeNtNtBH_5token5CommaEE3newBH_, symObjAddr: 0x1620, symBinAddr: 0x14384, symSize: 0x28 }
  - { offset: 0x6D5C1, size: 0x8, addend: 0x0, symName: __RNvMNtCsdze8u8oDPro_5alloc3vecINtB2_3VecTNtNtCsATtFUPiRFW_3syn2ty9BareFnArgNtNtBH_5token5CommaEE3newBH_, symObjAddr: 0x1648, symBinAddr: 0x143AC, symSize: 0x28 }
  - { offset: 0x6D6B5, size: 0x8, addend: 0x0, symName: __RNvMNtCsdze8u8oDPro_5alloc3vecINtB2_3VecTNtNtCsATtFUPiRFW_3syn3pat3PatNtNtBH_5token2OrEE3newBH_, symObjAddr: 0x1670, symBinAddr: 0x143D4, symSize: 0x28 }
  - { offset: 0x6D7A9, size: 0x8, addend: 0x0, symName: __RNvMNtCsdze8u8oDPro_5alloc3vecINtB2_3VecTNtNtCsATtFUPiRFW_3syn3pat3PatNtNtBH_5token5CommaEE3newBH_, symObjAddr: 0x1698, symBinAddr: 0x143FC, symSize: 0x28 }
  - { offset: 0x6D89D, size: 0x8, addend: 0x0, symName: __RNvMNtCsdze8u8oDPro_5alloc3vecINtB2_3VecTNtNtCsATtFUPiRFW_3syn3pat8FieldPatNtNtBH_5token5CommaEE3newBH_, symObjAddr: 0x16C0, symBinAddr: 0x14424, symSize: 0x28 }
  - { offset: 0x6D991, size: 0x8, addend: 0x0, symName: __RNvMNtCsdze8u8oDPro_5alloc3vecINtB2_3VecTNtNtCsATtFUPiRFW_3syn4data5FieldNtNtBH_5token5CommaEE3newBH_, symObjAddr: 0x16E8, symBinAddr: 0x1444C, symSize: 0x28 }
  - { offset: 0x6DA85, size: 0x8, addend: 0x0, symName: __RNvMNtCsdze8u8oDPro_5alloc3vecINtB2_3VecTNtNtCsATtFUPiRFW_3syn4data5FielduEE3newBH_, symObjAddr: 0x1710, symBinAddr: 0x14474, symSize: 0x28 }
  - { offset: 0x6DB79, size: 0x8, addend: 0x0, symName: __RNvMNtCsdze8u8oDPro_5alloc3vecINtB2_3VecTNtNtCsATtFUPiRFW_3syn4data7VariantNtNtBH_5token5CommaEE3newBH_, symObjAddr: 0x1738, symBinAddr: 0x1449C, symSize: 0x28 }
  - { offset: 0x6DC6D, size: 0x8, addend: 0x0, symName: __RNvMNtCsdze8u8oDPro_5alloc3vecINtB2_3VecTNtNtCsATtFUPiRFW_3syn4expr10FieldValueNtNtBH_5token5CommaEE3newBH_, symObjAddr: 0x1760, symBinAddr: 0x144C4, symSize: 0x28 }
  - { offset: 0x6DD61, size: 0x8, addend: 0x0, symName: __RNvMNtCsdze8u8oDPro_5alloc3vecINtB2_3VecTNtNtCsATtFUPiRFW_3syn4expr4ExprNtNtBH_5token5CommaEE3newBH_, symObjAddr: 0x1788, symBinAddr: 0x144EC, symSize: 0x28 }
  - { offset: 0x6DE55, size: 0x8, addend: 0x0, symName: __RNvMNtCsdze8u8oDPro_5alloc3vecINtB2_3VecTNtNtCsATtFUPiRFW_3syn4item5FnArgNtNtBH_5token5CommaEE3newBH_, symObjAddr: 0x17B0, symBinAddr: 0x14514, symSize: 0x28 }
  - { offset: 0x6DF49, size: 0x8, addend: 0x0, symName: __RNvMNtCsdze8u8oDPro_5alloc3vecINtB2_3VecTNtNtCsATtFUPiRFW_3syn4item7UseTreeNtNtBH_5token5CommaEE3newBH_, symObjAddr: 0x17D8, symBinAddr: 0x1453C, symSize: 0x28 }
  - { offset: 0x6E03D, size: 0x8, addend: 0x0, symName: __RNvMNtCsdze8u8oDPro_5alloc3vecINtB2_3VecTNtNtCsATtFUPiRFW_3syn4path11PathSegmentNtNtBH_5token7PathSepEE3newBH_, symObjAddr: 0x1800, symBinAddr: 0x14564, symSize: 0x28 }
  - { offset: 0x6E131, size: 0x8, addend: 0x0, symName: __RNvMNtCsdze8u8oDPro_5alloc3vecINtB2_3VecTNtNtCsATtFUPiRFW_3syn4path15GenericArgumentNtNtBH_5token5CommaEE3newBH_, symObjAddr: 0x1828, symBinAddr: 0x1458C, symSize: 0x28 }
  - { offset: 0x6E225, size: 0x8, addend: 0x0, symName: __RNvMNtCsdze8u8oDPro_5alloc3vecINtB2_3VecTNtNtCsATtFUPiRFW_3syn8generics12GenericParamNtNtBH_5token5CommaEE3newBH_, symObjAddr: 0x1850, symBinAddr: 0x145B4, symSize: 0x28 }
  - { offset: 0x6E319, size: 0x8, addend: 0x0, symName: __RNvMNtCsdze8u8oDPro_5alloc3vecINtB2_3VecTNtNtCsATtFUPiRFW_3syn8generics13CapturedParamNtNtBH_5token5CommaEE3newBH_, symObjAddr: 0x1878, symBinAddr: 0x145DC, symSize: 0x28 }
  - { offset: 0x6E40D, size: 0x8, addend: 0x0, symName: __RNvMNtCsdze8u8oDPro_5alloc3vecINtB2_3VecTNtNtCsATtFUPiRFW_3syn8generics14TypeParamBoundNtNtBH_5token4PlusEE3newBH_, symObjAddr: 0x18A0, symBinAddr: 0x14604, symSize: 0x28 }
  - { offset: 0x6E501, size: 0x8, addend: 0x0, symName: __RNvMNtCsdze8u8oDPro_5alloc3vecINtB2_3VecTNtNtCsATtFUPiRFW_3syn8generics14WherePredicateNtNtBH_5token5CommaEE3newBH_, symObjAddr: 0x18C8, symBinAddr: 0x1462C, symSize: 0x28 }
  - { offset: 0x6E5F5, size: 0x8, addend: 0x0, symName: __RNvMNtCsdze8u8oDPro_5alloc3vecINtB2_3VecTNtNtCsATtFUPiRFW_3syn8lifetime8LifetimeNtNtBH_5token4PlusEE3newBH_, symObjAddr: 0x18F0, symBinAddr: 0x14654, symSize: 0x28 }
  - { offset: 0x6E6E9, size: 0x8, addend: 0x0, symName: __RNvMNtCsdze8u8oDPro_5alloc3vecINtB2_3VechE3newCsATtFUPiRFW_3syn, symObjAddr: 0x1918, symBinAddr: 0x1467C, symSize: 0x28 }
  - { offset: 0x6E85B, size: 0x8, addend: 0x0, symName: __RNvMs0_NtCsdze8u8oDPro_5alloc3vecINtB5_3VechE17extend_from_sliceCsATtFUPiRFW_3syn, symObjAddr: 0x1940, symBinAddr: 0x146A4, symSize: 0x6C }
  - { offset: 0x6E9CB, size: 0x8, addend: 0x0, symName: __RNvMs0_NtCsdze8u8oDPro_5alloc3vecINtB5_3VechE6resizeCsATtFUPiRFW_3syn, symObjAddr: 0x19AC, symBinAddr: 0x14710, symSize: 0xB4 }
  - { offset: 0x6EBD0, size: 0x8, addend: 0x0, symName: __RNvMs2_NtCsdze8u8oDPro_5alloc3vecINtB5_3VechE11extend_withCsATtFUPiRFW_3syn, symObjAddr: 0x1A60, symBinAddr: 0x147C4, symSize: 0x240 }
  - { offset: 0x6F05D, size: 0x8, addend: 0x0, symName: __RNvMs_NtCsdze8u8oDPro_5alloc3vecINtB4_3VecNtNtCsATtFUPiRFW_3syn4attr9AttributeE15append_elementsBI_, symObjAddr: 0x1CA0, symBinAddr: 0x14A04, symSize: 0xEC }
  - { offset: 0x6F38D, size: 0x8, addend: 0x0, symName: __RNvMs_NtCsdze8u8oDPro_5alloc3vecINtB4_3VecNtNtCsATtFUPiRFW_3syn4attr9AttributeE18spare_capacity_mutBI_, symObjAddr: 0x1D8C, symBinAddr: 0x14AF0, symSize: 0xDC }
  - { offset: 0x6F673, size: 0x8, addend: 0x0, symName: __RNvMs_NtCsdze8u8oDPro_5alloc3vecINtB4_3VecNtNtCsATtFUPiRFW_3syn4attr9AttributeE4pushBI_, symObjAddr: 0x1E68, symBinAddr: 0x14BCC, symSize: 0x124 }
  - { offset: 0x6F9BC, size: 0x8, addend: 0x0, symName: __RNvMs_NtCsdze8u8oDPro_5alloc3vecINtB4_3VecNtNtCsATtFUPiRFW_3syn4attr9AttributeE6appendBI_, symObjAddr: 0x1F8C, symBinAddr: 0x14CF0, symSize: 0x9C }
  - { offset: 0x6FC33, size: 0x8, addend: 0x0, symName: __RNvMs_NtCsdze8u8oDPro_5alloc3vecINtB4_3VecNtNtCsATtFUPiRFW_3syn4attr9AttributeE7reserveBI_, symObjAddr: 0x2028, symBinAddr: 0x14D8C, symSize: 0xC4 }
  - { offset: 0x6FE5D, size: 0x8, addend: 0x0, symName: __RNvMs_NtCsdze8u8oDPro_5alloc3vecINtB4_3VecNtNtCsATtFUPiRFW_3syn4attr9AttributeE8as_sliceBI_, symObjAddr: 0x20EC, symBinAddr: 0x14E50, symSize: 0x7C }
  - { offset: 0x6FF90, size: 0x8, addend: 0x0, symName: __RNvMs_NtCsdze8u8oDPro_5alloc3vecINtB4_3VecNtNtCsATtFUPiRFW_3syn4attr9AttributeE8is_emptyBI_, symObjAddr: 0x2168, symBinAddr: 0x14ECC, symSize: 0x20 }
  - { offset: 0x700E7, size: 0x8, addend: 0x0, symName: __RNvMs_NtCsdze8u8oDPro_5alloc3vecINtB4_3VecNtNtCsATtFUPiRFW_3syn4data5FieldE7reserveBI_, symObjAddr: 0x2188, symBinAddr: 0x14EEC, symSize: 0xC4 }
  - { offset: 0x703E2, size: 0x8, addend: 0x0, symName: __RNvMs_NtCsdze8u8oDPro_5alloc3vecINtB4_3VecNtNtCsATtFUPiRFW_3syn4expr3ArmE18spare_capacity_mutBI_, symObjAddr: 0x224C, symBinAddr: 0x14FB0, symSize: 0xE0 }
  - { offset: 0x7058E, size: 0x8, addend: 0x0, symName: __RNvMs_NtCsdze8u8oDPro_5alloc3vecINtB4_3VecNtNtCsATtFUPiRFW_3syn4expr3ArmE3lenBI_, symObjAddr: 0x232C, symBinAddr: 0x15090, symSize: 0x18 }
  - { offset: 0x7070A, size: 0x8, addend: 0x0, symName: __RNvMs_NtCsdze8u8oDPro_5alloc3vecINtB4_3VecNtNtCsATtFUPiRFW_3syn4expr3ArmE4pushBI_, symObjAddr: 0x2344, symBinAddr: 0x150A8, symSize: 0x12C }
  - { offset: 0x70A06, size: 0x8, addend: 0x0, symName: __RNvMs_NtCsdze8u8oDPro_5alloc3vecINtB4_3VecNtNtCsATtFUPiRFW_3syn4expr3ArmE8as_sliceBI_, symObjAddr: 0x2470, symBinAddr: 0x151D4, symSize: 0x7C }
  - { offset: 0x70CCA, size: 0x8, addend: 0x0, symName: __RNvMs_NtCsdze8u8oDPro_5alloc3vecINtB4_3VecNtNtCsATtFUPiRFW_3syn4expr6ExprIfE3popBI_, symObjAddr: 0x24EC, symBinAddr: 0x15250, symSize: 0x11C }
  - { offset: 0x70FE1, size: 0x8, addend: 0x0, symName: __RNvMs_NtCsdze8u8oDPro_5alloc3vecINtB4_3VecNtNtCsATtFUPiRFW_3syn4expr6ExprIfE4pushBI_, symObjAddr: 0x2608, symBinAddr: 0x1536C, symSize: 0x12C }
  - { offset: 0x71386, size: 0x8, addend: 0x0, symName: __RNvMs_NtCsdze8u8oDPro_5alloc3vecINtB4_3VecNtNtCsATtFUPiRFW_3syn4item11ForeignItemE18spare_capacity_mutBI_, symObjAddr: 0x2734, symBinAddr: 0x15498, symSize: 0xE0 }
  - { offset: 0x7166C, size: 0x8, addend: 0x0, symName: __RNvMs_NtCsdze8u8oDPro_5alloc3vecINtB4_3VecNtNtCsATtFUPiRFW_3syn4item11ForeignItemE4pushBI_, symObjAddr: 0x2814, symBinAddr: 0x15578, symSize: 0x12C }
  - { offset: 0x71A11, size: 0x8, addend: 0x0, symName: __RNvMs_NtCsdze8u8oDPro_5alloc3vecINtB4_3VecNtNtCsATtFUPiRFW_3syn4item4ItemE18spare_capacity_mutBI_, symObjAddr: 0x2940, symBinAddr: 0x156A4, symSize: 0xE0 }
  - { offset: 0x71CF7, size: 0x8, addend: 0x0, symName: __RNvMs_NtCsdze8u8oDPro_5alloc3vecINtB4_3VecNtNtCsATtFUPiRFW_3syn4item4ItemE4pushBI_, symObjAddr: 0x2A20, symBinAddr: 0x15784, symSize: 0x12C }
  - { offset: 0x7209C, size: 0x8, addend: 0x0, symName: __RNvMs_NtCsdze8u8oDPro_5alloc3vecINtB4_3VecNtNtCsATtFUPiRFW_3syn4item8ImplItemE18spare_capacity_mutBI_, symObjAddr: 0x2B4C, symBinAddr: 0x158B0, symSize: 0xE0 }
  - { offset: 0x72382, size: 0x8, addend: 0x0, symName: __RNvMs_NtCsdze8u8oDPro_5alloc3vecINtB4_3VecNtNtCsATtFUPiRFW_3syn4item8ImplItemE4pushBI_, symObjAddr: 0x2C2C, symBinAddr: 0x15990, symSize: 0x12C }
  - { offset: 0x72727, size: 0x8, addend: 0x0, symName: __RNvMs_NtCsdze8u8oDPro_5alloc3vecINtB4_3VecNtNtCsATtFUPiRFW_3syn4item9TraitItemE18spare_capacity_mutBI_, symObjAddr: 0x2D58, symBinAddr: 0x15ABC, symSize: 0xE0 }
  - { offset: 0x72A0D, size: 0x8, addend: 0x0, symName: __RNvMs_NtCsdze8u8oDPro_5alloc3vecINtB4_3VecNtNtCsATtFUPiRFW_3syn4item9TraitItemE4pushBI_, symObjAddr: 0x2E38, symBinAddr: 0x15B9C, symSize: 0x12C }
  - { offset: 0x72DB2, size: 0x8, addend: 0x0, symName: __RNvMs_NtCsdze8u8oDPro_5alloc3vecINtB4_3VecNtNtCsATtFUPiRFW_3syn4stmt4StmtE18spare_capacity_mutBI_, symObjAddr: 0x2F64, symBinAddr: 0x15CC8, symSize: 0xE0 }
  - { offset: 0x73098, size: 0x8, addend: 0x0, symName: __RNvMs_NtCsdze8u8oDPro_5alloc3vecINtB4_3VecNtNtCsATtFUPiRFW_3syn4stmt4StmtE4pushBI_, symObjAddr: 0x3044, symBinAddr: 0x15DA8, symSize: 0x12C }
  - { offset: 0x73408, size: 0x8, addend: 0x0, symName: __RNvMs_NtCsdze8u8oDPro_5alloc3vecINtB4_3VecNtNtCsATtFUPiRFW_3syn5error12ErrorMessageE15append_elementsBI_, symObjAddr: 0x3170, symBinAddr: 0x15ED4, symSize: 0xF4 }
  - { offset: 0x73738, size: 0x8, addend: 0x0, symName: __RNvMs_NtCsdze8u8oDPro_5alloc3vecINtB4_3VecNtNtCsATtFUPiRFW_3syn5error12ErrorMessageE18spare_capacity_mutBI_, symObjAddr: 0x3264, symBinAddr: 0x15FC8, symSize: 0xE0 }
  - { offset: 0x738D7, size: 0x8, addend: 0x0, symName: __RNvMs_NtCsdze8u8oDPro_5alloc3vecINtB4_3VecNtNtCsATtFUPiRFW_3syn5error12ErrorMessageE3lenBI_, symObjAddr: 0x3344, symBinAddr: 0x160A8, symSize: 0x18 }
  - { offset: 0x73A10, size: 0x8, addend: 0x0, symName: __RNvMs_NtCsdze8u8oDPro_5alloc3vecINtB4_3VecNtNtCsATtFUPiRFW_3syn5error12ErrorMessageE7reserveBI_, symObjAddr: 0x335C, symBinAddr: 0x160C0, symSize: 0xC4 }
  - { offset: 0x73C58, size: 0x8, addend: 0x0, symName: __RNvMs_NtCsdze8u8oDPro_5alloc3vecINtB4_3VecNtNtCsATtFUPiRFW_3syn5error12ErrorMessageE8as_sliceBI_, symObjAddr: 0x3420, symBinAddr: 0x16184, symSize: 0x7C }
  - { offset: 0x73FD3, size: 0x8, addend: 0x0, symName: __RNvMs_NtCsdze8u8oDPro_5alloc3vecINtB4_3VecNtNtCsATtFUPiRFW_3syn6buffer5EntryE16into_boxed_sliceBI_, symObjAddr: 0x349C, symBinAddr: 0x16200, symSize: 0x1BC }
  - { offset: 0x7428E, size: 0x8, addend: 0x0, symName: __RNvMs_NtCsdze8u8oDPro_5alloc3vecINtB4_3VecNtNtCsATtFUPiRFW_3syn6buffer5EntryE3lenBI_, symObjAddr: 0x3658, symBinAddr: 0x163BC, symSize: 0x18 }
  - { offset: 0x74417, size: 0x8, addend: 0x0, symName: __RNvMs_NtCsdze8u8oDPro_5alloc3vecINtB4_3VecNtNtCsATtFUPiRFW_3syn6buffer5EntryE4pushBI_, symObjAddr: 0x3670, symBinAddr: 0x163D4, symSize: 0x10C }
  - { offset: 0x74711, size: 0x8, addend: 0x0, symName: __RNvMs_NtCsdze8u8oDPro_5alloc3vecINtB4_3VecNtNtCsATtFUPiRFW_3syn8generics14TypeParamBoundE7reserveBI_, symObjAddr: 0x377C, symBinAddr: 0x164E0, symSize: 0xC4 }
  - { offset: 0x7485D, size: 0x8, addend: 0x0, symName: __RNvMs_NtCsdze8u8oDPro_5alloc3vecINtB4_3VecReE3lenCsATtFUPiRFW_3syn, symObjAddr: 0x3840, symBinAddr: 0x165A4, symSize: 0x18 }
  - { offset: 0x749D9, size: 0x8, addend: 0x0, symName: __RNvMs_NtCsdze8u8oDPro_5alloc3vecINtB4_3VecReE4pushCsATtFUPiRFW_3syn, symObjAddr: 0x3858, symBinAddr: 0x165BC, symSize: 0x100 }
  - { offset: 0x74CAA, size: 0x8, addend: 0x0, symName: __RNvMs_NtCsdze8u8oDPro_5alloc3vecINtB4_3VecReE8as_sliceCsATtFUPiRFW_3syn, symObjAddr: 0x3958, symBinAddr: 0x166BC, symSize: 0x7C }
  - { offset: 0x74F67, size: 0x8, addend: 0x0, symName: __RNvMs_NtCsdze8u8oDPro_5alloc3vecINtB4_3VecTNtNtCsATtFUPiRFW_3syn2ty4TypeNtNtBJ_5token5CommaEE18spare_capacity_mutBJ_, symObjAddr: 0x39D4, symBinAddr: 0x16738, symSize: 0xE0 }
  - { offset: 0x75113, size: 0x8, addend: 0x0, symName: __RNvMs_NtCsdze8u8oDPro_5alloc3vecINtB4_3VecTNtNtCsATtFUPiRFW_3syn2ty4TypeNtNtBJ_5token5CommaEE3lenBJ_, symObjAddr: 0x3AB4, symBinAddr: 0x16818, symSize: 0x18 }
  - { offset: 0x7528F, size: 0x8, addend: 0x0, symName: __RNvMs_NtCsdze8u8oDPro_5alloc3vecINtB4_3VecTNtNtCsATtFUPiRFW_3syn2ty4TypeNtNtBJ_5token5CommaEE4pushBJ_, symObjAddr: 0x3ACC, symBinAddr: 0x16830, symSize: 0x12C }
  - { offset: 0x7558B, size: 0x8, addend: 0x0, symName: __RNvMs_NtCsdze8u8oDPro_5alloc3vecINtB4_3VecTNtNtCsATtFUPiRFW_3syn2ty4TypeNtNtBJ_5token5CommaEE8as_sliceBJ_, symObjAddr: 0x3BF8, symBinAddr: 0x1695C, symSize: 0x7C }
  - { offset: 0x75848, size: 0x8, addend: 0x0, symName: __RNvMs_NtCsdze8u8oDPro_5alloc3vecINtB4_3VecTNtNtCsATtFUPiRFW_3syn2ty9BareFnArgNtNtBJ_5token5CommaEE18spare_capacity_mutBJ_, symObjAddr: 0x3C74, symBinAddr: 0x169D8, symSize: 0xE0 }
  - { offset: 0x759F4, size: 0x8, addend: 0x0, symName: __RNvMs_NtCsdze8u8oDPro_5alloc3vecINtB4_3VecTNtNtCsATtFUPiRFW_3syn2ty9BareFnArgNtNtBJ_5token5CommaEE3lenBJ_, symObjAddr: 0x3D54, symBinAddr: 0x16AB8, symSize: 0x18 }
  - { offset: 0x75B70, size: 0x8, addend: 0x0, symName: __RNvMs_NtCsdze8u8oDPro_5alloc3vecINtB4_3VecTNtNtCsATtFUPiRFW_3syn2ty9BareFnArgNtNtBJ_5token5CommaEE4pushBJ_, symObjAddr: 0x3D6C, symBinAddr: 0x16AD0, symSize: 0x12C }
  - { offset: 0x75E6B, size: 0x8, addend: 0x0, symName: __RNvMs_NtCsdze8u8oDPro_5alloc3vecINtB4_3VecTNtNtCsATtFUPiRFW_3syn2ty9BareFnArgNtNtBJ_5token5CommaEE8as_sliceBJ_, symObjAddr: 0x3E98, symBinAddr: 0x16BFC, symSize: 0x7C }
  - { offset: 0x76128, size: 0x8, addend: 0x0, symName: __RNvMs_NtCsdze8u8oDPro_5alloc3vecINtB4_3VecTNtNtCsATtFUPiRFW_3syn3pat3PatNtNtBJ_5token2OrEE18spare_capacity_mutBJ_, symObjAddr: 0x3F14, symBinAddr: 0x16C78, symSize: 0xE0 }
  - { offset: 0x7640E, size: 0x8, addend: 0x0, symName: __RNvMs_NtCsdze8u8oDPro_5alloc3vecINtB4_3VecTNtNtCsATtFUPiRFW_3syn3pat3PatNtNtBJ_5token2OrEE4pushBJ_, symObjAddr: 0x3FF4, symBinAddr: 0x16D58, symSize: 0x12C }
  - { offset: 0x76716, size: 0x8, addend: 0x0, symName: __RNvMs_NtCsdze8u8oDPro_5alloc3vecINtB4_3VecTNtNtCsATtFUPiRFW_3syn3pat3PatNtNtBJ_5token2OrEE8as_sliceBJ_, symObjAddr: 0x4120, symBinAddr: 0x16E84, symSize: 0x7C }
  - { offset: 0x769D3, size: 0x8, addend: 0x0, symName: __RNvMs_NtCsdze8u8oDPro_5alloc3vecINtB4_3VecTNtNtCsATtFUPiRFW_3syn3pat3PatNtNtBJ_5token5CommaEE18spare_capacity_mutBJ_, symObjAddr: 0x419C, symBinAddr: 0x16F00, symSize: 0xE0 }
  - { offset: 0x76B7F, size: 0x8, addend: 0x0, symName: __RNvMs_NtCsdze8u8oDPro_5alloc3vecINtB4_3VecTNtNtCsATtFUPiRFW_3syn3pat3PatNtNtBJ_5token5CommaEE3lenBJ_, symObjAddr: 0x427C, symBinAddr: 0x16FE0, symSize: 0x18 }
  - { offset: 0x76CFB, size: 0x8, addend: 0x0, symName: __RNvMs_NtCsdze8u8oDPro_5alloc3vecINtB4_3VecTNtNtCsATtFUPiRFW_3syn3pat3PatNtNtBJ_5token5CommaEE4pushBJ_, symObjAddr: 0x4294, symBinAddr: 0x16FF8, symSize: 0x12C }
  - { offset: 0x76FF6, size: 0x8, addend: 0x0, symName: __RNvMs_NtCsdze8u8oDPro_5alloc3vecINtB4_3VecTNtNtCsATtFUPiRFW_3syn3pat3PatNtNtBJ_5token5CommaEE8as_sliceBJ_, symObjAddr: 0x43C0, symBinAddr: 0x17124, symSize: 0x7C }
  - { offset: 0x772B3, size: 0x8, addend: 0x0, symName: __RNvMs_NtCsdze8u8oDPro_5alloc3vecINtB4_3VecTNtNtCsATtFUPiRFW_3syn3pat8FieldPatNtNtBJ_5token5CommaEE18spare_capacity_mutBJ_, symObjAddr: 0x443C, symBinAddr: 0x171A0, symSize: 0xE0 }
  - { offset: 0x77599, size: 0x8, addend: 0x0, symName: __RNvMs_NtCsdze8u8oDPro_5alloc3vecINtB4_3VecTNtNtCsATtFUPiRFW_3syn3pat8FieldPatNtNtBJ_5token5CommaEE4pushBJ_, symObjAddr: 0x451C, symBinAddr: 0x17280, symSize: 0x12C }
  - { offset: 0x778A2, size: 0x8, addend: 0x0, symName: __RNvMs_NtCsdze8u8oDPro_5alloc3vecINtB4_3VecTNtNtCsATtFUPiRFW_3syn3pat8FieldPatNtNtBJ_5token5CommaEE8as_sliceBJ_, symObjAddr: 0x4648, symBinAddr: 0x173AC, symSize: 0x7C }
  - { offset: 0x77AF8, size: 0x8, addend: 0x0, symName: __RNvMs_NtCsdze8u8oDPro_5alloc3vecINtB4_3VecTNtNtCsATtFUPiRFW_3syn4data5FieldNtNtBJ_5token5CommaEE12as_mut_sliceBJ_, symObjAddr: 0x46C4, symBinAddr: 0x17428, symSize: 0x7C }
  - { offset: 0x77D9F, size: 0x8, addend: 0x0, symName: __RNvMs_NtCsdze8u8oDPro_5alloc3vecINtB4_3VecTNtNtCsATtFUPiRFW_3syn4data5FieldNtNtBJ_5token5CommaEE18spare_capacity_mutBJ_, symObjAddr: 0x4740, symBinAddr: 0x174A4, symSize: 0xE0 }
  - { offset: 0x77F4B, size: 0x8, addend: 0x0, symName: __RNvMs_NtCsdze8u8oDPro_5alloc3vecINtB4_3VecTNtNtCsATtFUPiRFW_3syn4data5FieldNtNtBJ_5token5CommaEE3lenBJ_, symObjAddr: 0x4820, symBinAddr: 0x17584, symSize: 0x18 }
  - { offset: 0x780C7, size: 0x8, addend: 0x0, symName: __RNvMs_NtCsdze8u8oDPro_5alloc3vecINtB4_3VecTNtNtCsATtFUPiRFW_3syn4data5FieldNtNtBJ_5token5CommaEE4pushBJ_, symObjAddr: 0x4838, symBinAddr: 0x1759C, symSize: 0x12C }
  - { offset: 0x783B9, size: 0x8, addend: 0x0, symName: __RNvMs_NtCsdze8u8oDPro_5alloc3vecINtB4_3VecTNtNtCsATtFUPiRFW_3syn4data5FieldNtNtBJ_5token5CommaEE8as_sliceBJ_, symObjAddr: 0x4964, symBinAddr: 0x176C8, symSize: 0x7C }
  - { offset: 0x784D4, size: 0x8, addend: 0x0, symName: __RNvMs_NtCsdze8u8oDPro_5alloc3vecINtB4_3VecTNtNtCsATtFUPiRFW_3syn4data5FielduEE3lenBJ_, symObjAddr: 0x49E0, symBinAddr: 0x17744, symSize: 0x18 }
  - { offset: 0x786B8, size: 0x8, addend: 0x0, symName: __RNvMs_NtCsdze8u8oDPro_5alloc3vecINtB4_3VecTNtNtCsATtFUPiRFW_3syn4data7VariantNtNtBJ_5token5CommaEE18spare_capacity_mutBJ_, symObjAddr: 0x49F8, symBinAddr: 0x1775C, symSize: 0xE0 }
  - { offset: 0x7899E, size: 0x8, addend: 0x0, symName: __RNvMs_NtCsdze8u8oDPro_5alloc3vecINtB4_3VecTNtNtCsATtFUPiRFW_3syn4data7VariantNtNtBJ_5token5CommaEE4pushBJ_, symObjAddr: 0x4AD8, symBinAddr: 0x1783C, symSize: 0x12C }
  - { offset: 0x78CA7, size: 0x8, addend: 0x0, symName: __RNvMs_NtCsdze8u8oDPro_5alloc3vecINtB4_3VecTNtNtCsATtFUPiRFW_3syn4data7VariantNtNtBJ_5token5CommaEE8as_sliceBJ_, symObjAddr: 0x4C04, symBinAddr: 0x17968, symSize: 0x7C }
  - { offset: 0x78F64, size: 0x8, addend: 0x0, symName: __RNvMs_NtCsdze8u8oDPro_5alloc3vecINtB4_3VecTNtNtCsATtFUPiRFW_3syn4expr10FieldValueNtNtBJ_5token5CommaEE18spare_capacity_mutBJ_, symObjAddr: 0x4C80, symBinAddr: 0x179E4, symSize: 0xE0 }
  - { offset: 0x7924A, size: 0x8, addend: 0x0, symName: __RNvMs_NtCsdze8u8oDPro_5alloc3vecINtB4_3VecTNtNtCsATtFUPiRFW_3syn4expr10FieldValueNtNtBJ_5token5CommaEE4pushBJ_, symObjAddr: 0x4D60, symBinAddr: 0x17AC4, symSize: 0x12C }
  - { offset: 0x79552, size: 0x8, addend: 0x0, symName: __RNvMs_NtCsdze8u8oDPro_5alloc3vecINtB4_3VecTNtNtCsATtFUPiRFW_3syn4expr10FieldValueNtNtBJ_5token5CommaEE8as_sliceBJ_, symObjAddr: 0x4E8C, symBinAddr: 0x17BF0, symSize: 0x7C }
  - { offset: 0x7980F, size: 0x8, addend: 0x0, symName: __RNvMs_NtCsdze8u8oDPro_5alloc3vecINtB4_3VecTNtNtCsATtFUPiRFW_3syn4expr4ExprNtNtBJ_5token5CommaEE18spare_capacity_mutBJ_, symObjAddr: 0x4F08, symBinAddr: 0x17C6C, symSize: 0xE0 }
  - { offset: 0x799BB, size: 0x8, addend: 0x0, symName: __RNvMs_NtCsdze8u8oDPro_5alloc3vecINtB4_3VecTNtNtCsATtFUPiRFW_3syn4expr4ExprNtNtBJ_5token5CommaEE3lenBJ_, symObjAddr: 0x4FE8, symBinAddr: 0x17D4C, symSize: 0x18 }
  - { offset: 0x79B37, size: 0x8, addend: 0x0, symName: __RNvMs_NtCsdze8u8oDPro_5alloc3vecINtB4_3VecTNtNtCsATtFUPiRFW_3syn4expr4ExprNtNtBJ_5token5CommaEE4pushBJ_, symObjAddr: 0x5000, symBinAddr: 0x17D64, symSize: 0x12C }
  - { offset: 0x79E33, size: 0x8, addend: 0x0, symName: __RNvMs_NtCsdze8u8oDPro_5alloc3vecINtB4_3VecTNtNtCsATtFUPiRFW_3syn4expr4ExprNtNtBJ_5token5CommaEE8as_sliceBJ_, symObjAddr: 0x512C, symBinAddr: 0x17E90, symSize: 0x7C }
  - { offset: 0x7A0F0, size: 0x8, addend: 0x0, symName: __RNvMs_NtCsdze8u8oDPro_5alloc3vecINtB4_3VecTNtNtCsATtFUPiRFW_3syn4item5FnArgNtNtBJ_5token5CommaEE18spare_capacity_mutBJ_, symObjAddr: 0x51A8, symBinAddr: 0x17F0C, symSize: 0xE0 }
  - { offset: 0x7A29C, size: 0x8, addend: 0x0, symName: __RNvMs_NtCsdze8u8oDPro_5alloc3vecINtB4_3VecTNtNtCsATtFUPiRFW_3syn4item5FnArgNtNtBJ_5token5CommaEE3lenBJ_, symObjAddr: 0x5288, symBinAddr: 0x17FEC, symSize: 0x18 }
  - { offset: 0x7A418, size: 0x8, addend: 0x0, symName: __RNvMs_NtCsdze8u8oDPro_5alloc3vecINtB4_3VecTNtNtCsATtFUPiRFW_3syn4item5FnArgNtNtBJ_5token5CommaEE4pushBJ_, symObjAddr: 0x52A0, symBinAddr: 0x18004, symSize: 0x12C }
  - { offset: 0x7A714, size: 0x8, addend: 0x0, symName: __RNvMs_NtCsdze8u8oDPro_5alloc3vecINtB4_3VecTNtNtCsATtFUPiRFW_3syn4item5FnArgNtNtBJ_5token5CommaEE8as_sliceBJ_, symObjAddr: 0x53CC, symBinAddr: 0x18130, symSize: 0x7C }
  - { offset: 0x7A9D1, size: 0x8, addend: 0x0, symName: __RNvMs_NtCsdze8u8oDPro_5alloc3vecINtB4_3VecTNtNtCsATtFUPiRFW_3syn4item7UseTreeNtNtBJ_5token5CommaEE18spare_capacity_mutBJ_, symObjAddr: 0x5448, symBinAddr: 0x181AC, symSize: 0xE0 }
  - { offset: 0x7ACB7, size: 0x8, addend: 0x0, symName: __RNvMs_NtCsdze8u8oDPro_5alloc3vecINtB4_3VecTNtNtCsATtFUPiRFW_3syn4item7UseTreeNtNtBJ_5token5CommaEE4pushBJ_, symObjAddr: 0x5528, symBinAddr: 0x1828C, symSize: 0x12C }
  - { offset: 0x7AFC0, size: 0x8, addend: 0x0, symName: __RNvMs_NtCsdze8u8oDPro_5alloc3vecINtB4_3VecTNtNtCsATtFUPiRFW_3syn4item7UseTreeNtNtBJ_5token5CommaEE8as_sliceBJ_, symObjAddr: 0x5654, symBinAddr: 0x183B8, symSize: 0x7C }
  - { offset: 0x7B223, size: 0x8, addend: 0x0, symName: __RNvMs_NtCsdze8u8oDPro_5alloc3vecINtB4_3VecTNtNtCsATtFUPiRFW_3syn4path11PathSegmentNtNtBJ_5token7PathSepEE12as_mut_sliceBJ_, symObjAddr: 0x56D0, symBinAddr: 0x18434, symSize: 0x7C }
  - { offset: 0x7B4CA, size: 0x8, addend: 0x0, symName: __RNvMs_NtCsdze8u8oDPro_5alloc3vecINtB4_3VecTNtNtCsATtFUPiRFW_3syn4path11PathSegmentNtNtBJ_5token7PathSepEE18spare_capacity_mutBJ_, symObjAddr: 0x574C, symBinAddr: 0x184B0, symSize: 0xE0 }
  - { offset: 0x7B676, size: 0x8, addend: 0x0, symName: __RNvMs_NtCsdze8u8oDPro_5alloc3vecINtB4_3VecTNtNtCsATtFUPiRFW_3syn4path11PathSegmentNtNtBJ_5token7PathSepEE3lenBJ_, symObjAddr: 0x582C, symBinAddr: 0x18590, symSize: 0x18 }
  - { offset: 0x7B820, size: 0x8, addend: 0x0, symName: __RNvMs_NtCsdze8u8oDPro_5alloc3vecINtB4_3VecTNtNtCsATtFUPiRFW_3syn4path11PathSegmentNtNtBJ_5token7PathSepEE3popBJ_, symObjAddr: 0x5844, symBinAddr: 0x185A8, symSize: 0x120 }
  - { offset: 0x7BB37, size: 0x8, addend: 0x0, symName: __RNvMs_NtCsdze8u8oDPro_5alloc3vecINtB4_3VecTNtNtCsATtFUPiRFW_3syn4path11PathSegmentNtNtBJ_5token7PathSepEE4pushBJ_, symObjAddr: 0x5964, symBinAddr: 0x186C8, symSize: 0x12C }
  - { offset: 0x7BE29, size: 0x8, addend: 0x0, symName: __RNvMs_NtCsdze8u8oDPro_5alloc3vecINtB4_3VecTNtNtCsATtFUPiRFW_3syn4path11PathSegmentNtNtBJ_5token7PathSepEE8as_sliceBJ_, symObjAddr: 0x5A90, symBinAddr: 0x187F4, symSize: 0x7C }
  - { offset: 0x7C0E6, size: 0x8, addend: 0x0, symName: __RNvMs_NtCsdze8u8oDPro_5alloc3vecINtB4_3VecTNtNtCsATtFUPiRFW_3syn4path15GenericArgumentNtNtBJ_5token5CommaEE18spare_capacity_mutBJ_, symObjAddr: 0x5B0C, symBinAddr: 0x18870, symSize: 0xE0 }
  - { offset: 0x7C292, size: 0x8, addend: 0x0, symName: __RNvMs_NtCsdze8u8oDPro_5alloc3vecINtB4_3VecTNtNtCsATtFUPiRFW_3syn4path15GenericArgumentNtNtBJ_5token5CommaEE3lenBJ_, symObjAddr: 0x5BEC, symBinAddr: 0x18950, symSize: 0x18 }
  - { offset: 0x7C40E, size: 0x8, addend: 0x0, symName: __RNvMs_NtCsdze8u8oDPro_5alloc3vecINtB4_3VecTNtNtCsATtFUPiRFW_3syn4path15GenericArgumentNtNtBJ_5token5CommaEE4pushBJ_, symObjAddr: 0x5C04, symBinAddr: 0x18968, symSize: 0x12C }
  - { offset: 0x7C709, size: 0x8, addend: 0x0, symName: __RNvMs_NtCsdze8u8oDPro_5alloc3vecINtB4_3VecTNtNtCsATtFUPiRFW_3syn4path15GenericArgumentNtNtBJ_5token5CommaEE8as_sliceBJ_, symObjAddr: 0x5D30, symBinAddr: 0x18A94, symSize: 0x7C }
  - { offset: 0x7C96C, size: 0x8, addend: 0x0, symName: __RNvMs_NtCsdze8u8oDPro_5alloc3vecINtB4_3VecTNtNtCsATtFUPiRFW_3syn8generics12GenericParamNtNtBJ_5token5CommaEE12as_mut_sliceBJ_, symObjAddr: 0x5DAC, symBinAddr: 0x18B10, symSize: 0x7C }
  - { offset: 0x7CC13, size: 0x8, addend: 0x0, symName: __RNvMs_NtCsdze8u8oDPro_5alloc3vecINtB4_3VecTNtNtCsATtFUPiRFW_3syn8generics12GenericParamNtNtBJ_5token5CommaEE18spare_capacity_mutBJ_, symObjAddr: 0x5E28, symBinAddr: 0x18B8C, symSize: 0xE0 }
  - { offset: 0x7CDBF, size: 0x8, addend: 0x0, symName: __RNvMs_NtCsdze8u8oDPro_5alloc3vecINtB4_3VecTNtNtCsATtFUPiRFW_3syn8generics12GenericParamNtNtBJ_5token5CommaEE3lenBJ_, symObjAddr: 0x5F08, symBinAddr: 0x18C6C, symSize: 0x18 }
  - { offset: 0x7CF3B, size: 0x8, addend: 0x0, symName: __RNvMs_NtCsdze8u8oDPro_5alloc3vecINtB4_3VecTNtNtCsATtFUPiRFW_3syn8generics12GenericParamNtNtBJ_5token5CommaEE4pushBJ_, symObjAddr: 0x5F20, symBinAddr: 0x18C84, symSize: 0x12C }
  - { offset: 0x7D22E, size: 0x8, addend: 0x0, symName: __RNvMs_NtCsdze8u8oDPro_5alloc3vecINtB4_3VecTNtNtCsATtFUPiRFW_3syn8generics12GenericParamNtNtBJ_5token5CommaEE8as_sliceBJ_, symObjAddr: 0x604C, symBinAddr: 0x18DB0, symSize: 0x7C }
  - { offset: 0x7D4EB, size: 0x8, addend: 0x0, symName: __RNvMs_NtCsdze8u8oDPro_5alloc3vecINtB4_3VecTNtNtCsATtFUPiRFW_3syn8generics13CapturedParamNtNtBJ_5token5CommaEE18spare_capacity_mutBJ_, symObjAddr: 0x60C8, symBinAddr: 0x18E2C, symSize: 0xE0 }
  - { offset: 0x7D7D1, size: 0x8, addend: 0x0, symName: __RNvMs_NtCsdze8u8oDPro_5alloc3vecINtB4_3VecTNtNtCsATtFUPiRFW_3syn8generics13CapturedParamNtNtBJ_5token5CommaEE4pushBJ_, symObjAddr: 0x61A8, symBinAddr: 0x18F0C, symSize: 0x124 }
  - { offset: 0x7DAD9, size: 0x8, addend: 0x0, symName: __RNvMs_NtCsdze8u8oDPro_5alloc3vecINtB4_3VecTNtNtCsATtFUPiRFW_3syn8generics13CapturedParamNtNtBJ_5token5CommaEE8as_sliceBJ_, symObjAddr: 0x62CC, symBinAddr: 0x19030, symSize: 0x7C }
  - { offset: 0x7DD89, size: 0x8, addend: 0x0, symName: __RNvMs_NtCsdze8u8oDPro_5alloc3vecINtB4_3VecTNtNtCsATtFUPiRFW_3syn8generics14TypeParamBoundNtNtBJ_5token4PlusEE18spare_capacity_mutBJ_, symObjAddr: 0x6348, symBinAddr: 0x190AC, symSize: 0xDC }
  - { offset: 0x7DF35, size: 0x8, addend: 0x0, symName: __RNvMs_NtCsdze8u8oDPro_5alloc3vecINtB4_3VecTNtNtCsATtFUPiRFW_3syn8generics14TypeParamBoundNtNtBJ_5token4PlusEE3lenBJ_, symObjAddr: 0x6424, symBinAddr: 0x19188, symSize: 0x18 }
  - { offset: 0x7E0B1, size: 0x8, addend: 0x0, symName: __RNvMs_NtCsdze8u8oDPro_5alloc3vecINtB4_3VecTNtNtCsATtFUPiRFW_3syn8generics14TypeParamBoundNtNtBJ_5token4PlusEE4pushBJ_, symObjAddr: 0x643C, symBinAddr: 0x191A0, symSize: 0x124 }
  - { offset: 0x7E3AC, size: 0x8, addend: 0x0, symName: __RNvMs_NtCsdze8u8oDPro_5alloc3vecINtB4_3VecTNtNtCsATtFUPiRFW_3syn8generics14TypeParamBoundNtNtBJ_5token4PlusEE8as_sliceBJ_, symObjAddr: 0x6560, symBinAddr: 0x192C4, symSize: 0x7C }
  - { offset: 0x7E669, size: 0x8, addend: 0x0, symName: __RNvMs_NtCsdze8u8oDPro_5alloc3vecINtB4_3VecTNtNtCsATtFUPiRFW_3syn8generics14WherePredicateNtNtBJ_5token5CommaEE18spare_capacity_mutBJ_, symObjAddr: 0x65DC, symBinAddr: 0x19340, symSize: 0xE0 }
  - { offset: 0x7E815, size: 0x8, addend: 0x0, symName: __RNvMs_NtCsdze8u8oDPro_5alloc3vecINtB4_3VecTNtNtCsATtFUPiRFW_3syn8generics14WherePredicateNtNtBJ_5token5CommaEE3lenBJ_, symObjAddr: 0x66BC, symBinAddr: 0x19420, symSize: 0x18 }
  - { offset: 0x7E991, size: 0x8, addend: 0x0, symName: __RNvMs_NtCsdze8u8oDPro_5alloc3vecINtB4_3VecTNtNtCsATtFUPiRFW_3syn8generics14WherePredicateNtNtBJ_5token5CommaEE4pushBJ_, symObjAddr: 0x66D4, symBinAddr: 0x19438, symSize: 0x12C }
  - { offset: 0x7EC8C, size: 0x8, addend: 0x0, symName: __RNvMs_NtCsdze8u8oDPro_5alloc3vecINtB4_3VecTNtNtCsATtFUPiRFW_3syn8generics14WherePredicateNtNtBJ_5token5CommaEE8as_sliceBJ_, symObjAddr: 0x6800, symBinAddr: 0x19564, symSize: 0x7C }
  - { offset: 0x7EF49, size: 0x8, addend: 0x0, symName: __RNvMs_NtCsdze8u8oDPro_5alloc3vecINtB4_3VecTNtNtCsATtFUPiRFW_3syn8lifetime8LifetimeNtNtBJ_5token4PlusEE18spare_capacity_mutBJ_, symObjAddr: 0x687C, symBinAddr: 0x195E0, symSize: 0xE0 }
  - { offset: 0x7F0F5, size: 0x8, addend: 0x0, symName: __RNvMs_NtCsdze8u8oDPro_5alloc3vecINtB4_3VecTNtNtCsATtFUPiRFW_3syn8lifetime8LifetimeNtNtBJ_5token4PlusEE3lenBJ_, symObjAddr: 0x695C, symBinAddr: 0x196C0, symSize: 0x18 }
  - { offset: 0x7F271, size: 0x8, addend: 0x0, symName: __RNvMs_NtCsdze8u8oDPro_5alloc3vecINtB4_3VecTNtNtCsATtFUPiRFW_3syn8lifetime8LifetimeNtNtBJ_5token4PlusEE4pushBJ_, symObjAddr: 0x6974, symBinAddr: 0x196D8, symSize: 0x124 }
  - { offset: 0x7F56D, size: 0x8, addend: 0x0, symName: __RNvMs_NtCsdze8u8oDPro_5alloc3vecINtB4_3VecTNtNtCsATtFUPiRFW_3syn8lifetime8LifetimeNtNtBJ_5token4PlusEE8as_sliceBJ_, symObjAddr: 0x6A98, symBinAddr: 0x197FC, symSize: 0x7C }
  - { offset: 0x7F89A, size: 0x8, addend: 0x0, symName: __RNvMs_NtCsdze8u8oDPro_5alloc3vecINtB4_3VechE16into_boxed_sliceCsATtFUPiRFW_3syn, symObjAddr: 0x6B14, symBinAddr: 0x19878, symSize: 0x1B8 }
  - { offset: 0x7FCC7, size: 0x8, addend: 0x0, symName: __RNvMs_NtCsdze8u8oDPro_5alloc3vecINtB4_3VechE18spare_capacity_mutCsATtFUPiRFW_3syn, symObjAddr: 0x6CCC, symBinAddr: 0x19A30, symSize: 0xD4 }
  - { offset: 0x7FE66, size: 0x8, addend: 0x0, symName: __RNvMs_NtCsdze8u8oDPro_5alloc3vecINtB4_3VechE3lenCsATtFUPiRFW_3syn, symObjAddr: 0x6DA0, symBinAddr: 0x19B04, symSize: 0x18 }
  - { offset: 0x7FF79, size: 0x8, addend: 0x0, symName: __RNvMs_NtCsdze8u8oDPro_5alloc3vecINtB4_3VechE8as_sliceCsATtFUPiRFW_3syn, symObjAddr: 0x6DB8, symBinAddr: 0x19B1C, symSize: 0x78 }
  - { offset: 0x80181, size: 0x8, addend: 0x0, symName: __RNvMs_NtCsdze8u8oDPro_5alloc3vecINtB4_3VechE8truncateCsATtFUPiRFW_3syn, symObjAddr: 0x6E30, symBinAddr: 0x19B94, symSize: 0x80 }
  - { offset: 0x80593, size: 0x8, addend: 0x0, symName: __RNvMs_NtCsdze8u8oDPro_5alloc3vecINtB4_3VechE9split_offCsATtFUPiRFW_3syn, symObjAddr: 0x6EB0, symBinAddr: 0x19C14, symSize: 0x184 }
  - { offset: 0x8B348, size: 0x8, addend: 0x0, symName: __RINvXNtNtCsdze8u8oDPro_5alloc5slice4hackNtNtCsATtFUPiRFW_3syn4item11ForeignItemNtB3_10ConvertVec6to_vecNtNtB7_5alloc6GlobalEBG_, symObjAddr: 0x0, symBinAddr: 0x20578, symSize: 0x2C0 }
  - { offset: 0x8C8BA, size: 0x8, addend: 0x0, symName: __RNvXs_NtCsATtFUPiRFW_3syn4itemNtB4_4ItemINtNtCs9f3LFPSIp77_4core7convert4FromNtNtB6_6derive11DeriveInputE4from, symObjAddr: 0x7220, symBinAddr: 0x27798, symSize: 0x42C }
  - { offset: 0x8C949, size: 0x8, addend: 0x0, symName: __RNvXNtNtCsATtFUPiRFW_3syn4item7parsingNtB4_4ItemNtNtB6_5parse5Parse5parse, symObjAddr: 0x77C4, symBinAddr: 0x27D3C, symSize: 0x1B4 }
  - { offset: 0x8C9EF, size: 0x8, addend: 0x0, symName: __RNvXs0_NtNtCsATtFUPiRFW_3syn4item7parsingNtB7_9ItemMacroNtNtB9_5parse5Parse5parse, symObjAddr: 0x7978, symBinAddr: 0x27EF0, symSize: 0x640 }
  - { offset: 0x8CBBA, size: 0x8, addend: 0x0, symName: __RNvXs1_NtNtCsATtFUPiRFW_3syn4item7parsingNtB7_15ItemExternCrateNtNtB9_5parse5Parse5parse, symObjAddr: 0x7FB8, symBinAddr: 0x28530, symSize: 0x95C }
  - { offset: 0x8CDC3, size: 0x8, addend: 0x0, symName: __RNvXs2_NtNtCsATtFUPiRFW_3syn4item7parsingNtB7_7ItemUseNtNtB9_5parse5Parse5parse, symObjAddr: 0x8914, symBinAddr: 0x28E8C, symSize: 0x58 }
  - { offset: 0x8CE14, size: 0x8, addend: 0x0, symName: __RNvXs3_NtNtCsATtFUPiRFW_3syn4item7parsingNtB7_7UseTreeNtNtB9_5parse5Parse5parse, symObjAddr: 0x896C, symBinAddr: 0x28EE4, symSize: 0x58 }
  - { offset: 0x8CE65, size: 0x8, addend: 0x0, symName: __RNvXs4_NtNtCsATtFUPiRFW_3syn4item7parsingNtB7_10ItemStaticNtNtB9_5parse5Parse5parse, symObjAddr: 0x89C4, symBinAddr: 0x28F3C, symSize: 0xAC0 }
  - { offset: 0x8D069, size: 0x8, addend: 0x0, symName: __RNvXs5_NtNtCsATtFUPiRFW_3syn4item7parsingNtB7_9ItemConstNtNtB9_5parse5Parse5parse, symObjAddr: 0x9484, symBinAddr: 0x299FC, symSize: 0xA64 }
  - { offset: 0x8D337, size: 0x8, addend: 0x0, symName: __RNvXs6_NtNtCsATtFUPiRFW_3syn4item7parsingNtB7_9SignatureNtNtB9_5parse5Parse5parse, symObjAddr: 0x9EE8, symBinAddr: 0x2A460, symSize: 0x60 }
  - { offset: 0x8D388, size: 0x8, addend: 0x0, symName: __RNvXs7_NtNtCsATtFUPiRFW_3syn4item7parsingNtB7_6ItemFnNtNtB9_5parse5Parse5parse, symObjAddr: 0x9F48, symBinAddr: 0x2A4C0, symSize: 0x378 }
  - { offset: 0x8D4BB, size: 0x8, addend: 0x0, symName: __RNvXs8_NtNtCsATtFUPiRFW_3syn4item7parsingNtB7_5FnArgNtNtB9_5parse5Parse5parse, symObjAddr: 0xA2C0, symBinAddr: 0x2A838, symSize: 0x2E0 }
  - { offset: 0x8D5B6, size: 0x8, addend: 0x0, symName: __RNvXs9_NtNtCsATtFUPiRFW_3syn4item7parsingNtB7_8ReceiverNtNtB9_5parse5Parse5parse, symObjAddr: 0xA5A0, symBinAddr: 0x2AB18, symSize: 0x98C }
  - { offset: 0x8D809, size: 0x8, addend: 0x0, symName: __RNvXsa_NtNtCsATtFUPiRFW_3syn4item7parsingNtB7_7ItemModNtNtB9_5parse5Parse5parse, symObjAddr: 0xAF2C, symBinAddr: 0x2B4A4, symSize: 0xC60 }
  - { offset: 0x8DA69, size: 0x8, addend: 0x0, symName: __RNvXsb_NtNtCsATtFUPiRFW_3syn4item7parsingNtB7_14ItemForeignModNtNtB9_5parse5Parse5parse, symObjAddr: 0xBB8C, symBinAddr: 0x2C104, symSize: 0x61C }
  - { offset: 0x8DC18, size: 0x8, addend: 0x0, symName: __RNvXsc_NtNtCsATtFUPiRFW_3syn4item7parsingNtB7_11ForeignItemNtNtB9_5parse5Parse5parse, symObjAddr: 0xC1A8, symBinAddr: 0x2C720, symSize: 0x1DB8 }
  - { offset: 0x8E27C, size: 0x8, addend: 0x0, symName: __RNvXsd_NtNtCsATtFUPiRFW_3syn4item7parsingNtB7_13ForeignItemFnNtNtB9_5parse5Parse5parse, symObjAddr: 0xDF60, symBinAddr: 0x2E4D8, symSize: 0x3C0 }
  - { offset: 0x8E3DC, size: 0x8, addend: 0x0, symName: __RNvXse_NtNtCsATtFUPiRFW_3syn4item7parsingNtB7_17ForeignItemStaticNtNtB9_5parse5Parse5parse, symObjAddr: 0xE320, symBinAddr: 0x2E898, symSize: 0x830 }
  - { offset: 0x8E583, size: 0x8, addend: 0x0, symName: __RNvXsf_NtNtCsATtFUPiRFW_3syn4item7parsingNtB7_15ForeignItemTypeNtNtB9_5parse5Parse5parse, symObjAddr: 0xEB50, symBinAddr: 0x2F0C8, symSize: 0x744 }
  - { offset: 0x8E713, size: 0x8, addend: 0x0, symName: __RNvXsg_NtNtCsATtFUPiRFW_3syn4item7parsingNtB7_16ForeignItemMacroNtNtB9_5parse5Parse5parse, symObjAddr: 0xF294, symBinAddr: 0x2F80C, symSize: 0x33C }
  - { offset: 0x8E826, size: 0x8, addend: 0x0, symName: __RNvXsh_NtNtCsATtFUPiRFW_3syn4item7parsingNtB7_8ItemTypeNtNtB9_5parse5Parse5parse, symObjAddr: 0xF5D0, symBinAddr: 0x2FB48, symSize: 0x9D4 }
  - { offset: 0x8EA12, size: 0x8, addend: 0x0, symName: __RNvXsi_NtNtCsATtFUPiRFW_3syn4item7parsingNtB7_10ItemStructNtNtB9_5parse5Parse5parse, symObjAddr: 0xFFA4, symBinAddr: 0x3051C, symSize: 0x650 }
  - { offset: 0x8EC0D, size: 0x8, addend: 0x0, symName: __RNvXsj_NtNtCsATtFUPiRFW_3syn4item7parsingNtB7_8ItemEnumNtNtB9_5parse5Parse5parse, symObjAddr: 0x105F4, symBinAddr: 0x30B6C, symSize: 0x650 }
  - { offset: 0x8EE08, size: 0x8, addend: 0x0, symName: __RNvXsk_NtNtCsATtFUPiRFW_3syn4item7parsingNtB7_9ItemUnionNtNtB9_5parse5Parse5parse, symObjAddr: 0x10C44, symBinAddr: 0x311BC, symSize: 0x640 }
  - { offset: 0x8EFF3, size: 0x8, addend: 0x0, symName: __RNvXsl_NtNtCsATtFUPiRFW_3syn4item7parsingNtB7_9ItemTraitNtNtB9_5parse5Parse5parse, symObjAddr: 0x11284, symBinAddr: 0x317FC, symSize: 0x640 }
  - { offset: 0x8F1F7, size: 0x8, addend: 0x0, symName: __RNvXsm_NtNtCsATtFUPiRFW_3syn4item7parsingNtB7_14ItemTraitAliasNtNtB9_5parse5Parse5parse, symObjAddr: 0x118C4, symBinAddr: 0x31E3C, symSize: 0x270 }
  - { offset: 0x8F2AB, size: 0x8, addend: 0x0, symName: __RNvXsn_NtNtCsATtFUPiRFW_3syn4item7parsingNtB7_9TraitItemNtNtB9_5parse5Parse5parse, symObjAddr: 0x11B34, symBinAddr: 0x320AC, symSize: 0x1690 }
  - { offset: 0x8F719, size: 0x8, addend: 0x0, symName: __RNvXso_NtNtCsATtFUPiRFW_3syn4item7parsingNtB7_14TraitItemConstNtNtB9_5parse5Parse5parse, symObjAddr: 0x131C4, symBinAddr: 0x3373C, symSize: 0x88C }
  - { offset: 0x8F95B, size: 0x8, addend: 0x0, symName: __RNvXsp_NtNtCsATtFUPiRFW_3syn4item7parsingNtB7_11TraitItemFnNtNtB9_5parse5Parse5parse, symObjAddr: 0x13A50, symBinAddr: 0x33FC8, symSize: 0x800 }
  - { offset: 0x8FB5B, size: 0x8, addend: 0x0, symName: __RNvXsq_NtNtCsATtFUPiRFW_3syn4item7parsingNtB7_13TraitItemTypeNtNtB9_5parse5Parse5parse, symObjAddr: 0x14250, symBinAddr: 0x347C8, symSize: 0x730 }
  - { offset: 0x8FD81, size: 0x8, addend: 0x0, symName: __RNvXsr_NtNtCsATtFUPiRFW_3syn4item7parsingNtB7_14TraitItemMacroNtNtB9_5parse5Parse5parse, symObjAddr: 0x14980, symBinAddr: 0x34EF8, symSize: 0x33C }
  - { offset: 0x8FE94, size: 0x8, addend: 0x0, symName: __RNvXss_NtNtCsATtFUPiRFW_3syn4item7parsingNtB7_8ItemImplNtNtB9_5parse5Parse5parse, symObjAddr: 0x14CBC, symBinAddr: 0x35234, symSize: 0x60 }
  - { offset: 0x8FEE5, size: 0x8, addend: 0x0, symName: __RNvXst_NtNtCsATtFUPiRFW_3syn4item7parsingNtB7_8ImplItemNtNtB9_5parse5Parse5parse, symObjAddr: 0x14D1C, symBinAddr: 0x35294, symSize: 0x1AC8 }
  - { offset: 0x903FE, size: 0x8, addend: 0x0, symName: __RNvXsu_NtNtCsATtFUPiRFW_3syn4item7parsingNtB7_13ImplItemConstNtNtB9_5parse5Parse5parse, symObjAddr: 0x167E4, symBinAddr: 0x36D5C, symSize: 0x9D0 }
  - { offset: 0x906B9, size: 0x8, addend: 0x0, symName: __RNvXsv_NtNtCsATtFUPiRFW_3syn4item7parsingNtB7_10ImplItemFnNtNtB9_5parse5Parse5parse, symObjAddr: 0x171B4, symBinAddr: 0x3772C, symSize: 0x60 }
  - { offset: 0x9070A, size: 0x8, addend: 0x0, symName: __RNvXsw_NtNtCsATtFUPiRFW_3syn4item7parsingNtB7_12ImplItemTypeNtNtB9_5parse5Parse5parse, symObjAddr: 0x17214, symBinAddr: 0x3778C, symSize: 0x844 }
  - { offset: 0x90998, size: 0x8, addend: 0x0, symName: __RNvXsx_NtNtCsATtFUPiRFW_3syn4item7parsingNtB7_13ImplItemMacroNtNtB9_5parse5Parse5parse, symObjAddr: 0x17A58, symBinAddr: 0x37FD0, symSize: 0x33C }
  - { offset: 0x90AAB, size: 0x8, addend: 0x0, symName: __RNvXsz_NtNtCsATtFUPiRFW_3syn4item7parsingNtB7_16StaticMutabilityNtNtB9_5parse5Parse5parse, symObjAddr: 0x17D94, symBinAddr: 0x3830C, symSize: 0xDC }
  - { offset: 0x90B82, size: 0x8, addend: 0x0, symName: __RNvXNtNtCsATtFUPiRFW_3syn4item8printingNtB4_15ItemExternCrateNtNtCs62MdaZFMefA_5quote9to_tokens8ToTokens9to_tokens, symObjAddr: 0x17E70, symBinAddr: 0x383E8, symSize: 0x110 }
  - { offset: 0x90BEF, size: 0x8, addend: 0x0, symName: __RNvXs_NtNtCsATtFUPiRFW_3syn4item8printingNtB6_7ItemUseNtNtCs62MdaZFMefA_5quote9to_tokens8ToTokens9to_tokens, symObjAddr: 0x17F80, symBinAddr: 0x384F8, symSize: 0xA4 }
  - { offset: 0x90C2E, size: 0x8, addend: 0x0, symName: __RNvXs0_NtNtCsATtFUPiRFW_3syn4item8printingNtB7_10ItemStaticNtNtCs62MdaZFMefA_5quote9to_tokens8ToTokens9to_tokens, symObjAddr: 0x18024, symBinAddr: 0x3859C, symSize: 0xE4 }
  - { offset: 0x90C6D, size: 0x8, addend: 0x0, symName: __RNvXs1_NtNtCsATtFUPiRFW_3syn4item8printingNtB7_9ItemConstNtNtCs62MdaZFMefA_5quote9to_tokens8ToTokens9to_tokens, symObjAddr: 0x18108, symBinAddr: 0x38680, symSize: 0xD4 }
  - { offset: 0x90CAC, size: 0x8, addend: 0x0, symName: __RNvXs2_NtNtCsATtFUPiRFW_3syn4item8printingNtB7_6ItemFnNtNtCs62MdaZFMefA_5quote9to_tokens8ToTokens9to_tokens, symObjAddr: 0x181DC, symBinAddr: 0x38754, symSize: 0x8C }
  - { offset: 0x90CEB, size: 0x8, addend: 0x0, symName: __RNvXs3_NtNtCsATtFUPiRFW_3syn4item8printingNtB7_7ItemModNtNtCs62MdaZFMefA_5quote9to_tokens8ToTokens9to_tokens, symObjAddr: 0x18268, symBinAddr: 0x387E0, symSize: 0x110 }
  - { offset: 0x90D58, size: 0x8, addend: 0x0, symName: __RNvXs4_NtNtCsATtFUPiRFW_3syn4item8printingNtB7_14ItemForeignModNtNtCs62MdaZFMefA_5quote9to_tokens8ToTokens9to_tokens, symObjAddr: 0x18378, symBinAddr: 0x388F0, symSize: 0x88 }
  - { offset: 0x90D97, size: 0x8, addend: 0x0, symName: __RNvXs5_NtNtCsATtFUPiRFW_3syn4item8printingNtB7_8ItemTypeNtNtCs62MdaZFMefA_5quote9to_tokens8ToTokens9to_tokens, symObjAddr: 0x18400, symBinAddr: 0x38978, symSize: 0xD4 }
  - { offset: 0x90DD6, size: 0x8, addend: 0x0, symName: __RNvXs6_NtNtCsATtFUPiRFW_3syn4item8printingNtB7_8ItemEnumNtNtCs62MdaZFMefA_5quote9to_tokens8ToTokens9to_tokens, symObjAddr: 0x184D4, symBinAddr: 0x38A4C, symSize: 0xB8 }
  - { offset: 0x90E15, size: 0x8, addend: 0x0, symName: __RNvXs7_NtNtCsATtFUPiRFW_3syn4item8printingNtB7_10ItemStructNtNtCs62MdaZFMefA_5quote9to_tokens8ToTokens9to_tokens, symObjAddr: 0x1858C, symBinAddr: 0x38B04, symSize: 0x188 }
  - { offset: 0x90E90, size: 0x8, addend: 0x0, symName: __RNvXs8_NtNtCsATtFUPiRFW_3syn4item8printingNtB7_9ItemUnionNtNtCs62MdaZFMefA_5quote9to_tokens8ToTokens9to_tokens, symObjAddr: 0x18714, symBinAddr: 0x38C8C, symSize: 0xB4 }
  - { offset: 0x90ECF, size: 0x8, addend: 0x0, symName: __RNvXs9_NtNtCsATtFUPiRFW_3syn4item8printingNtB7_9ItemTraitNtNtCs62MdaZFMefA_5quote9to_tokens8ToTokens9to_tokens, symObjAddr: 0x187C8, symBinAddr: 0x38D40, symSize: 0x130 }
  - { offset: 0x90F0E, size: 0x8, addend: 0x0, symName: __RNvXsa_NtNtCsATtFUPiRFW_3syn4item8printingNtB7_14ItemTraitAliasNtNtCs62MdaZFMefA_5quote9to_tokens8ToTokens9to_tokens, symObjAddr: 0x188F8, symBinAddr: 0x38E70, symSize: 0xD4 }
  - { offset: 0x90F4D, size: 0x8, addend: 0x0, symName: __RNvXsb_NtNtCsATtFUPiRFW_3syn4item8printingNtB7_8ItemImplNtNtCs62MdaZFMefA_5quote9to_tokens8ToTokens9to_tokens, symObjAddr: 0x189CC, symBinAddr: 0x38F44, symSize: 0x14C }
  - { offset: 0x90FCA, size: 0x8, addend: 0x0, symName: __RNvXsc_NtNtCsATtFUPiRFW_3syn4item8printingNtB7_9ItemMacroNtNtCs62MdaZFMefA_5quote9to_tokens8ToTokens9to_tokens, symObjAddr: 0x18B18, symBinAddr: 0x39090, symSize: 0x148 }
  - { offset: 0x9105B, size: 0x8, addend: 0x0, symName: __RNvXsd_NtNtCsATtFUPiRFW_3syn4item8printingNtB7_7UsePathNtNtCs62MdaZFMefA_5quote9to_tokens8ToTokens9to_tokens, symObjAddr: 0x18C60, symBinAddr: 0x391D8, symSize: 0x60 }
  - { offset: 0x9109A, size: 0x8, addend: 0x0, symName: __RNvXse_NtNtCsATtFUPiRFW_3syn4item8printingNtB7_7UseNameNtNtCs62MdaZFMefA_5quote9to_tokens8ToTokens9to_tokens, symObjAddr: 0x18CC0, symBinAddr: 0x39238, symSize: 0x3C }
  - { offset: 0x910D9, size: 0x8, addend: 0x0, symName: __RNvXsf_NtNtCsATtFUPiRFW_3syn4item8printingNtB7_9UseRenameNtNtCs62MdaZFMefA_5quote9to_tokens8ToTokens9to_tokens, symObjAddr: 0x18CFC, symBinAddr: 0x39274, symSize: 0x60 }
  - { offset: 0x91118, size: 0x8, addend: 0x0, symName: __RNvXsg_NtNtCsATtFUPiRFW_3syn4item8printingNtB7_7UseGlobNtNtCs62MdaZFMefA_5quote9to_tokens8ToTokens9to_tokens, symObjAddr: 0x18D5C, symBinAddr: 0x392D4, symSize: 0x3C }
  - { offset: 0x91157, size: 0x8, addend: 0x0, symName: __RNvXsh_NtNtCsATtFUPiRFW_3syn4item8printingNtB7_8UseGroupNtNtCs62MdaZFMefA_5quote9to_tokens8ToTokens9to_tokens, symObjAddr: 0x18D98, symBinAddr: 0x39310, symSize: 0x44 }
  - { offset: 0x91196, size: 0x8, addend: 0x0, symName: __RNvXsi_NtNtCsATtFUPiRFW_3syn4item8printingNtB7_14TraitItemConstNtNtCs62MdaZFMefA_5quote9to_tokens8ToTokens9to_tokens, symObjAddr: 0x18DDC, symBinAddr: 0x39354, symSize: 0x110 }
  - { offset: 0x91203, size: 0x8, addend: 0x0, symName: __RNvXsj_NtNtCsATtFUPiRFW_3syn4item8printingNtB7_11TraitItemFnNtNtCs62MdaZFMefA_5quote9to_tokens8ToTokens9to_tokens, symObjAddr: 0x18EEC, symBinAddr: 0x39464, symSize: 0xD4 }
  - { offset: 0x91260, size: 0x8, addend: 0x0, symName: __RNvXsk_NtNtCsATtFUPiRFW_3syn4item8printingNtB7_13TraitItemTypeNtNtCs62MdaZFMefA_5quote9to_tokens8ToTokens9to_tokens, symObjAddr: 0x18FC0, symBinAddr: 0x39538, symSize: 0x168 }
  - { offset: 0x912CD, size: 0x8, addend: 0x0, symName: __RNvXsl_NtNtCsATtFUPiRFW_3syn4item8printingNtB7_14TraitItemMacroNtNtCs62MdaZFMefA_5quote9to_tokens8ToTokens9to_tokens, symObjAddr: 0x19128, symBinAddr: 0x396A0, symSize: 0x74 }
  - { offset: 0x9130C, size: 0x8, addend: 0x0, symName: __RNvXsm_NtNtCsATtFUPiRFW_3syn4item8printingNtB7_13ImplItemConstNtNtCs62MdaZFMefA_5quote9to_tokens8ToTokens9to_tokens, symObjAddr: 0x1919C, symBinAddr: 0x39714, symSize: 0xE4 }
  - { offset: 0x9134B, size: 0x8, addend: 0x0, symName: __RNvXsn_NtNtCsATtFUPiRFW_3syn4item8printingNtB7_10ImplItemFnNtNtCs62MdaZFMefA_5quote9to_tokens8ToTokens9to_tokens, symObjAddr: 0x19280, symBinAddr: 0x397F8, symSize: 0x98 }
  - { offset: 0x9138A, size: 0x8, addend: 0x0, symName: __RNvXso_NtNtCsATtFUPiRFW_3syn4item8printingNtB7_12ImplItemTypeNtNtCs62MdaZFMefA_5quote9to_tokens8ToTokens9to_tokens, symObjAddr: 0x19318, symBinAddr: 0x39890, symSize: 0xE4 }
  - { offset: 0x913C9, size: 0x8, addend: 0x0, symName: __RNvXsp_NtNtCsATtFUPiRFW_3syn4item8printingNtB7_13ImplItemMacroNtNtCs62MdaZFMefA_5quote9to_tokens8ToTokens9to_tokens, symObjAddr: 0x193FC, symBinAddr: 0x39974, symSize: 0x74 }
  - { offset: 0x91408, size: 0x8, addend: 0x0, symName: __RNvXsq_NtNtCsATtFUPiRFW_3syn4item8printingNtB7_13ForeignItemFnNtNtCs62MdaZFMefA_5quote9to_tokens8ToTokens9to_tokens, symObjAddr: 0x19470, symBinAddr: 0x399E8, symSize: 0x84 }
  - { offset: 0x91447, size: 0x8, addend: 0x0, symName: __RNvXsr_NtNtCsATtFUPiRFW_3syn4item8printingNtB7_17ForeignItemStaticNtNtCs62MdaZFMefA_5quote9to_tokens8ToTokens9to_tokens, symObjAddr: 0x194F4, symBinAddr: 0x39A6C, symSize: 0xC4 }
  - { offset: 0x91486, size: 0x8, addend: 0x0, symName: __RNvXss_NtNtCsATtFUPiRFW_3syn4item8printingNtB7_15ForeignItemTypeNtNtCs62MdaZFMefA_5quote9to_tokens8ToTokens9to_tokens, symObjAddr: 0x195B8, symBinAddr: 0x39B30, symSize: 0xB4 }
  - { offset: 0x914C5, size: 0x8, addend: 0x0, symName: __RNvXst_NtNtCsATtFUPiRFW_3syn4item8printingNtB7_16ForeignItemMacroNtNtCs62MdaZFMefA_5quote9to_tokens8ToTokens9to_tokens, symObjAddr: 0x1966C, symBinAddr: 0x39BE4, symSize: 0x74 }
  - { offset: 0x91504, size: 0x8, addend: 0x0, symName: __RNvXsu_NtNtCsATtFUPiRFW_3syn4item8printingNtB7_9SignatureNtNtCs62MdaZFMefA_5quote9to_tokens8ToTokens9to_tokens, symObjAddr: 0x196E0, symBinAddr: 0x39C58, symSize: 0xD4 }
  - { offset: 0x91543, size: 0x8, addend: 0x0, symName: __RNvXsv_NtNtCsATtFUPiRFW_3syn4item8printingNtB7_8ReceiverNtNtCs62MdaZFMefA_5quote9to_tokens8ToTokens9to_tokens, symObjAddr: 0x197B4, symBinAddr: 0x39D2C, symSize: 0x40C }
  - { offset: 0x91638, size: 0x8, addend: 0x0, symName: __RNvXsw_NtNtCsATtFUPiRFW_3syn4item8printingNtB7_8VariadicNtNtCs62MdaZFMefA_5quote9to_tokens8ToTokens9to_tokens, symObjAddr: 0x19BC0, symBinAddr: 0x3A138, symSize: 0xE0 }
  - { offset: 0x916A5, size: 0x8, addend: 0x0, symName: __RNvXsx_NtNtCsATtFUPiRFW_3syn4item8printingNtB7_16StaticMutabilityNtNtCs62MdaZFMefA_5quote9to_tokens8ToTokens9to_tokens, symObjAddr: 0x19CA0, symBinAddr: 0x3A218, symSize: 0x7C }
  - { offset: 0x91708, size: 0x8, addend: 0x0, symName: __RNcNtNtNtCsATtFUPiRFW_3syn4item4Item4Enum0B7_, symObjAddr: 0x19D1C, symBinAddr: 0x3A294, symSize: 0x3C }
  - { offset: 0x91737, size: 0x8, addend: 0x0, symName: __RNcNtNtNtCsATtFUPiRFW_3syn4item4Item11ExternCrate0B7_, symObjAddr: 0x19D58, symBinAddr: 0x3A2D0, symSize: 0x3C }
  - { offset: 0x91766, size: 0x8, addend: 0x0, symName: __RNcNtNtNtCsATtFUPiRFW_3syn4item4Item2Fn0B7_, symObjAddr: 0x19D94, symBinAddr: 0x3A30C, symSize: 0x30 }
  - { offset: 0x91795, size: 0x8, addend: 0x0, symName: __RNcNtNtNtCsATtFUPiRFW_3syn4item4Item10ForeignMod0B7_, symObjAddr: 0x19DC4, symBinAddr: 0x3A33C, symSize: 0x3C }
  - { offset: 0x917C4, size: 0x8, addend: 0x0, symName: __RNcNtNtNtCsATtFUPiRFW_3syn4item4Item5Macro0B7_, symObjAddr: 0x19E00, symBinAddr: 0x3A378, symSize: 0x3C }
  - { offset: 0x917F3, size: 0x8, addend: 0x0, symName: __RNcNtNtNtCsATtFUPiRFW_3syn4item4Item3Mod0B7_, symObjAddr: 0x19E3C, symBinAddr: 0x3A3B4, symSize: 0x3C }
  - { offset: 0x91822, size: 0x8, addend: 0x0, symName: __RNcNtNtNtCsATtFUPiRFW_3syn4item4Item6Struct0B7_, symObjAddr: 0x19E78, symBinAddr: 0x3A3F0, symSize: 0x3C }
  - { offset: 0x91851, size: 0x8, addend: 0x0, symName: __RNcNtNtNtCsATtFUPiRFW_3syn4item4Item5Trait0B7_, symObjAddr: 0x19EB4, symBinAddr: 0x3A42C, symSize: 0x3C }
  - { offset: 0x91880, size: 0x8, addend: 0x0, symName: __RNcNtNtNtCsATtFUPiRFW_3syn4item4Item10TraitAlias0B7_, symObjAddr: 0x19EF0, symBinAddr: 0x3A468, symSize: 0x3C }
  - { offset: 0x918AF, size: 0x8, addend: 0x0, symName: __RNcNtNtNtCsATtFUPiRFW_3syn4item4Item5Union0B7_, symObjAddr: 0x19F2C, symBinAddr: 0x3A4A4, symSize: 0x3C }
  - { offset: 0x918DF, size: 0x8, addend: 0x0, symName: __RNvXs5_NtCsATtFUPiRFW_3syn4itemNtB5_4ItemINtNtCs9f3LFPSIp77_4core7convert4FromNtB5_9ItemConstE4from, symObjAddr: 0x19F68, symBinAddr: 0x3A4E0, symSize: 0x4C }
  - { offset: 0x91912, size: 0x8, addend: 0x0, symName: __RNvXs6_NtCsATtFUPiRFW_3syn4itemNtB5_4ItemINtNtCs9f3LFPSIp77_4core7convert4FromNtB5_8ItemEnumE4from, symObjAddr: 0x19FB4, symBinAddr: 0x3A52C, symSize: 0x4C }
  - { offset: 0x91945, size: 0x8, addend: 0x0, symName: __RNvXs7_NtCsATtFUPiRFW_3syn4itemNtB5_4ItemINtNtCs9f3LFPSIp77_4core7convert4FromNtB5_15ItemExternCrateE4from, symObjAddr: 0x1A000, symBinAddr: 0x3A578, symSize: 0x4C }
  - { offset: 0x91978, size: 0x8, addend: 0x0, symName: __RNvXs8_NtCsATtFUPiRFW_3syn4itemNtB5_4ItemINtNtCs9f3LFPSIp77_4core7convert4FromNtB5_6ItemFnE4from, symObjAddr: 0x1A04C, symBinAddr: 0x3A5C4, symSize: 0x40 }
  - { offset: 0x919AB, size: 0x8, addend: 0x0, symName: __RNvXs9_NtCsATtFUPiRFW_3syn4itemNtB5_4ItemINtNtCs9f3LFPSIp77_4core7convert4FromNtB5_14ItemForeignModE4from, symObjAddr: 0x1A08C, symBinAddr: 0x3A604, symSize: 0x4C }
  - { offset: 0x919DE, size: 0x8, addend: 0x0, symName: __RNvXsa_NtCsATtFUPiRFW_3syn4itemNtB5_4ItemINtNtCs9f3LFPSIp77_4core7convert4FromNtB5_8ItemImplE4from, symObjAddr: 0x1A0D8, symBinAddr: 0x3A650, symSize: 0x4C }
  - { offset: 0x91A11, size: 0x8, addend: 0x0, symName: __RNvXsb_NtCsATtFUPiRFW_3syn4itemNtB5_4ItemINtNtCs9f3LFPSIp77_4core7convert4FromNtB5_9ItemMacroE4from, symObjAddr: 0x1A124, symBinAddr: 0x3A69C, symSize: 0x4C }
  - { offset: 0x91A44, size: 0x8, addend: 0x0, symName: __RNvXsc_NtCsATtFUPiRFW_3syn4itemNtB5_4ItemINtNtCs9f3LFPSIp77_4core7convert4FromNtB5_7ItemModE4from, symObjAddr: 0x1A170, symBinAddr: 0x3A6E8, symSize: 0x4C }
  - { offset: 0x91A77, size: 0x8, addend: 0x0, symName: __RNvXsd_NtCsATtFUPiRFW_3syn4itemNtB5_4ItemINtNtCs9f3LFPSIp77_4core7convert4FromNtB5_10ItemStaticE4from, symObjAddr: 0x1A1BC, symBinAddr: 0x3A734, symSize: 0x4C }
  - { offset: 0x91AAA, size: 0x8, addend: 0x0, symName: __RNvXse_NtCsATtFUPiRFW_3syn4itemNtB5_4ItemINtNtCs9f3LFPSIp77_4core7convert4FromNtB5_10ItemStructE4from, symObjAddr: 0x1A208, symBinAddr: 0x3A780, symSize: 0x4C }
  - { offset: 0x91ADD, size: 0x8, addend: 0x0, symName: __RNvXsf_NtCsATtFUPiRFW_3syn4itemNtB5_4ItemINtNtCs9f3LFPSIp77_4core7convert4FromNtB5_9ItemTraitE4from, symObjAddr: 0x1A254, symBinAddr: 0x3A7CC, symSize: 0x4C }
  - { offset: 0x91B10, size: 0x8, addend: 0x0, symName: __RNvXsg_NtCsATtFUPiRFW_3syn4itemNtB5_4ItemINtNtCs9f3LFPSIp77_4core7convert4FromNtB5_14ItemTraitAliasE4from, symObjAddr: 0x1A2A0, symBinAddr: 0x3A818, symSize: 0x4C }
  - { offset: 0x91B43, size: 0x8, addend: 0x0, symName: __RNvXsh_NtCsATtFUPiRFW_3syn4itemNtB5_4ItemINtNtCs9f3LFPSIp77_4core7convert4FromNtB5_8ItemTypeE4from, symObjAddr: 0x1A2EC, symBinAddr: 0x3A864, symSize: 0x4C }
  - { offset: 0x91B76, size: 0x8, addend: 0x0, symName: __RNvXsi_NtCsATtFUPiRFW_3syn4itemNtB5_4ItemINtNtCs9f3LFPSIp77_4core7convert4FromNtB5_9ItemUnionE4from, symObjAddr: 0x1A338, symBinAddr: 0x3A8B0, symSize: 0x4C }
  - { offset: 0x91BA9, size: 0x8, addend: 0x0, symName: __RNvXsj_NtCsATtFUPiRFW_3syn4itemNtB5_4ItemINtNtCs9f3LFPSIp77_4core7convert4FromNtB5_7ItemUseE4from, symObjAddr: 0x1A384, symBinAddr: 0x3A8FC, symSize: 0x4C }
  - { offset: 0x91BDC, size: 0x8, addend: 0x0, symName: __RNvXsk_NtCsATtFUPiRFW_3syn4itemNtB5_4ItemNtNtCs62MdaZFMefA_5quote9to_tokens8ToTokens9to_tokens, symObjAddr: 0x1A3D0, symBinAddr: 0x3A948, symSize: 0x35C }
  - { offset: 0x91DE6, size: 0x8, addend: 0x0, symName: __RNvXsl_NtCsATtFUPiRFW_3syn4itemNtB5_7UseTreeINtNtCs9f3LFPSIp77_4core7convert4FromNtB5_7UsePathE4from, symObjAddr: 0x1A72C, symBinAddr: 0x3ACA4, symSize: 0x48 }
  - { offset: 0x91E19, size: 0x8, addend: 0x0, symName: __RNvXsm_NtCsATtFUPiRFW_3syn4itemNtB5_7UseTreeINtNtCs9f3LFPSIp77_4core7convert4FromNtB5_7UseNameE4from, symObjAddr: 0x1A774, symBinAddr: 0x3ACEC, symSize: 0x30 }
  - { offset: 0x91E4B, size: 0x8, addend: 0x0, symName: __RNvXsn_NtCsATtFUPiRFW_3syn4itemNtB5_7UseTreeINtNtCs9f3LFPSIp77_4core7convert4FromNtB5_9UseRenameE4from, symObjAddr: 0x1A7A4, symBinAddr: 0x3AD1C, symSize: 0x4C }
  - { offset: 0x91E7E, size: 0x8, addend: 0x0, symName: __RNvXso_NtCsATtFUPiRFW_3syn4itemNtB5_7UseTreeINtNtCs9f3LFPSIp77_4core7convert4FromNtB5_7UseGlobE4from, symObjAddr: 0x1A7F0, symBinAddr: 0x3AD68, symSize: 0x3C }
  - { offset: 0x91EB0, size: 0x8, addend: 0x0, symName: __RNvXsp_NtCsATtFUPiRFW_3syn4itemNtB5_7UseTreeINtNtCs9f3LFPSIp77_4core7convert4FromNtB5_8UseGroupE4from, symObjAddr: 0x1A82C, symBinAddr: 0x3ADA4, symSize: 0x4C }
  - { offset: 0x91EE3, size: 0x8, addend: 0x0, symName: __RNvXsq_NtCsATtFUPiRFW_3syn4itemNtB5_7UseTreeNtNtCs62MdaZFMefA_5quote9to_tokens8ToTokens9to_tokens, symObjAddr: 0x1A878, symBinAddr: 0x3ADF0, symSize: 0x15C }
  - { offset: 0x91FAD, size: 0x8, addend: 0x0, symName: __RNcNtNtNtCsATtFUPiRFW_3syn4item11ForeignItem5Macro0B7_, symObjAddr: 0x1A9D4, symBinAddr: 0x3AF4C, symSize: 0x3C }
  - { offset: 0x91FDF, size: 0x8, addend: 0x0, symName: __RNvXsr_NtCsATtFUPiRFW_3syn4itemNtB5_11ForeignItemINtNtCs9f3LFPSIp77_4core7convert4FromNtB5_13ForeignItemFnE4from, symObjAddr: 0x1AA10, symBinAddr: 0x3AF88, symSize: 0x40 }
  - { offset: 0x92012, size: 0x8, addend: 0x0, symName: __RNvXss_NtCsATtFUPiRFW_3syn4itemNtB5_11ForeignItemINtNtCs9f3LFPSIp77_4core7convert4FromNtB5_17ForeignItemStaticE4from, symObjAddr: 0x1AA50, symBinAddr: 0x3AFC8, symSize: 0x4C }
  - { offset: 0x92045, size: 0x8, addend: 0x0, symName: __RNvXst_NtCsATtFUPiRFW_3syn4itemNtB5_11ForeignItemINtNtCs9f3LFPSIp77_4core7convert4FromNtB5_15ForeignItemTypeE4from, symObjAddr: 0x1AA9C, symBinAddr: 0x3B014, symSize: 0x4C }
  - { offset: 0x92078, size: 0x8, addend: 0x0, symName: __RNvXsu_NtCsATtFUPiRFW_3syn4itemNtB5_11ForeignItemINtNtCs9f3LFPSIp77_4core7convert4FromNtB5_16ForeignItemMacroE4from, symObjAddr: 0x1AAE8, symBinAddr: 0x3B060, symSize: 0x4C }
  - { offset: 0x920AB, size: 0x8, addend: 0x0, symName: __RNvXsv_NtCsATtFUPiRFW_3syn4itemNtB5_11ForeignItemNtNtCs62MdaZFMefA_5quote9to_tokens8ToTokens9to_tokens, symObjAddr: 0x1AB34, symBinAddr: 0x3B0AC, symSize: 0x168 }
  - { offset: 0x92175, size: 0x8, addend: 0x0, symName: __RNcNtNtNtCsATtFUPiRFW_3syn4item9TraitItem2Fn0B7_, symObjAddr: 0x1AC9C, symBinAddr: 0x3B214, symSize: 0x3C }
  - { offset: 0x921A6, size: 0x8, addend: 0x0, symName: __RNcNtNtNtCsATtFUPiRFW_3syn4item9TraitItem5Macro0B7_, symObjAddr: 0x1ACD8, symBinAddr: 0x3B250, symSize: 0x3C }
  - { offset: 0x921D8, size: 0x8, addend: 0x0, symName: __RNvXsw_NtCsATtFUPiRFW_3syn4itemNtB5_9TraitItemINtNtCs9f3LFPSIp77_4core7convert4FromNtB5_14TraitItemConstE4from, symObjAddr: 0x1AD14, symBinAddr: 0x3B28C, symSize: 0x40 }
  - { offset: 0x9220B, size: 0x8, addend: 0x0, symName: __RNvXsx_NtCsATtFUPiRFW_3syn4itemNtB5_9TraitItemINtNtCs9f3LFPSIp77_4core7convert4FromNtB5_11TraitItemFnE4from, symObjAddr: 0x1AD54, symBinAddr: 0x3B2CC, symSize: 0x4C }
  - { offset: 0x9223E, size: 0x8, addend: 0x0, symName: __RNvXsy_NtCsATtFUPiRFW_3syn4itemNtB5_9TraitItemINtNtCs9f3LFPSIp77_4core7convert4FromNtB5_13TraitItemTypeE4from, symObjAddr: 0x1ADA0, symBinAddr: 0x3B318, symSize: 0x4C }
  - { offset: 0x92271, size: 0x8, addend: 0x0, symName: __RNvXsz_NtCsATtFUPiRFW_3syn4itemNtB5_9TraitItemINtNtCs9f3LFPSIp77_4core7convert4FromNtB5_14TraitItemMacroE4from, symObjAddr: 0x1ADEC, symBinAddr: 0x3B364, symSize: 0x4C }
  - { offset: 0x922A4, size: 0x8, addend: 0x0, symName: __RNvXsA_NtCsATtFUPiRFW_3syn4itemNtB5_9TraitItemNtNtCs62MdaZFMefA_5quote9to_tokens8ToTokens9to_tokens, symObjAddr: 0x1AE38, symBinAddr: 0x3B3B0, symSize: 0x168 }
  - { offset: 0x9236E, size: 0x8, addend: 0x0, symName: __RNcNtNtNtCsATtFUPiRFW_3syn4item8ImplItem5Macro0B7_, symObjAddr: 0x1AFA0, symBinAddr: 0x3B518, symSize: 0x3C }
  - { offset: 0x923A0, size: 0x8, addend: 0x0, symName: __RNvXsB_NtCsATtFUPiRFW_3syn4itemNtB5_8ImplItemINtNtCs9f3LFPSIp77_4core7convert4FromNtB5_13ImplItemConstE4from, symObjAddr: 0x1AFDC, symBinAddr: 0x3B554, symSize: 0x40 }
  - { offset: 0x923D3, size: 0x8, addend: 0x0, symName: __RNvXsC_NtCsATtFUPiRFW_3syn4itemNtB5_8ImplItemINtNtCs9f3LFPSIp77_4core7convert4FromNtB5_10ImplItemFnE4from, symObjAddr: 0x1B01C, symBinAddr: 0x3B594, symSize: 0x4C }
  - { offset: 0x92406, size: 0x8, addend: 0x0, symName: __RNvXsD_NtCsATtFUPiRFW_3syn4itemNtB5_8ImplItemINtNtCs9f3LFPSIp77_4core7convert4FromNtB5_12ImplItemTypeE4from, symObjAddr: 0x1B068, symBinAddr: 0x3B5E0, symSize: 0x4C }
  - { offset: 0x92439, size: 0x8, addend: 0x0, symName: __RNvXsE_NtCsATtFUPiRFW_3syn4itemNtB5_8ImplItemINtNtCs9f3LFPSIp77_4core7convert4FromNtB5_13ImplItemMacroE4from, symObjAddr: 0x1B0B4, symBinAddr: 0x3B62C, symSize: 0x4C }
  - { offset: 0x9246C, size: 0x8, addend: 0x0, symName: __RNvXsF_NtCsATtFUPiRFW_3syn4itemNtB5_8ImplItemNtNtCs62MdaZFMefA_5quote9to_tokens8ToTokens9to_tokens, symObjAddr: 0x1B100, symBinAddr: 0x3B678, symSize: 0x168 }
  - { offset: 0x92531, size: 0x8, addend: 0x0, symName: __RNvXsG_NtCsATtFUPiRFW_3syn4itemNtB5_5FnArgINtNtCs9f3LFPSIp77_4core7convert4FromNtB5_8ReceiverE4from, symObjAddr: 0x1B268, symBinAddr: 0x3B7E0, symSize: 0x40 }
  - { offset: 0x92564, size: 0x8, addend: 0x0, symName: __RNvXsH_NtCsATtFUPiRFW_3syn4itemNtB5_5FnArgINtNtCs9f3LFPSIp77_4core7convert4FromNtNtB7_3pat7PatTypeE4from, symObjAddr: 0x1B2A8, symBinAddr: 0x3B820, symSize: 0x4C }
  - { offset: 0x92597, size: 0x8, addend: 0x0, symName: __RNvXsI_NtCsATtFUPiRFW_3syn4itemNtB5_5FnArgNtNtCs62MdaZFMefA_5quote9to_tokens8ToTokens9to_tokens, symObjAddr: 0x1B2F4, symBinAddr: 0x3B86C, symSize: 0xA0 }
  - { offset: 0x9260A, size: 0x8, addend: 0x0, symName: __RNcNtNtNtCsATtFUPiRFW_3syn4item16StaticMutability3Mut0B7_, symObjAddr: 0x1B394, symBinAddr: 0x3B90C, symSize: 0x20 }
  - { offset: 0x960B8, size: 0x8, addend: 0x0, symName: __RNvXs16_NtNtCsATtFUPiRFW_3syn3gen5cloneNtNtBa_4item5FnArgNtNtCs9f3LFPSIp77_4core5clone5Clone5clone, symObjAddr: 0x1B3B4, symBinAddr: 0x3B92C, symSize: 0xDC }
  - { offset: 0x96120, size: 0x8, addend: 0x0, symName: __RNvXs17_NtNtCsATtFUPiRFW_3syn3gen5cloneNtNtBa_4item11ForeignItemNtNtCs9f3LFPSIp77_4core5clone5Clone5clone, symObjAddr: 0x1B490, symBinAddr: 0x3BA08, symSize: 0x224 }
  - { offset: 0x961E2, size: 0x8, addend: 0x0, symName: __RNvXs18_NtNtCsATtFUPiRFW_3syn3gen5cloneNtNtBa_4item13ForeignItemFnNtNtCs9f3LFPSIp77_4core5clone5Clone5clone, symObjAddr: 0x1B6B4, symBinAddr: 0x3BC2C, symSize: 0x134 }
  - { offset: 0x96216, size: 0x8, addend: 0x0, symName: __RNvXs19_NtNtCsATtFUPiRFW_3syn3gen5cloneNtNtBa_4item16ForeignItemMacroNtNtCs9f3LFPSIp77_4core5clone5Clone5clone, symObjAddr: 0x1B7E8, symBinAddr: 0x3BD60, symSize: 0xEC }
  - { offset: 0x9624A, size: 0x8, addend: 0x0, symName: __RNvXs1a_NtNtCsATtFUPiRFW_3syn3gen5cloneNtNtBa_4item17ForeignItemStaticNtNtCs9f3LFPSIp77_4core5clone5Clone5clone, symObjAddr: 0x1B8D4, symBinAddr: 0x3BE4C, symSize: 0x1D4 }
  - { offset: 0x9627E, size: 0x8, addend: 0x0, symName: __RNvXs1b_NtNtCsATtFUPiRFW_3syn3gen5cloneNtNtBa_4item15ForeignItemTypeNtNtCs9f3LFPSIp77_4core5clone5Clone5clone, symObjAddr: 0x1BAA8, symBinAddr: 0x3C020, symSize: 0x190 }
  - { offset: 0x962B2, size: 0x8, addend: 0x0, symName: __RNvXs1f_NtNtCsATtFUPiRFW_3syn3gen5cloneNtNtBa_4item8ImplItemNtNtCs9f3LFPSIp77_4core5clone5Clone5clone, symObjAddr: 0x1BC38, symBinAddr: 0x3C1B0, symSize: 0x21C }
  - { offset: 0x96374, size: 0x8, addend: 0x0, symName: __RNvXs1g_NtNtCsATtFUPiRFW_3syn3gen5cloneNtNtBa_4item13ImplItemConstNtNtCs9f3LFPSIp77_4core5clone5Clone5clone, symObjAddr: 0x1BE54, symBinAddr: 0x3C3CC, symSize: 0x2A4 }
  - { offset: 0x963A8, size: 0x8, addend: 0x0, symName: __RNvXs1h_NtNtCsATtFUPiRFW_3syn3gen5cloneNtNtBa_4item10ImplItemFnNtNtCs9f3LFPSIp77_4core5clone5Clone5clone, symObjAddr: 0x1C0F8, symBinAddr: 0x3C670, symSize: 0x158 }
  - { offset: 0x963DC, size: 0x8, addend: 0x0, symName: __RNvXs1i_NtNtCsATtFUPiRFW_3syn3gen5cloneNtNtBa_4item13ImplItemMacroNtNtCs9f3LFPSIp77_4core5clone5Clone5clone, symObjAddr: 0x1C250, symBinAddr: 0x3C7C8, symSize: 0xEC }
  - { offset: 0x96410, size: 0x8, addend: 0x0, symName: __RNvXs1j_NtNtCsATtFUPiRFW_3syn3gen5cloneNtNtBa_4item12ImplItemTypeNtNtCs9f3LFPSIp77_4core5clone5Clone5clone, symObjAddr: 0x1C33C, symBinAddr: 0x3C8B4, symSize: 0x230 }
  - { offset: 0x96444, size: 0x8, addend: 0x0, symName: __RNvXs1k_NtNtCsATtFUPiRFW_3syn3gen5cloneNtNtBa_4item15ImplRestrictionNtNtCs9f3LFPSIp77_4core5clone5Clone5clone, symObjAddr: 0x1C56C, symBinAddr: 0x3CAE4, symSize: 0xC }
  - { offset: 0x96474, size: 0x8, addend: 0x0, symName: __RNvXs1m_NtNtCsATtFUPiRFW_3syn3gen5cloneNtNtBa_4item4ItemNtNtCs9f3LFPSIp77_4core5clone5Clone5clone, symObjAddr: 0x1C578, symBinAddr: 0x3CAF0, symSize: 0x5C8 }
  - { offset: 0x9668B, size: 0x8, addend: 0x0, symName: __RNvXs1n_NtNtCsATtFUPiRFW_3syn3gen5cloneNtNtBa_4item9ItemConstNtNtCs9f3LFPSIp77_4core5clone5Clone5clone, symObjAddr: 0x1CB40, symBinAddr: 0x3D0B8, symSize: 0x268 }
  - { offset: 0x966BF, size: 0x8, addend: 0x0, symName: __RNvXs1o_NtNtCsATtFUPiRFW_3syn3gen5cloneNtNtBa_4item8ItemEnumNtNtCs9f3LFPSIp77_4core5clone5Clone5clone, symObjAddr: 0x1CDA8, symBinAddr: 0x3D320, symSize: 0x1B8 }
  - { offset: 0x966F3, size: 0x8, addend: 0x0, symName: __RNvXs1p_NtNtCsATtFUPiRFW_3syn3gen5cloneNtNtBa_4item15ItemExternCrateNtNtCs9f3LFPSIp77_4core5clone5Clone5clone, symObjAddr: 0x1CF60, symBinAddr: 0x3D4D8, symSize: 0x19C }
  - { offset: 0x96727, size: 0x8, addend: 0x0, symName: __RNvXs1q_NtNtCsATtFUPiRFW_3syn3gen5cloneNtNtBa_4item6ItemFnNtNtCs9f3LFPSIp77_4core5clone5Clone5clone, symObjAddr: 0x1D0FC, symBinAddr: 0x3D674, symSize: 0x124 }
  - { offset: 0x9675B, size: 0x8, addend: 0x0, symName: __RNvXs1r_NtNtCsATtFUPiRFW_3syn3gen5cloneNtNtBa_4item14ItemForeignModNtNtCs9f3LFPSIp77_4core5clone5Clone5clone, symObjAddr: 0x1D220, symBinAddr: 0x3D798, symSize: 0x13C }
  - { offset: 0x9678F, size: 0x8, addend: 0x0, symName: __RNvXs1s_NtNtCsATtFUPiRFW_3syn3gen5cloneNtNtBa_4item8ItemImplNtNtCs9f3LFPSIp77_4core5clone5Clone5clone, symObjAddr: 0x1D35C, symBinAddr: 0x3D8D4, symSize: 0x210 }
  - { offset: 0x967C3, size: 0x8, addend: 0x0, symName: __RNvXs1t_NtNtCsATtFUPiRFW_3syn3gen5cloneNtNtBa_4item9ItemMacroNtNtCs9f3LFPSIp77_4core5clone5Clone5clone, symObjAddr: 0x1D56C, symBinAddr: 0x3DAE4, symSize: 0x12C }
  - { offset: 0x967F7, size: 0x8, addend: 0x0, symName: __RNvXs1u_NtNtCsATtFUPiRFW_3syn3gen5cloneNtNtBa_4item7ItemModNtNtCs9f3LFPSIp77_4core5clone5Clone5clone, symObjAddr: 0x1D698, symBinAddr: 0x3DC10, symSize: 0x1B0 }
  - { offset: 0x9682B, size: 0x8, addend: 0x0, symName: __RNvXs1v_NtNtCsATtFUPiRFW_3syn3gen5cloneNtNtBa_4item10ItemStaticNtNtCs9f3LFPSIp77_4core5clone5Clone5clone, symObjAddr: 0x1D848, symBinAddr: 0x3DDC0, symSize: 0x240 }
  - { offset: 0x9685F, size: 0x8, addend: 0x0, symName: __RNvXs1w_NtNtCsATtFUPiRFW_3syn3gen5cloneNtNtBa_4item10ItemStructNtNtCs9f3LFPSIp77_4core5clone5Clone5clone, symObjAddr: 0x1DA88, symBinAddr: 0x3E000, symSize: 0x1D4 }
  - { offset: 0x96893, size: 0x8, addend: 0x0, symName: __RNvXs1x_NtNtCsATtFUPiRFW_3syn3gen5cloneNtNtBa_4item9ItemTraitNtNtCs9f3LFPSIp77_4core5clone5Clone5clone, symObjAddr: 0x1DC5C, symBinAddr: 0x3E1D4, symSize: 0x278 }
  - { offset: 0x968C7, size: 0x8, addend: 0x0, symName: __RNvXs1y_NtNtCsATtFUPiRFW_3syn3gen5cloneNtNtBa_4item14ItemTraitAliasNtNtCs9f3LFPSIp77_4core5clone5Clone5clone, symObjAddr: 0x1DED4, symBinAddr: 0x3E44C, symSize: 0x1FC }
  - { offset: 0x968FB, size: 0x8, addend: 0x0, symName: __RNvXs1z_NtNtCsATtFUPiRFW_3syn3gen5cloneNtNtBa_4item8ItemTypeNtNtCs9f3LFPSIp77_4core5clone5Clone5clone, symObjAddr: 0x1E0D0, symBinAddr: 0x3E648, symSize: 0x1FC }
  - { offset: 0x9692F, size: 0x8, addend: 0x0, symName: __RNvXs1A_NtNtCsATtFUPiRFW_3syn3gen5cloneNtNtBa_4item9ItemUnionNtNtCs9f3LFPSIp77_4core5clone5Clone5clone, symObjAddr: 0x1E2CC, symBinAddr: 0x3E844, symSize: 0x18C }
  - { offset: 0x96963, size: 0x8, addend: 0x0, symName: __RNvXs1B_NtNtCsATtFUPiRFW_3syn3gen5cloneNtNtBa_4item7ItemUseNtNtCs9f3LFPSIp77_4core5clone5Clone5clone, symObjAddr: 0x1E458, symBinAddr: 0x3E9D0, symSize: 0x16C }
  - { offset: 0x96997, size: 0x8, addend: 0x0, symName: __RNvXs2b_NtNtCsATtFUPiRFW_3syn3gen5cloneNtNtBa_4item8ReceiverNtNtCs9f3LFPSIp77_4core5clone5Clone5clone, symObjAddr: 0x1E5C4, symBinAddr: 0x3EB3C, symSize: 0x14C }
  - { offset: 0x969CB, size: 0x8, addend: 0x0, symName: __RNvXs2d_NtNtCsATtFUPiRFW_3syn3gen5cloneNtNtBa_4item9SignatureNtNtCs9f3LFPSIp77_4core5clone5Clone5clone, symObjAddr: 0x1E710, symBinAddr: 0x3EC88, symSize: 0x278 }
  - { offset: 0x969FF, size: 0x8, addend: 0x0, symName: __RNvXs2e_NtNtCsATtFUPiRFW_3syn3gen5cloneNtNtBa_4item16StaticMutabilityNtNtCs9f3LFPSIp77_4core5clone5Clone5clone, symObjAddr: 0x1E988, symBinAddr: 0x3EF00, symSize: 0x88 }
  - { offset: 0x96A51, size: 0x8, addend: 0x0, symName: __RNvXs2k_NtNtCsATtFUPiRFW_3syn3gen5cloneNtNtBa_4item9TraitItemNtNtCs9f3LFPSIp77_4core5clone5Clone5clone, symObjAddr: 0x1EA10, symBinAddr: 0x3EF88, symSize: 0x21C }
  - { offset: 0x96B13, size: 0x8, addend: 0x0, symName: __RNvXs2l_NtNtCsATtFUPiRFW_3syn3gen5cloneNtNtBa_4item14TraitItemConstNtNtCs9f3LFPSIp77_4core5clone5Clone5clone, symObjAddr: 0x1EC2C, symBinAddr: 0x3F1A4, symSize: 0x210 }
  - { offset: 0x96B47, size: 0x8, addend: 0x0, symName: __RNvXs2m_NtNtCsATtFUPiRFW_3syn3gen5cloneNtNtBa_4item11TraitItemFnNtNtCs9f3LFPSIp77_4core5clone5Clone5clone, symObjAddr: 0x1EE3C, symBinAddr: 0x3F3B4, symSize: 0x138 }
  - { offset: 0x96B7B, size: 0x8, addend: 0x0, symName: __RNvXs2n_NtNtCsATtFUPiRFW_3syn3gen5cloneNtNtBa_4item14TraitItemMacroNtNtCs9f3LFPSIp77_4core5clone5Clone5clone, symObjAddr: 0x1EF74, symBinAddr: 0x3F4EC, symSize: 0xEC }
  - { offset: 0x96BAF, size: 0x8, addend: 0x0, symName: __RNvXs2o_NtNtCsATtFUPiRFW_3syn3gen5cloneNtNtBa_4item13TraitItemTypeNtNtCs9f3LFPSIp77_4core5clone5Clone5clone, symObjAddr: 0x1F060, symBinAddr: 0x3F5D8, symSize: 0x204 }
  - { offset: 0x96BE3, size: 0x8, addend: 0x0, symName: __RNvXs2I_NtNtCsATtFUPiRFW_3syn3gen5cloneNtNtBa_4item7UseGlobNtNtCs9f3LFPSIp77_4core5clone5Clone5clone, symObjAddr: 0x1F264, symBinAddr: 0x3F7DC, symSize: 0x4C }
  - { offset: 0x96C17, size: 0x8, addend: 0x0, symName: __RNvXs2J_NtNtCsATtFUPiRFW_3syn3gen5cloneNtNtBa_4item8UseGroupNtNtCs9f3LFPSIp77_4core5clone5Clone5clone, symObjAddr: 0x1F2B0, symBinAddr: 0x3F828, symSize: 0x70 }
  - { offset: 0x96C4B, size: 0x8, addend: 0x0, symName: __RNvXs2K_NtNtCsATtFUPiRFW_3syn3gen5cloneNtNtBa_4item7UseNameNtNtCs9f3LFPSIp77_4core5clone5Clone5clone, symObjAddr: 0x1F320, symBinAddr: 0x3F898, symSize: 0x50 }
  - { offset: 0x96C7F, size: 0x8, addend: 0x0, symName: __RNvXs2L_NtNtCsATtFUPiRFW_3syn3gen5cloneNtNtBa_4item7UsePathNtNtCs9f3LFPSIp77_4core5clone5Clone5clone, symObjAddr: 0x1F370, symBinAddr: 0x3F8E8, symSize: 0xC0 }
  - { offset: 0x96CB3, size: 0x8, addend: 0x0, symName: __RNvXs2M_NtNtCsATtFUPiRFW_3syn3gen5cloneNtNtBa_4item9UseRenameNtNtCs9f3LFPSIp77_4core5clone5Clone5clone, symObjAddr: 0x1F430, symBinAddr: 0x3F9A8, symSize: 0xB8 }
  - { offset: 0x96CE7, size: 0x8, addend: 0x0, symName: __RNvXs2N_NtNtCsATtFUPiRFW_3syn3gen5cloneNtNtBa_4item7UseTreeNtNtCs9f3LFPSIp77_4core5clone5Clone5clone, symObjAddr: 0x1F4E8, symBinAddr: 0x3FA60, symSize: 0x20C }
  - { offset: 0x96DAA, size: 0x8, addend: 0x0, symName: __RNvXs2O_NtNtCsATtFUPiRFW_3syn3gen5cloneNtNtBa_4item8VariadicNtNtCs9f3LFPSIp77_4core5clone5Clone5clone, symObjAddr: 0x1F6F4, symBinAddr: 0x3FC6C, symSize: 0x100 }
  - { offset: 0x96DE4, size: 0x8, addend: 0x0, symName: __RNvXs1N_NtNtCsATtFUPiRFW_3syn3gen5debugNtNtBa_4item5FnArgNtNtCs9f3LFPSIp77_4core3fmt5Debug3fmt, symObjAddr: 0x1F7F4, symBinAddr: 0x3FD6C, symSize: 0x184 }
  - { offset: 0x96EB4, size: 0x8, addend: 0x0, symName: __RNvXs1O_NtNtCsATtFUPiRFW_3syn3gen5debugNtNtBa_4item11ForeignItemNtNtCs9f3LFPSIp77_4core3fmt5Debug3fmt, symObjAddr: 0x1F978, symBinAddr: 0x3FEF0, symSize: 0x268 }
  - { offset: 0x96FC0, size: 0x8, addend: 0x0, symName: __RNvXs1P_NtNtCsATtFUPiRFW_3syn3gen5debugNtNtBa_4item13ForeignItemFnNtNtCs9f3LFPSIp77_4core3fmt5Debug3fmt, symObjAddr: 0x1FBE0, symBinAddr: 0x40158, symSize: 0x4C }
  - { offset: 0x97003, size: 0x8, addend: 0x0, symName: __RNvXs1R_NtNtCsATtFUPiRFW_3syn3gen5debugNtNtBa_4item16ForeignItemMacroNtNtCs9f3LFPSIp77_4core3fmt5Debug3fmt, symObjAddr: 0x1FD30, symBinAddr: 0x402A8, symSize: 0x4C }
  - { offset: 0x97046, size: 0x8, addend: 0x0, symName: __RNvXs1T_NtNtCsATtFUPiRFW_3syn3gen5debugNtNtBa_4item17ForeignItemStaticNtNtCs9f3LFPSIp77_4core3fmt5Debug3fmt, symObjAddr: 0x1FE58, symBinAddr: 0x403D0, symSize: 0x4C }
  - { offset: 0x97089, size: 0x8, addend: 0x0, symName: __RNvXs1V_NtNtCsATtFUPiRFW_3syn3gen5debugNtNtBa_4item15ForeignItemTypeNtNtCs9f3LFPSIp77_4core3fmt5Debug3fmt, symObjAddr: 0x20048, symBinAddr: 0x405C0, symSize: 0x4C }
  - { offset: 0x970CC, size: 0x8, addend: 0x0, symName: __RNvXs20_NtNtCsATtFUPiRFW_3syn3gen5debugNtNtBa_4item8ImplItemNtNtCs9f3LFPSIp77_4core3fmt5Debug3fmt, symObjAddr: 0x201E8, symBinAddr: 0x40760, symSize: 0x268 }
  - { offset: 0x971D8, size: 0x8, addend: 0x0, symName: __RNvXs21_NtNtCsATtFUPiRFW_3syn3gen5debugNtNtBa_4item13ImplItemConstNtNtCs9f3LFPSIp77_4core3fmt5Debug3fmt, symObjAddr: 0x20450, symBinAddr: 0x409C8, symSize: 0x4C }
  - { offset: 0x9721B, size: 0x8, addend: 0x0, symName: __RNvXs23_NtNtCsATtFUPiRFW_3syn3gen5debugNtNtBa_4item10ImplItemFnNtNtCs9f3LFPSIp77_4core3fmt5Debug3fmt, symObjAddr: 0x206B4, symBinAddr: 0x40C2C, symSize: 0x4C }
  - { offset: 0x9725E, size: 0x8, addend: 0x0, symName: __RNvXs25_NtNtCsATtFUPiRFW_3syn3gen5debugNtNtBa_4item13ImplItemMacroNtNtCs9f3LFPSIp77_4core3fmt5Debug3fmt, symObjAddr: 0x2082C, symBinAddr: 0x40DA4, symSize: 0x4C }
  - { offset: 0x972A1, size: 0x8, addend: 0x0, symName: __RNvXs27_NtNtCsATtFUPiRFW_3syn3gen5debugNtNtBa_4item12ImplItemTypeNtNtCs9f3LFPSIp77_4core3fmt5Debug3fmt, symObjAddr: 0x20954, symBinAddr: 0x40ECC, symSize: 0x4C }
  - { offset: 0x972E4, size: 0x8, addend: 0x0, symName: __RNvXs29_NtNtCsATtFUPiRFW_3syn3gen5debugNtNtBa_4item15ImplRestrictionNtNtCs9f3LFPSIp77_4core3fmt5Debug3fmt, symObjAddr: 0x20B6C, symBinAddr: 0x410E4, symSize: 0x10 }
  - { offset: 0x97327, size: 0x8, addend: 0x0, symName: __RNvXs2b_NtNtCsATtFUPiRFW_3syn3gen5debugNtNtBa_4item4ItemNtNtCs9f3LFPSIp77_4core3fmt5Debug3fmt, symObjAddr: 0x20B7C, symBinAddr: 0x410F4, symSize: 0x560 }
  - { offset: 0x9758B, size: 0x8, addend: 0x0, symName: __RNvXs2c_NtNtCsATtFUPiRFW_3syn3gen5debugNtNtBa_4item9ItemConstNtNtCs9f3LFPSIp77_4core3fmt5Debug3fmt, symObjAddr: 0x210DC, symBinAddr: 0x41654, symSize: 0x4C }
  - { offset: 0x975CE, size: 0x8, addend: 0x0, symName: __RNvXs2e_NtNtCsATtFUPiRFW_3syn3gen5debugNtNtBa_4item8ItemEnumNtNtCs9f3LFPSIp77_4core3fmt5Debug3fmt, symObjAddr: 0x2131C, symBinAddr: 0x41894, symSize: 0x4C }
  - { offset: 0x97611, size: 0x8, addend: 0x0, symName: __RNvXs2g_NtNtCsATtFUPiRFW_3syn3gen5debugNtNtBa_4item15ItemExternCrateNtNtCs9f3LFPSIp77_4core3fmt5Debug3fmt, symObjAddr: 0x214E4, symBinAddr: 0x41A5C, symSize: 0x4C }
  - { offset: 0x97654, size: 0x8, addend: 0x0, symName: __RNvXs2i_NtNtCsATtFUPiRFW_3syn3gen5debugNtNtBa_4item6ItemFnNtNtCs9f3LFPSIp77_4core3fmt5Debug3fmt, symObjAddr: 0x216AC, symBinAddr: 0x41C24, symSize: 0x4C }
  - { offset: 0x97697, size: 0x8, addend: 0x0, symName: __RNvXs2k_NtNtCsATtFUPiRFW_3syn3gen5debugNtNtBa_4item14ItemForeignModNtNtCs9f3LFPSIp77_4core3fmt5Debug3fmt, symObjAddr: 0x217FC, symBinAddr: 0x41D74, symSize: 0x4C }
  - { offset: 0x976DA, size: 0x8, addend: 0x0, symName: __RNvXs2m_NtNtCsATtFUPiRFW_3syn3gen5debugNtNtBa_4item8ItemImplNtNtCs9f3LFPSIp77_4core3fmt5Debug3fmt, symObjAddr: 0x21974, symBinAddr: 0x41EEC, symSize: 0x4C }
  - { offset: 0x9771D, size: 0x8, addend: 0x0, symName: __RNvXs2o_NtNtCsATtFUPiRFW_3syn3gen5debugNtNtBa_4item9ItemMacroNtNtCs9f3LFPSIp77_4core3fmt5Debug3fmt, symObjAddr: 0x21B8C, symBinAddr: 0x42104, symSize: 0x4C }
  - { offset: 0x97760, size: 0x8, addend: 0x0, symName: __RNvXs2q_NtNtCsATtFUPiRFW_3syn3gen5debugNtNtBa_4item7ItemModNtNtCs9f3LFPSIp77_4core3fmt5Debug3fmt, symObjAddr: 0x21CDC, symBinAddr: 0x42254, symSize: 0x4C }
  - { offset: 0x977A3, size: 0x8, addend: 0x0, symName: __RNvXs2s_NtNtCsATtFUPiRFW_3syn3gen5debugNtNtBa_4item10ItemStaticNtNtCs9f3LFPSIp77_4core3fmt5Debug3fmt, symObjAddr: 0x21EA4, symBinAddr: 0x4241C, symSize: 0x4C }
  - { offset: 0x977E6, size: 0x8, addend: 0x0, symName: __RNvXs2u_NtNtCsATtFUPiRFW_3syn3gen5debugNtNtBa_4item10ItemStructNtNtCs9f3LFPSIp77_4core3fmt5Debug3fmt, symObjAddr: 0x220E4, symBinAddr: 0x4265C, symSize: 0x4C }
  - { offset: 0x97829, size: 0x8, addend: 0x0, symName: __RNvXs2w_NtNtCsATtFUPiRFW_3syn3gen5debugNtNtBa_4item9ItemTraitNtNtCs9f3LFPSIp77_4core3fmt5Debug3fmt, symObjAddr: 0x222AC, symBinAddr: 0x42824, symSize: 0x4C }
  - { offset: 0x9786C, size: 0x8, addend: 0x0, symName: __RNvXs2y_NtNtCsATtFUPiRFW_3syn3gen5debugNtNtBa_4item14ItemTraitAliasNtNtCs9f3LFPSIp77_4core3fmt5Debug3fmt, symObjAddr: 0x2252C, symBinAddr: 0x42AA4, symSize: 0x4C }
  - { offset: 0x978AF, size: 0x8, addend: 0x0, symName: __RNvXs2A_NtNtCsATtFUPiRFW_3syn3gen5debugNtNtBa_4item8ItemTypeNtNtCs9f3LFPSIp77_4core3fmt5Debug3fmt, symObjAddr: 0x2271C, symBinAddr: 0x42C94, symSize: 0x4C }
  - { offset: 0x978F2, size: 0x8, addend: 0x0, symName: __RNvXs2C_NtNtCsATtFUPiRFW_3syn3gen5debugNtNtBa_4item9ItemUnionNtNtCs9f3LFPSIp77_4core3fmt5Debug3fmt, symObjAddr: 0x2290C, symBinAddr: 0x42E84, symSize: 0x4C }
  - { offset: 0x97935, size: 0x8, addend: 0x0, symName: __RNvXs2E_NtNtCsATtFUPiRFW_3syn3gen5debugNtNtBa_4item7ItemUseNtNtCs9f3LFPSIp77_4core3fmt5Debug3fmt, symObjAddr: 0x22AAC, symBinAddr: 0x43024, symSize: 0x4C }
  - { offset: 0x97978, size: 0x8, addend: 0x0, symName: __RNvXs3v_NtNtCsATtFUPiRFW_3syn3gen5debugNtNtBa_4item8ReceiverNtNtCs9f3LFPSIp77_4core3fmt5Debug3fmt, symObjAddr: 0x22C4C, symBinAddr: 0x431C4, symSize: 0x150 }
  - { offset: 0x979D9, size: 0x8, addend: 0x0, symName: __RNvXs3x_NtNtCsATtFUPiRFW_3syn3gen5debugNtNtBa_4item9SignatureNtNtCs9f3LFPSIp77_4core3fmt5Debug3fmt, symObjAddr: 0x22D9C, symBinAddr: 0x43314, symSize: 0x20C }
  - { offset: 0x97A3A, size: 0x8, addend: 0x0, symName: __RNvXs3y_NtNtCsATtFUPiRFW_3syn3gen5debugNtNtBa_4item16StaticMutabilityNtNtCs9f3LFPSIp77_4core3fmt5Debug3fmt, symObjAddr: 0x22FA8, symBinAddr: 0x43520, symSize: 0x148 }
  - { offset: 0x97AD6, size: 0x8, addend: 0x0, symName: __RNvXs3E_NtNtCsATtFUPiRFW_3syn3gen5debugNtNtBa_4item9TraitItemNtNtCs9f3LFPSIp77_4core3fmt5Debug3fmt, symObjAddr: 0x230F0, symBinAddr: 0x43668, symSize: 0x268 }
  - { offset: 0x97BE2, size: 0x8, addend: 0x0, symName: __RNvXs3F_NtNtCsATtFUPiRFW_3syn3gen5debugNtNtBa_4item14TraitItemConstNtNtCs9f3LFPSIp77_4core3fmt5Debug3fmt, symObjAddr: 0x23358, symBinAddr: 0x438D0, symSize: 0x4C }
  - { offset: 0x97C25, size: 0x8, addend: 0x0, symName: __RNvXs3H_NtNtCsATtFUPiRFW_3syn3gen5debugNtNtBa_4item11TraitItemFnNtNtCs9f3LFPSIp77_4core3fmt5Debug3fmt, symObjAddr: 0x23548, symBinAddr: 0x43AC0, symSize: 0x4C }
  - { offset: 0x97C68, size: 0x8, addend: 0x0, symName: __RNvXs3J_NtNtCsATtFUPiRFW_3syn3gen5debugNtNtBa_4item14TraitItemMacroNtNtCs9f3LFPSIp77_4core3fmt5Debug3fmt, symObjAddr: 0x23698, symBinAddr: 0x43C10, symSize: 0x4C }
  - { offset: 0x97CAB, size: 0x8, addend: 0x0, symName: __RNvXs3L_NtNtCsATtFUPiRFW_3syn3gen5debugNtNtBa_4item13TraitItemTypeNtNtCs9f3LFPSIp77_4core3fmt5Debug3fmt, symObjAddr: 0x237C0, symBinAddr: 0x43D38, symSize: 0x4C }
  - { offset: 0x97CEE, size: 0x8, addend: 0x0, symName: __RNvXs4j_NtNtCsATtFUPiRFW_3syn3gen5debugNtNtBa_4item7UseGlobNtNtCs9f3LFPSIp77_4core3fmt5Debug3fmt, symObjAddr: 0x239B0, symBinAddr: 0x43F28, symSize: 0x88 }
  - { offset: 0x97D4F, size: 0x8, addend: 0x0, symName: __RNvXs4k_NtNtCsATtFUPiRFW_3syn3gen5debugNtNtBa_4item8UseGroupNtNtCs9f3LFPSIp77_4core3fmt5Debug3fmt, symObjAddr: 0x23A38, symBinAddr: 0x43FB0, symSize: 0xB0 }
  - { offset: 0x97DB0, size: 0x8, addend: 0x0, symName: __RNvXs4l_NtNtCsATtFUPiRFW_3syn3gen5debugNtNtBa_4item7UseNameNtNtCs9f3LFPSIp77_4core3fmt5Debug3fmt, symObjAddr: 0x23AE8, symBinAddr: 0x44060, symSize: 0x88 }
  - { offset: 0x97E11, size: 0x8, addend: 0x0, symName: __RNvXs4m_NtNtCsATtFUPiRFW_3syn3gen5debugNtNtBa_4item7UsePathNtNtCs9f3LFPSIp77_4core3fmt5Debug3fmt, symObjAddr: 0x23B70, symBinAddr: 0x440E8, symSize: 0xD8 }
  - { offset: 0x97E72, size: 0x8, addend: 0x0, symName: __RNvXs4n_NtNtCsATtFUPiRFW_3syn3gen5debugNtNtBa_4item9UseRenameNtNtCs9f3LFPSIp77_4core3fmt5Debug3fmt, symObjAddr: 0x23C48, symBinAddr: 0x441C0, symSize: 0xD8 }
  - { offset: 0x97ED3, size: 0x8, addend: 0x0, symName: __RNvXs4o_NtNtCsATtFUPiRFW_3syn3gen5debugNtNtBa_4item7UseTreeNtNtCs9f3LFPSIp77_4core3fmt5Debug3fmt, symObjAddr: 0x23D20, symBinAddr: 0x44298, symSize: 0x310 }
  - { offset: 0x9805E, size: 0x8, addend: 0x0, symName: __RNvXs4p_NtNtCsATtFUPiRFW_3syn3gen5debugNtNtBa_4item8VariadicNtNtCs9f3LFPSIp77_4core3fmt5Debug3fmt, symObjAddr: 0x24030, symBinAddr: 0x445A8, symSize: 0x100 }
  - { offset: 0x980C5, size: 0x8, addend: 0x0, symName: __RNvXs2b_NtNtCsATtFUPiRFW_3syn3gen2eqNtNtBa_4item5FnArgNtNtCs9f3LFPSIp77_4core3cmp9PartialEq2eq, symObjAddr: 0x24130, symBinAddr: 0x446A8, symSize: 0x170 }
  - { offset: 0x98164, size: 0x8, addend: 0x0, symName: __RNvXs2d_NtNtCsATtFUPiRFW_3syn3gen2eqNtNtBa_4item11ForeignItemNtNtCs9f3LFPSIp77_4core3cmp9PartialEq2eq, symObjAddr: 0x242A0, symBinAddr: 0x44818, symSize: 0x368 }
  - { offset: 0x9828F, size: 0x8, addend: 0x0, symName: __RNvXs2f_NtNtCsATtFUPiRFW_3syn3gen2eqNtNtBa_4item13ForeignItemFnNtNtCs9f3LFPSIp77_4core3cmp9PartialEq2eq, symObjAddr: 0x24608, symBinAddr: 0x44B80, symSize: 0xCC }
  - { offset: 0x982D2, size: 0x8, addend: 0x0, symName: __RNvXs2h_NtNtCsATtFUPiRFW_3syn3gen2eqNtNtBa_4item16ForeignItemMacroNtNtCs9f3LFPSIp77_4core3cmp9PartialEq2eq, symObjAddr: 0x246D4, symBinAddr: 0x44C4C, symSize: 0xCC }
  - { offset: 0x98315, size: 0x8, addend: 0x0, symName: __RNvXs2j_NtNtCsATtFUPiRFW_3syn3gen2eqNtNtBa_4item17ForeignItemStaticNtNtCs9f3LFPSIp77_4core3cmp9PartialEq2eq, symObjAddr: 0x247A0, symBinAddr: 0x44D18, symSize: 0x134 }
  - { offset: 0x98358, size: 0x8, addend: 0x0, symName: __RNvXs2l_NtNtCsATtFUPiRFW_3syn3gen2eqNtNtBa_4item15ForeignItemTypeNtNtCs9f3LFPSIp77_4core3cmp9PartialEq2eq, symObjAddr: 0x248D4, symBinAddr: 0x44E4C, symSize: 0x100 }
  - { offset: 0x9839B, size: 0x8, addend: 0x0, symName: __RNvXs2t_NtNtCsATtFUPiRFW_3syn3gen2eqNtNtBa_4item8ImplItemNtNtCs9f3LFPSIp77_4core3cmp9PartialEq2eq, symObjAddr: 0x249D4, symBinAddr: 0x44F4C, symSize: 0x368 }
  - { offset: 0x984C6, size: 0x8, addend: 0x0, symName: __RNvXs2v_NtNtCsATtFUPiRFW_3syn3gen2eqNtNtBa_4item13ImplItemConstNtNtCs9f3LFPSIp77_4core3cmp9PartialEq2eq, symObjAddr: 0x24D3C, symBinAddr: 0x452B4, symSize: 0x19C }
  - { offset: 0x98509, size: 0x8, addend: 0x0, symName: __RNvXs2x_NtNtCsATtFUPiRFW_3syn3gen2eqNtNtBa_4item10ImplItemFnNtNtCs9f3LFPSIp77_4core3cmp9PartialEq2eq, symObjAddr: 0x24ED8, symBinAddr: 0x45450, symSize: 0x134 }
  - { offset: 0x9854C, size: 0x8, addend: 0x0, symName: __RNvXs2z_NtNtCsATtFUPiRFW_3syn3gen2eqNtNtBa_4item13ImplItemMacroNtNtCs9f3LFPSIp77_4core3cmp9PartialEq2eq, symObjAddr: 0x2500C, symBinAddr: 0x45584, symSize: 0xCC }
  - { offset: 0x9858F, size: 0x8, addend: 0x0, symName: __RNvXs2B_NtNtCsATtFUPiRFW_3syn3gen2eqNtNtBa_4item12ImplItemTypeNtNtCs9f3LFPSIp77_4core3cmp9PartialEq2eq, symObjAddr: 0x250D8, symBinAddr: 0x45650, symSize: 0x168 }
  - { offset: 0x985D2, size: 0x8, addend: 0x0, symName: __RNvXs2D_NtNtCsATtFUPiRFW_3syn3gen2eqNtNtBa_4item15ImplRestrictionNtNtCs9f3LFPSIp77_4core3cmp9PartialEq2eq, symObjAddr: 0x25240, symBinAddr: 0x457B8, symSize: 0x10 }
  - { offset: 0x98615, size: 0x8, addend: 0x0, symName: __RNvXs2F_NtNtCsATtFUPiRFW_3syn3gen2eqNtNtBa_4item4ItemNtNtCs9f3LFPSIp77_4core3cmp9PartialEq2eq, symObjAddr: 0x25250, symBinAddr: 0x457C8, symSize: 0x9B0 }
  - { offset: 0x98954, size: 0x8, addend: 0x0, symName: __RNvXs2H_NtNtCsATtFUPiRFW_3syn3gen2eqNtNtBa_4item9ItemConstNtNtCs9f3LFPSIp77_4core3cmp9PartialEq2eq, symObjAddr: 0x25C00, symBinAddr: 0x46178, symSize: 0x168 }
  - { offset: 0x98997, size: 0x8, addend: 0x0, symName: __RNvXs2J_NtNtCsATtFUPiRFW_3syn3gen2eqNtNtBa_4item8ItemEnumNtNtCs9f3LFPSIp77_4core3cmp9PartialEq2eq, symObjAddr: 0x25D68, symBinAddr: 0x462E0, symSize: 0x134 }
  - { offset: 0x989DA, size: 0x8, addend: 0x0, symName: __RNvXs2L_NtNtCsATtFUPiRFW_3syn3gen2eqNtNtBa_4item15ItemExternCrateNtNtCs9f3LFPSIp77_4core3cmp9PartialEq2eq, symObjAddr: 0x25E9C, symBinAddr: 0x46414, symSize: 0x100 }
  - { offset: 0x98A1D, size: 0x8, addend: 0x0, symName: __RNvXs2N_NtNtCsATtFUPiRFW_3syn3gen2eqNtNtBa_4item6ItemFnNtNtCs9f3LFPSIp77_4core3cmp9PartialEq2eq, symObjAddr: 0x25F9C, symBinAddr: 0x46514, symSize: 0x100 }
  - { offset: 0x98A60, size: 0x8, addend: 0x0, symName: __RNvXs2P_NtNtCsATtFUPiRFW_3syn3gen2eqNtNtBa_4item14ItemForeignModNtNtCs9f3LFPSIp77_4core3cmp9PartialEq2eq, symObjAddr: 0x2609C, symBinAddr: 0x46614, symSize: 0x100 }
  - { offset: 0x98AA3, size: 0x8, addend: 0x0, symName: __RNvXs2R_NtNtCsATtFUPiRFW_3syn3gen2eqNtNtBa_4item8ItemImplNtNtCs9f3LFPSIp77_4core3cmp9PartialEq2eq, symObjAddr: 0x2619C, symBinAddr: 0x46714, symSize: 0x19C }
  - { offset: 0x98AE6, size: 0x8, addend: 0x0, symName: __RNvXs2T_NtNtCsATtFUPiRFW_3syn3gen2eqNtNtBa_4item9ItemMacroNtNtCs9f3LFPSIp77_4core3cmp9PartialEq2eq, symObjAddr: 0x26338, symBinAddr: 0x468B0, symSize: 0x100 }
  - { offset: 0x98B29, size: 0x8, addend: 0x0, symName: __RNvXs2V_NtNtCsATtFUPiRFW_3syn3gen2eqNtNtBa_4item7ItemModNtNtCs9f3LFPSIp77_4core3cmp9PartialEq2eq, symObjAddr: 0x26438, symBinAddr: 0x469B0, symSize: 0x168 }
  - { offset: 0x98B6C, size: 0x8, addend: 0x0, symName: __RNvXs2X_NtNtCsATtFUPiRFW_3syn3gen2eqNtNtBa_4item10ItemStaticNtNtCs9f3LFPSIp77_4core3cmp9PartialEq2eq, symObjAddr: 0x265A0, symBinAddr: 0x46B18, symSize: 0x168 }
  - { offset: 0x98BAF, size: 0x8, addend: 0x0, symName: __RNvXs2Z_NtNtCsATtFUPiRFW_3syn3gen2eqNtNtBa_4item10ItemStructNtNtCs9f3LFPSIp77_4core3cmp9PartialEq2eq, symObjAddr: 0x26708, symBinAddr: 0x46C80, symSize: 0x168 }
  - { offset: 0x98BF2, size: 0x8, addend: 0x0, symName: __RNvXs31_NtNtCsATtFUPiRFW_3syn3gen2eqNtNtBa_4item9ItemTraitNtNtCs9f3LFPSIp77_4core3cmp9PartialEq2eq, symObjAddr: 0x26870, symBinAddr: 0x46DE8, symSize: 0x238 }
  - { offset: 0x98C35, size: 0x8, addend: 0x0, symName: __RNvXs33_NtNtCsATtFUPiRFW_3syn3gen2eqNtNtBa_4item14ItemTraitAliasNtNtCs9f3LFPSIp77_4core3cmp9PartialEq2eq, symObjAddr: 0x26AA8, symBinAddr: 0x47020, symSize: 0x134 }
  - { offset: 0x98C78, size: 0x8, addend: 0x0, symName: __RNvXs35_NtNtCsATtFUPiRFW_3syn3gen2eqNtNtBa_4item8ItemTypeNtNtCs9f3LFPSIp77_4core3cmp9PartialEq2eq, symObjAddr: 0x26BDC, symBinAddr: 0x47154, symSize: 0x134 }
  - { offset: 0x98CBB, size: 0x8, addend: 0x0, symName: __RNvXs37_NtNtCsATtFUPiRFW_3syn3gen2eqNtNtBa_4item9ItemUnionNtNtCs9f3LFPSIp77_4core3cmp9PartialEq2eq, symObjAddr: 0x26D10, symBinAddr: 0x47288, symSize: 0x134 }
  - { offset: 0x98CFE, size: 0x8, addend: 0x0, symName: __RNvXs39_NtNtCsATtFUPiRFW_3syn3gen2eqNtNtBa_4item7ItemUseNtNtCs9f3LFPSIp77_4core3cmp9PartialEq2eq, symObjAddr: 0x26E44, symBinAddr: 0x473BC, symSize: 0x100 }
  - { offset: 0x98D41, size: 0x8, addend: 0x0, symName: __RNvXs4m_NtNtCsATtFUPiRFW_3syn3gen2eqNtNtBa_4item8ReceiverNtNtCs9f3LFPSIp77_4core3cmp9PartialEq2eq, symObjAddr: 0x26F44, symBinAddr: 0x474BC, symSize: 0x134 }
  - { offset: 0x98D84, size: 0x8, addend: 0x0, symName: __RNvXs4q_NtNtCsATtFUPiRFW_3syn3gen2eqNtNtBa_4item9SignatureNtNtCs9f3LFPSIp77_4core3cmp9PartialEq2eq, symObjAddr: 0x27078, symBinAddr: 0x475F0, symSize: 0x204 }
  - { offset: 0x98DC7, size: 0x8, addend: 0x0, symName: __RNvXs4s_NtNtCsATtFUPiRFW_3syn3gen2eqNtNtBa_4item16StaticMutabilityNtNtCs9f3LFPSIp77_4core3cmp9PartialEq2eq, symObjAddr: 0x2727C, symBinAddr: 0x477F4, symSize: 0xFC }
  - { offset: 0x98E0A, size: 0x8, addend: 0x0, symName: __RNvXs4C_NtNtCsATtFUPiRFW_3syn3gen2eqNtNtBa_4item9TraitItemNtNtCs9f3LFPSIp77_4core3cmp9PartialEq2eq, symObjAddr: 0x27378, symBinAddr: 0x478F0, symSize: 0x368 }
  - { offset: 0x98F35, size: 0x8, addend: 0x0, symName: __RNvXs4E_NtNtCsATtFUPiRFW_3syn3gen2eqNtNtBa_4item14TraitItemConstNtNtCs9f3LFPSIp77_4core3cmp9PartialEq2eq, symObjAddr: 0x276E0, symBinAddr: 0x47C58, symSize: 0x134 }
  - { offset: 0x98F78, size: 0x8, addend: 0x0, symName: __RNvXs4G_NtNtCsATtFUPiRFW_3syn3gen2eqNtNtBa_4item11TraitItemFnNtNtCs9f3LFPSIp77_4core3cmp9PartialEq2eq, symObjAddr: 0x27814, symBinAddr: 0x47D8C, symSize: 0x100 }
  - { offset: 0x98FBB, size: 0x8, addend: 0x0, symName: __RNvXs4I_NtNtCsATtFUPiRFW_3syn3gen2eqNtNtBa_4item14TraitItemMacroNtNtCs9f3LFPSIp77_4core3cmp9PartialEq2eq, symObjAddr: 0x27914, symBinAddr: 0x47E8C, symSize: 0xCC }
  - { offset: 0x98FFE, size: 0x8, addend: 0x0, symName: __RNvXs4K_NtNtCsATtFUPiRFW_3syn3gen2eqNtNtBa_4item13TraitItemTypeNtNtCs9f3LFPSIp77_4core3cmp9PartialEq2eq, symObjAddr: 0x279E0, symBinAddr: 0x47F58, symSize: 0x168 }
  - { offset: 0x99041, size: 0x8, addend: 0x0, symName: __RNvXs5m_NtNtCsATtFUPiRFW_3syn3gen2eqNtNtBa_4item7UseGlobNtNtCs9f3LFPSIp77_4core3cmp9PartialEq2eq, symObjAddr: 0x27B48, symBinAddr: 0x480C0, symSize: 0x2C }
  - { offset: 0x99084, size: 0x8, addend: 0x0, symName: __RNvXs5o_NtNtCsATtFUPiRFW_3syn3gen2eqNtNtBa_4item8UseGroupNtNtCs9f3LFPSIp77_4core3cmp9PartialEq2eq, symObjAddr: 0x27B74, symBinAddr: 0x480EC, symSize: 0x3C }
  - { offset: 0x990C7, size: 0x8, addend: 0x0, symName: __RNvXs5q_NtNtCsATtFUPiRFW_3syn3gen2eqNtNtBa_4item7UseNameNtNtCs9f3LFPSIp77_4core3cmp9PartialEq2eq, symObjAddr: 0x27BB0, symBinAddr: 0x48128, symSize: 0x3C }
  - { offset: 0x9910A, size: 0x8, addend: 0x0, symName: __RNvXs5s_NtNtCsATtFUPiRFW_3syn3gen2eqNtNtBa_4item7UsePathNtNtCs9f3LFPSIp77_4core3cmp9PartialEq2eq, symObjAddr: 0x27BEC, symBinAddr: 0x48164, symSize: 0x8C }
  - { offset: 0x9914D, size: 0x8, addend: 0x0, symName: __RNvXs5u_NtNtCsATtFUPiRFW_3syn3gen2eqNtNtBa_4item9UseRenameNtNtCs9f3LFPSIp77_4core3cmp9PartialEq2eq, symObjAddr: 0x27C78, symBinAddr: 0x481F0, symSize: 0x84 }
  - { offset: 0x99190, size: 0x8, addend: 0x0, symName: __RNvXs5w_NtNtCsATtFUPiRFW_3syn3gen2eqNtNtBa_4item7UseTreeNtNtCs9f3LFPSIp77_4core3cmp9PartialEq2eq, symObjAddr: 0x27CFC, symBinAddr: 0x48274, symSize: 0x300 }
  - { offset: 0x992BA, size: 0x8, addend: 0x0, symName: __RNvXs5y_NtNtCsATtFUPiRFW_3syn3gen2eqNtNtBa_4item8VariadicNtNtCs9f3LFPSIp77_4core3cmp9PartialEq2eq, symObjAddr: 0x27FFC, symBinAddr: 0x48574, symSize: 0xCC }
  - { offset: 0x9A7EB, size: 0x8, addend: 0x0, symName: __RINvXNtNtCsdze8u8oDPro_5alloc5slice4hackNtNtCsATtFUPiRFW_3syn4item11ForeignItemNtB3_10ConvertVec6to_vecNtNtB7_5alloc6GlobalEBG_, symObjAddr: 0x0, symBinAddr: 0x20578, symSize: 0x2C0 }
  - { offset: 0x9AB3B, size: 0x8, addend: 0x0, symName: __RINvXNtNtCsdze8u8oDPro_5alloc5slice4hackNtNtCsATtFUPiRFW_3syn4item4ItemNtB3_10ConvertVec6to_vecNtNtB7_5alloc6GlobalEBG_, symObjAddr: 0x2C0, symBinAddr: 0x20838, symSize: 0x2C0 }
  - { offset: 0x9AE8B, size: 0x8, addend: 0x0, symName: __RINvXNtNtCsdze8u8oDPro_5alloc5slice4hackNtNtCsATtFUPiRFW_3syn4item8ImplItemNtB3_10ConvertVec6to_vecNtNtB7_5alloc6GlobalEBG_, symObjAddr: 0x580, symBinAddr: 0x20AF8, symSize: 0x2C0 }
  - { offset: 0x9B1DB, size: 0x8, addend: 0x0, symName: __RINvXNtNtCsdze8u8oDPro_5alloc5slice4hackNtNtCsATtFUPiRFW_3syn4item9TraitItemNtB3_10ConvertVec6to_vecNtNtB7_5alloc6GlobalEBG_, symObjAddr: 0x840, symBinAddr: 0x20DB8, symSize: 0x2C0 }
  - { offset: 0x9B52B, size: 0x8, addend: 0x0, symName: __RINvXNtNtCsdze8u8oDPro_5alloc5slice4hackTNtNtCsATtFUPiRFW_3syn4item5FnArgNtNtBH_5token5CommaENtB3_10ConvertVec6to_vecNtNtB7_5alloc6GlobalEBH_, symObjAddr: 0xB00, symBinAddr: 0x21078, symSize: 0x2BC }
  - { offset: 0x9B87B, size: 0x8, addend: 0x0, symName: __RINvXNtNtCsdze8u8oDPro_5alloc5slice4hackTNtNtCsATtFUPiRFW_3syn4item7UseTreeNtNtBH_5token5CommaENtB3_10ConvertVec6to_vecNtNtB7_5alloc6GlobalEBH_, symObjAddr: 0xDBC, symBinAddr: 0x21334, symSize: 0x2BC }
  - { offset: 0x9F3FF, size: 0x8, addend: 0x0, symName: __RNvXsP_NtCs9f3LFPSIp77_4core3fmtRNtNtCsATtFUPiRFW_3syn4item11ForeignItemNtB5_5Debug3fmtBz_, symObjAddr: 0x2370, symBinAddr: 0x228E8, symSize: 0x30 }
  - { offset: 0x9F445, size: 0x8, addend: 0x0, symName: __RNvXsP_NtCs9f3LFPSIp77_4core3fmtRNtNtCsATtFUPiRFW_3syn4item15ImplRestrictionNtB5_5Debug3fmtBz_, symObjAddr: 0x23A0, symBinAddr: 0x22918, symSize: 0x30 }
  - { offset: 0x9F48B, size: 0x8, addend: 0x0, symName: __RNvXsP_NtCs9f3LFPSIp77_4core3fmtRNtNtCsATtFUPiRFW_3syn4item4ItemNtB5_5Debug3fmtBz_, symObjAddr: 0x23D0, symBinAddr: 0x22948, symSize: 0x30 }
  - { offset: 0x9F4D1, size: 0x8, addend: 0x0, symName: __RNvXsP_NtCs9f3LFPSIp77_4core3fmtRNtNtCsATtFUPiRFW_3syn4item8ImplItemNtB5_5Debug3fmtBz_, symObjAddr: 0x2400, symBinAddr: 0x22978, symSize: 0x30 }
  - { offset: 0x9F517, size: 0x8, addend: 0x0, symName: __RNvXsP_NtCs9f3LFPSIp77_4core3fmtRNtNtCsATtFUPiRFW_3syn4item8VariadicNtB5_5Debug3fmtBz_, symObjAddr: 0x2430, symBinAddr: 0x229A8, symSize: 0x30 }
  - { offset: 0x9F55D, size: 0x8, addend: 0x0, symName: __RNvXsP_NtCs9f3LFPSIp77_4core3fmtRNtNtCsATtFUPiRFW_3syn4item9TraitItemNtB5_5Debug3fmtBz_, symObjAddr: 0x2460, symBinAddr: 0x229D8, symSize: 0x30 }
  - { offset: 0x9F5A9, size: 0x8, addend: 0x0, symName: __RNvXso_NtCs9f3LFPSIp77_4core3fmtSNtNtCsATtFUPiRFW_3syn4item11ForeignItemNtB5_5Debug3fmtBz_, symObjAddr: 0x2490, symBinAddr: 0x22A08, symSize: 0x90 }
  - { offset: 0x9F6E9, size: 0x8, addend: 0x0, symName: __RNvXso_NtCs9f3LFPSIp77_4core3fmtSNtNtCsATtFUPiRFW_3syn4item4ItemNtB5_5Debug3fmtBz_, symObjAddr: 0x2520, symBinAddr: 0x22A98, symSize: 0x90 }
  - { offset: 0x9F829, size: 0x8, addend: 0x0, symName: __RNvXso_NtCs9f3LFPSIp77_4core3fmtSNtNtCsATtFUPiRFW_3syn4item8ImplItemNtB5_5Debug3fmtBz_, symObjAddr: 0x25B0, symBinAddr: 0x22B28, symSize: 0x90 }
  - { offset: 0x9F969, size: 0x8, addend: 0x0, symName: __RNvXso_NtCs9f3LFPSIp77_4core3fmtSNtNtCsATtFUPiRFW_3syn4item9TraitItemNtB5_5Debug3fmtBz_, symObjAddr: 0x2640, symBinAddr: 0x22BB8, symSize: 0x90 }
  - { offset: 0x9FE62, size: 0x8, addend: 0x0, symName: __RNvMNtCs9f3LFPSIp77_4core5sliceSTNtNtCsATtFUPiRFW_3syn4item5FnArgNtNtBz_5token5CommaE4iterBz_, symObjAddr: 0x1078, symBinAddr: 0x215F0, symSize: 0x28 }
  - { offset: 0x9FE99, size: 0x8, addend: 0x0, symName: __RNvMNtCs9f3LFPSIp77_4core5sliceSTNtNtCsATtFUPiRFW_3syn4item7UseTreeNtNtBz_5token5CommaE4iterBz_, symObjAddr: 0x10A0, symBinAddr: 0x21618, symSize: 0x28 }
  - { offset: 0x9FF77, size: 0x8, addend: 0x0, symName: __RNvXs2_NtNtCs9f3LFPSIp77_4core5slice3cmpSNtNtCsATtFUPiRFW_3syn4item11ForeignItemINtB5_14SlicePartialEqBD_E5equalBH_, symObjAddr: 0x12D8, symBinAddr: 0x21850, symSize: 0x17C }
  - { offset: 0xA0057, size: 0x8, addend: 0x0, symName: __RNvXs2_NtNtCs9f3LFPSIp77_4core5slice3cmpSNtNtCsATtFUPiRFW_3syn4item4ItemINtB5_14SlicePartialEqBD_E5equalBH_, symObjAddr: 0x1454, symBinAddr: 0x219CC, symSize: 0x17C }
  - { offset: 0xA0137, size: 0x8, addend: 0x0, symName: __RNvXs2_NtNtCs9f3LFPSIp77_4core5slice3cmpSNtNtCsATtFUPiRFW_3syn4item8ImplItemINtB5_14SlicePartialEqBD_E5equalBH_, symObjAddr: 0x15D0, symBinAddr: 0x21B48, symSize: 0x17C }
  - { offset: 0xA0217, size: 0x8, addend: 0x0, symName: __RNvXs2_NtNtCs9f3LFPSIp77_4core5slice3cmpSNtNtCsATtFUPiRFW_3syn4item9TraitItemINtB5_14SlicePartialEqBD_E5equalBH_, symObjAddr: 0x174C, symBinAddr: 0x21CC4, symSize: 0x17C }
  - { offset: 0xA02F7, size: 0x8, addend: 0x0, symName: __RNvXs2_NtNtCs9f3LFPSIp77_4core5slice3cmpSTNtNtCsATtFUPiRFW_3syn4item5FnArgNtNtBI_5token5CommaEINtB5_14SlicePartialEqBD_E5equalBI_, symObjAddr: 0x18C8, symBinAddr: 0x21E40, symSize: 0x17C }
  - { offset: 0xA03D7, size: 0x8, addend: 0x0, symName: __RNvXs2_NtNtCs9f3LFPSIp77_4core5slice3cmpSTNtNtCsATtFUPiRFW_3syn4item7UseTreeNtNtBI_5token5CommaEINtB5_14SlicePartialEqBD_E5equalBI_, symObjAddr: 0x1A44, symBinAddr: 0x21FBC, symSize: 0x17C }
  - { offset: 0xA11AF, size: 0x8, addend: 0x0, symName: __RNvXNtNtCs9f3LFPSIp77_4core5clone6uninitNtNtCsATtFUPiRFW_3syn4item5FnArgNtB2_8CopySpec9clone_oneBG_, symObjAddr: 0x1248, symBinAddr: 0x217C0, symSize: 0x48 }
  - { offset: 0xA1213, size: 0x8, addend: 0x0, symName: __RNvXNtNtCs9f3LFPSIp77_4core5clone6uninitNtNtCsATtFUPiRFW_3syn4item7UseTreeNtB2_8CopySpec9clone_oneBG_, symObjAddr: 0x1290, symBinAddr: 0x21808, symSize: 0x48 }
  - { offset: 0xA127E, size: 0x8, addend: 0x0, symName: __RNvYNtNtCsATtFUPiRFW_3syn4item10ImplItemFnNtNtCs9f3LFPSIp77_4core5clone5Clone10clone_fromB6_, symObjAddr: 0x2800, symBinAddr: 0x22D78, symSize: 0x8C }
  - { offset: 0xA12BD, size: 0x8, addend: 0x0, symName: __RNvYNtNtCsATtFUPiRFW_3syn4item10ItemStaticNtNtCs9f3LFPSIp77_4core5clone5Clone10clone_fromB6_, symObjAddr: 0x29BC, symBinAddr: 0x22F34, symSize: 0x84 }
  - { offset: 0xA12FC, size: 0x8, addend: 0x0, symName: __RNvYNtNtCsATtFUPiRFW_3syn4item10ItemStructNtNtCs9f3LFPSIp77_4core5clone5Clone10clone_fromB6_, symObjAddr: 0x2B70, symBinAddr: 0x230E8, symSize: 0x8C }
  - { offset: 0xA133B, size: 0x8, addend: 0x0, symName: __RNvYNtNtCsATtFUPiRFW_3syn4item11ForeignItemNtNtCs9f3LFPSIp77_4core5clone5Clone10clone_fromB6_, symObjAddr: 0x2D2C, symBinAddr: 0x232A4, symSize: 0x8C }
  - { offset: 0xA137A, size: 0x8, addend: 0x0, symName: __RNvYNtNtCsATtFUPiRFW_3syn4item11TraitItemFnNtNtCs9f3LFPSIp77_4core5clone5Clone10clone_fromB6_, symObjAddr: 0x2EE8, symBinAddr: 0x23460, symSize: 0x8C }
  - { offset: 0xA13B9, size: 0x8, addend: 0x0, symName: __RNvYNtNtCsATtFUPiRFW_3syn4item12ImplItemTypeNtNtCs9f3LFPSIp77_4core5clone5Clone10clone_fromB6_, symObjAddr: 0x30A4, symBinAddr: 0x2361C, symSize: 0x8C }
  - { offset: 0xA13F8, size: 0x8, addend: 0x0, symName: __RNvYNtNtCsATtFUPiRFW_3syn4item13ForeignItemFnNtNtCs9f3LFPSIp77_4core5clone5Clone10clone_fromB6_, symObjAddr: 0x3260, symBinAddr: 0x237D8, symSize: 0x8C }
  - { offset: 0xA1437, size: 0x8, addend: 0x0, symName: __RNvYNtNtCsATtFUPiRFW_3syn4item13ImplItemConstNtNtCs9f3LFPSIp77_4core5clone5Clone10clone_fromB6_, symObjAddr: 0x341C, symBinAddr: 0x23994, symSize: 0x8C }
  - { offset: 0xA1476, size: 0x8, addend: 0x0, symName: __RNvYNtNtCsATtFUPiRFW_3syn4item13ImplItemMacroNtNtCs9f3LFPSIp77_4core5clone5Clone10clone_fromB6_, symObjAddr: 0x35D8, symBinAddr: 0x23B50, symSize: 0x84 }
  - { offset: 0xA14B5, size: 0x8, addend: 0x0, symName: __RNvYNtNtCsATtFUPiRFW_3syn4item13TraitItemTypeNtNtCs9f3LFPSIp77_4core5clone5Clone10clone_fromB6_, symObjAddr: 0x378C, symBinAddr: 0x23D04, symSize: 0x8C }
  - { offset: 0xA14F4, size: 0x8, addend: 0x0, symName: __RNvYNtNtCsATtFUPiRFW_3syn4item14ItemForeignModNtNtCs9f3LFPSIp77_4core5clone5Clone10clone_fromB6_, symObjAddr: 0x3948, symBinAddr: 0x23EC0, symSize: 0x84 }
  - { offset: 0xA1533, size: 0x8, addend: 0x0, symName: __RNvYNtNtCsATtFUPiRFW_3syn4item14ItemTraitAliasNtNtCs9f3LFPSIp77_4core5clone5Clone10clone_fromB6_, symObjAddr: 0x3AFC, symBinAddr: 0x24074, symSize: 0x8C }
  - { offset: 0xA1572, size: 0x8, addend: 0x0, symName: __RNvYNtNtCsATtFUPiRFW_3syn4item14TraitItemConstNtNtCs9f3LFPSIp77_4core5clone5Clone10clone_fromB6_, symObjAddr: 0x3CB8, symBinAddr: 0x24230, symSize: 0x8C }
  - { offset: 0xA15B1, size: 0x8, addend: 0x0, symName: __RNvYNtNtCsATtFUPiRFW_3syn4item14TraitItemMacroNtNtCs9f3LFPSIp77_4core5clone5Clone10clone_fromB6_, symObjAddr: 0x3E74, symBinAddr: 0x243EC, symSize: 0x84 }
  - { offset: 0xA15F0, size: 0x8, addend: 0x0, symName: __RNvYNtNtCsATtFUPiRFW_3syn4item15ForeignItemTypeNtNtCs9f3LFPSIp77_4core5clone5Clone10clone_fromB6_, symObjAddr: 0x4028, symBinAddr: 0x245A0, symSize: 0x84 }
  - { offset: 0xA162F, size: 0x8, addend: 0x0, symName: __RNvYNtNtCsATtFUPiRFW_3syn4item15ImplRestrictionNtNtCs9f3LFPSIp77_4core5clone5Clone10clone_fromB6_, symObjAddr: 0x40EC, symBinAddr: 0x24664, symSize: 0x34 }
  - { offset: 0xA166E, size: 0x8, addend: 0x0, symName: __RNvYNtNtCsATtFUPiRFW_3syn4item15ItemExternCrateNtNtCs9f3LFPSIp77_4core5clone5Clone10clone_fromB6_, symObjAddr: 0x4250, symBinAddr: 0x247C8, symSize: 0x84 }
  - { offset: 0xA16AD, size: 0x8, addend: 0x0, symName: __RNvYNtNtCsATtFUPiRFW_3syn4item16ForeignItemMacroNtNtCs9f3LFPSIp77_4core5clone5Clone10clone_fromB6_, symObjAddr: 0x4404, symBinAddr: 0x2497C, symSize: 0x84 }
  - { offset: 0xA16EC, size: 0x8, addend: 0x0, symName: __RNvYNtNtCsATtFUPiRFW_3syn4item16StaticMutabilityNtNtCs9f3LFPSIp77_4core5clone5Clone10clone_fromB6_, symObjAddr: 0x45AC, symBinAddr: 0x24B24, symSize: 0x54 }
  - { offset: 0xA172B, size: 0x8, addend: 0x0, symName: __RNvYNtNtCsATtFUPiRFW_3syn4item17ForeignItemStaticNtNtCs9f3LFPSIp77_4core5clone5Clone10clone_fromB6_, symObjAddr: 0x4730, symBinAddr: 0x24CA8, symSize: 0x84 }
  - { offset: 0xA176A, size: 0x8, addend: 0x0, symName: __RNvYNtNtCsATtFUPiRFW_3syn4item4ItemNtNtCs9f3LFPSIp77_4core5clone5Clone10clone_fromB6_, symObjAddr: 0x48E4, symBinAddr: 0x24E5C, symSize: 0x8C }
  - { offset: 0xA17A9, size: 0x8, addend: 0x0, symName: __RNvYNtNtCsATtFUPiRFW_3syn4item5FnArgNtNtCs9f3LFPSIp77_4core5clone5Clone10clone_fromB6_, symObjAddr: 0x4AA0, symBinAddr: 0x25018, symSize: 0x84 }
  - { offset: 0xA17E8, size: 0x8, addend: 0x0, symName: __RNvYNtNtCsATtFUPiRFW_3syn4item6ItemFnNtNtCs9f3LFPSIp77_4core5clone5Clone10clone_fromB6_, symObjAddr: 0x4C54, symBinAddr: 0x251CC, symSize: 0x8C }
  - { offset: 0xA1827, size: 0x8, addend: 0x0, symName: __RNvYNtNtCsATtFUPiRFW_3syn4item7ItemModNtNtCs9f3LFPSIp77_4core5clone5Clone10clone_fromB6_, symObjAddr: 0x4E10, symBinAddr: 0x25388, symSize: 0x84 }
  - { offset: 0xA1866, size: 0x8, addend: 0x0, symName: __RNvYNtNtCsATtFUPiRFW_3syn4item7ItemUseNtNtCs9f3LFPSIp77_4core5clone5Clone10clone_fromB6_, symObjAddr: 0x4FC4, symBinAddr: 0x2553C, symSize: 0x84 }
  - { offset: 0xA18A5, size: 0x8, addend: 0x0, symName: __RNvYNtNtCsATtFUPiRFW_3syn4item7UseGlobNtNtCs9f3LFPSIp77_4core5clone5Clone10clone_fromB6_, symObjAddr: 0x516C, symBinAddr: 0x256E4, symSize: 0x50 }
  - { offset: 0xA18E4, size: 0x8, addend: 0x0, symName: __RNvYNtNtCsATtFUPiRFW_3syn4item7UseNameNtNtCs9f3LFPSIp77_4core5clone5Clone10clone_fromB6_, symObjAddr: 0x52EC, symBinAddr: 0x25864, symSize: 0x84 }
  - { offset: 0xA1923, size: 0x8, addend: 0x0, symName: __RNvYNtNtCsATtFUPiRFW_3syn4item7UsePathNtNtCs9f3LFPSIp77_4core5clone5Clone10clone_fromB6_, symObjAddr: 0x54A0, symBinAddr: 0x25A18, symSize: 0x84 }
  - { offset: 0xA1962, size: 0x8, addend: 0x0, symName: __RNvYNtNtCsATtFUPiRFW_3syn4item7UseTreeNtNtCs9f3LFPSIp77_4core5clone5Clone10clone_fromB6_, symObjAddr: 0x5654, symBinAddr: 0x25BCC, symSize: 0x84 }
  - { offset: 0xA19A1, size: 0x8, addend: 0x0, symName: __RNvYNtNtCsATtFUPiRFW_3syn4item8ImplItemNtNtCs9f3LFPSIp77_4core5clone5Clone10clone_fromB6_, symObjAddr: 0x5808, symBinAddr: 0x25D80, symSize: 0x8C }
  - { offset: 0xA19E0, size: 0x8, addend: 0x0, symName: __RNvYNtNtCsATtFUPiRFW_3syn4item8ItemEnumNtNtCs9f3LFPSIp77_4core5clone5Clone10clone_fromB6_, symObjAddr: 0x59C4, symBinAddr: 0x25F3C, symSize: 0x8C }
  - { offset: 0xA1A1F, size: 0x8, addend: 0x0, symName: __RNvYNtNtCsATtFUPiRFW_3syn4item8ItemImplNtNtCs9f3LFPSIp77_4core5clone5Clone10clone_fromB6_, symObjAddr: 0x5B80, symBinAddr: 0x260F8, symSize: 0x8C }
  - { offset: 0xA1A5E, size: 0x8, addend: 0x0, symName: __RNvYNtNtCsATtFUPiRFW_3syn4item8ItemTypeNtNtCs9f3LFPSIp77_4core5clone5Clone10clone_fromB6_, symObjAddr: 0x5D3C, symBinAddr: 0x262B4, symSize: 0x8C }
  - { offset: 0xA1A9D, size: 0x8, addend: 0x0, symName: __RNvYNtNtCsATtFUPiRFW_3syn4item8ReceiverNtNtCs9f3LFPSIp77_4core5clone5Clone10clone_fromB6_, symObjAddr: 0x5EF8, symBinAddr: 0x26470, symSize: 0x84 }
  - { offset: 0xA1ADC, size: 0x8, addend: 0x0, symName: __RNvYNtNtCsATtFUPiRFW_3syn4item8UseGroupNtNtCs9f3LFPSIp77_4core5clone5Clone10clone_fromB6_, symObjAddr: 0x60AC, symBinAddr: 0x26624, symSize: 0x84 }
  - { offset: 0xA1B1B, size: 0x8, addend: 0x0, symName: __RNvYNtNtCsATtFUPiRFW_3syn4item8VariadicNtNtCs9f3LFPSIp77_4core5clone5Clone10clone_fromB6_, symObjAddr: 0x6260, symBinAddr: 0x267D8, symSize: 0x84 }
  - { offset: 0xA1B5A, size: 0x8, addend: 0x0, symName: __RNvYNtNtCsATtFUPiRFW_3syn4item9ItemConstNtNtCs9f3LFPSIp77_4core5clone5Clone10clone_fromB6_, symObjAddr: 0x6414, symBinAddr: 0x2698C, symSize: 0x8C }
  - { offset: 0xA1B99, size: 0x8, addend: 0x0, symName: __RNvYNtNtCsATtFUPiRFW_3syn4item9ItemMacroNtNtCs9f3LFPSIp77_4core5clone5Clone10clone_fromB6_, symObjAddr: 0x65D0, symBinAddr: 0x26B48, symSize: 0x84 }
  - { offset: 0xA1BD8, size: 0x8, addend: 0x0, symName: __RNvYNtNtCsATtFUPiRFW_3syn4item9ItemTraitNtNtCs9f3LFPSIp77_4core5clone5Clone10clone_fromB6_, symObjAddr: 0x6784, symBinAddr: 0x26CFC, symSize: 0x8C }
  - { offset: 0xA1C17, size: 0x8, addend: 0x0, symName: __RNvYNtNtCsATtFUPiRFW_3syn4item9ItemUnionNtNtCs9f3LFPSIp77_4core5clone5Clone10clone_fromB6_, symObjAddr: 0x6940, symBinAddr: 0x26EB8, symSize: 0x8C }
  - { offset: 0xA1C56, size: 0x8, addend: 0x0, symName: __RNvYNtNtCsATtFUPiRFW_3syn4item9SignatureNtNtCs9f3LFPSIp77_4core5clone5Clone10clone_fromB6_, symObjAddr: 0x6AFC, symBinAddr: 0x27074, symSize: 0x8C }
  - { offset: 0xA1C95, size: 0x8, addend: 0x0, symName: __RNvYNtNtCsATtFUPiRFW_3syn4item9TraitItemNtNtCs9f3LFPSIp77_4core5clone5Clone10clone_fromB6_, symObjAddr: 0x6CB8, symBinAddr: 0x27230, symSize: 0x8C }
  - { offset: 0xA1CD4, size: 0x8, addend: 0x0, symName: __RNvYNtNtCsATtFUPiRFW_3syn4item9UseRenameNtNtCs9f3LFPSIp77_4core5clone5Clone10clone_fromB6_, symObjAddr: 0x6E74, symBinAddr: 0x273EC, symSize: 0x84 }
  - { offset: 0xA1E5C, size: 0x8, addend: 0x0, symName: __RNvXs7_NtNtCs9f3LFPSIp77_4core3cmp5implsRNtNtCsATtFUPiRFW_3syn4item10ImplItemFnNtB7_9PartialEq2eqBH_, symObjAddr: 0x1BC0, symBinAddr: 0x22138, symSize: 0x34 }
  - { offset: 0xA1EAB, size: 0x8, addend: 0x0, symName: __RNvXs7_NtNtCs9f3LFPSIp77_4core3cmp5implsRNtNtCsATtFUPiRFW_3syn4item10ItemStaticNtB7_9PartialEq2eqBH_, symObjAddr: 0x1BF4, symBinAddr: 0x2216C, symSize: 0x34 }
  - { offset: 0xA1EFA, size: 0x8, addend: 0x0, symName: __RNvXs7_NtNtCs9f3LFPSIp77_4core3cmp5implsRNtNtCsATtFUPiRFW_3syn4item10ItemStructNtB7_9PartialEq2eqBH_, symObjAddr: 0x1C28, symBinAddr: 0x221A0, symSize: 0x34 }
  - { offset: 0xA1F49, size: 0x8, addend: 0x0, symName: __RNvXs7_NtNtCs9f3LFPSIp77_4core3cmp5implsRNtNtCsATtFUPiRFW_3syn4item11TraitItemFnNtB7_9PartialEq2eqBH_, symObjAddr: 0x1C5C, symBinAddr: 0x221D4, symSize: 0x34 }
  - { offset: 0xA1F98, size: 0x8, addend: 0x0, symName: __RNvXs7_NtNtCs9f3LFPSIp77_4core3cmp5implsRNtNtCsATtFUPiRFW_3syn4item12ImplItemTypeNtB7_9PartialEq2eqBH_, symObjAddr: 0x1C90, symBinAddr: 0x22208, symSize: 0x34 }
  - { offset: 0xA1FE7, size: 0x8, addend: 0x0, symName: __RNvXs7_NtNtCs9f3LFPSIp77_4core3cmp5implsRNtNtCsATtFUPiRFW_3syn4item13ForeignItemFnNtB7_9PartialEq2eqBH_, symObjAddr: 0x1CC4, symBinAddr: 0x2223C, symSize: 0x34 }
  - { offset: 0xA2036, size: 0x8, addend: 0x0, symName: __RNvXs7_NtNtCs9f3LFPSIp77_4core3cmp5implsRNtNtCsATtFUPiRFW_3syn4item13ImplItemConstNtB7_9PartialEq2eqBH_, symObjAddr: 0x1CF8, symBinAddr: 0x22270, symSize: 0x34 }
  - { offset: 0xA2085, size: 0x8, addend: 0x0, symName: __RNvXs7_NtNtCs9f3LFPSIp77_4core3cmp5implsRNtNtCsATtFUPiRFW_3syn4item13ImplItemMacroNtB7_9PartialEq2eqBH_, symObjAddr: 0x1D2C, symBinAddr: 0x222A4, symSize: 0x34 }
  - { offset: 0xA20D4, size: 0x8, addend: 0x0, symName: __RNvXs7_NtNtCs9f3LFPSIp77_4core3cmp5implsRNtNtCsATtFUPiRFW_3syn4item13TraitItemTypeNtB7_9PartialEq2eqBH_, symObjAddr: 0x1D60, symBinAddr: 0x222D8, symSize: 0x34 }
  - { offset: 0xA2123, size: 0x8, addend: 0x0, symName: __RNvXs7_NtNtCs9f3LFPSIp77_4core3cmp5implsRNtNtCsATtFUPiRFW_3syn4item14ItemForeignModNtB7_9PartialEq2eqBH_, symObjAddr: 0x1D94, symBinAddr: 0x2230C, symSize: 0x34 }
  - { offset: 0xA2172, size: 0x8, addend: 0x0, symName: __RNvXs7_NtNtCs9f3LFPSIp77_4core3cmp5implsRNtNtCsATtFUPiRFW_3syn4item14ItemTraitAliasNtB7_9PartialEq2eqBH_, symObjAddr: 0x1DC8, symBinAddr: 0x22340, symSize: 0x34 }
  - { offset: 0xA21C1, size: 0x8, addend: 0x0, symName: __RNvXs7_NtNtCs9f3LFPSIp77_4core3cmp5implsRNtNtCsATtFUPiRFW_3syn4item14TraitItemConstNtB7_9PartialEq2eqBH_, symObjAddr: 0x1DFC, symBinAddr: 0x22374, symSize: 0x34 }
  - { offset: 0xA2210, size: 0x8, addend: 0x0, symName: __RNvXs7_NtNtCs9f3LFPSIp77_4core3cmp5implsRNtNtCsATtFUPiRFW_3syn4item14TraitItemMacroNtB7_9PartialEq2eqBH_, symObjAddr: 0x1E30, symBinAddr: 0x223A8, symSize: 0x34 }
  - { offset: 0xA225F, size: 0x8, addend: 0x0, symName: __RNvXs7_NtNtCs9f3LFPSIp77_4core3cmp5implsRNtNtCsATtFUPiRFW_3syn4item15ForeignItemTypeNtB7_9PartialEq2eqBH_, symObjAddr: 0x1E64, symBinAddr: 0x223DC, symSize: 0x34 }
  - { offset: 0xA22AE, size: 0x8, addend: 0x0, symName: __RNvXs7_NtNtCs9f3LFPSIp77_4core3cmp5implsRNtNtCsATtFUPiRFW_3syn4item15ItemExternCrateNtB7_9PartialEq2eqBH_, symObjAddr: 0x1E98, symBinAddr: 0x22410, symSize: 0x34 }
  - { offset: 0xA22FD, size: 0x8, addend: 0x0, symName: __RNvXs7_NtNtCs9f3LFPSIp77_4core3cmp5implsRNtNtCsATtFUPiRFW_3syn4item16ForeignItemMacroNtB7_9PartialEq2eqBH_, symObjAddr: 0x1ECC, symBinAddr: 0x22444, symSize: 0x34 }
  - { offset: 0xA234C, size: 0x8, addend: 0x0, symName: __RNvXs7_NtNtCs9f3LFPSIp77_4core3cmp5implsRNtNtCsATtFUPiRFW_3syn4item17ForeignItemStaticNtB7_9PartialEq2eqBH_, symObjAddr: 0x1F00, symBinAddr: 0x22478, symSize: 0x34 }
  - { offset: 0xA239B, size: 0x8, addend: 0x0, symName: __RNvXs7_NtNtCs9f3LFPSIp77_4core3cmp5implsRNtNtCsATtFUPiRFW_3syn4item4ItemNtB7_9PartialEq2eqBH_, symObjAddr: 0x1F34, symBinAddr: 0x224AC, symSize: 0x34 }
  - { offset: 0xA23EA, size: 0x8, addend: 0x0, symName: __RNvXs7_NtNtCs9f3LFPSIp77_4core3cmp5implsRNtNtCsATtFUPiRFW_3syn4item6ItemFnNtB7_9PartialEq2eqBH_, symObjAddr: 0x1F68, symBinAddr: 0x224E0, symSize: 0x34 }
  - { offset: 0xA2439, size: 0x8, addend: 0x0, symName: __RNvXs7_NtNtCs9f3LFPSIp77_4core3cmp5implsRNtNtCsATtFUPiRFW_3syn4item7ItemModNtB7_9PartialEq2eqBH_, symObjAddr: 0x1F9C, symBinAddr: 0x22514, symSize: 0x34 }
  - { offset: 0xA2488, size: 0x8, addend: 0x0, symName: __RNvXs7_NtNtCs9f3LFPSIp77_4core3cmp5implsRNtNtCsATtFUPiRFW_3syn4item7ItemUseNtB7_9PartialEq2eqBH_, symObjAddr: 0x1FD0, symBinAddr: 0x22548, symSize: 0x34 }
  - { offset: 0xA24D7, size: 0x8, addend: 0x0, symName: __RNvXs7_NtNtCs9f3LFPSIp77_4core3cmp5implsRNtNtCsATtFUPiRFW_3syn4item7UseGlobNtB7_9PartialEq2eqBH_, symObjAddr: 0x2004, symBinAddr: 0x2257C, symSize: 0x34 }
  - { offset: 0xA2526, size: 0x8, addend: 0x0, symName: __RNvXs7_NtNtCs9f3LFPSIp77_4core3cmp5implsRNtNtCsATtFUPiRFW_3syn4item7UseNameNtB7_9PartialEq2eqBH_, symObjAddr: 0x2038, symBinAddr: 0x225B0, symSize: 0x34 }
  - { offset: 0xA2575, size: 0x8, addend: 0x0, symName: __RNvXs7_NtNtCs9f3LFPSIp77_4core3cmp5implsRNtNtCsATtFUPiRFW_3syn4item7UsePathNtB7_9PartialEq2eqBH_, symObjAddr: 0x206C, symBinAddr: 0x225E4, symSize: 0x34 }
  - { offset: 0xA25C4, size: 0x8, addend: 0x0, symName: __RNvXs7_NtNtCs9f3LFPSIp77_4core3cmp5implsRNtNtCsATtFUPiRFW_3syn4item8ItemEnumNtB7_9PartialEq2eqBH_, symObjAddr: 0x20A0, symBinAddr: 0x22618, symSize: 0x34 }
  - { offset: 0xA2613, size: 0x8, addend: 0x0, symName: __RNvXs7_NtNtCs9f3LFPSIp77_4core3cmp5implsRNtNtCsATtFUPiRFW_3syn4item8ItemImplNtB7_9PartialEq2eqBH_, symObjAddr: 0x20D4, symBinAddr: 0x2264C, symSize: 0x34 }
  - { offset: 0xA2662, size: 0x8, addend: 0x0, symName: __RNvXs7_NtNtCs9f3LFPSIp77_4core3cmp5implsRNtNtCsATtFUPiRFW_3syn4item8ItemTypeNtB7_9PartialEq2eqBH_, symObjAddr: 0x2108, symBinAddr: 0x22680, symSize: 0x34 }
  - { offset: 0xA26B1, size: 0x8, addend: 0x0, symName: __RNvXs7_NtNtCs9f3LFPSIp77_4core3cmp5implsRNtNtCsATtFUPiRFW_3syn4item8ReceiverNtB7_9PartialEq2eqBH_, symObjAddr: 0x213C, symBinAddr: 0x226B4, symSize: 0x34 }
  - { offset: 0xA2700, size: 0x8, addend: 0x0, symName: __RNvXs7_NtNtCs9f3LFPSIp77_4core3cmp5implsRNtNtCsATtFUPiRFW_3syn4item8UseGroupNtB7_9PartialEq2eqBH_, symObjAddr: 0x2170, symBinAddr: 0x226E8, symSize: 0x34 }
  - { offset: 0xA274F, size: 0x8, addend: 0x0, symName: __RNvXs7_NtNtCs9f3LFPSIp77_4core3cmp5implsRNtNtCsATtFUPiRFW_3syn4item9ItemConstNtB7_9PartialEq2eqBH_, symObjAddr: 0x21A4, symBinAddr: 0x2271C, symSize: 0x34 }
  - { offset: 0xA279E, size: 0x8, addend: 0x0, symName: __RNvXs7_NtNtCs9f3LFPSIp77_4core3cmp5implsRNtNtCsATtFUPiRFW_3syn4item9ItemMacroNtB7_9PartialEq2eqBH_, symObjAddr: 0x21D8, symBinAddr: 0x22750, symSize: 0x34 }
  - { offset: 0xA27ED, size: 0x8, addend: 0x0, symName: __RNvXs7_NtNtCs9f3LFPSIp77_4core3cmp5implsRNtNtCsATtFUPiRFW_3syn4item9ItemTraitNtB7_9PartialEq2eqBH_, symObjAddr: 0x220C, symBinAddr: 0x22784, symSize: 0x34 }
  - { offset: 0xA283C, size: 0x8, addend: 0x0, symName: __RNvXs7_NtNtCs9f3LFPSIp77_4core3cmp5implsRNtNtCsATtFUPiRFW_3syn4item9ItemUnionNtB7_9PartialEq2eqBH_, symObjAddr: 0x2240, symBinAddr: 0x227B8, symSize: 0x34 }
  - { offset: 0xA288B, size: 0x8, addend: 0x0, symName: __RNvXs7_NtNtCs9f3LFPSIp77_4core3cmp5implsRNtNtCsATtFUPiRFW_3syn4item9UseRenameNtB7_9PartialEq2eqBH_, symObjAddr: 0x2274, symBinAddr: 0x227EC, symSize: 0x34 }
  - { offset: 0xA28E1, size: 0x8, addend: 0x0, symName: __RNvYNtNtCsATtFUPiRFW_3syn4item10ImplItemFnNtNtCs9f3LFPSIp77_4core3cmp2Eq27assert_receiver_is_total_eqB6_, symObjAddr: 0x27C0, symBinAddr: 0x22D38, symSize: 0x10 }
  - { offset: 0xA2914, size: 0x8, addend: 0x0, symName: __RNvYNtNtCsATtFUPiRFW_3syn4item10ItemStaticNtNtCs9f3LFPSIp77_4core3cmp2Eq27assert_receiver_is_total_eqB6_, symObjAddr: 0x297C, symBinAddr: 0x22EF4, symSize: 0x10 }
  - { offset: 0xA2947, size: 0x8, addend: 0x0, symName: __RNvYNtNtCsATtFUPiRFW_3syn4item10ItemStructNtNtCs9f3LFPSIp77_4core3cmp2Eq27assert_receiver_is_total_eqB6_, symObjAddr: 0x2B30, symBinAddr: 0x230A8, symSize: 0x10 }
  - { offset: 0xA297A, size: 0x8, addend: 0x0, symName: __RNvYNtNtCsATtFUPiRFW_3syn4item11ForeignItemNtNtCs9f3LFPSIp77_4core3cmp2Eq27assert_receiver_is_total_eqB6_, symObjAddr: 0x2CEC, symBinAddr: 0x23264, symSize: 0x10 }
  - { offset: 0xA29AD, size: 0x8, addend: 0x0, symName: __RNvYNtNtCsATtFUPiRFW_3syn4item11TraitItemFnNtNtCs9f3LFPSIp77_4core3cmp2Eq27assert_receiver_is_total_eqB6_, symObjAddr: 0x2EA8, symBinAddr: 0x23420, symSize: 0x10 }
  - { offset: 0xA29E0, size: 0x8, addend: 0x0, symName: __RNvYNtNtCsATtFUPiRFW_3syn4item12ImplItemTypeNtNtCs9f3LFPSIp77_4core3cmp2Eq27assert_receiver_is_total_eqB6_, symObjAddr: 0x3064, symBinAddr: 0x235DC, symSize: 0x10 }
  - { offset: 0xA2A13, size: 0x8, addend: 0x0, symName: __RNvYNtNtCsATtFUPiRFW_3syn4item13ForeignItemFnNtNtCs9f3LFPSIp77_4core3cmp2Eq27assert_receiver_is_total_eqB6_, symObjAddr: 0x3220, symBinAddr: 0x23798, symSize: 0x10 }
  - { offset: 0xA2A46, size: 0x8, addend: 0x0, symName: __RNvYNtNtCsATtFUPiRFW_3syn4item13ImplItemConstNtNtCs9f3LFPSIp77_4core3cmp2Eq27assert_receiver_is_total_eqB6_, symObjAddr: 0x33DC, symBinAddr: 0x23954, symSize: 0x10 }
  - { offset: 0xA2A79, size: 0x8, addend: 0x0, symName: __RNvYNtNtCsATtFUPiRFW_3syn4item13ImplItemMacroNtNtCs9f3LFPSIp77_4core3cmp2Eq27assert_receiver_is_total_eqB6_, symObjAddr: 0x3598, symBinAddr: 0x23B10, symSize: 0x10 }
  - { offset: 0xA2AAC, size: 0x8, addend: 0x0, symName: __RNvYNtNtCsATtFUPiRFW_3syn4item13TraitItemTypeNtNtCs9f3LFPSIp77_4core3cmp2Eq27assert_receiver_is_total_eqB6_, symObjAddr: 0x374C, symBinAddr: 0x23CC4, symSize: 0x10 }
  - { offset: 0xA2ADF, size: 0x8, addend: 0x0, symName: __RNvYNtNtCsATtFUPiRFW_3syn4item14ItemForeignModNtNtCs9f3LFPSIp77_4core3cmp2Eq27assert_receiver_is_total_eqB6_, symObjAddr: 0x3908, symBinAddr: 0x23E80, symSize: 0x10 }
  - { offset: 0xA2B12, size: 0x8, addend: 0x0, symName: __RNvYNtNtCsATtFUPiRFW_3syn4item14ItemTraitAliasNtNtCs9f3LFPSIp77_4core3cmp2Eq27assert_receiver_is_total_eqB6_, symObjAddr: 0x3ABC, symBinAddr: 0x24034, symSize: 0x10 }
  - { offset: 0xA2B45, size: 0x8, addend: 0x0, symName: __RNvYNtNtCsATtFUPiRFW_3syn4item14TraitItemConstNtNtCs9f3LFPSIp77_4core3cmp2Eq27assert_receiver_is_total_eqB6_, symObjAddr: 0x3C78, symBinAddr: 0x241F0, symSize: 0x10 }
  - { offset: 0xA2B78, size: 0x8, addend: 0x0, symName: __RNvYNtNtCsATtFUPiRFW_3syn4item14TraitItemMacroNtNtCs9f3LFPSIp77_4core3cmp2Eq27assert_receiver_is_total_eqB6_, symObjAddr: 0x3E34, symBinAddr: 0x243AC, symSize: 0x10 }
  - { offset: 0xA2BAB, size: 0x8, addend: 0x0, symName: __RNvYNtNtCsATtFUPiRFW_3syn4item15ForeignItemTypeNtNtCs9f3LFPSIp77_4core3cmp2Eq27assert_receiver_is_total_eqB6_, symObjAddr: 0x3FE8, symBinAddr: 0x24560, symSize: 0x10 }
  - { offset: 0xA2BDE, size: 0x8, addend: 0x0, symName: __RNvYNtNtCsATtFUPiRFW_3syn4item15ImplRestrictionNtNtCs9f3LFPSIp77_4core3cmp2Eq27assert_receiver_is_total_eqB6_, symObjAddr: 0x40AC, symBinAddr: 0x24624, symSize: 0x10 }
  - { offset: 0xA2C11, size: 0x8, addend: 0x0, symName: __RNvYNtNtCsATtFUPiRFW_3syn4item15ItemExternCrateNtNtCs9f3LFPSIp77_4core3cmp2Eq27assert_receiver_is_total_eqB6_, symObjAddr: 0x4210, symBinAddr: 0x24788, symSize: 0x10 }
  - { offset: 0xA2C44, size: 0x8, addend: 0x0, symName: __RNvYNtNtCsATtFUPiRFW_3syn4item16ForeignItemMacroNtNtCs9f3LFPSIp77_4core3cmp2Eq27assert_receiver_is_total_eqB6_, symObjAddr: 0x43C4, symBinAddr: 0x2493C, symSize: 0x10 }
  - { offset: 0xA2C77, size: 0x8, addend: 0x0, symName: __RNvYNtNtCsATtFUPiRFW_3syn4item16StaticMutabilityNtNtCs9f3LFPSIp77_4core3cmp2Eq27assert_receiver_is_total_eqB6_, symObjAddr: 0x456C, symBinAddr: 0x24AE4, symSize: 0x10 }
  - { offset: 0xA2CAA, size: 0x8, addend: 0x0, symName: __RNvYNtNtCsATtFUPiRFW_3syn4item17ForeignItemStaticNtNtCs9f3LFPSIp77_4core3cmp2Eq27assert_receiver_is_total_eqB6_, symObjAddr: 0x46F0, symBinAddr: 0x24C68, symSize: 0x10 }
  - { offset: 0xA2CDD, size: 0x8, addend: 0x0, symName: __RNvYNtNtCsATtFUPiRFW_3syn4item4ItemNtNtCs9f3LFPSIp77_4core3cmp2Eq27assert_receiver_is_total_eqB6_, symObjAddr: 0x48A4, symBinAddr: 0x24E1C, symSize: 0x10 }
  - { offset: 0xA2D10, size: 0x8, addend: 0x0, symName: __RNvYNtNtCsATtFUPiRFW_3syn4item5FnArgNtNtCs9f3LFPSIp77_4core3cmp2Eq27assert_receiver_is_total_eqB6_, symObjAddr: 0x4A60, symBinAddr: 0x24FD8, symSize: 0x10 }
  - { offset: 0xA2D43, size: 0x8, addend: 0x0, symName: __RNvYNtNtCsATtFUPiRFW_3syn4item6ItemFnNtNtCs9f3LFPSIp77_4core3cmp2Eq27assert_receiver_is_total_eqB6_, symObjAddr: 0x4C14, symBinAddr: 0x2518C, symSize: 0x10 }
  - { offset: 0xA2D76, size: 0x8, addend: 0x0, symName: __RNvYNtNtCsATtFUPiRFW_3syn4item7ItemModNtNtCs9f3LFPSIp77_4core3cmp2Eq27assert_receiver_is_total_eqB6_, symObjAddr: 0x4DD0, symBinAddr: 0x25348, symSize: 0x10 }
  - { offset: 0xA2DA9, size: 0x8, addend: 0x0, symName: __RNvYNtNtCsATtFUPiRFW_3syn4item7ItemUseNtNtCs9f3LFPSIp77_4core3cmp2Eq27assert_receiver_is_total_eqB6_, symObjAddr: 0x4F84, symBinAddr: 0x254FC, symSize: 0x10 }
  - { offset: 0xA2DDC, size: 0x8, addend: 0x0, symName: __RNvYNtNtCsATtFUPiRFW_3syn4item7UseGlobNtNtCs9f3LFPSIp77_4core3cmp2Eq27assert_receiver_is_total_eqB6_, symObjAddr: 0x512C, symBinAddr: 0x256A4, symSize: 0x10 }
  - { offset: 0xA2E0F, size: 0x8, addend: 0x0, symName: __RNvYNtNtCsATtFUPiRFW_3syn4item7UseNameNtNtCs9f3LFPSIp77_4core3cmp2Eq27assert_receiver_is_total_eqB6_, symObjAddr: 0x52AC, symBinAddr: 0x25824, symSize: 0x10 }
  - { offset: 0xA2E42, size: 0x8, addend: 0x0, symName: __RNvYNtNtCsATtFUPiRFW_3syn4item7UsePathNtNtCs9f3LFPSIp77_4core3cmp2Eq27assert_receiver_is_total_eqB6_, symObjAddr: 0x5460, symBinAddr: 0x259D8, symSize: 0x10 }
  - { offset: 0xA2E75, size: 0x8, addend: 0x0, symName: __RNvYNtNtCsATtFUPiRFW_3syn4item7UseTreeNtNtCs9f3LFPSIp77_4core3cmp2Eq27assert_receiver_is_total_eqB6_, symObjAddr: 0x5614, symBinAddr: 0x25B8C, symSize: 0x10 }
  - { offset: 0xA2EA8, size: 0x8, addend: 0x0, symName: __RNvYNtNtCsATtFUPiRFW_3syn4item8ImplItemNtNtCs9f3LFPSIp77_4core3cmp2Eq27assert_receiver_is_total_eqB6_, symObjAddr: 0x57C8, symBinAddr: 0x25D40, symSize: 0x10 }
  - { offset: 0xA2EDB, size: 0x8, addend: 0x0, symName: __RNvYNtNtCsATtFUPiRFW_3syn4item8ItemEnumNtNtCs9f3LFPSIp77_4core3cmp2Eq27assert_receiver_is_total_eqB6_, symObjAddr: 0x5984, symBinAddr: 0x25EFC, symSize: 0x10 }
  - { offset: 0xA2F0E, size: 0x8, addend: 0x0, symName: __RNvYNtNtCsATtFUPiRFW_3syn4item8ItemImplNtNtCs9f3LFPSIp77_4core3cmp2Eq27assert_receiver_is_total_eqB6_, symObjAddr: 0x5B40, symBinAddr: 0x260B8, symSize: 0x10 }
  - { offset: 0xA2F41, size: 0x8, addend: 0x0, symName: __RNvYNtNtCsATtFUPiRFW_3syn4item8ItemTypeNtNtCs9f3LFPSIp77_4core3cmp2Eq27assert_receiver_is_total_eqB6_, symObjAddr: 0x5CFC, symBinAddr: 0x26274, symSize: 0x10 }
  - { offset: 0xA2F74, size: 0x8, addend: 0x0, symName: __RNvYNtNtCsATtFUPiRFW_3syn4item8ReceiverNtNtCs9f3LFPSIp77_4core3cmp2Eq27assert_receiver_is_total_eqB6_, symObjAddr: 0x5EB8, symBinAddr: 0x26430, symSize: 0x10 }
  - { offset: 0xA2FA7, size: 0x8, addend: 0x0, symName: __RNvYNtNtCsATtFUPiRFW_3syn4item8UseGroupNtNtCs9f3LFPSIp77_4core3cmp2Eq27assert_receiver_is_total_eqB6_, symObjAddr: 0x606C, symBinAddr: 0x265E4, symSize: 0x10 }
  - { offset: 0xA2FDA, size: 0x8, addend: 0x0, symName: __RNvYNtNtCsATtFUPiRFW_3syn4item8VariadicNtNtCs9f3LFPSIp77_4core3cmp2Eq27assert_receiver_is_total_eqB6_, symObjAddr: 0x6220, symBinAddr: 0x26798, symSize: 0x10 }
  - { offset: 0xA300D, size: 0x8, addend: 0x0, symName: __RNvYNtNtCsATtFUPiRFW_3syn4item9ItemConstNtNtCs9f3LFPSIp77_4core3cmp2Eq27assert_receiver_is_total_eqB6_, symObjAddr: 0x63D4, symBinAddr: 0x2694C, symSize: 0x10 }
  - { offset: 0xA3040, size: 0x8, addend: 0x0, symName: __RNvYNtNtCsATtFUPiRFW_3syn4item9ItemMacroNtNtCs9f3LFPSIp77_4core3cmp2Eq27assert_receiver_is_total_eqB6_, symObjAddr: 0x6590, symBinAddr: 0x26B08, symSize: 0x10 }
  - { offset: 0xA3073, size: 0x8, addend: 0x0, symName: __RNvYNtNtCsATtFUPiRFW_3syn4item9ItemTraitNtNtCs9f3LFPSIp77_4core3cmp2Eq27assert_receiver_is_total_eqB6_, symObjAddr: 0x6744, symBinAddr: 0x26CBC, symSize: 0x10 }
  - { offset: 0xA30A6, size: 0x8, addend: 0x0, symName: __RNvYNtNtCsATtFUPiRFW_3syn4item9ItemUnionNtNtCs9f3LFPSIp77_4core3cmp2Eq27assert_receiver_is_total_eqB6_, symObjAddr: 0x6900, symBinAddr: 0x26E78, symSize: 0x10 }
  - { offset: 0xA30D9, size: 0x8, addend: 0x0, symName: __RNvYNtNtCsATtFUPiRFW_3syn4item9SignatureNtNtCs9f3LFPSIp77_4core3cmp2Eq27assert_receiver_is_total_eqB6_, symObjAddr: 0x6ABC, symBinAddr: 0x27034, symSize: 0x10 }
  - { offset: 0xA310C, size: 0x8, addend: 0x0, symName: __RNvYNtNtCsATtFUPiRFW_3syn4item9TraitItemNtNtCs9f3LFPSIp77_4core3cmp2Eq27assert_receiver_is_total_eqB6_, symObjAddr: 0x6C78, symBinAddr: 0x271F0, symSize: 0x10 }
  - { offset: 0xA313F, size: 0x8, addend: 0x0, symName: __RNvYNtNtCsATtFUPiRFW_3syn4item9UseRenameNtNtCs9f3LFPSIp77_4core3cmp2Eq27assert_receiver_is_total_eqB6_, symObjAddr: 0x6E34, symBinAddr: 0x273AC, symSize: 0x10 }
  - { offset: 0xA3178, size: 0x8, addend: 0x0, symName: __RNvYNtNtCsATtFUPiRFW_3syn4item10ImplItemFnNtNtCs9f3LFPSIp77_4core3cmp9PartialEq2neB6_, symObjAddr: 0x27D0, symBinAddr: 0x22D48, symSize: 0x30 }
  - { offset: 0xA31C7, size: 0x8, addend: 0x0, symName: __RNvYNtNtCsATtFUPiRFW_3syn4item10ItemStaticNtNtCs9f3LFPSIp77_4core3cmp9PartialEq2neB6_, symObjAddr: 0x298C, symBinAddr: 0x22F04, symSize: 0x30 }
  - { offset: 0xA3216, size: 0x8, addend: 0x0, symName: __RNvYNtNtCsATtFUPiRFW_3syn4item10ItemStructNtNtCs9f3LFPSIp77_4core3cmp9PartialEq2neB6_, symObjAddr: 0x2B40, symBinAddr: 0x230B8, symSize: 0x30 }
  - { offset: 0xA3265, size: 0x8, addend: 0x0, symName: __RNvYNtNtCsATtFUPiRFW_3syn4item11ForeignItemNtNtCs9f3LFPSIp77_4core3cmp9PartialEq2neB6_, symObjAddr: 0x2CFC, symBinAddr: 0x23274, symSize: 0x30 }
  - { offset: 0xA32B4, size: 0x8, addend: 0x0, symName: __RNvYNtNtCsATtFUPiRFW_3syn4item11TraitItemFnNtNtCs9f3LFPSIp77_4core3cmp9PartialEq2neB6_, symObjAddr: 0x2EB8, symBinAddr: 0x23430, symSize: 0x30 }
  - { offset: 0xA3303, size: 0x8, addend: 0x0, symName: __RNvYNtNtCsATtFUPiRFW_3syn4item12ImplItemTypeNtNtCs9f3LFPSIp77_4core3cmp9PartialEq2neB6_, symObjAddr: 0x3074, symBinAddr: 0x235EC, symSize: 0x30 }
  - { offset: 0xA3352, size: 0x8, addend: 0x0, symName: __RNvYNtNtCsATtFUPiRFW_3syn4item13ForeignItemFnNtNtCs9f3LFPSIp77_4core3cmp9PartialEq2neB6_, symObjAddr: 0x3230, symBinAddr: 0x237A8, symSize: 0x30 }
  - { offset: 0xA33A1, size: 0x8, addend: 0x0, symName: __RNvYNtNtCsATtFUPiRFW_3syn4item13ImplItemConstNtNtCs9f3LFPSIp77_4core3cmp9PartialEq2neB6_, symObjAddr: 0x33EC, symBinAddr: 0x23964, symSize: 0x30 }
  - { offset: 0xA33F0, size: 0x8, addend: 0x0, symName: __RNvYNtNtCsATtFUPiRFW_3syn4item13ImplItemMacroNtNtCs9f3LFPSIp77_4core3cmp9PartialEq2neB6_, symObjAddr: 0x35A8, symBinAddr: 0x23B20, symSize: 0x30 }
  - { offset: 0xA343F, size: 0x8, addend: 0x0, symName: __RNvYNtNtCsATtFUPiRFW_3syn4item13TraitItemTypeNtNtCs9f3LFPSIp77_4core3cmp9PartialEq2neB6_, symObjAddr: 0x375C, symBinAddr: 0x23CD4, symSize: 0x30 }
  - { offset: 0xA348E, size: 0x8, addend: 0x0, symName: __RNvYNtNtCsATtFUPiRFW_3syn4item14ItemForeignModNtNtCs9f3LFPSIp77_4core3cmp9PartialEq2neB6_, symObjAddr: 0x3918, symBinAddr: 0x23E90, symSize: 0x30 }
  - { offset: 0xA34DD, size: 0x8, addend: 0x0, symName: __RNvYNtNtCsATtFUPiRFW_3syn4item14ItemTraitAliasNtNtCs9f3LFPSIp77_4core3cmp9PartialEq2neB6_, symObjAddr: 0x3ACC, symBinAddr: 0x24044, symSize: 0x30 }
  - { offset: 0xA352C, size: 0x8, addend: 0x0, symName: __RNvYNtNtCsATtFUPiRFW_3syn4item14TraitItemConstNtNtCs9f3LFPSIp77_4core3cmp9PartialEq2neB6_, symObjAddr: 0x3C88, symBinAddr: 0x24200, symSize: 0x30 }
  - { offset: 0xA357B, size: 0x8, addend: 0x0, symName: __RNvYNtNtCsATtFUPiRFW_3syn4item14TraitItemMacroNtNtCs9f3LFPSIp77_4core3cmp9PartialEq2neB6_, symObjAddr: 0x3E44, symBinAddr: 0x243BC, symSize: 0x30 }
  - { offset: 0xA35CA, size: 0x8, addend: 0x0, symName: __RNvYNtNtCsATtFUPiRFW_3syn4item15ForeignItemTypeNtNtCs9f3LFPSIp77_4core3cmp9PartialEq2neB6_, symObjAddr: 0x3FF8, symBinAddr: 0x24570, symSize: 0x30 }
  - { offset: 0xA3619, size: 0x8, addend: 0x0, symName: __RNvYNtNtCsATtFUPiRFW_3syn4item15ImplRestrictionNtNtCs9f3LFPSIp77_4core3cmp9PartialEq2neB6_, symObjAddr: 0x40BC, symBinAddr: 0x24634, symSize: 0x30 }
  - { offset: 0xA3668, size: 0x8, addend: 0x0, symName: __RNvYNtNtCsATtFUPiRFW_3syn4item15ItemExternCrateNtNtCs9f3LFPSIp77_4core3cmp9PartialEq2neB6_, symObjAddr: 0x4220, symBinAddr: 0x24798, symSize: 0x30 }
  - { offset: 0xA36B7, size: 0x8, addend: 0x0, symName: __RNvYNtNtCsATtFUPiRFW_3syn4item16ForeignItemMacroNtNtCs9f3LFPSIp77_4core3cmp9PartialEq2neB6_, symObjAddr: 0x43D4, symBinAddr: 0x2494C, symSize: 0x30 }
  - { offset: 0xA3706, size: 0x8, addend: 0x0, symName: __RNvYNtNtCsATtFUPiRFW_3syn4item16StaticMutabilityNtNtCs9f3LFPSIp77_4core3cmp9PartialEq2neB6_, symObjAddr: 0x457C, symBinAddr: 0x24AF4, symSize: 0x30 }
  - { offset: 0xA3755, size: 0x8, addend: 0x0, symName: __RNvYNtNtCsATtFUPiRFW_3syn4item17ForeignItemStaticNtNtCs9f3LFPSIp77_4core3cmp9PartialEq2neB6_, symObjAddr: 0x4700, symBinAddr: 0x24C78, symSize: 0x30 }
  - { offset: 0xA37A4, size: 0x8, addend: 0x0, symName: __RNvYNtNtCsATtFUPiRFW_3syn4item4ItemNtNtCs9f3LFPSIp77_4core3cmp9PartialEq2neB6_, symObjAddr: 0x48B4, symBinAddr: 0x24E2C, symSize: 0x30 }
  - { offset: 0xA37F3, size: 0x8, addend: 0x0, symName: __RNvYNtNtCsATtFUPiRFW_3syn4item5FnArgNtNtCs9f3LFPSIp77_4core3cmp9PartialEq2neB6_, symObjAddr: 0x4A70, symBinAddr: 0x24FE8, symSize: 0x30 }
  - { offset: 0xA3842, size: 0x8, addend: 0x0, symName: __RNvYNtNtCsATtFUPiRFW_3syn4item6ItemFnNtNtCs9f3LFPSIp77_4core3cmp9PartialEq2neB6_, symObjAddr: 0x4C24, symBinAddr: 0x2519C, symSize: 0x30 }
  - { offset: 0xA3891, size: 0x8, addend: 0x0, symName: __RNvYNtNtCsATtFUPiRFW_3syn4item7ItemModNtNtCs9f3LFPSIp77_4core3cmp9PartialEq2neB6_, symObjAddr: 0x4DE0, symBinAddr: 0x25358, symSize: 0x30 }
  - { offset: 0xA38E0, size: 0x8, addend: 0x0, symName: __RNvYNtNtCsATtFUPiRFW_3syn4item7ItemUseNtNtCs9f3LFPSIp77_4core3cmp9PartialEq2neB6_, symObjAddr: 0x4F94, symBinAddr: 0x2550C, symSize: 0x30 }
  - { offset: 0xA392F, size: 0x8, addend: 0x0, symName: __RNvYNtNtCsATtFUPiRFW_3syn4item7UseGlobNtNtCs9f3LFPSIp77_4core3cmp9PartialEq2neB6_, symObjAddr: 0x513C, symBinAddr: 0x256B4, symSize: 0x30 }
  - { offset: 0xA397E, size: 0x8, addend: 0x0, symName: __RNvYNtNtCsATtFUPiRFW_3syn4item7UseNameNtNtCs9f3LFPSIp77_4core3cmp9PartialEq2neB6_, symObjAddr: 0x52BC, symBinAddr: 0x25834, symSize: 0x30 }
  - { offset: 0xA39CD, size: 0x8, addend: 0x0, symName: __RNvYNtNtCsATtFUPiRFW_3syn4item7UsePathNtNtCs9f3LFPSIp77_4core3cmp9PartialEq2neB6_, symObjAddr: 0x5470, symBinAddr: 0x259E8, symSize: 0x30 }
  - { offset: 0xA3A1C, size: 0x8, addend: 0x0, symName: __RNvYNtNtCsATtFUPiRFW_3syn4item7UseTreeNtNtCs9f3LFPSIp77_4core3cmp9PartialEq2neB6_, symObjAddr: 0x5624, symBinAddr: 0x25B9C, symSize: 0x30 }
  - { offset: 0xA3A6B, size: 0x8, addend: 0x0, symName: __RNvYNtNtCsATtFUPiRFW_3syn4item8ImplItemNtNtCs9f3LFPSIp77_4core3cmp9PartialEq2neB6_, symObjAddr: 0x57D8, symBinAddr: 0x25D50, symSize: 0x30 }
  - { offset: 0xA3ABA, size: 0x8, addend: 0x0, symName: __RNvYNtNtCsATtFUPiRFW_3syn4item8ItemEnumNtNtCs9f3LFPSIp77_4core3cmp9PartialEq2neB6_, symObjAddr: 0x5994, symBinAddr: 0x25F0C, symSize: 0x30 }
  - { offset: 0xA3B09, size: 0x8, addend: 0x0, symName: __RNvYNtNtCsATtFUPiRFW_3syn4item8ItemImplNtNtCs9f3LFPSIp77_4core3cmp9PartialEq2neB6_, symObjAddr: 0x5B50, symBinAddr: 0x260C8, symSize: 0x30 }
  - { offset: 0xA3B58, size: 0x8, addend: 0x0, symName: __RNvYNtNtCsATtFUPiRFW_3syn4item8ItemTypeNtNtCs9f3LFPSIp77_4core3cmp9PartialEq2neB6_, symObjAddr: 0x5D0C, symBinAddr: 0x26284, symSize: 0x30 }
  - { offset: 0xA3BA7, size: 0x8, addend: 0x0, symName: __RNvYNtNtCsATtFUPiRFW_3syn4item8ReceiverNtNtCs9f3LFPSIp77_4core3cmp9PartialEq2neB6_, symObjAddr: 0x5EC8, symBinAddr: 0x26440, symSize: 0x30 }
  - { offset: 0xA3BF6, size: 0x8, addend: 0x0, symName: __RNvYNtNtCsATtFUPiRFW_3syn4item8UseGroupNtNtCs9f3LFPSIp77_4core3cmp9PartialEq2neB6_, symObjAddr: 0x607C, symBinAddr: 0x265F4, symSize: 0x30 }
  - { offset: 0xA3C45, size: 0x8, addend: 0x0, symName: __RNvYNtNtCsATtFUPiRFW_3syn4item8VariadicNtNtCs9f3LFPSIp77_4core3cmp9PartialEq2neB6_, symObjAddr: 0x6230, symBinAddr: 0x267A8, symSize: 0x30 }
  - { offset: 0xA3C94, size: 0x8, addend: 0x0, symName: __RNvYNtNtCsATtFUPiRFW_3syn4item9ItemConstNtNtCs9f3LFPSIp77_4core3cmp9PartialEq2neB6_, symObjAddr: 0x63E4, symBinAddr: 0x2695C, symSize: 0x30 }
  - { offset: 0xA3CE3, size: 0x8, addend: 0x0, symName: __RNvYNtNtCsATtFUPiRFW_3syn4item9ItemMacroNtNtCs9f3LFPSIp77_4core3cmp9PartialEq2neB6_, symObjAddr: 0x65A0, symBinAddr: 0x26B18, symSize: 0x30 }
  - { offset: 0xA3D32, size: 0x8, addend: 0x0, symName: __RNvYNtNtCsATtFUPiRFW_3syn4item9ItemTraitNtNtCs9f3LFPSIp77_4core3cmp9PartialEq2neB6_, symObjAddr: 0x6754, symBinAddr: 0x26CCC, symSize: 0x30 }
  - { offset: 0xA3D81, size: 0x8, addend: 0x0, symName: __RNvYNtNtCsATtFUPiRFW_3syn4item9ItemUnionNtNtCs9f3LFPSIp77_4core3cmp9PartialEq2neB6_, symObjAddr: 0x6910, symBinAddr: 0x26E88, symSize: 0x30 }
  - { offset: 0xA3DD0, size: 0x8, addend: 0x0, symName: __RNvYNtNtCsATtFUPiRFW_3syn4item9SignatureNtNtCs9f3LFPSIp77_4core3cmp9PartialEq2neB6_, symObjAddr: 0x6ACC, symBinAddr: 0x27044, symSize: 0x30 }
  - { offset: 0xA3E1F, size: 0x8, addend: 0x0, symName: __RNvYNtNtCsATtFUPiRFW_3syn4item9TraitItemNtNtCs9f3LFPSIp77_4core3cmp9PartialEq2neB6_, symObjAddr: 0x6C88, symBinAddr: 0x27200, symSize: 0x30 }
  - { offset: 0xA3E6E, size: 0x8, addend: 0x0, symName: __RNvYNtNtCsATtFUPiRFW_3syn4item9UseRenameNtNtCs9f3LFPSIp77_4core3cmp9PartialEq2neB6_, symObjAddr: 0x6E44, symBinAddr: 0x273BC, symSize: 0x30 }
  - { offset: 0xA3EC9, size: 0x8, addend: 0x0, symName: __RNvXs8_NtCs9f3LFPSIp77_4core5tupleTNtNtCsATtFUPiRFW_3syn4item5FnArgNtNtBB_5token5CommaENtNtB7_3cmp9PartialEq2neBB_, symObjAddr: 0x22A8, symBinAddr: 0x22820, symSize: 0x64 }
  - { offset: 0xA3F15, size: 0x8, addend: 0x0, symName: __RNvXs8_NtCs9f3LFPSIp77_4core5tupleTNtNtCsATtFUPiRFW_3syn4item7UseTreeNtNtBB_5token5CommaENtNtB7_3cmp9PartialEq2neBB_, symObjAddr: 0x230C, symBinAddr: 0x22884, symSize: 0x64 }
  - { offset: 0xA67B2, size: 0x8, addend: 0x0, symName: __RNvXNtCs62MdaZFMefA_5quote9to_tokensRNtNtCsATtFUPiRFW_3syn4item11ForeignItemNtB2_8ToTokens9to_tokensBD_, symObjAddr: 0x10C8, symBinAddr: 0x21640, symSize: 0x40 }
  - { offset: 0xA67F1, size: 0x8, addend: 0x0, symName: __RNvXNtCs62MdaZFMefA_5quote9to_tokensRNtNtCsATtFUPiRFW_3syn4item4ItemNtB2_8ToTokens9to_tokensBD_, symObjAddr: 0x1108, symBinAddr: 0x21680, symSize: 0x40 }
  - { offset: 0xA6830, size: 0x8, addend: 0x0, symName: __RNvXNtCs62MdaZFMefA_5quote9to_tokensRNtNtCsATtFUPiRFW_3syn4item5FnArgNtB2_8ToTokens9to_tokensBD_, symObjAddr: 0x1148, symBinAddr: 0x216C0, symSize: 0x40 }
  - { offset: 0xA686F, size: 0x8, addend: 0x0, symName: __RNvXNtCs62MdaZFMefA_5quote9to_tokensRNtNtCsATtFUPiRFW_3syn4item7UseTreeNtB2_8ToTokens9to_tokensBD_, symObjAddr: 0x1188, symBinAddr: 0x21700, symSize: 0x40 }
  - { offset: 0xA68AE, size: 0x8, addend: 0x0, symName: __RNvXNtCs62MdaZFMefA_5quote9to_tokensRNtNtCsATtFUPiRFW_3syn4item8ImplItemNtB2_8ToTokens9to_tokensBD_, symObjAddr: 0x11C8, symBinAddr: 0x21740, symSize: 0x40 }
  - { offset: 0xA68ED, size: 0x8, addend: 0x0, symName: __RNvXNtCs62MdaZFMefA_5quote9to_tokensRNtNtCsATtFUPiRFW_3syn4item9TraitItemNtB2_8ToTokens9to_tokensBD_, symObjAddr: 0x1208, symBinAddr: 0x21780, symSize: 0x40 }
  - { offset: 0xA6932, size: 0x8, addend: 0x0, symName: __RNvYNtNtCsATtFUPiRFW_3syn4item10ImplItemFnNtNtCs62MdaZFMefA_5quote9to_tokens8ToTokens15to_token_streamB6_, symObjAddr: 0x26D0, symBinAddr: 0x22C48, symSize: 0x8C }
  - { offset: 0xA697C, size: 0x8, addend: 0x0, symName: __RNvYNtNtCsATtFUPiRFW_3syn4item10ImplItemFnNtNtCs62MdaZFMefA_5quote9to_tokens8ToTokens17into_token_streamB6_, symObjAddr: 0x275C, symBinAddr: 0x22CD4, symSize: 0x64 }
  - { offset: 0xA69B2, size: 0x8, addend: 0x0, symName: __RNvYNtNtCsATtFUPiRFW_3syn4item10ItemStaticNtNtCs62MdaZFMefA_5quote9to_tokens8ToTokens15to_token_streamB6_, symObjAddr: 0x288C, symBinAddr: 0x22E04, symSize: 0x8C }
  - { offset: 0xA69FC, size: 0x8, addend: 0x0, symName: __RNvYNtNtCsATtFUPiRFW_3syn4item10ItemStaticNtNtCs62MdaZFMefA_5quote9to_tokens8ToTokens17into_token_streamB6_, symObjAddr: 0x2918, symBinAddr: 0x22E90, symSize: 0x64 }
  - { offset: 0xA6A32, size: 0x8, addend: 0x0, symName: __RNvYNtNtCsATtFUPiRFW_3syn4item10ItemStructNtNtCs62MdaZFMefA_5quote9to_tokens8ToTokens15to_token_streamB6_, symObjAddr: 0x2A40, symBinAddr: 0x22FB8, symSize: 0x8C }
  - { offset: 0xA6A7C, size: 0x8, addend: 0x0, symName: __RNvYNtNtCsATtFUPiRFW_3syn4item10ItemStructNtNtCs62MdaZFMefA_5quote9to_tokens8ToTokens17into_token_streamB6_, symObjAddr: 0x2ACC, symBinAddr: 0x23044, symSize: 0x64 }
  - { offset: 0xA6AB2, size: 0x8, addend: 0x0, symName: __RNvYNtNtCsATtFUPiRFW_3syn4item11ForeignItemNtNtCs62MdaZFMefA_5quote9to_tokens8ToTokens15to_token_streamB6_, symObjAddr: 0x2BFC, symBinAddr: 0x23174, symSize: 0x8C }
  - { offset: 0xA6AFC, size: 0x8, addend: 0x0, symName: __RNvYNtNtCsATtFUPiRFW_3syn4item11ForeignItemNtNtCs62MdaZFMefA_5quote9to_tokens8ToTokens17into_token_streamB6_, symObjAddr: 0x2C88, symBinAddr: 0x23200, symSize: 0x64 }
  - { offset: 0xA6B32, size: 0x8, addend: 0x0, symName: __RNvYNtNtCsATtFUPiRFW_3syn4item11TraitItemFnNtNtCs62MdaZFMefA_5quote9to_tokens8ToTokens15to_token_streamB6_, symObjAddr: 0x2DB8, symBinAddr: 0x23330, symSize: 0x8C }
  - { offset: 0xA6B7C, size: 0x8, addend: 0x0, symName: __RNvYNtNtCsATtFUPiRFW_3syn4item11TraitItemFnNtNtCs62MdaZFMefA_5quote9to_tokens8ToTokens17into_token_streamB6_, symObjAddr: 0x2E44, symBinAddr: 0x233BC, symSize: 0x64 }
  - { offset: 0xA6BB2, size: 0x8, addend: 0x0, symName: __RNvYNtNtCsATtFUPiRFW_3syn4item12ImplItemTypeNtNtCs62MdaZFMefA_5quote9to_tokens8ToTokens15to_token_streamB6_, symObjAddr: 0x2F74, symBinAddr: 0x234EC, symSize: 0x8C }
  - { offset: 0xA6BFC, size: 0x8, addend: 0x0, symName: __RNvYNtNtCsATtFUPiRFW_3syn4item12ImplItemTypeNtNtCs62MdaZFMefA_5quote9to_tokens8ToTokens17into_token_streamB6_, symObjAddr: 0x3000, symBinAddr: 0x23578, symSize: 0x64 }
  - { offset: 0xA6C32, size: 0x8, addend: 0x0, symName: __RNvYNtNtCsATtFUPiRFW_3syn4item13ForeignItemFnNtNtCs62MdaZFMefA_5quote9to_tokens8ToTokens15to_token_streamB6_, symObjAddr: 0x3130, symBinAddr: 0x236A8, symSize: 0x8C }
  - { offset: 0xA6C7C, size: 0x8, addend: 0x0, symName: __RNvYNtNtCsATtFUPiRFW_3syn4item13ForeignItemFnNtNtCs62MdaZFMefA_5quote9to_tokens8ToTokens17into_token_streamB6_, symObjAddr: 0x31BC, symBinAddr: 0x23734, symSize: 0x64 }
  - { offset: 0xA6CB2, size: 0x8, addend: 0x0, symName: __RNvYNtNtCsATtFUPiRFW_3syn4item13ImplItemConstNtNtCs62MdaZFMefA_5quote9to_tokens8ToTokens15to_token_streamB6_, symObjAddr: 0x32EC, symBinAddr: 0x23864, symSize: 0x8C }
  - { offset: 0xA6CFC, size: 0x8, addend: 0x0, symName: __RNvYNtNtCsATtFUPiRFW_3syn4item13ImplItemConstNtNtCs62MdaZFMefA_5quote9to_tokens8ToTokens17into_token_streamB6_, symObjAddr: 0x3378, symBinAddr: 0x238F0, symSize: 0x64 }
  - { offset: 0xA6D32, size: 0x8, addend: 0x0, symName: __RNvYNtNtCsATtFUPiRFW_3syn4item13ImplItemMacroNtNtCs62MdaZFMefA_5quote9to_tokens8ToTokens15to_token_streamB6_, symObjAddr: 0x34A8, symBinAddr: 0x23A20, symSize: 0x8C }
  - { offset: 0xA6D7C, size: 0x8, addend: 0x0, symName: __RNvYNtNtCsATtFUPiRFW_3syn4item13ImplItemMacroNtNtCs62MdaZFMefA_5quote9to_tokens8ToTokens17into_token_streamB6_, symObjAddr: 0x3534, symBinAddr: 0x23AAC, symSize: 0x64 }
  - { offset: 0xA6DB2, size: 0x8, addend: 0x0, symName: __RNvYNtNtCsATtFUPiRFW_3syn4item13TraitItemTypeNtNtCs62MdaZFMefA_5quote9to_tokens8ToTokens15to_token_streamB6_, symObjAddr: 0x365C, symBinAddr: 0x23BD4, symSize: 0x8C }
  - { offset: 0xA6DFC, size: 0x8, addend: 0x0, symName: __RNvYNtNtCsATtFUPiRFW_3syn4item13TraitItemTypeNtNtCs62MdaZFMefA_5quote9to_tokens8ToTokens17into_token_streamB6_, symObjAddr: 0x36E8, symBinAddr: 0x23C60, symSize: 0x64 }
  - { offset: 0xA6E32, size: 0x8, addend: 0x0, symName: __RNvYNtNtCsATtFUPiRFW_3syn4item14ItemForeignModNtNtCs62MdaZFMefA_5quote9to_tokens8ToTokens15to_token_streamB6_, symObjAddr: 0x3818, symBinAddr: 0x23D90, symSize: 0x8C }
  - { offset: 0xA6E7C, size: 0x8, addend: 0x0, symName: __RNvYNtNtCsATtFUPiRFW_3syn4item14ItemForeignModNtNtCs62MdaZFMefA_5quote9to_tokens8ToTokens17into_token_streamB6_, symObjAddr: 0x38A4, symBinAddr: 0x23E1C, symSize: 0x64 }
  - { offset: 0xA6EB2, size: 0x8, addend: 0x0, symName: __RNvYNtNtCsATtFUPiRFW_3syn4item14ItemTraitAliasNtNtCs62MdaZFMefA_5quote9to_tokens8ToTokens15to_token_streamB6_, symObjAddr: 0x39CC, symBinAddr: 0x23F44, symSize: 0x8C }
  - { offset: 0xA6EFC, size: 0x8, addend: 0x0, symName: __RNvYNtNtCsATtFUPiRFW_3syn4item14ItemTraitAliasNtNtCs62MdaZFMefA_5quote9to_tokens8ToTokens17into_token_streamB6_, symObjAddr: 0x3A58, symBinAddr: 0x23FD0, symSize: 0x64 }
  - { offset: 0xA6F32, size: 0x8, addend: 0x0, symName: __RNvYNtNtCsATtFUPiRFW_3syn4item14TraitItemConstNtNtCs62MdaZFMefA_5quote9to_tokens8ToTokens15to_token_streamB6_, symObjAddr: 0x3B88, symBinAddr: 0x24100, symSize: 0x8C }
  - { offset: 0xA6F7C, size: 0x8, addend: 0x0, symName: __RNvYNtNtCsATtFUPiRFW_3syn4item14TraitItemConstNtNtCs62MdaZFMefA_5quote9to_tokens8ToTokens17into_token_streamB6_, symObjAddr: 0x3C14, symBinAddr: 0x2418C, symSize: 0x64 }
  - { offset: 0xA6FB2, size: 0x8, addend: 0x0, symName: __RNvYNtNtCsATtFUPiRFW_3syn4item14TraitItemMacroNtNtCs62MdaZFMefA_5quote9to_tokens8ToTokens15to_token_streamB6_, symObjAddr: 0x3D44, symBinAddr: 0x242BC, symSize: 0x8C }
  - { offset: 0xA6FFC, size: 0x8, addend: 0x0, symName: __RNvYNtNtCsATtFUPiRFW_3syn4item14TraitItemMacroNtNtCs62MdaZFMefA_5quote9to_tokens8ToTokens17into_token_streamB6_, symObjAddr: 0x3DD0, symBinAddr: 0x24348, symSize: 0x64 }
  - { offset: 0xA7032, size: 0x8, addend: 0x0, symName: __RNvYNtNtCsATtFUPiRFW_3syn4item15ForeignItemTypeNtNtCs62MdaZFMefA_5quote9to_tokens8ToTokens15to_token_streamB6_, symObjAddr: 0x3EF8, symBinAddr: 0x24470, symSize: 0x8C }
  - { offset: 0xA707C, size: 0x8, addend: 0x0, symName: __RNvYNtNtCsATtFUPiRFW_3syn4item15ForeignItemTypeNtNtCs62MdaZFMefA_5quote9to_tokens8ToTokens17into_token_streamB6_, symObjAddr: 0x3F84, symBinAddr: 0x244FC, symSize: 0x64 }
  - { offset: 0xA70B2, size: 0x8, addend: 0x0, symName: __RNvYNtNtCsATtFUPiRFW_3syn4item15ItemExternCrateNtNtCs62MdaZFMefA_5quote9to_tokens8ToTokens15to_token_streamB6_, symObjAddr: 0x4120, symBinAddr: 0x24698, symSize: 0x8C }
  - { offset: 0xA70FC, size: 0x8, addend: 0x0, symName: __RNvYNtNtCsATtFUPiRFW_3syn4item15ItemExternCrateNtNtCs62MdaZFMefA_5quote9to_tokens8ToTokens17into_token_streamB6_, symObjAddr: 0x41AC, symBinAddr: 0x24724, symSize: 0x64 }
  - { offset: 0xA7132, size: 0x8, addend: 0x0, symName: __RNvYNtNtCsATtFUPiRFW_3syn4item16ForeignItemMacroNtNtCs62MdaZFMefA_5quote9to_tokens8ToTokens15to_token_streamB6_, symObjAddr: 0x42D4, symBinAddr: 0x2484C, symSize: 0x8C }
  - { offset: 0xA717C, size: 0x8, addend: 0x0, symName: __RNvYNtNtCsATtFUPiRFW_3syn4item16ForeignItemMacroNtNtCs62MdaZFMefA_5quote9to_tokens8ToTokens17into_token_streamB6_, symObjAddr: 0x4360, symBinAddr: 0x248D8, symSize: 0x64 }
  - { offset: 0xA71B2, size: 0x8, addend: 0x0, symName: __RNvYNtNtCsATtFUPiRFW_3syn4item16StaticMutabilityNtNtCs62MdaZFMefA_5quote9to_tokens8ToTokens15to_token_streamB6_, symObjAddr: 0x4488, symBinAddr: 0x24A00, symSize: 0x8C }
  - { offset: 0xA71FC, size: 0x8, addend: 0x0, symName: __RNvYNtNtCsATtFUPiRFW_3syn4item16StaticMutabilityNtNtCs62MdaZFMefA_5quote9to_tokens8ToTokens17into_token_streamB6_, symObjAddr: 0x4514, symBinAddr: 0x24A8C, symSize: 0x58 }
  - { offset: 0xA7231, size: 0x8, addend: 0x0, symName: __RNvYNtNtCsATtFUPiRFW_3syn4item17ForeignItemStaticNtNtCs62MdaZFMefA_5quote9to_tokens8ToTokens15to_token_streamB6_, symObjAddr: 0x4600, symBinAddr: 0x24B78, symSize: 0x8C }
  - { offset: 0xA727B, size: 0x8, addend: 0x0, symName: __RNvYNtNtCsATtFUPiRFW_3syn4item17ForeignItemStaticNtNtCs62MdaZFMefA_5quote9to_tokens8ToTokens17into_token_streamB6_, symObjAddr: 0x468C, symBinAddr: 0x24C04, symSize: 0x64 }
  - { offset: 0xA72B1, size: 0x8, addend: 0x0, symName: __RNvYNtNtCsATtFUPiRFW_3syn4item4ItemNtNtCs62MdaZFMefA_5quote9to_tokens8ToTokens15to_token_streamB6_, symObjAddr: 0x47B4, symBinAddr: 0x24D2C, symSize: 0x8C }
  - { offset: 0xA72FB, size: 0x8, addend: 0x0, symName: __RNvYNtNtCsATtFUPiRFW_3syn4item4ItemNtNtCs62MdaZFMefA_5quote9to_tokens8ToTokens17into_token_streamB6_, symObjAddr: 0x4840, symBinAddr: 0x24DB8, symSize: 0x64 }
  - { offset: 0xA7331, size: 0x8, addend: 0x0, symName: __RNvYNtNtCsATtFUPiRFW_3syn4item5FnArgNtNtCs62MdaZFMefA_5quote9to_tokens8ToTokens15to_token_streamB6_, symObjAddr: 0x4970, symBinAddr: 0x24EE8, symSize: 0x8C }
  - { offset: 0xA737B, size: 0x8, addend: 0x0, symName: __RNvYNtNtCsATtFUPiRFW_3syn4item5FnArgNtNtCs62MdaZFMefA_5quote9to_tokens8ToTokens17into_token_streamB6_, symObjAddr: 0x49FC, symBinAddr: 0x24F74, symSize: 0x64 }
  - { offset: 0xA73B1, size: 0x8, addend: 0x0, symName: __RNvYNtNtCsATtFUPiRFW_3syn4item6ItemFnNtNtCs62MdaZFMefA_5quote9to_tokens8ToTokens15to_token_streamB6_, symObjAddr: 0x4B24, symBinAddr: 0x2509C, symSize: 0x8C }
  - { offset: 0xA73FB, size: 0x8, addend: 0x0, symName: __RNvYNtNtCsATtFUPiRFW_3syn4item6ItemFnNtNtCs62MdaZFMefA_5quote9to_tokens8ToTokens17into_token_streamB6_, symObjAddr: 0x4BB0, symBinAddr: 0x25128, symSize: 0x64 }
  - { offset: 0xA7431, size: 0x8, addend: 0x0, symName: __RNvYNtNtCsATtFUPiRFW_3syn4item7ItemModNtNtCs62MdaZFMefA_5quote9to_tokens8ToTokens15to_token_streamB6_, symObjAddr: 0x4CE0, symBinAddr: 0x25258, symSize: 0x8C }
  - { offset: 0xA747B, size: 0x8, addend: 0x0, symName: __RNvYNtNtCsATtFUPiRFW_3syn4item7ItemModNtNtCs62MdaZFMefA_5quote9to_tokens8ToTokens17into_token_streamB6_, symObjAddr: 0x4D6C, symBinAddr: 0x252E4, symSize: 0x64 }
  - { offset: 0xA74B1, size: 0x8, addend: 0x0, symName: __RNvYNtNtCsATtFUPiRFW_3syn4item7ItemUseNtNtCs62MdaZFMefA_5quote9to_tokens8ToTokens15to_token_streamB6_, symObjAddr: 0x4E94, symBinAddr: 0x2540C, symSize: 0x8C }
  - { offset: 0xA74FB, size: 0x8, addend: 0x0, symName: __RNvYNtNtCsATtFUPiRFW_3syn4item7ItemUseNtNtCs62MdaZFMefA_5quote9to_tokens8ToTokens17into_token_streamB6_, symObjAddr: 0x4F20, symBinAddr: 0x25498, symSize: 0x64 }
  - { offset: 0xA7531, size: 0x8, addend: 0x0, symName: __RNvYNtNtCsATtFUPiRFW_3syn4item7UseGlobNtNtCs62MdaZFMefA_5quote9to_tokens8ToTokens15to_token_streamB6_, symObjAddr: 0x5048, symBinAddr: 0x255C0, symSize: 0x8C }
  - { offset: 0xA757B, size: 0x8, addend: 0x0, symName: __RNvYNtNtCsATtFUPiRFW_3syn4item7UseGlobNtNtCs62MdaZFMefA_5quote9to_tokens8ToTokens17into_token_streamB6_, symObjAddr: 0x50D4, symBinAddr: 0x2564C, symSize: 0x58 }
  - { offset: 0xA75B0, size: 0x8, addend: 0x0, symName: __RNvYNtNtCsATtFUPiRFW_3syn4item7UseNameNtNtCs62MdaZFMefA_5quote9to_tokens8ToTokens15to_token_streamB6_, symObjAddr: 0x51BC, symBinAddr: 0x25734, symSize: 0x8C }
  - { offset: 0xA75FA, size: 0x8, addend: 0x0, symName: __RNvYNtNtCsATtFUPiRFW_3syn4item7UseNameNtNtCs62MdaZFMefA_5quote9to_tokens8ToTokens17into_token_streamB6_, symObjAddr: 0x5248, symBinAddr: 0x257C0, symSize: 0x64 }
  - { offset: 0xA7630, size: 0x8, addend: 0x0, symName: __RNvYNtNtCsATtFUPiRFW_3syn4item7UsePathNtNtCs62MdaZFMefA_5quote9to_tokens8ToTokens15to_token_streamB6_, symObjAddr: 0x5370, symBinAddr: 0x258E8, symSize: 0x8C }
  - { offset: 0xA767A, size: 0x8, addend: 0x0, symName: __RNvYNtNtCsATtFUPiRFW_3syn4item7UsePathNtNtCs62MdaZFMefA_5quote9to_tokens8ToTokens17into_token_streamB6_, symObjAddr: 0x53FC, symBinAddr: 0x25974, symSize: 0x64 }
  - { offset: 0xA76B0, size: 0x8, addend: 0x0, symName: __RNvYNtNtCsATtFUPiRFW_3syn4item7UseTreeNtNtCs62MdaZFMefA_5quote9to_tokens8ToTokens15to_token_streamB6_, symObjAddr: 0x5524, symBinAddr: 0x25A9C, symSize: 0x8C }
  - { offset: 0xA76FA, size: 0x8, addend: 0x0, symName: __RNvYNtNtCsATtFUPiRFW_3syn4item7UseTreeNtNtCs62MdaZFMefA_5quote9to_tokens8ToTokens17into_token_streamB6_, symObjAddr: 0x55B0, symBinAddr: 0x25B28, symSize: 0x64 }
  - { offset: 0xA7730, size: 0x8, addend: 0x0, symName: __RNvYNtNtCsATtFUPiRFW_3syn4item8ImplItemNtNtCs62MdaZFMefA_5quote9to_tokens8ToTokens15to_token_streamB6_, symObjAddr: 0x56D8, symBinAddr: 0x25C50, symSize: 0x8C }
  - { offset: 0xA777A, size: 0x8, addend: 0x0, symName: __RNvYNtNtCsATtFUPiRFW_3syn4item8ImplItemNtNtCs62MdaZFMefA_5quote9to_tokens8ToTokens17into_token_streamB6_, symObjAddr: 0x5764, symBinAddr: 0x25CDC, symSize: 0x64 }
  - { offset: 0xA77B0, size: 0x8, addend: 0x0, symName: __RNvYNtNtCsATtFUPiRFW_3syn4item8ItemEnumNtNtCs62MdaZFMefA_5quote9to_tokens8ToTokens15to_token_streamB6_, symObjAddr: 0x5894, symBinAddr: 0x25E0C, symSize: 0x8C }
  - { offset: 0xA77FA, size: 0x8, addend: 0x0, symName: __RNvYNtNtCsATtFUPiRFW_3syn4item8ItemEnumNtNtCs62MdaZFMefA_5quote9to_tokens8ToTokens17into_token_streamB6_, symObjAddr: 0x5920, symBinAddr: 0x25E98, symSize: 0x64 }
  - { offset: 0xA7830, size: 0x8, addend: 0x0, symName: __RNvYNtNtCsATtFUPiRFW_3syn4item8ItemImplNtNtCs62MdaZFMefA_5quote9to_tokens8ToTokens15to_token_streamB6_, symObjAddr: 0x5A50, symBinAddr: 0x25FC8, symSize: 0x8C }
  - { offset: 0xA787A, size: 0x8, addend: 0x0, symName: __RNvYNtNtCsATtFUPiRFW_3syn4item8ItemImplNtNtCs62MdaZFMefA_5quote9to_tokens8ToTokens17into_token_streamB6_, symObjAddr: 0x5ADC, symBinAddr: 0x26054, symSize: 0x64 }
  - { offset: 0xA78B0, size: 0x8, addend: 0x0, symName: __RNvYNtNtCsATtFUPiRFW_3syn4item8ItemTypeNtNtCs62MdaZFMefA_5quote9to_tokens8ToTokens15to_token_streamB6_, symObjAddr: 0x5C0C, symBinAddr: 0x26184, symSize: 0x8C }
  - { offset: 0xA78FA, size: 0x8, addend: 0x0, symName: __RNvYNtNtCsATtFUPiRFW_3syn4item8ItemTypeNtNtCs62MdaZFMefA_5quote9to_tokens8ToTokens17into_token_streamB6_, symObjAddr: 0x5C98, symBinAddr: 0x26210, symSize: 0x64 }
  - { offset: 0xA7930, size: 0x8, addend: 0x0, symName: __RNvYNtNtCsATtFUPiRFW_3syn4item8ReceiverNtNtCs62MdaZFMefA_5quote9to_tokens8ToTokens15to_token_streamB6_, symObjAddr: 0x5DC8, symBinAddr: 0x26340, symSize: 0x8C }
  - { offset: 0xA797A, size: 0x8, addend: 0x0, symName: __RNvYNtNtCsATtFUPiRFW_3syn4item8ReceiverNtNtCs62MdaZFMefA_5quote9to_tokens8ToTokens17into_token_streamB6_, symObjAddr: 0x5E54, symBinAddr: 0x263CC, symSize: 0x64 }
  - { offset: 0xA79B0, size: 0x8, addend: 0x0, symName: __RNvYNtNtCsATtFUPiRFW_3syn4item8UseGroupNtNtCs62MdaZFMefA_5quote9to_tokens8ToTokens15to_token_streamB6_, symObjAddr: 0x5F7C, symBinAddr: 0x264F4, symSize: 0x8C }
  - { offset: 0xA79FA, size: 0x8, addend: 0x0, symName: __RNvYNtNtCsATtFUPiRFW_3syn4item8UseGroupNtNtCs62MdaZFMefA_5quote9to_tokens8ToTokens17into_token_streamB6_, symObjAddr: 0x6008, symBinAddr: 0x26580, symSize: 0x64 }
  - { offset: 0xA7A30, size: 0x8, addend: 0x0, symName: __RNvYNtNtCsATtFUPiRFW_3syn4item8VariadicNtNtCs62MdaZFMefA_5quote9to_tokens8ToTokens15to_token_streamB6_, symObjAddr: 0x6130, symBinAddr: 0x266A8, symSize: 0x8C }
  - { offset: 0xA7A7A, size: 0x8, addend: 0x0, symName: __RNvYNtNtCsATtFUPiRFW_3syn4item8VariadicNtNtCs62MdaZFMefA_5quote9to_tokens8ToTokens17into_token_streamB6_, symObjAddr: 0x61BC, symBinAddr: 0x26734, symSize: 0x64 }
  - { offset: 0xA7AB0, size: 0x8, addend: 0x0, symName: __RNvYNtNtCsATtFUPiRFW_3syn4item9ItemConstNtNtCs62MdaZFMefA_5quote9to_tokens8ToTokens15to_token_streamB6_, symObjAddr: 0x62E4, symBinAddr: 0x2685C, symSize: 0x8C }
  - { offset: 0xA7AFA, size: 0x8, addend: 0x0, symName: __RNvYNtNtCsATtFUPiRFW_3syn4item9ItemConstNtNtCs62MdaZFMefA_5quote9to_tokens8ToTokens17into_token_streamB6_, symObjAddr: 0x6370, symBinAddr: 0x268E8, symSize: 0x64 }
  - { offset: 0xA7B30, size: 0x8, addend: 0x0, symName: __RNvYNtNtCsATtFUPiRFW_3syn4item9ItemMacroNtNtCs62MdaZFMefA_5quote9to_tokens8ToTokens15to_token_streamB6_, symObjAddr: 0x64A0, symBinAddr: 0x26A18, symSize: 0x8C }
  - { offset: 0xA7B7A, size: 0x8, addend: 0x0, symName: __RNvYNtNtCsATtFUPiRFW_3syn4item9ItemMacroNtNtCs62MdaZFMefA_5quote9to_tokens8ToTokens17into_token_streamB6_, symObjAddr: 0x652C, symBinAddr: 0x26AA4, symSize: 0x64 }
  - { offset: 0xA7BB0, size: 0x8, addend: 0x0, symName: __RNvYNtNtCsATtFUPiRFW_3syn4item9ItemTraitNtNtCs62MdaZFMefA_5quote9to_tokens8ToTokens15to_token_streamB6_, symObjAddr: 0x6654, symBinAddr: 0x26BCC, symSize: 0x8C }
  - { offset: 0xA7BFA, size: 0x8, addend: 0x0, symName: __RNvYNtNtCsATtFUPiRFW_3syn4item9ItemTraitNtNtCs62MdaZFMefA_5quote9to_tokens8ToTokens17into_token_streamB6_, symObjAddr: 0x66E0, symBinAddr: 0x26C58, symSize: 0x64 }
  - { offset: 0xA7C30, size: 0x8, addend: 0x0, symName: __RNvYNtNtCsATtFUPiRFW_3syn4item9ItemUnionNtNtCs62MdaZFMefA_5quote9to_tokens8ToTokens15to_token_streamB6_, symObjAddr: 0x6810, symBinAddr: 0x26D88, symSize: 0x8C }
  - { offset: 0xA7C7A, size: 0x8, addend: 0x0, symName: __RNvYNtNtCsATtFUPiRFW_3syn4item9ItemUnionNtNtCs62MdaZFMefA_5quote9to_tokens8ToTokens17into_token_streamB6_, symObjAddr: 0x689C, symBinAddr: 0x26E14, symSize: 0x64 }
  - { offset: 0xA7CB0, size: 0x8, addend: 0x0, symName: __RNvYNtNtCsATtFUPiRFW_3syn4item9SignatureNtNtCs62MdaZFMefA_5quote9to_tokens8ToTokens15to_token_streamB6_, symObjAddr: 0x69CC, symBinAddr: 0x26F44, symSize: 0x8C }
  - { offset: 0xA7CFA, size: 0x8, addend: 0x0, symName: __RNvYNtNtCsATtFUPiRFW_3syn4item9SignatureNtNtCs62MdaZFMefA_5quote9to_tokens8ToTokens17into_token_streamB6_, symObjAddr: 0x6A58, symBinAddr: 0x26FD0, symSize: 0x64 }
  - { offset: 0xA7D30, size: 0x8, addend: 0x0, symName: __RNvYNtNtCsATtFUPiRFW_3syn4item9TraitItemNtNtCs62MdaZFMefA_5quote9to_tokens8ToTokens15to_token_streamB6_, symObjAddr: 0x6B88, symBinAddr: 0x27100, symSize: 0x8C }
  - { offset: 0xA7D7A, size: 0x8, addend: 0x0, symName: __RNvYNtNtCsATtFUPiRFW_3syn4item9TraitItemNtNtCs62MdaZFMefA_5quote9to_tokens8ToTokens17into_token_streamB6_, symObjAddr: 0x6C14, symBinAddr: 0x2718C, symSize: 0x64 }
  - { offset: 0xA7DB0, size: 0x8, addend: 0x0, symName: __RNvYNtNtCsATtFUPiRFW_3syn4item9UseRenameNtNtCs62MdaZFMefA_5quote9to_tokens8ToTokens15to_token_streamB6_, symObjAddr: 0x6D44, symBinAddr: 0x272BC, symSize: 0x8C }
  - { offset: 0xA7DFA, size: 0x8, addend: 0x0, symName: __RNvYNtNtCsATtFUPiRFW_3syn4item9UseRenameNtNtCs62MdaZFMefA_5quote9to_tokens8ToTokens17into_token_streamB6_, symObjAddr: 0x6DD0, symBinAddr: 0x27348, symSize: 0x64 }
  - { offset: 0xA807F, size: 0x8, addend: 0x0, symName: __RNvMNtCsATtFUPiRFW_3syn4itemNtB2_4Item13replace_attrs, symObjAddr: 0x6EF8, symBinAddr: 0x27470, symSize: 0x328 }
  - { offset: 0xA80E2, size: 0x8, addend: 0x0, symName: __RNvMs3_NtCsATtFUPiRFW_3syn4itemNtB5_9Signature8receiver, symObjAddr: 0x764C, symBinAddr: 0x27BC4, symSize: 0xE8 }
  - { offset: 0xA8163, size: 0x8, addend: 0x0, symName: __RNvMs4_NtCsATtFUPiRFW_3syn4itemNtB5_8Receiver8lifetime, symObjAddr: 0x7734, symBinAddr: 0x27CAC, symSize: 0x90 }
  - { offset: 0xA8285, size: 0x8, addend: 0x0, symName: __RNvMs1Q_NtNtCsATtFUPiRFW_3syn3gen5debugNtNtBa_4item13ForeignItemFn5debug, symObjAddr: 0x1FC2C, symBinAddr: 0x401A4, symSize: 0x104 }
  - { offset: 0xA82F1, size: 0x8, addend: 0x0, symName: __RNvMs1S_NtNtCsATtFUPiRFW_3syn3gen5debugNtNtBa_4item16ForeignItemMacro5debug, symObjAddr: 0x1FD7C, symBinAddr: 0x402F4, symSize: 0xDC }
  - { offset: 0xA835D, size: 0x8, addend: 0x0, symName: __RNvMs1U_NtNtCsATtFUPiRFW_3syn3gen5debugNtNtBa_4item17ForeignItemStatic5debug, symObjAddr: 0x1FEA4, symBinAddr: 0x4041C, symSize: 0x1A4 }
  - { offset: 0xA83C9, size: 0x8, addend: 0x0, symName: __RNvMs1W_NtNtCsATtFUPiRFW_3syn3gen5debugNtNtBa_4item15ForeignItemType5debug, symObjAddr: 0x20094, symBinAddr: 0x4060C, symSize: 0x154 }
  - { offset: 0xA8435, size: 0x8, addend: 0x0, symName: __RNvMs22_NtNtCsATtFUPiRFW_3syn3gen5debugNtNtBa_4item13ImplItemConst5debug, symObjAddr: 0x2049C, symBinAddr: 0x40A14, symSize: 0x218 }
  - { offset: 0xA84A1, size: 0x8, addend: 0x0, symName: __RNvMs24_NtNtCsATtFUPiRFW_3syn3gen5debugNtNtBa_4item10ImplItemFn5debug, symObjAddr: 0x20700, symBinAddr: 0x40C78, symSize: 0x12C }
  - { offset: 0xA850D, size: 0x8, addend: 0x0, symName: __RNvMs26_NtNtCsATtFUPiRFW_3syn3gen5debugNtNtBa_4item13ImplItemMacro5debug, symObjAddr: 0x20878, symBinAddr: 0x40DF0, symSize: 0xDC }
  - { offset: 0xA8579, size: 0x8, addend: 0x0, symName: __RNvMs28_NtNtCsATtFUPiRFW_3syn3gen5debugNtNtBa_4item12ImplItemType5debug, symObjAddr: 0x209A0, symBinAddr: 0x40F18, symSize: 0x1CC }
  - { offset: 0xA85E5, size: 0x8, addend: 0x0, symName: __RNvMs2d_NtNtCsATtFUPiRFW_3syn3gen5debugNtNtBa_4item9ItemConst5debug, symObjAddr: 0x21128, symBinAddr: 0x416A0, symSize: 0x1F4 }
  - { offset: 0xA8651, size: 0x8, addend: 0x0, symName: __RNvMs2f_NtNtCsATtFUPiRFW_3syn3gen5debugNtNtBa_4item8ItemEnum5debug, symObjAddr: 0x21368, symBinAddr: 0x418E0, symSize: 0x17C }
  - { offset: 0xA86BD, size: 0x8, addend: 0x0, symName: __RNvMs2h_NtNtCsATtFUPiRFW_3syn3gen5debugNtNtBa_4item15ItemExternCrate5debug, symObjAddr: 0x21530, symBinAddr: 0x41AA8, symSize: 0x17C }
  - { offset: 0xA8729, size: 0x8, addend: 0x0, symName: __RNvMs2j_NtNtCsATtFUPiRFW_3syn3gen5debugNtNtBa_4item6ItemFn5debug, symObjAddr: 0x216F8, symBinAddr: 0x41C70, symSize: 0x104 }
  - { offset: 0xA8795, size: 0x8, addend: 0x0, symName: __RNvMs2l_NtNtCsATtFUPiRFW_3syn3gen5debugNtNtBa_4item14ItemForeignMod5debug, symObjAddr: 0x21848, symBinAddr: 0x41DC0, symSize: 0x12C }
  - { offset: 0xA8801, size: 0x8, addend: 0x0, symName: __RNvMs2n_NtNtCsATtFUPiRFW_3syn3gen5debugNtNtBa_4item8ItemImpl5debug, symObjAddr: 0x219C0, symBinAddr: 0x41F38, symSize: 0x1CC }
  - { offset: 0xA886D, size: 0x8, addend: 0x0, symName: __RNvMs2p_NtNtCsATtFUPiRFW_3syn3gen5debugNtNtBa_4item9ItemMacro5debug, symObjAddr: 0x21BD8, symBinAddr: 0x42150, symSize: 0x104 }
  - { offset: 0xA88D9, size: 0x8, addend: 0x0, symName: __RNvMs2r_NtNtCsATtFUPiRFW_3syn3gen5debugNtNtBa_4item7ItemMod5debug, symObjAddr: 0x21D28, symBinAddr: 0x422A0, symSize: 0x17C }
  - { offset: 0xA8945, size: 0x8, addend: 0x0, symName: __RNvMs2t_NtNtCsATtFUPiRFW_3syn3gen5debugNtNtBa_4item10ItemStatic5debug, symObjAddr: 0x21EF0, symBinAddr: 0x42468, symSize: 0x1F4 }
  - { offset: 0xA89B1, size: 0x8, addend: 0x0, symName: __RNvMs2v_NtNtCsATtFUPiRFW_3syn3gen5debugNtNtBa_4item10ItemStruct5debug, symObjAddr: 0x22130, symBinAddr: 0x426A8, symSize: 0x17C }
  - { offset: 0xA8A1D, size: 0x8, addend: 0x0, symName: __RNvMs2x_NtNtCsATtFUPiRFW_3syn3gen5debugNtNtBa_4item9ItemTrait5debug, symObjAddr: 0x222F8, symBinAddr: 0x42870, symSize: 0x234 }
  - { offset: 0xA8A89, size: 0x8, addend: 0x0, symName: __RNvMs2z_NtNtCsATtFUPiRFW_3syn3gen5debugNtNtBa_4item14ItemTraitAlias5debug, symObjAddr: 0x22578, symBinAddr: 0x42AF0, symSize: 0x1A4 }
  - { offset: 0xA8AF5, size: 0x8, addend: 0x0, symName: __RNvMs2B_NtNtCsATtFUPiRFW_3syn3gen5debugNtNtBa_4item8ItemType5debug, symObjAddr: 0x22768, symBinAddr: 0x42CE0, symSize: 0x1A4 }
  - { offset: 0xA8B61, size: 0x8, addend: 0x0, symName: __RNvMs2D_NtNtCsATtFUPiRFW_3syn3gen5debugNtNtBa_4item9ItemUnion5debug, symObjAddr: 0x22958, symBinAddr: 0x42ED0, symSize: 0x154 }
  - { offset: 0xA8BCD, size: 0x8, addend: 0x0, symName: __RNvMs2F_NtNtCsATtFUPiRFW_3syn3gen5debugNtNtBa_4item7ItemUse5debug, symObjAddr: 0x22AF8, symBinAddr: 0x43070, symSize: 0x154 }
  - { offset: 0xA8C39, size: 0x8, addend: 0x0, symName: __RNvMs3G_NtNtCsATtFUPiRFW_3syn3gen5debugNtNtBa_4item14TraitItemConst5debug, symObjAddr: 0x233A4, symBinAddr: 0x4391C, symSize: 0x1A4 }
  - { offset: 0xA8CA5, size: 0x8, addend: 0x0, symName: __RNvMs3I_NtNtCsATtFUPiRFW_3syn3gen5debugNtNtBa_4item11TraitItemFn5debug, symObjAddr: 0x23594, symBinAddr: 0x43B0C, symSize: 0x104 }
  - { offset: 0xA8D11, size: 0x8, addend: 0x0, symName: __RNvMs3K_NtNtCsATtFUPiRFW_3syn3gen5debugNtNtBa_4item14TraitItemMacro5debug, symObjAddr: 0x236E4, symBinAddr: 0x43C5C, symSize: 0xDC }
  - { offset: 0xA8D7D, size: 0x8, addend: 0x0, symName: __RNvMs3M_NtNtCsATtFUPiRFW_3syn3gen5debugNtNtBa_4item13TraitItemType5debug, symObjAddr: 0x2380C, symBinAddr: 0x43D84, symSize: 0x1A4 }
  - { offset: 0xA9531, size: 0x8, addend: 0x0, symName: __RINvXNtNtCsdze8u8oDPro_5alloc5slice4hackNtNtCsATtFUPiRFW_3syn4expr3ArmNtB3_10ConvertVec6to_vecNtNtB7_5alloc6GlobalEBG_, symObjAddr: 0x0, symBinAddr: 0x48640, symSize: 0x2C0 }
  - { offset: 0xAA525, size: 0x8, addend: 0x0, symName: __RINvXNtNtCsdze8u8oDPro_5alloc5slice4hackNtNtCsATtFUPiRFW_3syn4expr3ArmNtB3_10ConvertVec6to_vecNtNtB7_5alloc6GlobalEBG_, symObjAddr: 0x0, symBinAddr: 0x48640, symSize: 0x2C0 }
  - { offset: 0xAA875, size: 0x8, addend: 0x0, symName: __RINvXNtNtCsdze8u8oDPro_5alloc5slice4hackTNtNtCsATtFUPiRFW_3syn4expr10FieldValueNtNtBH_5token5CommaENtB3_10ConvertVec6to_vecNtNtB7_5alloc6GlobalEBH_, symObjAddr: 0x2C0, symBinAddr: 0x48900, symSize: 0x2C0 }
  - { offset: 0xAABC5, size: 0x8, addend: 0x0, symName: __RINvXNtNtCsdze8u8oDPro_5alloc5slice4hackTNtNtCsATtFUPiRFW_3syn4expr4ExprNtNtBH_5token5CommaENtB3_10ConvertVec6to_vecNtNtB7_5alloc6GlobalEBH_, symObjAddr: 0x580, symBinAddr: 0x48BC0, symSize: 0x2BC }
  - { offset: 0xADA8C, size: 0x8, addend: 0x0, symName: __RNvXs_NtCsATtFUPiRFW_3syn4exprNtB4_6MemberINtNtCs9f3LFPSIp77_4core7convert4FromNtCs475r2uZUTuc_11proc_macro25IdentE4from, symObjAddr: 0x72C4, symBinAddr: 0x4F904, symSize: 0x28 }
  - { offset: 0xADAC0, size: 0x8, addend: 0x0, symName: __RNvXs0_NtCsATtFUPiRFW_3syn4exprNtB5_6MemberINtNtCs9f3LFPSIp77_4core7convert4FromNtB5_5IndexE4from, symObjAddr: 0x72EC, symBinAddr: 0x4F92C, symSize: 0x38 }
  - { offset: 0xADAF4, size: 0x8, addend: 0x0, symName: __RNvXs1_NtCsATtFUPiRFW_3syn4exprNtB5_6MemberINtNtCs9f3LFPSIp77_4core7convert4FromjE4from, symObjAddr: 0x7324, symBinAddr: 0x4F964, symSize: 0x48 }
  - { offset: 0xADB28, size: 0x8, addend: 0x0, symName: __RNvXs3_NtCsATtFUPiRFW_3syn4exprNtB5_6MemberNtNtCs9f3LFPSIp77_4core3cmp9PartialEq2eq, symObjAddr: 0x736C, symBinAddr: 0x4F9AC, symSize: 0x15C }
  - { offset: 0xADBC7, size: 0x8, addend: 0x0, symName: __RNvXs5_NtCsATtFUPiRFW_3syn4exprNtB5_6MemberNtNtCs62MdaZFMefA_5quote14ident_fragment13IdentFragment3fmt, symObjAddr: 0x74C8, symBinAddr: 0x4FB08, symSize: 0xA8 }
  - { offset: 0xADC38, size: 0x8, addend: 0x0, symName: __RNvXs5_NtCsATtFUPiRFW_3syn4exprNtB5_6MemberNtNtCs62MdaZFMefA_5quote14ident_fragment13IdentFragment4span, symObjAddr: 0x7570, symBinAddr: 0x4FBB0, symSize: 0xA8 }
  - { offset: 0xADCA8, size: 0x8, addend: 0x0, symName: __RNvXs7_NtCsATtFUPiRFW_3syn4exprNtB5_5IndexINtNtCs9f3LFPSIp77_4core7convert4FromjE4from, symObjAddr: 0x7684, symBinAddr: 0x4FCC4, symSize: 0x84 }
  - { offset: 0xADCDC, size: 0x8, addend: 0x0, symName: __RNvXs9_NtCsATtFUPiRFW_3syn4exprNtB5_5IndexNtNtCs9f3LFPSIp77_4core3cmp9PartialEq2eq, symObjAddr: 0x7708, symBinAddr: 0x4FD48, symSize: 0x3C }
  - { offset: 0xADD1F, size: 0x8, addend: 0x0, symName: __RNvXsb_NtCsATtFUPiRFW_3syn4exprNtB5_5IndexNtNtCs62MdaZFMefA_5quote14ident_fragment13IdentFragment3fmt, symObjAddr: 0x7744, symBinAddr: 0x4FD84, symSize: 0x3C }
  - { offset: 0xADD5C, size: 0x8, addend: 0x0, symName: __RNvXsb_NtCsATtFUPiRFW_3syn4exprNtB5_5IndexNtNtCs62MdaZFMefA_5quote14ident_fragment13IdentFragment4span, symObjAddr: 0x7780, symBinAddr: 0x4FDC0, symSize: 0x3C }
  - { offset: 0xADD95, size: 0x8, addend: 0x0, symName: __RNvXNtNtCsATtFUPiRFW_3syn4expr7parsingNtB4_4ExprNtNtB6_5parse5Parse5parse, symObjAddr: 0x77BC, symBinAddr: 0x4FDFC, symSize: 0x3C }
  - { offset: 0xADDC9, size: 0x8, addend: 0x0, symName: __RNvXs1_NtNtCsATtFUPiRFW_3syn4expr7parsingNtB7_9ExprMacroNtNtB9_5parse5Parse5parse, symObjAddr: 0x77F8, symBinAddr: 0x4FE38, symSize: 0x16C }
  - { offset: 0xADE1C, size: 0x8, addend: 0x0, symName: __RNvXs2_NtNtCsATtFUPiRFW_3syn4expr7parsingNtB7_9ExprArrayNtNtB9_5parse5Parse5parse, symObjAddr: 0x7964, symBinAddr: 0x4FFA4, symSize: 0x488 }
  - { offset: 0xADF4D, size: 0x8, addend: 0x0, symName: __RNvXs3_NtNtCsATtFUPiRFW_3syn4expr7parsingNtB7_10ExprRepeatNtNtB9_5parse5Parse5parse, symObjAddr: 0x7DEC, symBinAddr: 0x5042C, symSize: 0x48C }
  - { offset: 0xAE048, size: 0x8, addend: 0x0, symName: __RNvXs4_NtNtCsATtFUPiRFW_3syn4expr7parsingNtB7_7ExprLitNtNtB9_5parse5Parse5parse, symObjAddr: 0x8278, symBinAddr: 0x508B8, symSize: 0x14C }
  - { offset: 0xAE09B, size: 0x8, addend: 0x0, symName: __RNvXs5_NtNtCsATtFUPiRFW_3syn4expr7parsingNtB7_9ExprParenNtNtB9_5parse5Parse5parse, symObjAddr: 0x83C4, symBinAddr: 0x50A04, symSize: 0x2B4 }
  - { offset: 0xAE138, size: 0x8, addend: 0x0, symName: __RNvXs6_NtNtCsATtFUPiRFW_3syn4expr7parsingNtB7_7ExprLetNtNtB9_5parse5Parse5parse, symObjAddr: 0x8678, symBinAddr: 0x50CB8, symSize: 0x44 }
  - { offset: 0xAE181, size: 0x8, addend: 0x0, symName: __RNvXs7_NtNtCsATtFUPiRFW_3syn4expr7parsingNtB7_6ExprIfNtNtB9_5parse5Parse5parse, symObjAddr: 0x86BC, symBinAddr: 0x50CFC, symSize: 0x1018 }
  - { offset: 0xAE3F6, size: 0x8, addend: 0x0, symName: __RNvXs8_NtNtCsATtFUPiRFW_3syn4expr7parsingNtB7_9ExprInferNtNtB9_5parse5Parse5parse, symObjAddr: 0x96D4, symBinAddr: 0x51D14, symSize: 0x1E0 }
  - { offset: 0xAE487, size: 0x8, addend: 0x0, symName: __RNvXs9_NtNtCsATtFUPiRFW_3syn4expr7parsingNtB7_11ExprForLoopNtNtB9_5parse5Parse5parse, symObjAddr: 0x98B4, symBinAddr: 0x51EF4, symSize: 0x9B8 }
  - { offset: 0xAE753, size: 0x8, addend: 0x0, symName: __RNvXsa_NtNtCsATtFUPiRFW_3syn4expr7parsingNtB7_8ExprLoopNtNtB9_5parse5Parse5parse, symObjAddr: 0xA26C, symBinAddr: 0x528AC, symSize: 0x5A4 }
  - { offset: 0xAE904, size: 0x8, addend: 0x0, symName: __RNvXsb_NtNtCsATtFUPiRFW_3syn4expr7parsingNtB7_9ExprMatchNtNtB9_5parse5Parse5parse, symObjAddr: 0xA810, symBinAddr: 0x52E50, symSize: 0x620 }
  - { offset: 0xAEAEB, size: 0x8, addend: 0x0, symName: __RNvXsc_NtNtCsATtFUPiRFW_3syn4expr7parsingNtB7_9ExprUnaryNtNtB9_5parse5Parse5parse, symObjAddr: 0xAE30, symBinAddr: 0x53470, symSize: 0x60 }
  - { offset: 0xAEB5A, size: 0x8, addend: 0x0, symName: __RNvXsd_NtNtCsATtFUPiRFW_3syn4expr7parsingNtB7_11ExprClosureNtNtB9_5parse5Parse5parse, symObjAddr: 0xAE90, symBinAddr: 0x534D0, symSize: 0x44 }
  - { offset: 0xAEBA3, size: 0x8, addend: 0x0, symName: __RNvXse_NtNtCsATtFUPiRFW_3syn4expr7parsingNtB7_11ExprRawAddrNtNtB9_5parse5Parse5parse, symObjAddr: 0xAED4, symBinAddr: 0x53514, symSize: 0x40C }
  - { offset: 0xAEC89, size: 0x8, addend: 0x0, symName: __RNvXsf_NtNtCsATtFUPiRFW_3syn4expr7parsingNtB7_13ExprReferenceNtNtB9_5parse5Parse5parse, symObjAddr: 0xB2E0, symBinAddr: 0x53920, symSize: 0x35C }
  - { offset: 0xAED4F, size: 0x8, addend: 0x0, symName: __RNvXsg_NtNtCsATtFUPiRFW_3syn4expr7parsingNtB7_9ExprBreakNtNtB9_5parse5Parse5parse, symObjAddr: 0xB63C, symBinAddr: 0x53C7C, symSize: 0x44 }
  - { offset: 0xAED98, size: 0x8, addend: 0x0, symName: __RNvXsh_NtNtCsATtFUPiRFW_3syn4expr7parsingNtB7_10ExprReturnNtNtB9_5parse5Parse5parse, symObjAddr: 0xB680, symBinAddr: 0x53CC0, symSize: 0x224 }
  - { offset: 0xAEDFA, size: 0x8, addend: 0x0, symName: __RNvXsi_NtNtCsATtFUPiRFW_3syn4expr7parsingNtB7_12ExprTryBlockNtNtB9_5parse5Parse5parse, symObjAddr: 0xB8A4, symBinAddr: 0x53EE4, symSize: 0x230 }
  - { offset: 0xAEE6C, size: 0x8, addend: 0x0, symName: __RNvXsj_NtNtCsATtFUPiRFW_3syn4expr7parsingNtB7_9ExprYieldNtNtB9_5parse5Parse5parse, symObjAddr: 0xBAD4, symBinAddr: 0x54114, symSize: 0x224 }
  - { offset: 0xAEECE, size: 0x8, addend: 0x0, symName: __RNvXsk_NtNtCsATtFUPiRFW_3syn4expr7parsingNtB7_9ExprAsyncNtNtB9_5parse5Parse5parse, symObjAddr: 0xBCF8, symBinAddr: 0x54338, symSize: 0x2F4 }
  - { offset: 0xAEF5F, size: 0x8, addend: 0x0, symName: __RNvXsl_NtNtCsATtFUPiRFW_3syn4expr7parsingNtB7_9ExprWhileNtNtB9_5parse5Parse5parse, symObjAddr: 0xBFEC, symBinAddr: 0x5462C, symSize: 0x774 }
  - { offset: 0xAF193, size: 0x8, addend: 0x0, symName: __RNvXsm_NtNtCsATtFUPiRFW_3syn4expr7parsingNtB7_9ExprConstNtNtB9_5parse5Parse5parse, symObjAddr: 0xC760, symBinAddr: 0x54DA0, symSize: 0x3C8 }
  - { offset: 0xAF2E7, size: 0x8, addend: 0x0, symName: __RNvXsn_NtNtCsATtFUPiRFW_3syn4expr7parsingNtB7_5LabelNtNtB9_5parse5Parse5parse, symObjAddr: 0xCB28, symBinAddr: 0x55168, symSize: 0x1E4 }
  - { offset: 0xAF378, size: 0x8, addend: 0x0, symName: __RNvXsp_NtNtCsATtFUPiRFW_3syn4expr7parsingNtB7_12ExprContinueNtNtB9_5parse5Parse5parse, symObjAddr: 0xCD0C, symBinAddr: 0x5534C, symSize: 0x210 }
  - { offset: 0xAF3EA, size: 0x8, addend: 0x0, symName: __RNvXsq_NtNtCsATtFUPiRFW_3syn4expr7parsingNtB7_10FieldValueNtNtB9_5parse5Parse5parse, symObjAddr: 0xCF1C, symBinAddr: 0x5555C, symSize: 0x56C }
  - { offset: 0xAF587, size: 0x8, addend: 0x0, symName: __RNvXsr_NtNtCsATtFUPiRFW_3syn4expr7parsingNtB7_10ExprStructNtNtB9_5parse5Parse5parse, symObjAddr: 0xD488, symBinAddr: 0x55AC8, symSize: 0x1C0 }
  - { offset: 0xAF61F, size: 0x8, addend: 0x0, symName: __RNvXss_NtNtCsATtFUPiRFW_3syn4expr7parsingNtB7_10ExprUnsafeNtNtB9_5parse5Parse5parse, symObjAddr: 0xD648, symBinAddr: 0x55C88, symSize: 0x3C8 }
  - { offset: 0xAF773, size: 0x8, addend: 0x0, symName: __RNvXst_NtNtCsATtFUPiRFW_3syn4expr7parsingNtB7_9ExprBlockNtNtB9_5parse5Parse5parse, symObjAddr: 0xDA10, symBinAddr: 0x56050, symSize: 0x510 }
  - { offset: 0xAF8F8, size: 0x8, addend: 0x0, symName: __RNvXsu_NtNtCsATtFUPiRFW_3syn4expr7parsingNtB7_11RangeLimitsNtNtB9_5parse5Parse5parse, symObjAddr: 0xDF20, symBinAddr: 0x56560, symSize: 0x24C }
  - { offset: 0xAF983, size: 0x8, addend: 0x0, symName: __RNvXsw_NtNtCsATtFUPiRFW_3syn4expr7parsingNtB7_8ExprPathNtNtB9_5parse5Parse5parse, symObjAddr: 0xE4C0, symBinAddr: 0x56B00, symSize: 0x248 }
  - { offset: 0xAFA70, size: 0x8, addend: 0x0, symName: __RNvXsx_NtNtCsATtFUPiRFW_3syn4expr7parsingNtB7_6MemberNtNtB9_5parse5Parse5parse, symObjAddr: 0xE708, symBinAddr: 0x56D48, symSize: 0x110 }
  - { offset: 0xAFAA4, size: 0x8, addend: 0x0, symName: __RNvXsz_NtNtCsATtFUPiRFW_3syn4expr7parsingNtB7_3ArmNtNtB9_5parse5Parse5parse, symObjAddr: 0xE9E8, symBinAddr: 0x57028, symSize: 0x91C }
  - { offset: 0xAFCD9, size: 0x8, addend: 0x0, symName: __RNvXsA_NtNtCsATtFUPiRFW_3syn4expr7parsingNtB7_5IndexNtNtB9_5parse5Parse5parse, symObjAddr: 0xF304, symBinAddr: 0x57944, symSize: 0x29C }
  - { offset: 0xAFD81, size: 0x8, addend: 0x0, symName: __RNvXsB_NtNtCsATtFUPiRFW_3syn4expr7parsingNtB7_17PointerMutabilityNtNtB9_5parse5Parse5parse, symObjAddr: 0xF5A0, symBinAddr: 0x57BE0, symSize: 0x2DC }
  - { offset: 0xAFE01, size: 0x8, addend: 0x0, symName: __RNvXsC_NtNtCsATtFUPiRFW_3syn4expr7parsingNtB7_10ExprAssignNtNtB9_5parse5Parse5parse, symObjAddr: 0x12638, symBinAddr: 0x5AC78, symSize: 0x44C }
  - { offset: 0xAFEC0, size: 0x8, addend: 0x0, symName: __RNvXsD_NtNtCsATtFUPiRFW_3syn4expr7parsingNtB7_9ExprAwaitNtNtB9_5parse5Parse5parse, symObjAddr: 0x12A84, symBinAddr: 0x5B0C4, symSize: 0x44C }
  - { offset: 0xAFF7F, size: 0x8, addend: 0x0, symName: __RNvXsE_NtNtCsATtFUPiRFW_3syn4expr7parsingNtB7_10ExprBinaryNtNtB9_5parse5Parse5parse, symObjAddr: 0x12ED0, symBinAddr: 0x5B510, symSize: 0x44C }
  - { offset: 0xB003E, size: 0x8, addend: 0x0, symName: __RNvXsF_NtNtCsATtFUPiRFW_3syn4expr7parsingNtB7_8ExprCallNtNtB9_5parse5Parse5parse, symObjAddr: 0x1331C, symBinAddr: 0x5B95C, symSize: 0x44C }
  - { offset: 0xB00FD, size: 0x8, addend: 0x0, symName: __RNvXsG_NtNtCsATtFUPiRFW_3syn4expr7parsingNtB7_8ExprCastNtNtB9_5parse5Parse5parse, symObjAddr: 0x13768, symBinAddr: 0x5BDA8, symSize: 0x44C }
  - { offset: 0xB01BC, size: 0x8, addend: 0x0, symName: __RNvXsH_NtNtCsATtFUPiRFW_3syn4expr7parsingNtB7_9ExprFieldNtNtB9_5parse5Parse5parse, symObjAddr: 0x13BB4, symBinAddr: 0x5C1F4, symSize: 0x44C }
  - { offset: 0xB027B, size: 0x8, addend: 0x0, symName: __RNvXsI_NtNtCsATtFUPiRFW_3syn4expr7parsingNtB7_9ExprIndexNtNtB9_5parse5Parse5parse, symObjAddr: 0x14000, symBinAddr: 0x5C640, symSize: 0x44C }
  - { offset: 0xB033A, size: 0x8, addend: 0x0, symName: __RNvXsJ_NtNtCsATtFUPiRFW_3syn4expr7parsingNtB7_14ExprMethodCallNtNtB9_5parse5Parse5parse, symObjAddr: 0x1444C, symBinAddr: 0x5CA8C, symSize: 0x44C }
  - { offset: 0xB03F9, size: 0x8, addend: 0x0, symName: __RNvXsK_NtNtCsATtFUPiRFW_3syn4expr7parsingNtB7_9ExprRangeNtNtB9_5parse5Parse5parse, symObjAddr: 0x14898, symBinAddr: 0x5CED8, symSize: 0x44C }
  - { offset: 0xB04B8, size: 0x8, addend: 0x0, symName: __RNvXsL_NtNtCsATtFUPiRFW_3syn4expr7parsingNtB7_7ExprTryNtNtB9_5parse5Parse5parse, symObjAddr: 0x14CE4, symBinAddr: 0x5D324, symSize: 0x44C }
  - { offset: 0xB0577, size: 0x8, addend: 0x0, symName: __RNvXsM_NtNtCsATtFUPiRFW_3syn4expr7parsingNtB7_9ExprTupleNtNtB9_5parse5Parse5parse, symObjAddr: 0x15130, symBinAddr: 0x5D770, symSize: 0x44C }
  - { offset: 0xB0651, size: 0x8, addend: 0x0, symName: __RNvXNtNtCsATtFUPiRFW_3syn4expr8printingNtB4_9ExprArrayNtNtCs62MdaZFMefA_5quote9to_tokens8ToTokens9to_tokens, symObjAddr: 0xF87C, symBinAddr: 0x57EBC, symSize: 0x58 }
  - { offset: 0xB0690, size: 0x8, addend: 0x0, symName: __RNvXs_NtNtCsATtFUPiRFW_3syn4expr8printingNtB6_10ExprAssignNtNtCs62MdaZFMefA_5quote9to_tokens8ToTokens9to_tokens, symObjAddr: 0xF8D4, symBinAddr: 0x57F14, symSize: 0x58 }
  - { offset: 0xB06CF, size: 0x8, addend: 0x0, symName: __RNvXs0_NtNtCsATtFUPiRFW_3syn4expr8printingNtB7_9ExprAsyncNtNtCs62MdaZFMefA_5quote9to_tokens8ToTokens9to_tokens, symObjAddr: 0xF92C, symBinAddr: 0x57F6C, symSize: 0x74 }
  - { offset: 0xB070E, size: 0x8, addend: 0x0, symName: __RNvXs1_NtNtCsATtFUPiRFW_3syn4expr8printingNtB7_9ExprAwaitNtNtCs62MdaZFMefA_5quote9to_tokens8ToTokens9to_tokens, symObjAddr: 0xF9A0, symBinAddr: 0x57FE0, symSize: 0x58 }
  - { offset: 0xB074D, size: 0x8, addend: 0x0, symName: __RNvXs2_NtNtCsATtFUPiRFW_3syn4expr8printingNtB7_10ExprBinaryNtNtCs62MdaZFMefA_5quote9to_tokens8ToTokens9to_tokens, symObjAddr: 0xF9F8, symBinAddr: 0x58038, symSize: 0x58 }
  - { offset: 0xB078C, size: 0x8, addend: 0x0, symName: __RNvXs3_NtNtCsATtFUPiRFW_3syn4expr8printingNtB7_9ExprBlockNtNtCs62MdaZFMefA_5quote9to_tokens8ToTokens9to_tokens, symObjAddr: 0xFA50, symBinAddr: 0x58090, symSize: 0x68 }
  - { offset: 0xB07CB, size: 0x8, addend: 0x0, symName: __RNvXs4_NtNtCsATtFUPiRFW_3syn4expr8printingNtB7_9ExprBreakNtNtCs62MdaZFMefA_5quote9to_tokens8ToTokens9to_tokens, symObjAddr: 0xFAB8, symBinAddr: 0x580F8, symSize: 0x58 }
  - { offset: 0xB080A, size: 0x8, addend: 0x0, symName: __RNvXs5_NtNtCsATtFUPiRFW_3syn4expr8printingNtB7_8ExprCallNtNtCs62MdaZFMefA_5quote9to_tokens8ToTokens9to_tokens, symObjAddr: 0xFB10, symBinAddr: 0x58150, symSize: 0x58 }
  - { offset: 0xB0849, size: 0x8, addend: 0x0, symName: __RNvXs6_NtNtCsATtFUPiRFW_3syn4expr8printingNtB7_8ExprCastNtNtCs62MdaZFMefA_5quote9to_tokens8ToTokens9to_tokens, symObjAddr: 0xFB68, symBinAddr: 0x581A8, symSize: 0x58 }
  - { offset: 0xB0888, size: 0x8, addend: 0x0, symName: __RNvXs7_NtNtCsATtFUPiRFW_3syn4expr8printingNtB7_11ExprClosureNtNtCs62MdaZFMefA_5quote9to_tokens8ToTokens9to_tokens, symObjAddr: 0xFBC0, symBinAddr: 0x58200, symSize: 0x58 }
  - { offset: 0xB08C7, size: 0x8, addend: 0x0, symName: __RNvXs8_NtNtCsATtFUPiRFW_3syn4expr8printingNtB7_9ExprConstNtNtCs62MdaZFMefA_5quote9to_tokens8ToTokens9to_tokens, symObjAddr: 0xFC18, symBinAddr: 0x58258, symSize: 0x68 }
  - { offset: 0xB0906, size: 0x8, addend: 0x0, symName: __RNvXs9_NtNtCsATtFUPiRFW_3syn4expr8printingNtB7_12ExprContinueNtNtCs62MdaZFMefA_5quote9to_tokens8ToTokens9to_tokens, symObjAddr: 0xFC80, symBinAddr: 0x582C0, symSize: 0x64 }
  - { offset: 0xB0945, size: 0x8, addend: 0x0, symName: __RNvXsa_NtNtCsATtFUPiRFW_3syn4expr8printingNtB7_9ExprFieldNtNtCs62MdaZFMefA_5quote9to_tokens8ToTokens9to_tokens, symObjAddr: 0xFCE4, symBinAddr: 0x58324, symSize: 0x58 }
  - { offset: 0xB0984, size: 0x8, addend: 0x0, symName: __RNvXsb_NtNtCsATtFUPiRFW_3syn4expr8printingNtB7_11ExprForLoopNtNtCs62MdaZFMefA_5quote9to_tokens8ToTokens9to_tokens, symObjAddr: 0xFD3C, symBinAddr: 0x5837C, symSize: 0xC0 }
  - { offset: 0xB09C3, size: 0x8, addend: 0x0, symName: __RNvXsc_NtNtCsATtFUPiRFW_3syn4expr8printingNtB7_9ExprGroupNtNtCs62MdaZFMefA_5quote9to_tokens8ToTokens9to_tokens, symObjAddr: 0xFDFC, symBinAddr: 0x5843C, symSize: 0x58 }
  - { offset: 0xB0A02, size: 0x8, addend: 0x0, symName: __RNvXsd_NtNtCsATtFUPiRFW_3syn4expr8printingNtB7_6ExprIfNtNtCs62MdaZFMefA_5quote9to_tokens8ToTokens9to_tokens, symObjAddr: 0xFE54, symBinAddr: 0x58494, symSize: 0x1DC }
  - { offset: 0xB0AD8, size: 0x8, addend: 0x0, symName: __RNvXse_NtNtCsATtFUPiRFW_3syn4expr8printingNtB7_9ExprIndexNtNtCs62MdaZFMefA_5quote9to_tokens8ToTokens9to_tokens, symObjAddr: 0x10030, symBinAddr: 0x58670, symSize: 0x58 }
  - { offset: 0xB0B17, size: 0x8, addend: 0x0, symName: __RNvXsf_NtNtCsATtFUPiRFW_3syn4expr8printingNtB7_9ExprInferNtNtCs62MdaZFMefA_5quote9to_tokens8ToTokens9to_tokens, symObjAddr: 0x10088, symBinAddr: 0x586C8, symSize: 0x54 }
  - { offset: 0xB0B56, size: 0x8, addend: 0x0, symName: __RNvXsg_NtNtCsATtFUPiRFW_3syn4expr8printingNtB7_7ExprLetNtNtCs62MdaZFMefA_5quote9to_tokens8ToTokens9to_tokens, symObjAddr: 0x100DC, symBinAddr: 0x5871C, symSize: 0x58 }
  - { offset: 0xB0B95, size: 0x8, addend: 0x0, symName: __RNvXsh_NtNtCsATtFUPiRFW_3syn4expr8printingNtB7_7ExprLitNtNtCs62MdaZFMefA_5quote9to_tokens8ToTokens9to_tokens, symObjAddr: 0x10134, symBinAddr: 0x58774, symSize: 0x54 }
  - { offset: 0xB0BD4, size: 0x8, addend: 0x0, symName: __RNvXsi_NtNtCsATtFUPiRFW_3syn4expr8printingNtB7_8ExprLoopNtNtCs62MdaZFMefA_5quote9to_tokens8ToTokens9to_tokens, symObjAddr: 0x10188, symBinAddr: 0x587C8, symSize: 0x78 }
  - { offset: 0xB0C13, size: 0x8, addend: 0x0, symName: __RNvXsj_NtNtCsATtFUPiRFW_3syn4expr8printingNtB7_9ExprMacroNtNtCs62MdaZFMefA_5quote9to_tokens8ToTokens9to_tokens, symObjAddr: 0x10200, symBinAddr: 0x58840, symSize: 0x54 }
  - { offset: 0xB0C52, size: 0x8, addend: 0x0, symName: __RNvXsk_NtNtCsATtFUPiRFW_3syn4expr8printingNtB7_9ExprMatchNtNtCs62MdaZFMefA_5quote9to_tokens8ToTokens9to_tokens, symObjAddr: 0x10254, symBinAddr: 0x58894, symSize: 0x90 }
  - { offset: 0xB0C91, size: 0x8, addend: 0x0, symName: __RNvXsl_NtNtCsATtFUPiRFW_3syn4expr8printingNtB7_14ExprMethodCallNtNtCs62MdaZFMefA_5quote9to_tokens8ToTokens9to_tokens, symObjAddr: 0x102E4, symBinAddr: 0x58924, symSize: 0x58 }
  - { offset: 0xB0CD0, size: 0x8, addend: 0x0, symName: __RNvXsm_NtNtCsATtFUPiRFW_3syn4expr8printingNtB7_9ExprParenNtNtCs62MdaZFMefA_5quote9to_tokens8ToTokens9to_tokens, symObjAddr: 0x1033C, symBinAddr: 0x5897C, symSize: 0x58 }
  - { offset: 0xB0D0F, size: 0x8, addend: 0x0, symName: __RNvXsn_NtNtCsATtFUPiRFW_3syn4expr8printingNtB7_8ExprPathNtNtCs62MdaZFMefA_5quote9to_tokens8ToTokens9to_tokens, symObjAddr: 0x10394, symBinAddr: 0x589D4, symSize: 0x64 }
  - { offset: 0xB0D4E, size: 0x8, addend: 0x0, symName: __RNvXso_NtNtCsATtFUPiRFW_3syn4expr8printingNtB7_9ExprRangeNtNtCs62MdaZFMefA_5quote9to_tokens8ToTokens9to_tokens, symObjAddr: 0x103F8, symBinAddr: 0x58A38, symSize: 0x58 }
  - { offset: 0xB0D8D, size: 0x8, addend: 0x0, symName: __RNvXsp_NtNtCsATtFUPiRFW_3syn4expr8printingNtB7_11ExprRawAddrNtNtCs62MdaZFMefA_5quote9to_tokens8ToTokens9to_tokens, symObjAddr: 0x10450, symBinAddr: 0x58A90, symSize: 0x58 }
  - { offset: 0xB0DCC, size: 0x8, addend: 0x0, symName: __RNvXsq_NtNtCsATtFUPiRFW_3syn4expr8printingNtB7_13ExprReferenceNtNtCs62MdaZFMefA_5quote9to_tokens8ToTokens9to_tokens, symObjAddr: 0x104A8, symBinAddr: 0x58AE8, symSize: 0x58 }
  - { offset: 0xB0E0B, size: 0x8, addend: 0x0, symName: __RNvXsr_NtNtCsATtFUPiRFW_3syn4expr8printingNtB7_10ExprRepeatNtNtCs62MdaZFMefA_5quote9to_tokens8ToTokens9to_tokens, symObjAddr: 0x10500, symBinAddr: 0x58B40, symSize: 0x58 }
  - { offset: 0xB0E4A, size: 0x8, addend: 0x0, symName: __RNvXss_NtNtCsATtFUPiRFW_3syn4expr8printingNtB7_10ExprReturnNtNtCs62MdaZFMefA_5quote9to_tokens8ToTokens9to_tokens, symObjAddr: 0x10558, symBinAddr: 0x58B98, symSize: 0x58 }
  - { offset: 0xB0E89, size: 0x8, addend: 0x0, symName: __RNvXst_NtNtCsATtFUPiRFW_3syn4expr8printingNtB7_10ExprStructNtNtCs62MdaZFMefA_5quote9to_tokens8ToTokens9to_tokens, symObjAddr: 0x105B0, symBinAddr: 0x58BF0, symSize: 0x78 }
  - { offset: 0xB0EC8, size: 0x8, addend: 0x0, symName: __RNvXsu_NtNtCsATtFUPiRFW_3syn4expr8printingNtB7_7ExprTryNtNtCs62MdaZFMefA_5quote9to_tokens8ToTokens9to_tokens, symObjAddr: 0x10628, symBinAddr: 0x58C68, symSize: 0x58 }
  - { offset: 0xB0F07, size: 0x8, addend: 0x0, symName: __RNvXsv_NtNtCsATtFUPiRFW_3syn4expr8printingNtB7_12ExprTryBlockNtNtCs62MdaZFMefA_5quote9to_tokens8ToTokens9to_tokens, symObjAddr: 0x10680, symBinAddr: 0x58CC0, symSize: 0x64 }
  - { offset: 0xB0F46, size: 0x8, addend: 0x0, symName: __RNvXsw_NtNtCsATtFUPiRFW_3syn4expr8printingNtB7_9ExprTupleNtNtCs62MdaZFMefA_5quote9to_tokens8ToTokens9to_tokens, symObjAddr: 0x106E4, symBinAddr: 0x58D24, symSize: 0x58 }
  - { offset: 0xB0F85, size: 0x8, addend: 0x0, symName: __RNvXsx_NtNtCsATtFUPiRFW_3syn4expr8printingNtB7_9ExprUnaryNtNtCs62MdaZFMefA_5quote9to_tokens8ToTokens9to_tokens, symObjAddr: 0x1073C, symBinAddr: 0x58D7C, symSize: 0x58 }
  - { offset: 0xB0FC4, size: 0x8, addend: 0x0, symName: __RNvXsy_NtNtCsATtFUPiRFW_3syn4expr8printingNtB7_10ExprUnsafeNtNtCs62MdaZFMefA_5quote9to_tokens8ToTokens9to_tokens, symObjAddr: 0x10794, symBinAddr: 0x58DD4, symSize: 0x68 }
  - { offset: 0xB1003, size: 0x8, addend: 0x0, symName: __RNvXsz_NtNtCsATtFUPiRFW_3syn4expr8printingNtB7_9ExprWhileNtNtCs62MdaZFMefA_5quote9to_tokens8ToTokens9to_tokens, symObjAddr: 0x107FC, symBinAddr: 0x58E3C, symSize: 0xA0 }
  - { offset: 0xB1042, size: 0x8, addend: 0x0, symName: __RNvXsA_NtNtCsATtFUPiRFW_3syn4expr8printingNtB7_9ExprYieldNtNtCs62MdaZFMefA_5quote9to_tokens8ToTokens9to_tokens, symObjAddr: 0x1089C, symBinAddr: 0x58EDC, symSize: 0x58 }
  - { offset: 0xB1081, size: 0x8, addend: 0x0, symName: __RNvXsB_NtNtCsATtFUPiRFW_3syn4expr8printingNtB7_3ArmNtNtCs62MdaZFMefA_5quote9to_tokens8ToTokens9to_tokens, symObjAddr: 0x108F4, symBinAddr: 0x58F34, symSize: 0x10C }
  - { offset: 0xB10EE, size: 0x8, addend: 0x0, symName: __RNvXsC_NtNtCsATtFUPiRFW_3syn4expr8printingNtB7_10FieldValueNtNtCs62MdaZFMefA_5quote9to_tokens8ToTokens9to_tokens, symObjAddr: 0x10A00, symBinAddr: 0x59040, symSize: 0xB0 }
  - { offset: 0xB114B, size: 0x8, addend: 0x0, symName: __RNvXsD_NtNtCsATtFUPiRFW_3syn4expr8printingNtB7_5IndexNtNtCs62MdaZFMefA_5quote9to_tokens8ToTokens9to_tokens, symObjAddr: 0x10AB0, symBinAddr: 0x590F0, symSize: 0xD4 }
  - { offset: 0xB11A0, size: 0x8, addend: 0x0, symName: __RNvXsE_NtNtCsATtFUPiRFW_3syn4expr8printingNtB7_5LabelNtNtCs62MdaZFMefA_5quote9to_tokens8ToTokens9to_tokens, symObjAddr: 0x10B84, symBinAddr: 0x591C4, symSize: 0x50 }
  - { offset: 0xB11DF, size: 0x8, addend: 0x0, symName: __RNvXsF_NtNtCsATtFUPiRFW_3syn4expr8printingNtB7_6MemberNtNtCs62MdaZFMefA_5quote9to_tokens8ToTokens9to_tokens, symObjAddr: 0x10BD4, symBinAddr: 0x59214, symSize: 0x98 }
  - { offset: 0xB1252, size: 0x8, addend: 0x0, symName: __RNvXsG_NtNtCsATtFUPiRFW_3syn4expr8printingNtB7_11RangeLimitsNtNtCs62MdaZFMefA_5quote9to_tokens8ToTokens9to_tokens, symObjAddr: 0x10C6C, symBinAddr: 0x592AC, symSize: 0x94 }
  - { offset: 0xB12C5, size: 0x8, addend: 0x0, symName: __RNvXsH_NtNtCsATtFUPiRFW_3syn4expr8printingNtB7_17PointerMutabilityNtNtCs62MdaZFMefA_5quote9to_tokens8ToTokens9to_tokens, symObjAddr: 0x10D00, symBinAddr: 0x59340, symSize: 0x94 }
  - { offset: 0xB133E, size: 0x8, addend: 0x0, symName: __RNcNtNtNtCsATtFUPiRFW_3syn4expr4Expr5Async0B7_, symObjAddr: 0x10D94, symBinAddr: 0x593D4, symSize: 0x3C }
  - { offset: 0xB136D, size: 0x8, addend: 0x0, symName: __RNcNtNtNtCsATtFUPiRFW_3syn4expr4Expr5Block0B7_, symObjAddr: 0x10DD0, symBinAddr: 0x59410, symSize: 0x3C }
  - { offset: 0xB139C, size: 0x8, addend: 0x0, symName: __RNcNtNtNtCsATtFUPiRFW_3syn4expr4Expr5Break0B7_, symObjAddr: 0x10E0C, symBinAddr: 0x5944C, symSize: 0x3C }
  - { offset: 0xB13CB, size: 0x8, addend: 0x0, symName: __RNcNtNtNtCsATtFUPiRFW_3syn4expr4Expr7Closure0B7_, symObjAddr: 0x10E48, symBinAddr: 0x59488, symSize: 0x3C }
  - { offset: 0xB13FA, size: 0x8, addend: 0x0, symName: __RNcNtNtNtCsATtFUPiRFW_3syn4expr4Expr5Const0B7_, symObjAddr: 0x10E84, symBinAddr: 0x594C4, symSize: 0x3C }
  - { offset: 0xB1429, size: 0x8, addend: 0x0, symName: __RNcNtNtNtCsATtFUPiRFW_3syn4expr4Expr8Continue0B7_, symObjAddr: 0x10EC0, symBinAddr: 0x59500, symSize: 0x3C }
  - { offset: 0xB1458, size: 0x8, addend: 0x0, symName: __RNcNtNtNtCsATtFUPiRFW_3syn4expr4Expr7ForLoop0B7_, symObjAddr: 0x10EFC, symBinAddr: 0x5953C, symSize: 0x3C }
  - { offset: 0xB1487, size: 0x8, addend: 0x0, symName: __RNcNtNtNtCsATtFUPiRFW_3syn4expr4Expr2If0B7_, symObjAddr: 0x10F38, symBinAddr: 0x59578, symSize: 0x3C }
  - { offset: 0xB14B6, size: 0x8, addend: 0x0, symName: __RNcNtNtNtCsATtFUPiRFW_3syn4expr4Expr5Infer0B7_, symObjAddr: 0x10F74, symBinAddr: 0x595B4, symSize: 0x20 }
  - { offset: 0xB14E4, size: 0x8, addend: 0x0, symName: __RNcNtNtNtCsATtFUPiRFW_3syn4expr4Expr3Let0B7_, symObjAddr: 0x10F94, symBinAddr: 0x595D4, symSize: 0x3C }
  - { offset: 0xB1513, size: 0x8, addend: 0x0, symName: __RNcNtNtNtCsATtFUPiRFW_3syn4expr4Expr3Lit0B7_, symObjAddr: 0x10FD0, symBinAddr: 0x59610, symSize: 0x3C }
  - { offset: 0xB1542, size: 0x8, addend: 0x0, symName: __RNcNtNtNtCsATtFUPiRFW_3syn4expr4Expr4Loop0B7_, symObjAddr: 0x1100C, symBinAddr: 0x5964C, symSize: 0x3C }
  - { offset: 0xB1571, size: 0x8, addend: 0x0, symName: __RNcNtNtNtCsATtFUPiRFW_3syn4expr4Expr5Match0B7_, symObjAddr: 0x11048, symBinAddr: 0x59688, symSize: 0x3C }
  - { offset: 0xB15A0, size: 0x8, addend: 0x0, symName: __RNcNtNtNtCsATtFUPiRFW_3syn4expr4Expr5Range0B7_, symObjAddr: 0x11084, symBinAddr: 0x596C4, symSize: 0x3C }
  - { offset: 0xB15CF, size: 0x8, addend: 0x0, symName: __RNcNtNtNtCsATtFUPiRFW_3syn4expr4Expr6Return0B7_, symObjAddr: 0x110C0, symBinAddr: 0x59700, symSize: 0x3C }
  - { offset: 0xB15FE, size: 0x8, addend: 0x0, symName: __RNcNtNtNtCsATtFUPiRFW_3syn4expr4Expr6Struct0B7_, symObjAddr: 0x110FC, symBinAddr: 0x5973C, symSize: 0x3C }
  - { offset: 0xB162D, size: 0x8, addend: 0x0, symName: __RNcNtNtNtCsATtFUPiRFW_3syn4expr4Expr8TryBlock0B7_, symObjAddr: 0x11138, symBinAddr: 0x59778, symSize: 0x3C }
  - { offset: 0xB165C, size: 0x8, addend: 0x0, symName: __RNcNtNtNtCsATtFUPiRFW_3syn4expr4Expr5Unary0B7_, symObjAddr: 0x11174, symBinAddr: 0x597B4, symSize: 0x3C }
  - { offset: 0xB168B, size: 0x8, addend: 0x0, symName: __RNcNtNtNtCsATtFUPiRFW_3syn4expr4Expr6Unsafe0B7_, symObjAddr: 0x111B0, symBinAddr: 0x597F0, symSize: 0x3C }
  - { offset: 0xB16BA, size: 0x8, addend: 0x0, symName: __RNcNtNtNtCsATtFUPiRFW_3syn4expr4Expr5While0B7_, symObjAddr: 0x111EC, symBinAddr: 0x5982C, symSize: 0x3C }
  - { offset: 0xB16E9, size: 0x8, addend: 0x0, symName: __RNcNtNtNtCsATtFUPiRFW_3syn4expr4Expr5Yield0B7_, symObjAddr: 0x11228, symBinAddr: 0x59868, symSize: 0x3C }
  - { offset: 0xB1719, size: 0x8, addend: 0x0, symName: __RNvXsc_NtCsATtFUPiRFW_3syn4exprNtB5_4ExprINtNtCs9f3LFPSIp77_4core7convert4FromNtB5_9ExprArrayE4from, symObjAddr: 0x11264, symBinAddr: 0x598A4, symSize: 0x48 }
  - { offset: 0xB174C, size: 0x8, addend: 0x0, symName: __RNvXsd_NtCsATtFUPiRFW_3syn4exprNtB5_4ExprINtNtCs9f3LFPSIp77_4core7convert4FromNtB5_10ExprAssignE4from, symObjAddr: 0x112AC, symBinAddr: 0x598EC, symSize: 0x50 }
  - { offset: 0xB177F, size: 0x8, addend: 0x0, symName: __RNvXse_NtCsATtFUPiRFW_3syn4exprNtB5_4ExprINtNtCs9f3LFPSIp77_4core7convert4FromNtB5_9ExprAsyncE4from, symObjAddr: 0x112FC, symBinAddr: 0x5993C, symSize: 0x4C }
  - { offset: 0xB17B2, size: 0x8, addend: 0x0, symName: __RNvXsf_NtCsATtFUPiRFW_3syn4exprNtB5_4ExprINtNtCs9f3LFPSIp77_4core7convert4FromNtB5_9ExprAwaitE4from, symObjAddr: 0x11348, symBinAddr: 0x59988, symSize: 0x4C }
  - { offset: 0xB17E5, size: 0x8, addend: 0x0, symName: __RNvXsg_NtCsATtFUPiRFW_3syn4exprNtB5_4ExprINtNtCs9f3LFPSIp77_4core7convert4FromNtB5_10ExprBinaryE4from, symObjAddr: 0x11394, symBinAddr: 0x599D4, symSize: 0x4C }
  - { offset: 0xB1818, size: 0x8, addend: 0x0, symName: __RNvXsh_NtCsATtFUPiRFW_3syn4exprNtB5_4ExprINtNtCs9f3LFPSIp77_4core7convert4FromNtB5_9ExprBlockE4from, symObjAddr: 0x113E0, symBinAddr: 0x59A20, symSize: 0x4C }
  - { offset: 0xB184B, size: 0x8, addend: 0x0, symName: __RNvXsi_NtCsATtFUPiRFW_3syn4exprNtB5_4ExprINtNtCs9f3LFPSIp77_4core7convert4FromNtB5_9ExprBreakE4from, symObjAddr: 0x1142C, symBinAddr: 0x59A6C, symSize: 0x4C }
  - { offset: 0xB187E, size: 0x8, addend: 0x0, symName: __RNvXsj_NtCsATtFUPiRFW_3syn4exprNtB5_4ExprINtNtCs9f3LFPSIp77_4core7convert4FromNtB5_8ExprCallE4from, symObjAddr: 0x11478, symBinAddr: 0x59AB8, symSize: 0x4C }
  - { offset: 0xB18B1, size: 0x8, addend: 0x0, symName: __RNvXsk_NtCsATtFUPiRFW_3syn4exprNtB5_4ExprINtNtCs9f3LFPSIp77_4core7convert4FromNtB5_8ExprCastE4from, symObjAddr: 0x114C4, symBinAddr: 0x59B04, symSize: 0x4C }
  - { offset: 0xB18E4, size: 0x8, addend: 0x0, symName: __RNvXsl_NtCsATtFUPiRFW_3syn4exprNtB5_4ExprINtNtCs9f3LFPSIp77_4core7convert4FromNtB5_11ExprClosureE4from, symObjAddr: 0x11510, symBinAddr: 0x59B50, symSize: 0x4C }
  - { offset: 0xB1917, size: 0x8, addend: 0x0, symName: __RNvXsm_NtCsATtFUPiRFW_3syn4exprNtB5_4ExprINtNtCs9f3LFPSIp77_4core7convert4FromNtB5_9ExprConstE4from, symObjAddr: 0x1155C, symBinAddr: 0x59B9C, symSize: 0x4C }
  - { offset: 0xB194A, size: 0x8, addend: 0x0, symName: __RNvXsn_NtCsATtFUPiRFW_3syn4exprNtB5_4ExprINtNtCs9f3LFPSIp77_4core7convert4FromNtB5_12ExprContinueE4from, symObjAddr: 0x115A8, symBinAddr: 0x59BE8, symSize: 0x4C }
  - { offset: 0xB197D, size: 0x8, addend: 0x0, symName: __RNvXso_NtCsATtFUPiRFW_3syn4exprNtB5_4ExprINtNtCs9f3LFPSIp77_4core7convert4FromNtB5_9ExprFieldE4from, symObjAddr: 0x115F4, symBinAddr: 0x59C34, symSize: 0x4C }
  - { offset: 0xB19B0, size: 0x8, addend: 0x0, symName: __RNvXsp_NtCsATtFUPiRFW_3syn4exprNtB5_4ExprINtNtCs9f3LFPSIp77_4core7convert4FromNtB5_11ExprForLoopE4from, symObjAddr: 0x11640, symBinAddr: 0x59C80, symSize: 0x4C }
  - { offset: 0xB19E3, size: 0x8, addend: 0x0, symName: __RNvXsq_NtCsATtFUPiRFW_3syn4exprNtB5_4ExprINtNtCs9f3LFPSIp77_4core7convert4FromNtB5_9ExprGroupE4from, symObjAddr: 0x1168C, symBinAddr: 0x59CCC, symSize: 0x4C }
  - { offset: 0xB1A16, size: 0x8, addend: 0x0, symName: __RNvXsr_NtCsATtFUPiRFW_3syn4exprNtB5_4ExprINtNtCs9f3LFPSIp77_4core7convert4FromNtB5_6ExprIfE4from, symObjAddr: 0x116D8, symBinAddr: 0x59D18, symSize: 0x4C }
  - { offset: 0xB1A49, size: 0x8, addend: 0x0, symName: __RNvXss_NtCsATtFUPiRFW_3syn4exprNtB5_4ExprINtNtCs9f3LFPSIp77_4core7convert4FromNtB5_9ExprIndexE4from, symObjAddr: 0x11724, symBinAddr: 0x59D64, symSize: 0x4C }
  - { offset: 0xB1A7C, size: 0x8, addend: 0x0, symName: __RNvXst_NtCsATtFUPiRFW_3syn4exprNtB5_4ExprINtNtCs9f3LFPSIp77_4core7convert4FromNtB5_9ExprInferE4from, symObjAddr: 0x11770, symBinAddr: 0x59DB0, symSize: 0x30 }
  - { offset: 0xB1AAE, size: 0x8, addend: 0x0, symName: __RNvXsu_NtCsATtFUPiRFW_3syn4exprNtB5_4ExprINtNtCs9f3LFPSIp77_4core7convert4FromNtB5_7ExprLetE4from, symObjAddr: 0x117A0, symBinAddr: 0x59DE0, symSize: 0x4C }
  - { offset: 0xB1AE1, size: 0x8, addend: 0x0, symName: __RNvXsv_NtCsATtFUPiRFW_3syn4exprNtB5_4ExprINtNtCs9f3LFPSIp77_4core7convert4FromNtB5_7ExprLitE4from, symObjAddr: 0x117EC, symBinAddr: 0x59E2C, symSize: 0x4C }
  - { offset: 0xB1B14, size: 0x8, addend: 0x0, symName: __RNvXsw_NtCsATtFUPiRFW_3syn4exprNtB5_4ExprINtNtCs9f3LFPSIp77_4core7convert4FromNtB5_8ExprLoopE4from, symObjAddr: 0x11838, symBinAddr: 0x59E78, symSize: 0x4C }
  - { offset: 0xB1B47, size: 0x8, addend: 0x0, symName: __RNvXsx_NtCsATtFUPiRFW_3syn4exprNtB5_4ExprINtNtCs9f3LFPSIp77_4core7convert4FromNtB5_9ExprMacroE4from, symObjAddr: 0x11884, symBinAddr: 0x59EC4, symSize: 0x4C }
  - { offset: 0xB1B7A, size: 0x8, addend: 0x0, symName: __RNvXsy_NtCsATtFUPiRFW_3syn4exprNtB5_4ExprINtNtCs9f3LFPSIp77_4core7convert4FromNtB5_9ExprMatchE4from, symObjAddr: 0x118D0, symBinAddr: 0x59F10, symSize: 0x4C }
  - { offset: 0xB1BAD, size: 0x8, addend: 0x0, symName: __RNvXsz_NtCsATtFUPiRFW_3syn4exprNtB5_4ExprINtNtCs9f3LFPSIp77_4core7convert4FromNtB5_14ExprMethodCallE4from, symObjAddr: 0x1191C, symBinAddr: 0x59F5C, symSize: 0x4C }
  - { offset: 0xB1BE0, size: 0x8, addend: 0x0, symName: __RNvXsA_NtCsATtFUPiRFW_3syn4exprNtB5_4ExprINtNtCs9f3LFPSIp77_4core7convert4FromNtB5_9ExprParenE4from, symObjAddr: 0x11968, symBinAddr: 0x59FA8, symSize: 0x4C }
  - { offset: 0xB1C13, size: 0x8, addend: 0x0, symName: __RNvXsB_NtCsATtFUPiRFW_3syn4exprNtB5_4ExprINtNtCs9f3LFPSIp77_4core7convert4FromNtB5_8ExprPathE4from, symObjAddr: 0x119B4, symBinAddr: 0x59FF4, symSize: 0x4C }
  - { offset: 0xB1C46, size: 0x8, addend: 0x0, symName: __RNvXsC_NtCsATtFUPiRFW_3syn4exprNtB5_4ExprINtNtCs9f3LFPSIp77_4core7convert4FromNtB5_9ExprRangeE4from, symObjAddr: 0x11A00, symBinAddr: 0x5A040, symSize: 0x4C }
  - { offset: 0xB1C79, size: 0x8, addend: 0x0, symName: __RNvXsD_NtCsATtFUPiRFW_3syn4exprNtB5_4ExprINtNtCs9f3LFPSIp77_4core7convert4FromNtB5_11ExprRawAddrE4from, symObjAddr: 0x11A4C, symBinAddr: 0x5A08C, symSize: 0x4C }
  - { offset: 0xB1CAC, size: 0x8, addend: 0x0, symName: __RNvXsE_NtCsATtFUPiRFW_3syn4exprNtB5_4ExprINtNtCs9f3LFPSIp77_4core7convert4FromNtB5_13ExprReferenceE4from, symObjAddr: 0x11A98, symBinAddr: 0x5A0D8, symSize: 0x4C }
  - { offset: 0xB1CDF, size: 0x8, addend: 0x0, symName: __RNvXsF_NtCsATtFUPiRFW_3syn4exprNtB5_4ExprINtNtCs9f3LFPSIp77_4core7convert4FromNtB5_10ExprRepeatE4from, symObjAddr: 0x11AE4, symBinAddr: 0x5A124, symSize: 0x4C }
  - { offset: 0xB1D12, size: 0x8, addend: 0x0, symName: __RNvXsG_NtCsATtFUPiRFW_3syn4exprNtB5_4ExprINtNtCs9f3LFPSIp77_4core7convert4FromNtB5_10ExprReturnE4from, symObjAddr: 0x11B30, symBinAddr: 0x5A170, symSize: 0x4C }
  - { offset: 0xB1D45, size: 0x8, addend: 0x0, symName: __RNvXsH_NtCsATtFUPiRFW_3syn4exprNtB5_4ExprINtNtCs9f3LFPSIp77_4core7convert4FromNtB5_10ExprStructE4from, symObjAddr: 0x11B7C, symBinAddr: 0x5A1BC, symSize: 0x4C }
  - { offset: 0xB1D78, size: 0x8, addend: 0x0, symName: __RNvXsI_NtCsATtFUPiRFW_3syn4exprNtB5_4ExprINtNtCs9f3LFPSIp77_4core7convert4FromNtB5_7ExprTryE4from, symObjAddr: 0x11BC8, symBinAddr: 0x5A208, symSize: 0x4C }
  - { offset: 0xB1DAB, size: 0x8, addend: 0x0, symName: __RNvXsJ_NtCsATtFUPiRFW_3syn4exprNtB5_4ExprINtNtCs9f3LFPSIp77_4core7convert4FromNtB5_12ExprTryBlockE4from, symObjAddr: 0x11C14, symBinAddr: 0x5A254, symSize: 0x4C }
  - { offset: 0xB1DDE, size: 0x8, addend: 0x0, symName: __RNvXsK_NtCsATtFUPiRFW_3syn4exprNtB5_4ExprINtNtCs9f3LFPSIp77_4core7convert4FromNtB5_9ExprTupleE4from, symObjAddr: 0x11C60, symBinAddr: 0x5A2A0, symSize: 0x4C }
  - { offset: 0xB1E11, size: 0x8, addend: 0x0, symName: __RNvXsL_NtCsATtFUPiRFW_3syn4exprNtB5_4ExprINtNtCs9f3LFPSIp77_4core7convert4FromNtB5_9ExprUnaryE4from, symObjAddr: 0x11CAC, symBinAddr: 0x5A2EC, symSize: 0x4C }
  - { offset: 0xB1E44, size: 0x8, addend: 0x0, symName: __RNvXsM_NtCsATtFUPiRFW_3syn4exprNtB5_4ExprINtNtCs9f3LFPSIp77_4core7convert4FromNtB5_10ExprUnsafeE4from, symObjAddr: 0x11CF8, symBinAddr: 0x5A338, symSize: 0x4C }
  - { offset: 0xB1E77, size: 0x8, addend: 0x0, symName: __RNvXsN_NtCsATtFUPiRFW_3syn4exprNtB5_4ExprINtNtCs9f3LFPSIp77_4core7convert4FromNtB5_9ExprWhileE4from, symObjAddr: 0x11D44, symBinAddr: 0x5A384, symSize: 0x4C }
  - { offset: 0xB1EAA, size: 0x8, addend: 0x0, symName: __RNvXsO_NtCsATtFUPiRFW_3syn4exprNtB5_4ExprINtNtCs9f3LFPSIp77_4core7convert4FromNtB5_9ExprYieldE4from, symObjAddr: 0x11D90, symBinAddr: 0x5A3D0, symSize: 0x4C }
  - { offset: 0xB1EDD, size: 0x8, addend: 0x0, symName: __RNvXsP_NtCsATtFUPiRFW_3syn4exprNtB5_4ExprNtNtCs62MdaZFMefA_5quote9to_tokens8ToTokens9to_tokens, symObjAddr: 0x11DDC, symBinAddr: 0x5A41C, symSize: 0x7D8 }
  - { offset: 0xB23BE, size: 0x8, addend: 0x0, symName: __RNcNtNtNtCsATtFUPiRFW_3syn4expr6Member5Named0B7_, symObjAddr: 0x125B4, symBinAddr: 0x5ABF4, symSize: 0x18 }
  - { offset: 0xB23EE, size: 0x8, addend: 0x0, symName: __RNcNtNtNtCsATtFUPiRFW_3syn4expr6Member7Unnamed0B7_, symObjAddr: 0x125CC, symBinAddr: 0x5AC0C, symSize: 0x28 }
  - { offset: 0xB2424, size: 0x8, addend: 0x0, symName: __RNcNtNtNtCsATtFUPiRFW_3syn4expr11RangeLimits8HalfOpen0B7_, symObjAddr: 0x125F4, symBinAddr: 0x5AC34, symSize: 0x24 }
  - { offset: 0xB2454, size: 0x8, addend: 0x0, symName: __RNcNtNtNtCsATtFUPiRFW_3syn4expr11RangeLimits6Closed0B7_, symObjAddr: 0x12618, symBinAddr: 0x5AC58, symSize: 0x20 }
  - { offset: 0xB4E0C, size: 0x8, addend: 0x0, symName: __RNvXs0_NtNtCsATtFUPiRFW_3syn3gen5cloneNtNtB9_4expr3ArmNtNtCs9f3LFPSIp77_4core5clone5Clone5clone, symObjAddr: 0x1557C, symBinAddr: 0x5DBBC, symSize: 0x1B4 }
  - { offset: 0xB4E3E, size: 0x8, addend: 0x0, symName: __RNvXsk_NtNtCsATtFUPiRFW_3syn3gen5cloneNtNtB9_4expr4ExprNtNtCs9f3LFPSIp77_4core5clone5Clone5clone, symObjAddr: 0x15730, symBinAddr: 0x5DD70, symSize: 0xE14 }
  - { offset: 0xB5333, size: 0x8, addend: 0x0, symName: __RNvXsl_NtNtCsATtFUPiRFW_3syn3gen5cloneNtNtB9_4expr9ExprArrayNtNtCs9f3LFPSIp77_4core5clone5Clone5clone, symObjAddr: 0x16544, symBinAddr: 0x5EB84, symSize: 0xC0 }
  - { offset: 0xB5367, size: 0x8, addend: 0x0, symName: __RNvXsm_NtNtCsATtFUPiRFW_3syn3gen5cloneNtNtB9_4expr10ExprAssignNtNtCs9f3LFPSIp77_4core5clone5Clone5clone, symObjAddr: 0x16604, symBinAddr: 0x5EC44, symSize: 0x100 }
  - { offset: 0xB539B, size: 0x8, addend: 0x0, symName: __RNvXsn_NtNtCsATtFUPiRFW_3syn3gen5cloneNtNtB9_4expr9ExprAsyncNtNtCs9f3LFPSIp77_4core5clone5Clone5clone, symObjAddr: 0x16704, symBinAddr: 0x5ED44, symSize: 0xE4 }
  - { offset: 0xB53CF, size: 0x8, addend: 0x0, symName: __RNvXso_NtNtCsATtFUPiRFW_3syn3gen5cloneNtNtB9_4expr9ExprAwaitNtNtCs9f3LFPSIp77_4core5clone5Clone5clone, symObjAddr: 0x167E8, symBinAddr: 0x5EE28, symSize: 0x100 }
  - { offset: 0xB5403, size: 0x8, addend: 0x0, symName: __RNvXsp_NtNtCsATtFUPiRFW_3syn3gen5cloneNtNtB9_4expr10ExprBinaryNtNtCs9f3LFPSIp77_4core5clone5Clone5clone, symObjAddr: 0x168E8, symBinAddr: 0x5EF28, symSize: 0xF0 }
  - { offset: 0xB5437, size: 0x8, addend: 0x0, symName: __RNvXsq_NtNtCsATtFUPiRFW_3syn3gen5cloneNtNtB9_4expr9ExprBlockNtNtCs9f3LFPSIp77_4core5clone5Clone5clone, symObjAddr: 0x169D8, symBinAddr: 0x5F018, symSize: 0xE8 }
  - { offset: 0xB546B, size: 0x8, addend: 0x0, symName: __RNvXsr_NtNtCsATtFUPiRFW_3syn3gen5cloneNtNtB9_4expr9ExprBreakNtNtCs9f3LFPSIp77_4core5clone5Clone5clone, symObjAddr: 0x16AC0, symBinAddr: 0x5F100, symSize: 0xF0 }
  - { offset: 0xB549F, size: 0x8, addend: 0x0, symName: __RNvXss_NtNtCsATtFUPiRFW_3syn3gen5cloneNtNtB9_4expr8ExprCallNtNtCs9f3LFPSIp77_4core5clone5Clone5clone, symObjAddr: 0x16BB0, symBinAddr: 0x5F1F0, symSize: 0x100 }
  - { offset: 0xB54D3, size: 0x8, addend: 0x0, symName: __RNvXst_NtNtCsATtFUPiRFW_3syn3gen5cloneNtNtB9_4expr8ExprCastNtNtCs9f3LFPSIp77_4core5clone5Clone5clone, symObjAddr: 0x16CB0, symBinAddr: 0x5F2F0, symSize: 0xF0 }
  - { offset: 0xB5507, size: 0x8, addend: 0x0, symName: __RNvXsu_NtNtCsATtFUPiRFW_3syn3gen5cloneNtNtB9_4expr11ExprClosureNtNtCs9f3LFPSIp77_4core5clone5Clone5clone, symObjAddr: 0x16DA0, symBinAddr: 0x5F3E0, symSize: 0x254 }
  - { offset: 0xB553B, size: 0x8, addend: 0x0, symName: __RNvXsv_NtNtCsATtFUPiRFW_3syn3gen5cloneNtNtB9_4expr9ExprConstNtNtCs9f3LFPSIp77_4core5clone5Clone5clone, symObjAddr: 0x16FF4, symBinAddr: 0x5F634, symSize: 0xBC }
  - { offset: 0xB556F, size: 0x8, addend: 0x0, symName: __RNvXsw_NtNtCsATtFUPiRFW_3syn3gen5cloneNtNtB9_4expr12ExprContinueNtNtCs9f3LFPSIp77_4core5clone5Clone5clone, symObjAddr: 0x170B0, symBinAddr: 0x5F6F0, symSize: 0xB8 }
  - { offset: 0xB55A3, size: 0x8, addend: 0x0, symName: __RNvXsx_NtNtCsATtFUPiRFW_3syn3gen5cloneNtNtB9_4expr9ExprFieldNtNtCs9f3LFPSIp77_4core5clone5Clone5clone, symObjAddr: 0x17168, symBinAddr: 0x5F7A8, symSize: 0x108 }
  - { offset: 0xB55D7, size: 0x8, addend: 0x0, symName: __RNvXsy_NtNtCsATtFUPiRFW_3syn3gen5cloneNtNtB9_4expr11ExprForLoopNtNtCs9f3LFPSIp77_4core5clone5Clone5clone, symObjAddr: 0x17270, symBinAddr: 0x5F8B0, symSize: 0x1A0 }
  - { offset: 0xB560B, size: 0x8, addend: 0x0, symName: __RNvXsz_NtNtCsATtFUPiRFW_3syn3gen5cloneNtNtB9_4expr9ExprGroupNtNtCs9f3LFPSIp77_4core5clone5Clone5clone, symObjAddr: 0x17410, symBinAddr: 0x5FA50, symSize: 0xB0 }
  - { offset: 0xB563F, size: 0x8, addend: 0x0, symName: __RNvXsA_NtNtCsATtFUPiRFW_3syn3gen5cloneNtNtB9_4expr6ExprIfNtNtCs9f3LFPSIp77_4core5clone5Clone5clone, symObjAddr: 0x174C0, symBinAddr: 0x5FB00, symSize: 0x144 }
  - { offset: 0xB5673, size: 0x8, addend: 0x0, symName: __RNvXsB_NtNtCsATtFUPiRFW_3syn3gen5cloneNtNtB9_4expr9ExprIndexNtNtCs9f3LFPSIp77_4core5clone5Clone5clone, symObjAddr: 0x17604, symBinAddr: 0x5FC44, symSize: 0xF8 }
  - { offset: 0xB56A7, size: 0x8, addend: 0x0, symName: __RNvXsC_NtNtCsATtFUPiRFW_3syn3gen5cloneNtNtB9_4expr9ExprInferNtNtCs9f3LFPSIp77_4core5clone5Clone5clone, symObjAddr: 0x176FC, symBinAddr: 0x5FD3C, symSize: 0xA4 }
  - { offset: 0xB56DB, size: 0x8, addend: 0x0, symName: __RNvXsD_NtNtCsATtFUPiRFW_3syn3gen5cloneNtNtB9_4expr7ExprLetNtNtCs9f3LFPSIp77_4core5clone5Clone5clone, symObjAddr: 0x177A0, symBinAddr: 0x5FDE0, symSize: 0x11C }
  - { offset: 0xB570F, size: 0x8, addend: 0x0, symName: __RNvXsE_NtNtCsATtFUPiRFW_3syn3gen5cloneNtNtB9_4expr7ExprLitNtNtCs9f3LFPSIp77_4core5clone5Clone5clone, symObjAddr: 0x178BC, symBinAddr: 0x5FEFC, symSize: 0x9C }
  - { offset: 0xB5743, size: 0x8, addend: 0x0, symName: __RNvXsF_NtNtCsATtFUPiRFW_3syn3gen5cloneNtNtB9_4expr8ExprLoopNtNtCs9f3LFPSIp77_4core5clone5Clone5clone, symObjAddr: 0x17958, symBinAddr: 0x5FF98, symSize: 0x104 }
  - { offset: 0xB5777, size: 0x8, addend: 0x0, symName: __RNvXsG_NtNtCsATtFUPiRFW_3syn3gen5cloneNtNtB9_4expr9ExprMacroNtNtCs9f3LFPSIp77_4core5clone5Clone5clone, symObjAddr: 0x17A5C, symBinAddr: 0x6009C, symSize: 0xA0 }
  - { offset: 0xB57AB, size: 0x8, addend: 0x0, symName: __RNvXsH_NtNtCsATtFUPiRFW_3syn3gen5cloneNtNtB9_4expr9ExprMatchNtNtCs9f3LFPSIp77_4core5clone5Clone5clone, symObjAddr: 0x17AFC, symBinAddr: 0x6013C, symSize: 0x11C }
  - { offset: 0xB57DF, size: 0x8, addend: 0x0, symName: __RNvXsI_NtNtCsATtFUPiRFW_3syn3gen5cloneNtNtB9_4expr14ExprMethodCallNtNtCs9f3LFPSIp77_4core5clone5Clone5clone, symObjAddr: 0x17C18, symBinAddr: 0x60258, symSize: 0x1C8 }
  - { offset: 0xB5813, size: 0x8, addend: 0x0, symName: __RNvXsJ_NtNtCsATtFUPiRFW_3syn3gen5cloneNtNtB9_4expr9ExprParenNtNtCs9f3LFPSIp77_4core5clone5Clone5clone, symObjAddr: 0x17DE0, symBinAddr: 0x60420, symSize: 0xB8 }
  - { offset: 0xB5847, size: 0x8, addend: 0x0, symName: __RNvXsK_NtNtCsATtFUPiRFW_3syn3gen5cloneNtNtB9_4expr8ExprPathNtNtCs9f3LFPSIp77_4core5clone5Clone5clone, symObjAddr: 0x17E98, symBinAddr: 0x604D8, symSize: 0xE0 }
  - { offset: 0xB587B, size: 0x8, addend: 0x0, symName: __RNvXsL_NtNtCsATtFUPiRFW_3syn3gen5cloneNtNtB9_4expr9ExprRangeNtNtCs9f3LFPSIp77_4core5clone5Clone5clone, symObjAddr: 0x17F78, symBinAddr: 0x605B8, symSize: 0xF0 }
  - { offset: 0xB58AF, size: 0x8, addend: 0x0, symName: __RNvXsM_NtNtCsATtFUPiRFW_3syn3gen5cloneNtNtB9_4expr11ExprRawAddrNtNtCs9f3LFPSIp77_4core5clone5Clone5clone, symObjAddr: 0x18068, symBinAddr: 0x606A8, symSize: 0x104 }
  - { offset: 0xB58E3, size: 0x8, addend: 0x0, symName: __RNvXsN_NtNtCsATtFUPiRFW_3syn3gen5cloneNtNtB9_4expr13ExprReferenceNtNtCs9f3LFPSIp77_4core5clone5Clone5clone, symObjAddr: 0x1816C, symBinAddr: 0x607AC, symSize: 0xE8 }
  - { offset: 0xB5917, size: 0x8, addend: 0x0, symName: __RNvXsO_NtNtCsATtFUPiRFW_3syn3gen5cloneNtNtB9_4expr10ExprRepeatNtNtCs9f3LFPSIp77_4core5clone5Clone5clone, symObjAddr: 0x18254, symBinAddr: 0x60894, symSize: 0x124 }
  - { offset: 0xB594B, size: 0x8, addend: 0x0, symName: __RNvXsP_NtNtCsATtFUPiRFW_3syn3gen5cloneNtNtB9_4expr10ExprReturnNtNtCs9f3LFPSIp77_4core5clone5Clone5clone, symObjAddr: 0x18378, symBinAddr: 0x609B8, symSize: 0xB0 }
  - { offset: 0xB597F, size: 0x8, addend: 0x0, symName: __RNvXsQ_NtNtCsATtFUPiRFW_3syn3gen5cloneNtNtB9_4expr10ExprStructNtNtCs9f3LFPSIp77_4core5clone5Clone5clone, symObjAddr: 0x18428, symBinAddr: 0x60A68, symSize: 0x1B0 }
  - { offset: 0xB59B3, size: 0x8, addend: 0x0, symName: __RNvXsR_NtNtCsATtFUPiRFW_3syn3gen5cloneNtNtB9_4expr7ExprTryNtNtCs9f3LFPSIp77_4core5clone5Clone5clone, symObjAddr: 0x185D8, symBinAddr: 0x60C18, symSize: 0xE4 }
  - { offset: 0xB59E7, size: 0x8, addend: 0x0, symName: __RNvXsS_NtNtCsATtFUPiRFW_3syn3gen5cloneNtNtB9_4expr12ExprTryBlockNtNtCs9f3LFPSIp77_4core5clone5Clone5clone, symObjAddr: 0x186BC, symBinAddr: 0x60CFC, symSize: 0xBC }
  - { offset: 0xB5A1B, size: 0x8, addend: 0x0, symName: __RNvXsT_NtNtCsATtFUPiRFW_3syn3gen5cloneNtNtB9_4expr9ExprTupleNtNtCs9f3LFPSIp77_4core5clone5Clone5clone, symObjAddr: 0x18778, symBinAddr: 0x60DB8, symSize: 0xC0 }
  - { offset: 0xB5A4F, size: 0x8, addend: 0x0, symName: __RNvXsU_NtNtCsATtFUPiRFW_3syn3gen5cloneNtNtB9_4expr9ExprUnaryNtNtCs9f3LFPSIp77_4core5clone5Clone5clone, symObjAddr: 0x18838, symBinAddr: 0x60E78, symSize: 0xC0 }
  - { offset: 0xB5A83, size: 0x8, addend: 0x0, symName: __RNvXsV_NtNtCsATtFUPiRFW_3syn3gen5cloneNtNtB9_4expr10ExprUnsafeNtNtCs9f3LFPSIp77_4core5clone5Clone5clone, symObjAddr: 0x188F8, symBinAddr: 0x60F38, symSize: 0xBC }
  - { offset: 0xB5AB7, size: 0x8, addend: 0x0, symName: __RNvXsW_NtNtCsATtFUPiRFW_3syn3gen5cloneNtNtB9_4expr9ExprWhileNtNtCs9f3LFPSIp77_4core5clone5Clone5clone, symObjAddr: 0x189B4, symBinAddr: 0x60FF4, symSize: 0x144 }
  - { offset: 0xB5AEB, size: 0x8, addend: 0x0, symName: __RNvXsX_NtNtCsATtFUPiRFW_3syn3gen5cloneNtNtB9_4expr9ExprYieldNtNtCs9f3LFPSIp77_4core5clone5Clone5clone, symObjAddr: 0x18AF8, symBinAddr: 0x61138, symSize: 0xB0 }
  - { offset: 0xB5B1F, size: 0x8, addend: 0x0, symName: __RNvXs11_NtNtCsATtFUPiRFW_3syn3gen5cloneNtNtBa_4expr10FieldValueNtNtCs9f3LFPSIp77_4core5clone5Clone5clone, symObjAddr: 0x18BA8, symBinAddr: 0x611E8, symSize: 0x110 }
  - { offset: 0xB5B53, size: 0x8, addend: 0x0, symName: __RNvXs1l_NtNtCsATtFUPiRFW_3syn3gen5cloneNtNtBa_4expr5IndexNtNtCs9f3LFPSIp77_4core5clone5Clone5clone, symObjAddr: 0x18CB8, symBinAddr: 0x612F8, symSize: 0x48 }
  - { offset: 0xB5B87, size: 0x8, addend: 0x0, symName: __RNvXs1C_NtNtCsATtFUPiRFW_3syn3gen5cloneNtNtBa_4expr5LabelNtNtCs9f3LFPSIp77_4core5clone5Clone5clone, symObjAddr: 0x18D00, symBinAddr: 0x61340, symSize: 0xA4 }
  - { offset: 0xB5BBB, size: 0x8, addend: 0x0, symName: __RNvXs1K_NtNtCsATtFUPiRFW_3syn3gen5cloneNtNtBa_4expr6MemberNtNtCs9f3LFPSIp77_4core5clone5Clone5clone, symObjAddr: 0x18DA4, symBinAddr: 0x613E4, symSize: 0xB8 }
  - { offset: 0xB5C23, size: 0x8, addend: 0x0, symName: __RNvXs24_NtNtCsATtFUPiRFW_3syn3gen5cloneNtNtBa_4expr17PointerMutabilityNtNtCs9f3LFPSIp77_4core5clone5Clone5clone, symObjAddr: 0x18E5C, symBinAddr: 0x6149C, symSize: 0xA0 }
  - { offset: 0xB5C8B, size: 0x8, addend: 0x0, symName: __RNvXs2a_NtNtCsATtFUPiRFW_3syn3gen5cloneNtNtBa_4expr11RangeLimitsNtNtCs9f3LFPSIp77_4core5clone5Clone5clone, symObjAddr: 0x18EFC, symBinAddr: 0x6153C, symSize: 0x2C }
  - { offset: 0xB5CC5, size: 0x8, addend: 0x0, symName: __RNvXs1_NtNtCsATtFUPiRFW_3syn3gen5debugNtNtB9_4expr3ArmNtNtCs9f3LFPSIp77_4core3fmt5Debug3fmt, symObjAddr: 0x18F28, symBinAddr: 0x61568, symSize: 0x14C }
  - { offset: 0xB5D22, size: 0x8, addend: 0x0, symName: __RNvXsm_NtNtCsATtFUPiRFW_3syn3gen5debugNtNtB9_4expr4ExprNtNtCs9f3LFPSIp77_4core3fmt5Debug3fmt, symObjAddr: 0x19074, symBinAddr: 0x616B4, symSize: 0xC14 }
  - { offset: 0xB626E, size: 0x8, addend: 0x0, symName: __RNvXsn_NtNtCsATtFUPiRFW_3syn3gen5debugNtNtB9_4expr9ExprArrayNtNtCs9f3LFPSIp77_4core3fmt5Debug3fmt, symObjAddr: 0x19C88, symBinAddr: 0x622C8, symSize: 0x4C }
  - { offset: 0xB62B1, size: 0x8, addend: 0x0, symName: __RNvXsp_NtNtCsATtFUPiRFW_3syn3gen5debugNtNtB9_4expr10ExprAssignNtNtCs9f3LFPSIp77_4core3fmt5Debug3fmt, symObjAddr: 0x19DB0, symBinAddr: 0x623F0, symSize: 0x4C }
  - { offset: 0xB62F4, size: 0x8, addend: 0x0, symName: __RNvXsr_NtNtCsATtFUPiRFW_3syn3gen5debugNtNtB9_4expr9ExprAsyncNtNtCs9f3LFPSIp77_4core3fmt5Debug3fmt, symObjAddr: 0x19F00, symBinAddr: 0x62540, symSize: 0x4C }
  - { offset: 0xB6337, size: 0x8, addend: 0x0, symName: __RNvXst_NtNtCsATtFUPiRFW_3syn3gen5debugNtNtB9_4expr9ExprAwaitNtNtCs9f3LFPSIp77_4core3fmt5Debug3fmt, symObjAddr: 0x1A050, symBinAddr: 0x62690, symSize: 0x4C }
  - { offset: 0xB637A, size: 0x8, addend: 0x0, symName: __RNvXsv_NtNtCsATtFUPiRFW_3syn3gen5debugNtNtB9_4expr10ExprBinaryNtNtCs9f3LFPSIp77_4core3fmt5Debug3fmt, symObjAddr: 0x1A1A0, symBinAddr: 0x627E0, symSize: 0x4C }
  - { offset: 0xB63BD, size: 0x8, addend: 0x0, symName: __RNvXsx_NtNtCsATtFUPiRFW_3syn3gen5debugNtNtB9_4expr9ExprBlockNtNtCs9f3LFPSIp77_4core3fmt5Debug3fmt, symObjAddr: 0x1A2F0, symBinAddr: 0x62930, symSize: 0x4C }
  - { offset: 0xB6400, size: 0x8, addend: 0x0, symName: __RNvXsz_NtNtCsATtFUPiRFW_3syn3gen5debugNtNtB9_4expr9ExprBreakNtNtCs9f3LFPSIp77_4core3fmt5Debug3fmt, symObjAddr: 0x1A414, symBinAddr: 0x62A54, symSize: 0x4C }
  - { offset: 0xB6443, size: 0x8, addend: 0x0, symName: __RNvXsB_NtNtCsATtFUPiRFW_3syn3gen5debugNtNtB9_4expr8ExprCallNtNtCs9f3LFPSIp77_4core3fmt5Debug3fmt, symObjAddr: 0x1A564, symBinAddr: 0x62BA4, symSize: 0x4C }
  - { offset: 0xB6486, size: 0x8, addend: 0x0, symName: __RNvXsD_NtNtCsATtFUPiRFW_3syn3gen5debugNtNtB9_4expr8ExprCastNtNtCs9f3LFPSIp77_4core3fmt5Debug3fmt, symObjAddr: 0x1A6B4, symBinAddr: 0x62CF4, symSize: 0x4C }
  - { offset: 0xB64C9, size: 0x8, addend: 0x0, symName: __RNvXsF_NtNtCsATtFUPiRFW_3syn3gen5debugNtNtB9_4expr11ExprClosureNtNtCs9f3LFPSIp77_4core3fmt5Debug3fmt, symObjAddr: 0x1A804, symBinAddr: 0x62E44, symSize: 0x4C }
  - { offset: 0xB650C, size: 0x8, addend: 0x0, symName: __RNvXsH_NtNtCsATtFUPiRFW_3syn3gen5debugNtNtB9_4expr9ExprConstNtNtCs9f3LFPSIp77_4core3fmt5Debug3fmt, symObjAddr: 0x1AA60, symBinAddr: 0x630A0, symSize: 0x4C }
  - { offset: 0xB654F, size: 0x8, addend: 0x0, symName: __RNvXsJ_NtNtCsATtFUPiRFW_3syn3gen5debugNtNtB9_4expr12ExprContinueNtNtCs9f3LFPSIp77_4core3fmt5Debug3fmt, symObjAddr: 0x1AB88, symBinAddr: 0x631C8, symSize: 0x4C }
  - { offset: 0xB6592, size: 0x8, addend: 0x0, symName: __RNvXsL_NtNtCsATtFUPiRFW_3syn3gen5debugNtNtB9_4expr9ExprFieldNtNtCs9f3LFPSIp77_4core3fmt5Debug3fmt, symObjAddr: 0x1ACB0, symBinAddr: 0x632F0, symSize: 0x4C }
  - { offset: 0xB65D5, size: 0x8, addend: 0x0, symName: __RNvXsN_NtNtCsATtFUPiRFW_3syn3gen5debugNtNtB9_4expr11ExprForLoopNtNtCs9f3LFPSIp77_4core3fmt5Debug3fmt, symObjAddr: 0x1AE00, symBinAddr: 0x63440, symSize: 0x4C }
  - { offset: 0xB6618, size: 0x8, addend: 0x0, symName: __RNvXsP_NtNtCsATtFUPiRFW_3syn3gen5debugNtNtB9_4expr9ExprGroupNtNtCs9f3LFPSIp77_4core3fmt5Debug3fmt, symObjAddr: 0x1AFC8, symBinAddr: 0x63608, symSize: 0x4C }
  - { offset: 0xB665B, size: 0x8, addend: 0x0, symName: __RNvXsR_NtNtCsATtFUPiRFW_3syn3gen5debugNtNtB9_4expr6ExprIfNtNtCs9f3LFPSIp77_4core3fmt5Debug3fmt, symObjAddr: 0x1B0F0, symBinAddr: 0x63730, symSize: 0x4C }
  - { offset: 0xB669E, size: 0x8, addend: 0x0, symName: __RNvXsT_NtNtCsATtFUPiRFW_3syn3gen5debugNtNtB9_4expr9ExprIndexNtNtCs9f3LFPSIp77_4core3fmt5Debug3fmt, symObjAddr: 0x1B268, symBinAddr: 0x638A8, symSize: 0x4C }
  - { offset: 0xB66E1, size: 0x8, addend: 0x0, symName: __RNvXsV_NtNtCsATtFUPiRFW_3syn3gen5debugNtNtB9_4expr9ExprInferNtNtCs9f3LFPSIp77_4core3fmt5Debug3fmt, symObjAddr: 0x1B3B8, symBinAddr: 0x639F8, symSize: 0x4C }
  - { offset: 0xB6724, size: 0x8, addend: 0x0, symName: __RNvXsX_NtNtCsATtFUPiRFW_3syn3gen5debugNtNtB9_4expr7ExprLetNtNtCs9f3LFPSIp77_4core3fmt5Debug3fmt, symObjAddr: 0x1B4B8, symBinAddr: 0x63AF8, symSize: 0x4C }
  - { offset: 0xB6767, size: 0x8, addend: 0x0, symName: __RNvXsZ_NtNtCsATtFUPiRFW_3syn3gen5debugNtNtB9_4expr7ExprLitNtNtCs9f3LFPSIp77_4core3fmt5Debug3fmt, symObjAddr: 0x1B630, symBinAddr: 0x63C70, symSize: 0x4C }
  - { offset: 0xB67AA, size: 0x8, addend: 0x0, symName: __RNvXs11_NtNtCsATtFUPiRFW_3syn3gen5debugNtNtBa_4expr8ExprLoopNtNtCs9f3LFPSIp77_4core3fmt5Debug3fmt, symObjAddr: 0x1B730, symBinAddr: 0x63D70, symSize: 0x4C }
  - { offset: 0xB67ED, size: 0x8, addend: 0x0, symName: __RNvXs13_NtNtCsATtFUPiRFW_3syn3gen5debugNtNtBa_4expr9ExprMacroNtNtCs9f3LFPSIp77_4core3fmt5Debug3fmt, symObjAddr: 0x1B880, symBinAddr: 0x63EC0, symSize: 0x4C }
  - { offset: 0xB6830, size: 0x8, addend: 0x0, symName: __RNvXs15_NtNtCsATtFUPiRFW_3syn3gen5debugNtNtBa_4expr9ExprMatchNtNtCs9f3LFPSIp77_4core3fmt5Debug3fmt, symObjAddr: 0x1B980, symBinAddr: 0x63FC0, symSize: 0x4C }
  - { offset: 0xB6873, size: 0x8, addend: 0x0, symName: __RNvXs17_NtNtCsATtFUPiRFW_3syn3gen5debugNtNtBa_4expr14ExprMethodCallNtNtCs9f3LFPSIp77_4core3fmt5Debug3fmt, symObjAddr: 0x1BAF8, symBinAddr: 0x64138, symSize: 0x4C }
  - { offset: 0xB68B6, size: 0x8, addend: 0x0, symName: __RNvXs19_NtNtCsATtFUPiRFW_3syn3gen5debugNtNtBa_4expr9ExprParenNtNtCs9f3LFPSIp77_4core3fmt5Debug3fmt, symObjAddr: 0x1BCC0, symBinAddr: 0x64300, symSize: 0x4C }
  - { offset: 0xB68F9, size: 0x8, addend: 0x0, symName: __RNvXs1b_NtNtCsATtFUPiRFW_3syn3gen5debugNtNtBa_4expr8ExprPathNtNtCs9f3LFPSIp77_4core3fmt5Debug3fmt, symObjAddr: 0x1BDE8, symBinAddr: 0x64428, symSize: 0x4C }
  - { offset: 0xB693C, size: 0x8, addend: 0x0, symName: __RNvXs1d_NtNtCsATtFUPiRFW_3syn3gen5debugNtNtBa_4expr9ExprRangeNtNtCs9f3LFPSIp77_4core3fmt5Debug3fmt, symObjAddr: 0x1BF10, symBinAddr: 0x64550, symSize: 0x4C }
  - { offset: 0xB697F, size: 0x8, addend: 0x0, symName: __RNvXs1f_NtNtCsATtFUPiRFW_3syn3gen5debugNtNtBa_4expr11ExprRawAddrNtNtCs9f3LFPSIp77_4core3fmt5Debug3fmt, symObjAddr: 0x1C060, symBinAddr: 0x646A0, symSize: 0x4C }
  - { offset: 0xB69C2, size: 0x8, addend: 0x0, symName: __RNvXs1h_NtNtCsATtFUPiRFW_3syn3gen5debugNtNtBa_4expr13ExprReferenceNtNtCs9f3LFPSIp77_4core3fmt5Debug3fmt, symObjAddr: 0x1C1D8, symBinAddr: 0x64818, symSize: 0x4C }
  - { offset: 0xB6A05, size: 0x8, addend: 0x0, symName: __RNvXs1j_NtNtCsATtFUPiRFW_3syn3gen5debugNtNtBa_4expr10ExprRepeatNtNtCs9f3LFPSIp77_4core3fmt5Debug3fmt, symObjAddr: 0x1C328, symBinAddr: 0x64968, symSize: 0x4C }
  - { offset: 0xB6A48, size: 0x8, addend: 0x0, symName: __RNvXs1l_NtNtCsATtFUPiRFW_3syn3gen5debugNtNtBa_4expr10ExprReturnNtNtCs9f3LFPSIp77_4core3fmt5Debug3fmt, symObjAddr: 0x1C4A0, symBinAddr: 0x64AE0, symSize: 0x4C }
  - { offset: 0xB6A8B, size: 0x8, addend: 0x0, symName: __RNvXs1n_NtNtCsATtFUPiRFW_3syn3gen5debugNtNtBa_4expr10ExprStructNtNtCs9f3LFPSIp77_4core3fmt5Debug3fmt, symObjAddr: 0x1C5C8, symBinAddr: 0x64C08, symSize: 0x4C }
  - { offset: 0xB6ACE, size: 0x8, addend: 0x0, symName: __RNvXs1p_NtNtCsATtFUPiRFW_3syn3gen5debugNtNtBa_4expr7ExprTryNtNtCs9f3LFPSIp77_4core3fmt5Debug3fmt, symObjAddr: 0x1C790, symBinAddr: 0x64DD0, symSize: 0x4C }
  - { offset: 0xB6B11, size: 0x8, addend: 0x0, symName: __RNvXs1r_NtNtCsATtFUPiRFW_3syn3gen5debugNtNtBa_4expr12ExprTryBlockNtNtCs9f3LFPSIp77_4core3fmt5Debug3fmt, symObjAddr: 0x1C8B8, symBinAddr: 0x64EF8, symSize: 0x4C }
  - { offset: 0xB6B54, size: 0x8, addend: 0x0, symName: __RNvXs1t_NtNtCsATtFUPiRFW_3syn3gen5debugNtNtBa_4expr9ExprTupleNtNtCs9f3LFPSIp77_4core3fmt5Debug3fmt, symObjAddr: 0x1C9E0, symBinAddr: 0x65020, symSize: 0x4C }
  - { offset: 0xB6B97, size: 0x8, addend: 0x0, symName: __RNvXs1v_NtNtCsATtFUPiRFW_3syn3gen5debugNtNtBa_4expr9ExprUnaryNtNtCs9f3LFPSIp77_4core3fmt5Debug3fmt, symObjAddr: 0x1CB08, symBinAddr: 0x65148, symSize: 0x4C }
  - { offset: 0xB6BDA, size: 0x8, addend: 0x0, symName: __RNvXs1x_NtNtCsATtFUPiRFW_3syn3gen5debugNtNtBa_4expr10ExprUnsafeNtNtCs9f3LFPSIp77_4core3fmt5Debug3fmt, symObjAddr: 0x1CC30, symBinAddr: 0x65270, symSize: 0x4C }
  - { offset: 0xB6C1D, size: 0x8, addend: 0x0, symName: __RNvXs1z_NtNtCsATtFUPiRFW_3syn3gen5debugNtNtBa_4expr9ExprWhileNtNtCs9f3LFPSIp77_4core3fmt5Debug3fmt, symObjAddr: 0x1CD58, symBinAddr: 0x65398, symSize: 0x4C }
  - { offset: 0xB6C60, size: 0x8, addend: 0x0, symName: __RNvXs1B_NtNtCsATtFUPiRFW_3syn3gen5debugNtNtBa_4expr9ExprYieldNtNtCs9f3LFPSIp77_4core3fmt5Debug3fmt, symObjAddr: 0x1CED0, symBinAddr: 0x65510, symSize: 0x4C }
  - { offset: 0xB6CA3, size: 0x8, addend: 0x0, symName: __RNvXs1G_NtNtCsATtFUPiRFW_3syn3gen5debugNtNtBa_4expr10FieldValueNtNtCs9f3LFPSIp77_4core3fmt5Debug3fmt, symObjAddr: 0x1CFF8, symBinAddr: 0x65638, symSize: 0x100 }
  - { offset: 0xB6D04, size: 0x8, addend: 0x0, symName: __RNvXs2a_NtNtCsATtFUPiRFW_3syn3gen5debugNtNtBa_4expr5IndexNtNtCs9f3LFPSIp77_4core3fmt5Debug3fmt, symObjAddr: 0x1D0F8, symBinAddr: 0x65738, symSize: 0xB0 }
  - { offset: 0xB6D65, size: 0x8, addend: 0x0, symName: __RNvXs2G_NtNtCsATtFUPiRFW_3syn3gen5debugNtNtBa_4expr5LabelNtNtCs9f3LFPSIp77_4core3fmt5Debug3fmt, symObjAddr: 0x1D1A8, symBinAddr: 0x657E8, symSize: 0xB0 }
  - { offset: 0xB6DC6, size: 0x8, addend: 0x0, symName: __RNvXs2Q_NtNtCsATtFUPiRFW_3syn3gen5debugNtNtBa_4expr6MemberNtNtCs9f3LFPSIp77_4core3fmt5Debug3fmt, symObjAddr: 0x1D258, symBinAddr: 0x65898, symSize: 0x178 }
  - { offset: 0xB6E97, size: 0x8, addend: 0x0, symName: __RNvXs3p_NtNtCsATtFUPiRFW_3syn3gen5debugNtNtBa_4expr17PointerMutabilityNtNtCs9f3LFPSIp77_4core3fmt5Debug3fmt, symObjAddr: 0x1D3D0, symBinAddr: 0x65A10, symSize: 0x17C }
  - { offset: 0xB6F67, size: 0x8, addend: 0x0, symName: __RNvXs3u_NtNtCsATtFUPiRFW_3syn3gen5debugNtNtBa_4expr11RangeLimitsNtNtCs9f3LFPSIp77_4core3fmt5Debug3fmt, symObjAddr: 0x1D54C, symBinAddr: 0x65B8C, symSize: 0x17C }
  - { offset: 0xB703D, size: 0x8, addend: 0x0, symName: __RNvXs3_NtNtCsATtFUPiRFW_3syn3gen2eqNtNtB9_4expr3ArmNtNtCs9f3LFPSIp77_4core3cmp9PartialEq2eq, symObjAddr: 0x1D6C8, symBinAddr: 0x65D08, symSize: 0x134 }
  - { offset: 0xB707D, size: 0x8, addend: 0x0, symName: __RNvXsD_NtNtCsATtFUPiRFW_3syn3gen2eqNtNtB9_4expr4ExprNtNtCs9f3LFPSIp77_4core3cmp9PartialEq2eq, symObjAddr: 0x1D7FC, symBinAddr: 0x65E3C, symSize: 0x1508 }
  - { offset: 0xB783A, size: 0x8, addend: 0x0, symName: __RNvXsF_NtNtCsATtFUPiRFW_3syn3gen2eqNtNtB9_4expr9ExprArrayNtNtCs9f3LFPSIp77_4core3cmp9PartialEq2eq, symObjAddr: 0x1ED04, symBinAddr: 0x67344, symSize: 0x84 }
  - { offset: 0xB787D, size: 0x8, addend: 0x0, symName: __RNvXsH_NtNtCsATtFUPiRFW_3syn3gen2eqNtNtB9_4expr10ExprAssignNtNtCs9f3LFPSIp77_4core3cmp9PartialEq2eq, symObjAddr: 0x1ED88, symBinAddr: 0x673C8, symSize: 0xCC }
  - { offset: 0xB78C0, size: 0x8, addend: 0x0, symName: __RNvXsJ_NtNtCsATtFUPiRFW_3syn3gen2eqNtNtB9_4expr9ExprAsyncNtNtCs9f3LFPSIp77_4core3cmp9PartialEq2eq, symObjAddr: 0x1EE54, symBinAddr: 0x67494, symSize: 0xCC }
  - { offset: 0xB7903, size: 0x8, addend: 0x0, symName: __RNvXsL_NtNtCsATtFUPiRFW_3syn3gen2eqNtNtB9_4expr9ExprAwaitNtNtCs9f3LFPSIp77_4core3cmp9PartialEq2eq, symObjAddr: 0x1EF20, symBinAddr: 0x67560, symSize: 0x84 }
  - { offset: 0xB7946, size: 0x8, addend: 0x0, symName: __RNvXsN_NtNtCsATtFUPiRFW_3syn3gen2eqNtNtB9_4expr10ExprBinaryNtNtCs9f3LFPSIp77_4core3cmp9PartialEq2eq, symObjAddr: 0x1EFA4, symBinAddr: 0x675E4, symSize: 0x100 }
  - { offset: 0xB7989, size: 0x8, addend: 0x0, symName: __RNvXsP_NtNtCsATtFUPiRFW_3syn3gen2eqNtNtB9_4expr9ExprBlockNtNtCs9f3LFPSIp77_4core3cmp9PartialEq2eq, symObjAddr: 0x1F0A4, symBinAddr: 0x676E4, symSize: 0xCC }
  - { offset: 0xB79CC, size: 0x8, addend: 0x0, symName: __RNvXsR_NtNtCsATtFUPiRFW_3syn3gen2eqNtNtB9_4expr9ExprBreakNtNtCs9f3LFPSIp77_4core3cmp9PartialEq2eq, symObjAddr: 0x1F170, symBinAddr: 0x677B0, symSize: 0xCC }
  - { offset: 0xB7A0F, size: 0x8, addend: 0x0, symName: __RNvXsT_NtNtCsATtFUPiRFW_3syn3gen2eqNtNtB9_4expr8ExprCallNtNtCs9f3LFPSIp77_4core3cmp9PartialEq2eq, symObjAddr: 0x1F23C, symBinAddr: 0x6787C, symSize: 0xCC }
  - { offset: 0xB7A52, size: 0x8, addend: 0x0, symName: __RNvXsV_NtNtCsATtFUPiRFW_3syn3gen2eqNtNtB9_4expr8ExprCastNtNtCs9f3LFPSIp77_4core3cmp9PartialEq2eq, symObjAddr: 0x1F308, symBinAddr: 0x67948, symSize: 0xCC }
  - { offset: 0xB7A95, size: 0x8, addend: 0x0, symName: __RNvXsX_NtNtCsATtFUPiRFW_3syn3gen2eqNtNtB9_4expr11ExprClosureNtNtCs9f3LFPSIp77_4core3cmp9PartialEq2eq, symObjAddr: 0x1F3D4, symBinAddr: 0x67A14, symSize: 0x204 }
  - { offset: 0xB7AD8, size: 0x8, addend: 0x0, symName: __RNvXsZ_NtNtCsATtFUPiRFW_3syn3gen2eqNtNtB9_4expr9ExprConstNtNtCs9f3LFPSIp77_4core3cmp9PartialEq2eq, symObjAddr: 0x1F5D8, symBinAddr: 0x67C18, symSize: 0x84 }
  - { offset: 0xB7B1B, size: 0x8, addend: 0x0, symName: __RNvXs11_NtNtCsATtFUPiRFW_3syn3gen2eqNtNtBa_4expr12ExprContinueNtNtCs9f3LFPSIp77_4core3cmp9PartialEq2eq, symObjAddr: 0x1F65C, symBinAddr: 0x67C9C, symSize: 0x84 }
  - { offset: 0xB7B5E, size: 0x8, addend: 0x0, symName: __RNvXs13_NtNtCsATtFUPiRFW_3syn3gen2eqNtNtBa_4expr9ExprFieldNtNtCs9f3LFPSIp77_4core3cmp9PartialEq2eq, symObjAddr: 0x1F6E0, symBinAddr: 0x67D20, symSize: 0xCC }
  - { offset: 0xB7BA1, size: 0x8, addend: 0x0, symName: __RNvXs15_NtNtCsATtFUPiRFW_3syn3gen2eqNtNtBa_4expr11ExprForLoopNtNtCs9f3LFPSIp77_4core3cmp9PartialEq2eq, symObjAddr: 0x1F7AC, symBinAddr: 0x67DEC, symSize: 0x134 }
  - { offset: 0xB7BE4, size: 0x8, addend: 0x0, symName: __RNvXs17_NtNtCsATtFUPiRFW_3syn3gen2eqNtNtBa_4expr9ExprGroupNtNtCs9f3LFPSIp77_4core3cmp9PartialEq2eq, symObjAddr: 0x1F8E0, symBinAddr: 0x67F20, symSize: 0x84 }
  - { offset: 0xB7C27, size: 0x8, addend: 0x0, symName: __RNvXs19_NtNtCsATtFUPiRFW_3syn3gen2eqNtNtBa_4expr6ExprIfNtNtCs9f3LFPSIp77_4core3cmp9PartialEq2eq, symObjAddr: 0x1F964, symBinAddr: 0x67FA4, symSize: 0x100 }
  - { offset: 0xB7C6A, size: 0x8, addend: 0x0, symName: __RNvXs1b_NtNtCsATtFUPiRFW_3syn3gen2eqNtNtBa_4expr9ExprIndexNtNtCs9f3LFPSIp77_4core3cmp9PartialEq2eq, symObjAddr: 0x1FA64, symBinAddr: 0x680A4, symSize: 0xCC }
  - { offset: 0xB7CAD, size: 0x8, addend: 0x0, symName: __RNvXs1d_NtNtCsATtFUPiRFW_3syn3gen2eqNtNtBa_4expr9ExprInferNtNtCs9f3LFPSIp77_4core3cmp9PartialEq2eq, symObjAddr: 0x1FB30, symBinAddr: 0x68170, symSize: 0x3C }
  - { offset: 0xB7CF0, size: 0x8, addend: 0x0, symName: __RNvXs1f_NtNtCsATtFUPiRFW_3syn3gen2eqNtNtBa_4expr7ExprLetNtNtCs9f3LFPSIp77_4core3cmp9PartialEq2eq, symObjAddr: 0x1FB6C, symBinAddr: 0x681AC, symSize: 0xCC }
  - { offset: 0xB7D33, size: 0x8, addend: 0x0, symName: __RNvXs1h_NtNtCsATtFUPiRFW_3syn3gen2eqNtNtBa_4expr7ExprLitNtNtCs9f3LFPSIp77_4core3cmp9PartialEq2eq, symObjAddr: 0x1FC38, symBinAddr: 0x68278, symSize: 0x84 }
  - { offset: 0xB7D76, size: 0x8, addend: 0x0, symName: __RNvXs1j_NtNtCsATtFUPiRFW_3syn3gen2eqNtNtBa_4expr8ExprLoopNtNtCs9f3LFPSIp77_4core3cmp9PartialEq2eq, symObjAddr: 0x1FCBC, symBinAddr: 0x682FC, symSize: 0xCC }
  - { offset: 0xB7DB9, size: 0x8, addend: 0x0, symName: __RNvXs1l_NtNtCsATtFUPiRFW_3syn3gen2eqNtNtBa_4expr9ExprMacroNtNtCs9f3LFPSIp77_4core3cmp9PartialEq2eq, symObjAddr: 0x1FD88, symBinAddr: 0x683C8, symSize: 0x84 }
  - { offset: 0xB7DFC, size: 0x8, addend: 0x0, symName: __RNvXs1n_NtNtCsATtFUPiRFW_3syn3gen2eqNtNtBa_4expr9ExprMatchNtNtCs9f3LFPSIp77_4core3cmp9PartialEq2eq, symObjAddr: 0x1FE0C, symBinAddr: 0x6844C, symSize: 0xCC }
  - { offset: 0xB7E3F, size: 0x8, addend: 0x0, symName: __RNvXs1p_NtNtCsATtFUPiRFW_3syn3gen2eqNtNtBa_4expr14ExprMethodCallNtNtCs9f3LFPSIp77_4core3cmp9PartialEq2eq, symObjAddr: 0x1FED8, symBinAddr: 0x68518, symSize: 0x134 }
  - { offset: 0xB7E82, size: 0x8, addend: 0x0, symName: __RNvXs1r_NtNtCsATtFUPiRFW_3syn3gen2eqNtNtBa_4expr9ExprParenNtNtCs9f3LFPSIp77_4core3cmp9PartialEq2eq, symObjAddr: 0x2000C, symBinAddr: 0x6864C, symSize: 0x84 }
  - { offset: 0xB7EC5, size: 0x8, addend: 0x0, symName: __RNvXs1t_NtNtCsATtFUPiRFW_3syn3gen2eqNtNtBa_4expr8ExprPathNtNtCs9f3LFPSIp77_4core3cmp9PartialEq2eq, symObjAddr: 0x20090, symBinAddr: 0x686D0, symSize: 0xCC }
  - { offset: 0xB7F08, size: 0x8, addend: 0x0, symName: __RNvXs1v_NtNtCsATtFUPiRFW_3syn3gen2eqNtNtBa_4expr9ExprRangeNtNtCs9f3LFPSIp77_4core3cmp9PartialEq2eq, symObjAddr: 0x2015C, symBinAddr: 0x6879C, symSize: 0x100 }
  - { offset: 0xB7F4B, size: 0x8, addend: 0x0, symName: __RNvXs1x_NtNtCsATtFUPiRFW_3syn3gen2eqNtNtBa_4expr11ExprRawAddrNtNtCs9f3LFPSIp77_4core3cmp9PartialEq2eq, symObjAddr: 0x2025C, symBinAddr: 0x6889C, symSize: 0xCC }
  - { offset: 0xB7F8E, size: 0x8, addend: 0x0, symName: __RNvXs1z_NtNtCsATtFUPiRFW_3syn3gen2eqNtNtBa_4expr13ExprReferenceNtNtCs9f3LFPSIp77_4core3cmp9PartialEq2eq, symObjAddr: 0x20328, symBinAddr: 0x68968, symSize: 0xCC }
  - { offset: 0xB7FD1, size: 0x8, addend: 0x0, symName: __RNvXs1B_NtNtCsATtFUPiRFW_3syn3gen2eqNtNtBa_4expr10ExprRepeatNtNtCs9f3LFPSIp77_4core3cmp9PartialEq2eq, symObjAddr: 0x203F4, symBinAddr: 0x68A34, symSize: 0xCC }
  - { offset: 0xB8014, size: 0x8, addend: 0x0, symName: __RNvXs1D_NtNtCsATtFUPiRFW_3syn3gen2eqNtNtBa_4expr10ExprReturnNtNtCs9f3LFPSIp77_4core3cmp9PartialEq2eq, symObjAddr: 0x204C0, symBinAddr: 0x68B00, symSize: 0x84 }
  - { offset: 0xB8057, size: 0x8, addend: 0x0, symName: __RNvXs1F_NtNtCsATtFUPiRFW_3syn3gen2eqNtNtBa_4expr10ExprStructNtNtCs9f3LFPSIp77_4core3cmp9PartialEq2eq, symObjAddr: 0x20544, symBinAddr: 0x68B84, symSize: 0x168 }
  - { offset: 0xB809A, size: 0x8, addend: 0x0, symName: __RNvXs1H_NtNtCsATtFUPiRFW_3syn3gen2eqNtNtBa_4expr7ExprTryNtNtCs9f3LFPSIp77_4core3cmp9PartialEq2eq, symObjAddr: 0x206AC, symBinAddr: 0x68CEC, symSize: 0x84 }
  - { offset: 0xB80DD, size: 0x8, addend: 0x0, symName: __RNvXs1J_NtNtCsATtFUPiRFW_3syn3gen2eqNtNtBa_4expr12ExprTryBlockNtNtCs9f3LFPSIp77_4core3cmp9PartialEq2eq, symObjAddr: 0x20730, symBinAddr: 0x68D70, symSize: 0x84 }
  - { offset: 0xB8120, size: 0x8, addend: 0x0, symName: __RNvXs1L_NtNtCsATtFUPiRFW_3syn3gen2eqNtNtBa_4expr9ExprTupleNtNtCs9f3LFPSIp77_4core3cmp9PartialEq2eq, symObjAddr: 0x207B4, symBinAddr: 0x68DF4, symSize: 0x84 }
  - { offset: 0xB8163, size: 0x8, addend: 0x0, symName: __RNvXs1N_NtNtCsATtFUPiRFW_3syn3gen2eqNtNtBa_4expr9ExprUnaryNtNtCs9f3LFPSIp77_4core3cmp9PartialEq2eq, symObjAddr: 0x20838, symBinAddr: 0x68E78, symSize: 0xCC }
  - { offset: 0xB81A6, size: 0x8, addend: 0x0, symName: __RNvXs1P_NtNtCsATtFUPiRFW_3syn3gen2eqNtNtBa_4expr10ExprUnsafeNtNtCs9f3LFPSIp77_4core3cmp9PartialEq2eq, symObjAddr: 0x20904, symBinAddr: 0x68F44, symSize: 0x84 }
  - { offset: 0xB81E9, size: 0x8, addend: 0x0, symName: __RNvXs1R_NtNtCsATtFUPiRFW_3syn3gen2eqNtNtBa_4expr9ExprWhileNtNtCs9f3LFPSIp77_4core3cmp9PartialEq2eq, symObjAddr: 0x20988, symBinAddr: 0x68FC8, symSize: 0x100 }
  - { offset: 0xB822C, size: 0x8, addend: 0x0, symName: __RNvXs1T_NtNtCsATtFUPiRFW_3syn3gen2eqNtNtBa_4expr9ExprYieldNtNtCs9f3LFPSIp77_4core3cmp9PartialEq2eq, symObjAddr: 0x20A88, symBinAddr: 0x690C8, symSize: 0x84 }
  - { offset: 0xB826F, size: 0x8, addend: 0x0, symName: __RNvXs21_NtNtCsATtFUPiRFW_3syn3gen2eqNtNtBa_4expr10FieldValueNtNtCs9f3LFPSIp77_4core3cmp9PartialEq2eq, symObjAddr: 0x20B0C, symBinAddr: 0x6914C, symSize: 0x100 }
  - { offset: 0xB82B2, size: 0x8, addend: 0x0, symName: __RNvXs3b_NtNtCsATtFUPiRFW_3syn3gen2eqNtNtBa_4expr5LabelNtNtCs9f3LFPSIp77_4core3cmp9PartialEq2eq, symObjAddr: 0x20C0C, symBinAddr: 0x6924C, symSize: 0x3C }
  - { offset: 0xB82F5, size: 0x8, addend: 0x0, symName: __RNvXs4a_NtNtCsATtFUPiRFW_3syn3gen2eqNtNtBa_4expr17PointerMutabilityNtNtCs9f3LFPSIp77_4core3cmp9PartialEq2eq, symObjAddr: 0x20C48, symBinAddr: 0x69288, symSize: 0xFC }
  - { offset: 0xB8338, size: 0x8, addend: 0x0, symName: __RNvXs4k_NtNtCsATtFUPiRFW_3syn3gen2eqNtNtBa_4expr11RangeLimitsNtNtCs9f3LFPSIp77_4core3cmp9PartialEq2eq, symObjAddr: 0x20D44, symBinAddr: 0x69384, symSize: 0xFC }
  - { offset: 0xBB429, size: 0x8, addend: 0x0, symName: __RNvXsP_NtCs9f3LFPSIp77_4core3fmtRNtNtCsATtFUPiRFW_3syn4expr3ArmNtB5_5Debug3fmtBz_, symObjAddr: 0x175C, symBinAddr: 0x49D9C, symSize: 0x30 }
  - { offset: 0xBB46F, size: 0x8, addend: 0x0, symName: __RNvXsP_NtCs9f3LFPSIp77_4core3fmtRNtNtCsATtFUPiRFW_3syn4expr4ExprNtB5_5Debug3fmtBz_, symObjAddr: 0x178C, symBinAddr: 0x49DCC, symSize: 0x30 }
  - { offset: 0xBB4B5, size: 0x8, addend: 0x0, symName: __RNvXsP_NtCs9f3LFPSIp77_4core3fmtRNtNtCsATtFUPiRFW_3syn4expr5LabelNtB5_5Debug3fmtBz_, symObjAddr: 0x17BC, symBinAddr: 0x49DFC, symSize: 0x30 }
  - { offset: 0xBB501, size: 0x8, addend: 0x0, symName: __RNvXso_NtCs9f3LFPSIp77_4core3fmtSNtNtCsATtFUPiRFW_3syn4expr3ArmNtB5_5Debug3fmtBz_, symObjAddr: 0x17EC, symBinAddr: 0x49E2C, symSize: 0x90 }
  - { offset: 0xBB889, size: 0x8, addend: 0x0, symName: __RNvMNtCs9f3LFPSIp77_4core5sliceSNtNtCsATtFUPiRFW_3syn4expr3Arm4iterBy_, symObjAddr: 0x83C, symBinAddr: 0x48E7C, symSize: 0x28 }
  - { offset: 0xBB8C0, size: 0x8, addend: 0x0, symName: __RNvMNtCs9f3LFPSIp77_4core5sliceSTNtNtCsATtFUPiRFW_3syn4expr10FieldValueNtNtBz_5token5CommaE4iterBz_, symObjAddr: 0x864, symBinAddr: 0x48EA4, symSize: 0x28 }
  - { offset: 0xBB8F7, size: 0x8, addend: 0x0, symName: __RNvMNtCs9f3LFPSIp77_4core5sliceSTNtNtCsATtFUPiRFW_3syn4expr4ExprNtNtBz_5token5CommaE4iterBz_, symObjAddr: 0x88C, symBinAddr: 0x48ECC, symSize: 0x28 }
  - { offset: 0xBB960, size: 0x8, addend: 0x0, symName: __RNvXs2_NtNtCs9f3LFPSIp77_4core5slice3cmpSNtNtCsATtFUPiRFW_3syn4expr3ArmINtB5_14SlicePartialEqBD_E5equalBH_, symObjAddr: 0x9CC, symBinAddr: 0x4900C, symSize: 0x17C }
  - { offset: 0xBBA40, size: 0x8, addend: 0x0, symName: __RNvXs2_NtNtCs9f3LFPSIp77_4core5slice3cmpSTNtNtCsATtFUPiRFW_3syn4expr10FieldValueNtNtBI_5token5CommaEINtB5_14SlicePartialEqBD_E5equalBI_, symObjAddr: 0xB48, symBinAddr: 0x49188, symSize: 0x17C }
  - { offset: 0xBBB20, size: 0x8, addend: 0x0, symName: __RNvXs2_NtNtCs9f3LFPSIp77_4core5slice3cmpSTNtNtCsATtFUPiRFW_3syn4expr4ExprNtNtBI_5token5CommaEINtB5_14SlicePartialEqBD_E5equalBI_, symObjAddr: 0xCC4, symBinAddr: 0x49304, symSize: 0x17C }
  - { offset: 0xBC2AB, size: 0x8, addend: 0x0, symName: __RNvXNtNtCs9f3LFPSIp77_4core5clone6uninitNtNtCsATtFUPiRFW_3syn4expr10FieldValueNtB2_8CopySpec9clone_oneBG_, symObjAddr: 0x934, symBinAddr: 0x48F74, symSize: 0x50 }
  - { offset: 0xBC30F, size: 0x8, addend: 0x0, symName: __RNvXNtNtCs9f3LFPSIp77_4core5clone6uninitNtNtCsATtFUPiRFW_3syn4expr4ExprNtB2_8CopySpec9clone_oneBG_, symObjAddr: 0x984, symBinAddr: 0x48FC4, symSize: 0x48 }
  - { offset: 0xBC37A, size: 0x8, addend: 0x0, symName: __RNvYNtNtCsATtFUPiRFW_3syn4expr10ExprAssignNtNtCs9f3LFPSIp77_4core5clone5Clone10clone_fromB6_, symObjAddr: 0x19AC, symBinAddr: 0x49FEC, symSize: 0x84 }
  - { offset: 0xBC3B9, size: 0x8, addend: 0x0, symName: __RNvYNtNtCsATtFUPiRFW_3syn4expr10ExprBinaryNtNtCs9f3LFPSIp77_4core5clone5Clone10clone_fromB6_, symObjAddr: 0x1B60, symBinAddr: 0x4A1A0, symSize: 0x84 }
  - { offset: 0xBC3F8, size: 0x8, addend: 0x0, symName: __RNvYNtNtCsATtFUPiRFW_3syn4expr10ExprRepeatNtNtCs9f3LFPSIp77_4core5clone5Clone10clone_fromB6_, symObjAddr: 0x1D14, symBinAddr: 0x4A354, symSize: 0x84 }
  - { offset: 0xBC437, size: 0x8, addend: 0x0, symName: __RNvYNtNtCsATtFUPiRFW_3syn4expr10ExprReturnNtNtCs9f3LFPSIp77_4core5clone5Clone10clone_fromB6_, symObjAddr: 0x1EC8, symBinAddr: 0x4A508, symSize: 0x84 }
  - { offset: 0xBC476, size: 0x8, addend: 0x0, symName: __RNvYNtNtCsATtFUPiRFW_3syn4expr10ExprStructNtNtCs9f3LFPSIp77_4core5clone5Clone10clone_fromB6_, symObjAddr: 0x207C, symBinAddr: 0x4A6BC, symSize: 0x84 }
  - { offset: 0xBC4B5, size: 0x8, addend: 0x0, symName: __RNvYNtNtCsATtFUPiRFW_3syn4expr10ExprUnsafeNtNtCs9f3LFPSIp77_4core5clone5Clone10clone_fromB6_, symObjAddr: 0x2230, symBinAddr: 0x4A870, symSize: 0x84 }
  - { offset: 0xBC4F4, size: 0x8, addend: 0x0, symName: __RNvYNtNtCsATtFUPiRFW_3syn4expr10FieldValueNtNtCs9f3LFPSIp77_4core5clone5Clone10clone_fromB6_, symObjAddr: 0x23E4, symBinAddr: 0x4AA24, symSize: 0x8C }
  - { offset: 0xBC533, size: 0x8, addend: 0x0, symName: __RNvYNtNtCsATtFUPiRFW_3syn4expr11ExprClosureNtNtCs9f3LFPSIp77_4core5clone5Clone10clone_fromB6_, symObjAddr: 0x25A0, symBinAddr: 0x4ABE0, symSize: 0x84 }
  - { offset: 0xBC572, size: 0x8, addend: 0x0, symName: __RNvYNtNtCsATtFUPiRFW_3syn4expr11ExprForLoopNtNtCs9f3LFPSIp77_4core5clone5Clone10clone_fromB6_, symObjAddr: 0x2754, symBinAddr: 0x4AD94, symSize: 0x84 }
  - { offset: 0xBC5B1, size: 0x8, addend: 0x0, symName: __RNvYNtNtCsATtFUPiRFW_3syn4expr11ExprRawAddrNtNtCs9f3LFPSIp77_4core5clone5Clone10clone_fromB6_, symObjAddr: 0x2908, symBinAddr: 0x4AF48, symSize: 0x84 }
  - { offset: 0xBC5F0, size: 0x8, addend: 0x0, symName: __RNvYNtNtCsATtFUPiRFW_3syn4expr11RangeLimitsNtNtCs9f3LFPSIp77_4core5clone5Clone10clone_fromB6_, symObjAddr: 0x2AA0, symBinAddr: 0x4B0E0, symSize: 0x48 }
  - { offset: 0xBC62F, size: 0x8, addend: 0x0, symName: __RNvYNtNtCsATtFUPiRFW_3syn4expr12ExprContinueNtNtCs9f3LFPSIp77_4core5clone5Clone10clone_fromB6_, symObjAddr: 0x2C18, symBinAddr: 0x4B258, symSize: 0x84 }
  - { offset: 0xBC66E, size: 0x8, addend: 0x0, symName: __RNvYNtNtCsATtFUPiRFW_3syn4expr12ExprTryBlockNtNtCs9f3LFPSIp77_4core5clone5Clone10clone_fromB6_, symObjAddr: 0x2DCC, symBinAddr: 0x4B40C, symSize: 0x84 }
  - { offset: 0xBC6AD, size: 0x8, addend: 0x0, symName: __RNvYNtNtCsATtFUPiRFW_3syn4expr13ExprReferenceNtNtCs9f3LFPSIp77_4core5clone5Clone10clone_fromB6_, symObjAddr: 0x2F80, symBinAddr: 0x4B5C0, symSize: 0x84 }
  - { offset: 0xBC6EC, size: 0x8, addend: 0x0, symName: __RNvYNtNtCsATtFUPiRFW_3syn4expr14ExprMethodCallNtNtCs9f3LFPSIp77_4core5clone5Clone10clone_fromB6_, symObjAddr: 0x3134, symBinAddr: 0x4B774, symSize: 0x84 }
  - { offset: 0xBC72B, size: 0x8, addend: 0x0, symName: __RNvYNtNtCsATtFUPiRFW_3syn4expr17PointerMutabilityNtNtCs9f3LFPSIp77_4core5clone5Clone10clone_fromB6_, symObjAddr: 0x32DC, symBinAddr: 0x4B91C, symSize: 0x54 }
  - { offset: 0xBC76A, size: 0x8, addend: 0x0, symName: __RNvYNtNtCsATtFUPiRFW_3syn4expr3ArmNtNtCs9f3LFPSIp77_4core5clone5Clone10clone_fromB6_, symObjAddr: 0x3460, symBinAddr: 0x4BAA0, symSize: 0x8C }
  - { offset: 0xBC7A9, size: 0x8, addend: 0x0, symName: __RNvYNtNtCsATtFUPiRFW_3syn4expr4ExprNtNtCs9f3LFPSIp77_4core5clone5Clone10clone_fromB6_, symObjAddr: 0x361C, symBinAddr: 0x4BC5C, symSize: 0x84 }
  - { offset: 0xBC7E8, size: 0x8, addend: 0x0, symName: __RNvYNtNtCsATtFUPiRFW_3syn4expr5IndexNtNtCs9f3LFPSIp77_4core5clone5Clone10clone_fromB6_, symObjAddr: 0x37C4, symBinAddr: 0x4BE04, symSize: 0x54 }
  - { offset: 0xBC827, size: 0x8, addend: 0x0, symName: __RNvYNtNtCsATtFUPiRFW_3syn4expr5LabelNtNtCs9f3LFPSIp77_4core5clone5Clone10clone_fromB6_, symObjAddr: 0x3948, symBinAddr: 0x4BF88, symSize: 0x84 }
  - { offset: 0xBC866, size: 0x8, addend: 0x0, symName: __RNvYNtNtCsATtFUPiRFW_3syn4expr6ExprIfNtNtCs9f3LFPSIp77_4core5clone5Clone10clone_fromB6_, symObjAddr: 0x3AFC, symBinAddr: 0x4C13C, symSize: 0x84 }
  - { offset: 0xBC8A5, size: 0x8, addend: 0x0, symName: __RNvYNtNtCsATtFUPiRFW_3syn4expr6MemberNtNtCs9f3LFPSIp77_4core5clone5Clone10clone_fromB6_, symObjAddr: 0x3CB0, symBinAddr: 0x4C2F0, symSize: 0x84 }
  - { offset: 0xBC8E4, size: 0x8, addend: 0x0, symName: __RNvYNtNtCsATtFUPiRFW_3syn4expr7ExprLetNtNtCs9f3LFPSIp77_4core5clone5Clone10clone_fromB6_, symObjAddr: 0x3E64, symBinAddr: 0x4C4A4, symSize: 0x84 }
  - { offset: 0xBC923, size: 0x8, addend: 0x0, symName: __RNvYNtNtCsATtFUPiRFW_3syn4expr7ExprLitNtNtCs9f3LFPSIp77_4core5clone5Clone10clone_fromB6_, symObjAddr: 0x4018, symBinAddr: 0x4C658, symSize: 0x84 }
  - { offset: 0xBC962, size: 0x8, addend: 0x0, symName: __RNvYNtNtCsATtFUPiRFW_3syn4expr7ExprTryNtNtCs9f3LFPSIp77_4core5clone5Clone10clone_fromB6_, symObjAddr: 0x41CC, symBinAddr: 0x4C80C, symSize: 0x84 }
  - { offset: 0xBC9A1, size: 0x8, addend: 0x0, symName: __RNvYNtNtCsATtFUPiRFW_3syn4expr8ExprCallNtNtCs9f3LFPSIp77_4core5clone5Clone10clone_fromB6_, symObjAddr: 0x4380, symBinAddr: 0x4C9C0, symSize: 0x84 }
  - { offset: 0xBC9E0, size: 0x8, addend: 0x0, symName: __RNvYNtNtCsATtFUPiRFW_3syn4expr8ExprCastNtNtCs9f3LFPSIp77_4core5clone5Clone10clone_fromB6_, symObjAddr: 0x4534, symBinAddr: 0x4CB74, symSize: 0x84 }
  - { offset: 0xBCA1F, size: 0x8, addend: 0x0, symName: __RNvYNtNtCsATtFUPiRFW_3syn4expr8ExprLoopNtNtCs9f3LFPSIp77_4core5clone5Clone10clone_fromB6_, symObjAddr: 0x46E8, symBinAddr: 0x4CD28, symSize: 0x84 }
  - { offset: 0xBCA5E, size: 0x8, addend: 0x0, symName: __RNvYNtNtCsATtFUPiRFW_3syn4expr8ExprPathNtNtCs9f3LFPSIp77_4core5clone5Clone10clone_fromB6_, symObjAddr: 0x489C, symBinAddr: 0x4CEDC, symSize: 0x84 }
  - { offset: 0xBCA9D, size: 0x8, addend: 0x0, symName: __RNvYNtNtCsATtFUPiRFW_3syn4expr9ExprArrayNtNtCs9f3LFPSIp77_4core5clone5Clone10clone_fromB6_, symObjAddr: 0x4A50, symBinAddr: 0x4D090, symSize: 0x84 }
  - { offset: 0xBCADC, size: 0x8, addend: 0x0, symName: __RNvYNtNtCsATtFUPiRFW_3syn4expr9ExprAsyncNtNtCs9f3LFPSIp77_4core5clone5Clone10clone_fromB6_, symObjAddr: 0x4C04, symBinAddr: 0x4D244, symSize: 0x84 }
  - { offset: 0xBCB1B, size: 0x8, addend: 0x0, symName: __RNvYNtNtCsATtFUPiRFW_3syn4expr9ExprAwaitNtNtCs9f3LFPSIp77_4core5clone5Clone10clone_fromB6_, symObjAddr: 0x4DB8, symBinAddr: 0x4D3F8, symSize: 0x84 }
  - { offset: 0xBCB5A, size: 0x8, addend: 0x0, symName: __RNvYNtNtCsATtFUPiRFW_3syn4expr9ExprBlockNtNtCs9f3LFPSIp77_4core5clone5Clone10clone_fromB6_, symObjAddr: 0x4F6C, symBinAddr: 0x4D5AC, symSize: 0x84 }
  - { offset: 0xBCB99, size: 0x8, addend: 0x0, symName: __RNvYNtNtCsATtFUPiRFW_3syn4expr9ExprBreakNtNtCs9f3LFPSIp77_4core5clone5Clone10clone_fromB6_, symObjAddr: 0x5120, symBinAddr: 0x4D760, symSize: 0x84 }
  - { offset: 0xBCBD8, size: 0x8, addend: 0x0, symName: __RNvYNtNtCsATtFUPiRFW_3syn4expr9ExprConstNtNtCs9f3LFPSIp77_4core5clone5Clone10clone_fromB6_, symObjAddr: 0x52D4, symBinAddr: 0x4D914, symSize: 0x84 }
  - { offset: 0xBCC17, size: 0x8, addend: 0x0, symName: __RNvYNtNtCsATtFUPiRFW_3syn4expr9ExprFieldNtNtCs9f3LFPSIp77_4core5clone5Clone10clone_fromB6_, symObjAddr: 0x5488, symBinAddr: 0x4DAC8, symSize: 0x84 }
  - { offset: 0xBCC56, size: 0x8, addend: 0x0, symName: __RNvYNtNtCsATtFUPiRFW_3syn4expr9ExprGroupNtNtCs9f3LFPSIp77_4core5clone5Clone10clone_fromB6_, symObjAddr: 0x563C, symBinAddr: 0x4DC7C, symSize: 0x84 }
  - { offset: 0xBCC95, size: 0x8, addend: 0x0, symName: __RNvYNtNtCsATtFUPiRFW_3syn4expr9ExprIndexNtNtCs9f3LFPSIp77_4core5clone5Clone10clone_fromB6_, symObjAddr: 0x57F0, symBinAddr: 0x4DE30, symSize: 0x84 }
  - { offset: 0xBCCD4, size: 0x8, addend: 0x0, symName: __RNvYNtNtCsATtFUPiRFW_3syn4expr9ExprInferNtNtCs9f3LFPSIp77_4core5clone5Clone10clone_fromB6_, symObjAddr: 0x59A4, symBinAddr: 0x4DFE4, symSize: 0x84 }
  - { offset: 0xBCD13, size: 0x8, addend: 0x0, symName: __RNvYNtNtCsATtFUPiRFW_3syn4expr9ExprMacroNtNtCs9f3LFPSIp77_4core5clone5Clone10clone_fromB6_, symObjAddr: 0x5B58, symBinAddr: 0x4E198, symSize: 0x84 }
  - { offset: 0xBCD52, size: 0x8, addend: 0x0, symName: __RNvYNtNtCsATtFUPiRFW_3syn4expr9ExprMatchNtNtCs9f3LFPSIp77_4core5clone5Clone10clone_fromB6_, symObjAddr: 0x5D0C, symBinAddr: 0x4E34C, symSize: 0x84 }
  - { offset: 0xBCD91, size: 0x8, addend: 0x0, symName: __RNvYNtNtCsATtFUPiRFW_3syn4expr9ExprParenNtNtCs9f3LFPSIp77_4core5clone5Clone10clone_fromB6_, symObjAddr: 0x5EC0, symBinAddr: 0x4E500, symSize: 0x84 }
  - { offset: 0xBCDD0, size: 0x8, addend: 0x0, symName: __RNvYNtNtCsATtFUPiRFW_3syn4expr9ExprRangeNtNtCs9f3LFPSIp77_4core5clone5Clone10clone_fromB6_, symObjAddr: 0x6074, symBinAddr: 0x4E6B4, symSize: 0x84 }
  - { offset: 0xBCE0F, size: 0x8, addend: 0x0, symName: __RNvYNtNtCsATtFUPiRFW_3syn4expr9ExprTupleNtNtCs9f3LFPSIp77_4core5clone5Clone10clone_fromB6_, symObjAddr: 0x6228, symBinAddr: 0x4E868, symSize: 0x84 }
  - { offset: 0xBCE4E, size: 0x8, addend: 0x0, symName: __RNvYNtNtCsATtFUPiRFW_3syn4expr9ExprUnaryNtNtCs9f3LFPSIp77_4core5clone5Clone10clone_fromB6_, symObjAddr: 0x63DC, symBinAddr: 0x4EA1C, symSize: 0x84 }
  - { offset: 0xBCE8D, size: 0x8, addend: 0x0, symName: __RNvYNtNtCsATtFUPiRFW_3syn4expr9ExprWhileNtNtCs9f3LFPSIp77_4core5clone5Clone10clone_fromB6_, symObjAddr: 0x6590, symBinAddr: 0x4EBD0, symSize: 0x84 }
  - { offset: 0xBCECC, size: 0x8, addend: 0x0, symName: __RNvYNtNtCsATtFUPiRFW_3syn4expr9ExprYieldNtNtCs9f3LFPSIp77_4core5clone5Clone10clone_fromB6_, symObjAddr: 0x6744, symBinAddr: 0x4ED84, symSize: 0x84 }
  - { offset: 0xBCFD6, size: 0x8, addend: 0x0, symName: __RNvXs7_NtNtCs9f3LFPSIp77_4core3cmp5implsRNtNtCsATtFUPiRFW_3syn4expr10ExprAssignNtB7_9PartialEq2eqBH_, symObjAddr: 0xE40, symBinAddr: 0x49480, symSize: 0x34 }
  - { offset: 0xBD025, size: 0x8, addend: 0x0, symName: __RNvXs7_NtNtCs9f3LFPSIp77_4core3cmp5implsRNtNtCsATtFUPiRFW_3syn4expr10ExprBinaryNtB7_9PartialEq2eqBH_, symObjAddr: 0xE74, symBinAddr: 0x494B4, symSize: 0x34 }
  - { offset: 0xBD074, size: 0x8, addend: 0x0, symName: __RNvXs7_NtNtCs9f3LFPSIp77_4core3cmp5implsRNtNtCsATtFUPiRFW_3syn4expr10ExprRepeatNtB7_9PartialEq2eqBH_, symObjAddr: 0xEA8, symBinAddr: 0x494E8, symSize: 0x34 }
  - { offset: 0xBD0C3, size: 0x8, addend: 0x0, symName: __RNvXs7_NtNtCs9f3LFPSIp77_4core3cmp5implsRNtNtCsATtFUPiRFW_3syn4expr10ExprReturnNtB7_9PartialEq2eqBH_, symObjAddr: 0xEDC, symBinAddr: 0x4951C, symSize: 0x34 }
  - { offset: 0xBD112, size: 0x8, addend: 0x0, symName: __RNvXs7_NtNtCs9f3LFPSIp77_4core3cmp5implsRNtNtCsATtFUPiRFW_3syn4expr10ExprStructNtB7_9PartialEq2eqBH_, symObjAddr: 0xF10, symBinAddr: 0x49550, symSize: 0x34 }
  - { offset: 0xBD161, size: 0x8, addend: 0x0, symName: __RNvXs7_NtNtCs9f3LFPSIp77_4core3cmp5implsRNtNtCsATtFUPiRFW_3syn4expr10ExprUnsafeNtB7_9PartialEq2eqBH_, symObjAddr: 0xF44, symBinAddr: 0x49584, symSize: 0x34 }
  - { offset: 0xBD1B0, size: 0x8, addend: 0x0, symName: __RNvXs7_NtNtCs9f3LFPSIp77_4core3cmp5implsRNtNtCsATtFUPiRFW_3syn4expr11ExprClosureNtB7_9PartialEq2eqBH_, symObjAddr: 0xF78, symBinAddr: 0x495B8, symSize: 0x34 }
  - { offset: 0xBD1FF, size: 0x8, addend: 0x0, symName: __RNvXs7_NtNtCs9f3LFPSIp77_4core3cmp5implsRNtNtCsATtFUPiRFW_3syn4expr11ExprForLoopNtB7_9PartialEq2eqBH_, symObjAddr: 0xFAC, symBinAddr: 0x495EC, symSize: 0x34 }
  - { offset: 0xBD24E, size: 0x8, addend: 0x0, symName: __RNvXs7_NtNtCs9f3LFPSIp77_4core3cmp5implsRNtNtCsATtFUPiRFW_3syn4expr11ExprRawAddrNtB7_9PartialEq2eqBH_, symObjAddr: 0xFE0, symBinAddr: 0x49620, symSize: 0x34 }
  - { offset: 0xBD29D, size: 0x8, addend: 0x0, symName: __RNvXs7_NtNtCs9f3LFPSIp77_4core3cmp5implsRNtNtCsATtFUPiRFW_3syn4expr12ExprContinueNtB7_9PartialEq2eqBH_, symObjAddr: 0x1014, symBinAddr: 0x49654, symSize: 0x34 }
  - { offset: 0xBD2EC, size: 0x8, addend: 0x0, symName: __RNvXs7_NtNtCs9f3LFPSIp77_4core3cmp5implsRNtNtCsATtFUPiRFW_3syn4expr12ExprTryBlockNtB7_9PartialEq2eqBH_, symObjAddr: 0x1048, symBinAddr: 0x49688, symSize: 0x34 }
  - { offset: 0xBD33B, size: 0x8, addend: 0x0, symName: __RNvXs7_NtNtCs9f3LFPSIp77_4core3cmp5implsRNtNtCsATtFUPiRFW_3syn4expr13ExprReferenceNtB7_9PartialEq2eqBH_, symObjAddr: 0x107C, symBinAddr: 0x496BC, symSize: 0x34 }
  - { offset: 0xBD38A, size: 0x8, addend: 0x0, symName: __RNvXs7_NtNtCs9f3LFPSIp77_4core3cmp5implsRNtNtCsATtFUPiRFW_3syn4expr14ExprMethodCallNtB7_9PartialEq2eqBH_, symObjAddr: 0x10B0, symBinAddr: 0x496F0, symSize: 0x34 }
  - { offset: 0xBD3D9, size: 0x8, addend: 0x0, symName: __RNvXs7_NtNtCs9f3LFPSIp77_4core3cmp5implsRNtNtCsATtFUPiRFW_3syn4expr4ExprNtB7_9PartialEq2eqBH_, symObjAddr: 0x10E4, symBinAddr: 0x49724, symSize: 0x34 }
  - { offset: 0xBD428, size: 0x8, addend: 0x0, symName: __RNvXs7_NtNtCs9f3LFPSIp77_4core3cmp5implsRNtNtCsATtFUPiRFW_3syn4expr5IndexNtB7_9PartialEq2eqBH_, symObjAddr: 0x1118, symBinAddr: 0x49758, symSize: 0x34 }
  - { offset: 0xBD477, size: 0x8, addend: 0x0, symName: __RNvXs7_NtNtCs9f3LFPSIp77_4core3cmp5implsRNtNtCsATtFUPiRFW_3syn4expr6ExprIfNtB7_9PartialEq2eqBH_, symObjAddr: 0x114C, symBinAddr: 0x4978C, symSize: 0x34 }
  - { offset: 0xBD4C6, size: 0x8, addend: 0x0, symName: __RNvXs7_NtNtCs9f3LFPSIp77_4core3cmp5implsRNtNtCsATtFUPiRFW_3syn4expr7ExprLetNtB7_9PartialEq2eqBH_, symObjAddr: 0x1180, symBinAddr: 0x497C0, symSize: 0x34 }
  - { offset: 0xBD515, size: 0x8, addend: 0x0, symName: __RNvXs7_NtNtCs9f3LFPSIp77_4core3cmp5implsRNtNtCsATtFUPiRFW_3syn4expr7ExprLitNtB7_9PartialEq2eqBH_, symObjAddr: 0x11B4, symBinAddr: 0x497F4, symSize: 0x34 }
  - { offset: 0xBD564, size: 0x8, addend: 0x0, symName: __RNvXs7_NtNtCs9f3LFPSIp77_4core3cmp5implsRNtNtCsATtFUPiRFW_3syn4expr7ExprTryNtB7_9PartialEq2eqBH_, symObjAddr: 0x11E8, symBinAddr: 0x49828, symSize: 0x34 }
  - { offset: 0xBD5B3, size: 0x8, addend: 0x0, symName: __RNvXs7_NtNtCs9f3LFPSIp77_4core3cmp5implsRNtNtCsATtFUPiRFW_3syn4expr8ExprCallNtB7_9PartialEq2eqBH_, symObjAddr: 0x121C, symBinAddr: 0x4985C, symSize: 0x34 }
  - { offset: 0xBD602, size: 0x8, addend: 0x0, symName: __RNvXs7_NtNtCs9f3LFPSIp77_4core3cmp5implsRNtNtCsATtFUPiRFW_3syn4expr8ExprCastNtB7_9PartialEq2eqBH_, symObjAddr: 0x1250, symBinAddr: 0x49890, symSize: 0x34 }
  - { offset: 0xBD651, size: 0x8, addend: 0x0, symName: __RNvXs7_NtNtCs9f3LFPSIp77_4core3cmp5implsRNtNtCsATtFUPiRFW_3syn4expr8ExprLoopNtB7_9PartialEq2eqBH_, symObjAddr: 0x1284, symBinAddr: 0x498C4, symSize: 0x34 }
  - { offset: 0xBD6A0, size: 0x8, addend: 0x0, symName: __RNvXs7_NtNtCs9f3LFPSIp77_4core3cmp5implsRNtNtCsATtFUPiRFW_3syn4expr8ExprPathNtB7_9PartialEq2eqBH_, symObjAddr: 0x12B8, symBinAddr: 0x498F8, symSize: 0x34 }
  - { offset: 0xBD6EF, size: 0x8, addend: 0x0, symName: __RNvXs7_NtNtCs9f3LFPSIp77_4core3cmp5implsRNtNtCsATtFUPiRFW_3syn4expr9ExprArrayNtB7_9PartialEq2eqBH_, symObjAddr: 0x12EC, symBinAddr: 0x4992C, symSize: 0x34 }
  - { offset: 0xBD73E, size: 0x8, addend: 0x0, symName: __RNvXs7_NtNtCs9f3LFPSIp77_4core3cmp5implsRNtNtCsATtFUPiRFW_3syn4expr9ExprAsyncNtB7_9PartialEq2eqBH_, symObjAddr: 0x1320, symBinAddr: 0x49960, symSize: 0x34 }
  - { offset: 0xBD78D, size: 0x8, addend: 0x0, symName: __RNvXs7_NtNtCs9f3LFPSIp77_4core3cmp5implsRNtNtCsATtFUPiRFW_3syn4expr9ExprAwaitNtB7_9PartialEq2eqBH_, symObjAddr: 0x1354, symBinAddr: 0x49994, symSize: 0x34 }
  - { offset: 0xBD7DC, size: 0x8, addend: 0x0, symName: __RNvXs7_NtNtCs9f3LFPSIp77_4core3cmp5implsRNtNtCsATtFUPiRFW_3syn4expr9ExprBlockNtB7_9PartialEq2eqBH_, symObjAddr: 0x1388, symBinAddr: 0x499C8, symSize: 0x34 }
  - { offset: 0xBD82B, size: 0x8, addend: 0x0, symName: __RNvXs7_NtNtCs9f3LFPSIp77_4core3cmp5implsRNtNtCsATtFUPiRFW_3syn4expr9ExprBreakNtB7_9PartialEq2eqBH_, symObjAddr: 0x13BC, symBinAddr: 0x499FC, symSize: 0x34 }
  - { offset: 0xBD87A, size: 0x8, addend: 0x0, symName: __RNvXs7_NtNtCs9f3LFPSIp77_4core3cmp5implsRNtNtCsATtFUPiRFW_3syn4expr9ExprConstNtB7_9PartialEq2eqBH_, symObjAddr: 0x13F0, symBinAddr: 0x49A30, symSize: 0x34 }
  - { offset: 0xBD8C9, size: 0x8, addend: 0x0, symName: __RNvXs7_NtNtCs9f3LFPSIp77_4core3cmp5implsRNtNtCsATtFUPiRFW_3syn4expr9ExprFieldNtB7_9PartialEq2eqBH_, symObjAddr: 0x1424, symBinAddr: 0x49A64, symSize: 0x34 }
  - { offset: 0xBD918, size: 0x8, addend: 0x0, symName: __RNvXs7_NtNtCs9f3LFPSIp77_4core3cmp5implsRNtNtCsATtFUPiRFW_3syn4expr9ExprGroupNtB7_9PartialEq2eqBH_, symObjAddr: 0x1458, symBinAddr: 0x49A98, symSize: 0x34 }
  - { offset: 0xBD967, size: 0x8, addend: 0x0, symName: __RNvXs7_NtNtCs9f3LFPSIp77_4core3cmp5implsRNtNtCsATtFUPiRFW_3syn4expr9ExprIndexNtB7_9PartialEq2eqBH_, symObjAddr: 0x148C, symBinAddr: 0x49ACC, symSize: 0x34 }
  - { offset: 0xBD9B6, size: 0x8, addend: 0x0, symName: __RNvXs7_NtNtCs9f3LFPSIp77_4core3cmp5implsRNtNtCsATtFUPiRFW_3syn4expr9ExprInferNtB7_9PartialEq2eqBH_, symObjAddr: 0x14C0, symBinAddr: 0x49B00, symSize: 0x34 }
  - { offset: 0xBDA05, size: 0x8, addend: 0x0, symName: __RNvXs7_NtNtCs9f3LFPSIp77_4core3cmp5implsRNtNtCsATtFUPiRFW_3syn4expr9ExprMacroNtB7_9PartialEq2eqBH_, symObjAddr: 0x14F4, symBinAddr: 0x49B34, symSize: 0x34 }
  - { offset: 0xBDA54, size: 0x8, addend: 0x0, symName: __RNvXs7_NtNtCs9f3LFPSIp77_4core3cmp5implsRNtNtCsATtFUPiRFW_3syn4expr9ExprMatchNtB7_9PartialEq2eqBH_, symObjAddr: 0x1528, symBinAddr: 0x49B68, symSize: 0x34 }
  - { offset: 0xBDAA3, size: 0x8, addend: 0x0, symName: __RNvXs7_NtNtCs9f3LFPSIp77_4core3cmp5implsRNtNtCsATtFUPiRFW_3syn4expr9ExprParenNtB7_9PartialEq2eqBH_, symObjAddr: 0x155C, symBinAddr: 0x49B9C, symSize: 0x34 }
  - { offset: 0xBDAF2, size: 0x8, addend: 0x0, symName: __RNvXs7_NtNtCs9f3LFPSIp77_4core3cmp5implsRNtNtCsATtFUPiRFW_3syn4expr9ExprRangeNtB7_9PartialEq2eqBH_, symObjAddr: 0x1590, symBinAddr: 0x49BD0, symSize: 0x34 }
  - { offset: 0xBDB41, size: 0x8, addend: 0x0, symName: __RNvXs7_NtNtCs9f3LFPSIp77_4core3cmp5implsRNtNtCsATtFUPiRFW_3syn4expr9ExprTupleNtB7_9PartialEq2eqBH_, symObjAddr: 0x15C4, symBinAddr: 0x49C04, symSize: 0x34 }
  - { offset: 0xBDB90, size: 0x8, addend: 0x0, symName: __RNvXs7_NtNtCs9f3LFPSIp77_4core3cmp5implsRNtNtCsATtFUPiRFW_3syn4expr9ExprUnaryNtB7_9PartialEq2eqBH_, symObjAddr: 0x15F8, symBinAddr: 0x49C38, symSize: 0x34 }
  - { offset: 0xBDBDF, size: 0x8, addend: 0x0, symName: __RNvXs7_NtNtCs9f3LFPSIp77_4core3cmp5implsRNtNtCsATtFUPiRFW_3syn4expr9ExprWhileNtB7_9PartialEq2eqBH_, symObjAddr: 0x162C, symBinAddr: 0x49C6C, symSize: 0x34 }
  - { offset: 0xBDC2E, size: 0x8, addend: 0x0, symName: __RNvXs7_NtNtCs9f3LFPSIp77_4core3cmp5implsRNtNtCsATtFUPiRFW_3syn4expr9ExprYieldNtB7_9PartialEq2eqBH_, symObjAddr: 0x1660, symBinAddr: 0x49CA0, symSize: 0x34 }
  - { offset: 0xBDC84, size: 0x8, addend: 0x0, symName: __RNvYNtNtCsATtFUPiRFW_3syn4expr10ExprAssignNtNtCs9f3LFPSIp77_4core3cmp2Eq27assert_receiver_is_total_eqB6_, symObjAddr: 0x196C, symBinAddr: 0x49FAC, symSize: 0x10 }
  - { offset: 0xBDCB7, size: 0x8, addend: 0x0, symName: __RNvYNtNtCsATtFUPiRFW_3syn4expr10ExprBinaryNtNtCs9f3LFPSIp77_4core3cmp2Eq27assert_receiver_is_total_eqB6_, symObjAddr: 0x1B20, symBinAddr: 0x4A160, symSize: 0x10 }
  - { offset: 0xBDCEA, size: 0x8, addend: 0x0, symName: __RNvYNtNtCsATtFUPiRFW_3syn4expr10ExprRepeatNtNtCs9f3LFPSIp77_4core3cmp2Eq27assert_receiver_is_total_eqB6_, symObjAddr: 0x1CD4, symBinAddr: 0x4A314, symSize: 0x10 }
  - { offset: 0xBDD1D, size: 0x8, addend: 0x0, symName: __RNvYNtNtCsATtFUPiRFW_3syn4expr10ExprReturnNtNtCs9f3LFPSIp77_4core3cmp2Eq27assert_receiver_is_total_eqB6_, symObjAddr: 0x1E88, symBinAddr: 0x4A4C8, symSize: 0x10 }
  - { offset: 0xBDD50, size: 0x8, addend: 0x0, symName: __RNvYNtNtCsATtFUPiRFW_3syn4expr10ExprStructNtNtCs9f3LFPSIp77_4core3cmp2Eq27assert_receiver_is_total_eqB6_, symObjAddr: 0x203C, symBinAddr: 0x4A67C, symSize: 0x10 }
  - { offset: 0xBDD83, size: 0x8, addend: 0x0, symName: __RNvYNtNtCsATtFUPiRFW_3syn4expr10ExprUnsafeNtNtCs9f3LFPSIp77_4core3cmp2Eq27assert_receiver_is_total_eqB6_, symObjAddr: 0x21F0, symBinAddr: 0x4A830, symSize: 0x10 }
  - { offset: 0xBDDB6, size: 0x8, addend: 0x0, symName: __RNvYNtNtCsATtFUPiRFW_3syn4expr10FieldValueNtNtCs9f3LFPSIp77_4core3cmp2Eq27assert_receiver_is_total_eqB6_, symObjAddr: 0x23A4, symBinAddr: 0x4A9E4, symSize: 0x10 }
  - { offset: 0xBDDE9, size: 0x8, addend: 0x0, symName: __RNvYNtNtCsATtFUPiRFW_3syn4expr11ExprClosureNtNtCs9f3LFPSIp77_4core3cmp2Eq27assert_receiver_is_total_eqB6_, symObjAddr: 0x2560, symBinAddr: 0x4ABA0, symSize: 0x10 }
  - { offset: 0xBDE1C, size: 0x8, addend: 0x0, symName: __RNvYNtNtCsATtFUPiRFW_3syn4expr11ExprForLoopNtNtCs9f3LFPSIp77_4core3cmp2Eq27assert_receiver_is_total_eqB6_, symObjAddr: 0x2714, symBinAddr: 0x4AD54, symSize: 0x10 }
  - { offset: 0xBDE4F, size: 0x8, addend: 0x0, symName: __RNvYNtNtCsATtFUPiRFW_3syn4expr11ExprRawAddrNtNtCs9f3LFPSIp77_4core3cmp2Eq27assert_receiver_is_total_eqB6_, symObjAddr: 0x28C8, symBinAddr: 0x4AF08, symSize: 0x10 }
  - { offset: 0xBDE82, size: 0x8, addend: 0x0, symName: __RNvYNtNtCsATtFUPiRFW_3syn4expr11RangeLimitsNtNtCs9f3LFPSIp77_4core3cmp2Eq27assert_receiver_is_total_eqB6_, symObjAddr: 0x2A60, symBinAddr: 0x4B0A0, symSize: 0x10 }
  - { offset: 0xBDEB5, size: 0x8, addend: 0x0, symName: __RNvYNtNtCsATtFUPiRFW_3syn4expr12ExprContinueNtNtCs9f3LFPSIp77_4core3cmp2Eq27assert_receiver_is_total_eqB6_, symObjAddr: 0x2BD8, symBinAddr: 0x4B218, symSize: 0x10 }
  - { offset: 0xBDEE8, size: 0x8, addend: 0x0, symName: __RNvYNtNtCsATtFUPiRFW_3syn4expr12ExprTryBlockNtNtCs9f3LFPSIp77_4core3cmp2Eq27assert_receiver_is_total_eqB6_, symObjAddr: 0x2D8C, symBinAddr: 0x4B3CC, symSize: 0x10 }
  - { offset: 0xBDF1B, size: 0x8, addend: 0x0, symName: __RNvYNtNtCsATtFUPiRFW_3syn4expr13ExprReferenceNtNtCs9f3LFPSIp77_4core3cmp2Eq27assert_receiver_is_total_eqB6_, symObjAddr: 0x2F40, symBinAddr: 0x4B580, symSize: 0x10 }
  - { offset: 0xBDF4E, size: 0x8, addend: 0x0, symName: __RNvYNtNtCsATtFUPiRFW_3syn4expr14ExprMethodCallNtNtCs9f3LFPSIp77_4core3cmp2Eq27assert_receiver_is_total_eqB6_, symObjAddr: 0x30F4, symBinAddr: 0x4B734, symSize: 0x10 }
  - { offset: 0xBDF81, size: 0x8, addend: 0x0, symName: __RNvYNtNtCsATtFUPiRFW_3syn4expr17PointerMutabilityNtNtCs9f3LFPSIp77_4core3cmp2Eq27assert_receiver_is_total_eqB6_, symObjAddr: 0x329C, symBinAddr: 0x4B8DC, symSize: 0x10 }
  - { offset: 0xBDFB4, size: 0x8, addend: 0x0, symName: __RNvYNtNtCsATtFUPiRFW_3syn4expr3ArmNtNtCs9f3LFPSIp77_4core3cmp2Eq27assert_receiver_is_total_eqB6_, symObjAddr: 0x3420, symBinAddr: 0x4BA60, symSize: 0x10 }
  - { offset: 0xBDFE7, size: 0x8, addend: 0x0, symName: __RNvYNtNtCsATtFUPiRFW_3syn4expr4ExprNtNtCs9f3LFPSIp77_4core3cmp2Eq27assert_receiver_is_total_eqB6_, symObjAddr: 0x35DC, symBinAddr: 0x4BC1C, symSize: 0x10 }
  - { offset: 0xBE01A, size: 0x8, addend: 0x0, symName: __RNvYNtNtCsATtFUPiRFW_3syn4expr5IndexNtNtCs9f3LFPSIp77_4core3cmp2Eq27assert_receiver_is_total_eqB6_, symObjAddr: 0x3784, symBinAddr: 0x4BDC4, symSize: 0x10 }
  - { offset: 0xBE04D, size: 0x8, addend: 0x0, symName: __RNvYNtNtCsATtFUPiRFW_3syn4expr5LabelNtNtCs9f3LFPSIp77_4core3cmp2Eq27assert_receiver_is_total_eqB6_, symObjAddr: 0x3908, symBinAddr: 0x4BF48, symSize: 0x10 }
  - { offset: 0xBE080, size: 0x8, addend: 0x0, symName: __RNvYNtNtCsATtFUPiRFW_3syn4expr6ExprIfNtNtCs9f3LFPSIp77_4core3cmp2Eq27assert_receiver_is_total_eqB6_, symObjAddr: 0x3ABC, symBinAddr: 0x4C0FC, symSize: 0x10 }
  - { offset: 0xBE0B3, size: 0x8, addend: 0x0, symName: __RNvYNtNtCsATtFUPiRFW_3syn4expr6MemberNtNtCs9f3LFPSIp77_4core3cmp2Eq27assert_receiver_is_total_eqB6_, symObjAddr: 0x3C70, symBinAddr: 0x4C2B0, symSize: 0x10 }
  - { offset: 0xBE0E6, size: 0x8, addend: 0x0, symName: __RNvYNtNtCsATtFUPiRFW_3syn4expr7ExprLetNtNtCs9f3LFPSIp77_4core3cmp2Eq27assert_receiver_is_total_eqB6_, symObjAddr: 0x3E24, symBinAddr: 0x4C464, symSize: 0x10 }
  - { offset: 0xBE119, size: 0x8, addend: 0x0, symName: __RNvYNtNtCsATtFUPiRFW_3syn4expr7ExprLitNtNtCs9f3LFPSIp77_4core3cmp2Eq27assert_receiver_is_total_eqB6_, symObjAddr: 0x3FD8, symBinAddr: 0x4C618, symSize: 0x10 }
  - { offset: 0xBE14C, size: 0x8, addend: 0x0, symName: __RNvYNtNtCsATtFUPiRFW_3syn4expr7ExprTryNtNtCs9f3LFPSIp77_4core3cmp2Eq27assert_receiver_is_total_eqB6_, symObjAddr: 0x418C, symBinAddr: 0x4C7CC, symSize: 0x10 }
  - { offset: 0xBE17F, size: 0x8, addend: 0x0, symName: __RNvYNtNtCsATtFUPiRFW_3syn4expr8ExprCallNtNtCs9f3LFPSIp77_4core3cmp2Eq27assert_receiver_is_total_eqB6_, symObjAddr: 0x4340, symBinAddr: 0x4C980, symSize: 0x10 }
  - { offset: 0xBE1B2, size: 0x8, addend: 0x0, symName: __RNvYNtNtCsATtFUPiRFW_3syn4expr8ExprCastNtNtCs9f3LFPSIp77_4core3cmp2Eq27assert_receiver_is_total_eqB6_, symObjAddr: 0x44F4, symBinAddr: 0x4CB34, symSize: 0x10 }
  - { offset: 0xBE1E5, size: 0x8, addend: 0x0, symName: __RNvYNtNtCsATtFUPiRFW_3syn4expr8ExprLoopNtNtCs9f3LFPSIp77_4core3cmp2Eq27assert_receiver_is_total_eqB6_, symObjAddr: 0x46A8, symBinAddr: 0x4CCE8, symSize: 0x10 }
  - { offset: 0xBE218, size: 0x8, addend: 0x0, symName: __RNvYNtNtCsATtFUPiRFW_3syn4expr8ExprPathNtNtCs9f3LFPSIp77_4core3cmp2Eq27assert_receiver_is_total_eqB6_, symObjAddr: 0x485C, symBinAddr: 0x4CE9C, symSize: 0x10 }
  - { offset: 0xBE24B, size: 0x8, addend: 0x0, symName: __RNvYNtNtCsATtFUPiRFW_3syn4expr9ExprArrayNtNtCs9f3LFPSIp77_4core3cmp2Eq27assert_receiver_is_total_eqB6_, symObjAddr: 0x4A10, symBinAddr: 0x4D050, symSize: 0x10 }
  - { offset: 0xBE27E, size: 0x8, addend: 0x0, symName: __RNvYNtNtCsATtFUPiRFW_3syn4expr9ExprAsyncNtNtCs9f3LFPSIp77_4core3cmp2Eq27assert_receiver_is_total_eqB6_, symObjAddr: 0x4BC4, symBinAddr: 0x4D204, symSize: 0x10 }
  - { offset: 0xBE2B1, size: 0x8, addend: 0x0, symName: __RNvYNtNtCsATtFUPiRFW_3syn4expr9ExprAwaitNtNtCs9f3LFPSIp77_4core3cmp2Eq27assert_receiver_is_total_eqB6_, symObjAddr: 0x4D78, symBinAddr: 0x4D3B8, symSize: 0x10 }
  - { offset: 0xBE2E4, size: 0x8, addend: 0x0, symName: __RNvYNtNtCsATtFUPiRFW_3syn4expr9ExprBlockNtNtCs9f3LFPSIp77_4core3cmp2Eq27assert_receiver_is_total_eqB6_, symObjAddr: 0x4F2C, symBinAddr: 0x4D56C, symSize: 0x10 }
  - { offset: 0xBE317, size: 0x8, addend: 0x0, symName: __RNvYNtNtCsATtFUPiRFW_3syn4expr9ExprBreakNtNtCs9f3LFPSIp77_4core3cmp2Eq27assert_receiver_is_total_eqB6_, symObjAddr: 0x50E0, symBinAddr: 0x4D720, symSize: 0x10 }
  - { offset: 0xBE34A, size: 0x8, addend: 0x0, symName: __RNvYNtNtCsATtFUPiRFW_3syn4expr9ExprConstNtNtCs9f3LFPSIp77_4core3cmp2Eq27assert_receiver_is_total_eqB6_, symObjAddr: 0x5294, symBinAddr: 0x4D8D4, symSize: 0x10 }
  - { offset: 0xBE37D, size: 0x8, addend: 0x0, symName: __RNvYNtNtCsATtFUPiRFW_3syn4expr9ExprFieldNtNtCs9f3LFPSIp77_4core3cmp2Eq27assert_receiver_is_total_eqB6_, symObjAddr: 0x5448, symBinAddr: 0x4DA88, symSize: 0x10 }
  - { offset: 0xBE3B0, size: 0x8, addend: 0x0, symName: __RNvYNtNtCsATtFUPiRFW_3syn4expr9ExprGroupNtNtCs9f3LFPSIp77_4core3cmp2Eq27assert_receiver_is_total_eqB6_, symObjAddr: 0x55FC, symBinAddr: 0x4DC3C, symSize: 0x10 }
  - { offset: 0xBE3E3, size: 0x8, addend: 0x0, symName: __RNvYNtNtCsATtFUPiRFW_3syn4expr9ExprIndexNtNtCs9f3LFPSIp77_4core3cmp2Eq27assert_receiver_is_total_eqB6_, symObjAddr: 0x57B0, symBinAddr: 0x4DDF0, symSize: 0x10 }
  - { offset: 0xBE416, size: 0x8, addend: 0x0, symName: __RNvYNtNtCsATtFUPiRFW_3syn4expr9ExprInferNtNtCs9f3LFPSIp77_4core3cmp2Eq27assert_receiver_is_total_eqB6_, symObjAddr: 0x5964, symBinAddr: 0x4DFA4, symSize: 0x10 }
  - { offset: 0xBE449, size: 0x8, addend: 0x0, symName: __RNvYNtNtCsATtFUPiRFW_3syn4expr9ExprMacroNtNtCs9f3LFPSIp77_4core3cmp2Eq27assert_receiver_is_total_eqB6_, symObjAddr: 0x5B18, symBinAddr: 0x4E158, symSize: 0x10 }
  - { offset: 0xBE47C, size: 0x8, addend: 0x0, symName: __RNvYNtNtCsATtFUPiRFW_3syn4expr9ExprMatchNtNtCs9f3LFPSIp77_4core3cmp2Eq27assert_receiver_is_total_eqB6_, symObjAddr: 0x5CCC, symBinAddr: 0x4E30C, symSize: 0x10 }
  - { offset: 0xBE4AF, size: 0x8, addend: 0x0, symName: __RNvYNtNtCsATtFUPiRFW_3syn4expr9ExprParenNtNtCs9f3LFPSIp77_4core3cmp2Eq27assert_receiver_is_total_eqB6_, symObjAddr: 0x5E80, symBinAddr: 0x4E4C0, symSize: 0x10 }
  - { offset: 0xBE4E2, size: 0x8, addend: 0x0, symName: __RNvYNtNtCsATtFUPiRFW_3syn4expr9ExprRangeNtNtCs9f3LFPSIp77_4core3cmp2Eq27assert_receiver_is_total_eqB6_, symObjAddr: 0x6034, symBinAddr: 0x4E674, symSize: 0x10 }
  - { offset: 0xBE515, size: 0x8, addend: 0x0, symName: __RNvYNtNtCsATtFUPiRFW_3syn4expr9ExprTupleNtNtCs9f3LFPSIp77_4core3cmp2Eq27assert_receiver_is_total_eqB6_, symObjAddr: 0x61E8, symBinAddr: 0x4E828, symSize: 0x10 }
  - { offset: 0xBE548, size: 0x8, addend: 0x0, symName: __RNvYNtNtCsATtFUPiRFW_3syn4expr9ExprUnaryNtNtCs9f3LFPSIp77_4core3cmp2Eq27assert_receiver_is_total_eqB6_, symObjAddr: 0x639C, symBinAddr: 0x4E9DC, symSize: 0x10 }
  - { offset: 0xBE57B, size: 0x8, addend: 0x0, symName: __RNvYNtNtCsATtFUPiRFW_3syn4expr9ExprWhileNtNtCs9f3LFPSIp77_4core3cmp2Eq27assert_receiver_is_total_eqB6_, symObjAddr: 0x6550, symBinAddr: 0x4EB90, symSize: 0x10 }
  - { offset: 0xBE5AE, size: 0x8, addend: 0x0, symName: __RNvYNtNtCsATtFUPiRFW_3syn4expr9ExprYieldNtNtCs9f3LFPSIp77_4core3cmp2Eq27assert_receiver_is_total_eqB6_, symObjAddr: 0x6704, symBinAddr: 0x4ED44, symSize: 0x10 }
  - { offset: 0xBE5E7, size: 0x8, addend: 0x0, symName: __RNvYNtNtCsATtFUPiRFW_3syn4expr10ExprAssignNtNtCs9f3LFPSIp77_4core3cmp9PartialEq2neB6_, symObjAddr: 0x197C, symBinAddr: 0x49FBC, symSize: 0x30 }
  - { offset: 0xBE636, size: 0x8, addend: 0x0, symName: __RNvYNtNtCsATtFUPiRFW_3syn4expr10ExprBinaryNtNtCs9f3LFPSIp77_4core3cmp9PartialEq2neB6_, symObjAddr: 0x1B30, symBinAddr: 0x4A170, symSize: 0x30 }
  - { offset: 0xBE685, size: 0x8, addend: 0x0, symName: __RNvYNtNtCsATtFUPiRFW_3syn4expr10ExprRepeatNtNtCs9f3LFPSIp77_4core3cmp9PartialEq2neB6_, symObjAddr: 0x1CE4, symBinAddr: 0x4A324, symSize: 0x30 }
  - { offset: 0xBE6D4, size: 0x8, addend: 0x0, symName: __RNvYNtNtCsATtFUPiRFW_3syn4expr10ExprReturnNtNtCs9f3LFPSIp77_4core3cmp9PartialEq2neB6_, symObjAddr: 0x1E98, symBinAddr: 0x4A4D8, symSize: 0x30 }
  - { offset: 0xBE723, size: 0x8, addend: 0x0, symName: __RNvYNtNtCsATtFUPiRFW_3syn4expr10ExprStructNtNtCs9f3LFPSIp77_4core3cmp9PartialEq2neB6_, symObjAddr: 0x204C, symBinAddr: 0x4A68C, symSize: 0x30 }
  - { offset: 0xBE772, size: 0x8, addend: 0x0, symName: __RNvYNtNtCsATtFUPiRFW_3syn4expr10ExprUnsafeNtNtCs9f3LFPSIp77_4core3cmp9PartialEq2neB6_, symObjAddr: 0x2200, symBinAddr: 0x4A840, symSize: 0x30 }
  - { offset: 0xBE7C1, size: 0x8, addend: 0x0, symName: __RNvYNtNtCsATtFUPiRFW_3syn4expr10FieldValueNtNtCs9f3LFPSIp77_4core3cmp9PartialEq2neB6_, symObjAddr: 0x23B4, symBinAddr: 0x4A9F4, symSize: 0x30 }
  - { offset: 0xBE810, size: 0x8, addend: 0x0, symName: __RNvYNtNtCsATtFUPiRFW_3syn4expr11ExprClosureNtNtCs9f3LFPSIp77_4core3cmp9PartialEq2neB6_, symObjAddr: 0x2570, symBinAddr: 0x4ABB0, symSize: 0x30 }
  - { offset: 0xBE85F, size: 0x8, addend: 0x0, symName: __RNvYNtNtCsATtFUPiRFW_3syn4expr11ExprForLoopNtNtCs9f3LFPSIp77_4core3cmp9PartialEq2neB6_, symObjAddr: 0x2724, symBinAddr: 0x4AD64, symSize: 0x30 }
  - { offset: 0xBE8AE, size: 0x8, addend: 0x0, symName: __RNvYNtNtCsATtFUPiRFW_3syn4expr11ExprRawAddrNtNtCs9f3LFPSIp77_4core3cmp9PartialEq2neB6_, symObjAddr: 0x28D8, symBinAddr: 0x4AF18, symSize: 0x30 }
  - { offset: 0xBE8FD, size: 0x8, addend: 0x0, symName: __RNvYNtNtCsATtFUPiRFW_3syn4expr11RangeLimitsNtNtCs9f3LFPSIp77_4core3cmp9PartialEq2neB6_, symObjAddr: 0x2A70, symBinAddr: 0x4B0B0, symSize: 0x30 }
  - { offset: 0xBE94C, size: 0x8, addend: 0x0, symName: __RNvYNtNtCsATtFUPiRFW_3syn4expr12ExprContinueNtNtCs9f3LFPSIp77_4core3cmp9PartialEq2neB6_, symObjAddr: 0x2BE8, symBinAddr: 0x4B228, symSize: 0x30 }
  - { offset: 0xBE99B, size: 0x8, addend: 0x0, symName: __RNvYNtNtCsATtFUPiRFW_3syn4expr12ExprTryBlockNtNtCs9f3LFPSIp77_4core3cmp9PartialEq2neB6_, symObjAddr: 0x2D9C, symBinAddr: 0x4B3DC, symSize: 0x30 }
  - { offset: 0xBE9EA, size: 0x8, addend: 0x0, symName: __RNvYNtNtCsATtFUPiRFW_3syn4expr13ExprReferenceNtNtCs9f3LFPSIp77_4core3cmp9PartialEq2neB6_, symObjAddr: 0x2F50, symBinAddr: 0x4B590, symSize: 0x30 }
  - { offset: 0xBEA39, size: 0x8, addend: 0x0, symName: __RNvYNtNtCsATtFUPiRFW_3syn4expr14ExprMethodCallNtNtCs9f3LFPSIp77_4core3cmp9PartialEq2neB6_, symObjAddr: 0x3104, symBinAddr: 0x4B744, symSize: 0x30 }
  - { offset: 0xBEA88, size: 0x8, addend: 0x0, symName: __RNvYNtNtCsATtFUPiRFW_3syn4expr17PointerMutabilityNtNtCs9f3LFPSIp77_4core3cmp9PartialEq2neB6_, symObjAddr: 0x32AC, symBinAddr: 0x4B8EC, symSize: 0x30 }
  - { offset: 0xBEAD7, size: 0x8, addend: 0x0, symName: __RNvYNtNtCsATtFUPiRFW_3syn4expr3ArmNtNtCs9f3LFPSIp77_4core3cmp9PartialEq2neB6_, symObjAddr: 0x3430, symBinAddr: 0x4BA70, symSize: 0x30 }
  - { offset: 0xBEB26, size: 0x8, addend: 0x0, symName: __RNvYNtNtCsATtFUPiRFW_3syn4expr4ExprNtNtCs9f3LFPSIp77_4core3cmp9PartialEq2neB6_, symObjAddr: 0x35EC, symBinAddr: 0x4BC2C, symSize: 0x30 }
  - { offset: 0xBEB75, size: 0x8, addend: 0x0, symName: __RNvYNtNtCsATtFUPiRFW_3syn4expr5IndexNtNtCs9f3LFPSIp77_4core3cmp9PartialEq2neB6_, symObjAddr: 0x3794, symBinAddr: 0x4BDD4, symSize: 0x30 }
  - { offset: 0xBEBC4, size: 0x8, addend: 0x0, symName: __RNvYNtNtCsATtFUPiRFW_3syn4expr5LabelNtNtCs9f3LFPSIp77_4core3cmp9PartialEq2neB6_, symObjAddr: 0x3918, symBinAddr: 0x4BF58, symSize: 0x30 }
  - { offset: 0xBEC13, size: 0x8, addend: 0x0, symName: __RNvYNtNtCsATtFUPiRFW_3syn4expr6ExprIfNtNtCs9f3LFPSIp77_4core3cmp9PartialEq2neB6_, symObjAddr: 0x3ACC, symBinAddr: 0x4C10C, symSize: 0x30 }
  - { offset: 0xBEC62, size: 0x8, addend: 0x0, symName: __RNvYNtNtCsATtFUPiRFW_3syn4expr6MemberNtNtCs9f3LFPSIp77_4core3cmp9PartialEq2neB6_, symObjAddr: 0x3C80, symBinAddr: 0x4C2C0, symSize: 0x30 }
  - { offset: 0xBECB1, size: 0x8, addend: 0x0, symName: __RNvYNtNtCsATtFUPiRFW_3syn4expr7ExprLetNtNtCs9f3LFPSIp77_4core3cmp9PartialEq2neB6_, symObjAddr: 0x3E34, symBinAddr: 0x4C474, symSize: 0x30 }
  - { offset: 0xBED00, size: 0x8, addend: 0x0, symName: __RNvYNtNtCsATtFUPiRFW_3syn4expr7ExprLitNtNtCs9f3LFPSIp77_4core3cmp9PartialEq2neB6_, symObjAddr: 0x3FE8, symBinAddr: 0x4C628, symSize: 0x30 }
  - { offset: 0xBED4F, size: 0x8, addend: 0x0, symName: __RNvYNtNtCsATtFUPiRFW_3syn4expr7ExprTryNtNtCs9f3LFPSIp77_4core3cmp9PartialEq2neB6_, symObjAddr: 0x419C, symBinAddr: 0x4C7DC, symSize: 0x30 }
  - { offset: 0xBED9E, size: 0x8, addend: 0x0, symName: __RNvYNtNtCsATtFUPiRFW_3syn4expr8ExprCallNtNtCs9f3LFPSIp77_4core3cmp9PartialEq2neB6_, symObjAddr: 0x4350, symBinAddr: 0x4C990, symSize: 0x30 }
  - { offset: 0xBEDED, size: 0x8, addend: 0x0, symName: __RNvYNtNtCsATtFUPiRFW_3syn4expr8ExprCastNtNtCs9f3LFPSIp77_4core3cmp9PartialEq2neB6_, symObjAddr: 0x4504, symBinAddr: 0x4CB44, symSize: 0x30 }
  - { offset: 0xBEE3C, size: 0x8, addend: 0x0, symName: __RNvYNtNtCsATtFUPiRFW_3syn4expr8ExprLoopNtNtCs9f3LFPSIp77_4core3cmp9PartialEq2neB6_, symObjAddr: 0x46B8, symBinAddr: 0x4CCF8, symSize: 0x30 }
  - { offset: 0xBEE8B, size: 0x8, addend: 0x0, symName: __RNvYNtNtCsATtFUPiRFW_3syn4expr8ExprPathNtNtCs9f3LFPSIp77_4core3cmp9PartialEq2neB6_, symObjAddr: 0x486C, symBinAddr: 0x4CEAC, symSize: 0x30 }
  - { offset: 0xBEEDA, size: 0x8, addend: 0x0, symName: __RNvYNtNtCsATtFUPiRFW_3syn4expr9ExprArrayNtNtCs9f3LFPSIp77_4core3cmp9PartialEq2neB6_, symObjAddr: 0x4A20, symBinAddr: 0x4D060, symSize: 0x30 }
  - { offset: 0xBEF29, size: 0x8, addend: 0x0, symName: __RNvYNtNtCsATtFUPiRFW_3syn4expr9ExprAsyncNtNtCs9f3LFPSIp77_4core3cmp9PartialEq2neB6_, symObjAddr: 0x4BD4, symBinAddr: 0x4D214, symSize: 0x30 }
  - { offset: 0xBEF78, size: 0x8, addend: 0x0, symName: __RNvYNtNtCsATtFUPiRFW_3syn4expr9ExprAwaitNtNtCs9f3LFPSIp77_4core3cmp9PartialEq2neB6_, symObjAddr: 0x4D88, symBinAddr: 0x4D3C8, symSize: 0x30 }
  - { offset: 0xBEFC7, size: 0x8, addend: 0x0, symName: __RNvYNtNtCsATtFUPiRFW_3syn4expr9ExprBlockNtNtCs9f3LFPSIp77_4core3cmp9PartialEq2neB6_, symObjAddr: 0x4F3C, symBinAddr: 0x4D57C, symSize: 0x30 }
  - { offset: 0xBF016, size: 0x8, addend: 0x0, symName: __RNvYNtNtCsATtFUPiRFW_3syn4expr9ExprBreakNtNtCs9f3LFPSIp77_4core3cmp9PartialEq2neB6_, symObjAddr: 0x50F0, symBinAddr: 0x4D730, symSize: 0x30 }
  - { offset: 0xBF065, size: 0x8, addend: 0x0, symName: __RNvYNtNtCsATtFUPiRFW_3syn4expr9ExprConstNtNtCs9f3LFPSIp77_4core3cmp9PartialEq2neB6_, symObjAddr: 0x52A4, symBinAddr: 0x4D8E4, symSize: 0x30 }
  - { offset: 0xBF0B4, size: 0x8, addend: 0x0, symName: __RNvYNtNtCsATtFUPiRFW_3syn4expr9ExprFieldNtNtCs9f3LFPSIp77_4core3cmp9PartialEq2neB6_, symObjAddr: 0x5458, symBinAddr: 0x4DA98, symSize: 0x30 }
  - { offset: 0xBF103, size: 0x8, addend: 0x0, symName: __RNvYNtNtCsATtFUPiRFW_3syn4expr9ExprGroupNtNtCs9f3LFPSIp77_4core3cmp9PartialEq2neB6_, symObjAddr: 0x560C, symBinAddr: 0x4DC4C, symSize: 0x30 }
  - { offset: 0xBF152, size: 0x8, addend: 0x0, symName: __RNvYNtNtCsATtFUPiRFW_3syn4expr9ExprIndexNtNtCs9f3LFPSIp77_4core3cmp9PartialEq2neB6_, symObjAddr: 0x57C0, symBinAddr: 0x4DE00, symSize: 0x30 }
  - { offset: 0xBF1A1, size: 0x8, addend: 0x0, symName: __RNvYNtNtCsATtFUPiRFW_3syn4expr9ExprInferNtNtCs9f3LFPSIp77_4core3cmp9PartialEq2neB6_, symObjAddr: 0x5974, symBinAddr: 0x4DFB4, symSize: 0x30 }
  - { offset: 0xBF1F0, size: 0x8, addend: 0x0, symName: __RNvYNtNtCsATtFUPiRFW_3syn4expr9ExprMacroNtNtCs9f3LFPSIp77_4core3cmp9PartialEq2neB6_, symObjAddr: 0x5B28, symBinAddr: 0x4E168, symSize: 0x30 }
  - { offset: 0xBF23F, size: 0x8, addend: 0x0, symName: __RNvYNtNtCsATtFUPiRFW_3syn4expr9ExprMatchNtNtCs9f3LFPSIp77_4core3cmp9PartialEq2neB6_, symObjAddr: 0x5CDC, symBinAddr: 0x4E31C, symSize: 0x30 }
  - { offset: 0xBF28E, size: 0x8, addend: 0x0, symName: __RNvYNtNtCsATtFUPiRFW_3syn4expr9ExprParenNtNtCs9f3LFPSIp77_4core3cmp9PartialEq2neB6_, symObjAddr: 0x5E90, symBinAddr: 0x4E4D0, symSize: 0x30 }
  - { offset: 0xBF2DD, size: 0x8, addend: 0x0, symName: __RNvYNtNtCsATtFUPiRFW_3syn4expr9ExprRangeNtNtCs9f3LFPSIp77_4core3cmp9PartialEq2neB6_, symObjAddr: 0x6044, symBinAddr: 0x4E684, symSize: 0x30 }
  - { offset: 0xBF32C, size: 0x8, addend: 0x0, symName: __RNvYNtNtCsATtFUPiRFW_3syn4expr9ExprTupleNtNtCs9f3LFPSIp77_4core3cmp9PartialEq2neB6_, symObjAddr: 0x61F8, symBinAddr: 0x4E838, symSize: 0x30 }
  - { offset: 0xBF37B, size: 0x8, addend: 0x0, symName: __RNvYNtNtCsATtFUPiRFW_3syn4expr9ExprUnaryNtNtCs9f3LFPSIp77_4core3cmp9PartialEq2neB6_, symObjAddr: 0x63AC, symBinAddr: 0x4E9EC, symSize: 0x30 }
  - { offset: 0xBF3CA, size: 0x8, addend: 0x0, symName: __RNvYNtNtCsATtFUPiRFW_3syn4expr9ExprWhileNtNtCs9f3LFPSIp77_4core3cmp9PartialEq2neB6_, symObjAddr: 0x6560, symBinAddr: 0x4EBA0, symSize: 0x30 }
  - { offset: 0xBF419, size: 0x8, addend: 0x0, symName: __RNvYNtNtCsATtFUPiRFW_3syn4expr9ExprYieldNtNtCs9f3LFPSIp77_4core3cmp9PartialEq2neB6_, symObjAddr: 0x6714, symBinAddr: 0x4ED54, symSize: 0x30 }
  - { offset: 0xBF474, size: 0x8, addend: 0x0, symName: __RNvXs8_NtCs9f3LFPSIp77_4core5tupleTNtNtCsATtFUPiRFW_3syn4expr10FieldValueNtNtBB_5token5CommaENtNtB7_3cmp9PartialEq2neBB_, symObjAddr: 0x1694, symBinAddr: 0x49CD4, symSize: 0x64 }
  - { offset: 0xBF4C0, size: 0x8, addend: 0x0, symName: __RNvXs8_NtCs9f3LFPSIp77_4core5tupleTNtNtCsATtFUPiRFW_3syn4expr4ExprNtNtBB_5token5CommaENtNtB7_3cmp9PartialEq2neBB_, symObjAddr: 0x16F8, symBinAddr: 0x49D38, symSize: 0x64 }
  - { offset: 0xC1BDF, size: 0x8, addend: 0x0, symName: __RNvXNtCs62MdaZFMefA_5quote9to_tokensRNtNtCsATtFUPiRFW_3syn4expr10FieldValueNtB2_8ToTokens9to_tokensBD_, symObjAddr: 0x8B4, symBinAddr: 0x48EF4, symSize: 0x40 }
  - { offset: 0xC1C1E, size: 0x8, addend: 0x0, symName: __RNvXNtCs62MdaZFMefA_5quote9to_tokensRNtNtCsATtFUPiRFW_3syn4expr4ExprNtB2_8ToTokens9to_tokensBD_, symObjAddr: 0x8F4, symBinAddr: 0x48F34, symSize: 0x40 }
  - { offset: 0xC1C63, size: 0x8, addend: 0x0, symName: __RNvYNtNtCsATtFUPiRFW_3syn4expr10ExprAssignNtNtCs62MdaZFMefA_5quote9to_tokens8ToTokens15to_token_streamB6_, symObjAddr: 0x187C, symBinAddr: 0x49EBC, symSize: 0x8C }
  - { offset: 0xC1CAD, size: 0x8, addend: 0x0, symName: __RNvYNtNtCsATtFUPiRFW_3syn4expr10ExprAssignNtNtCs62MdaZFMefA_5quote9to_tokens8ToTokens17into_token_streamB6_, symObjAddr: 0x1908, symBinAddr: 0x49F48, symSize: 0x64 }
  - { offset: 0xC1CE3, size: 0x8, addend: 0x0, symName: __RNvYNtNtCsATtFUPiRFW_3syn4expr10ExprBinaryNtNtCs62MdaZFMefA_5quote9to_tokens8ToTokens15to_token_streamB6_, symObjAddr: 0x1A30, symBinAddr: 0x4A070, symSize: 0x8C }
  - { offset: 0xC1D2D, size: 0x8, addend: 0x0, symName: __RNvYNtNtCsATtFUPiRFW_3syn4expr10ExprBinaryNtNtCs62MdaZFMefA_5quote9to_tokens8ToTokens17into_token_streamB6_, symObjAddr: 0x1ABC, symBinAddr: 0x4A0FC, symSize: 0x64 }
  - { offset: 0xC1D63, size: 0x8, addend: 0x0, symName: __RNvYNtNtCsATtFUPiRFW_3syn4expr10ExprRepeatNtNtCs62MdaZFMefA_5quote9to_tokens8ToTokens15to_token_streamB6_, symObjAddr: 0x1BE4, symBinAddr: 0x4A224, symSize: 0x8C }
  - { offset: 0xC1DAD, size: 0x8, addend: 0x0, symName: __RNvYNtNtCsATtFUPiRFW_3syn4expr10ExprRepeatNtNtCs62MdaZFMefA_5quote9to_tokens8ToTokens17into_token_streamB6_, symObjAddr: 0x1C70, symBinAddr: 0x4A2B0, symSize: 0x64 }
  - { offset: 0xC1DE3, size: 0x8, addend: 0x0, symName: __RNvYNtNtCsATtFUPiRFW_3syn4expr10ExprReturnNtNtCs62MdaZFMefA_5quote9to_tokens8ToTokens15to_token_streamB6_, symObjAddr: 0x1D98, symBinAddr: 0x4A3D8, symSize: 0x8C }
  - { offset: 0xC1E2D, size: 0x8, addend: 0x0, symName: __RNvYNtNtCsATtFUPiRFW_3syn4expr10ExprReturnNtNtCs62MdaZFMefA_5quote9to_tokens8ToTokens17into_token_streamB6_, symObjAddr: 0x1E24, symBinAddr: 0x4A464, symSize: 0x64 }
  - { offset: 0xC1E63, size: 0x8, addend: 0x0, symName: __RNvYNtNtCsATtFUPiRFW_3syn4expr10ExprStructNtNtCs62MdaZFMefA_5quote9to_tokens8ToTokens15to_token_streamB6_, symObjAddr: 0x1F4C, symBinAddr: 0x4A58C, symSize: 0x8C }
  - { offset: 0xC1EAD, size: 0x8, addend: 0x0, symName: __RNvYNtNtCsATtFUPiRFW_3syn4expr10ExprStructNtNtCs62MdaZFMefA_5quote9to_tokens8ToTokens17into_token_streamB6_, symObjAddr: 0x1FD8, symBinAddr: 0x4A618, symSize: 0x64 }
  - { offset: 0xC1EE3, size: 0x8, addend: 0x0, symName: __RNvYNtNtCsATtFUPiRFW_3syn4expr10ExprUnsafeNtNtCs62MdaZFMefA_5quote9to_tokens8ToTokens15to_token_streamB6_, symObjAddr: 0x2100, symBinAddr: 0x4A740, symSize: 0x8C }
  - { offset: 0xC1F2D, size: 0x8, addend: 0x0, symName: __RNvYNtNtCsATtFUPiRFW_3syn4expr10ExprUnsafeNtNtCs62MdaZFMefA_5quote9to_tokens8ToTokens17into_token_streamB6_, symObjAddr: 0x218C, symBinAddr: 0x4A7CC, symSize: 0x64 }
  - { offset: 0xC1F63, size: 0x8, addend: 0x0, symName: __RNvYNtNtCsATtFUPiRFW_3syn4expr10FieldValueNtNtCs62MdaZFMefA_5quote9to_tokens8ToTokens15to_token_streamB6_, symObjAddr: 0x22B4, symBinAddr: 0x4A8F4, symSize: 0x8C }
  - { offset: 0xC1FAD, size: 0x8, addend: 0x0, symName: __RNvYNtNtCsATtFUPiRFW_3syn4expr10FieldValueNtNtCs62MdaZFMefA_5quote9to_tokens8ToTokens17into_token_streamB6_, symObjAddr: 0x2340, symBinAddr: 0x4A980, symSize: 0x64 }
  - { offset: 0xC1FE3, size: 0x8, addend: 0x0, symName: __RNvYNtNtCsATtFUPiRFW_3syn4expr11ExprClosureNtNtCs62MdaZFMefA_5quote9to_tokens8ToTokens15to_token_streamB6_, symObjAddr: 0x2470, symBinAddr: 0x4AAB0, symSize: 0x8C }
  - { offset: 0xC202D, size: 0x8, addend: 0x0, symName: __RNvYNtNtCsATtFUPiRFW_3syn4expr11ExprClosureNtNtCs62MdaZFMefA_5quote9to_tokens8ToTokens17into_token_streamB6_, symObjAddr: 0x24FC, symBinAddr: 0x4AB3C, symSize: 0x64 }
  - { offset: 0xC2063, size: 0x8, addend: 0x0, symName: __RNvYNtNtCsATtFUPiRFW_3syn4expr11ExprForLoopNtNtCs62MdaZFMefA_5quote9to_tokens8ToTokens15to_token_streamB6_, symObjAddr: 0x2624, symBinAddr: 0x4AC64, symSize: 0x8C }
  - { offset: 0xC20AD, size: 0x8, addend: 0x0, symName: __RNvYNtNtCsATtFUPiRFW_3syn4expr11ExprForLoopNtNtCs62MdaZFMefA_5quote9to_tokens8ToTokens17into_token_streamB6_, symObjAddr: 0x26B0, symBinAddr: 0x4ACF0, symSize: 0x64 }
  - { offset: 0xC20E3, size: 0x8, addend: 0x0, symName: __RNvYNtNtCsATtFUPiRFW_3syn4expr11ExprRawAddrNtNtCs62MdaZFMefA_5quote9to_tokens8ToTokens15to_token_streamB6_, symObjAddr: 0x27D8, symBinAddr: 0x4AE18, symSize: 0x8C }
  - { offset: 0xC212D, size: 0x8, addend: 0x0, symName: __RNvYNtNtCsATtFUPiRFW_3syn4expr11ExprRawAddrNtNtCs62MdaZFMefA_5quote9to_tokens8ToTokens17into_token_streamB6_, symObjAddr: 0x2864, symBinAddr: 0x4AEA4, symSize: 0x64 }
  - { offset: 0xC2163, size: 0x8, addend: 0x0, symName: __RNvYNtNtCsATtFUPiRFW_3syn4expr11RangeLimitsNtNtCs62MdaZFMefA_5quote9to_tokens8ToTokens15to_token_streamB6_, symObjAddr: 0x298C, symBinAddr: 0x4AFCC, symSize: 0x8C }
  - { offset: 0xC21AD, size: 0x8, addend: 0x0, symName: __RNvYNtNtCsATtFUPiRFW_3syn4expr11RangeLimitsNtNtCs62MdaZFMefA_5quote9to_tokens8ToTokens17into_token_streamB6_, symObjAddr: 0x2A18, symBinAddr: 0x4B058, symSize: 0x48 }
  - { offset: 0xC21E3, size: 0x8, addend: 0x0, symName: __RNvYNtNtCsATtFUPiRFW_3syn4expr12ExprContinueNtNtCs62MdaZFMefA_5quote9to_tokens8ToTokens15to_token_streamB6_, symObjAddr: 0x2AE8, symBinAddr: 0x4B128, symSize: 0x8C }
  - { offset: 0xC222D, size: 0x8, addend: 0x0, symName: __RNvYNtNtCsATtFUPiRFW_3syn4expr12ExprContinueNtNtCs62MdaZFMefA_5quote9to_tokens8ToTokens17into_token_streamB6_, symObjAddr: 0x2B74, symBinAddr: 0x4B1B4, symSize: 0x64 }
  - { offset: 0xC2263, size: 0x8, addend: 0x0, symName: __RNvYNtNtCsATtFUPiRFW_3syn4expr12ExprTryBlockNtNtCs62MdaZFMefA_5quote9to_tokens8ToTokens15to_token_streamB6_, symObjAddr: 0x2C9C, symBinAddr: 0x4B2DC, symSize: 0x8C }
  - { offset: 0xC22AD, size: 0x8, addend: 0x0, symName: __RNvYNtNtCsATtFUPiRFW_3syn4expr12ExprTryBlockNtNtCs62MdaZFMefA_5quote9to_tokens8ToTokens17into_token_streamB6_, symObjAddr: 0x2D28, symBinAddr: 0x4B368, symSize: 0x64 }
  - { offset: 0xC22E3, size: 0x8, addend: 0x0, symName: __RNvYNtNtCsATtFUPiRFW_3syn4expr13ExprReferenceNtNtCs62MdaZFMefA_5quote9to_tokens8ToTokens15to_token_streamB6_, symObjAddr: 0x2E50, symBinAddr: 0x4B490, symSize: 0x8C }
  - { offset: 0xC232D, size: 0x8, addend: 0x0, symName: __RNvYNtNtCsATtFUPiRFW_3syn4expr13ExprReferenceNtNtCs62MdaZFMefA_5quote9to_tokens8ToTokens17into_token_streamB6_, symObjAddr: 0x2EDC, symBinAddr: 0x4B51C, symSize: 0x64 }
  - { offset: 0xC2363, size: 0x8, addend: 0x0, symName: __RNvYNtNtCsATtFUPiRFW_3syn4expr14ExprMethodCallNtNtCs62MdaZFMefA_5quote9to_tokens8ToTokens15to_token_streamB6_, symObjAddr: 0x3004, symBinAddr: 0x4B644, symSize: 0x8C }
  - { offset: 0xC23AD, size: 0x8, addend: 0x0, symName: __RNvYNtNtCsATtFUPiRFW_3syn4expr14ExprMethodCallNtNtCs62MdaZFMefA_5quote9to_tokens8ToTokens17into_token_streamB6_, symObjAddr: 0x3090, symBinAddr: 0x4B6D0, symSize: 0x64 }
  - { offset: 0xC23E3, size: 0x8, addend: 0x0, symName: __RNvYNtNtCsATtFUPiRFW_3syn4expr17PointerMutabilityNtNtCs62MdaZFMefA_5quote9to_tokens8ToTokens15to_token_streamB6_, symObjAddr: 0x31B8, symBinAddr: 0x4B7F8, symSize: 0x8C }
  - { offset: 0xC242D, size: 0x8, addend: 0x0, symName: __RNvYNtNtCsATtFUPiRFW_3syn4expr17PointerMutabilityNtNtCs62MdaZFMefA_5quote9to_tokens8ToTokens17into_token_streamB6_, symObjAddr: 0x3244, symBinAddr: 0x4B884, symSize: 0x58 }
  - { offset: 0xC2462, size: 0x8, addend: 0x0, symName: __RNvYNtNtCsATtFUPiRFW_3syn4expr3ArmNtNtCs62MdaZFMefA_5quote9to_tokens8ToTokens15to_token_streamB6_, symObjAddr: 0x3330, symBinAddr: 0x4B970, symSize: 0x8C }
  - { offset: 0xC24AC, size: 0x8, addend: 0x0, symName: __RNvYNtNtCsATtFUPiRFW_3syn4expr3ArmNtNtCs62MdaZFMefA_5quote9to_tokens8ToTokens17into_token_streamB6_, symObjAddr: 0x33BC, symBinAddr: 0x4B9FC, symSize: 0x64 }
  - { offset: 0xC24E2, size: 0x8, addend: 0x0, symName: __RNvYNtNtCsATtFUPiRFW_3syn4expr4ExprNtNtCs62MdaZFMefA_5quote9to_tokens8ToTokens15to_token_streamB6_, symObjAddr: 0x34EC, symBinAddr: 0x4BB2C, symSize: 0x8C }
  - { offset: 0xC252C, size: 0x8, addend: 0x0, symName: __RNvYNtNtCsATtFUPiRFW_3syn4expr4ExprNtNtCs62MdaZFMefA_5quote9to_tokens8ToTokens17into_token_streamB6_, symObjAddr: 0x3578, symBinAddr: 0x4BBB8, symSize: 0x64 }
  - { offset: 0xC2562, size: 0x8, addend: 0x0, symName: __RNvYNtNtCsATtFUPiRFW_3syn4expr5IndexNtNtCs62MdaZFMefA_5quote9to_tokens8ToTokens15to_token_streamB6_, symObjAddr: 0x36A0, symBinAddr: 0x4BCE0, symSize: 0x8C }
  - { offset: 0xC25AC, size: 0x8, addend: 0x0, symName: __RNvYNtNtCsATtFUPiRFW_3syn4expr5IndexNtNtCs62MdaZFMefA_5quote9to_tokens8ToTokens17into_token_streamB6_, symObjAddr: 0x372C, symBinAddr: 0x4BD6C, symSize: 0x58 }
  - { offset: 0xC25E1, size: 0x8, addend: 0x0, symName: __RNvYNtNtCsATtFUPiRFW_3syn4expr5LabelNtNtCs62MdaZFMefA_5quote9to_tokens8ToTokens15to_token_streamB6_, symObjAddr: 0x3818, symBinAddr: 0x4BE58, symSize: 0x8C }
  - { offset: 0xC262B, size: 0x8, addend: 0x0, symName: __RNvYNtNtCsATtFUPiRFW_3syn4expr5LabelNtNtCs62MdaZFMefA_5quote9to_tokens8ToTokens17into_token_streamB6_, symObjAddr: 0x38A4, symBinAddr: 0x4BEE4, symSize: 0x64 }
  - { offset: 0xC2661, size: 0x8, addend: 0x0, symName: __RNvYNtNtCsATtFUPiRFW_3syn4expr6ExprIfNtNtCs62MdaZFMefA_5quote9to_tokens8ToTokens15to_token_streamB6_, symObjAddr: 0x39CC, symBinAddr: 0x4C00C, symSize: 0x8C }
  - { offset: 0xC26AB, size: 0x8, addend: 0x0, symName: __RNvYNtNtCsATtFUPiRFW_3syn4expr6ExprIfNtNtCs62MdaZFMefA_5quote9to_tokens8ToTokens17into_token_streamB6_, symObjAddr: 0x3A58, symBinAddr: 0x4C098, symSize: 0x64 }
  - { offset: 0xC26E1, size: 0x8, addend: 0x0, symName: __RNvYNtNtCsATtFUPiRFW_3syn4expr6MemberNtNtCs62MdaZFMefA_5quote9to_tokens8ToTokens15to_token_streamB6_, symObjAddr: 0x3B80, symBinAddr: 0x4C1C0, symSize: 0x8C }
  - { offset: 0xC272B, size: 0x8, addend: 0x0, symName: __RNvYNtNtCsATtFUPiRFW_3syn4expr6MemberNtNtCs62MdaZFMefA_5quote9to_tokens8ToTokens17into_token_streamB6_, symObjAddr: 0x3C0C, symBinAddr: 0x4C24C, symSize: 0x64 }
  - { offset: 0xC2761, size: 0x8, addend: 0x0, symName: __RNvYNtNtCsATtFUPiRFW_3syn4expr7ExprLetNtNtCs62MdaZFMefA_5quote9to_tokens8ToTokens15to_token_streamB6_, symObjAddr: 0x3D34, symBinAddr: 0x4C374, symSize: 0x8C }
  - { offset: 0xC27AB, size: 0x8, addend: 0x0, symName: __RNvYNtNtCsATtFUPiRFW_3syn4expr7ExprLetNtNtCs62MdaZFMefA_5quote9to_tokens8ToTokens17into_token_streamB6_, symObjAddr: 0x3DC0, symBinAddr: 0x4C400, symSize: 0x64 }
  - { offset: 0xC27E1, size: 0x8, addend: 0x0, symName: __RNvYNtNtCsATtFUPiRFW_3syn4expr7ExprLitNtNtCs62MdaZFMefA_5quote9to_tokens8ToTokens15to_token_streamB6_, symObjAddr: 0x3EE8, symBinAddr: 0x4C528, symSize: 0x8C }
  - { offset: 0xC282B, size: 0x8, addend: 0x0, symName: __RNvYNtNtCsATtFUPiRFW_3syn4expr7ExprLitNtNtCs62MdaZFMefA_5quote9to_tokens8ToTokens17into_token_streamB6_, symObjAddr: 0x3F74, symBinAddr: 0x4C5B4, symSize: 0x64 }
  - { offset: 0xC2861, size: 0x8, addend: 0x0, symName: __RNvYNtNtCsATtFUPiRFW_3syn4expr7ExprTryNtNtCs62MdaZFMefA_5quote9to_tokens8ToTokens15to_token_streamB6_, symObjAddr: 0x409C, symBinAddr: 0x4C6DC, symSize: 0x8C }
  - { offset: 0xC28AB, size: 0x8, addend: 0x0, symName: __RNvYNtNtCsATtFUPiRFW_3syn4expr7ExprTryNtNtCs62MdaZFMefA_5quote9to_tokens8ToTokens17into_token_streamB6_, symObjAddr: 0x4128, symBinAddr: 0x4C768, symSize: 0x64 }
  - { offset: 0xC28E1, size: 0x8, addend: 0x0, symName: __RNvYNtNtCsATtFUPiRFW_3syn4expr8ExprCallNtNtCs62MdaZFMefA_5quote9to_tokens8ToTokens15to_token_streamB6_, symObjAddr: 0x4250, symBinAddr: 0x4C890, symSize: 0x8C }
  - { offset: 0xC292B, size: 0x8, addend: 0x0, symName: __RNvYNtNtCsATtFUPiRFW_3syn4expr8ExprCallNtNtCs62MdaZFMefA_5quote9to_tokens8ToTokens17into_token_streamB6_, symObjAddr: 0x42DC, symBinAddr: 0x4C91C, symSize: 0x64 }
  - { offset: 0xC2961, size: 0x8, addend: 0x0, symName: __RNvYNtNtCsATtFUPiRFW_3syn4expr8ExprCastNtNtCs62MdaZFMefA_5quote9to_tokens8ToTokens15to_token_streamB6_, symObjAddr: 0x4404, symBinAddr: 0x4CA44, symSize: 0x8C }
  - { offset: 0xC29AB, size: 0x8, addend: 0x0, symName: __RNvYNtNtCsATtFUPiRFW_3syn4expr8ExprCastNtNtCs62MdaZFMefA_5quote9to_tokens8ToTokens17into_token_streamB6_, symObjAddr: 0x4490, symBinAddr: 0x4CAD0, symSize: 0x64 }
  - { offset: 0xC29E1, size: 0x8, addend: 0x0, symName: __RNvYNtNtCsATtFUPiRFW_3syn4expr8ExprLoopNtNtCs62MdaZFMefA_5quote9to_tokens8ToTokens15to_token_streamB6_, symObjAddr: 0x45B8, symBinAddr: 0x4CBF8, symSize: 0x8C }
  - { offset: 0xC2A2B, size: 0x8, addend: 0x0, symName: __RNvYNtNtCsATtFUPiRFW_3syn4expr8ExprLoopNtNtCs62MdaZFMefA_5quote9to_tokens8ToTokens17into_token_streamB6_, symObjAddr: 0x4644, symBinAddr: 0x4CC84, symSize: 0x64 }
  - { offset: 0xC2A61, size: 0x8, addend: 0x0, symName: __RNvYNtNtCsATtFUPiRFW_3syn4expr8ExprPathNtNtCs62MdaZFMefA_5quote9to_tokens8ToTokens15to_token_streamB6_, symObjAddr: 0x476C, symBinAddr: 0x4CDAC, symSize: 0x8C }
  - { offset: 0xC2AAB, size: 0x8, addend: 0x0, symName: __RNvYNtNtCsATtFUPiRFW_3syn4expr8ExprPathNtNtCs62MdaZFMefA_5quote9to_tokens8ToTokens17into_token_streamB6_, symObjAddr: 0x47F8, symBinAddr: 0x4CE38, symSize: 0x64 }
  - { offset: 0xC2AE1, size: 0x8, addend: 0x0, symName: __RNvYNtNtCsATtFUPiRFW_3syn4expr9ExprArrayNtNtCs62MdaZFMefA_5quote9to_tokens8ToTokens15to_token_streamB6_, symObjAddr: 0x4920, symBinAddr: 0x4CF60, symSize: 0x8C }
  - { offset: 0xC2B2B, size: 0x8, addend: 0x0, symName: __RNvYNtNtCsATtFUPiRFW_3syn4expr9ExprArrayNtNtCs62MdaZFMefA_5quote9to_tokens8ToTokens17into_token_streamB6_, symObjAddr: 0x49AC, symBinAddr: 0x4CFEC, symSize: 0x64 }
  - { offset: 0xC2B61, size: 0x8, addend: 0x0, symName: __RNvYNtNtCsATtFUPiRFW_3syn4expr9ExprAsyncNtNtCs62MdaZFMefA_5quote9to_tokens8ToTokens15to_token_streamB6_, symObjAddr: 0x4AD4, symBinAddr: 0x4D114, symSize: 0x8C }
  - { offset: 0xC2BAB, size: 0x8, addend: 0x0, symName: __RNvYNtNtCsATtFUPiRFW_3syn4expr9ExprAsyncNtNtCs62MdaZFMefA_5quote9to_tokens8ToTokens17into_token_streamB6_, symObjAddr: 0x4B60, symBinAddr: 0x4D1A0, symSize: 0x64 }
  - { offset: 0xC2BE1, size: 0x8, addend: 0x0, symName: __RNvYNtNtCsATtFUPiRFW_3syn4expr9ExprAwaitNtNtCs62MdaZFMefA_5quote9to_tokens8ToTokens15to_token_streamB6_, symObjAddr: 0x4C88, symBinAddr: 0x4D2C8, symSize: 0x8C }
  - { offset: 0xC2C2B, size: 0x8, addend: 0x0, symName: __RNvYNtNtCsATtFUPiRFW_3syn4expr9ExprAwaitNtNtCs62MdaZFMefA_5quote9to_tokens8ToTokens17into_token_streamB6_, symObjAddr: 0x4D14, symBinAddr: 0x4D354, symSize: 0x64 }
  - { offset: 0xC2C61, size: 0x8, addend: 0x0, symName: __RNvYNtNtCsATtFUPiRFW_3syn4expr9ExprBlockNtNtCs62MdaZFMefA_5quote9to_tokens8ToTokens15to_token_streamB6_, symObjAddr: 0x4E3C, symBinAddr: 0x4D47C, symSize: 0x8C }
  - { offset: 0xC2CAB, size: 0x8, addend: 0x0, symName: __RNvYNtNtCsATtFUPiRFW_3syn4expr9ExprBlockNtNtCs62MdaZFMefA_5quote9to_tokens8ToTokens17into_token_streamB6_, symObjAddr: 0x4EC8, symBinAddr: 0x4D508, symSize: 0x64 }
  - { offset: 0xC2CE1, size: 0x8, addend: 0x0, symName: __RNvYNtNtCsATtFUPiRFW_3syn4expr9ExprBreakNtNtCs62MdaZFMefA_5quote9to_tokens8ToTokens15to_token_streamB6_, symObjAddr: 0x4FF0, symBinAddr: 0x4D630, symSize: 0x8C }
  - { offset: 0xC2D2B, size: 0x8, addend: 0x0, symName: __RNvYNtNtCsATtFUPiRFW_3syn4expr9ExprBreakNtNtCs62MdaZFMefA_5quote9to_tokens8ToTokens17into_token_streamB6_, symObjAddr: 0x507C, symBinAddr: 0x4D6BC, symSize: 0x64 }
  - { offset: 0xC2D61, size: 0x8, addend: 0x0, symName: __RNvYNtNtCsATtFUPiRFW_3syn4expr9ExprConstNtNtCs62MdaZFMefA_5quote9to_tokens8ToTokens15to_token_streamB6_, symObjAddr: 0x51A4, symBinAddr: 0x4D7E4, symSize: 0x8C }
  - { offset: 0xC2DAB, size: 0x8, addend: 0x0, symName: __RNvYNtNtCsATtFUPiRFW_3syn4expr9ExprConstNtNtCs62MdaZFMefA_5quote9to_tokens8ToTokens17into_token_streamB6_, symObjAddr: 0x5230, symBinAddr: 0x4D870, symSize: 0x64 }
  - { offset: 0xC2DE1, size: 0x8, addend: 0x0, symName: __RNvYNtNtCsATtFUPiRFW_3syn4expr9ExprFieldNtNtCs62MdaZFMefA_5quote9to_tokens8ToTokens15to_token_streamB6_, symObjAddr: 0x5358, symBinAddr: 0x4D998, symSize: 0x8C }
  - { offset: 0xC2E2B, size: 0x8, addend: 0x0, symName: __RNvYNtNtCsATtFUPiRFW_3syn4expr9ExprFieldNtNtCs62MdaZFMefA_5quote9to_tokens8ToTokens17into_token_streamB6_, symObjAddr: 0x53E4, symBinAddr: 0x4DA24, symSize: 0x64 }
  - { offset: 0xC2E61, size: 0x8, addend: 0x0, symName: __RNvYNtNtCsATtFUPiRFW_3syn4expr9ExprGroupNtNtCs62MdaZFMefA_5quote9to_tokens8ToTokens15to_token_streamB6_, symObjAddr: 0x550C, symBinAddr: 0x4DB4C, symSize: 0x8C }
  - { offset: 0xC2EAB, size: 0x8, addend: 0x0, symName: __RNvYNtNtCsATtFUPiRFW_3syn4expr9ExprGroupNtNtCs62MdaZFMefA_5quote9to_tokens8ToTokens17into_token_streamB6_, symObjAddr: 0x5598, symBinAddr: 0x4DBD8, symSize: 0x64 }
  - { offset: 0xC2EE1, size: 0x8, addend: 0x0, symName: __RNvYNtNtCsATtFUPiRFW_3syn4expr9ExprIndexNtNtCs62MdaZFMefA_5quote9to_tokens8ToTokens15to_token_streamB6_, symObjAddr: 0x56C0, symBinAddr: 0x4DD00, symSize: 0x8C }
  - { offset: 0xC2F2B, size: 0x8, addend: 0x0, symName: __RNvYNtNtCsATtFUPiRFW_3syn4expr9ExprIndexNtNtCs62MdaZFMefA_5quote9to_tokens8ToTokens17into_token_streamB6_, symObjAddr: 0x574C, symBinAddr: 0x4DD8C, symSize: 0x64 }
  - { offset: 0xC2F61, size: 0x8, addend: 0x0, symName: __RNvYNtNtCsATtFUPiRFW_3syn4expr9ExprInferNtNtCs62MdaZFMefA_5quote9to_tokens8ToTokens15to_token_streamB6_, symObjAddr: 0x5874, symBinAddr: 0x4DEB4, symSize: 0x8C }
  - { offset: 0xC2FAB, size: 0x8, addend: 0x0, symName: __RNvYNtNtCsATtFUPiRFW_3syn4expr9ExprInferNtNtCs62MdaZFMefA_5quote9to_tokens8ToTokens17into_token_streamB6_, symObjAddr: 0x5900, symBinAddr: 0x4DF40, symSize: 0x64 }
  - { offset: 0xC2FE1, size: 0x8, addend: 0x0, symName: __RNvYNtNtCsATtFUPiRFW_3syn4expr9ExprMacroNtNtCs62MdaZFMefA_5quote9to_tokens8ToTokens15to_token_streamB6_, symObjAddr: 0x5A28, symBinAddr: 0x4E068, symSize: 0x8C }
  - { offset: 0xC302B, size: 0x8, addend: 0x0, symName: __RNvYNtNtCsATtFUPiRFW_3syn4expr9ExprMacroNtNtCs62MdaZFMefA_5quote9to_tokens8ToTokens17into_token_streamB6_, symObjAddr: 0x5AB4, symBinAddr: 0x4E0F4, symSize: 0x64 }
  - { offset: 0xC3061, size: 0x8, addend: 0x0, symName: __RNvYNtNtCsATtFUPiRFW_3syn4expr9ExprMatchNtNtCs62MdaZFMefA_5quote9to_tokens8ToTokens15to_token_streamB6_, symObjAddr: 0x5BDC, symBinAddr: 0x4E21C, symSize: 0x8C }
  - { offset: 0xC30AB, size: 0x8, addend: 0x0, symName: __RNvYNtNtCsATtFUPiRFW_3syn4expr9ExprMatchNtNtCs62MdaZFMefA_5quote9to_tokens8ToTokens17into_token_streamB6_, symObjAddr: 0x5C68, symBinAddr: 0x4E2A8, symSize: 0x64 }
  - { offset: 0xC30E1, size: 0x8, addend: 0x0, symName: __RNvYNtNtCsATtFUPiRFW_3syn4expr9ExprParenNtNtCs62MdaZFMefA_5quote9to_tokens8ToTokens15to_token_streamB6_, symObjAddr: 0x5D90, symBinAddr: 0x4E3D0, symSize: 0x8C }
  - { offset: 0xC312B, size: 0x8, addend: 0x0, symName: __RNvYNtNtCsATtFUPiRFW_3syn4expr9ExprParenNtNtCs62MdaZFMefA_5quote9to_tokens8ToTokens17into_token_streamB6_, symObjAddr: 0x5E1C, symBinAddr: 0x4E45C, symSize: 0x64 }
  - { offset: 0xC3161, size: 0x8, addend: 0x0, symName: __RNvYNtNtCsATtFUPiRFW_3syn4expr9ExprRangeNtNtCs62MdaZFMefA_5quote9to_tokens8ToTokens15to_token_streamB6_, symObjAddr: 0x5F44, symBinAddr: 0x4E584, symSize: 0x8C }
  - { offset: 0xC31AB, size: 0x8, addend: 0x0, symName: __RNvYNtNtCsATtFUPiRFW_3syn4expr9ExprRangeNtNtCs62MdaZFMefA_5quote9to_tokens8ToTokens17into_token_streamB6_, symObjAddr: 0x5FD0, symBinAddr: 0x4E610, symSize: 0x64 }
  - { offset: 0xC31E1, size: 0x8, addend: 0x0, symName: __RNvYNtNtCsATtFUPiRFW_3syn4expr9ExprTupleNtNtCs62MdaZFMefA_5quote9to_tokens8ToTokens15to_token_streamB6_, symObjAddr: 0x60F8, symBinAddr: 0x4E738, symSize: 0x8C }
  - { offset: 0xC322B, size: 0x8, addend: 0x0, symName: __RNvYNtNtCsATtFUPiRFW_3syn4expr9ExprTupleNtNtCs62MdaZFMefA_5quote9to_tokens8ToTokens17into_token_streamB6_, symObjAddr: 0x6184, symBinAddr: 0x4E7C4, symSize: 0x64 }
  - { offset: 0xC3261, size: 0x8, addend: 0x0, symName: __RNvYNtNtCsATtFUPiRFW_3syn4expr9ExprUnaryNtNtCs62MdaZFMefA_5quote9to_tokens8ToTokens15to_token_streamB6_, symObjAddr: 0x62AC, symBinAddr: 0x4E8EC, symSize: 0x8C }
  - { offset: 0xC32AB, size: 0x8, addend: 0x0, symName: __RNvYNtNtCsATtFUPiRFW_3syn4expr9ExprUnaryNtNtCs62MdaZFMefA_5quote9to_tokens8ToTokens17into_token_streamB6_, symObjAddr: 0x6338, symBinAddr: 0x4E978, symSize: 0x64 }
  - { offset: 0xC32E1, size: 0x8, addend: 0x0, symName: __RNvYNtNtCsATtFUPiRFW_3syn4expr9ExprWhileNtNtCs62MdaZFMefA_5quote9to_tokens8ToTokens15to_token_streamB6_, symObjAddr: 0x6460, symBinAddr: 0x4EAA0, symSize: 0x8C }
  - { offset: 0xC332B, size: 0x8, addend: 0x0, symName: __RNvYNtNtCsATtFUPiRFW_3syn4expr9ExprWhileNtNtCs62MdaZFMefA_5quote9to_tokens8ToTokens17into_token_streamB6_, symObjAddr: 0x64EC, symBinAddr: 0x4EB2C, symSize: 0x64 }
  - { offset: 0xC3361, size: 0x8, addend: 0x0, symName: __RNvYNtNtCsATtFUPiRFW_3syn4expr9ExprYieldNtNtCs62MdaZFMefA_5quote9to_tokens8ToTokens15to_token_streamB6_, symObjAddr: 0x6614, symBinAddr: 0x4EC54, symSize: 0x8C }
  - { offset: 0xC33AB, size: 0x8, addend: 0x0, symName: __RNvYNtNtCsATtFUPiRFW_3syn4expr9ExprYieldNtNtCs62MdaZFMefA_5quote9to_tokens8ToTokens17into_token_streamB6_, symObjAddr: 0x66A0, symBinAddr: 0x4ECE0, symSize: 0x64 }
  - { offset: 0xC34FA, size: 0x8, addend: 0x0, symName: __RNvMNtCsATtFUPiRFW_3syn4exprNtB2_4Expr25parse_without_eager_brace, symObjAddr: 0x67C8, symBinAddr: 0x4EE08, symSize: 0x3C }
  - { offset: 0xC351D, size: 0x8, addend: 0x0, symName: __RNvMNtCsATtFUPiRFW_3syn4exprNtB2_4Expr32parse_with_earlier_boundary_rule, symObjAddr: 0x6804, symBinAddr: 0x4EE44, symSize: 0x34 }
  - { offset: 0xC3540, size: 0x8, addend: 0x0, symName: __RNvMNtCsATtFUPiRFW_3syn4exprNtB2_4Expr4peek, symObjAddr: 0x6838, symBinAddr: 0x4EE78, symSize: 0x414 }
  - { offset: 0xC3570, size: 0x8, addend: 0x0, symName: __RNvMNtCsATtFUPiRFW_3syn4exprNtB2_4Expr13replace_attrs, symObjAddr: 0x6C4C, symBinAddr: 0x4F28C, symSize: 0x678 }
  - { offset: 0xC35C6, size: 0x8, addend: 0x0, symName: __RNvMs6_NtCsATtFUPiRFW_3syn4exprNtB5_6Member8is_named, symObjAddr: 0x7618, symBinAddr: 0x4FC58, symSize: 0x6C }
  - { offset: 0xC364C, size: 0x8, addend: 0x0, symName: __RNvMsv_NtNtCsATtFUPiRFW_3syn4expr7parsingNtB7_11RangeLimits14parse_obsolete, symObjAddr: 0xE16C, symBinAddr: 0x567AC, symSize: 0x354 }
  - { offset: 0xC36FB, size: 0x8, addend: 0x0, symName: __RNvMsy_NtNtCsATtFUPiRFW_3syn4expr7parsingNtB7_3Arm14parse_multiple, symObjAddr: 0xE818, symBinAddr: 0x56E58, symSize: 0x1D0 }
  - { offset: 0xC37B5, size: 0x8, addend: 0x0, symName: __RNvMso_NtNtCsATtFUPiRFW_3syn3gen5debugNtNtB9_4expr9ExprArray5debug, symObjAddr: 0x19CD4, symBinAddr: 0x62314, symSize: 0xDC }
  - { offset: 0xC3821, size: 0x8, addend: 0x0, symName: __RNvMsq_NtNtCsATtFUPiRFW_3syn3gen5debugNtNtB9_4expr10ExprAssign5debug, symObjAddr: 0x19DFC, symBinAddr: 0x6243C, symSize: 0x104 }
  - { offset: 0xC388D, size: 0x8, addend: 0x0, symName: __RNvMss_NtNtCsATtFUPiRFW_3syn3gen5debugNtNtB9_4expr9ExprAsync5debug, symObjAddr: 0x19F4C, symBinAddr: 0x6258C, symSize: 0x104 }
  - { offset: 0xC38F9, size: 0x8, addend: 0x0, symName: __RNvMsu_NtNtCsATtFUPiRFW_3syn3gen5debugNtNtB9_4expr9ExprAwait5debug, symObjAddr: 0x1A09C, symBinAddr: 0x626DC, symSize: 0x104 }
  - { offset: 0xC3965, size: 0x8, addend: 0x0, symName: __RNvMsw_NtNtCsATtFUPiRFW_3syn3gen5debugNtNtB9_4expr10ExprBinary5debug, symObjAddr: 0x1A1EC, symBinAddr: 0x6282C, symSize: 0x104 }
  - { offset: 0xC39D1, size: 0x8, addend: 0x0, symName: __RNvMsy_NtNtCsATtFUPiRFW_3syn3gen5debugNtNtB9_4expr9ExprBlock5debug, symObjAddr: 0x1A33C, symBinAddr: 0x6297C, symSize: 0xD8 }
  - { offset: 0xC3A3D, size: 0x8, addend: 0x0, symName: __RNvMsA_NtNtCsATtFUPiRFW_3syn3gen5debugNtNtB9_4expr9ExprBreak5debug, symObjAddr: 0x1A460, symBinAddr: 0x62AA0, symSize: 0x104 }
  - { offset: 0xC3AA9, size: 0x8, addend: 0x0, symName: __RNvMsC_NtNtCsATtFUPiRFW_3syn3gen5debugNtNtB9_4expr8ExprCall5debug, symObjAddr: 0x1A5B0, symBinAddr: 0x62BF0, symSize: 0x104 }
  - { offset: 0xC3B15, size: 0x8, addend: 0x0, symName: __RNvMsE_NtNtCsATtFUPiRFW_3syn3gen5debugNtNtB9_4expr8ExprCast5debug, symObjAddr: 0x1A700, symBinAddr: 0x62D40, symSize: 0x104 }
  - { offset: 0xC3B81, size: 0x8, addend: 0x0, symName: __RNvMsG_NtNtCsATtFUPiRFW_3syn3gen5debugNtNtB9_4expr11ExprClosure5debug, symObjAddr: 0x1A850, symBinAddr: 0x62E90, symSize: 0x210 }
  - { offset: 0xC3BED, size: 0x8, addend: 0x0, symName: __RNvMsI_NtNtCsATtFUPiRFW_3syn3gen5debugNtNtB9_4expr9ExprConst5debug, symObjAddr: 0x1AAAC, symBinAddr: 0x630EC, symSize: 0xDC }
  - { offset: 0xC3C59, size: 0x8, addend: 0x0, symName: __RNvMsK_NtNtCsATtFUPiRFW_3syn3gen5debugNtNtB9_4expr12ExprContinue5debug, symObjAddr: 0x1ABD4, symBinAddr: 0x63214, symSize: 0xDC }
  - { offset: 0xC3CC5, size: 0x8, addend: 0x0, symName: __RNvMsM_NtNtCsATtFUPiRFW_3syn3gen5debugNtNtB9_4expr9ExprField5debug, symObjAddr: 0x1ACFC, symBinAddr: 0x6333C, symSize: 0x104 }
  - { offset: 0xC3D31, size: 0x8, addend: 0x0, symName: __RNvMsO_NtNtCsATtFUPiRFW_3syn3gen5debugNtNtB9_4expr11ExprForLoop5debug, symObjAddr: 0x1AE4C, symBinAddr: 0x6348C, symSize: 0x17C }
  - { offset: 0xC3D9D, size: 0x8, addend: 0x0, symName: __RNvMsQ_NtNtCsATtFUPiRFW_3syn3gen5debugNtNtB9_4expr9ExprGroup5debug, symObjAddr: 0x1B014, symBinAddr: 0x63654, symSize: 0xDC }
  - { offset: 0xC3E09, size: 0x8, addend: 0x0, symName: __RNvMsS_NtNtCsATtFUPiRFW_3syn3gen5debugNtNtB9_4expr6ExprIf5debug, symObjAddr: 0x1B13C, symBinAddr: 0x6377C, symSize: 0x12C }
  - { offset: 0xC3E75, size: 0x8, addend: 0x0, symName: __RNvMsU_NtNtCsATtFUPiRFW_3syn3gen5debugNtNtB9_4expr9ExprIndex5debug, symObjAddr: 0x1B2B4, symBinAddr: 0x638F4, symSize: 0x104 }
  - { offset: 0xC3EE1, size: 0x8, addend: 0x0, symName: __RNvMsW_NtNtCsATtFUPiRFW_3syn3gen5debugNtNtB9_4expr9ExprInfer5debug, symObjAddr: 0x1B404, symBinAddr: 0x63A44, symSize: 0xB4 }
  - { offset: 0xC3F4D, size: 0x8, addend: 0x0, symName: __RNvMsY_NtNtCsATtFUPiRFW_3syn3gen5debugNtNtB9_4expr7ExprLet5debug, symObjAddr: 0x1B504, symBinAddr: 0x63B44, symSize: 0x12C }
  - { offset: 0xC3FB9, size: 0x8, addend: 0x0, symName: __RNvMs10_NtNtCsATtFUPiRFW_3syn3gen5debugNtNtBa_4expr7ExprLit5debug, symObjAddr: 0x1B67C, symBinAddr: 0x63CBC, symSize: 0xB4 }
  - { offset: 0xC4025, size: 0x8, addend: 0x0, symName: __RNvMs12_NtNtCsATtFUPiRFW_3syn3gen5debugNtNtBa_4expr8ExprLoop5debug, symObjAddr: 0x1B77C, symBinAddr: 0x63DBC, symSize: 0x104 }
  - { offset: 0xC4091, size: 0x8, addend: 0x0, symName: __RNvMs14_NtNtCsATtFUPiRFW_3syn3gen5debugNtNtBa_4expr9ExprMacro5debug, symObjAddr: 0x1B8CC, symBinAddr: 0x63F0C, symSize: 0xB4 }
  - { offset: 0xC40FD, size: 0x8, addend: 0x0, symName: __RNvMs16_NtNtCsATtFUPiRFW_3syn3gen5debugNtNtBa_4expr9ExprMatch5debug, symObjAddr: 0x1B9CC, symBinAddr: 0x6400C, symSize: 0x12C }
  - { offset: 0xC4169, size: 0x8, addend: 0x0, symName: __RNvMs18_NtNtCsATtFUPiRFW_3syn3gen5debugNtNtBa_4expr14ExprMethodCall5debug, symObjAddr: 0x1BB44, symBinAddr: 0x64184, symSize: 0x17C }
  - { offset: 0xC41D5, size: 0x8, addend: 0x0, symName: __RNvMs1a_NtNtCsATtFUPiRFW_3syn3gen5debugNtNtBa_4expr9ExprParen5debug, symObjAddr: 0x1BD0C, symBinAddr: 0x6434C, symSize: 0xDC }
  - { offset: 0xC4241, size: 0x8, addend: 0x0, symName: __RNvMs1c_NtNtCsATtFUPiRFW_3syn3gen5debugNtNtBa_4expr8ExprPath5debug, symObjAddr: 0x1BE34, symBinAddr: 0x64474, symSize: 0xDC }
  - { offset: 0xC42AD, size: 0x8, addend: 0x0, symName: __RNvMs1e_NtNtCsATtFUPiRFW_3syn3gen5debugNtNtBa_4expr9ExprRange5debug, symObjAddr: 0x1BF5C, symBinAddr: 0x6459C, symSize: 0x104 }
  - { offset: 0xC4319, size: 0x8, addend: 0x0, symName: __RNvMs1g_NtNtCsATtFUPiRFW_3syn3gen5debugNtNtBa_4expr11ExprRawAddr5debug, symObjAddr: 0x1C0AC, symBinAddr: 0x646EC, symSize: 0x12C }
  - { offset: 0xC4385, size: 0x8, addend: 0x0, symName: __RNvMs1i_NtNtCsATtFUPiRFW_3syn3gen5debugNtNtBa_4expr13ExprReference5debug, symObjAddr: 0x1C224, symBinAddr: 0x64864, symSize: 0x104 }
  - { offset: 0xC43F1, size: 0x8, addend: 0x0, symName: __RNvMs1k_NtNtCsATtFUPiRFW_3syn3gen5debugNtNtBa_4expr10ExprRepeat5debug, symObjAddr: 0x1C374, symBinAddr: 0x649B4, symSize: 0x12C }
  - { offset: 0xC445D, size: 0x8, addend: 0x0, symName: __RNvMs1m_NtNtCsATtFUPiRFW_3syn3gen5debugNtNtBa_4expr10ExprReturn5debug, symObjAddr: 0x1C4EC, symBinAddr: 0x64B2C, symSize: 0xDC }
  - { offset: 0xC44C9, size: 0x8, addend: 0x0, symName: __RNvMs1o_NtNtCsATtFUPiRFW_3syn3gen5debugNtNtBa_4expr10ExprStruct5debug, symObjAddr: 0x1C614, symBinAddr: 0x64C54, symSize: 0x17C }
  - { offset: 0xC4535, size: 0x8, addend: 0x0, symName: __RNvMs1q_NtNtCsATtFUPiRFW_3syn3gen5debugNtNtBa_4expr7ExprTry5debug, symObjAddr: 0x1C7DC, symBinAddr: 0x64E1C, symSize: 0xDC }
  - { offset: 0xC45A1, size: 0x8, addend: 0x0, symName: __RNvMs1s_NtNtCsATtFUPiRFW_3syn3gen5debugNtNtBa_4expr12ExprTryBlock5debug, symObjAddr: 0x1C904, symBinAddr: 0x64F44, symSize: 0xDC }
  - { offset: 0xC460D, size: 0x8, addend: 0x0, symName: __RNvMs1u_NtNtCsATtFUPiRFW_3syn3gen5debugNtNtBa_4expr9ExprTuple5debug, symObjAddr: 0x1CA2C, symBinAddr: 0x6506C, symSize: 0xDC }
  - { offset: 0xC4679, size: 0x8, addend: 0x0, symName: __RNvMs1w_NtNtCsATtFUPiRFW_3syn3gen5debugNtNtBa_4expr9ExprUnary5debug, symObjAddr: 0x1CB54, symBinAddr: 0x65194, symSize: 0xDC }
  - { offset: 0xC46E5, size: 0x8, addend: 0x0, symName: __RNvMs1y_NtNtCsATtFUPiRFW_3syn3gen5debugNtNtBa_4expr10ExprUnsafe5debug, symObjAddr: 0x1CC7C, symBinAddr: 0x652BC, symSize: 0xDC }
  - { offset: 0xC4751, size: 0x8, addend: 0x0, symName: __RNvMs1A_NtNtCsATtFUPiRFW_3syn3gen5debugNtNtBa_4expr9ExprWhile5debug, symObjAddr: 0x1CDA4, symBinAddr: 0x653E4, symSize: 0x12C }
  - { offset: 0xC47BD, size: 0x8, addend: 0x0, symName: __RNvMs1C_NtNtCsATtFUPiRFW_3syn3gen5debugNtNtBa_4expr9ExprYield5debug, symObjAddr: 0x1CF1C, symBinAddr: 0x6555C, symSize: 0xDC }
  - { offset: 0xC4E1E, size: 0x8, addend: 0x0, symName: __RNvXNtCs62MdaZFMefA_5quote9to_tokensRNtNtCsATtFUPiRFW_3syn5token2OrNtB2_8ToTokens9to_tokensBD_, symObjAddr: 0x0, symBinAddr: 0x69480, symSize: 0x40 }
  - { offset: 0xC5D5B, size: 0x8, addend: 0x0, symName: __RNvXs1_NtCsATtFUPiRFW_3syn5tokenNtB5_10UnderscoreNtNtCs62MdaZFMefA_5quote9to_tokens8ToTokens9to_tokens, symObjAddr: 0xA0BC, symBinAddr: 0x7353C, symSize: 0x70 }
  - { offset: 0xC5D9A, size: 0x8, addend: 0x0, symName: __RNvXs2_NtCsATtFUPiRFW_3syn5tokenNtB5_10UnderscoreNtNtB7_5parse5Parse5parse, symObjAddr: 0xA12C, symBinAddr: 0x735AC, symSize: 0x34 }
  - { offset: 0xC5DCD, size: 0x8, addend: 0x0, symName: __RNCNvXs2_NtCsATtFUPiRFW_3syn5tokenNtB7_10UnderscoreNtNtB9_5parse5Parse5parse0B9_, symObjAddr: 0xA160, symBinAddr: 0x735E0, symSize: 0x32C }
  - { offset: 0xC5E65, size: 0x8, addend: 0x0, symName: __RNvXs3_NtCsATtFUPiRFW_3syn5tokenNtB5_10UnderscoreNtB5_5Token4peek, symObjAddr: 0xA48C, symBinAddr: 0x7390C, symSize: 0x1A0 }
  - { offset: 0xC5EE0, size: 0x8, addend: 0x0, symName: __RNvXs3_NtCsATtFUPiRFW_3syn5tokenNtB5_10UnderscoreNtB5_5Token7display, symObjAddr: 0xA62C, symBinAddr: 0x73AAC, symSize: 0x24 }
  - { offset: 0xC5EFF, size: 0x8, addend: 0x0, symName: __RINvNtCsATtFUPiRFW_3syn5token5GroupNtCs475r2uZUTuc_11proc_macro24SpanEB4_, symObjAddr: 0xA650, symBinAddr: 0x73AD0, symSize: 0x30 }
  - { offset: 0xC5F3B, size: 0x8, addend: 0x0, symName: __RNvXs5_NtCsATtFUPiRFW_3syn5tokenNtB5_5GroupNtNtCs9f3LFPSIp77_4core7default7Default7default, symObjAddr: 0xA680, symBinAddr: 0x73B00, symSize: 0x24 }
  - { offset: 0xC5F5F, size: 0x8, addend: 0x0, symName: __RNvXs7_NtCsATtFUPiRFW_3syn5tokenNtB5_5GroupNtNtCs9f3LFPSIp77_4core5clone5Clone5clone, symObjAddr: 0xA6A4, symBinAddr: 0x73B24, symSize: 0x28 }
  - { offset: 0xC5F93, size: 0x8, addend: 0x0, symName: __RNvXs8_NtCsATtFUPiRFW_3syn5tokenNtB5_5GroupNtNtCs9f3LFPSIp77_4core3fmt5Debug3fmt, symObjAddr: 0xA6CC, symBinAddr: 0x73B4C, symSize: 0x50 }
  - { offset: 0xC5FD6, size: 0x8, addend: 0x0, symName: __RNvXsa_NtCsATtFUPiRFW_3syn5tokenNtB5_5GroupNtNtCs9f3LFPSIp77_4core3cmp9PartialEq2eq, symObjAddr: 0xA71C, symBinAddr: 0x73B9C, symSize: 0x2C }
  - { offset: 0xC6019, size: 0x8, addend: 0x0, symName: __RNvXse_NtCsATtFUPiRFW_3syn5tokenNtB5_5ParenNtB5_5Token4peek, symObjAddr: 0xA958, symBinAddr: 0x73DD8, symSize: 0x54 }
  - { offset: 0xC6047, size: 0x8, addend: 0x0, symName: __RNvXse_NtCsATtFUPiRFW_3syn5tokenNtB5_5ParenNtB5_5Token7display, symObjAddr: 0xA9AC, symBinAddr: 0x73E2C, symSize: 0x24 }
  - { offset: 0xC606B, size: 0x8, addend: 0x0, symName: __RNvXsf_NtCsATtFUPiRFW_3syn5tokenNtB5_5BraceNtB5_5Token4peek, symObjAddr: 0xA9D0, symBinAddr: 0x73E50, symSize: 0x58 }
  - { offset: 0xC6099, size: 0x8, addend: 0x0, symName: __RNvXsf_NtCsATtFUPiRFW_3syn5tokenNtB5_5BraceNtB5_5Token7display, symObjAddr: 0xAA28, symBinAddr: 0x73EA8, symSize: 0x24 }
  - { offset: 0xC60BD, size: 0x8, addend: 0x0, symName: __RNvXsg_NtCsATtFUPiRFW_3syn5tokenNtB5_7BracketNtB5_5Token4peek, symObjAddr: 0xAA4C, symBinAddr: 0x73ECC, symSize: 0x58 }
  - { offset: 0xC60EB, size: 0x8, addend: 0x0, symName: __RNvXsg_NtCsATtFUPiRFW_3syn5tokenNtB5_7BracketNtB5_5Token7display, symObjAddr: 0xAAA4, symBinAddr: 0x73F24, symSize: 0x24 }
  - { offset: 0xC610F, size: 0x8, addend: 0x0, symName: __RNvXsh_NtCsATtFUPiRFW_3syn5tokenNtB5_5GroupNtB5_5Token4peek, symObjAddr: 0xAAC8, symBinAddr: 0x73F48, symSize: 0x58 }
  - { offset: 0xC613D, size: 0x8, addend: 0x0, symName: __RNvXsh_NtCsATtFUPiRFW_3syn5tokenNtB5_5GroupNtB5_5Token7display, symObjAddr: 0xAB20, symBinAddr: 0x73FA0, symSize: 0x24 }
  - { offset: 0xC615C, size: 0x8, addend: 0x0, symName: __RINvNtCsATtFUPiRFW_3syn5token10UnderscoreNtCs475r2uZUTuc_11proc_macro24SpanEB4_, symObjAddr: 0xAB44, symBinAddr: 0x73FC4, symSize: 0x48 }
  - { offset: 0xC6198, size: 0x8, addend: 0x0, symName: __RNvXss_NtCsATtFUPiRFW_3syn5tokenNtB5_10UnderscoreNtNtCs9f3LFPSIp77_4core7default7Default7default, symObjAddr: 0xAB8C, symBinAddr: 0x7400C, symSize: 0x78 }
  - { offset: 0xC61BC, size: 0x8, addend: 0x0, symName: __RNvXsu_NtCsATtFUPiRFW_3syn5tokenNtB5_10UnderscoreNtNtCs9f3LFPSIp77_4core5clone5Clone5clone, symObjAddr: 0xAC04, symBinAddr: 0x74084, symSize: 0x30 }
  - { offset: 0xC61F0, size: 0x8, addend: 0x0, symName: __RNvXsv_NtCsATtFUPiRFW_3syn5tokenNtB5_10UnderscoreNtNtCs9f3LFPSIp77_4core3fmt5Debug3fmt, symObjAddr: 0xAC34, symBinAddr: 0x740B4, symSize: 0x50 }
  - { offset: 0xC6233, size: 0x8, addend: 0x0, symName: __RNvXsx_NtCsATtFUPiRFW_3syn5tokenNtB5_10UnderscoreNtNtCs9f3LFPSIp77_4core3cmp9PartialEq2eq, symObjAddr: 0xAC84, symBinAddr: 0x74104, symSize: 0x2C }
  - { offset: 0xC6276, size: 0x8, addend: 0x0, symName: __RNvXsz_NtCsATtFUPiRFW_3syn5tokenNtB5_10UnderscoreNtNtNtCs9f3LFPSIp77_4core3ops5deref5Deref5deref, symObjAddr: 0xACB0, symBinAddr: 0x74130, symSize: 0x2C }
  - { offset: 0xC62AA, size: 0x8, addend: 0x0, symName: __RNvXsA_NtCsATtFUPiRFW_3syn5tokenNtB5_10UnderscoreNtNtNtCs9f3LFPSIp77_4core3ops5deref8DerefMut9deref_mut, symObjAddr: 0xACDC, symBinAddr: 0x7415C, symSize: 0x2C }
  - { offset: 0xC62DE, size: 0x8, addend: 0x0, symName: __RNvXsB_NtCsATtFUPiRFW_3syn5tokenNtB5_8AbstractNtNtCs9f3LFPSIp77_4core7default7Default7default, symObjAddr: 0xAD08, symBinAddr: 0x74188, symSize: 0x24 }
  - { offset: 0xC6301, size: 0x8, addend: 0x0, symName: __RNvXsD_NtCsATtFUPiRFW_3syn5tokenNtB5_8AbstractNtNtCs9f3LFPSIp77_4core5clone5Clone5clone, symObjAddr: 0xAD2C, symBinAddr: 0x741AC, symSize: 0x28 }
  - { offset: 0xC6333, size: 0x8, addend: 0x0, symName: __RNvXsE_NtCsATtFUPiRFW_3syn5tokenNtB5_8AbstractNtNtCs9f3LFPSIp77_4core3fmt5Debug3fmt, symObjAddr: 0xAD54, symBinAddr: 0x741D4, symSize: 0x50 }
  - { offset: 0xC6373, size: 0x8, addend: 0x0, symName: __RNvXsG_NtCsATtFUPiRFW_3syn5tokenNtB5_8AbstractNtNtCs9f3LFPSIp77_4core3cmp9PartialEq2eq, symObjAddr: 0xADA4, symBinAddr: 0x74224, symSize: 0x2C }
  - { offset: 0xC63B6, size: 0x8, addend: 0x0, symName: __RNvXsI_NtCsATtFUPiRFW_3syn5tokenNtB5_8AbstractNtNtCs62MdaZFMefA_5quote9to_tokens8ToTokens9to_tokens, symObjAddr: 0xADD0, symBinAddr: 0x74250, symSize: 0x54 }
  - { offset: 0xC63F5, size: 0x8, addend: 0x0, symName: __RNvXsJ_NtCsATtFUPiRFW_3syn5tokenNtB5_8AbstractNtNtB7_5parse5Parse5parse, symObjAddr: 0xAE24, symBinAddr: 0x742A4, symSize: 0xCC }
  - { offset: 0xC6447, size: 0x8, addend: 0x0, symName: __RNvXsK_NtCsATtFUPiRFW_3syn5tokenNtB5_8AbstractNtB5_5Token4peek, symObjAddr: 0xAEF0, symBinAddr: 0x74370, symSize: 0x4C }
  - { offset: 0xC6475, size: 0x8, addend: 0x0, symName: __RNvXsK_NtCsATtFUPiRFW_3syn5tokenNtB5_8AbstractNtB5_5Token7display, symObjAddr: 0xAF3C, symBinAddr: 0x743BC, symSize: 0x24 }
  - { offset: 0xC6499, size: 0x8, addend: 0x0, symName: __RNvXsM_NtCsATtFUPiRFW_3syn5tokenNtB5_2AsNtNtCs9f3LFPSIp77_4core7default7Default7default, symObjAddr: 0xAF60, symBinAddr: 0x743E0, symSize: 0x24 }
  - { offset: 0xC64BC, size: 0x8, addend: 0x0, symName: __RNvXsO_NtCsATtFUPiRFW_3syn5tokenNtB5_2AsNtNtCs9f3LFPSIp77_4core5clone5Clone5clone, symObjAddr: 0xAF84, symBinAddr: 0x74404, symSize: 0x28 }
  - { offset: 0xC64EE, size: 0x8, addend: 0x0, symName: __RNvXsP_NtCsATtFUPiRFW_3syn5tokenNtB5_2AsNtNtCs9f3LFPSIp77_4core3fmt5Debug3fmt, symObjAddr: 0xAFAC, symBinAddr: 0x7442C, symSize: 0x50 }
  - { offset: 0xC652E, size: 0x8, addend: 0x0, symName: __RNvXsR_NtCsATtFUPiRFW_3syn5tokenNtB5_2AsNtNtCs9f3LFPSIp77_4core3cmp9PartialEq2eq, symObjAddr: 0xAFFC, symBinAddr: 0x7447C, symSize: 0x2C }
  - { offset: 0xC6571, size: 0x8, addend: 0x0, symName: __RNvXsT_NtCsATtFUPiRFW_3syn5tokenNtB5_2AsNtNtCs62MdaZFMefA_5quote9to_tokens8ToTokens9to_tokens, symObjAddr: 0xB028, symBinAddr: 0x744A8, symSize: 0x54 }
  - { offset: 0xC65B0, size: 0x8, addend: 0x0, symName: __RNvXsU_NtCsATtFUPiRFW_3syn5tokenNtB5_2AsNtNtB7_5parse5Parse5parse, symObjAddr: 0xB07C, symBinAddr: 0x744FC, symSize: 0xCC }
  - { offset: 0xC6602, size: 0x8, addend: 0x0, symName: __RNvXsV_NtCsATtFUPiRFW_3syn5tokenNtB5_2AsNtB5_5Token4peek, symObjAddr: 0xB148, symBinAddr: 0x745C8, symSize: 0x4C }
  - { offset: 0xC6630, size: 0x8, addend: 0x0, symName: __RNvXsV_NtCsATtFUPiRFW_3syn5tokenNtB5_2AsNtB5_5Token7display, symObjAddr: 0xB194, symBinAddr: 0x74614, symSize: 0x24 }
  - { offset: 0xC6654, size: 0x8, addend: 0x0, symName: __RNvXsX_NtCsATtFUPiRFW_3syn5tokenNtB5_5AsyncNtNtCs9f3LFPSIp77_4core7default7Default7default, symObjAddr: 0xB1B8, symBinAddr: 0x74638, symSize: 0x24 }
  - { offset: 0xC6677, size: 0x8, addend: 0x0, symName: __RNvXsZ_NtCsATtFUPiRFW_3syn5tokenNtB5_5AsyncNtNtCs9f3LFPSIp77_4core5clone5Clone5clone, symObjAddr: 0xB1DC, symBinAddr: 0x7465C, symSize: 0x28 }
  - { offset: 0xC66A9, size: 0x8, addend: 0x0, symName: __RNvXs10_NtCsATtFUPiRFW_3syn5tokenNtB6_5AsyncNtNtCs9f3LFPSIp77_4core3fmt5Debug3fmt, symObjAddr: 0xB204, symBinAddr: 0x74684, symSize: 0x50 }
  - { offset: 0xC66E9, size: 0x8, addend: 0x0, symName: __RNvXs12_NtCsATtFUPiRFW_3syn5tokenNtB6_5AsyncNtNtCs9f3LFPSIp77_4core3cmp9PartialEq2eq, symObjAddr: 0xB254, symBinAddr: 0x746D4, symSize: 0x2C }
  - { offset: 0xC672C, size: 0x8, addend: 0x0, symName: __RNvXs14_NtCsATtFUPiRFW_3syn5tokenNtB6_5AsyncNtNtCs62MdaZFMefA_5quote9to_tokens8ToTokens9to_tokens, symObjAddr: 0xB280, symBinAddr: 0x74700, symSize: 0x54 }
  - { offset: 0xC676B, size: 0x8, addend: 0x0, symName: __RNvXs15_NtCsATtFUPiRFW_3syn5tokenNtB6_5AsyncNtNtB8_5parse5Parse5parse, symObjAddr: 0xB2D4, symBinAddr: 0x74754, symSize: 0xCC }
  - { offset: 0xC67BD, size: 0x8, addend: 0x0, symName: __RNvXs16_NtCsATtFUPiRFW_3syn5tokenNtB6_5AsyncNtB6_5Token4peek, symObjAddr: 0xB3A0, symBinAddr: 0x74820, symSize: 0x4C }
  - { offset: 0xC67EB, size: 0x8, addend: 0x0, symName: __RNvXs16_NtCsATtFUPiRFW_3syn5tokenNtB6_5AsyncNtB6_5Token7display, symObjAddr: 0xB3EC, symBinAddr: 0x7486C, symSize: 0x24 }
  - { offset: 0xC680F, size: 0x8, addend: 0x0, symName: __RNvXs18_NtCsATtFUPiRFW_3syn5tokenNtB6_4AutoNtNtCs9f3LFPSIp77_4core7default7Default7default, symObjAddr: 0xB410, symBinAddr: 0x74890, symSize: 0x24 }
  - { offset: 0xC6832, size: 0x8, addend: 0x0, symName: __RNvXs1a_NtCsATtFUPiRFW_3syn5tokenNtB6_4AutoNtNtCs9f3LFPSIp77_4core5clone5Clone5clone, symObjAddr: 0xB434, symBinAddr: 0x748B4, symSize: 0x28 }
  - { offset: 0xC6864, size: 0x8, addend: 0x0, symName: __RNvXs1b_NtCsATtFUPiRFW_3syn5tokenNtB6_4AutoNtNtCs9f3LFPSIp77_4core3fmt5Debug3fmt, symObjAddr: 0xB45C, symBinAddr: 0x748DC, symSize: 0x50 }
  - { offset: 0xC68A4, size: 0x8, addend: 0x0, symName: __RNvXs1d_NtCsATtFUPiRFW_3syn5tokenNtB6_4AutoNtNtCs9f3LFPSIp77_4core3cmp9PartialEq2eq, symObjAddr: 0xB4AC, symBinAddr: 0x7492C, symSize: 0x2C }
  - { offset: 0xC68E7, size: 0x8, addend: 0x0, symName: __RNvXs1f_NtCsATtFUPiRFW_3syn5tokenNtB6_4AutoNtNtCs62MdaZFMefA_5quote9to_tokens8ToTokens9to_tokens, symObjAddr: 0xB4D8, symBinAddr: 0x74958, symSize: 0x54 }
  - { offset: 0xC6926, size: 0x8, addend: 0x0, symName: __RNvXs1g_NtCsATtFUPiRFW_3syn5tokenNtB6_4AutoNtNtB8_5parse5Parse5parse, symObjAddr: 0xB52C, symBinAddr: 0x749AC, symSize: 0xCC }
  - { offset: 0xC6978, size: 0x8, addend: 0x0, symName: __RNvXs1h_NtCsATtFUPiRFW_3syn5tokenNtB6_4AutoNtB6_5Token4peek, symObjAddr: 0xB5F8, symBinAddr: 0x74A78, symSize: 0x4C }
  - { offset: 0xC69A6, size: 0x8, addend: 0x0, symName: __RNvXs1h_NtCsATtFUPiRFW_3syn5tokenNtB6_4AutoNtB6_5Token7display, symObjAddr: 0xB644, symBinAddr: 0x74AC4, symSize: 0x24 }
  - { offset: 0xC69CA, size: 0x8, addend: 0x0, symName: __RNvXs1j_NtCsATtFUPiRFW_3syn5tokenNtB6_5AwaitNtNtCs9f3LFPSIp77_4core7default7Default7default, symObjAddr: 0xB668, symBinAddr: 0x74AE8, symSize: 0x24 }
  - { offset: 0xC69ED, size: 0x8, addend: 0x0, symName: __RNvXs1l_NtCsATtFUPiRFW_3syn5tokenNtB6_5AwaitNtNtCs9f3LFPSIp77_4core5clone5Clone5clone, symObjAddr: 0xB68C, symBinAddr: 0x74B0C, symSize: 0x28 }
  - { offset: 0xC6A1F, size: 0x8, addend: 0x0, symName: __RNvXs1m_NtCsATtFUPiRFW_3syn5tokenNtB6_5AwaitNtNtCs9f3LFPSIp77_4core3fmt5Debug3fmt, symObjAddr: 0xB6B4, symBinAddr: 0x74B34, symSize: 0x50 }
  - { offset: 0xC6A5F, size: 0x8, addend: 0x0, symName: __RNvXs1o_NtCsATtFUPiRFW_3syn5tokenNtB6_5AwaitNtNtCs9f3LFPSIp77_4core3cmp9PartialEq2eq, symObjAddr: 0xB704, symBinAddr: 0x74B84, symSize: 0x2C }
  - { offset: 0xC6AA2, size: 0x8, addend: 0x0, symName: __RNvXs1q_NtCsATtFUPiRFW_3syn5tokenNtB6_5AwaitNtNtCs62MdaZFMefA_5quote9to_tokens8ToTokens9to_tokens, symObjAddr: 0xB730, symBinAddr: 0x74BB0, symSize: 0x54 }
  - { offset: 0xC6AE1, size: 0x8, addend: 0x0, symName: __RNvXs1r_NtCsATtFUPiRFW_3syn5tokenNtB6_5AwaitNtNtB8_5parse5Parse5parse, symObjAddr: 0xB784, symBinAddr: 0x74C04, symSize: 0xCC }
  - { offset: 0xC6B33, size: 0x8, addend: 0x0, symName: __RNvXs1s_NtCsATtFUPiRFW_3syn5tokenNtB6_5AwaitNtB6_5Token4peek, symObjAddr: 0xB850, symBinAddr: 0x74CD0, symSize: 0x4C }
  - { offset: 0xC6B61, size: 0x8, addend: 0x0, symName: __RNvXs1s_NtCsATtFUPiRFW_3syn5tokenNtB6_5AwaitNtB6_5Token7display, symObjAddr: 0xB89C, symBinAddr: 0x74D1C, symSize: 0x24 }
  - { offset: 0xC6B85, size: 0x8, addend: 0x0, symName: __RNvXs1u_NtCsATtFUPiRFW_3syn5tokenNtB6_6BecomeNtNtCs9f3LFPSIp77_4core7default7Default7default, symObjAddr: 0xB8C0, symBinAddr: 0x74D40, symSize: 0x24 }
  - { offset: 0xC6BA8, size: 0x8, addend: 0x0, symName: __RNvXs1w_NtCsATtFUPiRFW_3syn5tokenNtB6_6BecomeNtNtCs9f3LFPSIp77_4core5clone5Clone5clone, symObjAddr: 0xB8E4, symBinAddr: 0x74D64, symSize: 0x28 }
  - { offset: 0xC6BDA, size: 0x8, addend: 0x0, symName: __RNvXs1x_NtCsATtFUPiRFW_3syn5tokenNtB6_6BecomeNtNtCs9f3LFPSIp77_4core3fmt5Debug3fmt, symObjAddr: 0xB90C, symBinAddr: 0x74D8C, symSize: 0x50 }
  - { offset: 0xC6C1A, size: 0x8, addend: 0x0, symName: __RNvXs1z_NtCsATtFUPiRFW_3syn5tokenNtB6_6BecomeNtNtCs9f3LFPSIp77_4core3cmp9PartialEq2eq, symObjAddr: 0xB95C, symBinAddr: 0x74DDC, symSize: 0x2C }
  - { offset: 0xC6C5D, size: 0x8, addend: 0x0, symName: __RNvXs1B_NtCsATtFUPiRFW_3syn5tokenNtB6_6BecomeNtNtCs62MdaZFMefA_5quote9to_tokens8ToTokens9to_tokens, symObjAddr: 0xB988, symBinAddr: 0x74E08, symSize: 0x54 }
  - { offset: 0xC6C9C, size: 0x8, addend: 0x0, symName: __RNvXs1C_NtCsATtFUPiRFW_3syn5tokenNtB6_6BecomeNtNtB8_5parse5Parse5parse, symObjAddr: 0xB9DC, symBinAddr: 0x74E5C, symSize: 0xCC }
  - { offset: 0xC6CEE, size: 0x8, addend: 0x0, symName: __RNvXs1D_NtCsATtFUPiRFW_3syn5tokenNtB6_6BecomeNtB6_5Token4peek, symObjAddr: 0xBAA8, symBinAddr: 0x74F28, symSize: 0x4C }
  - { offset: 0xC6D1C, size: 0x8, addend: 0x0, symName: __RNvXs1D_NtCsATtFUPiRFW_3syn5tokenNtB6_6BecomeNtB6_5Token7display, symObjAddr: 0xBAF4, symBinAddr: 0x74F74, symSize: 0x24 }
  - { offset: 0xC6D40, size: 0x8, addend: 0x0, symName: __RNvXs1F_NtCsATtFUPiRFW_3syn5tokenNtB6_3BoxNtNtCs9f3LFPSIp77_4core7default7Default7default, symObjAddr: 0xBB18, symBinAddr: 0x74F98, symSize: 0x24 }
  - { offset: 0xC6D63, size: 0x8, addend: 0x0, symName: __RNvXs1H_NtCsATtFUPiRFW_3syn5tokenNtB6_3BoxNtNtCs9f3LFPSIp77_4core5clone5Clone5clone, symObjAddr: 0xBB3C, symBinAddr: 0x74FBC, symSize: 0x28 }
  - { offset: 0xC6D95, size: 0x8, addend: 0x0, symName: __RNvXs1I_NtCsATtFUPiRFW_3syn5tokenNtB6_3BoxNtNtCs9f3LFPSIp77_4core3fmt5Debug3fmt, symObjAddr: 0xBB64, symBinAddr: 0x74FE4, symSize: 0x50 }
  - { offset: 0xC6DD5, size: 0x8, addend: 0x0, symName: __RNvXs1K_NtCsATtFUPiRFW_3syn5tokenNtB6_3BoxNtNtCs9f3LFPSIp77_4core3cmp9PartialEq2eq, symObjAddr: 0xBBB4, symBinAddr: 0x75034, symSize: 0x2C }
  - { offset: 0xC6E18, size: 0x8, addend: 0x0, symName: __RNvXs1M_NtCsATtFUPiRFW_3syn5tokenNtB6_3BoxNtNtCs62MdaZFMefA_5quote9to_tokens8ToTokens9to_tokens, symObjAddr: 0xBBE0, symBinAddr: 0x75060, symSize: 0x54 }
  - { offset: 0xC6E57, size: 0x8, addend: 0x0, symName: __RNvXs1N_NtCsATtFUPiRFW_3syn5tokenNtB6_3BoxNtNtB8_5parse5Parse5parse, symObjAddr: 0xBC34, symBinAddr: 0x750B4, symSize: 0xCC }
  - { offset: 0xC6EA9, size: 0x8, addend: 0x0, symName: __RNvXs1O_NtCsATtFUPiRFW_3syn5tokenNtB6_3BoxNtB6_5Token4peek, symObjAddr: 0xBD00, symBinAddr: 0x75180, symSize: 0x4C }
  - { offset: 0xC6ED7, size: 0x8, addend: 0x0, symName: __RNvXs1O_NtCsATtFUPiRFW_3syn5tokenNtB6_3BoxNtB6_5Token7display, symObjAddr: 0xBD4C, symBinAddr: 0x751CC, symSize: 0x24 }
  - { offset: 0xC6EFB, size: 0x8, addend: 0x0, symName: __RNvXs1Q_NtCsATtFUPiRFW_3syn5tokenNtB6_5BreakNtNtCs9f3LFPSIp77_4core7default7Default7default, symObjAddr: 0xBD70, symBinAddr: 0x751F0, symSize: 0x24 }
  - { offset: 0xC6F1E, size: 0x8, addend: 0x0, symName: __RNvXs1S_NtCsATtFUPiRFW_3syn5tokenNtB6_5BreakNtNtCs9f3LFPSIp77_4core5clone5Clone5clone, symObjAddr: 0xBD94, symBinAddr: 0x75214, symSize: 0x28 }
  - { offset: 0xC6F50, size: 0x8, addend: 0x0, symName: __RNvXs1T_NtCsATtFUPiRFW_3syn5tokenNtB6_5BreakNtNtCs9f3LFPSIp77_4core3fmt5Debug3fmt, symObjAddr: 0xBDBC, symBinAddr: 0x7523C, symSize: 0x50 }
  - { offset: 0xC6F90, size: 0x8, addend: 0x0, symName: __RNvXs1V_NtCsATtFUPiRFW_3syn5tokenNtB6_5BreakNtNtCs9f3LFPSIp77_4core3cmp9PartialEq2eq, symObjAddr: 0xBE0C, symBinAddr: 0x7528C, symSize: 0x2C }
  - { offset: 0xC6FD3, size: 0x8, addend: 0x0, symName: __RNvXs1X_NtCsATtFUPiRFW_3syn5tokenNtB6_5BreakNtNtCs62MdaZFMefA_5quote9to_tokens8ToTokens9to_tokens, symObjAddr: 0xBE38, symBinAddr: 0x752B8, symSize: 0x54 }
  - { offset: 0xC7012, size: 0x8, addend: 0x0, symName: __RNvXs1Y_NtCsATtFUPiRFW_3syn5tokenNtB6_5BreakNtNtB8_5parse5Parse5parse, symObjAddr: 0xBE8C, symBinAddr: 0x7530C, symSize: 0xCC }
  - { offset: 0xC7064, size: 0x8, addend: 0x0, symName: __RNvXs1Z_NtCsATtFUPiRFW_3syn5tokenNtB6_5BreakNtB6_5Token4peek, symObjAddr: 0xBF58, symBinAddr: 0x753D8, symSize: 0x4C }
  - { offset: 0xC7092, size: 0x8, addend: 0x0, symName: __RNvXs1Z_NtCsATtFUPiRFW_3syn5tokenNtB6_5BreakNtB6_5Token7display, symObjAddr: 0xBFA4, symBinAddr: 0x75424, symSize: 0x24 }
  - { offset: 0xC70B6, size: 0x8, addend: 0x0, symName: __RNvXs21_NtCsATtFUPiRFW_3syn5tokenNtB6_5ConstNtNtCs9f3LFPSIp77_4core7default7Default7default, symObjAddr: 0xBFC8, symBinAddr: 0x75448, symSize: 0x24 }
  - { offset: 0xC70D9, size: 0x8, addend: 0x0, symName: __RNvXs23_NtCsATtFUPiRFW_3syn5tokenNtB6_5ConstNtNtCs9f3LFPSIp77_4core5clone5Clone5clone, symObjAddr: 0xBFEC, symBinAddr: 0x7546C, symSize: 0x28 }
  - { offset: 0xC710B, size: 0x8, addend: 0x0, symName: __RNvXs24_NtCsATtFUPiRFW_3syn5tokenNtB6_5ConstNtNtCs9f3LFPSIp77_4core3fmt5Debug3fmt, symObjAddr: 0xC014, symBinAddr: 0x75494, symSize: 0x50 }
  - { offset: 0xC714B, size: 0x8, addend: 0x0, symName: __RNvXs26_NtCsATtFUPiRFW_3syn5tokenNtB6_5ConstNtNtCs9f3LFPSIp77_4core3cmp9PartialEq2eq, symObjAddr: 0xC064, symBinAddr: 0x754E4, symSize: 0x2C }
  - { offset: 0xC718E, size: 0x8, addend: 0x0, symName: __RNvXs28_NtCsATtFUPiRFW_3syn5tokenNtB6_5ConstNtNtCs62MdaZFMefA_5quote9to_tokens8ToTokens9to_tokens, symObjAddr: 0xC090, symBinAddr: 0x75510, symSize: 0x54 }
  - { offset: 0xC71CD, size: 0x8, addend: 0x0, symName: __RNvXs29_NtCsATtFUPiRFW_3syn5tokenNtB6_5ConstNtNtB8_5parse5Parse5parse, symObjAddr: 0xC0E4, symBinAddr: 0x75564, symSize: 0xCC }
  - { offset: 0xC721F, size: 0x8, addend: 0x0, symName: __RNvXs2a_NtCsATtFUPiRFW_3syn5tokenNtB6_5ConstNtB6_5Token4peek, symObjAddr: 0xC1B0, symBinAddr: 0x75630, symSize: 0x4C }
  - { offset: 0xC724D, size: 0x8, addend: 0x0, symName: __RNvXs2a_NtCsATtFUPiRFW_3syn5tokenNtB6_5ConstNtB6_5Token7display, symObjAddr: 0xC1FC, symBinAddr: 0x7567C, symSize: 0x24 }
  - { offset: 0xC7271, size: 0x8, addend: 0x0, symName: __RNvXs2c_NtCsATtFUPiRFW_3syn5tokenNtB6_8ContinueNtNtCs9f3LFPSIp77_4core7default7Default7default, symObjAddr: 0xC220, symBinAddr: 0x756A0, symSize: 0x24 }
  - { offset: 0xC7294, size: 0x8, addend: 0x0, symName: __RNvXs2e_NtCsATtFUPiRFW_3syn5tokenNtB6_8ContinueNtNtCs9f3LFPSIp77_4core5clone5Clone5clone, symObjAddr: 0xC244, symBinAddr: 0x756C4, symSize: 0x28 }
  - { offset: 0xC72C6, size: 0x8, addend: 0x0, symName: __RNvXs2f_NtCsATtFUPiRFW_3syn5tokenNtB6_8ContinueNtNtCs9f3LFPSIp77_4core3fmt5Debug3fmt, symObjAddr: 0xC26C, symBinAddr: 0x756EC, symSize: 0x50 }
  - { offset: 0xC7306, size: 0x8, addend: 0x0, symName: __RNvXs2h_NtCsATtFUPiRFW_3syn5tokenNtB6_8ContinueNtNtCs9f3LFPSIp77_4core3cmp9PartialEq2eq, symObjAddr: 0xC2BC, symBinAddr: 0x7573C, symSize: 0x2C }
  - { offset: 0xC7349, size: 0x8, addend: 0x0, symName: __RNvXs2j_NtCsATtFUPiRFW_3syn5tokenNtB6_8ContinueNtNtCs62MdaZFMefA_5quote9to_tokens8ToTokens9to_tokens, symObjAddr: 0xC2E8, symBinAddr: 0x75768, symSize: 0x54 }
  - { offset: 0xC7388, size: 0x8, addend: 0x0, symName: __RNvXs2k_NtCsATtFUPiRFW_3syn5tokenNtB6_8ContinueNtNtB8_5parse5Parse5parse, symObjAddr: 0xC33C, symBinAddr: 0x757BC, symSize: 0xCC }
  - { offset: 0xC73DA, size: 0x8, addend: 0x0, symName: __RNvXs2l_NtCsATtFUPiRFW_3syn5tokenNtB6_8ContinueNtB6_5Token4peek, symObjAddr: 0xC408, symBinAddr: 0x75888, symSize: 0x4C }
  - { offset: 0xC7408, size: 0x8, addend: 0x0, symName: __RNvXs2l_NtCsATtFUPiRFW_3syn5tokenNtB6_8ContinueNtB6_5Token7display, symObjAddr: 0xC454, symBinAddr: 0x758D4, symSize: 0x24 }
  - { offset: 0xC742C, size: 0x8, addend: 0x0, symName: __RNvXs2n_NtCsATtFUPiRFW_3syn5tokenNtB6_5CrateNtNtCs9f3LFPSIp77_4core7default7Default7default, symObjAddr: 0xC478, symBinAddr: 0x758F8, symSize: 0x24 }
  - { offset: 0xC744F, size: 0x8, addend: 0x0, symName: __RNvXs2p_NtCsATtFUPiRFW_3syn5tokenNtB6_5CrateNtNtCs9f3LFPSIp77_4core5clone5Clone5clone, symObjAddr: 0xC49C, symBinAddr: 0x7591C, symSize: 0x28 }
  - { offset: 0xC7481, size: 0x8, addend: 0x0, symName: __RNvXs2q_NtCsATtFUPiRFW_3syn5tokenNtB6_5CrateNtNtCs9f3LFPSIp77_4core3fmt5Debug3fmt, symObjAddr: 0xC4C4, symBinAddr: 0x75944, symSize: 0x50 }
  - { offset: 0xC74C1, size: 0x8, addend: 0x0, symName: __RNvXs2s_NtCsATtFUPiRFW_3syn5tokenNtB6_5CrateNtNtCs9f3LFPSIp77_4core3cmp9PartialEq2eq, symObjAddr: 0xC514, symBinAddr: 0x75994, symSize: 0x2C }
  - { offset: 0xC7504, size: 0x8, addend: 0x0, symName: __RNvXs2u_NtCsATtFUPiRFW_3syn5tokenNtB6_5CrateNtNtCs62MdaZFMefA_5quote9to_tokens8ToTokens9to_tokens, symObjAddr: 0xC540, symBinAddr: 0x759C0, symSize: 0x54 }
  - { offset: 0xC7543, size: 0x8, addend: 0x0, symName: __RNvXs2v_NtCsATtFUPiRFW_3syn5tokenNtB6_5CrateNtNtB8_5parse5Parse5parse, symObjAddr: 0xC594, symBinAddr: 0x75A14, symSize: 0xCC }
  - { offset: 0xC7595, size: 0x8, addend: 0x0, symName: __RNvXs2w_NtCsATtFUPiRFW_3syn5tokenNtB6_5CrateNtB6_5Token4peek, symObjAddr: 0xC660, symBinAddr: 0x75AE0, symSize: 0x4C }
  - { offset: 0xC75C3, size: 0x8, addend: 0x0, symName: __RNvXs2w_NtCsATtFUPiRFW_3syn5tokenNtB6_5CrateNtB6_5Token7display, symObjAddr: 0xC6AC, symBinAddr: 0x75B2C, symSize: 0x24 }
  - { offset: 0xC75E7, size: 0x8, addend: 0x0, symName: __RNvXs2y_NtCsATtFUPiRFW_3syn5tokenNtB6_7DefaultNtNtCs9f3LFPSIp77_4core7default7Default7default, symObjAddr: 0xC6D0, symBinAddr: 0x75B50, symSize: 0x24 }
  - { offset: 0xC760A, size: 0x8, addend: 0x0, symName: __RNvXs2A_NtCsATtFUPiRFW_3syn5tokenNtB6_7DefaultNtNtCs9f3LFPSIp77_4core5clone5Clone5clone, symObjAddr: 0xC6F4, symBinAddr: 0x75B74, symSize: 0x28 }
  - { offset: 0xC763C, size: 0x8, addend: 0x0, symName: __RNvXs2B_NtCsATtFUPiRFW_3syn5tokenNtB6_7DefaultNtNtCs9f3LFPSIp77_4core3fmt5Debug3fmt, symObjAddr: 0xC71C, symBinAddr: 0x75B9C, symSize: 0x50 }
  - { offset: 0xC767C, size: 0x8, addend: 0x0, symName: __RNvXs2D_NtCsATtFUPiRFW_3syn5tokenNtB6_7DefaultNtNtCs9f3LFPSIp77_4core3cmp9PartialEq2eq, symObjAddr: 0xC76C, symBinAddr: 0x75BEC, symSize: 0x2C }
  - { offset: 0xC76BF, size: 0x8, addend: 0x0, symName: __RNvXs2F_NtCsATtFUPiRFW_3syn5tokenNtB6_7DefaultNtNtCs62MdaZFMefA_5quote9to_tokens8ToTokens9to_tokens, symObjAddr: 0xC798, symBinAddr: 0x75C18, symSize: 0x54 }
  - { offset: 0xC76FE, size: 0x8, addend: 0x0, symName: __RNvXs2G_NtCsATtFUPiRFW_3syn5tokenNtB6_7DefaultNtNtB8_5parse5Parse5parse, symObjAddr: 0xC7EC, symBinAddr: 0x75C6C, symSize: 0xCC }
  - { offset: 0xC7750, size: 0x8, addend: 0x0, symName: __RNvXs2H_NtCsATtFUPiRFW_3syn5tokenNtB6_7DefaultNtB6_5Token4peek, symObjAddr: 0xC8B8, symBinAddr: 0x75D38, symSize: 0x4C }
  - { offset: 0xC777E, size: 0x8, addend: 0x0, symName: __RNvXs2H_NtCsATtFUPiRFW_3syn5tokenNtB6_7DefaultNtB6_5Token7display, symObjAddr: 0xC904, symBinAddr: 0x75D84, symSize: 0x24 }
  - { offset: 0xC77A2, size: 0x8, addend: 0x0, symName: __RNvXs2J_NtCsATtFUPiRFW_3syn5tokenNtB6_2DoNtNtCs9f3LFPSIp77_4core7default7Default7default, symObjAddr: 0xC928, symBinAddr: 0x75DA8, symSize: 0x24 }
  - { offset: 0xC77C5, size: 0x8, addend: 0x0, symName: __RNvXs2L_NtCsATtFUPiRFW_3syn5tokenNtB6_2DoNtNtCs9f3LFPSIp77_4core5clone5Clone5clone, symObjAddr: 0xC94C, symBinAddr: 0x75DCC, symSize: 0x28 }
  - { offset: 0xC77F7, size: 0x8, addend: 0x0, symName: __RNvXs2M_NtCsATtFUPiRFW_3syn5tokenNtB6_2DoNtNtCs9f3LFPSIp77_4core3fmt5Debug3fmt, symObjAddr: 0xC974, symBinAddr: 0x75DF4, symSize: 0x50 }
  - { offset: 0xC7837, size: 0x8, addend: 0x0, symName: __RNvXs2O_NtCsATtFUPiRFW_3syn5tokenNtB6_2DoNtNtCs9f3LFPSIp77_4core3cmp9PartialEq2eq, symObjAddr: 0xC9C4, symBinAddr: 0x75E44, symSize: 0x2C }
  - { offset: 0xC787A, size: 0x8, addend: 0x0, symName: __RNvXs2Q_NtCsATtFUPiRFW_3syn5tokenNtB6_2DoNtNtCs62MdaZFMefA_5quote9to_tokens8ToTokens9to_tokens, symObjAddr: 0xC9F0, symBinAddr: 0x75E70, symSize: 0x54 }
  - { offset: 0xC78B9, size: 0x8, addend: 0x0, symName: __RNvXs2R_NtCsATtFUPiRFW_3syn5tokenNtB6_2DoNtNtB8_5parse5Parse5parse, symObjAddr: 0xCA44, symBinAddr: 0x75EC4, symSize: 0xCC }
  - { offset: 0xC790B, size: 0x8, addend: 0x0, symName: __RNvXs2S_NtCsATtFUPiRFW_3syn5tokenNtB6_2DoNtB6_5Token4peek, symObjAddr: 0xCB10, symBinAddr: 0x75F90, symSize: 0x4C }
  - { offset: 0xC7939, size: 0x8, addend: 0x0, symName: __RNvXs2S_NtCsATtFUPiRFW_3syn5tokenNtB6_2DoNtB6_5Token7display, symObjAddr: 0xCB5C, symBinAddr: 0x75FDC, symSize: 0x24 }
  - { offset: 0xC795D, size: 0x8, addend: 0x0, symName: __RNvXs2U_NtCsATtFUPiRFW_3syn5tokenNtB6_3DynNtNtCs9f3LFPSIp77_4core7default7Default7default, symObjAddr: 0xCB80, symBinAddr: 0x76000, symSize: 0x24 }
  - { offset: 0xC7980, size: 0x8, addend: 0x0, symName: __RNvXs2W_NtCsATtFUPiRFW_3syn5tokenNtB6_3DynNtNtCs9f3LFPSIp77_4core5clone5Clone5clone, symObjAddr: 0xCBA4, symBinAddr: 0x76024, symSize: 0x28 }
  - { offset: 0xC79B2, size: 0x8, addend: 0x0, symName: __RNvXs2X_NtCsATtFUPiRFW_3syn5tokenNtB6_3DynNtNtCs9f3LFPSIp77_4core3fmt5Debug3fmt, symObjAddr: 0xCBCC, symBinAddr: 0x7604C, symSize: 0x50 }
  - { offset: 0xC79F2, size: 0x8, addend: 0x0, symName: __RNvXs2Z_NtCsATtFUPiRFW_3syn5tokenNtB6_3DynNtNtCs9f3LFPSIp77_4core3cmp9PartialEq2eq, symObjAddr: 0xCC1C, symBinAddr: 0x7609C, symSize: 0x2C }
  - { offset: 0xC7A35, size: 0x8, addend: 0x0, symName: __RNvXs31_NtCsATtFUPiRFW_3syn5tokenNtB6_3DynNtNtCs62MdaZFMefA_5quote9to_tokens8ToTokens9to_tokens, symObjAddr: 0xCC48, symBinAddr: 0x760C8, symSize: 0x54 }
  - { offset: 0xC7A74, size: 0x8, addend: 0x0, symName: __RNvXs32_NtCsATtFUPiRFW_3syn5tokenNtB6_3DynNtNtB8_5parse5Parse5parse, symObjAddr: 0xCC9C, symBinAddr: 0x7611C, symSize: 0xCC }
  - { offset: 0xC7AC6, size: 0x8, addend: 0x0, symName: __RNvXs33_NtCsATtFUPiRFW_3syn5tokenNtB6_3DynNtB6_5Token4peek, symObjAddr: 0xCD68, symBinAddr: 0x761E8, symSize: 0x4C }
  - { offset: 0xC7AF4, size: 0x8, addend: 0x0, symName: __RNvXs33_NtCsATtFUPiRFW_3syn5tokenNtB6_3DynNtB6_5Token7display, symObjAddr: 0xCDB4, symBinAddr: 0x76234, symSize: 0x24 }
  - { offset: 0xC7B18, size: 0x8, addend: 0x0, symName: __RNvXs35_NtCsATtFUPiRFW_3syn5tokenNtB6_4ElseNtNtCs9f3LFPSIp77_4core7default7Default7default, symObjAddr: 0xCDD8, symBinAddr: 0x76258, symSize: 0x24 }
  - { offset: 0xC7B3B, size: 0x8, addend: 0x0, symName: __RNvXs37_NtCsATtFUPiRFW_3syn5tokenNtB6_4ElseNtNtCs9f3LFPSIp77_4core5clone5Clone5clone, symObjAddr: 0xCDFC, symBinAddr: 0x7627C, symSize: 0x28 }
  - { offset: 0xC7B6D, size: 0x8, addend: 0x0, symName: __RNvXs38_NtCsATtFUPiRFW_3syn5tokenNtB6_4ElseNtNtCs9f3LFPSIp77_4core3fmt5Debug3fmt, symObjAddr: 0xCE24, symBinAddr: 0x762A4, symSize: 0x50 }
  - { offset: 0xC7BAD, size: 0x8, addend: 0x0, symName: __RNvXs3a_NtCsATtFUPiRFW_3syn5tokenNtB6_4ElseNtNtCs9f3LFPSIp77_4core3cmp9PartialEq2eq, symObjAddr: 0xCE74, symBinAddr: 0x762F4, symSize: 0x2C }
  - { offset: 0xC7BF0, size: 0x8, addend: 0x0, symName: __RNvXs3c_NtCsATtFUPiRFW_3syn5tokenNtB6_4ElseNtNtCs62MdaZFMefA_5quote9to_tokens8ToTokens9to_tokens, symObjAddr: 0xCEA0, symBinAddr: 0x76320, symSize: 0x54 }
  - { offset: 0xC7C2F, size: 0x8, addend: 0x0, symName: __RNvXs3d_NtCsATtFUPiRFW_3syn5tokenNtB6_4ElseNtNtB8_5parse5Parse5parse, symObjAddr: 0xCEF4, symBinAddr: 0x76374, symSize: 0xCC }
  - { offset: 0xC7C81, size: 0x8, addend: 0x0, symName: __RNvXs3e_NtCsATtFUPiRFW_3syn5tokenNtB6_4ElseNtB6_5Token4peek, symObjAddr: 0xCFC0, symBinAddr: 0x76440, symSize: 0x4C }
  - { offset: 0xC7CAF, size: 0x8, addend: 0x0, symName: __RNvXs3e_NtCsATtFUPiRFW_3syn5tokenNtB6_4ElseNtB6_5Token7display, symObjAddr: 0xD00C, symBinAddr: 0x7648C, symSize: 0x24 }
  - { offset: 0xC7CD3, size: 0x8, addend: 0x0, symName: __RNvXs3g_NtCsATtFUPiRFW_3syn5tokenNtB6_4EnumNtNtCs9f3LFPSIp77_4core7default7Default7default, symObjAddr: 0xD030, symBinAddr: 0x764B0, symSize: 0x24 }
  - { offset: 0xC7CF6, size: 0x8, addend: 0x0, symName: __RNvXs3i_NtCsATtFUPiRFW_3syn5tokenNtB6_4EnumNtNtCs9f3LFPSIp77_4core5clone5Clone5clone, symObjAddr: 0xD054, symBinAddr: 0x764D4, symSize: 0x28 }
  - { offset: 0xC7D28, size: 0x8, addend: 0x0, symName: __RNvXs3j_NtCsATtFUPiRFW_3syn5tokenNtB6_4EnumNtNtCs9f3LFPSIp77_4core3fmt5Debug3fmt, symObjAddr: 0xD07C, symBinAddr: 0x764FC, symSize: 0x50 }
  - { offset: 0xC7D68, size: 0x8, addend: 0x0, symName: __RNvXs3l_NtCsATtFUPiRFW_3syn5tokenNtB6_4EnumNtNtCs9f3LFPSIp77_4core3cmp9PartialEq2eq, symObjAddr: 0xD0CC, symBinAddr: 0x7654C, symSize: 0x2C }
  - { offset: 0xC7DAB, size: 0x8, addend: 0x0, symName: __RNvXs3n_NtCsATtFUPiRFW_3syn5tokenNtB6_4EnumNtNtCs62MdaZFMefA_5quote9to_tokens8ToTokens9to_tokens, symObjAddr: 0xD0F8, symBinAddr: 0x76578, symSize: 0x54 }
  - { offset: 0xC7DEA, size: 0x8, addend: 0x0, symName: __RNvXs3o_NtCsATtFUPiRFW_3syn5tokenNtB6_4EnumNtNtB8_5parse5Parse5parse, symObjAddr: 0xD14C, symBinAddr: 0x765CC, symSize: 0xCC }
  - { offset: 0xC7E3C, size: 0x8, addend: 0x0, symName: __RNvXs3p_NtCsATtFUPiRFW_3syn5tokenNtB6_4EnumNtB6_5Token4peek, symObjAddr: 0xD218, symBinAddr: 0x76698, symSize: 0x4C }
  - { offset: 0xC7E6A, size: 0x8, addend: 0x0, symName: __RNvXs3p_NtCsATtFUPiRFW_3syn5tokenNtB6_4EnumNtB6_5Token7display, symObjAddr: 0xD264, symBinAddr: 0x766E4, symSize: 0x24 }
  - { offset: 0xC7E8E, size: 0x8, addend: 0x0, symName: __RNvXs3r_NtCsATtFUPiRFW_3syn5tokenNtB6_6ExternNtNtCs9f3LFPSIp77_4core7default7Default7default, symObjAddr: 0xD288, symBinAddr: 0x76708, symSize: 0x24 }
  - { offset: 0xC7EB1, size: 0x8, addend: 0x0, symName: __RNvXs3t_NtCsATtFUPiRFW_3syn5tokenNtB6_6ExternNtNtCs9f3LFPSIp77_4core5clone5Clone5clone, symObjAddr: 0xD2AC, symBinAddr: 0x7672C, symSize: 0x28 }
  - { offset: 0xC7EE3, size: 0x8, addend: 0x0, symName: __RNvXs3u_NtCsATtFUPiRFW_3syn5tokenNtB6_6ExternNtNtCs9f3LFPSIp77_4core3fmt5Debug3fmt, symObjAddr: 0xD2D4, symBinAddr: 0x76754, symSize: 0x50 }
  - { offset: 0xC7F23, size: 0x8, addend: 0x0, symName: __RNvXs3w_NtCsATtFUPiRFW_3syn5tokenNtB6_6ExternNtNtCs9f3LFPSIp77_4core3cmp9PartialEq2eq, symObjAddr: 0xD324, symBinAddr: 0x767A4, symSize: 0x2C }
  - { offset: 0xC7F66, size: 0x8, addend: 0x0, symName: __RNvXs3y_NtCsATtFUPiRFW_3syn5tokenNtB6_6ExternNtNtCs62MdaZFMefA_5quote9to_tokens8ToTokens9to_tokens, symObjAddr: 0xD350, symBinAddr: 0x767D0, symSize: 0x54 }
  - { offset: 0xC7FA5, size: 0x8, addend: 0x0, symName: __RNvXs3z_NtCsATtFUPiRFW_3syn5tokenNtB6_6ExternNtNtB8_5parse5Parse5parse, symObjAddr: 0xD3A4, symBinAddr: 0x76824, symSize: 0xCC }
  - { offset: 0xC7FF7, size: 0x8, addend: 0x0, symName: __RNvXs3A_NtCsATtFUPiRFW_3syn5tokenNtB6_6ExternNtB6_5Token4peek, symObjAddr: 0xD470, symBinAddr: 0x768F0, symSize: 0x4C }
  - { offset: 0xC8025, size: 0x8, addend: 0x0, symName: __RNvXs3A_NtCsATtFUPiRFW_3syn5tokenNtB6_6ExternNtB6_5Token7display, symObjAddr: 0xD4BC, symBinAddr: 0x7693C, symSize: 0x24 }
  - { offset: 0xC8049, size: 0x8, addend: 0x0, symName: __RNvXs3C_NtCsATtFUPiRFW_3syn5tokenNtB6_5FinalNtNtCs9f3LFPSIp77_4core7default7Default7default, symObjAddr: 0xD4E0, symBinAddr: 0x76960, symSize: 0x24 }
  - { offset: 0xC806C, size: 0x8, addend: 0x0, symName: __RNvXs3E_NtCsATtFUPiRFW_3syn5tokenNtB6_5FinalNtNtCs9f3LFPSIp77_4core5clone5Clone5clone, symObjAddr: 0xD504, symBinAddr: 0x76984, symSize: 0x28 }
  - { offset: 0xC809E, size: 0x8, addend: 0x0, symName: __RNvXs3F_NtCsATtFUPiRFW_3syn5tokenNtB6_5FinalNtNtCs9f3LFPSIp77_4core3fmt5Debug3fmt, symObjAddr: 0xD52C, symBinAddr: 0x769AC, symSize: 0x50 }
  - { offset: 0xC80DE, size: 0x8, addend: 0x0, symName: __RNvXs3H_NtCsATtFUPiRFW_3syn5tokenNtB6_5FinalNtNtCs9f3LFPSIp77_4core3cmp9PartialEq2eq, symObjAddr: 0xD57C, symBinAddr: 0x769FC, symSize: 0x2C }
  - { offset: 0xC8121, size: 0x8, addend: 0x0, symName: __RNvXs3J_NtCsATtFUPiRFW_3syn5tokenNtB6_5FinalNtNtCs62MdaZFMefA_5quote9to_tokens8ToTokens9to_tokens, symObjAddr: 0xD5A8, symBinAddr: 0x76A28, symSize: 0x54 }
  - { offset: 0xC8160, size: 0x8, addend: 0x0, symName: __RNvXs3K_NtCsATtFUPiRFW_3syn5tokenNtB6_5FinalNtNtB8_5parse5Parse5parse, symObjAddr: 0xD5FC, symBinAddr: 0x76A7C, symSize: 0xCC }
  - { offset: 0xC81B2, size: 0x8, addend: 0x0, symName: __RNvXs3L_NtCsATtFUPiRFW_3syn5tokenNtB6_5FinalNtB6_5Token4peek, symObjAddr: 0xD6C8, symBinAddr: 0x76B48, symSize: 0x4C }
  - { offset: 0xC81E0, size: 0x8, addend: 0x0, symName: __RNvXs3L_NtCsATtFUPiRFW_3syn5tokenNtB6_5FinalNtB6_5Token7display, symObjAddr: 0xD714, symBinAddr: 0x76B94, symSize: 0x24 }
  - { offset: 0xC8204, size: 0x8, addend: 0x0, symName: __RNvXs3N_NtCsATtFUPiRFW_3syn5tokenNtB6_2FnNtNtCs9f3LFPSIp77_4core7default7Default7default, symObjAddr: 0xD738, symBinAddr: 0x76BB8, symSize: 0x24 }
  - { offset: 0xC8227, size: 0x8, addend: 0x0, symName: __RNvXs3P_NtCsATtFUPiRFW_3syn5tokenNtB6_2FnNtNtCs9f3LFPSIp77_4core5clone5Clone5clone, symObjAddr: 0xD75C, symBinAddr: 0x76BDC, symSize: 0x28 }
  - { offset: 0xC8259, size: 0x8, addend: 0x0, symName: __RNvXs3Q_NtCsATtFUPiRFW_3syn5tokenNtB6_2FnNtNtCs9f3LFPSIp77_4core3fmt5Debug3fmt, symObjAddr: 0xD784, symBinAddr: 0x76C04, symSize: 0x50 }
  - { offset: 0xC8299, size: 0x8, addend: 0x0, symName: __RNvXs3S_NtCsATtFUPiRFW_3syn5tokenNtB6_2FnNtNtCs9f3LFPSIp77_4core3cmp9PartialEq2eq, symObjAddr: 0xD7D4, symBinAddr: 0x76C54, symSize: 0x2C }
  - { offset: 0xC82DC, size: 0x8, addend: 0x0, symName: __RNvXs3U_NtCsATtFUPiRFW_3syn5tokenNtB6_2FnNtNtCs62MdaZFMefA_5quote9to_tokens8ToTokens9to_tokens, symObjAddr: 0xD800, symBinAddr: 0x76C80, symSize: 0x54 }
  - { offset: 0xC831B, size: 0x8, addend: 0x0, symName: __RNvXs3V_NtCsATtFUPiRFW_3syn5tokenNtB6_2FnNtNtB8_5parse5Parse5parse, symObjAddr: 0xD854, symBinAddr: 0x76CD4, symSize: 0xCC }
  - { offset: 0xC836D, size: 0x8, addend: 0x0, symName: __RNvXs3W_NtCsATtFUPiRFW_3syn5tokenNtB6_2FnNtB6_5Token4peek, symObjAddr: 0xD920, symBinAddr: 0x76DA0, symSize: 0x4C }
  - { offset: 0xC839B, size: 0x8, addend: 0x0, symName: __RNvXs3W_NtCsATtFUPiRFW_3syn5tokenNtB6_2FnNtB6_5Token7display, symObjAddr: 0xD96C, symBinAddr: 0x76DEC, symSize: 0x24 }
  - { offset: 0xC83BF, size: 0x8, addend: 0x0, symName: __RNvXs3Y_NtCsATtFUPiRFW_3syn5tokenNtB6_3ForNtNtCs9f3LFPSIp77_4core7default7Default7default, symObjAddr: 0xD990, symBinAddr: 0x76E10, symSize: 0x24 }
  - { offset: 0xC83E2, size: 0x8, addend: 0x0, symName: __RNvXs40_NtCsATtFUPiRFW_3syn5tokenNtB6_3ForNtNtCs9f3LFPSIp77_4core5clone5Clone5clone, symObjAddr: 0xD9B4, symBinAddr: 0x76E34, symSize: 0x28 }
  - { offset: 0xC8414, size: 0x8, addend: 0x0, symName: __RNvXs41_NtCsATtFUPiRFW_3syn5tokenNtB6_3ForNtNtCs9f3LFPSIp77_4core3fmt5Debug3fmt, symObjAddr: 0xD9DC, symBinAddr: 0x76E5C, symSize: 0x50 }
  - { offset: 0xC8454, size: 0x8, addend: 0x0, symName: __RNvXs43_NtCsATtFUPiRFW_3syn5tokenNtB6_3ForNtNtCs9f3LFPSIp77_4core3cmp9PartialEq2eq, symObjAddr: 0xDA2C, symBinAddr: 0x76EAC, symSize: 0x2C }
  - { offset: 0xC8497, size: 0x8, addend: 0x0, symName: __RNvXs45_NtCsATtFUPiRFW_3syn5tokenNtB6_3ForNtNtCs62MdaZFMefA_5quote9to_tokens8ToTokens9to_tokens, symObjAddr: 0xDA58, symBinAddr: 0x76ED8, symSize: 0x54 }
  - { offset: 0xC84D6, size: 0x8, addend: 0x0, symName: __RNvXs46_NtCsATtFUPiRFW_3syn5tokenNtB6_3ForNtNtB8_5parse5Parse5parse, symObjAddr: 0xDAAC, symBinAddr: 0x76F2C, symSize: 0xCC }
  - { offset: 0xC8528, size: 0x8, addend: 0x0, symName: __RNvXs47_NtCsATtFUPiRFW_3syn5tokenNtB6_3ForNtB6_5Token4peek, symObjAddr: 0xDB78, symBinAddr: 0x76FF8, symSize: 0x4C }
  - { offset: 0xC8556, size: 0x8, addend: 0x0, symName: __RNvXs47_NtCsATtFUPiRFW_3syn5tokenNtB6_3ForNtB6_5Token7display, symObjAddr: 0xDBC4, symBinAddr: 0x77044, symSize: 0x24 }
  - { offset: 0xC857A, size: 0x8, addend: 0x0, symName: __RNvXs49_NtCsATtFUPiRFW_3syn5tokenNtB6_2IfNtNtCs9f3LFPSIp77_4core7default7Default7default, symObjAddr: 0xDBE8, symBinAddr: 0x77068, symSize: 0x24 }
  - { offset: 0xC859D, size: 0x8, addend: 0x0, symName: __RNvXs4b_NtCsATtFUPiRFW_3syn5tokenNtB6_2IfNtNtCs9f3LFPSIp77_4core5clone5Clone5clone, symObjAddr: 0xDC0C, symBinAddr: 0x7708C, symSize: 0x28 }
  - { offset: 0xC85CF, size: 0x8, addend: 0x0, symName: __RNvXs4c_NtCsATtFUPiRFW_3syn5tokenNtB6_2IfNtNtCs9f3LFPSIp77_4core3fmt5Debug3fmt, symObjAddr: 0xDC34, symBinAddr: 0x770B4, symSize: 0x50 }
  - { offset: 0xC860F, size: 0x8, addend: 0x0, symName: __RNvXs4e_NtCsATtFUPiRFW_3syn5tokenNtB6_2IfNtNtCs9f3LFPSIp77_4core3cmp9PartialEq2eq, symObjAddr: 0xDC84, symBinAddr: 0x77104, symSize: 0x2C }
  - { offset: 0xC8652, size: 0x8, addend: 0x0, symName: __RNvXs4g_NtCsATtFUPiRFW_3syn5tokenNtB6_2IfNtNtCs62MdaZFMefA_5quote9to_tokens8ToTokens9to_tokens, symObjAddr: 0xDCB0, symBinAddr: 0x77130, symSize: 0x54 }
  - { offset: 0xC8691, size: 0x8, addend: 0x0, symName: __RNvXs4h_NtCsATtFUPiRFW_3syn5tokenNtB6_2IfNtNtB8_5parse5Parse5parse, symObjAddr: 0xDD04, symBinAddr: 0x77184, symSize: 0xCC }
  - { offset: 0xC86E3, size: 0x8, addend: 0x0, symName: __RNvXs4i_NtCsATtFUPiRFW_3syn5tokenNtB6_2IfNtB6_5Token4peek, symObjAddr: 0xDDD0, symBinAddr: 0x77250, symSize: 0x4C }
  - { offset: 0xC8711, size: 0x8, addend: 0x0, symName: __RNvXs4i_NtCsATtFUPiRFW_3syn5tokenNtB6_2IfNtB6_5Token7display, symObjAddr: 0xDE1C, symBinAddr: 0x7729C, symSize: 0x24 }
  - { offset: 0xC8735, size: 0x8, addend: 0x0, symName: __RNvXs4k_NtCsATtFUPiRFW_3syn5tokenNtB6_4ImplNtNtCs9f3LFPSIp77_4core7default7Default7default, symObjAddr: 0xDE40, symBinAddr: 0x772C0, symSize: 0x24 }
  - { offset: 0xC8758, size: 0x8, addend: 0x0, symName: __RNvXs4m_NtCsATtFUPiRFW_3syn5tokenNtB6_4ImplNtNtCs9f3LFPSIp77_4core5clone5Clone5clone, symObjAddr: 0xDE64, symBinAddr: 0x772E4, symSize: 0x28 }
  - { offset: 0xC878A, size: 0x8, addend: 0x0, symName: __RNvXs4n_NtCsATtFUPiRFW_3syn5tokenNtB6_4ImplNtNtCs9f3LFPSIp77_4core3fmt5Debug3fmt, symObjAddr: 0xDE8C, symBinAddr: 0x7730C, symSize: 0x50 }
  - { offset: 0xC87CA, size: 0x8, addend: 0x0, symName: __RNvXs4p_NtCsATtFUPiRFW_3syn5tokenNtB6_4ImplNtNtCs9f3LFPSIp77_4core3cmp9PartialEq2eq, symObjAddr: 0xDEDC, symBinAddr: 0x7735C, symSize: 0x2C }
  - { offset: 0xC880D, size: 0x8, addend: 0x0, symName: __RNvXs4r_NtCsATtFUPiRFW_3syn5tokenNtB6_4ImplNtNtCs62MdaZFMefA_5quote9to_tokens8ToTokens9to_tokens, symObjAddr: 0xDF08, symBinAddr: 0x77388, symSize: 0x54 }
  - { offset: 0xC884C, size: 0x8, addend: 0x0, symName: __RNvXs4s_NtCsATtFUPiRFW_3syn5tokenNtB6_4ImplNtNtB8_5parse5Parse5parse, symObjAddr: 0xDF5C, symBinAddr: 0x773DC, symSize: 0xCC }
  - { offset: 0xC889E, size: 0x8, addend: 0x0, symName: __RNvXs4t_NtCsATtFUPiRFW_3syn5tokenNtB6_4ImplNtB6_5Token4peek, symObjAddr: 0xE028, symBinAddr: 0x774A8, symSize: 0x4C }
  - { offset: 0xC88CC, size: 0x8, addend: 0x0, symName: __RNvXs4t_NtCsATtFUPiRFW_3syn5tokenNtB6_4ImplNtB6_5Token7display, symObjAddr: 0xE074, symBinAddr: 0x774F4, symSize: 0x24 }
  - { offset: 0xC88F0, size: 0x8, addend: 0x0, symName: __RNvXs4v_NtCsATtFUPiRFW_3syn5tokenNtB6_2InNtNtCs9f3LFPSIp77_4core7default7Default7default, symObjAddr: 0xE098, symBinAddr: 0x77518, symSize: 0x24 }
  - { offset: 0xC8913, size: 0x8, addend: 0x0, symName: __RNvXs4x_NtCsATtFUPiRFW_3syn5tokenNtB6_2InNtNtCs9f3LFPSIp77_4core5clone5Clone5clone, symObjAddr: 0xE0BC, symBinAddr: 0x7753C, symSize: 0x28 }
  - { offset: 0xC8945, size: 0x8, addend: 0x0, symName: __RNvXs4y_NtCsATtFUPiRFW_3syn5tokenNtB6_2InNtNtCs9f3LFPSIp77_4core3fmt5Debug3fmt, symObjAddr: 0xE0E4, symBinAddr: 0x77564, symSize: 0x50 }
  - { offset: 0xC8985, size: 0x8, addend: 0x0, symName: __RNvXs4A_NtCsATtFUPiRFW_3syn5tokenNtB6_2InNtNtCs9f3LFPSIp77_4core3cmp9PartialEq2eq, symObjAddr: 0xE134, symBinAddr: 0x775B4, symSize: 0x2C }
  - { offset: 0xC89C8, size: 0x8, addend: 0x0, symName: __RNvXs4C_NtCsATtFUPiRFW_3syn5tokenNtB6_2InNtNtCs62MdaZFMefA_5quote9to_tokens8ToTokens9to_tokens, symObjAddr: 0xE160, symBinAddr: 0x775E0, symSize: 0x54 }
  - { offset: 0xC8A07, size: 0x8, addend: 0x0, symName: __RNvXs4D_NtCsATtFUPiRFW_3syn5tokenNtB6_2InNtNtB8_5parse5Parse5parse, symObjAddr: 0xE1B4, symBinAddr: 0x77634, symSize: 0xCC }
  - { offset: 0xC8A59, size: 0x8, addend: 0x0, symName: __RNvXs4E_NtCsATtFUPiRFW_3syn5tokenNtB6_2InNtB6_5Token4peek, symObjAddr: 0xE280, symBinAddr: 0x77700, symSize: 0x4C }
  - { offset: 0xC8A87, size: 0x8, addend: 0x0, symName: __RNvXs4E_NtCsATtFUPiRFW_3syn5tokenNtB6_2InNtB6_5Token7display, symObjAddr: 0xE2CC, symBinAddr: 0x7774C, symSize: 0x24 }
  - { offset: 0xC8AAB, size: 0x8, addend: 0x0, symName: __RNvXs4G_NtCsATtFUPiRFW_3syn5tokenNtB6_3LetNtNtCs9f3LFPSIp77_4core7default7Default7default, symObjAddr: 0xE2F0, symBinAddr: 0x77770, symSize: 0x24 }
  - { offset: 0xC8ACE, size: 0x8, addend: 0x0, symName: __RNvXs4I_NtCsATtFUPiRFW_3syn5tokenNtB6_3LetNtNtCs9f3LFPSIp77_4core5clone5Clone5clone, symObjAddr: 0xE314, symBinAddr: 0x77794, symSize: 0x28 }
  - { offset: 0xC8B00, size: 0x8, addend: 0x0, symName: __RNvXs4J_NtCsATtFUPiRFW_3syn5tokenNtB6_3LetNtNtCs9f3LFPSIp77_4core3fmt5Debug3fmt, symObjAddr: 0xE33C, symBinAddr: 0x777BC, symSize: 0x50 }
  - { offset: 0xC8B40, size: 0x8, addend: 0x0, symName: __RNvXs4L_NtCsATtFUPiRFW_3syn5tokenNtB6_3LetNtNtCs9f3LFPSIp77_4core3cmp9PartialEq2eq, symObjAddr: 0xE38C, symBinAddr: 0x7780C, symSize: 0x2C }
  - { offset: 0xC8B83, size: 0x8, addend: 0x0, symName: __RNvXs4N_NtCsATtFUPiRFW_3syn5tokenNtB6_3LetNtNtCs62MdaZFMefA_5quote9to_tokens8ToTokens9to_tokens, symObjAddr: 0xE3B8, symBinAddr: 0x77838, symSize: 0x54 }
  - { offset: 0xC8BC2, size: 0x8, addend: 0x0, symName: __RNvXs4O_NtCsATtFUPiRFW_3syn5tokenNtB6_3LetNtNtB8_5parse5Parse5parse, symObjAddr: 0xE40C, symBinAddr: 0x7788C, symSize: 0xCC }
  - { offset: 0xC8C14, size: 0x8, addend: 0x0, symName: __RNvXs4P_NtCsATtFUPiRFW_3syn5tokenNtB6_3LetNtB6_5Token4peek, symObjAddr: 0xE4D8, symBinAddr: 0x77958, symSize: 0x4C }
  - { offset: 0xC8C42, size: 0x8, addend: 0x0, symName: __RNvXs4P_NtCsATtFUPiRFW_3syn5tokenNtB6_3LetNtB6_5Token7display, symObjAddr: 0xE524, symBinAddr: 0x779A4, symSize: 0x24 }
  - { offset: 0xC8C66, size: 0x8, addend: 0x0, symName: __RNvXs4R_NtCsATtFUPiRFW_3syn5tokenNtB6_4LoopNtNtCs9f3LFPSIp77_4core7default7Default7default, symObjAddr: 0xE548, symBinAddr: 0x779C8, symSize: 0x24 }
  - { offset: 0xC8C89, size: 0x8, addend: 0x0, symName: __RNvXs4T_NtCsATtFUPiRFW_3syn5tokenNtB6_4LoopNtNtCs9f3LFPSIp77_4core5clone5Clone5clone, symObjAddr: 0xE56C, symBinAddr: 0x779EC, symSize: 0x28 }
  - { offset: 0xC8CBB, size: 0x8, addend: 0x0, symName: __RNvXs4U_NtCsATtFUPiRFW_3syn5tokenNtB6_4LoopNtNtCs9f3LFPSIp77_4core3fmt5Debug3fmt, symObjAddr: 0xE594, symBinAddr: 0x77A14, symSize: 0x50 }
  - { offset: 0xC8CFB, size: 0x8, addend: 0x0, symName: __RNvXs4W_NtCsATtFUPiRFW_3syn5tokenNtB6_4LoopNtNtCs9f3LFPSIp77_4core3cmp9PartialEq2eq, symObjAddr: 0xE5E4, symBinAddr: 0x77A64, symSize: 0x2C }
  - { offset: 0xC8D3E, size: 0x8, addend: 0x0, symName: __RNvXs4Y_NtCsATtFUPiRFW_3syn5tokenNtB6_4LoopNtNtCs62MdaZFMefA_5quote9to_tokens8ToTokens9to_tokens, symObjAddr: 0xE610, symBinAddr: 0x77A90, symSize: 0x54 }
  - { offset: 0xC8D7D, size: 0x8, addend: 0x0, symName: __RNvXs4Z_NtCsATtFUPiRFW_3syn5tokenNtB6_4LoopNtNtB8_5parse5Parse5parse, symObjAddr: 0xE664, symBinAddr: 0x77AE4, symSize: 0xCC }
  - { offset: 0xC8DCF, size: 0x8, addend: 0x0, symName: __RNvXs50_NtCsATtFUPiRFW_3syn5tokenNtB6_4LoopNtB6_5Token4peek, symObjAddr: 0xE730, symBinAddr: 0x77BB0, symSize: 0x4C }
  - { offset: 0xC8DFD, size: 0x8, addend: 0x0, symName: __RNvXs50_NtCsATtFUPiRFW_3syn5tokenNtB6_4LoopNtB6_5Token7display, symObjAddr: 0xE77C, symBinAddr: 0x77BFC, symSize: 0x24 }
  - { offset: 0xC8E21, size: 0x8, addend: 0x0, symName: __RNvXs52_NtCsATtFUPiRFW_3syn5tokenNtB6_5MacroNtNtCs9f3LFPSIp77_4core7default7Default7default, symObjAddr: 0xE7A0, symBinAddr: 0x77C20, symSize: 0x24 }
  - { offset: 0xC8E44, size: 0x8, addend: 0x0, symName: __RNvXs54_NtCsATtFUPiRFW_3syn5tokenNtB6_5MacroNtNtCs9f3LFPSIp77_4core5clone5Clone5clone, symObjAddr: 0xE7C4, symBinAddr: 0x77C44, symSize: 0x28 }
  - { offset: 0xC8E76, size: 0x8, addend: 0x0, symName: __RNvXs55_NtCsATtFUPiRFW_3syn5tokenNtB6_5MacroNtNtCs9f3LFPSIp77_4core3fmt5Debug3fmt, symObjAddr: 0xE7EC, symBinAddr: 0x77C6C, symSize: 0x50 }
