---
triple:          'arm64-apple-darwin'
binary-path:     '/Users/teddy/code/zero_to_production/newsletter_server/target/debug/deps/libyoke_derive-05bbe4e38abb51c2.dylib'
relocations:
  - { offset: 0x1E, size: 0x8, addend: 0x0, symName: __RINvXs3_NtNtCsdze8u8oDPro_5alloc3vec9into_iterINtB6_8IntoIterNtNtCsATtFUPiRFW_3syn4attr9AttributeENtNtNtNtCs9f3LFPSIp77_4core4iter6traits8iterator8Iterator8try_foldINtNtB8_13in_place_drop11InPlaceDropBX_ENCINvNtNtB1E_8adapters3map12map_try_foldBX_BX_B2C_INtNtB1G_6result6ResultB2C_zENCINvNtNtB11_3gen4fold8fold_vecBX_NtNvCs7oyfuZDlTKn_11yoke_derive16replace_lifetime15ReplaceLifetimeNvYB55_NtB4C_4Fold14fold_attributeE0NCINvNtB8_16in_place_collect24write_in_place_with_dropBX_E0E0B44_EB59_, symObjAddr: 0x0, symBinAddr: 0x38DC, symSize: 0x200 }
  - { offset: 0x9267, size: 0x8, addend: 0x0, symName: __RINvYINtNtNtCsdze8u8oDPro_5alloc3vec9into_iter8IntoIterNtNtCsATtFUPiRFW_3syn4attr9AttributeENtNtNtNtCs9f3LFPSIp77_4core4iter6traits8iterator8Iterator3mapBR_NCINvNtNtBV_3gen4fold8fold_vecBR_NtNvCs7oyfuZDlTKn_11yoke_derive16replace_lifetime15ReplaceLifetimeNvYB31_NtB2z_4Fold14fold_attributeE0EB35_, symObjAddr: 0x3218, symBinAddr: 0x6AF4, symSize: 0x34 }
  - { offset: 0x92E5, size: 0x8, addend: 0x0, symName: __RINvYINtNtNtCsdze8u8oDPro_5alloc3vec9into_iter8IntoIterNtNtCsATtFUPiRFW_3syn4expr3ArmENtNtNtNtCs9f3LFPSIp77_4core4iter6traits8iterator8Iterator3mapBR_NCINvNtNtBV_3gen4fold8fold_vecBR_NtNvCs7oyfuZDlTKn_11yoke_derive16replace_lifetime15ReplaceLifetimeNvYB2V_NtB2t_4Fold8fold_armE0EB2Z_, symObjAddr: 0x324C, symBinAddr: 0x6B28, symSize: 0x34 }
  - { offset: 0x9363, size: 0x8, addend: 0x0, symName: __RINvYINtNtNtCsdze8u8oDPro_5alloc3vec9into_iter8IntoIterNtNtCsATtFUPiRFW_3syn4item11ForeignItemENtNtNtNtCs9f3LFPSIp77_4core4iter6traits8iterator8Iterator3mapBR_NCINvNtNtBV_3gen4fold8fold_vecBR_NtNvCs7oyfuZDlTKn_11yoke_derive16replace_lifetime15ReplaceLifetimeNvYB34_NtB2C_4Fold17fold_foreign_itemE0EB38_, symObjAddr: 0x3280, symBinAddr: 0x6B5C, symSize: 0x34 }
  - { offset: 0x93E1, size: 0x8, addend: 0x0, symName: __RINvYINtNtNtCsdze8u8oDPro_5alloc3vec9into_iter8IntoIterNtNtCsATtFUPiRFW_3syn4item4ItemENtNtNtNtCs9f3LFPSIp77_4core4iter6traits8iterator8Iterator3mapBR_NCINvNtNtBV_3gen4fold8fold_vecBR_NtNvCs7oyfuZDlTKn_11yoke_derive16replace_lifetime15ReplaceLifetimeNvYB2W_NtB2u_4Fold9fold_itemE0EB30_, symObjAddr: 0x32B4, symBinAddr: 0x6B90, symSize: 0x34 }
  - { offset: 0x945F, size: 0x8, addend: 0x0, symName: __RINvYINtNtNtCsdze8u8oDPro_5alloc3vec9into_iter8IntoIterNtNtCsATtFUPiRFW_3syn4item8ImplItemENtNtNtNtCs9f3LFPSIp77_4core4iter6traits8iterator8Iterator3mapBR_NCINvNtNtBV_3gen4fold8fold_vecBR_NtNvCs7oyfuZDlTKn_11yoke_derive16replace_lifetime15ReplaceLifetimeNvYB30_NtB2y_4Fold14fold_impl_itemE0EB34_, symObjAddr: 0x32E8, symBinAddr: 0x6BC4, symSize: 0x34 }
  - { offset: 0x94DD, size: 0x8, addend: 0x0, symName: __RINvYINtNtNtCsdze8u8oDPro_5alloc3vec9into_iter8IntoIterNtNtCsATtFUPiRFW_3syn4item9TraitItemENtNtNtNtCs9f3LFPSIp77_4core4iter6traits8iterator8Iterator3mapBR_NCINvNtNtBV_3gen4fold8fold_vecBR_NtNvCs7oyfuZDlTKn_11yoke_derive16replace_lifetime15ReplaceLifetimeNvYB31_NtB2z_4Fold15fold_trait_itemE0EB35_, symObjAddr: 0x331C, symBinAddr: 0x6BF8, symSize: 0x34 }
  - { offset: 0x955B, size: 0x8, addend: 0x0, symName: __RINvYINtNtNtCsdze8u8oDPro_5alloc3vec9into_iter8IntoIterNtNtCsATtFUPiRFW_3syn4stmt4StmtENtNtNtNtCs9f3LFPSIp77_4core4iter6traits8iterator8Iterator3mapBR_NCINvNtNtBV_3gen4fold8fold_vecBR_NtNvCs7oyfuZDlTKn_11yoke_derive16replace_lifetime15ReplaceLifetimeNvYB2W_NtB2u_4Fold9fold_stmtE0EB30_, symObjAddr: 0x3350, symBinAddr: 0x6C2C, symSize: 0x34 }
  - { offset: 0x95D9, size: 0x8, addend: 0x0, symName: __RINvYINtNtNtCsdze8u8oDPro_5alloc3vec9into_iter8IntoIterTNtNtCsATtFUPiRFW_3syn2ty4TypeNtNtBW_5token5CommaEENtNtNtNtCs9f3LFPSIp77_4core4iter6traits8iterator8Iterator3mapBR_NCINvNtBW_10punctuated4foldBS_B1l_NtNvCs7oyfuZDlTKn_11yoke_derive16replace_lifetime15ReplaceLifetimeNvYB3g_NtNtNtBW_3gen4fold4Fold9fold_typeE0EB3k_, symObjAddr: 0x3384, symBinAddr: 0x6C60, symSize: 0x34 }
  - { offset: 0x9657, size: 0x8, addend: 0x0, symName: __RINvYINtNtNtCsdze8u8oDPro_5alloc3vec9into_iter8IntoIterTNtNtCsATtFUPiRFW_3syn2ty9BareFnArgNtNtBW_5token5CommaEENtNtNtNtCs9f3LFPSIp77_4core4iter6traits8iterator8Iterator3mapBR_NCINvNtBW_10punctuated4foldBS_B1q_NtNvCs7oyfuZDlTKn_11yoke_derive16replace_lifetime15ReplaceLifetimeNvYB3l_NtNtNtBW_3gen4fold4Fold16fold_bare_fn_argE0EB3p_, symObjAddr: 0x33B8, symBinAddr: 0x6C94, symSize: 0x34 }
  - { offset: 0x96D5, size: 0x8, addend: 0x0, symName: __RINvYINtNtNtCsdze8u8oDPro_5alloc3vec9into_iter8IntoIterTNtNtCsATtFUPiRFW_3syn3pat3PatNtNtBW_5token2OrEENtNtNtNtCs9f3LFPSIp77_4core4iter6traits8iterator8Iterator3mapBR_NCINvNtBW_10punctuated4foldBS_B1l_NtNvCs7oyfuZDlTKn_11yoke_derive16replace_lifetime15ReplaceLifetimeNvYB3d_NtNtNtBW_3gen4fold4Fold8fold_patE0EB3h_, symObjAddr: 0x33EC, symBinAddr: 0x6CC8, symSize: 0x34 }
  - { offset: 0x9753, size: 0x8, addend: 0x0, symName: __RINvYINtNtNtCsdze8u8oDPro_5alloc3vec9into_iter8IntoIterTNtNtCsATtFUPiRFW_3syn3pat3PatNtNtBW_5token5CommaEENtNtNtNtCs9f3LFPSIp77_4core4iter6traits8iterator8Iterator3mapBR_NCINvNtBW_10punctuated4foldBS_B1l_NtNvCs7oyfuZDlTKn_11yoke_derive16replace_lifetime15ReplaceLifetimeNvYB3g_NtNtNtBW_3gen4fold4Fold8fold_patE0EB3k_, symObjAddr: 0x3420, symBinAddr: 0x6CFC, symSize: 0x34 }
  - { offset: 0x97D1, size: 0x8, addend: 0x0, symName: __RINvYINtNtNtCsdze8u8oDPro_5alloc3vec9into_iter8IntoIterTNtNtCsATtFUPiRFW_3syn3pat8FieldPatNtNtBW_5token5CommaEENtNtNtNtCs9f3LFPSIp77_4core4iter6traits8iterator8Iterator3mapBR_NCINvNtBW_10punctuated4foldBS_B1q_NtNvCs7oyfuZDlTKn_11yoke_derive16replace_lifetime15ReplaceLifetimeNvYB3l_NtNtNtBW_3gen4fold4Fold14fold_field_patE0EB3p_, symObjAddr: 0x3454, symBinAddr: 0x6D30, symSize: 0x34 }
  - { offset: 0x984F, size: 0x8, addend: 0x0, symName: __RINvYINtNtNtCsdze8u8oDPro_5alloc3vec9into_iter8IntoIterTNtNtCsATtFUPiRFW_3syn4data5FieldNtNtBW_5token5CommaEENtNtNtNtCs9f3LFPSIp77_4core4iter6traits8iterator8Iterator3mapBR_NCINvNtBW_10punctuated4foldBS_B1o_NtNvCs7oyfuZDlTKn_11yoke_derive16replace_lifetime15ReplaceLifetimeNvYB3j_NtNtNtBW_3gen4fold4Fold10fold_fieldE0EB3n_, symObjAddr: 0x3488, symBinAddr: 0x6D64, symSize: 0x34 }
  - { offset: 0x98CD, size: 0x8, addend: 0x0, symName: __RINvYINtNtNtCsdze8u8oDPro_5alloc3vec9into_iter8IntoIterTNtNtCsATtFUPiRFW_3syn4data7VariantNtNtBW_5token5CommaEENtNtNtNtCs9f3LFPSIp77_4core4iter6traits8iterator8Iterator3mapBR_NCINvNtBW_10punctuated4foldBS_B1q_NtNvCs7oyfuZDlTKn_11yoke_derive16replace_lifetime15ReplaceLifetimeNvYB3l_NtNtNtBW_3gen4fold4Fold12fold_variantE0EB3p_, symObjAddr: 0x34BC, symBinAddr: 0x6D98, symSize: 0x34 }
  - { offset: 0x994B, size: 0x8, addend: 0x0, symName: __RINvYINtNtNtCsdze8u8oDPro_5alloc3vec9into_iter8IntoIterTNtNtCsATtFUPiRFW_3syn4expr10FieldValueNtNtBW_5token5CommaEENtNtNtNtCs9f3LFPSIp77_4core4iter6traits8iterator8Iterator3mapBR_NCINvNtBW_10punctuated4foldBS_B1u_NtNvCs7oyfuZDlTKn_11yoke_derive16replace_lifetime15ReplaceLifetimeNvYB3p_NtNtNtBW_3gen4fold4Fold16fold_field_valueE0EB3t_, symObjAddr: 0x34F0, symBinAddr: 0x6DCC, symSize: 0x34 }
  - { offset: 0x99C9, size: 0x8, addend: 0x0, symName: __RINvYINtNtNtCsdze8u8oDPro_5alloc3vec9into_iter8IntoIterTNtNtCsATtFUPiRFW_3syn4expr4ExprNtNtBW_5token5CommaEENtNtNtNtCs9f3LFPSIp77_4core4iter6traits8iterator8Iterator3mapBR_NCINvNtBW_10punctuated4foldBS_B1n_NtNvCs7oyfuZDlTKn_11yoke_derive16replace_lifetime15ReplaceLifetimeNvYB3i_NtNtNtBW_3gen4fold4Fold9fold_exprE0EB3m_, symObjAddr: 0x3524, symBinAddr: 0x6E00, symSize: 0x34 }
  - { offset: 0x9A47, size: 0x8, addend: 0x0, symName: __RINvYINtNtNtCsdze8u8oDPro_5alloc3vec9into_iter8IntoIterTNtNtCsATtFUPiRFW_3syn4item5FnArgNtNtBW_5token5CommaEENtNtNtNtCs9f3LFPSIp77_4core4iter6traits8iterator8Iterator3mapBR_NCINvNtBW_10punctuated4foldBS_B1o_NtNvCs7oyfuZDlTKn_11yoke_derive16replace_lifetime15ReplaceLifetimeNvYB3j_NtNtNtBW_3gen4fold4Fold11fold_fn_argE0EB3n_, symObjAddr: 0x3558, symBinAddr: 0x6E34, symSize: 0x34 }
  - { offset: 0x9AC5, size: 0x8, addend: 0x0, symName: __RINvYINtNtNtCsdze8u8oDPro_5alloc3vec9into_iter8IntoIterTNtNtCsATtFUPiRFW_3syn4item7UseTreeNtNtBW_5token5CommaEENtNtNtNtCs9f3LFPSIp77_4core4iter6traits8iterator8Iterator3mapBR_NCINvNtBW_10punctuated4foldBS_B1q_NtNvCs7oyfuZDlTKn_11yoke_derive16replace_lifetime15ReplaceLifetimeNvYB3l_NtNtNtBW_3gen4fold4Fold13fold_use_treeE0EB3p_, symObjAddr: 0x358C, symBinAddr: 0x6E68, symSize: 0x34 }
  - { offset: 0x9B43, size: 0x8, addend: 0x0, symName: __RINvYINtNtNtCsdze8u8oDPro_5alloc3vec9into_iter8IntoIterTNtNtCsATtFUPiRFW_3syn4path11PathSegmentNtNtBW_5token7PathSepEENtNtNtNtCs9f3LFPSIp77_4core4iter6traits8iterator8Iterator3mapBR_NCINvNtBW_10punctuated4foldBS_B1v_NtNvCs7oyfuZDlTKn_11yoke_derive16replace_lifetime15ReplaceLifetimeNvYB3s_NtNtNtBW_3gen4fold4Fold17fold_path_segmentE0EB3w_, symObjAddr: 0x35C0, symBinAddr: 0x6E9C, symSize: 0x34 }
  - { offset: 0x9BC1, size: 0x8, addend: 0x0, symName: __RINvYINtNtNtCsdze8u8oDPro_5alloc3vec9into_iter8IntoIterTNtNtCsATtFUPiRFW_3syn4path15GenericArgumentNtNtBW_5token5CommaEENtNtNtNtCs9f3LFPSIp77_4core4iter6traits8iterator8Iterator3mapBR_NCINvNtBW_10punctuated4foldBS_B1z_NtNvCs7oyfuZDlTKn_11yoke_derive16replace_lifetime15ReplaceLifetimeNvYB3u_NtNtNtBW_3gen4fold4Fold21fold_generic_argumentE0EB3y_, symObjAddr: 0x35F4, symBinAddr: 0x6ED0, symSize: 0x34 }
  - { offset: 0x9C3F, size: 0x8, addend: 0x0, symName: __RINvYINtNtNtCsdze8u8oDPro_5alloc3vec9into_iter8IntoIterTNtNtCsATtFUPiRFW_3syn8generics12GenericParamNtNtBW_5token5CommaEENtNtNtNtCs9f3LFPSIp77_4core4iter6traits8iterator8Iterator3mapBR_NCINvNtBW_10punctuated4foldBS_B1A_NtNvCs7oyfuZDlTKn_11yoke_derive16replace_lifetime15ReplaceLifetimeNvYB3v_NtNtNtBW_3gen4fold4Fold18fold_generic_paramE0EB3z_, symObjAddr: 0x3628, symBinAddr: 0x6F04, symSize: 0x34 }
  - { offset: 0x9CBD, size: 0x8, addend: 0x0, symName: __RINvYINtNtNtCsdze8u8oDPro_5alloc3vec9into_iter8IntoIterTNtNtCsATtFUPiRFW_3syn8generics13CapturedParamNtNtBW_5token5CommaEENtNtNtNtCs9f3LFPSIp77_4core4iter6traits8iterator8Iterator3mapBR_NCINvNtBW_10punctuated4foldBS_B1B_NtNvCs7oyfuZDlTKn_11yoke_derive16replace_lifetime15ReplaceLifetimeNvYB3w_NtNtNtBW_3gen4fold4Fold19fold_captured_paramE0EB3A_, symObjAddr: 0x365C, symBinAddr: 0x6F38, symSize: 0x34 }
  - { offset: 0x9D3B, size: 0x8, addend: 0x0, symName: __RINvYINtNtNtCsdze8u8oDPro_5alloc3vec9into_iter8IntoIterTNtNtCsATtFUPiRFW_3syn8generics14TypeParamBoundNtNtBW_5token4PlusEENtNtNtNtCs9f3LFPSIp77_4core4iter6traits8iterator8Iterator3mapBR_NCINvNtBW_10punctuated4foldBS_B1C_NtNvCs7oyfuZDlTKn_11yoke_derive16replace_lifetime15ReplaceLifetimeNvYB3w_NtNtNtBW_3gen4fold4Fold21fold_type_param_boundE0EB3A_, symObjAddr: 0x3690, symBinAddr: 0x6F6C, symSize: 0x34 }
  - { offset: 0x9DB9, size: 0x8, addend: 0x0, symName: __RINvYINtNtNtCsdze8u8oDPro_5alloc3vec9into_iter8IntoIterTNtNtCsATtFUPiRFW_3syn8generics14WherePredicateNtNtBW_5token5CommaEENtNtNtNtCs9f3LFPSIp77_4core4iter6traits8iterator8Iterator3mapBR_NCINvNtBW_10punctuated4foldBS_B1C_NtNvCs7oyfuZDlTKn_11yoke_derive16replace_lifetime15ReplaceLifetimeNvYB3x_NtNtNtBW_3gen4fold4Fold20fold_where_predicateE0EB3B_, symObjAddr: 0x36C4, symBinAddr: 0x6FA0, symSize: 0x34 }
  - { offset: 0x9E37, size: 0x8, addend: 0x0, symName: __RINvYINtNtNtCsdze8u8oDPro_5alloc3vec9into_iter8IntoIterTNtNtCsATtFUPiRFW_3syn8lifetime8LifetimeNtNtBW_5token4PlusEENtNtNtNtCs9f3LFPSIp77_4core4iter6traits8iterator8Iterator3mapBR_NCINvNtBW_10punctuated4foldBS_B1v_NtNvCs7oyfuZDlTKn_11yoke_derive16replace_lifetime15ReplaceLifetimeNvYB3p_NtNtNtBW_3gen4fold4Fold13fold_lifetimeE0EB3t_, symObjAddr: 0x36F8, symBinAddr: 0x6FD4, symSize: 0x34 }
  - { offset: 0xA56D, size: 0x8, addend: 0x0, symName: __RNvYINtNtNtCsdze8u8oDPro_5alloc3vec9into_iter8IntoIterNtNtCsATtFUPiRFW_3syn4expr3ArmENtNtNtNtCs9f3LFPSIp77_4core4iter6traits10exact_size17ExactSizeIterator3lenCs7oyfuZDlTKn_11yoke_derive, symObjAddr: 0x7554, symBinAddr: 0xAE30, symSize: 0xC4 }
  - { offset: 0xA65F, size: 0x8, addend: 0x0, symName: __RNvYINtNtNtCsdze8u8oDPro_5alloc3vec9into_iter8IntoIterNtNtCsATtFUPiRFW_3syn4item11ForeignItemENtNtNtNtCs9f3LFPSIp77_4core4iter6traits10exact_size17ExactSizeIterator3lenCs7oyfuZDlTKn_11yoke_derive, symObjAddr: 0x7618, symBinAddr: 0xAEF4, symSize: 0xC4 }
  - { offset: 0xA751, size: 0x8, addend: 0x0, symName: __RNvYINtNtNtCsdze8u8oDPro_5alloc3vec9into_iter8IntoIterNtNtCsATtFUPiRFW_3syn4item4ItemENtNtNtNtCs9f3LFPSIp77_4core4iter6traits10exact_size17ExactSizeIterator3lenCs7oyfuZDlTKn_11yoke_derive, symObjAddr: 0x76DC, symBinAddr: 0xAFB8, symSize: 0xC4 }
  - { offset: 0xA843, size: 0x8, addend: 0x0, symName: __RNvYINtNtNtCsdze8u8oDPro_5alloc3vec9into_iter8IntoIterNtNtCsATtFUPiRFW_3syn4item8ImplItemENtNtNtNtCs9f3LFPSIp77_4core4iter6traits10exact_size17ExactSizeIterator3lenCs7oyfuZDlTKn_11yoke_derive, symObjAddr: 0x77A0, symBinAddr: 0xB07C, symSize: 0xC4 }
  - { offset: 0xA935, size: 0x8, addend: 0x0, symName: __RNvYINtNtNtCsdze8u8oDPro_5alloc3vec9into_iter8IntoIterNtNtCsATtFUPiRFW_3syn4item9TraitItemENtNtNtNtCs9f3LFPSIp77_4core4iter6traits10exact_size17ExactSizeIterator3lenCs7oyfuZDlTKn_11yoke_derive, symObjAddr: 0x7864, symBinAddr: 0xB140, symSize: 0xC4 }
  - { offset: 0xAA27, size: 0x8, addend: 0x0, symName: __RNvYINtNtNtCsdze8u8oDPro_5alloc3vec9into_iter8IntoIterNtNtCsATtFUPiRFW_3syn4stmt4StmtENtNtNtNtCs9f3LFPSIp77_4core4iter6traits10exact_size17ExactSizeIterator3lenCs7oyfuZDlTKn_11yoke_derive, symObjAddr: 0x7928, symBinAddr: 0xB204, symSize: 0xC4 }
  - { offset: 0xAB19, size: 0x8, addend: 0x0, symName: __RNvYINtNtNtCsdze8u8oDPro_5alloc3vec9into_iter8IntoIterTNtNtCsATtFUPiRFW_3syn2ty4TypeNtNtBV_5token5CommaEENtNtNtNtCs9f3LFPSIp77_4core4iter6traits10exact_size17ExactSizeIterator3lenCs7oyfuZDlTKn_11yoke_derive, symObjAddr: 0x79EC, symBinAddr: 0xB2C8, symSize: 0xC4 }
  - { offset: 0xAC0B, size: 0x8, addend: 0x0, symName: __RNvYINtNtNtCsdze8u8oDPro_5alloc3vec9into_iter8IntoIterTNtNtCsATtFUPiRFW_3syn2ty9BareFnArgNtNtBV_5token5CommaEENtNtNtNtCs9f3LFPSIp77_4core4iter6traits10exact_size17ExactSizeIterator3lenCs7oyfuZDlTKn_11yoke_derive, symObjAddr: 0x7AB0, symBinAddr: 0xB38C, symSize: 0xC4 }
  - { offset: 0xACFD, size: 0x8, addend: 0x0, symName: __RNvYINtNtNtCsdze8u8oDPro_5alloc3vec9into_iter8IntoIterTNtNtCsATtFUPiRFW_3syn3pat3PatNtNtBV_5token2OrEENtNtNtNtCs9f3LFPSIp77_4core4iter6traits10exact_size17ExactSizeIterator3lenCs7oyfuZDlTKn_11yoke_derive, symObjAddr: 0x7B74, symBinAddr: 0xB450, symSize: 0xC4 }
  - { offset: 0xADEF, size: 0x8, addend: 0x0, symName: __RNvYINtNtNtCsdze8u8oDPro_5alloc3vec9into_iter8IntoIterTNtNtCsATtFUPiRFW_3syn3pat3PatNtNtBV_5token5CommaEENtNtNtNtCs9f3LFPSIp77_4core4iter6traits10exact_size17ExactSizeIterator3lenCs7oyfuZDlTKn_11yoke_derive, symObjAddr: 0x7C38, symBinAddr: 0xB514, symSize: 0xC4 }
  - { offset: 0xAEE1, size: 0x8, addend: 0x0, symName: __RNvYINtNtNtCsdze8u8oDPro_5alloc3vec9into_iter8IntoIterTNtNtCsATtFUPiRFW_3syn3pat8FieldPatNtNtBV_5token5CommaEENtNtNtNtCs9f3LFPSIp77_4core4iter6traits10exact_size17ExactSizeIterator3lenCs7oyfuZDlTKn_11yoke_derive, symObjAddr: 0x7CFC, symBinAddr: 0xB5D8, symSize: 0xC4 }
  - { offset: 0xAFD3, size: 0x8, addend: 0x0, symName: __RNvYINtNtNtCsdze8u8oDPro_5alloc3vec9into_iter8IntoIterTNtNtCsATtFUPiRFW_3syn4data7VariantNtNtBV_5token5CommaEENtNtNtNtCs9f3LFPSIp77_4core4iter6traits10exact_size17ExactSizeIterator3lenCs7oyfuZDlTKn_11yoke_derive, symObjAddr: 0x7DC0, symBinAddr: 0xB69C, symSize: 0xC4 }
  - { offset: 0xB0C5, size: 0x8, addend: 0x0, symName: __RNvYINtNtNtCsdze8u8oDPro_5alloc3vec9into_iter8IntoIterTNtNtCsATtFUPiRFW_3syn4expr10FieldValueNtNtBV_5token5CommaEENtNtNtNtCs9f3LFPSIp77_4core4iter6traits10exact_size17ExactSizeIterator3lenCs7oyfuZDlTKn_11yoke_derive, symObjAddr: 0x7E84, symBinAddr: 0xB760, symSize: 0xC4 }
  - { offset: 0xB1B7, size: 0x8, addend: 0x0, symName: __RNvYINtNtNtCsdze8u8oDPro_5alloc3vec9into_iter8IntoIterTNtNtCsATtFUPiRFW_3syn4expr4ExprNtNtBV_5token5CommaEENtNtNtNtCs9f3LFPSIp77_4core4iter6traits10exact_size17ExactSizeIterator3lenCs7oyfuZDlTKn_11yoke_derive, symObjAddr: 0x7F48, symBinAddr: 0xB824, symSize: 0xC4 }
  - { offset: 0xB2A9, size: 0x8, addend: 0x0, symName: __RNvYINtNtNtCsdze8u8oDPro_5alloc3vec9into_iter8IntoIterTNtNtCsATtFUPiRFW_3syn4item5FnArgNtNtBV_5token5CommaEENtNtNtNtCs9f3LFPSIp77_4core4iter6traits10exact_size17ExactSizeIterator3lenCs7oyfuZDlTKn_11yoke_derive, symObjAddr: 0x800C, symBinAddr: 0xB8E8, symSize: 0xC4 }
  - { offset: 0xB39B, size: 0x8, addend: 0x0, symName: __RNvYINtNtNtCsdze8u8oDPro_5alloc3vec9into_iter8IntoIterTNtNtCsATtFUPiRFW_3syn4item7UseTreeNtNtBV_5token5CommaEENtNtNtNtCs9f3LFPSIp77_4core4iter6traits10exact_size17ExactSizeIterator3lenCs7oyfuZDlTKn_11yoke_derive, symObjAddr: 0x80D0, symBinAddr: 0xB9AC, symSize: 0xC4 }
  - { offset: 0xB48D, size: 0x8, addend: 0x0, symName: __RNvYINtNtNtCsdze8u8oDPro_5alloc3vec9into_iter8IntoIterTNtNtCsATtFUPiRFW_3syn4path15GenericArgumentNtNtBV_5token5CommaEENtNtNtNtCs9f3LFPSIp77_4core4iter6traits10exact_size17ExactSizeIterator3lenCs7oyfuZDlTKn_11yoke_derive, symObjAddr: 0x8194, symBinAddr: 0xBA70, symSize: 0xC4 }
  - { offset: 0xB57F, size: 0x8, addend: 0x0, symName: __RNvYINtNtNtCsdze8u8oDPro_5alloc3vec9into_iter8IntoIterTNtNtCsATtFUPiRFW_3syn8generics12GenericParamNtNtBV_5token5CommaEENtNtNtNtCs9f3LFPSIp77_4core4iter6traits10exact_size17ExactSizeIterator3lenCs7oyfuZDlTKn_11yoke_derive, symObjAddr: 0x8258, symBinAddr: 0xBB34, symSize: 0xC4 }
  - { offset: 0xB671, size: 0x8, addend: 0x0, symName: __RNvYINtNtNtCsdze8u8oDPro_5alloc3vec9into_iter8IntoIterTNtNtCsATtFUPiRFW_3syn8generics13CapturedParamNtNtBV_5token5CommaEENtNtNtNtCs9f3LFPSIp77_4core4iter6traits10exact_size17ExactSizeIterator3lenCs7oyfuZDlTKn_11yoke_derive, symObjAddr: 0x831C, symBinAddr: 0xBBF8, symSize: 0xC4 }
  - { offset: 0xB763, size: 0x8, addend: 0x0, symName: __RNvYINtNtNtCsdze8u8oDPro_5alloc3vec9into_iter8IntoIterTNtNtCsATtFUPiRFW_3syn8generics14WherePredicateNtNtBV_5token5CommaEENtNtNtNtCs9f3LFPSIp77_4core4iter6traits10exact_size17ExactSizeIterator3lenCs7oyfuZDlTKn_11yoke_derive, symObjAddr: 0x83E0, symBinAddr: 0xBCBC, symSize: 0xC4 }
  - { offset: 0xB855, size: 0x8, addend: 0x0, symName: __RNvYINtNtNtCsdze8u8oDPro_5alloc3vec9into_iter8IntoIterTNtNtCsATtFUPiRFW_3syn8lifetime8LifetimeNtNtBV_5token4PlusEENtNtNtNtCs9f3LFPSIp77_4core4iter6traits10exact_size17ExactSizeIterator3lenCs7oyfuZDlTKn_11yoke_derive, symObjAddr: 0x84A4, symBinAddr: 0xBD80, symSize: 0xC4 }
  - { offset: 0x11F9E, size: 0x8, addend: 0x0, symName: __RINvXs3_NtNtCsdze8u8oDPro_5alloc3vec9into_iterINtB6_8IntoIterNtNtCsATtFUPiRFW_3syn4attr9AttributeENtNtNtNtCs9f3LFPSIp77_4core4iter6traits8iterator8Iterator8try_foldINtNtB8_13in_place_drop11InPlaceDropBX_ENCINvNtNtB1E_8adapters3map12map_try_foldBX_BX_B2C_INtNtB1G_6result6ResultB2C_zENCINvNtNtB11_3gen4fold8fold_vecBX_NtNvCs7oyfuZDlTKn_11yoke_derive16replace_lifetime15ReplaceLifetimeNvYB55_NtB4C_4Fold14fold_attributeE0NCINvNtB8_16in_place_collect24write_in_place_with_dropBX_E0E0B44_EB59_, symObjAddr: 0x0, symBinAddr: 0x38DC, symSize: 0x200 }
  - { offset: 0x121BA, size: 0x8, addend: 0x0, symName: __RINvXs3_NtNtCsdze8u8oDPro_5alloc3vec9into_iterINtB6_8IntoIterNtNtCsATtFUPiRFW_3syn4expr3ArmENtNtNtNtCs9f3LFPSIp77_4core4iter6traits8iterator8Iterator8try_foldINtNtB8_13in_place_drop11InPlaceDropBX_ENCINvNtNtB1y_8adapters3map12map_try_foldBX_BX_B2w_INtNtB1A_6result6ResultB2w_zENCINvNtNtB11_3gen4fold8fold_vecBX_NtNvCs7oyfuZDlTKn_11yoke_derive16replace_lifetime15ReplaceLifetimeNvYB4Z_NtB4w_4Fold8fold_armE0NCINvNtB8_16in_place_collect24write_in_place_with_dropBX_E0E0B3Y_EB53_, symObjAddr: 0x200, symBinAddr: 0x3ADC, symSize: 0x200 }
  - { offset: 0x123D6, size: 0x8, addend: 0x0, symName: __RINvXs3_NtNtCsdze8u8oDPro_5alloc3vec9into_iterINtB6_8IntoIterNtNtCsATtFUPiRFW_3syn4item11ForeignItemENtNtNtNtCs9f3LFPSIp77_4core4iter6traits8iterator8Iterator8try_foldINtNtB8_13in_place_drop11InPlaceDropBX_ENCINvNtNtB1H_8adapters3map12map_try_foldBX_BX_B2F_INtNtB1J_6result6ResultB2F_zENCINvNtNtB11_3gen4fold8fold_vecBX_NtNvCs7oyfuZDlTKn_11yoke_derive16replace_lifetime15ReplaceLifetimeNvYB58_NtB4F_4Fold17fold_foreign_itemE0NCINvNtB8_16in_place_collect24write_in_place_with_dropBX_E0E0B47_EB5c_, symObjAddr: 0x400, symBinAddr: 0x3CDC, symSize: 0x204 }
  - { offset: 0x125F2, size: 0x8, addend: 0x0, symName: __RINvXs3_NtNtCsdze8u8oDPro_5alloc3vec9into_iterINtB6_8IntoIterNtNtCsATtFUPiRFW_3syn4item4ItemENtNtNtNtCs9f3LFPSIp77_4core4iter6traits8iterator8Iterator8try_foldINtNtB8_13in_place_drop11InPlaceDropBX_ENCINvNtNtB1z_8adapters3map12map_try_foldBX_BX_B2x_INtNtB1B_6result6ResultB2x_zENCINvNtNtB11_3gen4fold8fold_vecBX_NtNvCs7oyfuZDlTKn_11yoke_derive16replace_lifetime15ReplaceLifetimeNvYB50_NtB4x_4Fold9fold_itemE0NCINvNtB8_16in_place_collect24write_in_place_with_dropBX_E0E0B3Z_EB54_, symObjAddr: 0x604, symBinAddr: 0x3EE0, symSize: 0x204 }
  - { offset: 0x1280E, size: 0x8, addend: 0x0, symName: __RINvXs3_NtNtCsdze8u8oDPro_5alloc3vec9into_iterINtB6_8IntoIterNtNtCsATtFUPiRFW_3syn4item8ImplItemENtNtNtNtCs9f3LFPSIp77_4core4iter6traits8iterator8Iterator8try_foldINtNtB8_13in_place_drop11InPlaceDropBX_ENCINvNtNtB1D_8adapters3map12map_try_foldBX_BX_B2B_INtNtB1F_6result6ResultB2B_zENCINvNtNtB11_3gen4fold8fold_vecBX_NtNvCs7oyfuZDlTKn_11yoke_derive16replace_lifetime15ReplaceLifetimeNvYB54_NtB4B_4Fold14fold_impl_itemE0NCINvNtB8_16in_place_collect24write_in_place_with_dropBX_E0E0B43_EB58_, symObjAddr: 0x808, symBinAddr: 0x40E4, symSize: 0x204 }
  - { offset: 0x12A2A, size: 0x8, addend: 0x0, symName: __RINvXs3_NtNtCsdze8u8oDPro_5alloc3vec9into_iterINtB6_8IntoIterNtNtCsATtFUPiRFW_3syn4item9TraitItemENtNtNtNtCs9f3LFPSIp77_4core4iter6traits8iterator8Iterator8try_foldINtNtB8_13in_place_drop11InPlaceDropBX_ENCINvNtNtB1E_8adapters3map12map_try_foldBX_BX_B2C_INtNtB1G_6result6ResultB2C_zENCINvNtNtB11_3gen4fold8fold_vecBX_NtNvCs7oyfuZDlTKn_11yoke_derive16replace_lifetime15ReplaceLifetimeNvYB55_NtB4C_4Fold15fold_trait_itemE0NCINvNtB8_16in_place_collect24write_in_place_with_dropBX_E0E0B44_EB59_, symObjAddr: 0xA0C, symBinAddr: 0x42E8, symSize: 0x204 }
  - { offset: 0x12C46, size: 0x8, addend: 0x0, symName: __RINvXs3_NtNtCsdze8u8oDPro_5alloc3vec9into_iterINtB6_8IntoIterNtNtCsATtFUPiRFW_3syn4stmt4StmtENtNtNtNtCs9f3LFPSIp77_4core4iter6traits8iterator8Iterator8try_foldINtNtB8_13in_place_drop11InPlaceDropBX_ENCINvNtNtB1z_8adapters3map12map_try_foldBX_BX_B2x_INtNtB1B_6result6ResultB2x_zENCINvNtNtB11_3gen4fold8fold_vecBX_NtNvCs7oyfuZDlTKn_11yoke_derive16replace_lifetime15ReplaceLifetimeNvYB50_NtB4x_4Fold9fold_stmtE0NCINvNtB8_16in_place_collect24write_in_place_with_dropBX_E0E0B3Z_EB54_, symObjAddr: 0xC10, symBinAddr: 0x44EC, symSize: 0x204 }
  - { offset: 0x12E62, size: 0x8, addend: 0x0, symName: __RINvXs3_NtNtCsdze8u8oDPro_5alloc3vec9into_iterINtB6_8IntoIterTNtNtCsATtFUPiRFW_3syn2ty4TypeNtNtB12_5token5CommaEENtNtNtNtCs9f3LFPSIp77_4core4iter6traits8iterator8Iterator8try_foldINtNtB8_13in_place_drop11InPlaceDropBX_ENCINvNtNtB1T_8adapters3map12map_try_foldBX_BX_B2R_INtNtB1V_6result6ResultB2R_zENCINvNtB12_10punctuated4foldBY_B1r_NtNvCs7oyfuZDlTKn_11yoke_derive16replace_lifetime15ReplaceLifetimeNvYB5l_NtNtNtB12_3gen4fold4Fold9fold_typeE0NCINvNtB8_16in_place_collect24write_in_place_with_dropBX_E0E0B4j_EB5p_, symObjAddr: 0xE14, symBinAddr: 0x46F0, symSize: 0x200 }
  - { offset: 0x1307E, size: 0x8, addend: 0x0, symName: __RINvXs3_NtNtCsdze8u8oDPro_5alloc3vec9into_iterINtB6_8IntoIterTNtNtCsATtFUPiRFW_3syn2ty9BareFnArgNtNtB12_5token5CommaEENtNtNtNtCs9f3LFPSIp77_4core4iter6traits8iterator8Iterator8try_foldINtNtB8_13in_place_drop11InPlaceDropBX_ENCINvNtNtB1Y_8adapters3map12map_try_foldBX_BX_B2W_INtNtB20_6result6ResultB2W_zENCINvNtB12_10punctuated4foldBY_B1w_NtNvCs7oyfuZDlTKn_11yoke_derive16replace_lifetime15ReplaceLifetimeNvYB5q_NtNtNtB12_3gen4fold4Fold16fold_bare_fn_argE0NCINvNtB8_16in_place_collect24write_in_place_with_dropBX_E0E0B4o_EB5u_, symObjAddr: 0x1014, symBinAddr: 0x48F0, symSize: 0x200 }
  - { offset: 0x1329A, size: 0x8, addend: 0x0, symName: __RINvXs3_NtNtCsdze8u8oDPro_5alloc3vec9into_iterINtB6_8IntoIterTNtNtCsATtFUPiRFW_3syn3pat3PatNtNtB12_5token2OrEENtNtNtNtCs9f3LFPSIp77_4core4iter6traits8iterator8Iterator8try_foldINtNtB8_13in_place_drop11InPlaceDropBX_ENCINvNtNtB1Q_8adapters3map12map_try_foldBX_BX_B2O_INtNtB1S_6result6ResultB2O_zENCINvNtB12_10punctuated4foldBY_B1r_NtNvCs7oyfuZDlTKn_11yoke_derive16replace_lifetime15ReplaceLifetimeNvYB5i_NtNtNtB12_3gen4fold4Fold8fold_patE0NCINvNtB8_16in_place_collect24write_in_place_with_dropBX_E0E0B4g_EB5m_, symObjAddr: 0x1214, symBinAddr: 0x4AF0, symSize: 0x200 }
  - { offset: 0x134B6, size: 0x8, addend: 0x0, symName: __RINvXs3_NtNtCsdze8u8oDPro_5alloc3vec9into_iterINtB6_8IntoIterTNtNtCsATtFUPiRFW_3syn3pat3PatNtNtB12_5token5CommaEENtNtNtNtCs9f3LFPSIp77_4core4iter6traits8iterator8Iterator8try_foldINtNtB8_13in_place_drop11InPlaceDropBX_ENCINvNtNtB1T_8adapters3map12map_try_foldBX_BX_B2R_INtNtB1V_6result6ResultB2R_zENCINvNtB12_10punctuated4foldBY_B1r_NtNvCs7oyfuZDlTKn_11yoke_derive16replace_lifetime15ReplaceLifetimeNvYB5l_NtNtNtB12_3gen4fold4Fold8fold_patE0NCINvNtB8_16in_place_collect24write_in_place_with_dropBX_E0E0B4j_EB5p_, symObjAddr: 0x1414, symBinAddr: 0x4CF0, symSize: 0x200 }
  - { offset: 0x136D2, size: 0x8, addend: 0x0, symName: __RINvXs3_NtNtCsdze8u8oDPro_5alloc3vec9into_iterINtB6_8IntoIterTNtNtCsATtFUPiRFW_3syn3pat8FieldPatNtNtB12_5token5CommaEENtNtNtNtCs9f3LFPSIp77_4core4iter6traits8iterator8Iterator8try_foldINtNtB8_13in_place_drop11InPlaceDropBX_ENCINvNtNtB1Y_8adapters3map12map_try_foldBX_BX_B2W_INtNtB20_6result6ResultB2W_zENCINvNtB12_10punctuated4foldBY_B1w_NtNvCs7oyfuZDlTKn_11yoke_derive16replace_lifetime15ReplaceLifetimeNvYB5q_NtNtNtB12_3gen4fold4Fold14fold_field_patE0NCINvNtB8_16in_place_collect24write_in_place_with_dropBX_E0E0B4o_EB5u_, symObjAddr: 0x1614, symBinAddr: 0x4EF0, symSize: 0x200 }
  - { offset: 0x138EE, size: 0x8, addend: 0x0, symName: __RINvXs3_NtNtCsdze8u8oDPro_5alloc3vec9into_iterINtB6_8IntoIterTNtNtCsATtFUPiRFW_3syn4data5FieldNtNtB12_5token5CommaEENtNtNtNtCs9f3LFPSIp77_4core4iter6traits8iterator8Iterator8try_foldINtNtB8_13in_place_drop11InPlaceDropBX_ENCINvNtNtB1W_8adapters3map12map_try_foldBX_BX_B2U_INtNtB1Y_6result6ResultB2U_zENCINvNtB12_10punctuated4foldBY_B1u_NtNvCs7oyfuZDlTKn_11yoke_derive16replace_lifetime15ReplaceLifetimeNvYB5o_NtNtNtB12_3gen4fold4Fold10fold_fieldE0NCINvNtB8_16in_place_collect24write_in_place_with_dropBX_E0E0B4m_EB5s_, symObjAddr: 0x1814, symBinAddr: 0x50F0, symSize: 0x200 }
  - { offset: 0x13B0A, size: 0x8, addend: 0x0, symName: __RINvXs3_NtNtCsdze8u8oDPro_5alloc3vec9into_iterINtB6_8IntoIterTNtNtCsATtFUPiRFW_3syn4data7VariantNtNtB12_5token5CommaEENtNtNtNtCs9f3LFPSIp77_4core4iter6traits8iterator8Iterator8try_foldINtNtB8_13in_place_drop11InPlaceDropBX_ENCINvNtNtB1Y_8adapters3map12map_try_foldBX_BX_B2W_INtNtB20_6result6ResultB2W_zENCINvNtB12_10punctuated4foldBY_B1w_NtNvCs7oyfuZDlTKn_11yoke_derive16replace_lifetime15ReplaceLifetimeNvYB5q_NtNtNtB12_3gen4fold4Fold12fold_variantE0NCINvNtB8_16in_place_collect24write_in_place_with_dropBX_E0E0B4o_EB5u_, symObjAddr: 0x1A14, symBinAddr: 0x52F0, symSize: 0x200 }
  - { offset: 0x13D26, size: 0x8, addend: 0x0, symName: __RINvXs3_NtNtCsdze8u8oDPro_5alloc3vec9into_iterINtB6_8IntoIterTNtNtCsATtFUPiRFW_3syn4expr10FieldValueNtNtB12_5token5CommaEENtNtNtNtCs9f3LFPSIp77_4core4iter6traits8iterator8Iterator8try_foldINtNtB8_13in_place_drop11InPlaceDropBX_ENCINvNtNtB22_8adapters3map12map_try_foldBX_BX_B30_INtNtB24_6result6ResultB30_zENCINvNtB12_10punctuated4foldBY_B1A_NtNvCs7oyfuZDlTKn_11yoke_derive16replace_lifetime15ReplaceLifetimeNvYB5u_NtNtNtB12_3gen4fold4Fold16fold_field_valueE0NCINvNtB8_16in_place_collect24write_in_place_with_dropBX_E0E0B4s_EB5y_, symObjAddr: 0x1C14, symBinAddr: 0x54F0, symSize: 0x200 }
  - { offset: 0x13F42, size: 0x8, addend: 0x0, symName: __RINvXs3_NtNtCsdze8u8oDPro_5alloc3vec9into_iterINtB6_8IntoIterTNtNtCsATtFUPiRFW_3syn4expr4ExprNtNtB12_5token5CommaEENtNtNtNtCs9f3LFPSIp77_4core4iter6traits8iterator8Iterator8try_foldINtNtB8_13in_place_drop11InPlaceDropBX_ENCINvNtNtB1V_8adapters3map12map_try_foldBX_BX_B2T_INtNtB1X_6result6ResultB2T_zENCINvNtB12_10punctuated4foldBY_B1t_NtNvCs7oyfuZDlTKn_11yoke_derive16replace_lifetime15ReplaceLifetimeNvYB5n_NtNtNtB12_3gen4fold4Fold9fold_exprE0NCINvNtB8_16in_place_collect24write_in_place_with_dropBX_E0E0B4l_EB5r_, symObjAddr: 0x1E14, symBinAddr: 0x56F0, symSize: 0x200 }
  - { offset: 0x1415E, size: 0x8, addend: 0x0, symName: __RINvXs3_NtNtCsdze8u8oDPro_5alloc3vec9into_iterINtB6_8IntoIterTNtNtCsATtFUPiRFW_3syn4item5FnArgNtNtB12_5token5CommaEENtNtNtNtCs9f3LFPSIp77_4core4iter6traits8iterator8Iterator8try_foldINtNtB8_13in_place_drop11InPlaceDropBX_ENCINvNtNtB1W_8adapters3map12map_try_foldBX_BX_B2U_INtNtB1Y_6result6ResultB2U_zENCINvNtB12_10punctuated4foldBY_B1u_NtNvCs7oyfuZDlTKn_11yoke_derive16replace_lifetime15ReplaceLifetimeNvYB5o_NtNtNtB12_3gen4fold4Fold11fold_fn_argE0NCINvNtB8_16in_place_collect24write_in_place_with_dropBX_E0E0B4m_EB5s_, symObjAddr: 0x2014, symBinAddr: 0x58F0, symSize: 0x200 }
  - { offset: 0x1437A, size: 0x8, addend: 0x0, symName: __RINvXs3_NtNtCsdze8u8oDPro_5alloc3vec9into_iterINtB6_8IntoIterTNtNtCsATtFUPiRFW_3syn4item7UseTreeNtNtB12_5token5CommaEENtNtNtNtCs9f3LFPSIp77_4core4iter6traits8iterator8Iterator8try_foldINtNtB8_13in_place_drop11InPlaceDropBX_ENCINvNtNtB1Y_8adapters3map12map_try_foldBX_BX_B2W_INtNtB20_6result6ResultB2W_zENCINvNtB12_10punctuated4foldBY_B1w_NtNvCs7oyfuZDlTKn_11yoke_derive16replace_lifetime15ReplaceLifetimeNvYB5q_NtNtNtB12_3gen4fold4Fold13fold_use_treeE0NCINvNtB8_16in_place_collect24write_in_place_with_dropBX_E0E0B4o_EB5u_, symObjAddr: 0x2214, symBinAddr: 0x5AF0, symSize: 0x200 }
  - { offset: 0x14596, size: 0x8, addend: 0x0, symName: __RINvXs3_NtNtCsdze8u8oDPro_5alloc3vec9into_iterINtB6_8IntoIterTNtNtCsATtFUPiRFW_3syn4path11PathSegmentNtNtB12_5token7PathSepEENtNtNtNtCs9f3LFPSIp77_4core4iter6traits8iterator8Iterator8try_foldINtNtB8_13in_place_drop11InPlaceDropBX_ENCINvNtNtB25_8adapters3map12map_try_foldBX_BX_B33_INtNtB27_6result6ResultB33_zENCINvNtB12_10punctuated4foldBY_B1B_NtNvCs7oyfuZDlTKn_11yoke_derive16replace_lifetime15ReplaceLifetimeNvYB5x_NtNtNtB12_3gen4fold4Fold17fold_path_segmentE0NCINvNtB8_16in_place_collect24write_in_place_with_dropBX_E0E0B4v_EB5B_, symObjAddr: 0x2414, symBinAddr: 0x5CF0, symSize: 0x200 }
  - { offset: 0x147B2, size: 0x8, addend: 0x0, symName: __RINvXs3_NtNtCsdze8u8oDPro_5alloc3vec9into_iterINtB6_8IntoIterTNtNtCsATtFUPiRFW_3syn4path15GenericArgumentNtNtB12_5token5CommaEENtNtNtNtCs9f3LFPSIp77_4core4iter6traits8iterator8Iterator8try_foldINtNtB8_13in_place_drop11InPlaceDropBX_ENCINvNtNtB27_8adapters3map12map_try_foldBX_BX_B35_INtNtB29_6result6ResultB35_zENCINvNtB12_10punctuated4foldBY_B1F_NtNvCs7oyfuZDlTKn_11yoke_derive16replace_lifetime15ReplaceLifetimeNvYB5z_NtNtNtB12_3gen4fold4Fold21fold_generic_argumentE0NCINvNtB8_16in_place_collect24write_in_place_with_dropBX_E0E0B4x_EB5D_, symObjAddr: 0x2614, symBinAddr: 0x5EF0, symSize: 0x200 }
  - { offset: 0x149CE, size: 0x8, addend: 0x0, symName: __RINvXs3_NtNtCsdze8u8oDPro_5alloc3vec9into_iterINtB6_8IntoIterTNtNtCsATtFUPiRFW_3syn8generics12GenericParamNtNtB12_5token5CommaEENtNtNtNtCs9f3LFPSIp77_4core4iter6traits8iterator8Iterator8try_foldINtNtB8_13in_place_drop11InPlaceDropBX_ENCINvNtNtB28_8adapters3map12map_try_foldBX_BX_B36_INtNtB2a_6result6ResultB36_zENCINvNtB12_10punctuated4foldBY_B1G_NtNvCs7oyfuZDlTKn_11yoke_derive16replace_lifetime15ReplaceLifetimeNvYB5A_NtNtNtB12_3gen4fold4Fold18fold_generic_paramE0NCINvNtB8_16in_place_collect24write_in_place_with_dropBX_E0E0B4y_EB5E_, symObjAddr: 0x2814, symBinAddr: 0x60F0, symSize: 0x204 }
  - { offset: 0x14BEA, size: 0x8, addend: 0x0, symName: __RINvXs3_NtNtCsdze8u8oDPro_5alloc3vec9into_iterINtB6_8IntoIterTNtNtCsATtFUPiRFW_3syn8generics13CapturedParamNtNtB12_5token5CommaEENtNtNtNtCs9f3LFPSIp77_4core4iter6traits8iterator8Iterator8try_foldINtNtB8_13in_place_drop11InPlaceDropBX_ENCINvNtNtB29_8adapters3map12map_try_foldBX_BX_B37_INtNtB2b_6result6ResultB37_zENCINvNtB12_10punctuated4foldBY_B1H_NtNvCs7oyfuZDlTKn_11yoke_derive16replace_lifetime15ReplaceLifetimeNvYB5B_NtNtNtB12_3gen4fold4Fold19fold_captured_paramE0NCINvNtB8_16in_place_collect24write_in_place_with_dropBX_E0E0B4z_EB5F_, symObjAddr: 0x2A18, symBinAddr: 0x62F4, symSize: 0x200 }
  - { offset: 0x14E06, size: 0x8, addend: 0x0, symName: __RINvXs3_NtNtCsdze8u8oDPro_5alloc3vec9into_iterINtB6_8IntoIterTNtNtCsATtFUPiRFW_3syn8generics14TypeParamBoundNtNtB12_5token4PlusEENtNtNtNtCs9f3LFPSIp77_4core4iter6traits8iterator8Iterator8try_foldINtNtB8_13in_place_drop11InPlaceDropBX_ENCINvNtNtB29_8adapters3map12map_try_foldBX_BX_B37_INtNtB2b_6result6ResultB37_zENCINvNtB12_10punctuated4foldBY_B1I_NtNvCs7oyfuZDlTKn_11yoke_derive16replace_lifetime15ReplaceLifetimeNvYB5B_NtNtNtB12_3gen4fold4Fold21fold_type_param_boundE0NCINvNtB8_16in_place_collect24write_in_place_with_dropBX_E0E0B4z_EB5F_, symObjAddr: 0x2C18, symBinAddr: 0x64F4, symSize: 0x200 }
  - { offset: 0x15022, size: 0x8, addend: 0x0, symName: __RINvXs3_NtNtCsdze8u8oDPro_5alloc3vec9into_iterINtB6_8IntoIterTNtNtCsATtFUPiRFW_3syn8generics14WherePredicateNtNtB12_5token5CommaEENtNtNtNtCs9f3LFPSIp77_4core4iter6traits8iterator8Iterator8try_foldINtNtB8_13in_place_drop11InPlaceDropBX_ENCINvNtNtB2a_8adapters3map12map_try_foldBX_BX_B38_INtNtB2c_6result6ResultB38_zENCINvNtB12_10punctuated4foldBY_B1I_NtNvCs7oyfuZDlTKn_11yoke_derive16replace_lifetime15ReplaceLifetimeNvYB5C_NtNtNtB12_3gen4fold4Fold20fold_where_predicateE0NCINvNtB8_16in_place_collect24write_in_place_with_dropBX_E0E0B4A_EB5G_, symObjAddr: 0x2E18, symBinAddr: 0x66F4, symSize: 0x200 }
  - { offset: 0x1523E, size: 0x8, addend: 0x0, symName: __RINvXs3_NtNtCsdze8u8oDPro_5alloc3vec9into_iterINtB6_8IntoIterTNtNtCsATtFUPiRFW_3syn8lifetime8LifetimeNtNtB12_5token4PlusEENtNtNtNtCs9f3LFPSIp77_4core4iter6traits8iterator8Iterator8try_foldINtNtB8_13in_place_drop11InPlaceDropBX_ENCINvNtNtB22_8adapters3map12map_try_foldBX_BX_B30_INtNtB24_6result6ResultB30_zENCINvNtB12_10punctuated4foldBY_B1B_NtNvCs7oyfuZDlTKn_11yoke_derive16replace_lifetime15ReplaceLifetimeNvYB5u_NtNtNtB12_3gen4fold4Fold13fold_lifetimeE0NCINvNtB8_16in_place_collect24write_in_place_with_dropBX_E0E0B4s_EB5y_, symObjAddr: 0x3018, symBinAddr: 0x68F4, symSize: 0x200 }
  - { offset: 0x1545A, size: 0x8, addend: 0x0, symName: __RNvXs3_NtNtCsdze8u8oDPro_5alloc3vec9into_iterINtB5_8IntoIterNtNtCsATtFUPiRFW_3syn4expr3ArmENtNtNtNtCs9f3LFPSIp77_4core4iter6traits8iterator8Iterator9size_hintCs7oyfuZDlTKn_11yoke_derive, symObjAddr: 0x55DC, symBinAddr: 0x8EB8, symSize: 0xB8 }
  - { offset: 0x1552B, size: 0x8, addend: 0x0, symName: __RNvXs3_NtNtCsdze8u8oDPro_5alloc3vec9into_iterINtB5_8IntoIterNtNtCsATtFUPiRFW_3syn4item11ForeignItemENtNtNtNtCs9f3LFPSIp77_4core4iter6traits8iterator8Iterator9size_hintCs7oyfuZDlTKn_11yoke_derive, symObjAddr: 0x5694, symBinAddr: 0x8F70, symSize: 0xB8 }
  - { offset: 0x155FC, size: 0x8, addend: 0x0, symName: __RNvXs3_NtNtCsdze8u8oDPro_5alloc3vec9into_iterINtB5_8IntoIterNtNtCsATtFUPiRFW_3syn4item4ItemENtNtNtNtCs9f3LFPSIp77_4core4iter6traits8iterator8Iterator9size_hintCs7oyfuZDlTKn_11yoke_derive, symObjAddr: 0x574C, symBinAddr: 0x9028, symSize: 0xB8 }
  - { offset: 0x156CD, size: 0x8, addend: 0x0, symName: __RNvXs3_NtNtCsdze8u8oDPro_5alloc3vec9into_iterINtB5_8IntoIterNtNtCsATtFUPiRFW_3syn4item8ImplItemENtNtNtNtCs9f3LFPSIp77_4core4iter6traits8iterator8Iterator9size_hintCs7oyfuZDlTKn_11yoke_derive, symObjAddr: 0x5804, symBinAddr: 0x90E0, symSize: 0xB8 }
  - { offset: 0x1579E, size: 0x8, addend: 0x0, symName: __RNvXs3_NtNtCsdze8u8oDPro_5alloc3vec9into_iterINtB5_8IntoIterNtNtCsATtFUPiRFW_3syn4item9TraitItemENtNtNtNtCs9f3LFPSIp77_4core4iter6traits8iterator8Iterator9size_hintCs7oyfuZDlTKn_11yoke_derive, symObjAddr: 0x58BC, symBinAddr: 0x9198, symSize: 0xB8 }
  - { offset: 0x1586F, size: 0x8, addend: 0x0, symName: __RNvXs3_NtNtCsdze8u8oDPro_5alloc3vec9into_iterINtB5_8IntoIterNtNtCsATtFUPiRFW_3syn4stmt4StmtENtNtNtNtCs9f3LFPSIp77_4core4iter6traits8iterator8Iterator9size_hintCs7oyfuZDlTKn_11yoke_derive, symObjAddr: 0x5974, symBinAddr: 0x9250, symSize: 0xB8 }
  - { offset: 0x15940, size: 0x8, addend: 0x0, symName: __RNvXs3_NtNtCsdze8u8oDPro_5alloc3vec9into_iterINtB5_8IntoIterTNtNtCsATtFUPiRFW_3syn2ty4TypeNtNtB11_5token5CommaEENtNtNtNtCs9f3LFPSIp77_4core4iter6traits8iterator8Iterator9size_hintCs7oyfuZDlTKn_11yoke_derive, symObjAddr: 0x5A2C, symBinAddr: 0x9308, symSize: 0xB8 }
  - { offset: 0x15A11, size: 0x8, addend: 0x0, symName: __RNvXs3_NtNtCsdze8u8oDPro_5alloc3vec9into_iterINtB5_8IntoIterTNtNtCsATtFUPiRFW_3syn2ty9BareFnArgNtNtB11_5token5CommaEENtNtNtNtCs9f3LFPSIp77_4core4iter6traits8iterator8Iterator9size_hintCs7oyfuZDlTKn_11yoke_derive, symObjAddr: 0x5AE4, symBinAddr: 0x93C0, symSize: 0xB8 }
  - { offset: 0x15AE2, size: 0x8, addend: 0x0, symName: __RNvXs3_NtNtCsdze8u8oDPro_5alloc3vec9into_iterINtB5_8IntoIterTNtNtCsATtFUPiRFW_3syn3pat3PatNtNtB11_5token2OrEENtNtNtNtCs9f3LFPSIp77_4core4iter6traits8iterator8Iterator9size_hintCs7oyfuZDlTKn_11yoke_derive, symObjAddr: 0x5B9C, symBinAddr: 0x9478, symSize: 0xB8 }
  - { offset: 0x15BB3, size: 0x8, addend: 0x0, symName: __RNvXs3_NtNtCsdze8u8oDPro_5alloc3vec9into_iterINtB5_8IntoIterTNtNtCsATtFUPiRFW_3syn3pat3PatNtNtB11_5token5CommaEENtNtNtNtCs9f3LFPSIp77_4core4iter6traits8iterator8Iterator9size_hintCs7oyfuZDlTKn_11yoke_derive, symObjAddr: 0x5C54, symBinAddr: 0x9530, symSize: 0xB8 }
  - { offset: 0x15C84, size: 0x8, addend: 0x0, symName: __RNvXs3_NtNtCsdze8u8oDPro_5alloc3vec9into_iterINtB5_8IntoIterTNtNtCsATtFUPiRFW_3syn3pat8FieldPatNtNtB11_5token5CommaEENtNtNtNtCs9f3LFPSIp77_4core4iter6traits8iterator8Iterator9size_hintCs7oyfuZDlTKn_11yoke_derive, symObjAddr: 0x5D0C, symBinAddr: 0x95E8, symSize: 0xB8 }
  - { offset: 0x15D55, size: 0x8, addend: 0x0, symName: __RNvXs3_NtNtCsdze8u8oDPro_5alloc3vec9into_iterINtB5_8IntoIterTNtNtCsATtFUPiRFW_3syn4data7VariantNtNtB11_5token5CommaEENtNtNtNtCs9f3LFPSIp77_4core4iter6traits8iterator8Iterator9size_hintCs7oyfuZDlTKn_11yoke_derive, symObjAddr: 0x5DC4, symBinAddr: 0x96A0, symSize: 0xB8 }
  - { offset: 0x15E26, size: 0x8, addend: 0x0, symName: __RNvXs3_NtNtCsdze8u8oDPro_5alloc3vec9into_iterINtB5_8IntoIterTNtNtCsATtFUPiRFW_3syn4expr10FieldValueNtNtB11_5token5CommaEENtNtNtNtCs9f3LFPSIp77_4core4iter6traits8iterator8Iterator9size_hintCs7oyfuZDlTKn_11yoke_derive, symObjAddr: 0x5E7C, symBinAddr: 0x9758, symSize: 0xB8 }
  - { offset: 0x15EF7, size: 0x8, addend: 0x0, symName: __RNvXs3_NtNtCsdze8u8oDPro_5alloc3vec9into_iterINtB5_8IntoIterTNtNtCsATtFUPiRFW_3syn4expr4ExprNtNtB11_5token5CommaEENtNtNtNtCs9f3LFPSIp77_4core4iter6traits8iterator8Iterator9size_hintCs7oyfuZDlTKn_11yoke_derive, symObjAddr: 0x5F34, symBinAddr: 0x9810, symSize: 0xB8 }
  - { offset: 0x15FC8, size: 0x8, addend: 0x0, symName: __RNvXs3_NtNtCsdze8u8oDPro_5alloc3vec9into_iterINtB5_8IntoIterTNtNtCsATtFUPiRFW_3syn4item5FnArgNtNtB11_5token5CommaEENtNtNtNtCs9f3LFPSIp77_4core4iter6traits8iterator8Iterator9size_hintCs7oyfuZDlTKn_11yoke_derive, symObjAddr: 0x5FEC, symBinAddr: 0x98C8, symSize: 0xB8 }
  - { offset: 0x16099, size: 0x8, addend: 0x0, symName: __RNvXs3_NtNtCsdze8u8oDPro_5alloc3vec9into_iterINtB5_8IntoIterTNtNtCsATtFUPiRFW_3syn4item7UseTreeNtNtB11_5token5CommaEENtNtNtNtCs9f3LFPSIp77_4core4iter6traits8iterator8Iterator9size_hintCs7oyfuZDlTKn_11yoke_derive, symObjAddr: 0x60A4, symBinAddr: 0x9980, symSize: 0xB8 }
  - { offset: 0x1616A, size: 0x8, addend: 0x0, symName: __RNvXs3_NtNtCsdze8u8oDPro_5alloc3vec9into_iterINtB5_8IntoIterTNtNtCsATtFUPiRFW_3syn4path15GenericArgumentNtNtB11_5token5CommaEENtNtNtNtCs9f3LFPSIp77_4core4iter6traits8iterator8Iterator9size_hintCs7oyfuZDlTKn_11yoke_derive, symObjAddr: 0x615C, symBinAddr: 0x9A38, symSize: 0xB8 }
  - { offset: 0x1623B, size: 0x8, addend: 0x0, symName: __RNvXs3_NtNtCsdze8u8oDPro_5alloc3vec9into_iterINtB5_8IntoIterTNtNtCsATtFUPiRFW_3syn8generics12GenericParamNtNtB11_5token5CommaEENtNtNtNtCs9f3LFPSIp77_4core4iter6traits8iterator8Iterator9size_hintCs7oyfuZDlTKn_11yoke_derive, symObjAddr: 0x6214, symBinAddr: 0x9AF0, symSize: 0xB8 }
  - { offset: 0x1630C, size: 0x8, addend: 0x0, symName: __RNvXs3_NtNtCsdze8u8oDPro_5alloc3vec9into_iterINtB5_8IntoIterTNtNtCsATtFUPiRFW_3syn8generics13CapturedParamNtNtB11_5token5CommaEENtNtNtNtCs9f3LFPSIp77_4core4iter6traits8iterator8Iterator9size_hintCs7oyfuZDlTKn_11yoke_derive, symObjAddr: 0x62CC, symBinAddr: 0x9BA8, symSize: 0xB8 }
  - { offset: 0x163DD, size: 0x8, addend: 0x0, symName: __RNvXs3_NtNtCsdze8u8oDPro_5alloc3vec9into_iterINtB5_8IntoIterTNtNtCsATtFUPiRFW_3syn8generics14WherePredicateNtNtB11_5token5CommaEENtNtNtNtCs9f3LFPSIp77_4core4iter6traits8iterator8Iterator9size_hintCs7oyfuZDlTKn_11yoke_derive, symObjAddr: 0x6384, symBinAddr: 0x9C60, symSize: 0xB8 }
  - { offset: 0x164AE, size: 0x8, addend: 0x0, symName: __RNvXs3_NtNtCsdze8u8oDPro_5alloc3vec9into_iterINtB5_8IntoIterTNtNtCsATtFUPiRFW_3syn8lifetime8LifetimeNtNtB11_5token4PlusEENtNtNtNtCs9f3LFPSIp77_4core4iter6traits8iterator8Iterator9size_hintCs7oyfuZDlTKn_11yoke_derive, symObjAddr: 0x643C, symBinAddr: 0x9D18, symSize: 0xB8 }
  - { offset: 0x17674, size: 0x8, addend: 0x0, symName: __RNvXNvXsd_NtNtCsdze8u8oDPro_5alloc3vec9into_iterINtB8_8IntoIterppENtNtNtCs9f3LFPSIp77_4core3ops4drop4Drop4dropINtB2_9DropGuardNtNtCsATtFUPiRFW_3syn4expr3ArmNtNtBc_5alloc6GlobalEB12_4dropCs7oyfuZDlTKn_11yoke_derive, symObjAddr: 0x4AB4, symBinAddr: 0x8390, symSize: 0x88 }
  - { offset: 0x17781, size: 0x8, addend: 0x0, symName: __RNvXNvXsd_NtNtCsdze8u8oDPro_5alloc3vec9into_iterINtB8_8IntoIterppENtNtNtCs9f3LFPSIp77_4core3ops4drop4Drop4dropINtB2_9DropGuardNtNtCsATtFUPiRFW_3syn4item11ForeignItemNtNtBc_5alloc6GlobalEB12_4dropCs7oyfuZDlTKn_11yoke_derive, symObjAddr: 0x4B3C, symBinAddr: 0x8418, symSize: 0x88 }
  - { offset: 0x1788E, size: 0x8, addend: 0x0, symName: __RNvXNvXsd_NtNtCsdze8u8oDPro_5alloc3vec9into_iterINtB8_8IntoIterppENtNtNtCs9f3LFPSIp77_4core3ops4drop4Drop4dropINtB2_9DropGuardNtNtCsATtFUPiRFW_3syn4item4ItemNtNtBc_5alloc6GlobalEB12_4dropCs7oyfuZDlTKn_11yoke_derive, symObjAddr: 0x4BC4, symBinAddr: 0x84A0, symSize: 0x88 }
  - { offset: 0x1799B, size: 0x8, addend: 0x0, symName: __RNvXNvXsd_NtNtCsdze8u8oDPro_5alloc3vec9into_iterINtB8_8IntoIterppENtNtNtCs9f3LFPSIp77_4core3ops4drop4Drop4dropINtB2_9DropGuardNtNtCsATtFUPiRFW_3syn4item8ImplItemNtNtBc_5alloc6GlobalEB12_4dropCs7oyfuZDlTKn_11yoke_derive, symObjAddr: 0x4C4C, symBinAddr: 0x8528, symSize: 0x88 }
  - { offset: 0x17AA8, size: 0x8, addend: 0x0, symName: __RNvXNvXsd_NtNtCsdze8u8oDPro_5alloc3vec9into_iterINtB8_8IntoIterppENtNtNtCs9f3LFPSIp77_4core3ops4drop4Drop4dropINtB2_9DropGuardNtNtCsATtFUPiRFW_3syn4item9TraitItemNtNtBc_5alloc6GlobalEB12_4dropCs7oyfuZDlTKn_11yoke_derive, symObjAddr: 0x4CD4, symBinAddr: 0x85B0, symSize: 0x88 }
  - { offset: 0x17BB5, size: 0x8, addend: 0x0, symName: __RNvXNvXsd_NtNtCsdze8u8oDPro_5alloc3vec9into_iterINtB8_8IntoIterppENtNtNtCs9f3LFPSIp77_4core3ops4drop4Drop4dropINtB2_9DropGuardNtNtCsATtFUPiRFW_3syn4stmt4StmtNtNtBc_5alloc6GlobalEB12_4dropCs7oyfuZDlTKn_11yoke_derive, symObjAddr: 0x4D5C, symBinAddr: 0x8638, symSize: 0x88 }
  - { offset: 0x17CC2, size: 0x8, addend: 0x0, symName: __RNvXNvXsd_NtNtCsdze8u8oDPro_5alloc3vec9into_iterINtB8_8IntoIterppENtNtNtCs9f3LFPSIp77_4core3ops4drop4Drop4dropINtB2_9DropGuardTNtNtCsATtFUPiRFW_3syn2ty4TypeNtNtB25_5token5CommaENtNtBc_5alloc6GlobalEB12_4dropCs7oyfuZDlTKn_11yoke_derive, symObjAddr: 0x4DE4, symBinAddr: 0x86C0, symSize: 0x88 }
  - { offset: 0x17DCF, size: 0x8, addend: 0x0, symName: __RNvXNvXsd_NtNtCsdze8u8oDPro_5alloc3vec9into_iterINtB8_8IntoIterppENtNtNtCs9f3LFPSIp77_4core3ops4drop4Drop4dropINtB2_9DropGuardTNtNtCsATtFUPiRFW_3syn2ty9BareFnArgNtNtB25_5token5CommaENtNtBc_5alloc6GlobalEB12_4dropCs7oyfuZDlTKn_11yoke_derive, symObjAddr: 0x4E6C, symBinAddr: 0x8748, symSize: 0x88 }
  - { offset: 0x17EDC, size: 0x8, addend: 0x0, symName: __RNvXNvXsd_NtNtCsdze8u8oDPro_5alloc3vec9into_iterINtB8_8IntoIterppENtNtNtCs9f3LFPSIp77_4core3ops4drop4Drop4dropINtB2_9DropGuardTNtNtCsATtFUPiRFW_3syn3pat3PatNtNtB25_5token2OrENtNtBc_5alloc6GlobalEB12_4dropCs7oyfuZDlTKn_11yoke_derive, symObjAddr: 0x4EF4, symBinAddr: 0x87D0, symSize: 0x88 }
  - { offset: 0x17FE9, size: 0x8, addend: 0x0, symName: __RNvXNvXsd_NtNtCsdze8u8oDPro_5alloc3vec9into_iterINtB8_8IntoIterppENtNtNtCs9f3LFPSIp77_4core3ops4drop4Drop4dropINtB2_9DropGuardTNtNtCsATtFUPiRFW_3syn3pat3PatNtNtB25_5token5CommaENtNtBc_5alloc6GlobalEB12_4dropCs7oyfuZDlTKn_11yoke_derive, symObjAddr: 0x4F7C, symBinAddr: 0x8858, symSize: 0x88 }
  - { offset: 0x180F6, size: 0x8, addend: 0x0, symName: __RNvXNvXsd_NtNtCsdze8u8oDPro_5alloc3vec9into_iterINtB8_8IntoIterppENtNtNtCs9f3LFPSIp77_4core3ops4drop4Drop4dropINtB2_9DropGuardTNtNtCsATtFUPiRFW_3syn3pat8FieldPatNtNtB25_5token5CommaENtNtBc_5alloc6GlobalEB12_4dropCs7oyfuZDlTKn_11yoke_derive, symObjAddr: 0x5004, symBinAddr: 0x88E0, symSize: 0x88 }
  - { offset: 0x18203, size: 0x8, addend: 0x0, symName: __RNvXNvXsd_NtNtCsdze8u8oDPro_5alloc3vec9into_iterINtB8_8IntoIterppENtNtNtCs9f3LFPSIp77_4core3ops4drop4Drop4dropINtB2_9DropGuardTNtNtCsATtFUPiRFW_3syn4data7VariantNtNtB25_5token5CommaENtNtBc_5alloc6GlobalEB12_4dropCs7oyfuZDlTKn_11yoke_derive, symObjAddr: 0x508C, symBinAddr: 0x8968, symSize: 0x88 }
  - { offset: 0x18310, size: 0x8, addend: 0x0, symName: __RNvXNvXsd_NtNtCsdze8u8oDPro_5alloc3vec9into_iterINtB8_8IntoIterppENtNtNtCs9f3LFPSIp77_4core3ops4drop4Drop4dropINtB2_9DropGuardTNtNtCsATtFUPiRFW_3syn4expr10FieldValueNtNtB25_5token5CommaENtNtBc_5alloc6GlobalEB12_4dropCs7oyfuZDlTKn_11yoke_derive, symObjAddr: 0x5114, symBinAddr: 0x89F0, symSize: 0x88 }
  - { offset: 0x1841D, size: 0x8, addend: 0x0, symName: __RNvXNvXsd_NtNtCsdze8u8oDPro_5alloc3vec9into_iterINtB8_8IntoIterppENtNtNtCs9f3LFPSIp77_4core3ops4drop4Drop4dropINtB2_9DropGuardTNtNtCsATtFUPiRFW_3syn4expr4ExprNtNtB25_5token5CommaENtNtBc_5alloc6GlobalEB12_4dropCs7oyfuZDlTKn_11yoke_derive, symObjAddr: 0x519C, symBinAddr: 0x8A78, symSize: 0x88 }
  - { offset: 0x1852A, size: 0x8, addend: 0x0, symName: __RNvXNvXsd_NtNtCsdze8u8oDPro_5alloc3vec9into_iterINtB8_8IntoIterppENtNtNtCs9f3LFPSIp77_4core3ops4drop4Drop4dropINtB2_9DropGuardTNtNtCsATtFUPiRFW_3syn4item5FnArgNtNtB25_5token5CommaENtNtBc_5alloc6GlobalEB12_4dropCs7oyfuZDlTKn_11yoke_derive, symObjAddr: 0x5224, symBinAddr: 0x8B00, symSize: 0x88 }
  - { offset: 0x18637, size: 0x8, addend: 0x0, symName: __RNvXNvXsd_NtNtCsdze8u8oDPro_5alloc3vec9into_iterINtB8_8IntoIterppENtNtNtCs9f3LFPSIp77_4core3ops4drop4Drop4dropINtB2_9DropGuardTNtNtCsATtFUPiRFW_3syn4item7UseTreeNtNtB25_5token5CommaENtNtBc_5alloc6GlobalEB12_4dropCs7oyfuZDlTKn_11yoke_derive, symObjAddr: 0x52AC, symBinAddr: 0x8B88, symSize: 0x88 }
  - { offset: 0x18744, size: 0x8, addend: 0x0, symName: __RNvXNvXsd_NtNtCsdze8u8oDPro_5alloc3vec9into_iterINtB8_8IntoIterppENtNtNtCs9f3LFPSIp77_4core3ops4drop4Drop4dropINtB2_9DropGuardTNtNtCsATtFUPiRFW_3syn4path15GenericArgumentNtNtB25_5token5CommaENtNtBc_5alloc6GlobalEB12_4dropCs7oyfuZDlTKn_11yoke_derive, symObjAddr: 0x5334, symBinAddr: 0x8C10, symSize: 0x88 }
  - { offset: 0x18851, size: 0x8, addend: 0x0, symName: __RNvXNvXsd_NtNtCsdze8u8oDPro_5alloc3vec9into_iterINtB8_8IntoIterppENtNtNtCs9f3LFPSIp77_4core3ops4drop4Drop4dropINtB2_9DropGuardTNtNtCsATtFUPiRFW_3syn8generics12GenericParamNtNtB25_5token5CommaENtNtBc_5alloc6GlobalEB12_4dropCs7oyfuZDlTKn_11yoke_derive, symObjAddr: 0x53BC, symBinAddr: 0x8C98, symSize: 0x88 }
  - { offset: 0x1895E, size: 0x8, addend: 0x0, symName: __RNvXNvXsd_NtNtCsdze8u8oDPro_5alloc3vec9into_iterINtB8_8IntoIterppENtNtNtCs9f3LFPSIp77_4core3ops4drop4Drop4dropINtB2_9DropGuardTNtNtCsATtFUPiRFW_3syn8generics13CapturedParamNtNtB25_5token5CommaENtNtBc_5alloc6GlobalEB12_4dropCs7oyfuZDlTKn_11yoke_derive, symObjAddr: 0x5444, symBinAddr: 0x8D20, symSize: 0x88 }
  - { offset: 0x18A6B, size: 0x8, addend: 0x0, symName: __RNvXNvXsd_NtNtCsdze8u8oDPro_5alloc3vec9into_iterINtB8_8IntoIterppENtNtNtCs9f3LFPSIp77_4core3ops4drop4Drop4dropINtB2_9DropGuardTNtNtCsATtFUPiRFW_3syn8generics14WherePredicateNtNtB25_5token5CommaENtNtBc_5alloc6GlobalEB12_4dropCs7oyfuZDlTKn_11yoke_derive, symObjAddr: 0x54CC, symBinAddr: 0x8DA8, symSize: 0x88 }
  - { offset: 0x18B78, size: 0x8, addend: 0x0, symName: __RNvXNvXsd_NtNtCsdze8u8oDPro_5alloc3vec9into_iterINtB8_8IntoIterppENtNtNtCs9f3LFPSIp77_4core3ops4drop4Drop4dropINtB2_9DropGuardTNtNtCsATtFUPiRFW_3syn8lifetime8LifetimeNtNtB25_5token4PlusENtNtBc_5alloc6GlobalEB12_4dropCs7oyfuZDlTKn_11yoke_derive, symObjAddr: 0x5554, symBinAddr: 0x8E30, symSize: 0x88 }
  - { offset: 0x18FBA, size: 0x8, addend: 0x0, symName: __RNvXsd_NtNtCsdze8u8oDPro_5alloc3vec9into_iterINtB5_8IntoIterNtNtCsATtFUPiRFW_3syn4expr3ArmENtNtNtCs9f3LFPSIp77_4core3ops4drop4Drop4dropCs7oyfuZDlTKn_11yoke_derive, symObjAddr: 0x64F4, symBinAddr: 0x9DD0, symSize: 0x98 }
  - { offset: 0x19054, size: 0x8, addend: 0x0, symName: __RNvXsd_NtNtCsdze8u8oDPro_5alloc3vec9into_iterINtB5_8IntoIterNtNtCsATtFUPiRFW_3syn4item11ForeignItemENtNtNtCs9f3LFPSIp77_4core3ops4drop4Drop4dropCs7oyfuZDlTKn_11yoke_derive, symObjAddr: 0x658C, symBinAddr: 0x9E68, symSize: 0x98 }
  - { offset: 0x190EE, size: 0x8, addend: 0x0, symName: __RNvXsd_NtNtCsdze8u8oDPro_5alloc3vec9into_iterINtB5_8IntoIterNtNtCsATtFUPiRFW_3syn4item4ItemENtNtNtCs9f3LFPSIp77_4core3ops4drop4Drop4dropCs7oyfuZDlTKn_11yoke_derive, symObjAddr: 0x6624, symBinAddr: 0x9F00, symSize: 0x98 }
  - { offset: 0x19188, size: 0x8, addend: 0x0, symName: __RNvXsd_NtNtCsdze8u8oDPro_5alloc3vec9into_iterINtB5_8IntoIterNtNtCsATtFUPiRFW_3syn4item8ImplItemENtNtNtCs9f3LFPSIp77_4core3ops4drop4Drop4dropCs7oyfuZDlTKn_11yoke_derive, symObjAddr: 0x66BC, symBinAddr: 0x9F98, symSize: 0x98 }
  - { offset: 0x19222, size: 0x8, addend: 0x0, symName: __RNvXsd_NtNtCsdze8u8oDPro_5alloc3vec9into_iterINtB5_8IntoIterNtNtCsATtFUPiRFW_3syn4item9TraitItemENtNtNtCs9f3LFPSIp77_4core3ops4drop4Drop4dropCs7oyfuZDlTKn_11yoke_derive, symObjAddr: 0x6754, symBinAddr: 0xA030, symSize: 0x98 }
  - { offset: 0x192BC, size: 0x8, addend: 0x0, symName: __RNvXsd_NtNtCsdze8u8oDPro_5alloc3vec9into_iterINtB5_8IntoIterNtNtCsATtFUPiRFW_3syn4stmt4StmtENtNtNtCs9f3LFPSIp77_4core3ops4drop4Drop4dropCs7oyfuZDlTKn_11yoke_derive, symObjAddr: 0x67EC, symBinAddr: 0xA0C8, symSize: 0x98 }
  - { offset: 0x19356, size: 0x8, addend: 0x0, symName: __RNvXsd_NtNtCsdze8u8oDPro_5alloc3vec9into_iterINtB5_8IntoIterTNtNtCsATtFUPiRFW_3syn2ty4TypeNtNtB11_5token5CommaEENtNtNtCs9f3LFPSIp77_4core3ops4drop4Drop4dropCs7oyfuZDlTKn_11yoke_derive, symObjAddr: 0x6884, symBinAddr: 0xA160, symSize: 0x98 }
  - { offset: 0x193F0, size: 0x8, addend: 0x0, symName: __RNvXsd_NtNtCsdze8u8oDPro_5alloc3vec9into_iterINtB5_8IntoIterTNtNtCsATtFUPiRFW_3syn2ty9BareFnArgNtNtB11_5token5CommaEENtNtNtCs9f3LFPSIp77_4core3ops4drop4Drop4dropCs7oyfuZDlTKn_11yoke_derive, symObjAddr: 0x691C, symBinAddr: 0xA1F8, symSize: 0x98 }
  - { offset: 0x1948A, size: 0x8, addend: 0x0, symName: __RNvXsd_NtNtCsdze8u8oDPro_5alloc3vec9into_iterINtB5_8IntoIterTNtNtCsATtFUPiRFW_3syn3pat3PatNtNtB11_5token2OrEENtNtNtCs9f3LFPSIp77_4core3ops4drop4Drop4dropCs7oyfuZDlTKn_11yoke_derive, symObjAddr: 0x69B4, symBinAddr: 0xA290, symSize: 0x98 }
  - { offset: 0x19524, size: 0x8, addend: 0x0, symName: __RNvXsd_NtNtCsdze8u8oDPro_5alloc3vec9into_iterINtB5_8IntoIterTNtNtCsATtFUPiRFW_3syn3pat3PatNtNtB11_5token5CommaEENtNtNtCs9f3LFPSIp77_4core3ops4drop4Drop4dropCs7oyfuZDlTKn_11yoke_derive, symObjAddr: 0x6A4C, symBinAddr: 0xA328, symSize: 0x98 }
  - { offset: 0x195BE, size: 0x8, addend: 0x0, symName: __RNvXsd_NtNtCsdze8u8oDPro_5alloc3vec9into_iterINtB5_8IntoIterTNtNtCsATtFUPiRFW_3syn3pat8FieldPatNtNtB11_5token5CommaEENtNtNtCs9f3LFPSIp77_4core3ops4drop4Drop4dropCs7oyfuZDlTKn_11yoke_derive, symObjAddr: 0x6AE4, symBinAddr: 0xA3C0, symSize: 0x98 }
  - { offset: 0x19658, size: 0x8, addend: 0x0, symName: __RNvXsd_NtNtCsdze8u8oDPro_5alloc3vec9into_iterINtB5_8IntoIterTNtNtCsATtFUPiRFW_3syn4data7VariantNtNtB11_5token5CommaEENtNtNtCs9f3LFPSIp77_4core3ops4drop4Drop4dropCs7oyfuZDlTKn_11yoke_derive, symObjAddr: 0x6B7C, symBinAddr: 0xA458, symSize: 0x98 }
  - { offset: 0x196F2, size: 0x8, addend: 0x0, symName: __RNvXsd_NtNtCsdze8u8oDPro_5alloc3vec9into_iterINtB5_8IntoIterTNtNtCsATtFUPiRFW_3syn4expr10FieldValueNtNtB11_5token5CommaEENtNtNtCs9f3LFPSIp77_4core3ops4drop4Drop4dropCs7oyfuZDlTKn_11yoke_derive, symObjAddr: 0x6C14, symBinAddr: 0xA4F0, symSize: 0x98 }
  - { offset: 0x1978C, size: 0x8, addend: 0x0, symName: __RNvXsd_NtNtCsdze8u8oDPro_5alloc3vec9into_iterINtB5_8IntoIterTNtNtCsATtFUPiRFW_3syn4expr4ExprNtNtB11_5token5CommaEENtNtNtCs9f3LFPSIp77_4core3ops4drop4Drop4dropCs7oyfuZDlTKn_11yoke_derive, symObjAddr: 0x6CAC, symBinAddr: 0xA588, symSize: 0x98 }
  - { offset: 0x19826, size: 0x8, addend: 0x0, symName: __RNvXsd_NtNtCsdze8u8oDPro_5alloc3vec9into_iterINtB5_8IntoIterTNtNtCsATtFUPiRFW_3syn4item5FnArgNtNtB11_5token5CommaEENtNtNtCs9f3LFPSIp77_4core3ops4drop4Drop4dropCs7oyfuZDlTKn_11yoke_derive, symObjAddr: 0x6D44, symBinAddr: 0xA620, symSize: 0x98 }
  - { offset: 0x198C0, size: 0x8, addend: 0x0, symName: __RNvXsd_NtNtCsdze8u8oDPro_5alloc3vec9into_iterINtB5_8IntoIterTNtNtCsATtFUPiRFW_3syn4item7UseTreeNtNtB11_5token5CommaEENtNtNtCs9f3LFPSIp77_4core3ops4drop4Drop4dropCs7oyfuZDlTKn_11yoke_derive, symObjAddr: 0x6DDC, symBinAddr: 0xA6B8, symSize: 0x98 }
  - { offset: 0x1995A, size: 0x8, addend: 0x0, symName: __RNvXsd_NtNtCsdze8u8oDPro_5alloc3vec9into_iterINtB5_8IntoIterTNtNtCsATtFUPiRFW_3syn4path15GenericArgumentNtNtB11_5token5CommaEENtNtNtCs9f3LFPSIp77_4core3ops4drop4Drop4dropCs7oyfuZDlTKn_11yoke_derive, symObjAddr: 0x6E74, symBinAddr: 0xA750, symSize: 0x98 }
  - { offset: 0x199F4, size: 0x8, addend: 0x0, symName: __RNvXsd_NtNtCsdze8u8oDPro_5alloc3vec9into_iterINtB5_8IntoIterTNtNtCsATtFUPiRFW_3syn8generics12GenericParamNtNtB11_5token5CommaEENtNtNtCs9f3LFPSIp77_4core3ops4drop4Drop4dropCs7oyfuZDlTKn_11yoke_derive, symObjAddr: 0x6F0C, symBinAddr: 0xA7E8, symSize: 0x98 }
  - { offset: 0x19A8E, size: 0x8, addend: 0x0, symName: __RNvXsd_NtNtCsdze8u8oDPro_5alloc3vec9into_iterINtB5_8IntoIterTNtNtCsATtFUPiRFW_3syn8generics13CapturedParamNtNtB11_5token5CommaEENtNtNtCs9f3LFPSIp77_4core3ops4drop4Drop4dropCs7oyfuZDlTKn_11yoke_derive, symObjAddr: 0x6FA4, symBinAddr: 0xA880, symSize: 0x98 }
  - { offset: 0x19B28, size: 0x8, addend: 0x0, symName: __RNvXsd_NtNtCsdze8u8oDPro_5alloc3vec9into_iterINtB5_8IntoIterTNtNtCsATtFUPiRFW_3syn8generics14WherePredicateNtNtB11_5token5CommaEENtNtNtCs9f3LFPSIp77_4core3ops4drop4Drop4dropCs7oyfuZDlTKn_11yoke_derive, symObjAddr: 0x703C, symBinAddr: 0xA918, symSize: 0x98 }
  - { offset: 0x19BC2, size: 0x8, addend: 0x0, symName: __RNvXsd_NtNtCsdze8u8oDPro_5alloc3vec9into_iterINtB5_8IntoIterTNtNtCsATtFUPiRFW_3syn8lifetime8LifetimeNtNtB11_5token4PlusEENtNtNtCs9f3LFPSIp77_4core3ops4drop4Drop4dropCs7oyfuZDlTKn_11yoke_derive, symObjAddr: 0x70D4, symBinAddr: 0xA9B0, symSize: 0x98 }
  - { offset: 0x19C62, size: 0x8, addend: 0x0, symName: __RNvXsf_NtNtCsdze8u8oDPro_5alloc3vec9into_iterINtB5_8IntoIterNtNtCsATtFUPiRFW_3syn4attr9AttributeENtNtNtCs9f3LFPSIp77_4core4iter8adapters10SourceIter8as_innerCs7oyfuZDlTKn_11yoke_derive, symObjAddr: 0x716C, symBinAddr: 0xAA48, symSize: 0x14 }
  - { offset: 0x19CA2, size: 0x8, addend: 0x0, symName: __RNvXsf_NtNtCsdze8u8oDPro_5alloc3vec9into_iterINtB5_8IntoIterNtNtCsATtFUPiRFW_3syn4expr3ArmENtNtNtCs9f3LFPSIp77_4core4iter8adapters10SourceIter8as_innerCs7oyfuZDlTKn_11yoke_derive, symObjAddr: 0x7180, symBinAddr: 0xAA5C, symSize: 0x14 }
  - { offset: 0x19CE2, size: 0x8, addend: 0x0, symName: __RNvXsf_NtNtCsdze8u8oDPro_5alloc3vec9into_iterINtB5_8IntoIterNtNtCsATtFUPiRFW_3syn4item11ForeignItemENtNtNtCs9f3LFPSIp77_4core4iter8adapters10SourceIter8as_innerCs7oyfuZDlTKn_11yoke_derive, symObjAddr: 0x7194, symBinAddr: 0xAA70, symSize: 0x14 }
  - { offset: 0x19D22, size: 0x8, addend: 0x0, symName: __RNvXsf_NtNtCsdze8u8oDPro_5alloc3vec9into_iterINtB5_8IntoIterNtNtCsATtFUPiRFW_3syn4item4ItemENtNtNtCs9f3LFPSIp77_4core4iter8adapters10SourceIter8as_innerCs7oyfuZDlTKn_11yoke_derive, symObjAddr: 0x71A8, symBinAddr: 0xAA84, symSize: 0x14 }
  - { offset: 0x19D62, size: 0x8, addend: 0x0, symName: __RNvXsf_NtNtCsdze8u8oDPro_5alloc3vec9into_iterINtB5_8IntoIterNtNtCsATtFUPiRFW_3syn4item8ImplItemENtNtNtCs9f3LFPSIp77_4core4iter8adapters10SourceIter8as_innerCs7oyfuZDlTKn_11yoke_derive, symObjAddr: 0x71BC, symBinAddr: 0xAA98, symSize: 0x14 }
  - { offset: 0x19DA2, size: 0x8, addend: 0x0, symName: __RNvXsf_NtNtCsdze8u8oDPro_5alloc3vec9into_iterINtB5_8IntoIterNtNtCsATtFUPiRFW_3syn4item9TraitItemENtNtNtCs9f3LFPSIp77_4core4iter8adapters10SourceIter8as_innerCs7oyfuZDlTKn_11yoke_derive, symObjAddr: 0x71D0, symBinAddr: 0xAAAC, symSize: 0x14 }
  - { offset: 0x19DE2, size: 0x8, addend: 0x0, symName: __RNvXsf_NtNtCsdze8u8oDPro_5alloc3vec9into_iterINtB5_8IntoIterNtNtCsATtFUPiRFW_3syn4stmt4StmtENtNtNtCs9f3LFPSIp77_4core4iter8adapters10SourceIter8as_innerCs7oyfuZDlTKn_11yoke_derive, symObjAddr: 0x71E4, symBinAddr: 0xAAC0, symSize: 0x14 }
  - { offset: 0x19E22, size: 0x8, addend: 0x0, symName: __RNvXsf_NtNtCsdze8u8oDPro_5alloc3vec9into_iterINtB5_8IntoIterTNtNtCsATtFUPiRFW_3syn2ty4TypeNtNtB11_5token5CommaEENtNtNtCs9f3LFPSIp77_4core4iter8adapters10SourceIter8as_innerCs7oyfuZDlTKn_11yoke_derive, symObjAddr: 0x71F8, symBinAddr: 0xAAD4, symSize: 0x14 }
  - { offset: 0x19E62, size: 0x8, addend: 0x0, symName: __RNvXsf_NtNtCsdze8u8oDPro_5alloc3vec9into_iterINtB5_8IntoIterTNtNtCsATtFUPiRFW_3syn2ty9BareFnArgNtNtB11_5token5CommaEENtNtNtCs9f3LFPSIp77_4core4iter8adapters10SourceIter8as_innerCs7oyfuZDlTKn_11yoke_derive, symObjAddr: 0x720C, symBinAddr: 0xAAE8, symSize: 0x14 }
  - { offset: 0x19EA2, size: 0x8, addend: 0x0, symName: __RNvXsf_NtNtCsdze8u8oDPro_5alloc3vec9into_iterINtB5_8IntoIterTNtNtCsATtFUPiRFW_3syn3pat3PatNtNtB11_5token2OrEENtNtNtCs9f3LFPSIp77_4core4iter8adapters10SourceIter8as_innerCs7oyfuZDlTKn_11yoke_derive, symObjAddr: 0x7220, symBinAddr: 0xAAFC, symSize: 0x14 }
  - { offset: 0x19EE2, size: 0x8, addend: 0x0, symName: __RNvXsf_NtNtCsdze8u8oDPro_5alloc3vec9into_iterINtB5_8IntoIterTNtNtCsATtFUPiRFW_3syn3pat3PatNtNtB11_5token5CommaEENtNtNtCs9f3LFPSIp77_4core4iter8adapters10SourceIter8as_innerCs7oyfuZDlTKn_11yoke_derive, symObjAddr: 0x7234, symBinAddr: 0xAB10, symSize: 0x14 }
  - { offset: 0x19F22, size: 0x8, addend: 0x0, symName: __RNvXsf_NtNtCsdze8u8oDPro_5alloc3vec9into_iterINtB5_8IntoIterTNtNtCsATtFUPiRFW_3syn3pat8FieldPatNtNtB11_5token5CommaEENtNtNtCs9f3LFPSIp77_4core4iter8adapters10SourceIter8as_innerCs7oyfuZDlTKn_11yoke_derive, symObjAddr: 0x7248, symBinAddr: 0xAB24, symSize: 0x14 }
  - { offset: 0x19F62, size: 0x8, addend: 0x0, symName: __RNvXsf_NtNtCsdze8u8oDPro_5alloc3vec9into_iterINtB5_8IntoIterTNtNtCsATtFUPiRFW_3syn4data5FieldNtNtB11_5token5CommaEENtNtNtCs9f3LFPSIp77_4core4iter8adapters10SourceIter8as_innerCs7oyfuZDlTKn_11yoke_derive, symObjAddr: 0x725C, symBinAddr: 0xAB38, symSize: 0x14 }
  - { offset: 0x19FA2, size: 0x8, addend: 0x0, symName: __RNvXsf_NtNtCsdze8u8oDPro_5alloc3vec9into_iterINtB5_8IntoIterTNtNtCsATtFUPiRFW_3syn4data7VariantNtNtB11_5token5CommaEENtNtNtCs9f3LFPSIp77_4core4iter8adapters10SourceIter8as_innerCs7oyfuZDlTKn_11yoke_derive, symObjAddr: 0x7270, symBinAddr: 0xAB4C, symSize: 0x14 }
  - { offset: 0x19FE2, size: 0x8, addend: 0x0, symName: __RNvXsf_NtNtCsdze8u8oDPro_5alloc3vec9into_iterINtB5_8IntoIterTNtNtCsATtFUPiRFW_3syn4expr10FieldValueNtNtB11_5token5CommaEENtNtNtCs9f3LFPSIp77_4core4iter8adapters10SourceIter8as_innerCs7oyfuZDlTKn_11yoke_derive, symObjAddr: 0x7284, symBinAddr: 0xAB60, symSize: 0x14 }
  - { offset: 0x1A022, size: 0x8, addend: 0x0, symName: __RNvXsf_NtNtCsdze8u8oDPro_5alloc3vec9into_iterINtB5_8IntoIterTNtNtCsATtFUPiRFW_3syn4expr4ExprNtNtB11_5token5CommaEENtNtNtCs9f3LFPSIp77_4core4iter8adapters10SourceIter8as_innerCs7oyfuZDlTKn_11yoke_derive, symObjAddr: 0x7298, symBinAddr: 0xAB74, symSize: 0x14 }
  - { offset: 0x1A062, size: 0x8, addend: 0x0, symName: __RNvXsf_NtNtCsdze8u8oDPro_5alloc3vec9into_iterINtB5_8IntoIterTNtNtCsATtFUPiRFW_3syn4item5FnArgNtNtB11_5token5CommaEENtNtNtCs9f3LFPSIp77_4core4iter8adapters10SourceIter8as_innerCs7oyfuZDlTKn_11yoke_derive, symObjAddr: 0x72AC, symBinAddr: 0xAB88, symSize: 0x14 }
  - { offset: 0x1A0A2, size: 0x8, addend: 0x0, symName: __RNvXsf_NtNtCsdze8u8oDPro_5alloc3vec9into_iterINtB5_8IntoIterTNtNtCsATtFUPiRFW_3syn4item7UseTreeNtNtB11_5token5CommaEENtNtNtCs9f3LFPSIp77_4core4iter8adapters10SourceIter8as_innerCs7oyfuZDlTKn_11yoke_derive, symObjAddr: 0x72C0, symBinAddr: 0xAB9C, symSize: 0x14 }
  - { offset: 0x1A0E2, size: 0x8, addend: 0x0, symName: __RNvXsf_NtNtCsdze8u8oDPro_5alloc3vec9into_iterINtB5_8IntoIterTNtNtCsATtFUPiRFW_3syn4path11PathSegmentNtNtB11_5token7PathSepEENtNtNtCs9f3LFPSIp77_4core4iter8adapters10SourceIter8as_innerCs7oyfuZDlTKn_11yoke_derive, symObjAddr: 0x72D4, symBinAddr: 0xABB0, symSize: 0x14 }
  - { offset: 0x1A122, size: 0x8, addend: 0x0, symName: __RNvXsf_NtNtCsdze8u8oDPro_5alloc3vec9into_iterINtB5_8IntoIterTNtNtCsATtFUPiRFW_3syn4path15GenericArgumentNtNtB11_5token5CommaEENtNtNtCs9f3LFPSIp77_4core4iter8adapters10SourceIter8as_innerCs7oyfuZDlTKn_11yoke_derive, symObjAddr: 0x72E8, symBinAddr: 0xABC4, symSize: 0x14 }
  - { offset: 0x1A162, size: 0x8, addend: 0x0, symName: __RNvXsf_NtNtCsdze8u8oDPro_5alloc3vec9into_iterINtB5_8IntoIterTNtNtCsATtFUPiRFW_3syn8generics12GenericParamNtNtB11_5token5CommaEENtNtNtCs9f3LFPSIp77_4core4iter8adapters10SourceIter8as_innerCs7oyfuZDlTKn_11yoke_derive, symObjAddr: 0x72FC, symBinAddr: 0xABD8, symSize: 0x14 }
  - { offset: 0x1A1A2, size: 0x8, addend: 0x0, symName: __RNvXsf_NtNtCsdze8u8oDPro_5alloc3vec9into_iterINtB5_8IntoIterTNtNtCsATtFUPiRFW_3syn8generics13CapturedParamNtNtB11_5token5CommaEENtNtNtCs9f3LFPSIp77_4core4iter8adapters10SourceIter8as_innerCs7oyfuZDlTKn_11yoke_derive, symObjAddr: 0x7310, symBinAddr: 0xABEC, symSize: 0x14 }
  - { offset: 0x1A1E2, size: 0x8, addend: 0x0, symName: __RNvXsf_NtNtCsdze8u8oDPro_5alloc3vec9into_iterINtB5_8IntoIterTNtNtCsATtFUPiRFW_3syn8generics14TypeParamBoundNtNtB11_5token4PlusEENtNtNtCs9f3LFPSIp77_4core4iter8adapters10SourceIter8as_innerCs7oyfuZDlTKn_11yoke_derive, symObjAddr: 0x7324, symBinAddr: 0xAC00, symSize: 0x14 }
  - { offset: 0x1A222, size: 0x8, addend: 0x0, symName: __RNvXsf_NtNtCsdze8u8oDPro_5alloc3vec9into_iterINtB5_8IntoIterTNtNtCsATtFUPiRFW_3syn8generics14WherePredicateNtNtB11_5token5CommaEENtNtNtCs9f3LFPSIp77_4core4iter8adapters10SourceIter8as_innerCs7oyfuZDlTKn_11yoke_derive, symObjAddr: 0x7338, symBinAddr: 0xAC14, symSize: 0x14 }
  - { offset: 0x1A262, size: 0x8, addend: 0x0, symName: __RNvXsf_NtNtCsdze8u8oDPro_5alloc3vec9into_iterINtB5_8IntoIterTNtNtCsATtFUPiRFW_3syn8lifetime8LifetimeNtNtB11_5token4PlusEENtNtNtCs9f3LFPSIp77_4core4iter8adapters10SourceIter8as_innerCs7oyfuZDlTKn_11yoke_derive, symObjAddr: 0x734C, symBinAddr: 0xAC28, symSize: 0x14 }
  - { offset: 0x1A2A8, size: 0x8, addend: 0x0, symName: __RNvXsg_NtNtCsdze8u8oDPro_5alloc3vec9into_iterINtB5_8IntoIterNtNtCsATtFUPiRFW_3syn4attr9AttributeENtNtB7_16in_place_collect13AsVecIntoIter12as_into_iterCs7oyfuZDlTKn_11yoke_derive, symObjAddr: 0x7360, symBinAddr: 0xAC3C, symSize: 0x14 }
  - { offset: 0x1A2DF, size: 0x8, addend: 0x0, symName: __RNvXsg_NtNtCsdze8u8oDPro_5alloc3vec9into_iterINtB5_8IntoIterNtNtCsATtFUPiRFW_3syn4expr3ArmENtNtB7_16in_place_collect13AsVecIntoIter12as_into_iterCs7oyfuZDlTKn_11yoke_derive, symObjAddr: 0x7374, symBinAddr: 0xAC50, symSize: 0x14 }
  - { offset: 0x1A316, size: 0x8, addend: 0x0, symName: __RNvXsg_NtNtCsdze8u8oDPro_5alloc3vec9into_iterINtB5_8IntoIterNtNtCsATtFUPiRFW_3syn4item11ForeignItemENtNtB7_16in_place_collect13AsVecIntoIter12as_into_iterCs7oyfuZDlTKn_11yoke_derive, symObjAddr: 0x7388, symBinAddr: 0xAC64, symSize: 0x14 }
  - { offset: 0x1A34D, size: 0x8, addend: 0x0, symName: __RNvXsg_NtNtCsdze8u8oDPro_5alloc3vec9into_iterINtB5_8IntoIterNtNtCsATtFUPiRFW_3syn4item4ItemENtNtB7_16in_place_collect13AsVecIntoIter12as_into_iterCs7oyfuZDlTKn_11yoke_derive, symObjAddr: 0x739C, symBinAddr: 0xAC78, symSize: 0x14 }
  - { offset: 0x1A384, size: 0x8, addend: 0x0, symName: __RNvXsg_NtNtCsdze8u8oDPro_5alloc3vec9into_iterINtB5_8IntoIterNtNtCsATtFUPiRFW_3syn4item8ImplItemENtNtB7_16in_place_collect13AsVecIntoIter12as_into_iterCs7oyfuZDlTKn_11yoke_derive, symObjAddr: 0x73B0, symBinAddr: 0xAC8C, symSize: 0x14 }
  - { offset: 0x1A3BB, size: 0x8, addend: 0x0, symName: __RNvXsg_NtNtCsdze8u8oDPro_5alloc3vec9into_iterINtB5_8IntoIterNtNtCsATtFUPiRFW_3syn4item9TraitItemENtNtB7_16in_place_collect13AsVecIntoIter12as_into_iterCs7oyfuZDlTKn_11yoke_derive, symObjAddr: 0x73C4, symBinAddr: 0xACA0, symSize: 0x14 }
  - { offset: 0x1A3F2, size: 0x8, addend: 0x0, symName: __RNvXsg_NtNtCsdze8u8oDPro_5alloc3vec9into_iterINtB5_8IntoIterNtNtCsATtFUPiRFW_3syn4stmt4StmtENtNtB7_16in_place_collect13AsVecIntoIter12as_into_iterCs7oyfuZDlTKn_11yoke_derive, symObjAddr: 0x73D8, symBinAddr: 0xACB4, symSize: 0x14 }
  - { offset: 0x1A429, size: 0x8, addend: 0x0, symName: __RNvXsg_NtNtCsdze8u8oDPro_5alloc3vec9into_iterINtB5_8IntoIterTNtNtCsATtFUPiRFW_3syn2ty4TypeNtNtB11_5token5CommaEENtNtB7_16in_place_collect13AsVecIntoIter12as_into_iterCs7oyfuZDlTKn_11yoke_derive, symObjAddr: 0x73EC, symBinAddr: 0xACC8, symSize: 0x14 }
  - { offset: 0x1A460, size: 0x8, addend: 0x0, symName: __RNvXsg_NtNtCsdze8u8oDPro_5alloc3vec9into_iterINtB5_8IntoIterTNtNtCsATtFUPiRFW_3syn2ty9BareFnArgNtNtB11_5token5CommaEENtNtB7_16in_place_collect13AsVecIntoIter12as_into_iterCs7oyfuZDlTKn_11yoke_derive, symObjAddr: 0x7400, symBinAddr: 0xACDC, symSize: 0x14 }
  - { offset: 0x1A497, size: 0x8, addend: 0x0, symName: __RNvXsg_NtNtCsdze8u8oDPro_5alloc3vec9into_iterINtB5_8IntoIterTNtNtCsATtFUPiRFW_3syn3pat3PatNtNtB11_5token2OrEENtNtB7_16in_place_collect13AsVecIntoIter12as_into_iterCs7oyfuZDlTKn_11yoke_derive, symObjAddr: 0x7414, symBinAddr: 0xACF0, symSize: 0x14 }
  - { offset: 0x1A4CE, size: 0x8, addend: 0x0, symName: __RNvXsg_NtNtCsdze8u8oDPro_5alloc3vec9into_iterINtB5_8IntoIterTNtNtCsATtFUPiRFW_3syn3pat3PatNtNtB11_5token5CommaEENtNtB7_16in_place_collect13AsVecIntoIter12as_into_iterCs7oyfuZDlTKn_11yoke_derive, symObjAddr: 0x7428, symBinAddr: 0xAD04, symSize: 0x14 }
  - { offset: 0x1A505, size: 0x8, addend: 0x0, symName: __RNvXsg_NtNtCsdze8u8oDPro_5alloc3vec9into_iterINtB5_8IntoIterTNtNtCsATtFUPiRFW_3syn3pat8FieldPatNtNtB11_5token5CommaEENtNtB7_16in_place_collect13AsVecIntoIter12as_into_iterCs7oyfuZDlTKn_11yoke_derive, symObjAddr: 0x743C, symBinAddr: 0xAD18, symSize: 0x14 }
  - { offset: 0x1A53C, size: 0x8, addend: 0x0, symName: __RNvXsg_NtNtCsdze8u8oDPro_5alloc3vec9into_iterINtB5_8IntoIterTNtNtCsATtFUPiRFW_3syn4data5FieldNtNtB11_5token5CommaEENtNtB7_16in_place_collect13AsVecIntoIter12as_into_iterCs7oyfuZDlTKn_11yoke_derive, symObjAddr: 0x7450, symBinAddr: 0xAD2C, symSize: 0x14 }
  - { offset: 0x1A573, size: 0x8, addend: 0x0, symName: __RNvXsg_NtNtCsdze8u8oDPro_5alloc3vec9into_iterINtB5_8IntoIterTNtNtCsATtFUPiRFW_3syn4data7VariantNtNtB11_5token5CommaEENtNtB7_16in_place_collect13AsVecIntoIter12as_into_iterCs7oyfuZDlTKn_11yoke_derive, symObjAddr: 0x7464, symBinAddr: 0xAD40, symSize: 0x14 }
  - { offset: 0x1A5AA, size: 0x8, addend: 0x0, symName: __RNvXsg_NtNtCsdze8u8oDPro_5alloc3vec9into_iterINtB5_8IntoIterTNtNtCsATtFUPiRFW_3syn4expr10FieldValueNtNtB11_5token5CommaEENtNtB7_16in_place_collect13AsVecIntoIter12as_into_iterCs7oyfuZDlTKn_11yoke_derive, symObjAddr: 0x7478, symBinAddr: 0xAD54, symSize: 0x14 }
  - { offset: 0x1A5E1, size: 0x8, addend: 0x0, symName: __RNvXsg_NtNtCsdze8u8oDPro_5alloc3vec9into_iterINtB5_8IntoIterTNtNtCsATtFUPiRFW_3syn4expr4ExprNtNtB11_5token5CommaEENtNtB7_16in_place_collect13AsVecIntoIter12as_into_iterCs7oyfuZDlTKn_11yoke_derive, symObjAddr: 0x748C, symBinAddr: 0xAD68, symSize: 0x14 }
  - { offset: 0x1A618, size: 0x8, addend: 0x0, symName: __RNvXsg_NtNtCsdze8u8oDPro_5alloc3vec9into_iterINtB5_8IntoIterTNtNtCsATtFUPiRFW_3syn4item5FnArgNtNtB11_5token5CommaEENtNtB7_16in_place_collect13AsVecIntoIter12as_into_iterCs7oyfuZDlTKn_11yoke_derive, symObjAddr: 0x74A0, symBinAddr: 0xAD7C, symSize: 0x14 }
  - { offset: 0x1A64F, size: 0x8, addend: 0x0, symName: __RNvXsg_NtNtCsdze8u8oDPro_5alloc3vec9into_iterINtB5_8IntoIterTNtNtCsATtFUPiRFW_3syn4item7UseTreeNtNtB11_5token5CommaEENtNtB7_16in_place_collect13AsVecIntoIter12as_into_iterCs7oyfuZDlTKn_11yoke_derive, symObjAddr: 0x74B4, symBinAddr: 0xAD90, symSize: 0x14 }
  - { offset: 0x1A686, size: 0x8, addend: 0x0, symName: __RNvXsg_NtNtCsdze8u8oDPro_5alloc3vec9into_iterINtB5_8IntoIterTNtNtCsATtFUPiRFW_3syn4path11PathSegmentNtNtB11_5token7PathSepEENtNtB7_16in_place_collect13AsVecIntoIter12as_into_iterCs7oyfuZDlTKn_11yoke_derive, symObjAddr: 0x74C8, symBinAddr: 0xADA4, symSize: 0x14 }
  - { offset: 0x1A6BD, size: 0x8, addend: 0x0, symName: __RNvXsg_NtNtCsdze8u8oDPro_5alloc3vec9into_iterINtB5_8IntoIterTNtNtCsATtFUPiRFW_3syn4path15GenericArgumentNtNtB11_5token5CommaEENtNtB7_16in_place_collect13AsVecIntoIter12as_into_iterCs7oyfuZDlTKn_11yoke_derive, symObjAddr: 0x74DC, symBinAddr: 0xADB8, symSize: 0x14 }
  - { offset: 0x1A6F4, size: 0x8, addend: 0x0, symName: __RNvXsg_NtNtCsdze8u8oDPro_5alloc3vec9into_iterINtB5_8IntoIterTNtNtCsATtFUPiRFW_3syn8generics12GenericParamNtNtB11_5token5CommaEENtNtB7_16in_place_collect13AsVecIntoIter12as_into_iterCs7oyfuZDlTKn_11yoke_derive, symObjAddr: 0x74F0, symBinAddr: 0xADCC, symSize: 0x14 }
  - { offset: 0x1A72B, size: 0x8, addend: 0x0, symName: __RNvXsg_NtNtCsdze8u8oDPro_5alloc3vec9into_iterINtB5_8IntoIterTNtNtCsATtFUPiRFW_3syn8generics13CapturedParamNtNtB11_5token5CommaEENtNtB7_16in_place_collect13AsVecIntoIter12as_into_iterCs7oyfuZDlTKn_11yoke_derive, symObjAddr: 0x7504, symBinAddr: 0xADE0, symSize: 0x14 }
  - { offset: 0x1A762, size: 0x8, addend: 0x0, symName: __RNvXsg_NtNtCsdze8u8oDPro_5alloc3vec9into_iterINtB5_8IntoIterTNtNtCsATtFUPiRFW_3syn8generics14TypeParamBoundNtNtB11_5token4PlusEENtNtB7_16in_place_collect13AsVecIntoIter12as_into_iterCs7oyfuZDlTKn_11yoke_derive, symObjAddr: 0x7518, symBinAddr: 0xADF4, symSize: 0x14 }
  - { offset: 0x1A799, size: 0x8, addend: 0x0, symName: __RNvXsg_NtNtCsdze8u8oDPro_5alloc3vec9into_iterINtB5_8IntoIterTNtNtCsATtFUPiRFW_3syn8generics14WherePredicateNtNtB11_5token5CommaEENtNtB7_16in_place_collect13AsVecIntoIter12as_into_iterCs7oyfuZDlTKn_11yoke_derive, symObjAddr: 0x752C, symBinAddr: 0xAE08, symSize: 0x14 }
  - { offset: 0x1A7D0, size: 0x8, addend: 0x0, symName: __RNvXsg_NtNtCsdze8u8oDPro_5alloc3vec9into_iterINtB5_8IntoIterTNtNtCsATtFUPiRFW_3syn8lifetime8LifetimeNtNtB11_5token4PlusEENtNtB7_16in_place_collect13AsVecIntoIter12as_into_iterCs7oyfuZDlTKn_11yoke_derive, symObjAddr: 0x7540, symBinAddr: 0xAE1C, symSize: 0x14 }
  - { offset: 0x1E59A, size: 0x8, addend: 0x0, symName: __RNvMs_NtNtCsdze8u8oDPro_5alloc3vec9into_iterINtB4_8IntoIterNtNtCsATtFUPiRFW_3syn4attr9AttributeE32forget_allocation_drop_remainingCs7oyfuZDlTKn_11yoke_derive, symObjAddr: 0x372C, symBinAddr: 0x7008, symSize: 0xC8 }
  - { offset: 0x1E904, size: 0x8, addend: 0x0, symName: __RNvMs_NtNtCsdze8u8oDPro_5alloc3vec9into_iterINtB4_8IntoIterNtNtCsATtFUPiRFW_3syn4expr3ArmE32forget_allocation_drop_remainingCs7oyfuZDlTKn_11yoke_derive, symObjAddr: 0x37F4, symBinAddr: 0x70D0, symSize: 0xC8 }
  - { offset: 0x1EC6E, size: 0x8, addend: 0x0, symName: __RNvMs_NtNtCsdze8u8oDPro_5alloc3vec9into_iterINtB4_8IntoIterNtNtCsATtFUPiRFW_3syn4item11ForeignItemE32forget_allocation_drop_remainingCs7oyfuZDlTKn_11yoke_derive, symObjAddr: 0x38BC, symBinAddr: 0x7198, symSize: 0xC8 }
  - { offset: 0x1EFD8, size: 0x8, addend: 0x0, symName: __RNvMs_NtNtCsdze8u8oDPro_5alloc3vec9into_iterINtB4_8IntoIterNtNtCsATtFUPiRFW_3syn4item4ItemE32forget_allocation_drop_remainingCs7oyfuZDlTKn_11yoke_derive, symObjAddr: 0x3984, symBinAddr: 0x7260, symSize: 0xC8 }
  - { offset: 0x1F342, size: 0x8, addend: 0x0, symName: __RNvMs_NtNtCsdze8u8oDPro_5alloc3vec9into_iterINtB4_8IntoIterNtNtCsATtFUPiRFW_3syn4item8ImplItemE32forget_allocation_drop_remainingCs7oyfuZDlTKn_11yoke_derive, symObjAddr: 0x3A4C, symBinAddr: 0x7328, symSize: 0xC8 }
  - { offset: 0x1F6AC, size: 0x8, addend: 0x0, symName: __RNvMs_NtNtCsdze8u8oDPro_5alloc3vec9into_iterINtB4_8IntoIterNtNtCsATtFUPiRFW_3syn4item9TraitItemE32forget_allocation_drop_remainingCs7oyfuZDlTKn_11yoke_derive, symObjAddr: 0x3B14, symBinAddr: 0x73F0, symSize: 0xC8 }
  - { offset: 0x1FA16, size: 0x8, addend: 0x0, symName: __RNvMs_NtNtCsdze8u8oDPro_5alloc3vec9into_iterINtB4_8IntoIterNtNtCsATtFUPiRFW_3syn4stmt4StmtE32forget_allocation_drop_remainingCs7oyfuZDlTKn_11yoke_derive, symObjAddr: 0x3BDC, symBinAddr: 0x74B8, symSize: 0xC8 }
  - { offset: 0x1FD80, size: 0x8, addend: 0x0, symName: __RNvMs_NtNtCsdze8u8oDPro_5alloc3vec9into_iterINtB4_8IntoIterTNtNtCsATtFUPiRFW_3syn2ty4TypeNtNtB10_5token5CommaEE32forget_allocation_drop_remainingCs7oyfuZDlTKn_11yoke_derive, symObjAddr: 0x3CA4, symBinAddr: 0x7580, symSize: 0xC8 }
  - { offset: 0x200EA, size: 0x8, addend: 0x0, symName: __RNvMs_NtNtCsdze8u8oDPro_5alloc3vec9into_iterINtB4_8IntoIterTNtNtCsATtFUPiRFW_3syn2ty9BareFnArgNtNtB10_5token5CommaEE32forget_allocation_drop_remainingCs7oyfuZDlTKn_11yoke_derive, symObjAddr: 0x3D6C, symBinAddr: 0x7648, symSize: 0xC8 }
  - { offset: 0x20454, size: 0x8, addend: 0x0, symName: __RNvMs_NtNtCsdze8u8oDPro_5alloc3vec9into_iterINtB4_8IntoIterTNtNtCsATtFUPiRFW_3syn3pat3PatNtNtB10_5token2OrEE32forget_allocation_drop_remainingCs7oyfuZDlTKn_11yoke_derive, symObjAddr: 0x3E34, symBinAddr: 0x7710, symSize: 0xC8 }
  - { offset: 0x207BE, size: 0x8, addend: 0x0, symName: __RNvMs_NtNtCsdze8u8oDPro_5alloc3vec9into_iterINtB4_8IntoIterTNtNtCsATtFUPiRFW_3syn3pat3PatNtNtB10_5token5CommaEE32forget_allocation_drop_remainingCs7oyfuZDlTKn_11yoke_derive, symObjAddr: 0x3EFC, symBinAddr: 0x77D8, symSize: 0xC8 }
  - { offset: 0x20B28, size: 0x8, addend: 0x0, symName: __RNvMs_NtNtCsdze8u8oDPro_5alloc3vec9into_iterINtB4_8IntoIterTNtNtCsATtFUPiRFW_3syn3pat8FieldPatNtNtB10_5token5CommaEE32forget_allocation_drop_remainingCs7oyfuZDlTKn_11yoke_derive, symObjAddr: 0x3FC4, symBinAddr: 0x78A0, symSize: 0xC8 }
  - { offset: 0x20E92, size: 0x8, addend: 0x0, symName: __RNvMs_NtNtCsdze8u8oDPro_5alloc3vec9into_iterINtB4_8IntoIterTNtNtCsATtFUPiRFW_3syn4data5FieldNtNtB10_5token5CommaEE32forget_allocation_drop_remainingCs7oyfuZDlTKn_11yoke_derive, symObjAddr: 0x408C, symBinAddr: 0x7968, symSize: 0xC8 }
  - { offset: 0x211FC, size: 0x8, addend: 0x0, symName: __RNvMs_NtNtCsdze8u8oDPro_5alloc3vec9into_iterINtB4_8IntoIterTNtNtCsATtFUPiRFW_3syn4data7VariantNtNtB10_5token5CommaEE32forget_allocation_drop_remainingCs7oyfuZDlTKn_11yoke_derive, symObjAddr: 0x4154, symBinAddr: 0x7A30, symSize: 0xC8 }
  - { offset: 0x21566, size: 0x8, addend: 0x0, symName: __RNvMs_NtNtCsdze8u8oDPro_5alloc3vec9into_iterINtB4_8IntoIterTNtNtCsATtFUPiRFW_3syn4expr10FieldValueNtNtB10_5token5CommaEE32forget_allocation_drop_remainingCs7oyfuZDlTKn_11yoke_derive, symObjAddr: 0x421C, symBinAddr: 0x7AF8, symSize: 0xC8 }
  - { offset: 0x218D0, size: 0x8, addend: 0x0, symName: __RNvMs_NtNtCsdze8u8oDPro_5alloc3vec9into_iterINtB4_8IntoIterTNtNtCsATtFUPiRFW_3syn4expr4ExprNtNtB10_5token5CommaEE32forget_allocation_drop_remainingCs7oyfuZDlTKn_11yoke_derive, symObjAddr: 0x42E4, symBinAddr: 0x7BC0, symSize: 0xC8 }
  - { offset: 0x21C3A, size: 0x8, addend: 0x0, symName: __RNvMs_NtNtCsdze8u8oDPro_5alloc3vec9into_iterINtB4_8IntoIterTNtNtCsATtFUPiRFW_3syn4item5FnArgNtNtB10_5token5CommaEE32forget_allocation_drop_remainingCs7oyfuZDlTKn_11yoke_derive, symObjAddr: 0x43AC, symBinAddr: 0x7C88, symSize: 0xC8 }
  - { offset: 0x21FA4, size: 0x8, addend: 0x0, symName: __RNvMs_NtNtCsdze8u8oDPro_5alloc3vec9into_iterINtB4_8IntoIterTNtNtCsATtFUPiRFW_3syn4item7UseTreeNtNtB10_5token5CommaEE32forget_allocation_drop_remainingCs7oyfuZDlTKn_11yoke_derive, symObjAddr: 0x4474, symBinAddr: 0x7D50, symSize: 0xC8 }
  - { offset: 0x2230E, size: 0x8, addend: 0x0, symName: __RNvMs_NtNtCsdze8u8oDPro_5alloc3vec9into_iterINtB4_8IntoIterTNtNtCsATtFUPiRFW_3syn4path11PathSegmentNtNtB10_5token7PathSepEE32forget_allocation_drop_remainingCs7oyfuZDlTKn_11yoke_derive, symObjAddr: 0x453C, symBinAddr: 0x7E18, symSize: 0xC8 }
  - { offset: 0x22678, size: 0x8, addend: 0x0, symName: __RNvMs_NtNtCsdze8u8oDPro_5alloc3vec9into_iterINtB4_8IntoIterTNtNtCsATtFUPiRFW_3syn4path15GenericArgumentNtNtB10_5token5CommaEE32forget_allocation_drop_remainingCs7oyfuZDlTKn_11yoke_derive, symObjAddr: 0x4604, symBinAddr: 0x7EE0, symSize: 0xC8 }
  - { offset: 0x229E2, size: 0x8, addend: 0x0, symName: __RNvMs_NtNtCsdze8u8oDPro_5alloc3vec9into_iterINtB4_8IntoIterTNtNtCsATtFUPiRFW_3syn8generics12GenericParamNtNtB10_5token5CommaEE32forget_allocation_drop_remainingCs7oyfuZDlTKn_11yoke_derive, symObjAddr: 0x46CC, symBinAddr: 0x7FA8, symSize: 0xC8 }
  - { offset: 0x22D4C, size: 0x8, addend: 0x0, symName: __RNvMs_NtNtCsdze8u8oDPro_5alloc3vec9into_iterINtB4_8IntoIterTNtNtCsATtFUPiRFW_3syn8generics13CapturedParamNtNtB10_5token5CommaEE32forget_allocation_drop_remainingCs7oyfuZDlTKn_11yoke_derive, symObjAddr: 0x4794, symBinAddr: 0x8070, symSize: 0xC8 }
  - { offset: 0x230B6, size: 0x8, addend: 0x0, symName: __RNvMs_NtNtCsdze8u8oDPro_5alloc3vec9into_iterINtB4_8IntoIterTNtNtCsATtFUPiRFW_3syn8generics14TypeParamBoundNtNtB10_5token4PlusEE32forget_allocation_drop_remainingCs7oyfuZDlTKn_11yoke_derive, symObjAddr: 0x485C, symBinAddr: 0x8138, symSize: 0xC8 }
  - { offset: 0x23420, size: 0x8, addend: 0x0, symName: __RNvMs_NtNtCsdze8u8oDPro_5alloc3vec9into_iterINtB4_8IntoIterTNtNtCsATtFUPiRFW_3syn8generics14WherePredicateNtNtB10_5token5CommaEE32forget_allocation_drop_remainingCs7oyfuZDlTKn_11yoke_derive, symObjAddr: 0x4924, symBinAddr: 0x8200, symSize: 0xC8 }
  - { offset: 0x2378A, size: 0x8, addend: 0x0, symName: __RNvMs_NtNtCsdze8u8oDPro_5alloc3vec9into_iterINtB4_8IntoIterTNtNtCsATtFUPiRFW_3syn8lifetime8LifetimeNtNtB10_5token4PlusEE32forget_allocation_drop_remainingCs7oyfuZDlTKn_11yoke_derive, symObjAddr: 0x49EC, symBinAddr: 0x82C8, symSize: 0xC8 }
  - { offset: 0x254AE, size: 0x8, addend: 0x0, symName: __RINvNtNtCsdze8u8oDPro_5alloc3vec16in_place_collect18from_iter_in_placeINtNtNtNtCs9f3LFPSIp77_4core4iter8adapters3map3MapINtNtB4_9into_iter8IntoIterNtNtCsATtFUPiRFW_3syn4attr9AttributeENCINvNtNtB2p_3gen4fold8fold_vecB2l_NtNvCs7oyfuZDlTKn_11yoke_derive16replace_lifetime15ReplaceLifetimeNvYB3v_NtB31_4Fold14fold_attributeE0EB2l_EB3z_, symObjAddr: 0x0, symBinAddr: 0xBE50, symSize: 0x264 }
  - { offset: 0x2B45D, size: 0x8, addend: 0x0, symName: __RINvNtNtCsdze8u8oDPro_5alloc3vec16in_place_collect18from_iter_in_placeINtNtNtNtCs9f3LFPSIp77_4core4iter8adapters3map3MapINtNtB4_9into_iter8IntoIterNtNtCsATtFUPiRFW_3syn4attr9AttributeENCINvNtNtB2p_3gen4fold8fold_vecB2l_NtNvCs7oyfuZDlTKn_11yoke_derive16replace_lifetime15ReplaceLifetimeNvYB3v_NtB31_4Fold14fold_attributeE0EB2l_EB3z_, symObjAddr: 0x0, symBinAddr: 0xBE50, symSize: 0x264 }
  - { offset: 0x2B8C0, size: 0x8, addend: 0x0, symName: __RINvNtNtCsdze8u8oDPro_5alloc3vec16in_place_collect18from_iter_in_placeINtNtNtNtCs9f3LFPSIp77_4core4iter8adapters3map3MapINtNtB4_9into_iter8IntoIterNtNtCsATtFUPiRFW_3syn4expr3ArmENCINvNtNtB2p_3gen4fold8fold_vecB2l_NtNvCs7oyfuZDlTKn_11yoke_derive16replace_lifetime15ReplaceLifetimeNvYB3p_NtB2V_4Fold8fold_armE0EB2l_EB3t_, symObjAddr: 0x264, symBinAddr: 0xC0B4, symSize: 0x268 }
  - { offset: 0x2BD23, size: 0x8, addend: 0x0, symName: __RINvNtNtCsdze8u8oDPro_5alloc3vec16in_place_collect18from_iter_in_placeINtNtNtNtCs9f3LFPSIp77_4core4iter8adapters3map3MapINtNtB4_9into_iter8IntoIterNtNtCsATtFUPiRFW_3syn4item11ForeignItemENCINvNtNtB2p_3gen4fold8fold_vecB2l_NtNvCs7oyfuZDlTKn_11yoke_derive16replace_lifetime15ReplaceLifetimeNvYB3y_NtB34_4Fold17fold_foreign_itemE0EB2l_EB3C_, symObjAddr: 0x4CC, symBinAddr: 0xC31C, symSize: 0x268 }
  - { offset: 0x2C186, size: 0x8, addend: 0x0, symName: __RINvNtNtCsdze8u8oDPro_5alloc3vec16in_place_collect18from_iter_in_placeINtNtNtNtCs9f3LFPSIp77_4core4iter8adapters3map3MapINtNtB4_9into_iter8IntoIterNtNtCsATtFUPiRFW_3syn4item4ItemENCINvNtNtB2p_3gen4fold8fold_vecB2l_NtNvCs7oyfuZDlTKn_11yoke_derive16replace_lifetime15ReplaceLifetimeNvYB3q_NtB2W_4Fold9fold_itemE0EB2l_EB3u_, symObjAddr: 0x734, symBinAddr: 0xC584, symSize: 0x268 }
  - { offset: 0x2C5E9, size: 0x8, addend: 0x0, symName: __RINvNtNtCsdze8u8oDPro_5alloc3vec16in_place_collect18from_iter_in_placeINtNtNtNtCs9f3LFPSIp77_4core4iter8adapters3map3MapINtNtB4_9into_iter8IntoIterNtNtCsATtFUPiRFW_3syn4item8ImplItemENCINvNtNtB2p_3gen4fold8fold_vecB2l_NtNvCs7oyfuZDlTKn_11yoke_derive16replace_lifetime15ReplaceLifetimeNvYB3u_NtB30_4Fold14fold_impl_itemE0EB2l_EB3y_, symObjAddr: 0x99C, symBinAddr: 0xC7EC, symSize: 0x268 }
  - { offset: 0x2CA4C, size: 0x8, addend: 0x0, symName: __RINvNtNtCsdze8u8oDPro_5alloc3vec16in_place_collect18from_iter_in_placeINtNtNtNtCs9f3LFPSIp77_4core4iter8adapters3map3MapINtNtB4_9into_iter8IntoIterNtNtCsATtFUPiRFW_3syn4item9TraitItemENCINvNtNtB2p_3gen4fold8fold_vecB2l_NtNvCs7oyfuZDlTKn_11yoke_derive16replace_lifetime15ReplaceLifetimeNvYB3v_NtB31_4Fold15fold_trait_itemE0EB2l_EB3z_, symObjAddr: 0xC04, symBinAddr: 0xCA54, symSize: 0x268 }
  - { offset: 0x2CEAF, size: 0x8, addend: 0x0, symName: __RINvNtNtCsdze8u8oDPro_5alloc3vec16in_place_collect18from_iter_in_placeINtNtNtNtCs9f3LFPSIp77_4core4iter8adapters3map3MapINtNtB4_9into_iter8IntoIterNtNtCsATtFUPiRFW_3syn4stmt4StmtENCINvNtNtB2p_3gen4fold8fold_vecB2l_NtNvCs7oyfuZDlTKn_11yoke_derive16replace_lifetime15ReplaceLifetimeNvYB3q_NtB2W_4Fold9fold_stmtE0EB2l_EB3u_, symObjAddr: 0xE6C, symBinAddr: 0xCCBC, symSize: 0x268 }
  - { offset: 0x2D312, size: 0x8, addend: 0x0, symName: __RINvNtNtCsdze8u8oDPro_5alloc3vec16in_place_collect18from_iter_in_placeINtNtNtNtCs9f3LFPSIp77_4core4iter8adapters3map3MapINtNtB4_9into_iter8IntoIterTNtNtCsATtFUPiRFW_3syn2ty4TypeNtNtB2q_5token5CommaEENCINvNtB2q_10punctuated4foldB2m_B2P_NtNvCs7oyfuZDlTKn_11yoke_derive16replace_lifetime15ReplaceLifetimeNvYB3L_NtNtNtB2q_3gen4fold4Fold9fold_typeE0EB2l_EB3P_, symObjAddr: 0x10D4, symBinAddr: 0xCF24, symSize: 0x268 }
  - { offset: 0x2D775, size: 0x8, addend: 0x0, symName: __RINvNtNtCsdze8u8oDPro_5alloc3vec16in_place_collect18from_iter_in_placeINtNtNtNtCs9f3LFPSIp77_4core4iter8adapters3map3MapINtNtB4_9into_iter8IntoIterTNtNtCsATtFUPiRFW_3syn2ty9BareFnArgNtNtB2q_5token5CommaEENCINvNtB2q_10punctuated4foldB2m_B2U_NtNvCs7oyfuZDlTKn_11yoke_derive16replace_lifetime15ReplaceLifetimeNvYB3Q_NtNtNtB2q_3gen4fold4Fold16fold_bare_fn_argE0EB2l_EB3U_, symObjAddr: 0x133C, symBinAddr: 0xD18C, symSize: 0x268 }
  - { offset: 0x2DBD8, size: 0x8, addend: 0x0, symName: __RINvNtNtCsdze8u8oDPro_5alloc3vec16in_place_collect18from_iter_in_placeINtNtNtNtCs9f3LFPSIp77_4core4iter8adapters3map3MapINtNtB4_9into_iter8IntoIterTNtNtCsATtFUPiRFW_3syn3pat3PatNtNtB2q_5token2OrEENCINvNtB2q_10punctuated4foldB2m_B2P_NtNvCs7oyfuZDlTKn_11yoke_derive16replace_lifetime15ReplaceLifetimeNvYB3I_NtNtNtB2q_3gen4fold4Fold8fold_patE0EB2l_EB3M_, symObjAddr: 0x15A4, symBinAddr: 0xD3F4, symSize: 0x268 }
  - { offset: 0x2E03B, size: 0x8, addend: 0x0, symName: __RINvNtNtCsdze8u8oDPro_5alloc3vec16in_place_collect18from_iter_in_placeINtNtNtNtCs9f3LFPSIp77_4core4iter8adapters3map3MapINtNtB4_9into_iter8IntoIterTNtNtCsATtFUPiRFW_3syn3pat3PatNtNtB2q_5token5CommaEENCINvNtB2q_10punctuated4foldB2m_B2P_NtNvCs7oyfuZDlTKn_11yoke_derive16replace_lifetime15ReplaceLifetimeNvYB3L_NtNtNtB2q_3gen4fold4Fold8fold_patE0EB2l_EB3P_, symObjAddr: 0x180C, symBinAddr: 0xD65C, symSize: 0x268 }
  - { offset: 0x2E49E, size: 0x8, addend: 0x0, symName: __RINvNtNtCsdze8u8oDPro_5alloc3vec16in_place_collect18from_iter_in_placeINtNtNtNtCs9f3LFPSIp77_4core4iter8adapters3map3MapINtNtB4_9into_iter8IntoIterTNtNtCsATtFUPiRFW_3syn3pat8FieldPatNtNtB2q_5token5CommaEENCINvNtB2q_10punctuated4foldB2m_B2U_NtNvCs7oyfuZDlTKn_11yoke_derive16replace_lifetime15ReplaceLifetimeNvYB3Q_NtNtNtB2q_3gen4fold4Fold14fold_field_patE0EB2l_EB3U_, symObjAddr: 0x1A74, symBinAddr: 0xD8C4, symSize: 0x268 }
  - { offset: 0x2E901, size: 0x8, addend: 0x0, symName: __RINvNtNtCsdze8u8oDPro_5alloc3vec16in_place_collect18from_iter_in_placeINtNtNtNtCs9f3LFPSIp77_4core4iter8adapters3map3MapINtNtB4_9into_iter8IntoIterTNtNtCsATtFUPiRFW_3syn4data5FieldNtNtB2q_5token5CommaEENCINvNtB2q_10punctuated4foldB2m_B2S_NtNvCs7oyfuZDlTKn_11yoke_derive16replace_lifetime15ReplaceLifetimeNvYB3O_NtNtNtB2q_3gen4fold4Fold10fold_fieldE0EB2l_EB3S_, symObjAddr: 0x1CDC, symBinAddr: 0xDB2C, symSize: 0x268 }
  - { offset: 0x2ED64, size: 0x8, addend: 0x0, symName: __RINvNtNtCsdze8u8oDPro_5alloc3vec16in_place_collect18from_iter_in_placeINtNtNtNtCs9f3LFPSIp77_4core4iter8adapters3map3MapINtNtB4_9into_iter8IntoIterTNtNtCsATtFUPiRFW_3syn4data7VariantNtNtB2q_5token5CommaEENCINvNtB2q_10punctuated4foldB2m_B2U_NtNvCs7oyfuZDlTKn_11yoke_derive16replace_lifetime15ReplaceLifetimeNvYB3Q_NtNtNtB2q_3gen4fold4Fold12fold_variantE0EB2l_EB3U_, symObjAddr: 0x1F44, symBinAddr: 0xDD94, symSize: 0x268 }
  - { offset: 0x2F1C7, size: 0x8, addend: 0x0, symName: __RINvNtNtCsdze8u8oDPro_5alloc3vec16in_place_collect18from_iter_in_placeINtNtNtNtCs9f3LFPSIp77_4core4iter8adapters3map3MapINtNtB4_9into_iter8IntoIterTNtNtCsATtFUPiRFW_3syn4expr10FieldValueNtNtB2q_5token5CommaEENCINvNtB2q_10punctuated4foldB2m_B2Y_NtNvCs7oyfuZDlTKn_11yoke_derive16replace_lifetime15ReplaceLifetimeNvYB3U_NtNtNtB2q_3gen4fold4Fold16fold_field_valueE0EB2l_EB3Y_, symObjAddr: 0x21AC, symBinAddr: 0xDFFC, symSize: 0x268 }
  - { offset: 0x2F62A, size: 0x8, addend: 0x0, symName: __RINvNtNtCsdze8u8oDPro_5alloc3vec16in_place_collect18from_iter_in_placeINtNtNtNtCs9f3LFPSIp77_4core4iter8adapters3map3MapINtNtB4_9into_iter8IntoIterTNtNtCsATtFUPiRFW_3syn4expr4ExprNtNtB2q_5token5CommaEENCINvNtB2q_10punctuated4foldB2m_B2R_NtNvCs7oyfuZDlTKn_11yoke_derive16replace_lifetime15ReplaceLifetimeNvYB3N_NtNtNtB2q_3gen4fold4Fold9fold_exprE0EB2l_EB3R_, symObjAddr: 0x2414, symBinAddr: 0xE264, symSize: 0x268 }
  - { offset: 0x2FA8D, size: 0x8, addend: 0x0, symName: __RINvNtNtCsdze8u8oDPro_5alloc3vec16in_place_collect18from_iter_in_placeINtNtNtNtCs9f3LFPSIp77_4core4iter8adapters3map3MapINtNtB4_9into_iter8IntoIterTNtNtCsATtFUPiRFW_3syn4item5FnArgNtNtB2q_5token5CommaEENCINvNtB2q_10punctuated4foldB2m_B2S_NtNvCs7oyfuZDlTKn_11yoke_derive16replace_lifetime15ReplaceLifetimeNvYB3O_NtNtNtB2q_3gen4fold4Fold11fold_fn_argE0EB2l_EB3S_, symObjAddr: 0x267C, symBinAddr: 0xE4CC, symSize: 0x268 }
  - { offset: 0x2FEF0, size: 0x8, addend: 0x0, symName: __RINvNtNtCsdze8u8oDPro_5alloc3vec16in_place_collect18from_iter_in_placeINtNtNtNtCs9f3LFPSIp77_4core4iter8adapters3map3MapINtNtB4_9into_iter8IntoIterTNtNtCsATtFUPiRFW_3syn4item7UseTreeNtNtB2q_5token5CommaEENCINvNtB2q_10punctuated4foldB2m_B2U_NtNvCs7oyfuZDlTKn_11yoke_derive16replace_lifetime15ReplaceLifetimeNvYB3Q_NtNtNtB2q_3gen4fold4Fold13fold_use_treeE0EB2l_EB3U_, symObjAddr: 0x28E4, symBinAddr: 0xE734, symSize: 0x268 }
  - { offset: 0x30353, size: 0x8, addend: 0x0, symName: __RINvNtNtCsdze8u8oDPro_5alloc3vec16in_place_collect18from_iter_in_placeINtNtNtNtCs9f3LFPSIp77_4core4iter8adapters3map3MapINtNtB4_9into_iter8IntoIterTNtNtCsATtFUPiRFW_3syn4path11PathSegmentNtNtB2q_5token7PathSepEENCINvNtB2q_10punctuated4foldB2m_B2Z_NtNvCs7oyfuZDlTKn_11yoke_derive16replace_lifetime15ReplaceLifetimeNvYB3X_NtNtNtB2q_3gen4fold4Fold17fold_path_segmentE0EB2l_EB41_, symObjAddr: 0x2B4C, symBinAddr: 0xE99C, symSize: 0x268 }
  - { offset: 0x307B6, size: 0x8, addend: 0x0, symName: __RINvNtNtCsdze8u8oDPro_5alloc3vec16in_place_collect18from_iter_in_placeINtNtNtNtCs9f3LFPSIp77_4core4iter8adapters3map3MapINtNtB4_9into_iter8IntoIterTNtNtCsATtFUPiRFW_3syn4path15GenericArgumentNtNtB2q_5token5CommaEENCINvNtB2q_10punctuated4foldB2m_B33_NtNvCs7oyfuZDlTKn_11yoke_derive16replace_lifetime15ReplaceLifetimeNvYB3Z_NtNtNtB2q_3gen4fold4Fold21fold_generic_argumentE0EB2l_EB43_, symObjAddr: 0x2DB4, symBinAddr: 0xEC04, symSize: 0x268 }
  - { offset: 0x30C19, size: 0x8, addend: 0x0, symName: __RINvNtNtCsdze8u8oDPro_5alloc3vec16in_place_collect18from_iter_in_placeINtNtNtNtCs9f3LFPSIp77_4core4iter8adapters3map3MapINtNtB4_9into_iter8IntoIterTNtNtCsATtFUPiRFW_3syn8generics12GenericParamNtNtB2q_5token5CommaEENCINvNtB2q_10punctuated4foldB2m_B34_NtNvCs7oyfuZDlTKn_11yoke_derive16replace_lifetime15ReplaceLifetimeNvYB40_NtNtNtB2q_3gen4fold4Fold18fold_generic_paramE0EB2l_EB44_, symObjAddr: 0x301C, symBinAddr: 0xEE6C, symSize: 0x268 }
  - { offset: 0x3107C, size: 0x8, addend: 0x0, symName: __RINvNtNtCsdze8u8oDPro_5alloc3vec16in_place_collect18from_iter_in_placeINtNtNtNtCs9f3LFPSIp77_4core4iter8adapters3map3MapINtNtB4_9into_iter8IntoIterTNtNtCsATtFUPiRFW_3syn8generics13CapturedParamNtNtB2q_5token5CommaEENCINvNtB2q_10punctuated4foldB2m_B35_NtNvCs7oyfuZDlTKn_11yoke_derive16replace_lifetime15ReplaceLifetimeNvYB41_NtNtNtB2q_3gen4fold4Fold19fold_captured_paramE0EB2l_EB45_, symObjAddr: 0x3284, symBinAddr: 0xF0D4, symSize: 0x268 }
  - { offset: 0x314DF, size: 0x8, addend: 0x0, symName: __RINvNtNtCsdze8u8oDPro_5alloc3vec16in_place_collect18from_iter_in_placeINtNtNtNtCs9f3LFPSIp77_4core4iter8adapters3map3MapINtNtB4_9into_iter8IntoIterTNtNtCsATtFUPiRFW_3syn8generics14TypeParamBoundNtNtB2q_5token4PlusEENCINvNtB2q_10punctuated4foldB2m_B36_NtNvCs7oyfuZDlTKn_11yoke_derive16replace_lifetime15ReplaceLifetimeNvYB41_NtNtNtB2q_3gen4fold4Fold21fold_type_param_boundE0EB2l_EB45_, symObjAddr: 0x34EC, symBinAddr: 0xF33C, symSize: 0x264 }
  - { offset: 0x31942, size: 0x8, addend: 0x0, symName: __RINvNtNtCsdze8u8oDPro_5alloc3vec16in_place_collect18from_iter_in_placeINtNtNtNtCs9f3LFPSIp77_4core4iter8adapters3map3MapINtNtB4_9into_iter8IntoIterTNtNtCsATtFUPiRFW_3syn8generics14WherePredicateNtNtB2q_5token5CommaEENCINvNtB2q_10punctuated4foldB2m_B36_NtNvCs7oyfuZDlTKn_11yoke_derive16replace_lifetime15ReplaceLifetimeNvYB42_NtNtNtB2q_3gen4fold4Fold20fold_where_predicateE0EB2l_EB46_, symObjAddr: 0x3750, symBinAddr: 0xF5A0, symSize: 0x268 }
  - { offset: 0x31DA5, size: 0x8, addend: 0x0, symName: __RINvNtNtCsdze8u8oDPro_5alloc3vec16in_place_collect18from_iter_in_placeINtNtNtNtCs9f3LFPSIp77_4core4iter8adapters3map3MapINtNtB4_9into_iter8IntoIterTNtNtCsATtFUPiRFW_3syn8lifetime8LifetimeNtNtB2q_5token4PlusEENCINvNtB2q_10punctuated4foldB2m_B2Z_NtNvCs7oyfuZDlTKn_11yoke_derive16replace_lifetime15ReplaceLifetimeNvYB3U_NtNtNtB2q_3gen4fold4Fold13fold_lifetimeE0EB2l_EB3Y_, symObjAddr: 0x39B8, symBinAddr: 0xF808, symSize: 0x268 }
  - { offset: 0x321D4, size: 0x8, addend: 0x0, symName: __RNCINvNtNtCsdze8u8oDPro_5alloc3vec16in_place_collect24write_in_place_with_dropNtNtCsATtFUPiRFW_3syn4attr9AttributeE0Cs7oyfuZDlTKn_11yoke_derive, symObjAddr: 0x3C20, symBinAddr: 0xFA70, symSize: 0x7C }
  - { offset: 0x3228D, size: 0x8, addend: 0x0, symName: __RNCINvNtNtCsdze8u8oDPro_5alloc3vec16in_place_collect24write_in_place_with_dropNtNtCsATtFUPiRFW_3syn4expr3ArmE0Cs7oyfuZDlTKn_11yoke_derive, symObjAddr: 0x3C9C, symBinAddr: 0xFAEC, symSize: 0x7C }
  - { offset: 0x32346, size: 0x8, addend: 0x0, symName: __RNCINvNtNtCsdze8u8oDPro_5alloc3vec16in_place_collect24write_in_place_with_dropNtNtCsATtFUPiRFW_3syn4item11ForeignItemE0Cs7oyfuZDlTKn_11yoke_derive, symObjAddr: 0x3D18, symBinAddr: 0xFB68, symSize: 0x7C }
  - { offset: 0x323FF, size: 0x8, addend: 0x0, symName: __RNCINvNtNtCsdze8u8oDPro_5alloc3vec16in_place_collect24write_in_place_with_dropNtNtCsATtFUPiRFW_3syn4item4ItemE0Cs7oyfuZDlTKn_11yoke_derive, symObjAddr: 0x3D94, symBinAddr: 0xFBE4, symSize: 0x7C }
  - { offset: 0x324B8, size: 0x8, addend: 0x0, symName: __RNCINvNtNtCsdze8u8oDPro_5alloc3vec16in_place_collect24write_in_place_with_dropNtNtCsATtFUPiRFW_3syn4item8ImplItemE0Cs7oyfuZDlTKn_11yoke_derive, symObjAddr: 0x3E10, symBinAddr: 0xFC60, symSize: 0x7C }
  - { offset: 0x32571, size: 0x8, addend: 0x0, symName: __RNCINvNtNtCsdze8u8oDPro_5alloc3vec16in_place_collect24write_in_place_with_dropNtNtCsATtFUPiRFW_3syn4item9TraitItemE0Cs7oyfuZDlTKn_11yoke_derive, symObjAddr: 0x3E8C, symBinAddr: 0xFCDC, symSize: 0x7C }
  - { offset: 0x3262A, size: 0x8, addend: 0x0, symName: __RNCINvNtNtCsdze8u8oDPro_5alloc3vec16in_place_collect24write_in_place_with_dropNtNtCsATtFUPiRFW_3syn4stmt4StmtE0Cs7oyfuZDlTKn_11yoke_derive, symObjAddr: 0x3F08, symBinAddr: 0xFD58, symSize: 0x7C }
  - { offset: 0x326E3, size: 0x8, addend: 0x0, symName: __RNCINvNtNtCsdze8u8oDPro_5alloc3vec16in_place_collect24write_in_place_with_dropTNtNtCsATtFUPiRFW_3syn2ty4TypeNtNtB1j_5token5CommaEE0Cs7oyfuZDlTKn_11yoke_derive, symObjAddr: 0x3F84, symBinAddr: 0xFDD4, symSize: 0x7C }
  - { offset: 0x3279C, size: 0x8, addend: 0x0, symName: __RNCINvNtNtCsdze8u8oDPro_5alloc3vec16in_place_collect24write_in_place_with_dropTNtNtCsATtFUPiRFW_3syn2ty9BareFnArgNtNtB1j_5token5CommaEE0Cs7oyfuZDlTKn_11yoke_derive, symObjAddr: 0x4000, symBinAddr: 0xFE50, symSize: 0x7C }
  - { offset: 0x32855, size: 0x8, addend: 0x0, symName: __RNCINvNtNtCsdze8u8oDPro_5alloc3vec16in_place_collect24write_in_place_with_dropTNtNtCsATtFUPiRFW_3syn3pat3PatNtNtB1j_5token2OrEE0Cs7oyfuZDlTKn_11yoke_derive, symObjAddr: 0x407C, symBinAddr: 0xFECC, symSize: 0x7C }
  - { offset: 0x3290E, size: 0x8, addend: 0x0, symName: __RNCINvNtNtCsdze8u8oDPro_5alloc3vec16in_place_collect24write_in_place_with_dropTNtNtCsATtFUPiRFW_3syn3pat3PatNtNtB1j_5token5CommaEE0Cs7oyfuZDlTKn_11yoke_derive, symObjAddr: 0x40F8, symBinAddr: 0xFF48, symSize: 0x7C }
  - { offset: 0x329C7, size: 0x8, addend: 0x0, symName: __RNCINvNtNtCsdze8u8oDPro_5alloc3vec16in_place_collect24write_in_place_with_dropTNtNtCsATtFUPiRFW_3syn3pat8FieldPatNtNtB1j_5token5CommaEE0Cs7oyfuZDlTKn_11yoke_derive, symObjAddr: 0x4174, symBinAddr: 0xFFC4, symSize: 0x7C }
  - { offset: 0x32A80, size: 0x8, addend: 0x0, symName: __RNCINvNtNtCsdze8u8oDPro_5alloc3vec16in_place_collect24write_in_place_with_dropTNtNtCsATtFUPiRFW_3syn4data5FieldNtNtB1j_5token5CommaEE0Cs7oyfuZDlTKn_11yoke_derive, symObjAddr: 0x41F0, symBinAddr: 0x10040, symSize: 0x7C }
  - { offset: 0x32B39, size: 0x8, addend: 0x0, symName: __RNCINvNtNtCsdze8u8oDPro_5alloc3vec16in_place_collect24write_in_place_with_dropTNtNtCsATtFUPiRFW_3syn4data7VariantNtNtB1j_5token5CommaEE0Cs7oyfuZDlTKn_11yoke_derive, symObjAddr: 0x426C, symBinAddr: 0x100BC, symSize: 0x7C }
  - { offset: 0x32BF2, size: 0x8, addend: 0x0, symName: __RNCINvNtNtCsdze8u8oDPro_5alloc3vec16in_place_collect24write_in_place_with_dropTNtNtCsATtFUPiRFW_3syn4expr10FieldValueNtNtB1j_5token5CommaEE0Cs7oyfuZDlTKn_11yoke_derive, symObjAddr: 0x42E8, symBinAddr: 0x10138, symSize: 0x7C }
  - { offset: 0x32CAB, size: 0x8, addend: 0x0, symName: __RNCINvNtNtCsdze8u8oDPro_5alloc3vec16in_place_collect24write_in_place_with_dropTNtNtCsATtFUPiRFW_3syn4expr4ExprNtNtB1j_5token5CommaEE0Cs7oyfuZDlTKn_11yoke_derive, symObjAddr: 0x4364, symBinAddr: 0x101B4, symSize: 0x7C }
  - { offset: 0x32D64, size: 0x8, addend: 0x0, symName: __RNCINvNtNtCsdze8u8oDPro_5alloc3vec16in_place_collect24write_in_place_with_dropTNtNtCsATtFUPiRFW_3syn4item5FnArgNtNtB1j_5token5CommaEE0Cs7oyfuZDlTKn_11yoke_derive, symObjAddr: 0x43E0, symBinAddr: 0x10230, symSize: 0x7C }
  - { offset: 0x32E1D, size: 0x8, addend: 0x0, symName: __RNCINvNtNtCsdze8u8oDPro_5alloc3vec16in_place_collect24write_in_place_with_dropTNtNtCsATtFUPiRFW_3syn4item7UseTreeNtNtB1j_5token5CommaEE0Cs7oyfuZDlTKn_11yoke_derive, symObjAddr: 0x445C, symBinAddr: 0x102AC, symSize: 0x7C }
  - { offset: 0x32ED6, size: 0x8, addend: 0x0, symName: __RNCINvNtNtCsdze8u8oDPro_5alloc3vec16in_place_collect24write_in_place_with_dropTNtNtCsATtFUPiRFW_3syn4path11PathSegmentNtNtB1j_5token7PathSepEE0Cs7oyfuZDlTKn_11yoke_derive, symObjAddr: 0x44D8, symBinAddr: 0x10328, symSize: 0x7C }
  - { offset: 0x32F8F, size: 0x8, addend: 0x0, symName: __RNCINvNtNtCsdze8u8oDPro_5alloc3vec16in_place_collect24write_in_place_with_dropTNtNtCsATtFUPiRFW_3syn4path15GenericArgumentNtNtB1j_5token5CommaEE0Cs7oyfuZDlTKn_11yoke_derive, symObjAddr: 0x4554, symBinAddr: 0x103A4, symSize: 0x7C }
  - { offset: 0x33048, size: 0x8, addend: 0x0, symName: __RNCINvNtNtCsdze8u8oDPro_5alloc3vec16in_place_collect24write_in_place_with_dropTNtNtCsATtFUPiRFW_3syn8generics12GenericParamNtNtB1j_5token5CommaEE0Cs7oyfuZDlTKn_11yoke_derive, symObjAddr: 0x45D0, symBinAddr: 0x10420, symSize: 0x7C }
  - { offset: 0x33101, size: 0x8, addend: 0x0, symName: __RNCINvNtNtCsdze8u8oDPro_5alloc3vec16in_place_collect24write_in_place_with_dropTNtNtCsATtFUPiRFW_3syn8generics13CapturedParamNtNtB1j_5token5CommaEE0Cs7oyfuZDlTKn_11yoke_derive, symObjAddr: 0x464C, symBinAddr: 0x1049C, symSize: 0x7C }
  - { offset: 0x331BA, size: 0x8, addend: 0x0, symName: __RNCINvNtNtCsdze8u8oDPro_5alloc3vec16in_place_collect24write_in_place_with_dropTNtNtCsATtFUPiRFW_3syn8generics14TypeParamBoundNtNtB1j_5token4PlusEE0Cs7oyfuZDlTKn_11yoke_derive, symObjAddr: 0x46C8, symBinAddr: 0x10518, symSize: 0x7C }
  - { offset: 0x33273, size: 0x8, addend: 0x0, symName: __RNCINvNtNtCsdze8u8oDPro_5alloc3vec16in_place_collect24write_in_place_with_dropTNtNtCsATtFUPiRFW_3syn8generics14WherePredicateNtNtB1j_5token5CommaEE0Cs7oyfuZDlTKn_11yoke_derive, symObjAddr: 0x4744, symBinAddr: 0x10594, symSize: 0x7C }
  - { offset: 0x3332C, size: 0x8, addend: 0x0, symName: __RNCINvNtNtCsdze8u8oDPro_5alloc3vec16in_place_collect24write_in_place_with_dropTNtNtCsATtFUPiRFW_3syn8lifetime8LifetimeNtNtB1j_5token4PlusEE0Cs7oyfuZDlTKn_11yoke_derive, symObjAddr: 0x47C0, symBinAddr: 0x10610, symSize: 0x7C }
  - { offset: 0x3E39F, size: 0x8, addend: 0x0, symName: __RINvNtNtCsATtFUPiRFW_3syn3gen4fold10fold_blockNtNvCs7oyfuZDlTKn_11yoke_derive16replace_lifetime15ReplaceLifetimeEBM_, symObjAddr: 0x0, symBinAddr: 0x1068C, symSize: 0x90 }
  - { offset: 0x3ECF6, size: 0x8, addend: 0x0, symName: __RINvNtNtCsATtFUPiRFW_3syn3gen4fold10fold_blockNtNvCs7oyfuZDlTKn_11yoke_derive16replace_lifetime15ReplaceLifetimeEBM_, symObjAddr: 0x0, symBinAddr: 0x1068C, symSize: 0x90 }
  - { offset: 0x3ED3D, size: 0x8, addend: 0x0, symName: __RINvNtNtCsATtFUPiRFW_3syn3gen4fold10fold_fieldNtNvCs7oyfuZDlTKn_11yoke_derive16replace_lifetime15ReplaceLifetimeEBM_, symObjAddr: 0x90, symBinAddr: 0x1071C, symSize: 0x22C }
  - { offset: 0x3ED84, size: 0x8, addend: 0x0, symName: __RINvNtNtCsATtFUPiRFW_3syn3gen4fold10fold_identNtNvCs7oyfuZDlTKn_11yoke_derive16replace_lifetime15ReplaceLifetimeEBM_, symObjAddr: 0x2BC, symBinAddr: 0x10948, symSize: 0xB8 }
  - { offset: 0x3EDFE, size: 0x8, addend: 0x0, symName: __RINvNtNtCsATtFUPiRFW_3syn3gen4fold10fold_indexNtNvCs7oyfuZDlTKn_11yoke_derive16replace_lifetime15ReplaceLifetimeEBM_, symObjAddr: 0x374, symBinAddr: 0x10A00, symSize: 0x50 }
  - { offset: 0x3EE44, size: 0x8, addend: 0x0, symName: __RINvNtNtCsATtFUPiRFW_3syn3gen4fold10fold_labelNtNvCs7oyfuZDlTKn_11yoke_derive16replace_lifetime15ReplaceLifetimeEBM_, symObjAddr: 0x3C4, symBinAddr: 0x10A50, symSize: 0x80 }
  - { offset: 0x3EE8B, size: 0x8, addend: 0x0, symName: __RINvNtNtCsATtFUPiRFW_3syn3gen4fold10fold_localNtNvCs7oyfuZDlTKn_11yoke_derive16replace_lifetime15ReplaceLifetimeEBM_, symObjAddr: 0x444, symBinAddr: 0x10AD0, symSize: 0x1D8 }
  - { offset: 0x3EED2, size: 0x8, addend: 0x0, symName: __RINvNtNtCsATtFUPiRFW_3syn3gen4fold10fold_macroNtNvCs7oyfuZDlTKn_11yoke_derive16replace_lifetime15ReplaceLifetimeEBM_, symObjAddr: 0x61C, symBinAddr: 0x10CA8, symSize: 0x134 }
  - { offset: 0x3EF19, size: 0x8, addend: 0x0, symName: __RINvNtNtCsATtFUPiRFW_3syn3gen4fold10fold_qselfNtNvCs7oyfuZDlTKn_11yoke_derive16replace_lifetime15ReplaceLifetimeEBM_, symObjAddr: 0x750, symBinAddr: 0x10DDC, symSize: 0x1AC }
  - { offset: 0x3EF7F, size: 0x8, addend: 0x0, symName: __RINvNtNtCsATtFUPiRFW_3syn3gen4fold10fold_un_opNtNvCs7oyfuZDlTKn_11yoke_derive16replace_lifetime15ReplaceLifetimeEBM_, symObjAddr: 0x8FC, symBinAddr: 0x10F88, symSize: 0xCC }
  - { offset: 0x3F01C, size: 0x8, addend: 0x0, symName: __RINvNtNtCsATtFUPiRFW_3syn3gen4fold11fold_bin_opNtNvCs7oyfuZDlTKn_11yoke_derive16replace_lifetime15ReplaceLifetimeEBN_, symObjAddr: 0x9C8, symBinAddr: 0x11054, symSize: 0x6B0 }
  - { offset: 0x3F3A6, size: 0x8, addend: 0x0, symName: __RINvNtNtCsATtFUPiRFW_3syn3gen4fold11fold_fieldsNtNvCs7oyfuZDlTKn_11yoke_derive16replace_lifetime15ReplaceLifetimeEBN_, symObjAddr: 0x1078, symBinAddr: 0x11704, symSize: 0x14C }
  - { offset: 0x3F42B, size: 0x8, addend: 0x0, symName: __RINvNtNtCsATtFUPiRFW_3syn3gen4fold11fold_fn_argNtNvCs7oyfuZDlTKn_11yoke_derive16replace_lifetime15ReplaceLifetimeEBN_, symObjAddr: 0x11C4, symBinAddr: 0x11850, symSize: 0x10C }
  - { offset: 0x3F4A8, size: 0x8, addend: 0x0, symName: __RINvNtNtCsATtFUPiRFW_3syn3gen4fold11fold_memberNtNvCs7oyfuZDlTKn_11yoke_derive16replace_lifetime15ReplaceLifetimeEBN_, symObjAddr: 0x12D0, symBinAddr: 0x1195C, symSize: 0xD4 }
  - { offset: 0x3F522, size: 0x8, addend: 0x0, symName: __RINvNtNtCsATtFUPiRFW_3syn3gen4fold11fold_pat_orNtNvCs7oyfuZDlTKn_11yoke_derive16replace_lifetime15ReplaceLifetimeEBN_, symObjAddr: 0x13A4, symBinAddr: 0x11A30, symSize: 0x120 }
  - { offset: 0x3F569, size: 0x8, addend: 0x0, symName: __RINvNtNtCsATtFUPiRFW_3syn3gen4fold12fold_expr_ifNtNvCs7oyfuZDlTKn_11yoke_derive16replace_lifetime15ReplaceLifetimeEBO_, symObjAddr: 0x14C4, symBinAddr: 0x11B50, symSize: 0x2F0 }
  - { offset: 0x3F5CF, size: 0x8, addend: 0x0, symName: __RINvNtNtCsATtFUPiRFW_3syn3gen4fold12fold_item_fnNtNvCs7oyfuZDlTKn_11yoke_derive16replace_lifetime15ReplaceLifetimeEBO_, symObjAddr: 0x17B4, symBinAddr: 0x11E40, symSize: 0x2DC }
  - { offset: 0x3F635, size: 0x8, addend: 0x0, symName: __RINvNtNtCsATtFUPiRFW_3syn3gen4fold12fold_lit_intNtNvCs7oyfuZDlTKn_11yoke_derive16replace_lifetime15ReplaceLifetimeEBO_, symObjAddr: 0x1A90, symBinAddr: 0x1211C, symSize: 0xDC }
  - { offset: 0x3F6AE, size: 0x8, addend: 0x0, symName: __RINvNtNtCsATtFUPiRFW_3syn3gen4fold12fold_lit_strNtNvCs7oyfuZDlTKn_11yoke_derive16replace_lifetime15ReplaceLifetimeEBO_, symObjAddr: 0x1B6C, symBinAddr: 0x121F8, symSize: 0xDC }
  - { offset: 0x3F727, size: 0x8, addend: 0x0, symName: __RINvNtNtCsATtFUPiRFW_3syn3gen4fold12fold_variantNtNvCs7oyfuZDlTKn_11yoke_derive16replace_lifetime15ReplaceLifetimeEBO_, symObjAddr: 0x1C48, symBinAddr: 0x122D4, symSize: 0x228 }
  - { offset: 0x3F76E, size: 0x8, addend: 0x0, symName: __RINvNtNtCsATtFUPiRFW_3syn3gen4fold13fold_expr_letNtNvCs7oyfuZDlTKn_11yoke_derive16replace_lifetime15ReplaceLifetimeEBP_, symObjAddr: 0x1E70, symBinAddr: 0x124FC, symSize: 0x368 }
  - { offset: 0x3F7F4, size: 0x8, addend: 0x0, symName: __RINvNtNtCsATtFUPiRFW_3syn3gen4fold13fold_expr_litNtNvCs7oyfuZDlTKn_11yoke_derive16replace_lifetime15ReplaceLifetimeEBP_, symObjAddr: 0x21D8, symBinAddr: 0x12864, symSize: 0x110 }
  - { offset: 0x3F83B, size: 0x8, addend: 0x0, symName: __RINvNtNtCsATtFUPiRFW_3syn3gen4fold13fold_expr_tryNtNvCs7oyfuZDlTKn_11yoke_derive16replace_lifetime15ReplaceLifetimeEBP_, symObjAddr: 0x22E8, symBinAddr: 0x12974, symSize: 0x1E8 }
  - { offset: 0x3F8A1, size: 0x8, addend: 0x0, symName: __RINvNtNtCsATtFUPiRFW_3syn3gen4fold13fold_genericsNtNvCs7oyfuZDlTKn_11yoke_derive16replace_lifetime15ReplaceLifetimeEBP_, symObjAddr: 0x24D0, symBinAddr: 0x12B5C, symSize: 0x148 }
  - { offset: 0x3F8E8, size: 0x8, addend: 0x0, symName: __RINvNtNtCsATtFUPiRFW_3syn3gen4fold13fold_item_modNtNvCs7oyfuZDlTKn_11yoke_derive16replace_lifetime15ReplaceLifetimeEBP_, symObjAddr: 0x2618, symBinAddr: 0x12CA4, symSize: 0x264 }
  - { offset: 0x3F92F, size: 0x8, addend: 0x0, symName: __RINvNtNtCsATtFUPiRFW_3syn3gen4fold13fold_item_useNtNvCs7oyfuZDlTKn_11yoke_derive16replace_lifetime15ReplaceLifetimeEBP_, symObjAddr: 0x287C, symBinAddr: 0x12F08, symSize: 0x1E8 }
  - { offset: 0x3F976, size: 0x8, addend: 0x0, symName: __RINvNtNtCsATtFUPiRFW_3syn3gen4fold13fold_lit_boolNtNvCs7oyfuZDlTKn_11yoke_derive16replace_lifetime15ReplaceLifetimeEBP_, symObjAddr: 0x2A64, symBinAddr: 0x130F0, symSize: 0x44 }
  - { offset: 0x3F9BC, size: 0x8, addend: 0x0, symName: __RINvNtNtCsATtFUPiRFW_3syn3gen4fold13fold_lit_byteNtNvCs7oyfuZDlTKn_11yoke_derive16replace_lifetime15ReplaceLifetimeEBP_, symObjAddr: 0x2AA8, symBinAddr: 0x13134, symSize: 0xDC }
  - { offset: 0x3FA35, size: 0x8, addend: 0x0, symName: __RINvNtNtCsATtFUPiRFW_3syn3gen4fold13fold_lit_charNtNvCs7oyfuZDlTKn_11yoke_derive16replace_lifetime15ReplaceLifetimeEBP_, symObjAddr: 0x2B84, symBinAddr: 0x13210, symSize: 0xDC }
  - { offset: 0x3FAAE, size: 0x8, addend: 0x0, symName: __RINvNtNtCsATtFUPiRFW_3syn3gen4fold13fold_lit_cstrNtNvCs7oyfuZDlTKn_11yoke_derive16replace_lifetime15ReplaceLifetimeEBP_, symObjAddr: 0x2C60, symBinAddr: 0x132EC, symSize: 0xDC }
  - { offset: 0x3FB27, size: 0x8, addend: 0x0, symName: __RINvNtNtCsATtFUPiRFW_3syn3gen4fold13fold_pat_restNtNvCs7oyfuZDlTKn_11yoke_derive16replace_lifetime15ReplaceLifetimeEBP_, symObjAddr: 0x2D3C, symBinAddr: 0x133C8, symSize: 0x80 }
  - { offset: 0x3FB6E, size: 0x8, addend: 0x0, symName: __RINvNtNtCsATtFUPiRFW_3syn3gen4fold13fold_pat_typeNtNvCs7oyfuZDlTKn_11yoke_derive16replace_lifetime15ReplaceLifetimeEBP_, symObjAddr: 0x2DBC, symBinAddr: 0x13448, symSize: 0x35C }
  - { offset: 0x3FBF4, size: 0x8, addend: 0x0, symName: __RINvNtNtCsATtFUPiRFW_3syn3gen4fold13fold_pat_wildNtNvCs7oyfuZDlTKn_11yoke_derive16replace_lifetime15ReplaceLifetimeEBP_, symObjAddr: 0x3118, symBinAddr: 0x137A4, symSize: 0x80 }
  - { offset: 0x3FC3B, size: 0x8, addend: 0x0, symName: __RINvNtNtCsATtFUPiRFW_3syn3gen4fold13fold_receiverNtNvCs7oyfuZDlTKn_11yoke_derive16replace_lifetime15ReplaceLifetimeEBP_, symObjAddr: 0x3198, symBinAddr: 0x13824, symSize: 0x2A4 }
  - { offset: 0x3FCA1, size: 0x8, addend: 0x0, symName: __RINvNtNtCsATtFUPiRFW_3syn3gen4fold13fold_type_ptrNtNvCs7oyfuZDlTKn_11yoke_derive16replace_lifetime15ReplaceLifetimeEBP_, symObjAddr: 0x343C, symBinAddr: 0x13AC8, symSize: 0x1C4 }
  - { offset: 0x3FD07, size: 0x8, addend: 0x0, symName: __RINvNtNtCsATtFUPiRFW_3syn3gen4fold13fold_use_globNtNvCs7oyfuZDlTKn_11yoke_derive16replace_lifetime15ReplaceLifetimeEBP_, symObjAddr: 0x3600, symBinAddr: 0x13C8C, symSize: 0x40 }
  - { offset: 0x3FD4D, size: 0x8, addend: 0x0, symName: __RINvNtNtCsATtFUPiRFW_3syn3gen4fold13fold_use_nameNtNvCs7oyfuZDlTKn_11yoke_derive16replace_lifetime15ReplaceLifetimeEBP_, symObjAddr: 0x3640, symBinAddr: 0x13CCC, symSize: 0x68 }
  - { offset: 0x3FD94, size: 0x8, addend: 0x0, symName: __RINvNtNtCsATtFUPiRFW_3syn3gen4fold13fold_use_pathNtNvCs7oyfuZDlTKn_11yoke_derive16replace_lifetime15ReplaceLifetimeEBP_, symObjAddr: 0x36A8, symBinAddr: 0x13D34, symSize: 0x1E8 }
  - { offset: 0x3FDFA, size: 0x8, addend: 0x0, symName: __RINvNtNtCsATtFUPiRFW_3syn3gen4fold13fold_use_treeNtNvCs7oyfuZDlTKn_11yoke_derive16replace_lifetime15ReplaceLifetimeEBP_, symObjAddr: 0x3890, symBinAddr: 0x13F1C, symSize: 0x260 }
  - { offset: 0x3FED3, size: 0x8, addend: 0x0, symName: __RINvNtNtCsATtFUPiRFW_3syn3gen4fold13fold_variadicNtNvCs7oyfuZDlTKn_11yoke_derive16replace_lifetime15ReplaceLifetimeEBP_, symObjAddr: 0x3AF0, symBinAddr: 0x1417C, symSize: 0x134 }
  - { offset: 0x3FF1A, size: 0x8, addend: 0x0, symName: __RINvNtNtCsATtFUPiRFW_3syn3gen4fold14fold_attributeNtNvCs7oyfuZDlTKn_11yoke_derive16replace_lifetime15ReplaceLifetimeEBQ_, symObjAddr: 0x3C24, symBinAddr: 0x142B0, symSize: 0x14C }
  - { offset: 0x3FF61, size: 0x8, addend: 0x0, symName: __RINvNtNtCsATtFUPiRFW_3syn3gen4fold14fold_data_enumNtNvCs7oyfuZDlTKn_11yoke_derive16replace_lifetime15ReplaceLifetimeEBQ_, symObjAddr: 0x3D70, symBinAddr: 0x143FC, symSize: 0xA0 }
  - { offset: 0x3FFA8, size: 0x8, addend: 0x0, symName: __RINvNtNtCsATtFUPiRFW_3syn3gen4fold14fold_expr_callNtNvCs7oyfuZDlTKn_11yoke_derive16replace_lifetime15ReplaceLifetimeEBQ_, symObjAddr: 0x3E10, symBinAddr: 0x1449C, symSize: 0x28C }
  - { offset: 0x4000E, size: 0x8, addend: 0x0, symName: __RINvNtNtCsATtFUPiRFW_3syn3gen4fold14fold_expr_castNtNvCs7oyfuZDlTKn_11yoke_derive16replace_lifetime15ReplaceLifetimeEBQ_, symObjAddr: 0x409C, symBinAddr: 0x14728, symSize: 0x35C }
  - { offset: 0x40094, size: 0x8, addend: 0x0, symName: __RINvNtNtCsATtFUPiRFW_3syn3gen4fold14fold_expr_loopNtNvCs7oyfuZDlTKn_11yoke_derive16replace_lifetime15ReplaceLifetimeEBQ_, symObjAddr: 0x43F8, symBinAddr: 0x14A84, symSize: 0x1C0 }
  - { offset: 0x400DB, size: 0x8, addend: 0x0, symName: __RINvNtNtCsATtFUPiRFW_3syn3gen4fold14fold_expr_pathNtNvCs7oyfuZDlTKn_11yoke_derive16replace_lifetime15ReplaceLifetimeEBQ_, symObjAddr: 0x45B8, symBinAddr: 0x14C44, symSize: 0x1A0 }
  - { offset: 0x40122, size: 0x8, addend: 0x0, symName: __RINvNtNtCsATtFUPiRFW_3syn3gen4fold14fold_field_patNtNvCs7oyfuZDlTKn_11yoke_derive16replace_lifetime15ReplaceLifetimeEBQ_, symObjAddr: 0x4758, symBinAddr: 0x14DE4, symSize: 0x264 }
  - { offset: 0x40188, size: 0x8, addend: 0x0, symName: __RINvNtNtCsATtFUPiRFW_3syn3gen4fold14fold_impl_itemNtNvCs7oyfuZDlTKn_11yoke_derive16replace_lifetime15ReplaceLifetimeEBQ_, symObjAddr: 0x49BC, symBinAddr: 0x15048, symSize: 0x268 }
  - { offset: 0x40261, size: 0x8, addend: 0x0, symName: __RINvNtNtCsATtFUPiRFW_3syn3gen4fold14fold_item_enumNtNvCs7oyfuZDlTKn_11yoke_derive16replace_lifetime15ReplaceLifetimeEBQ_, symObjAddr: 0x4C24, symBinAddr: 0x152B0, symSize: 0x2E0 }
  - { offset: 0x402A8, size: 0x8, addend: 0x0, symName: __RINvNtNtCsATtFUPiRFW_3syn3gen4fold14fold_item_implNtNvCs7oyfuZDlTKn_11yoke_derive16replace_lifetime15ReplaceLifetimeEBQ_, symObjAddr: 0x4F04, symBinAddr: 0x15590, symSize: 0x3E8 }
  - { offset: 0x4030E, size: 0x8, addend: 0x0, symName: __RINvNtNtCsATtFUPiRFW_3syn3gen4fold14fold_item_typeNtNvCs7oyfuZDlTKn_11yoke_derive16replace_lifetime15ReplaceLifetimeEBQ_, symObjAddr: 0x52EC, symBinAddr: 0x15978, symSize: 0x390 }
  - { offset: 0x40374, size: 0x8, addend: 0x0, symName: __RINvNtNtCsATtFUPiRFW_3syn3gen4fold14fold_lit_floatNtNvCs7oyfuZDlTKn_11yoke_derive16replace_lifetime15ReplaceLifetimeEBQ_, symObjAddr: 0x567C, symBinAddr: 0x15D08, symSize: 0xDC }
  - { offset: 0x403ED, size: 0x8, addend: 0x0, symName: __RINvNtNtCsATtFUPiRFW_3syn3gen4fold14fold_meta_listNtNvCs7oyfuZDlTKn_11yoke_derive16replace_lifetime15ReplaceLifetimeEBQ_, symObjAddr: 0x5758, symBinAddr: 0x15DE4, symSize: 0x10C }
  - { offset: 0x40434, size: 0x8, addend: 0x0, symName: __RINvNtNtCsATtFUPiRFW_3syn3gen4fold14fold_pat_identNtNvCs7oyfuZDlTKn_11yoke_derive16replace_lifetime15ReplaceLifetimeEBQ_, symObjAddr: 0x5864, symBinAddr: 0x15EF0, symSize: 0x1BC }
  - { offset: 0x4047B, size: 0x8, addend: 0x0, symName: __RINvNtNtCsATtFUPiRFW_3syn3gen4fold14fold_pat_parenNtNvCs7oyfuZDlTKn_11yoke_derive16replace_lifetime15ReplaceLifetimeEBQ_, symObjAddr: 0x5A20, symBinAddr: 0x160AC, symSize: 0x1F8 }
  - { offset: 0x404E1, size: 0x8, addend: 0x0, symName: __RINvNtNtCsATtFUPiRFW_3syn3gen4fold14fold_pat_sliceNtNvCs7oyfuZDlTKn_11yoke_derive16replace_lifetime15ReplaceLifetimeEBQ_, symObjAddr: 0x5C18, symBinAddr: 0x162A4, symSize: 0x130 }
  - { offset: 0x40528, size: 0x8, addend: 0x0, symName: __RINvNtNtCsATtFUPiRFW_3syn3gen4fold14fold_pat_tupleNtNvCs7oyfuZDlTKn_11yoke_derive16replace_lifetime15ReplaceLifetimeEBQ_, symObjAddr: 0x5D48, symBinAddr: 0x163D4, symSize: 0x130 }
  - { offset: 0x4056F, size: 0x8, addend: 0x0, symName: __RINvNtNtCsATtFUPiRFW_3syn3gen4fold14fold_signatureNtNvCs7oyfuZDlTKn_11yoke_derive16replace_lifetime15ReplaceLifetimeEBQ_, symObjAddr: 0x5E78, symBinAddr: 0x16504, symSize: 0x3CC }
  - { offset: 0x405B6, size: 0x8, addend: 0x0, symName: __RINvNtNtCsATtFUPiRFW_3syn3gen4fold14fold_type_pathNtNvCs7oyfuZDlTKn_11yoke_derive16replace_lifetime15ReplaceLifetimeEBQ_, symObjAddr: 0x6244, symBinAddr: 0x168D0, symSize: 0x114 }
  - { offset: 0x405FD, size: 0x8, addend: 0x0, symName: __RINvNtNtCsATtFUPiRFW_3syn3gen4fold14fold_use_groupNtNvCs7oyfuZDlTKn_11yoke_derive16replace_lifetime15ReplaceLifetimeEBQ_, symObjAddr: 0x6358, symBinAddr: 0x169E4, symSize: 0x90 }
  - { offset: 0x40644, size: 0x8, addend: 0x0, symName: __RINvNtNtCsATtFUPiRFW_3syn3gen4fold15fold_assoc_typeNtNvCs7oyfuZDlTKn_11yoke_derive16replace_lifetime15ReplaceLifetimeEBR_, symObjAddr: 0x63E8, symBinAddr: 0x16A74, symSize: 0x1BC }
  - { offset: 0x4068B, size: 0x8, addend: 0x0, symName: __RINvNtNtCsATtFUPiRFW_3syn3gen4fold15fold_attr_styleNtNvCs7oyfuZDlTKn_11yoke_derive16replace_lifetime15ReplaceLifetimeEBR_, symObjAddr: 0x65A4, symBinAddr: 0x16C30, symSize: 0x74 }
  - { offset: 0x406EE, size: 0x8, addend: 0x0, symName: __RINvNtNtCsATtFUPiRFW_3syn3gen4fold15fold_constraintNtNvCs7oyfuZDlTKn_11yoke_derive16replace_lifetime15ReplaceLifetimeEBR_, symObjAddr: 0x6618, symBinAddr: 0x16CA4, symSize: 0x1C0 }
  - { offset: 0x40735, size: 0x8, addend: 0x0, symName: __RINvNtNtCsATtFUPiRFW_3syn3gen4fold15fold_data_unionNtNvCs7oyfuZDlTKn_11yoke_derive16replace_lifetime15ReplaceLifetimeEBR_, symObjAddr: 0x67D8, symBinAddr: 0x16E64, symSize: 0x80 }
  - { offset: 0x4077C, size: 0x8, addend: 0x0, symName: __RINvNtNtCsATtFUPiRFW_3syn3gen4fold15fold_expr_arrayNtNvCs7oyfuZDlTKn_11yoke_derive16replace_lifetime15ReplaceLifetimeEBR_, symObjAddr: 0x6858, symBinAddr: 0x16EE4, symSize: 0x130 }
  - { offset: 0x407C3, size: 0x8, addend: 0x0, symName: __RINvNtNtCsATtFUPiRFW_3syn3gen4fold15fold_expr_asyncNtNvCs7oyfuZDlTKn_11yoke_derive16replace_lifetime15ReplaceLifetimeEBR_, symObjAddr: 0x6988, symBinAddr: 0x17014, symSize: 0x14C }
  - { offset: 0x4080A, size: 0x8, addend: 0x0, symName: __RINvNtNtCsATtFUPiRFW_3syn3gen4fold15fold_expr_awaitNtNvCs7oyfuZDlTKn_11yoke_derive16replace_lifetime15ReplaceLifetimeEBR_, symObjAddr: 0x6AD4, symBinAddr: 0x17160, symSize: 0x1F0 }
  - { offset: 0x40870, size: 0x8, addend: 0x0, symName: __RINvNtNtCsATtFUPiRFW_3syn3gen4fold15fold_expr_blockNtNvCs7oyfuZDlTKn_11yoke_derive16replace_lifetime15ReplaceLifetimeEBR_, symObjAddr: 0x6CC4, symBinAddr: 0x17350, symSize: 0x1B0 }
  - { offset: 0x408B7, size: 0x8, addend: 0x0, symName: __RINvNtNtCsATtFUPiRFW_3syn3gen4fold15fold_expr_breakNtNvCs7oyfuZDlTKn_11yoke_derive16replace_lifetime15ReplaceLifetimeEBR_, symObjAddr: 0x6E74, symBinAddr: 0x17500, symSize: 0x184 }
  - { offset: 0x408FE, size: 0x8, addend: 0x0, symName: __RINvNtNtCsATtFUPiRFW_3syn3gen4fold15fold_expr_constNtNvCs7oyfuZDlTKn_11yoke_derive16replace_lifetime15ReplaceLifetimeEBR_, symObjAddr: 0x6FF8, symBinAddr: 0x17684, symSize: 0x12C }
  - { offset: 0x40945, size: 0x8, addend: 0x0, symName: __RINvNtNtCsATtFUPiRFW_3syn3gen4fold15fold_expr_fieldNtNvCs7oyfuZDlTKn_11yoke_derive16replace_lifetime15ReplaceLifetimeEBR_, symObjAddr: 0x7124, symBinAddr: 0x177B0, symSize: 0x26C }
  - { offset: 0x409AB, size: 0x8, addend: 0x0, symName: __RINvNtNtCsATtFUPiRFW_3syn3gen4fold15fold_expr_groupNtNvCs7oyfuZDlTKn_11yoke_derive16replace_lifetime15ReplaceLifetimeEBR_, symObjAddr: 0x7390, symBinAddr: 0x17A1C, symSize: 0x1E8 }
  - { offset: 0x40A11, size: 0x8, addend: 0x0, symName: __RINvNtNtCsATtFUPiRFW_3syn3gen4fold15fold_expr_indexNtNvCs7oyfuZDlTKn_11yoke_derive16replace_lifetime15ReplaceLifetimeEBR_, symObjAddr: 0x7578, symBinAddr: 0x17C04, symSize: 0x368 }
  - { offset: 0x40A97, size: 0x8, addend: 0x0, symName: __RINvNtNtCsATtFUPiRFW_3syn3gen4fold15fold_expr_inferNtNvCs7oyfuZDlTKn_11yoke_derive16replace_lifetime15ReplaceLifetimeEBR_, symObjAddr: 0x78E0, symBinAddr: 0x17F6C, symSize: 0x80 }
  - { offset: 0x40ADE, size: 0x8, addend: 0x0, symName: __RINvNtNtCsATtFUPiRFW_3syn3gen4fold15fold_expr_macroNtNvCs7oyfuZDlTKn_11yoke_derive16replace_lifetime15ReplaceLifetimeEBR_, symObjAddr: 0x7960, symBinAddr: 0x17FEC, symSize: 0x124 }
  - { offset: 0x40B25, size: 0x8, addend: 0x0, symName: __RINvNtNtCsATtFUPiRFW_3syn3gen4fold15fold_expr_matchNtNvCs7oyfuZDlTKn_11yoke_derive16replace_lifetime15ReplaceLifetimeEBR_, symObjAddr: 0x7A84, symBinAddr: 0x18110, symSize: 0x28C }
  - { offset: 0x40B8B, size: 0x8, addend: 0x0, symName: __RINvNtNtCsATtFUPiRFW_3syn3gen4fold15fold_expr_parenNtNvCs7oyfuZDlTKn_11yoke_derive16replace_lifetime15ReplaceLifetimeEBR_, symObjAddr: 0x7D10, symBinAddr: 0x1839C, symSize: 0x1F8 }
  - { offset: 0x40BF1, size: 0x8, addend: 0x0, symName: __RINvNtNtCsATtFUPiRFW_3syn3gen4fold15fold_expr_rangeNtNvCs7oyfuZDlTKn_11yoke_derive16replace_lifetime15ReplaceLifetimeEBR_, symObjAddr: 0x7F08, symBinAddr: 0x18594, symSize: 0x18C }
  - { offset: 0x40C38, size: 0x8, addend: 0x0, symName: __RINvNtNtCsATtFUPiRFW_3syn3gen4fold15fold_expr_tupleNtNvCs7oyfuZDlTKn_11yoke_derive16replace_lifetime15ReplaceLifetimeEBR_, symObjAddr: 0x8094, symBinAddr: 0x18720, symSize: 0x130 }
  - { offset: 0x40C7F, size: 0x8, addend: 0x0, symName: __RINvNtNtCsATtFUPiRFW_3syn3gen4fold15fold_expr_unaryNtNvCs7oyfuZDlTKn_11yoke_derive16replace_lifetime15ReplaceLifetimeEBR_, symObjAddr: 0x81C4, symBinAddr: 0x18850, symSize: 0x218 }
  - { offset: 0x40CE6, size: 0x8, addend: 0x0, symName: __RINvNtNtCsATtFUPiRFW_3syn3gen4fold15fold_expr_whileNtNvCs7oyfuZDlTKn_11yoke_derive16replace_lifetime15ReplaceLifetimeEBR_, symObjAddr: 0x83DC, symBinAddr: 0x18A68, symSize: 0x304 }
  - { offset: 0x40D4C, size: 0x8, addend: 0x0, symName: __RINvNtNtCsATtFUPiRFW_3syn3gen4fold15fold_expr_yieldNtNvCs7oyfuZDlTKn_11yoke_derive16replace_lifetime15ReplaceLifetimeEBR_, symObjAddr: 0x86E0, symBinAddr: 0x18D6C, symSize: 0x108 }
  - { offset: 0x40D93, size: 0x8, addend: 0x0, symName: __RINvNtNtCsATtFUPiRFW_3syn3gen4fold15fold_item_constNtNvCs7oyfuZDlTKn_11yoke_derive16replace_lifetime15ReplaceLifetimeEBR_, symObjAddr: 0x87E8, symBinAddr: 0x18E74, symSize: 0x514 }
  - { offset: 0x40E19, size: 0x8, addend: 0x0, symName: __RINvNtNtCsATtFUPiRFW_3syn3gen4fold15fold_item_macroNtNvCs7oyfuZDlTKn_11yoke_derive16replace_lifetime15ReplaceLifetimeEBR_, symObjAddr: 0x8CFC, symBinAddr: 0x19388, symSize: 0x1B8 }
  - { offset: 0x40E60, size: 0x8, addend: 0x0, symName: __RINvNtNtCsATtFUPiRFW_3syn3gen4fold15fold_item_traitNtNvCs7oyfuZDlTKn_11yoke_derive16replace_lifetime15ReplaceLifetimeEBR_, symObjAddr: 0x8EB4, symBinAddr: 0x19540, symSize: 0x3C0 }
  - { offset: 0x40EA7, size: 0x8, addend: 0x0, symName: __RINvNtNtCsATtFUPiRFW_3syn3gen4fold15fold_item_unionNtNvCs7oyfuZDlTKn_11yoke_derive16replace_lifetime15ReplaceLifetimeEBR_, symObjAddr: 0x9274, symBinAddr: 0x19900, symSize: 0x2B8 }
  - { offset: 0x40EEE, size: 0x8, addend: 0x0, symName: __RINvNtNtCsATtFUPiRFW_3syn3gen4fold15fold_local_initNtNvCs7oyfuZDlTKn_11yoke_derive16replace_lifetime15ReplaceLifetimeEBR_, symObjAddr: 0x952C, symBinAddr: 0x19BB8, symSize: 0x200 }
  - { offset: 0x40F54, size: 0x8, addend: 0x0, symName: __RINvNtNtCsATtFUPiRFW_3syn3gen4fold15fold_pat_structNtNvCs7oyfuZDlTKn_11yoke_derive16replace_lifetime15ReplaceLifetimeEBR_, symObjAddr: 0x972C, symBinAddr: 0x19DB8, symSize: 0x2D0 }
  - { offset: 0x40F9B, size: 0x8, addend: 0x0, symName: __RINvNtNtCsATtFUPiRFW_3syn3gen4fold15fold_stmt_macroNtNvCs7oyfuZDlTKn_11yoke_derive16replace_lifetime15ReplaceLifetimeEBR_, symObjAddr: 0x99FC, symBinAddr: 0x1A088, symSize: 0x13C }
  - { offset: 0x40FE2, size: 0x8, addend: 0x0, symName: __RINvNtNtCsATtFUPiRFW_3syn3gen4fold15fold_trait_itemNtNvCs7oyfuZDlTKn_11yoke_derive16replace_lifetime15ReplaceLifetimeEBR_, symObjAddr: 0x9B38, symBinAddr: 0x1A1C4, symSize: 0x268 }
  - { offset: 0x410BB, size: 0x8, addend: 0x0, symName: __RINvNtNtCsATtFUPiRFW_3syn3gen4fold15fold_type_arrayNtNvCs7oyfuZDlTKn_11yoke_derive16replace_lifetime15ReplaceLifetimeEBR_, symObjAddr: 0x9DA0, symBinAddr: 0x1A42C, symSize: 0x20C }
  - { offset: 0x41121, size: 0x8, addend: 0x0, symName: __RINvNtNtCsATtFUPiRFW_3syn3gen4fold15fold_type_groupNtNvCs7oyfuZDlTKn_11yoke_derive16replace_lifetime15ReplaceLifetimeEBR_, symObjAddr: 0x9FAC, symBinAddr: 0x1A638, symSize: 0x150 }
  - { offset: 0x41186, size: 0x8, addend: 0x0, symName: __RINvNtNtCsATtFUPiRFW_3syn3gen4fold15fold_type_inferNtNvCs7oyfuZDlTKn_11yoke_derive16replace_lifetime15ReplaceLifetimeEBR_, symObjAddr: 0xA0FC, symBinAddr: 0x1A788, symSize: 0x40 }
  - { offset: 0x411CC, size: 0x8, addend: 0x0, symName: __RINvNtNtCsATtFUPiRFW_3syn3gen4fold15fold_type_macroNtNvCs7oyfuZDlTKn_11yoke_derive16replace_lifetime15ReplaceLifetimeEBR_, symObjAddr: 0xA13C, symBinAddr: 0x1A7C8, symSize: 0x78 }
  - { offset: 0x41213, size: 0x8, addend: 0x0, symName: __RINvNtNtCsATtFUPiRFW_3syn3gen4fold15fold_type_neverNtNvCs7oyfuZDlTKn_11yoke_derive16replace_lifetime15ReplaceLifetimeEBR_, symObjAddr: 0xA1B4, symBinAddr: 0x1A840, symSize: 0x40 }
  - { offset: 0x41259, size: 0x8, addend: 0x0, symName: __RINvNtNtCsATtFUPiRFW_3syn3gen4fold15fold_type_paramNtNvCs7oyfuZDlTKn_11yoke_derive16replace_lifetime15ReplaceLifetimeEBR_, symObjAddr: 0xA1F4, symBinAddr: 0x1A880, symSize: 0x24C }
  - { offset: 0x412A0, size: 0x8, addend: 0x0, symName: __RINvNtNtCsATtFUPiRFW_3syn3gen4fold15fold_type_parenNtNvCs7oyfuZDlTKn_11yoke_derive16replace_lifetime15ReplaceLifetimeEBR_, symObjAddr: 0xA440, symBinAddr: 0x1AACC, symSize: 0x16C }
  - { offset: 0x41306, size: 0x8, addend: 0x0, symName: __RINvNtNtCsATtFUPiRFW_3syn3gen4fold15fold_type_sliceNtNvCs7oyfuZDlTKn_11yoke_derive16replace_lifetime15ReplaceLifetimeEBR_, symObjAddr: 0xA5AC, symBinAddr: 0x1AC38, symSize: 0x16C }
  - { offset: 0x4136C, size: 0x8, addend: 0x0, symName: __RINvNtNtCsATtFUPiRFW_3syn3gen4fold15fold_type_tupleNtNvCs7oyfuZDlTKn_11yoke_derive16replace_lifetime15ReplaceLifetimeEBR_, symObjAddr: 0xA718, symBinAddr: 0x1ADA4, symSize: 0x90 }
  - { offset: 0x413B3, size: 0x8, addend: 0x0, symName: __RINvNtNtCsATtFUPiRFW_3syn3gen4fold15fold_use_renameNtNvCs7oyfuZDlTKn_11yoke_derive16replace_lifetime15ReplaceLifetimeEBR_, symObjAddr: 0xA7A8, symBinAddr: 0x1AE34, symSize: 0x120 }
  - { offset: 0x413FA, size: 0x8, addend: 0x0, symName: __RINvNtNtCsATtFUPiRFW_3syn3gen4fold15fold_visibilityNtNvCs7oyfuZDlTKn_11yoke_derive16replace_lifetime15ReplaceLifetimeEBR_, symObjAddr: 0xA8C8, symBinAddr: 0x1AF54, symSize: 0x100 }
  - { offset: 0x4147C, size: 0x8, addend: 0x0, symName: __RINvNtNtCsATtFUPiRFW_3syn3gen4fold16fold_assoc_constNtNvCs7oyfuZDlTKn_11yoke_derive16replace_lifetime15ReplaceLifetimeEBS_, symObjAddr: 0xA9C8, symBinAddr: 0x1B054, symSize: 0x1B4 }
  - { offset: 0x414C3, size: 0x8, addend: 0x0, symName: __RINvNtNtCsATtFUPiRFW_3syn3gen4fold16fold_bare_fn_argNtNvCs7oyfuZDlTKn_11yoke_derive16replace_lifetime15ReplaceLifetimeEBS_, symObjAddr: 0xAB7C, symBinAddr: 0x1B208, symSize: 0x19C }
  - { offset: 0x4150A, size: 0x8, addend: 0x0, symName: __RINvNtNtCsATtFUPiRFW_3syn3gen4fold16fold_const_paramNtNvCs7oyfuZDlTKn_11yoke_derive16replace_lifetime15ReplaceLifetimeEBS_, symObjAddr: 0xAD18, symBinAddr: 0x1B3A4, symSize: 0x250 }
  - { offset: 0x41551, size: 0x8, addend: 0x0, symName: __RINvNtNtCsATtFUPiRFW_3syn3gen4fold16fold_data_structNtNvCs7oyfuZDlTKn_11yoke_derive16replace_lifetime15ReplaceLifetimeEBS_, symObjAddr: 0xAF68, symBinAddr: 0x1B5F4, symSize: 0x9C }
  - { offset: 0x41598, size: 0x8, addend: 0x0, symName: __RINvNtNtCsATtFUPiRFW_3syn3gen4fold16fold_expr_assignNtNvCs7oyfuZDlTKn_11yoke_derive16replace_lifetime15ReplaceLifetimeEBS_, symObjAddr: 0xB004, symBinAddr: 0x1B690, symSize: 0x358 }
  - { offset: 0x4161E, size: 0x8, addend: 0x0, symName: __RINvNtNtCsATtFUPiRFW_3syn3gen4fold16fold_expr_binaryNtNvCs7oyfuZDlTKn_11yoke_derive16replace_lifetime15ReplaceLifetimeEBS_, symObjAddr: 0xB35C, symBinAddr: 0x1B9E8, symSize: 0x380 }
  - { offset: 0x416A4, size: 0x8, addend: 0x0, symName: __RINvNtNtCsATtFUPiRFW_3syn3gen4fold16fold_expr_repeatNtNvCs7oyfuZDlTKn_11yoke_derive16replace_lifetime15ReplaceLifetimeEBS_, symObjAddr: 0xB6DC, symBinAddr: 0x1BD68, symSize: 0x378 }
  - { offset: 0x4172A, size: 0x8, addend: 0x0, symName: __RINvNtNtCsATtFUPiRFW_3syn3gen4fold16fold_expr_returnNtNvCs7oyfuZDlTKn_11yoke_derive16replace_lifetime15ReplaceLifetimeEBS_, symObjAddr: 0xBA54, symBinAddr: 0x1C0E0, symSize: 0x108 }
  - { offset: 0x41771, size: 0x8, addend: 0x0, symName: __RINvNtNtCsATtFUPiRFW_3syn3gen4fold16fold_expr_structNtNvCs7oyfuZDlTKn_11yoke_derive16replace_lifetime15ReplaceLifetimeEBS_, symObjAddr: 0xBB5C, symBinAddr: 0x1C1E8, symSize: 0x2D4 }
  - { offset: 0x417B8, size: 0x8, addend: 0x0, symName: __RINvNtNtCsATtFUPiRFW_3syn3gen4fold16fold_expr_unsafeNtNvCs7oyfuZDlTKn_11yoke_derive16replace_lifetime15ReplaceLifetimeEBS_, symObjAddr: 0xBE30, symBinAddr: 0x1C4BC, symSize: 0x12C }
  - { offset: 0x417FF, size: 0x8, addend: 0x0, symName: __RINvNtNtCsATtFUPiRFW_3syn3gen4fold16fold_field_valueNtNvCs7oyfuZDlTKn_11yoke_derive16replace_lifetime15ReplaceLifetimeEBS_, symObjAddr: 0xBF5C, symBinAddr: 0x1C5E8, symSize: 0x1A4 }
  - { offset: 0x41846, size: 0x8, addend: 0x0, symName: __RINvNtNtCsATtFUPiRFW_3syn3gen4fold16fold_item_staticNtNvCs7oyfuZDlTKn_11yoke_derive16replace_lifetime15ReplaceLifetimeEBS_, symObjAddr: 0xC100, symBinAddr: 0x1C78C, symSize: 0x4B4 }
  - { offset: 0x418CC, size: 0x8, addend: 0x0, symName: __RINvNtNtCsATtFUPiRFW_3syn3gen4fold16fold_item_structNtNvCs7oyfuZDlTKn_11yoke_derive16replace_lifetime15ReplaceLifetimeEBS_, symObjAddr: 0xC5B4, symBinAddr: 0x1CC40, symSize: 0x2C4 }
  - { offset: 0x41913, size: 0x8, addend: 0x0, symName: __RINvNtNtCsATtFUPiRFW_3syn3gen4fold16fold_return_typeNtNvCs7oyfuZDlTKn_11yoke_derive16replace_lifetime15ReplaceLifetimeEBS_, symObjAddr: 0xC878, symBinAddr: 0x1CF04, symSize: 0x1A0 }
  - { offset: 0x419A0, size: 0x8, addend: 0x0, symName: __RINvNtNtCsATtFUPiRFW_3syn3gen4fold16fold_trait_boundNtNvCs7oyfuZDlTKn_11yoke_derive16replace_lifetime15ReplaceLifetimeEBS_, symObjAddr: 0xCA18, symBinAddr: 0x1D0A4, symSize: 0x19C }
  - { offset: 0x419E7, size: 0x8, addend: 0x0, symName: __RINvNtNtCsATtFUPiRFW_3syn3gen4fold17fold_derive_inputNtNvCs7oyfuZDlTKn_11yoke_derive16replace_lifetime15ReplaceLifetimeEBT_, symObjAddr: 0xCBB4, symBinAddr: 0x1D240, symSize: 0x29C }
  - { offset: 0x41A2E, size: 0x8, addend: 0x0, symName: __RINvNtNtCsATtFUPiRFW_3syn3gen4fold17fold_expr_closureNtNvCs7oyfuZDlTKn_11yoke_derive16replace_lifetime15ReplaceLifetimeEBT_, symObjAddr: 0xCE50, symBinAddr: 0x1D4DC, symSize: 0x400 }
  - { offset: 0x41A94, size: 0x8, addend: 0x0, symName: __RINvNtNtCsATtFUPiRFW_3syn3gen4fold17fold_fields_namedNtNvCs7oyfuZDlTKn_11yoke_derive16replace_lifetime15ReplaceLifetimeEBT_, symObjAddr: 0xD250, symBinAddr: 0x1D8DC, symSize: 0x90 }
  - { offset: 0x41ADB, size: 0x8, addend: 0x0, symName: __RINvNtNtCsATtFUPiRFW_3syn3gen4fold17fold_foreign_itemNtNvCs7oyfuZDlTKn_11yoke_derive16replace_lifetime15ReplaceLifetimeEBT_, symObjAddr: 0xD2E0, symBinAddr: 0x1D96C, symSize: 0x268 }
  - { offset: 0x41BB4, size: 0x8, addend: 0x0, symName: __RINvNtNtCsATtFUPiRFW_3syn3gen4fold17fold_impl_item_fnNtNvCs7oyfuZDlTKn_11yoke_derive16replace_lifetime15ReplaceLifetimeEBT_, symObjAddr: 0xD548, symBinAddr: 0x1DBD4, symSize: 0x248 }
  - { offset: 0x41BFB, size: 0x8, addend: 0x0, symName: __RINvNtNtCsATtFUPiRFW_3syn3gen4fold17fold_lit_byte_strNtNvCs7oyfuZDlTKn_11yoke_derive16replace_lifetime15ReplaceLifetimeEBT_, symObjAddr: 0xD790, symBinAddr: 0x1DE1C, symSize: 0xDC }
  - { offset: 0x41C74, size: 0x8, addend: 0x0, symName: __RINvNtNtCsATtFUPiRFW_3syn3gen4fold17fold_path_segmentNtNvCs7oyfuZDlTKn_11yoke_derive16replace_lifetime15ReplaceLifetimeEBT_, symObjAddr: 0xD86C, symBinAddr: 0x1DEF8, symSize: 0x118 }
  - { offset: 0x41CBB, size: 0x8, addend: 0x0, symName: __RINvNtNtCsATtFUPiRFW_3syn3gen4fold17fold_range_limitsNtNvCs7oyfuZDlTKn_11yoke_derive16replace_lifetime15ReplaceLifetimeEBT_, symObjAddr: 0xD984, symBinAddr: 0x1E010, symSize: 0x9C }
  - { offset: 0x41D3C, size: 0x8, addend: 0x0, symName: __RINvNtNtCsATtFUPiRFW_3syn3gen4fold17fold_type_bare_fnNtNvCs7oyfuZDlTKn_11yoke_derive16replace_lifetime15ReplaceLifetimeEBT_, symObjAddr: 0xDA20, symBinAddr: 0x1E0AC, symSize: 0x2FC }
  - { offset: 0x41D83, size: 0x8, addend: 0x0, symName: __RINvNtNtCsATtFUPiRFW_3syn3gen4fold17fold_where_clauseNtNvCs7oyfuZDlTKn_11yoke_derive16replace_lifetime15ReplaceLifetimeEBT_, symObjAddr: 0xDD1C, symBinAddr: 0x1E3A8, symSize: 0x80 }
  - { offset: 0x41DCA, size: 0x8, addend: 0x0, symName: __RINvNtNtCsATtFUPiRFW_3syn3gen4fold18fold_bare_variadicNtNvCs7oyfuZDlTKn_11yoke_derive16replace_lifetime15ReplaceLifetimeEBU_, symObjAddr: 0xDD9C, symBinAddr: 0x1E428, symSize: 0x144 }
  - { offset: 0x41E11, size: 0x8, addend: 0x0, symName: __RINvNtNtCsATtFUPiRFW_3syn3gen4fold18fold_expr_continueNtNvCs7oyfuZDlTKn_11yoke_derive16replace_lifetime15ReplaceLifetimeEBU_, symObjAddr: 0xDEE0, symBinAddr: 0x1E56C, symSize: 0x120 }
  - { offset: 0x41E58, size: 0x8, addend: 0x0, symName: __RINvNtNtCsATtFUPiRFW_3syn3gen4fold18fold_expr_for_loopNtNvCs7oyfuZDlTKn_11yoke_derive16replace_lifetime15ReplaceLifetimeEBU_, symObjAddr: 0xE000, symBinAddr: 0x1E68C, symSize: 0x484 }
  - { offset: 0x41EDE, size: 0x8, addend: 0x0, symName: __RINvNtNtCsATtFUPiRFW_3syn3gen4fold18fold_expr_raw_addrNtNvCs7oyfuZDlTKn_11yoke_derive16replace_lifetime15ReplaceLifetimeEBU_, symObjAddr: 0xE484, symBinAddr: 0x1EB10, symSize: 0x228 }
  - { offset: 0x41F44, size: 0x8, addend: 0x0, symName: __RINvNtNtCsATtFUPiRFW_3syn3gen4fold18fold_generic_paramNtNvCs7oyfuZDlTKn_11yoke_derive16replace_lifetime15ReplaceLifetimeEBU_, symObjAddr: 0xE6AC, symBinAddr: 0x1ED38, symSize: 0x194 }
  - { offset: 0x41FE0, size: 0x8, addend: 0x0, symName: __RINvNtNtCsATtFUPiRFW_3syn3gen4fold18fold_pat_referenceNtNvCs7oyfuZDlTKn_11yoke_derive16replace_lifetime15ReplaceLifetimeEBU_, symObjAddr: 0xE840, symBinAddr: 0x1EECC, symSize: 0x208 }
  - { offset: 0x42046, size: 0x8, addend: 0x0, symName: __RINvNtNtCsATtFUPiRFW_3syn3gen4fold18fold_trait_item_fnNtNvCs7oyfuZDlTKn_11yoke_derive16replace_lifetime15ReplaceLifetimeEBU_, symObjAddr: 0xEA48, symBinAddr: 0x1F0D4, symSize: 0x1BC }
  - { offset: 0x4208D, size: 0x8, addend: 0x0, symName: __RINvNtNtCsATtFUPiRFW_3syn3gen4fold19fold_captured_paramNtNvCs7oyfuZDlTKn_11yoke_derive16replace_lifetime15ReplaceLifetimeEBV_, symObjAddr: 0xEC04, symBinAddr: 0x1F290, symSize: 0xE0 }
  - { offset: 0x42108, size: 0x8, addend: 0x0, symName: __RINvNtNtCsATtFUPiRFW_3syn3gen4fold19fold_expr_referenceNtNvCs7oyfuZDlTKn_11yoke_derive16replace_lifetime15ReplaceLifetimeEBV_, symObjAddr: 0xECE4, symBinAddr: 0x1F370, symSize: 0x208 }
  - { offset: 0x4216E, size: 0x8, addend: 0x0, symName: __RINvNtNtCsATtFUPiRFW_3syn3gen4fold19fold_expr_try_blockNtNvCs7oyfuZDlTKn_11yoke_derive16replace_lifetime15ReplaceLifetimeEBV_, symObjAddr: 0xEEEC, symBinAddr: 0x1F578, symSize: 0x12C }
  - { offset: 0x421B5, size: 0x8, addend: 0x0, symName: __RINvNtNtCsATtFUPiRFW_3syn3gen4fold19fold_fields_unnamedNtNvCs7oyfuZDlTKn_11yoke_derive16replace_lifetime15ReplaceLifetimeEBV_, symObjAddr: 0xF018, symBinAddr: 0x1F6A4, symSize: 0x90 }
  - { offset: 0x421FC, size: 0x8, addend: 0x0, symName: __RINvNtNtCsATtFUPiRFW_3syn3gen4fold19fold_impl_item_typeNtNvCs7oyfuZDlTKn_11yoke_derive16replace_lifetime15ReplaceLifetimeEBV_, symObjAddr: 0xF0A8, symBinAddr: 0x1F734, symSize: 0x304 }
  - { offset: 0x42243, size: 0x8, addend: 0x0, symName: __RINvNtNtCsATtFUPiRFW_3syn3gen4fold19fold_lifetime_paramNtNvCs7oyfuZDlTKn_11yoke_derive16replace_lifetime15ReplaceLifetimeEBV_, symObjAddr: 0xF3AC, symBinAddr: 0x1FA38, symSize: 0x1B4 }
  - { offset: 0x4228A, size: 0x8, addend: 0x0, symName: __RINvNtNtCsATtFUPiRFW_3syn3gen4fold19fold_path_argumentsNtNvCs7oyfuZDlTKn_11yoke_derive16replace_lifetime15ReplaceLifetimeEBV_, symObjAddr: 0xF560, symBinAddr: 0x1FBEC, symSize: 0x14C }
  - { offset: 0x42307, size: 0x8, addend: 0x0, symName: __RINvNtNtCsATtFUPiRFW_3syn3gen4fold19fold_predicate_typeNtNvCs7oyfuZDlTKn_11yoke_derive16replace_lifetime15ReplaceLifetimeEBV_, symObjAddr: 0xF6AC, symBinAddr: 0x1FD38, symSize: 0x1C4 }
  - { offset: 0x4234E, size: 0x8, addend: 0x0, symName: __RINvNtNtCsATtFUPiRFW_3syn3gen4fold19fold_type_referenceNtNvCs7oyfuZDlTKn_11yoke_derive16replace_lifetime15ReplaceLifetimeEBV_, symObjAddr: 0xF870, symBinAddr: 0x1FEFC, symSize: 0x228 }
  - { offset: 0x423B4, size: 0x8, addend: 0x0, symName: __RINvNtNtCsATtFUPiRFW_3syn3gen4fold19fold_vis_restrictedNtNvCs7oyfuZDlTKn_11yoke_derive16replace_lifetime15ReplaceLifetimeEBV_, symObjAddr: 0xFA98, symBinAddr: 0x20124, symSize: 0x1A4 }
  - { offset: 0x4241A, size: 0x8, addend: 0x0, symName: __RINvNtNtCsATtFUPiRFW_3syn3gen4fold20fold_bound_lifetimesNtNvCs7oyfuZDlTKn_11yoke_derive16replace_lifetime15ReplaceLifetimeEBW_, symObjAddr: 0xFC3C, symBinAddr: 0x202C8, symSize: 0xA8 }
  - { offset: 0x42461, size: 0x8, addend: 0x0, symName: __RINvNtNtCsATtFUPiRFW_3syn3gen4fold20fold_foreign_item_fnNtNvCs7oyfuZDlTKn_11yoke_derive16replace_lifetime15ReplaceLifetimeEBW_, symObjAddr: 0xFCE4, symBinAddr: 0x20370, symSize: 0x1B4 }
  - { offset: 0x424A8, size: 0x8, addend: 0x0, symName: __RINvNtNtCsATtFUPiRFW_3syn3gen4fold20fold_impl_item_constNtNvCs7oyfuZDlTKn_11yoke_derive16replace_lifetime15ReplaceLifetimeEBW_, symObjAddr: 0xFE98, symBinAddr: 0x20524, symSize: 0x3A4 }
  - { offset: 0x424EF, size: 0x8, addend: 0x0, symName: __RINvNtNtCsATtFUPiRFW_3syn3gen4fold20fold_impl_item_macroNtNvCs7oyfuZDlTKn_11yoke_derive16replace_lifetime15ReplaceLifetimeEBW_, symObjAddr: 0x1023C, symBinAddr: 0x208C8, symSize: 0x13C }
  - { offset: 0x42536, size: 0x8, addend: 0x0, symName: __RINvNtNtCsATtFUPiRFW_3syn3gen4fold20fold_macro_delimiterNtNvCs7oyfuZDlTKn_11yoke_derive16replace_lifetime15ReplaceLifetimeEBW_, symObjAddr: 0x10378, symBinAddr: 0x20A04, symSize: 0x10C }
  - { offset: 0x425D5, size: 0x8, addend: 0x0, symName: __RINvNtNtCsATtFUPiRFW_3syn3gen4fold20fold_meta_name_valueNtNvCs7oyfuZDlTKn_11yoke_derive16replace_lifetime15ReplaceLifetimeEBW_, symObjAddr: 0x10484, symBinAddr: 0x20B10, symSize: 0x134 }
  - { offset: 0x4261C, size: 0x8, addend: 0x0, symName: __RINvNtNtCsATtFUPiRFW_3syn3gen4fold20fold_precise_captureNtNvCs7oyfuZDlTKn_11yoke_derive16replace_lifetime15ReplaceLifetimeEBW_, symObjAddr: 0x105B8, symBinAddr: 0x20C44, symSize: 0xA8 }
  - { offset: 0x42663, size: 0x8, addend: 0x0, symName: __RINvNtNtCsATtFUPiRFW_3syn3gen4fold20fold_trait_item_typeNtNvCs7oyfuZDlTKn_11yoke_derive16replace_lifetime15ReplaceLifetimeEBW_, symObjAddr: 0x10660, symBinAddr: 0x20CEC, symSize: 0x2EC }
  - { offset: 0x426AA, size: 0x8, addend: 0x0, symName: __RINvNtNtCsATtFUPiRFW_3syn3gen4fold20fold_type_impl_traitNtNvCs7oyfuZDlTKn_11yoke_derive16replace_lifetime15ReplaceLifetimeEBW_, symObjAddr: 0x1094C, symBinAddr: 0x20FD8, symSize: 0x80 }
  - { offset: 0x426F1, size: 0x8, addend: 0x0, symName: __RINvNtNtCsATtFUPiRFW_3syn3gen4fold20fold_where_predicateNtNvCs7oyfuZDlTKn_11yoke_derive16replace_lifetime15ReplaceLifetimeEBW_, symObjAddr: 0x109CC, symBinAddr: 0x21058, symSize: 0x104 }
  - { offset: 0x4276E, size: 0x8, addend: 0x0, symName: __RINvNtNtCsATtFUPiRFW_3syn3gen4fold21fold_expr_method_callNtNvCs7oyfuZDlTKn_11yoke_derive16replace_lifetime15ReplaceLifetimeEBX_, symObjAddr: 0x10AD0, symBinAddr: 0x2115C, symSize: 0x3AC }
  - { offset: 0x427D4, size: 0x8, addend: 0x0, symName: __RINvNtNtCsATtFUPiRFW_3syn3gen4fold21fold_field_mutabilityNtNvCs7oyfuZDlTKn_11yoke_derive16replace_lifetime15ReplaceLifetimeEBX_, symObjAddr: 0x10E7C, symBinAddr: 0x21508, symSize: 0x20 }
  - { offset: 0x42821, size: 0x8, addend: 0x0, symName: __RINvNtNtCsATtFUPiRFW_3syn3gen4fold21fold_generic_argumentNtNvCs7oyfuZDlTKn_11yoke_derive16replace_lifetime15ReplaceLifetimeEBX_, symObjAddr: 0x10E9C, symBinAddr: 0x21528, symSize: 0x2F4 }
  - { offset: 0x4291A, size: 0x8, addend: 0x0, symName: __RINvNtNtCsATtFUPiRFW_3syn3gen4fold21fold_impl_restrictionNtNvCs7oyfuZDlTKn_11yoke_derive16replace_lifetime15ReplaceLifetimeEBX_, symObjAddr: 0x11190, symBinAddr: 0x2181C, symSize: 0xC }
  - { offset: 0x42967, size: 0x8, addend: 0x0, symName: __RINvNtNtCsATtFUPiRFW_3syn3gen4fold21fold_item_foreign_modNtNvCs7oyfuZDlTKn_11yoke_derive16replace_lifetime15ReplaceLifetimeEBX_, symObjAddr: 0x1119C, symBinAddr: 0x21828, symSize: 0x1D4 }
  - { offset: 0x429AE, size: 0x8, addend: 0x0, symName: __RINvNtNtCsATtFUPiRFW_3syn3gen4fold21fold_item_trait_aliasNtNvCs7oyfuZDlTKn_11yoke_derive16replace_lifetime15ReplaceLifetimeEBX_, symObjAddr: 0x11370, symBinAddr: 0x219FC, symSize: 0x2E4 }
  - { offset: 0x429F5, size: 0x8, addend: 0x0, symName: __RINvNtNtCsATtFUPiRFW_3syn3gen4fold21fold_pat_tuple_structNtNvCs7oyfuZDlTKn_11yoke_derive16replace_lifetime15ReplaceLifetimeEBX_, symObjAddr: 0x11654, symBinAddr: 0x21CE0, symSize: 0x250 }
  - { offset: 0x42A3C, size: 0x8, addend: 0x0, symName: __RINvNtNtCsATtFUPiRFW_3syn3gen4fold21fold_trait_item_constNtNvCs7oyfuZDlTKn_11yoke_derive16replace_lifetime15ReplaceLifetimeEBX_, symObjAddr: 0x118A4, symBinAddr: 0x21F30, symSize: 0x2F8 }
  - { offset: 0x42A83, size: 0x8, addend: 0x0, symName: __RINvNtNtCsATtFUPiRFW_3syn3gen4fold21fold_trait_item_macroNtNvCs7oyfuZDlTKn_11yoke_derive16replace_lifetime15ReplaceLifetimeEBX_, symObjAddr: 0x11B9C, symBinAddr: 0x22228, symSize: 0x13C }
  - { offset: 0x42ACA, size: 0x8, addend: 0x0, symName: __RINvNtNtCsATtFUPiRFW_3syn3gen4fold21fold_type_param_boundNtNvCs7oyfuZDlTKn_11yoke_derive16replace_lifetime15ReplaceLifetimeEBX_, symObjAddr: 0x11CD8, symBinAddr: 0x22364, symSize: 0x1DC }
  - { offset: 0x42B84, size: 0x8, addend: 0x0, symName: __RINvNtNtCsATtFUPiRFW_3syn3gen4fold22fold_foreign_item_typeNtNvCs7oyfuZDlTKn_11yoke_derive16replace_lifetime15ReplaceLifetimeEBY_, symObjAddr: 0x11EB4, symBinAddr: 0x22540, symSize: 0x244 }
  - { offset: 0x42BCB, size: 0x8, addend: 0x0, symName: __RINvNtNtCsATtFUPiRFW_3syn3gen4fold22fold_item_extern_crateNtNvCs7oyfuZDlTKn_11yoke_derive16replace_lifetime15ReplaceLifetimeEBY_, symObjAddr: 0x120F8, symBinAddr: 0x22784, symSize: 0x258 }
  - { offset: 0x42C12, size: 0x8, addend: 0x0, symName: __RINvNtNtCsATtFUPiRFW_3syn3gen4fold22fold_static_mutabilityNtNvCs7oyfuZDlTKn_11yoke_derive16replace_lifetime15ReplaceLifetimeEBY_, symObjAddr: 0x12350, symBinAddr: 0x229DC, symSize: 0x70 }
  - { offset: 0x42C75, size: 0x8, addend: 0x0, symName: __RINvNtNtCsATtFUPiRFW_3syn3gen4fold22fold_type_trait_objectNtNvCs7oyfuZDlTKn_11yoke_derive16replace_lifetime15ReplaceLifetimeEBY_, symObjAddr: 0x123C0, symBinAddr: 0x22A4C, symSize: 0x90 }
  - { offset: 0x42CBC, size: 0x8, addend: 0x0, symName: __RINvNtNtCsATtFUPiRFW_3syn3gen4fold23fold_foreign_item_macroNtNvCs7oyfuZDlTKn_11yoke_derive16replace_lifetime15ReplaceLifetimeEBZ_, symObjAddr: 0x12450, symBinAddr: 0x22ADC, symSize: 0x13C }
  - { offset: 0x42D03, size: 0x8, addend: 0x0, symName: __RINvNtNtCsATtFUPiRFW_3syn3gen4fold23fold_pointer_mutabilityNtNvCs7oyfuZDlTKn_11yoke_derive16replace_lifetime15ReplaceLifetimeEBZ_, symObjAddr: 0x1258C, symBinAddr: 0x22C18, symSize: 0x7C }
  - { offset: 0x42D83, size: 0x8, addend: 0x0, symName: __RINvNtNtCsATtFUPiRFW_3syn3gen4fold23fold_predicate_lifetimeNtNvCs7oyfuZDlTKn_11yoke_derive16replace_lifetime15ReplaceLifetimeEBZ_, symObjAddr: 0x12608, symBinAddr: 0x22C94, symSize: 0x11C }
  - { offset: 0x42DCA, size: 0x8, addend: 0x0, symName: __RINvNtNtCsATtFUPiRFW_3syn3gen4fold24fold_foreign_item_staticNtNvCs7oyfuZDlTKn_11yoke_derive16replace_lifetime15ReplaceLifetimeEB10_, symObjAddr: 0x12724, symBinAddr: 0x22DB0, symSize: 0x330 }
  - { offset: 0x42E30, size: 0x8, addend: 0x0, symName: __RINvNtNtCsATtFUPiRFW_3syn3gen4fold25fold_trait_bound_modifierNtNvCs7oyfuZDlTKn_11yoke_derive16replace_lifetime15ReplaceLifetimeEB11_, symObjAddr: 0x12A54, symBinAddr: 0x230E0, symSize: 0x74 }
  - { offset: 0x42E93, size: 0x8, addend: 0x0, symName: __RINvNtNtCsATtFUPiRFW_3syn3gen4fold36fold_parenthesized_generic_argumentsNtNvCs7oyfuZDlTKn_11yoke_derive16replace_lifetime15ReplaceLifetimeEB1c_, symObjAddr: 0x12AC8, symBinAddr: 0x23154, symSize: 0x124 }
  - { offset: 0x42EDA, size: 0x8, addend: 0x0, symName: __RINvNtNtCsATtFUPiRFW_3syn3gen4fold38fold_angle_bracketed_generic_argumentsNtNvCs7oyfuZDlTKn_11yoke_derive16replace_lifetime15ReplaceLifetimeEB1e_, symObjAddr: 0x12BEC, symBinAddr: 0x23278, symSize: 0xB8 }
  - { offset: 0x42F21, size: 0x8, addend: 0x0, symName: __RINvNtNtCsATtFUPiRFW_3syn3gen4fold8fold_abiNtNvCs7oyfuZDlTKn_11yoke_derive16replace_lifetime15ReplaceLifetimeEBJ_, symObjAddr: 0x12CA4, symBinAddr: 0x23330, symSize: 0x54 }
  - { offset: 0x42F67, size: 0x8, addend: 0x0, symName: __RINvNtNtCsATtFUPiRFW_3syn3gen4fold8fold_armNtNvCs7oyfuZDlTKn_11yoke_derive16replace_lifetime15ReplaceLifetimeEBJ_, symObjAddr: 0x12CF8, symBinAddr: 0x23384, symSize: 0x30C }
  - { offset: 0x42FCD, size: 0x8, addend: 0x0, symName: __RINvNtNtCsATtFUPiRFW_3syn3gen4fold8fold_litNtNvCs7oyfuZDlTKn_11yoke_derive16replace_lifetime15ReplaceLifetimeEBJ_, symObjAddr: 0x13004, symBinAddr: 0x23690, symSize: 0x318 }
  - { offset: 0x4311A, size: 0x8, addend: 0x0, symName: __RINvNtNtCsATtFUPiRFW_3syn3gen4fold8fold_patNtNvCs7oyfuZDlTKn_11yoke_derive16replace_lifetime15ReplaceLifetimeEBJ_, symObjAddr: 0x1331C, symBinAddr: 0x239A8, symSize: 0x770 }
  - { offset: 0x43368, size: 0x8, addend: 0x0, symName: __RINvNtNtCsATtFUPiRFW_3syn3gen4fold8fold_vecNtNtB6_4attr9AttributeNtNvCs7oyfuZDlTKn_11yoke_derive16replace_lifetime15ReplaceLifetimeNvYB11_NtB2_4Fold14fold_attributeEB15_, symObjAddr: 0x13A8C, symBinAddr: 0x24118, symSize: 0x80 }
  - { offset: 0x433D0, size: 0x8, addend: 0x0, symName: __RINvNtNtCsATtFUPiRFW_3syn3gen4fold8fold_vecNtNtB6_4expr3ArmNtNvCs7oyfuZDlTKn_11yoke_derive16replace_lifetime15ReplaceLifetimeNvYBV_NtB2_4Fold8fold_armEBZ_, symObjAddr: 0x13B0C, symBinAddr: 0x24198, symSize: 0x80 }
  - { offset: 0x43438, size: 0x8, addend: 0x0, symName: __RINvNtNtCsATtFUPiRFW_3syn3gen4fold8fold_vecNtNtB6_4item11ForeignItemNtNvCs7oyfuZDlTKn_11yoke_derive16replace_lifetime15ReplaceLifetimeNvYB14_NtB2_4Fold17fold_foreign_itemEB18_, symObjAddr: 0x13B8C, symBinAddr: 0x24218, symSize: 0x80 }
  - { offset: 0x434A0, size: 0x8, addend: 0x0, symName: __RINvNtNtCsATtFUPiRFW_3syn3gen4fold8fold_vecNtNtB6_4item4ItemNtNvCs7oyfuZDlTKn_11yoke_derive16replace_lifetime15ReplaceLifetimeNvYBW_NtB2_4Fold9fold_itemEB10_, symObjAddr: 0x13C0C, symBinAddr: 0x24298, symSize: 0x80 }
  - { offset: 0x43508, size: 0x8, addend: 0x0, symName: __RINvNtNtCsATtFUPiRFW_3syn3gen4fold8fold_vecNtNtB6_4item8ImplItemNtNvCs7oyfuZDlTKn_11yoke_derive16replace_lifetime15ReplaceLifetimeNvYB10_NtB2_4Fold14fold_impl_itemEB14_, symObjAddr: 0x13C8C, symBinAddr: 0x24318, symSize: 0x80 }
  - { offset: 0x43570, size: 0x8, addend: 0x0, symName: __RINvNtNtCsATtFUPiRFW_3syn3gen4fold8fold_vecNtNtB6_4item9TraitItemNtNvCs7oyfuZDlTKn_11yoke_derive16replace_lifetime15ReplaceLifetimeNvYB11_NtB2_4Fold15fold_trait_itemEB15_, symObjAddr: 0x13D0C, symBinAddr: 0x24398, symSize: 0x80 }
  - { offset: 0x435D8, size: 0x8, addend: 0x0, symName: __RINvNtNtCsATtFUPiRFW_3syn3gen4fold8fold_vecNtNtB6_4stmt4StmtNtNvCs7oyfuZDlTKn_11yoke_derive16replace_lifetime15ReplaceLifetimeNvYBW_NtB2_4Fold9fold_stmtEB10_, symObjAddr: 0x13D8C, symBinAddr: 0x24418, symSize: 0x80 }
  - { offset: 0x43640, size: 0x8, addend: 0x0, symName: __RINvNtNtCsATtFUPiRFW_3syn3gen4fold9fold_dataNtNvCs7oyfuZDlTKn_11yoke_derive16replace_lifetime15ReplaceLifetimeEBK_, symObjAddr: 0x13E0C, symBinAddr: 0x24498, symSize: 0x190 }
  - { offset: 0x436DC, size: 0x8, addend: 0x0, symName: __RINvNtNtCsATtFUPiRFW_3syn3gen4fold9fold_exprNtNvCs7oyfuZDlTKn_11yoke_derive16replace_lifetime15ReplaceLifetimeEBK_, symObjAddr: 0x13F9C, symBinAddr: 0x24628, symSize: 0x118C }
  - { offset: 0x43BF3, size: 0x8, addend: 0x0, symName: __RINvNtNtCsATtFUPiRFW_3syn3gen4fold9fold_fileNtNvCs7oyfuZDlTKn_11yoke_derive16replace_lifetime15ReplaceLifetimeEBK_, symObjAddr: 0x15128, symBinAddr: 0x257B4, symSize: 0x13C }
  - { offset: 0x43C3A, size: 0x8, addend: 0x0, symName: __RINvNtNtCsATtFUPiRFW_3syn3gen4fold9fold_itemNtNvCs7oyfuZDlTKn_11yoke_derive16replace_lifetime15ReplaceLifetimeEBK_, symObjAddr: 0x15264, symBinAddr: 0x258F0, symSize: 0x720 }
  - { offset: 0x43E68, size: 0x8, addend: 0x0, symName: __RINvNtNtCsATtFUPiRFW_3syn3gen4fold9fold_metaNtNvCs7oyfuZDlTKn_11yoke_derive16replace_lifetime15ReplaceLifetimeEBK_, symObjAddr: 0x15984, symBinAddr: 0x26010, symSize: 0x190 }
  - { offset: 0x43F04, size: 0x8, addend: 0x0, symName: __RINvNtNtCsATtFUPiRFW_3syn3gen4fold9fold_pathNtNvCs7oyfuZDlTKn_11yoke_derive16replace_lifetime15ReplaceLifetimeEBK_, symObjAddr: 0x15B14, symBinAddr: 0x261A0, symSize: 0x90 }
  - { offset: 0x43F4B, size: 0x8, addend: 0x0, symName: __RINvNtNtCsATtFUPiRFW_3syn3gen4fold9fold_spanNtNvCs7oyfuZDlTKn_11yoke_derive16replace_lifetime15ReplaceLifetimeEBK_, symObjAddr: 0x15BA4, symBinAddr: 0x26230, symSize: 0x2C }
  - { offset: 0x43F91, size: 0x8, addend: 0x0, symName: __RINvNtNtCsATtFUPiRFW_3syn3gen4fold9fold_stmtNtNvCs7oyfuZDlTKn_11yoke_derive16replace_lifetime15ReplaceLifetimeEBK_, symObjAddr: 0x15BD0, symBinAddr: 0x2625C, symSize: 0x220 }
  - { offset: 0x4405C, size: 0x8, addend: 0x0, symName: __RINvNtNtCsATtFUPiRFW_3syn3gen4fold9fold_typeNtNvCs7oyfuZDlTKn_11yoke_derive16replace_lifetime15ReplaceLifetimeEBK_, symObjAddr: 0x15DF0, symBinAddr: 0x2647C, symSize: 0x608 }
  - { offset: 0x4426E, size: 0x8, addend: 0x0, symName: __RNCINvNtNtCsATtFUPiRFW_3syn3gen4fold10fold_fieldNtNvCs7oyfuZDlTKn_11yoke_derive16replace_lifetime15ReplaceLifetimeE0BO_, symObjAddr: 0x163F8, symBinAddr: 0x26A84, symSize: 0x34 }
  - { offset: 0x442BD, size: 0x8, addend: 0x0, symName: __RNCINvNtNtCsATtFUPiRFW_3syn3gen4fold10fold_localNtNvCs7oyfuZDlTKn_11yoke_derive16replace_lifetime15ReplaceLifetimeE0BO_, symObjAddr: 0x1642C, symBinAddr: 0x26AB8, symSize: 0x34 }
  - { offset: 0x4430C, size: 0x8, addend: 0x0, symName: __RNCINvNtNtCsATtFUPiRFW_3syn3gen4fold12fold_expr_ifNtNvCs7oyfuZDlTKn_11yoke_derive16replace_lifetime15ReplaceLifetimeE0BQ_, symObjAddr: 0x16460, symBinAddr: 0x26AEC, symSize: 0x15C }
  - { offset: 0x4437A, size: 0x8, addend: 0x0, symName: __RNCINvNtNtCsATtFUPiRFW_3syn3gen4fold12fold_variantNtNvCs7oyfuZDlTKn_11yoke_derive16replace_lifetime15ReplaceLifetimeE0BQ_, symObjAddr: 0x165BC, symBinAddr: 0x26C48, symSize: 0x94 }
  - { offset: 0x443C9, size: 0x8, addend: 0x0, symName: __RNCINvNtNtCsATtFUPiRFW_3syn3gen4fold13fold_genericsNtNvCs7oyfuZDlTKn_11yoke_derive16replace_lifetime15ReplaceLifetimeE0BR_, symObjAddr: 0x16650, symBinAddr: 0x26CDC, symSize: 0x34 }
  - { offset: 0x44418, size: 0x8, addend: 0x0, symName: __RNCINvNtNtCsATtFUPiRFW_3syn3gen4fold13fold_item_modNtNvCs7oyfuZDlTKn_11yoke_derive16replace_lifetime15ReplaceLifetimeE0BR_, symObjAddr: 0x16684, symBinAddr: 0x26D10, symSize: 0x84 }
  - { offset: 0x44467, size: 0x8, addend: 0x0, symName: __RNCINvNtNtCsATtFUPiRFW_3syn3gen4fold13fold_receiverNtNvCs7oyfuZDlTKn_11yoke_derive16replace_lifetime15ReplaceLifetimeE0BR_, symObjAddr: 0x16708, symBinAddr: 0x26D94, symSize: 0x74 }
  - { offset: 0x444B5, size: 0x8, addend: 0x0, symName: __RNCNCINvNtNtCsATtFUPiRFW_3syn3gen4fold13fold_receiverNtNvCs7oyfuZDlTKn_11yoke_derive16replace_lifetime15ReplaceLifetimeE00BT_, symObjAddr: 0x18198, symBinAddr: 0x28824, symSize: 0x34 }
  - { offset: 0x44505, size: 0x8, addend: 0x0, symName: __RNCINvNtNtCsATtFUPiRFW_3syn3gen4fold13fold_variadicNtNvCs7oyfuZDlTKn_11yoke_derive16replace_lifetime15ReplaceLifetimeE0BR_, symObjAddr: 0x1677C, symBinAddr: 0x26E08, symSize: 0x160 }
  - { offset: 0x44574, size: 0x8, addend: 0x0, symName: __RNCINvNtNtCsATtFUPiRFW_3syn3gen4fold14fold_expr_loopNtNvCs7oyfuZDlTKn_11yoke_derive16replace_lifetime15ReplaceLifetimeE0BS_, symObjAddr: 0x168DC, symBinAddr: 0x26F68, symSize: 0x34 }
  - { offset: 0x445C3, size: 0x8, addend: 0x0, symName: __RNCINvNtNtCsATtFUPiRFW_3syn3gen4fold14fold_expr_pathNtNvCs7oyfuZDlTKn_11yoke_derive16replace_lifetime15ReplaceLifetimeE0BS_, symObjAddr: 0x16910, symBinAddr: 0x26F9C, symSize: 0x34 }
  - { offset: 0x44612, size: 0x8, addend: 0x0, symName: __RNCINvNtNtCsATtFUPiRFW_3syn3gen4fold14fold_item_implNtNvCs7oyfuZDlTKn_11yoke_derive16replace_lifetime15ReplaceLifetimeE0BS_, symObjAddr: 0x16944, symBinAddr: 0x26FD0, symSize: 0xA0 }
  - { offset: 0x44662, size: 0x8, addend: 0x0, symName: __RNCINvNtNtCsATtFUPiRFW_3syn3gen4fold14fold_pat_identNtNvCs7oyfuZDlTKn_11yoke_derive16replace_lifetime15ReplaceLifetimeE0BS_, symObjAddr: 0x169E4, symBinAddr: 0x27070, symSize: 0x168 }
  - { offset: 0x446D1, size: 0x8, addend: 0x0, symName: __RNCINvNtNtCsATtFUPiRFW_3syn3gen4fold14fold_signatureNtNvCs7oyfuZDlTKn_11yoke_derive16replace_lifetime15ReplaceLifetimeE0BS_, symObjAddr: 0x16B4C, symBinAddr: 0x271D8, symSize: 0x40 }
  - { offset: 0x44719, size: 0x8, addend: 0x0, symName: __RNCINvNtNtCsATtFUPiRFW_3syn3gen4fold14fold_signatureNtNvCs7oyfuZDlTKn_11yoke_derive16replace_lifetime15ReplaceLifetimeEs_0BS_, symObjAddr: 0x16B8C, symBinAddr: 0x27218, symSize: 0x34 }
  - { offset: 0x44768, size: 0x8, addend: 0x0, symName: __RNCINvNtNtCsATtFUPiRFW_3syn3gen4fold14fold_type_pathNtNvCs7oyfuZDlTKn_11yoke_derive16replace_lifetime15ReplaceLifetimeE0BS_, symObjAddr: 0x16BC0, symBinAddr: 0x2724C, symSize: 0x34 }
  - { offset: 0x447B7, size: 0x8, addend: 0x0, symName: __RNCINvNtNtCsATtFUPiRFW_3syn3gen4fold15fold_assoc_typeNtNvCs7oyfuZDlTKn_11yoke_derive16replace_lifetime15ReplaceLifetimeE0BT_, symObjAddr: 0x16BF4, symBinAddr: 0x27280, symSize: 0x34 }
  - { offset: 0x44806, size: 0x8, addend: 0x0, symName: __RNCINvNtNtCsATtFUPiRFW_3syn3gen4fold15fold_constraintNtNvCs7oyfuZDlTKn_11yoke_derive16replace_lifetime15ReplaceLifetimeE0BT_, symObjAddr: 0x16C28, symBinAddr: 0x272B4, symSize: 0x34 }
  - { offset: 0x44855, size: 0x8, addend: 0x0, symName: __RNCINvNtNtCsATtFUPiRFW_3syn3gen4fold15fold_expr_blockNtNvCs7oyfuZDlTKn_11yoke_derive16replace_lifetime15ReplaceLifetimeE0BT_, symObjAddr: 0x16C5C, symBinAddr: 0x272E8, symSize: 0x34 }
  - { offset: 0x448A4, size: 0x8, addend: 0x0, symName: __RNCINvNtNtCsATtFUPiRFW_3syn3gen4fold15fold_expr_breakNtNvCs7oyfuZDlTKn_11yoke_derive16replace_lifetime15ReplaceLifetimeE0BT_, symObjAddr: 0x16C90, symBinAddr: 0x2731C, symSize: 0x34 }
  - { offset: 0x448ED, size: 0x8, addend: 0x0, symName: __RNCINvNtNtCsATtFUPiRFW_3syn3gen4fold15fold_expr_breakNtNvCs7oyfuZDlTKn_11yoke_derive16replace_lifetime15ReplaceLifetimeEs_0BT_, symObjAddr: 0x16CC4, symBinAddr: 0x27350, symSize: 0x144 }
  - { offset: 0x4495A, size: 0x8, addend: 0x0, symName: __RNCINvNtNtCsATtFUPiRFW_3syn3gen4fold15fold_expr_rangeNtNvCs7oyfuZDlTKn_11yoke_derive16replace_lifetime15ReplaceLifetimeE0BT_, symObjAddr: 0x16E08, symBinAddr: 0x27494, symSize: 0x144 }
  - { offset: 0x449C1, size: 0x8, addend: 0x0, symName: __RNCINvNtNtCsATtFUPiRFW_3syn3gen4fold15fold_expr_rangeNtNvCs7oyfuZDlTKn_11yoke_derive16replace_lifetime15ReplaceLifetimeEs_0BT_, symObjAddr: 0x16F4C, symBinAddr: 0x275D8, symSize: 0x144 }
  - { offset: 0x44A2E, size: 0x8, addend: 0x0, symName: __RNCINvNtNtCsATtFUPiRFW_3syn3gen4fold15fold_expr_whileNtNvCs7oyfuZDlTKn_11yoke_derive16replace_lifetime15ReplaceLifetimeE0BT_, symObjAddr: 0x17090, symBinAddr: 0x2771C, symSize: 0x34 }
  - { offset: 0x44A7D, size: 0x8, addend: 0x0, symName: __RNCINvNtNtCsATtFUPiRFW_3syn3gen4fold15fold_expr_yieldNtNvCs7oyfuZDlTKn_11yoke_derive16replace_lifetime15ReplaceLifetimeE0BT_, symObjAddr: 0x170C4, symBinAddr: 0x27750, symSize: 0x144 }
  - { offset: 0x44AEA, size: 0x8, addend: 0x0, symName: __RNCINvNtNtCsATtFUPiRFW_3syn3gen4fold15fold_item_macroNtNvCs7oyfuZDlTKn_11yoke_derive16replace_lifetime15ReplaceLifetimeE0BT_, symObjAddr: 0x17208, symBinAddr: 0x27894, symSize: 0x34 }
  - { offset: 0x44B39, size: 0x8, addend: 0x0, symName: __RNCINvNtNtCsATtFUPiRFW_3syn3gen4fold15fold_item_traitNtNvCs7oyfuZDlTKn_11yoke_derive16replace_lifetime15ReplaceLifetimeE0BT_, symObjAddr: 0x1723C, symBinAddr: 0x278C8, symSize: 0x28 }
  - { offset: 0x44B8E, size: 0x8, addend: 0x0, symName: __RNCINvNtNtCsATtFUPiRFW_3syn3gen4fold15fold_local_initNtNvCs7oyfuZDlTKn_11yoke_derive16replace_lifetime15ReplaceLifetimeE0BT_, symObjAddr: 0x17264, symBinAddr: 0x278F0, symSize: 0x15C }
  - { offset: 0x44BFC, size: 0x8, addend: 0x0, symName: __RNCINvNtNtCsATtFUPiRFW_3syn3gen4fold15fold_pat_structNtNvCs7oyfuZDlTKn_11yoke_derive16replace_lifetime15ReplaceLifetimeE0BT_, symObjAddr: 0x173C0, symBinAddr: 0x27A4C, symSize: 0x34 }
  - { offset: 0x44C45, size: 0x8, addend: 0x0, symName: __RNCINvNtNtCsATtFUPiRFW_3syn3gen4fold15fold_pat_structNtNvCs7oyfuZDlTKn_11yoke_derive16replace_lifetime15ReplaceLifetimeEs_0BT_, symObjAddr: 0x173F4, symBinAddr: 0x27A80, symSize: 0x34 }
  - { offset: 0x44C94, size: 0x8, addend: 0x0, symName: __RNCINvNtNtCsATtFUPiRFW_3syn3gen4fold15fold_type_paramNtNvCs7oyfuZDlTKn_11yoke_derive16replace_lifetime15ReplaceLifetimeE0BT_, symObjAddr: 0x17428, symBinAddr: 0x27AB4, symSize: 0x34 }
  - { offset: 0x44CE3, size: 0x8, addend: 0x0, symName: __RNCINvNtNtCsATtFUPiRFW_3syn3gen4fold16fold_assoc_constNtNvCs7oyfuZDlTKn_11yoke_derive16replace_lifetime15ReplaceLifetimeE0BU_, symObjAddr: 0x1745C, symBinAddr: 0x27AE8, symSize: 0x34 }
  - { offset: 0x44D32, size: 0x8, addend: 0x0, symName: __RNCINvNtNtCsATtFUPiRFW_3syn3gen4fold16fold_bare_fn_argNtNvCs7oyfuZDlTKn_11yoke_derive16replace_lifetime15ReplaceLifetimeE0BU_, symObjAddr: 0x17490, symBinAddr: 0x27B1C, symSize: 0x80 }
  - { offset: 0x44D81, size: 0x8, addend: 0x0, symName: __RNCINvNtNtCsATtFUPiRFW_3syn3gen4fold16fold_const_paramNtNvCs7oyfuZDlTKn_11yoke_derive16replace_lifetime15ReplaceLifetimeE0BU_, symObjAddr: 0x17510, symBinAddr: 0x27B9C, symSize: 0x34 }
  - { offset: 0x44DD0, size: 0x8, addend: 0x0, symName: __RNCINvNtNtCsATtFUPiRFW_3syn3gen4fold16fold_expr_returnNtNvCs7oyfuZDlTKn_11yoke_derive16replace_lifetime15ReplaceLifetimeE0BU_, symObjAddr: 0x17544, symBinAddr: 0x27BD0, symSize: 0x144 }
  - { offset: 0x44E3D, size: 0x8, addend: 0x0, symName: __RNCINvNtNtCsATtFUPiRFW_3syn3gen4fold16fold_expr_structNtNvCs7oyfuZDlTKn_11yoke_derive16replace_lifetime15ReplaceLifetimeE0BU_, symObjAddr: 0x17688, symBinAddr: 0x27D14, symSize: 0x34 }
  - { offset: 0x44E86, size: 0x8, addend: 0x0, symName: __RNCINvNtNtCsATtFUPiRFW_3syn3gen4fold16fold_expr_structNtNvCs7oyfuZDlTKn_11yoke_derive16replace_lifetime15ReplaceLifetimeEs_0BU_, symObjAddr: 0x176BC, symBinAddr: 0x27D48, symSize: 0x144 }
  - { offset: 0x44EF3, size: 0x8, addend: 0x0, symName: __RNCINvNtNtCsATtFUPiRFW_3syn3gen4fold16fold_trait_boundNtNvCs7oyfuZDlTKn_11yoke_derive16replace_lifetime15ReplaceLifetimeE0BU_, symObjAddr: 0x17800, symBinAddr: 0x27E8C, symSize: 0x34 }
  - { offset: 0x44F42, size: 0x8, addend: 0x0, symName: __RNCINvNtNtCsATtFUPiRFW_3syn3gen4fold17fold_expr_closureNtNvCs7oyfuZDlTKn_11yoke_derive16replace_lifetime15ReplaceLifetimeE0BV_, symObjAddr: 0x17834, symBinAddr: 0x27EC0, symSize: 0x34 }
  - { offset: 0x44F91, size: 0x8, addend: 0x0, symName: __RNCINvNtNtCsATtFUPiRFW_3syn3gen4fold17fold_type_bare_fnNtNvCs7oyfuZDlTKn_11yoke_derive16replace_lifetime15ReplaceLifetimeE0BV_, symObjAddr: 0x17868, symBinAddr: 0x27EF4, symSize: 0x34 }
  - { offset: 0x44FDA, size: 0x8, addend: 0x0, symName: __RNCINvNtNtCsATtFUPiRFW_3syn3gen4fold17fold_type_bare_fnNtNvCs7oyfuZDlTKn_11yoke_derive16replace_lifetime15ReplaceLifetimeEs0_0BV_, symObjAddr: 0x1789C, symBinAddr: 0x27F28, symSize: 0x34 }
  - { offset: 0x45023, size: 0x8, addend: 0x0, symName: __RNCINvNtNtCsATtFUPiRFW_3syn3gen4fold17fold_type_bare_fnNtNvCs7oyfuZDlTKn_11yoke_derive16replace_lifetime15ReplaceLifetimeEs_0BV_, symObjAddr: 0x178D0, symBinAddr: 0x27F5C, symSize: 0x40 }
  - { offset: 0x45071, size: 0x8, addend: 0x0, symName: __RNCINvNtNtCsATtFUPiRFW_3syn3gen4fold18fold_bare_variadicNtNvCs7oyfuZDlTKn_11yoke_derive16replace_lifetime15ReplaceLifetimeE0BW_, symObjAddr: 0x17910, symBinAddr: 0x27F9C, symSize: 0x80 }
  - { offset: 0x450C0, size: 0x8, addend: 0x0, symName: __RNCINvNtNtCsATtFUPiRFW_3syn3gen4fold18fold_expr_continueNtNvCs7oyfuZDlTKn_11yoke_derive16replace_lifetime15ReplaceLifetimeE0BW_, symObjAddr: 0x17990, symBinAddr: 0x2801C, symSize: 0x34 }
  - { offset: 0x4510F, size: 0x8, addend: 0x0, symName: __RNCINvNtNtCsATtFUPiRFW_3syn3gen4fold18fold_expr_for_loopNtNvCs7oyfuZDlTKn_11yoke_derive16replace_lifetime15ReplaceLifetimeE0BW_, symObjAddr: 0x179C4, symBinAddr: 0x28050, symSize: 0x34 }
  - { offset: 0x4515E, size: 0x8, addend: 0x0, symName: __RNCINvNtNtCsATtFUPiRFW_3syn3gen4fold18fold_trait_item_fnNtNvCs7oyfuZDlTKn_11yoke_derive16replace_lifetime15ReplaceLifetimeE0BW_, symObjAddr: 0x179F8, symBinAddr: 0x28084, symSize: 0x34 }
  - { offset: 0x451AD, size: 0x8, addend: 0x0, symName: __RNCINvNtNtCsATtFUPiRFW_3syn3gen4fold19fold_predicate_typeNtNvCs7oyfuZDlTKn_11yoke_derive16replace_lifetime15ReplaceLifetimeE0BX_, symObjAddr: 0x17A2C, symBinAddr: 0x280B8, symSize: 0x34 }
  - { offset: 0x451FC, size: 0x8, addend: 0x0, symName: __RNCINvNtNtCsATtFUPiRFW_3syn3gen4fold19fold_type_referenceNtNvCs7oyfuZDlTKn_11yoke_derive16replace_lifetime15ReplaceLifetimeE0BX_, symObjAddr: 0x17A60, symBinAddr: 0x280EC, symSize: 0x34 }
  - { offset: 0x4524B, size: 0x8, addend: 0x0, symName: __RNCINvNtNtCsATtFUPiRFW_3syn3gen4fold20fold_trait_item_typeNtNvCs7oyfuZDlTKn_11yoke_derive16replace_lifetime15ReplaceLifetimeE0BY_, symObjAddr: 0x17A94, symBinAddr: 0x28120, symSize: 0x94 }
  - { offset: 0x4529A, size: 0x8, addend: 0x0, symName: __RNCINvNtNtCsATtFUPiRFW_3syn3gen4fold21fold_expr_method_callNtNvCs7oyfuZDlTKn_11yoke_derive16replace_lifetime15ReplaceLifetimeE0BZ_, symObjAddr: 0x17B28, symBinAddr: 0x281B4, symSize: 0x34 }
  - { offset: 0x452E9, size: 0x8, addend: 0x0, symName: __RNCINvNtNtCsATtFUPiRFW_3syn3gen4fold21fold_pat_tuple_structNtNvCs7oyfuZDlTKn_11yoke_derive16replace_lifetime15ReplaceLifetimeE0BZ_, symObjAddr: 0x17B5C, symBinAddr: 0x281E8, symSize: 0x34 }
  - { offset: 0x45338, size: 0x8, addend: 0x0, symName: __RNCINvNtNtCsATtFUPiRFW_3syn3gen4fold21fold_trait_item_constNtNvCs7oyfuZDlTKn_11yoke_derive16replace_lifetime15ReplaceLifetimeE0BZ_, symObjAddr: 0x17B90, symBinAddr: 0x2821C, symSize: 0x94 }
  - { offset: 0x45387, size: 0x8, addend: 0x0, symName: __RNCINvNtNtCsATtFUPiRFW_3syn3gen4fold22fold_item_extern_crateNtNvCs7oyfuZDlTKn_11yoke_derive16replace_lifetime15ReplaceLifetimeE0B10_, symObjAddr: 0x17C24, symBinAddr: 0x282B0, symSize: 0x78 }
  - { offset: 0x453D6, size: 0x8, addend: 0x0, symName: __RNCINvNtNtCsATtFUPiRFW_3syn3gen4fold8fold_abiNtNvCs7oyfuZDlTKn_11yoke_derive16replace_lifetime15ReplaceLifetimeE0BL_, symObjAddr: 0x17C9C, symBinAddr: 0x28328, symSize: 0x3C }
  - { offset: 0x45424, size: 0x8, addend: 0x0, symName: __RNCINvNtNtCsATtFUPiRFW_3syn3gen4fold8fold_armNtNvCs7oyfuZDlTKn_11yoke_derive16replace_lifetime15ReplaceLifetimeE0BL_, symObjAddr: 0x17CD8, symBinAddr: 0x28364, symSize: 0x15C }
  - { offset: 0x45492, size: 0x8, addend: 0x0, symName: __RNCINvNtNtCsATtFUPiRFW_3syn3gen4fold8fold_vecNtNtB8_4attr9AttributeNtNvCs7oyfuZDlTKn_11yoke_derive16replace_lifetime15ReplaceLifetimeNvYB13_NtB4_4Fold14fold_attributeE0B17_, symObjAddr: 0x17E34, symBinAddr: 0x284C0, symSize: 0x7C }
  - { offset: 0x45501, size: 0x8, addend: 0x0, symName: __RNCINvNtNtCsATtFUPiRFW_3syn3gen4fold8fold_vecNtNtB8_4expr3ArmNtNvCs7oyfuZDlTKn_11yoke_derive16replace_lifetime15ReplaceLifetimeNvYBX_NtB4_4Fold8fold_armE0B11_, symObjAddr: 0x17EB0, symBinAddr: 0x2853C, symSize: 0x7C }
  - { offset: 0x45570, size: 0x8, addend: 0x0, symName: __RNCINvNtNtCsATtFUPiRFW_3syn3gen4fold8fold_vecNtNtB8_4item11ForeignItemNtNvCs7oyfuZDlTKn_11yoke_derive16replace_lifetime15ReplaceLifetimeNvYB16_NtB4_4Fold17fold_foreign_itemE0B1a_, symObjAddr: 0x17F2C, symBinAddr: 0x285B8, symSize: 0x7C }
  - { offset: 0x455DF, size: 0x8, addend: 0x0, symName: __RNCINvNtNtCsATtFUPiRFW_3syn3gen4fold8fold_vecNtNtB8_4item4ItemNtNvCs7oyfuZDlTKn_11yoke_derive16replace_lifetime15ReplaceLifetimeNvYBY_NtB4_4Fold9fold_itemE0B12_, symObjAddr: 0x17FA8, symBinAddr: 0x28634, symSize: 0x7C }
  - { offset: 0x4564E, size: 0x8, addend: 0x0, symName: __RNCINvNtNtCsATtFUPiRFW_3syn3gen4fold8fold_vecNtNtB8_4item8ImplItemNtNvCs7oyfuZDlTKn_11yoke_derive16replace_lifetime15ReplaceLifetimeNvYB12_NtB4_4Fold14fold_impl_itemE0B16_, symObjAddr: 0x18024, symBinAddr: 0x286B0, symSize: 0x7C }
  - { offset: 0x456BD, size: 0x8, addend: 0x0, symName: __RNCINvNtNtCsATtFUPiRFW_3syn3gen4fold8fold_vecNtNtB8_4item9TraitItemNtNvCs7oyfuZDlTKn_11yoke_derive16replace_lifetime15ReplaceLifetimeNvYB13_NtB4_4Fold15fold_trait_itemE0B17_, symObjAddr: 0x180A0, symBinAddr: 0x2872C, symSize: 0x7C }
  - { offset: 0x4572C, size: 0x8, addend: 0x0, symName: __RNCINvNtNtCsATtFUPiRFW_3syn3gen4fold8fold_vecNtNtB8_4stmt4StmtNtNvCs7oyfuZDlTKn_11yoke_derive16replace_lifetime15ReplaceLifetimeNvYBY_NtB4_4Fold9fold_stmtE0B12_, symObjAddr: 0x1811C, symBinAddr: 0x287A8, symSize: 0x7C }
  - { offset: 0x4D7C4, size: 0x8, addend: 0x0, symName: __RINvNtNtCsATtFUPiRFW_3syn3gen5visit10visit_dataNtNtCs7oyfuZDlTKn_11yoke_derive7visitor11TypeVisitorEBN_, symObjAddr: 0x0, symBinAddr: 0x28858, symSize: 0xE8 }
  - { offset: 0x4E11B, size: 0x8, addend: 0x0, symName: __RINvNtNtCsATtFUPiRFW_3syn3gen5visit10visit_dataNtNtCs7oyfuZDlTKn_11yoke_derive7visitor11TypeVisitorEBN_, symObjAddr: 0x0, symBinAddr: 0x28858, symSize: 0xE8 }
  - { offset: 0x4E1AF, size: 0x8, addend: 0x0, symName: __RINvNtNtCsATtFUPiRFW_3syn3gen5visit10visit_exprNtNtCs7oyfuZDlTKn_11yoke_derive7visitor11TypeVisitorEBN_, symObjAddr: 0xE8, symBinAddr: 0x28940, symSize: 0x7CC }
  - { offset: 0x4E69B, size: 0x8, addend: 0x0, symName: __RINvNtNtCsATtFUPiRFW_3syn3gen5visit10visit_fileNtNtCs7oyfuZDlTKn_11yoke_derive7visitor11TypeVisitorEBN_, symObjAddr: 0x8B4, symBinAddr: 0x2910C, symSize: 0xF8 }
  - { offset: 0x4E735, size: 0x8, addend: 0x0, symName: __RINvNtNtCsATtFUPiRFW_3syn3gen5visit10visit_itemNtNtCs7oyfuZDlTKn_11yoke_derive7visitor11TypeVisitorEBN_, symObjAddr: 0x9AC, symBinAddr: 0x29204, symSize: 0x350 }
  - { offset: 0x4E93F, size: 0x8, addend: 0x0, symName: __RINvNtNtCsATtFUPiRFW_3syn3gen5visit10visit_metaNtNtCs7oyfuZDlTKn_11yoke_derive7visitor11TypeVisitorEBN_, symObjAddr: 0xCFC, symBinAddr: 0x29554, symSize: 0xE8 }
  - { offset: 0x4E9D3, size: 0x8, addend: 0x0, symName: __RINvNtNtCsATtFUPiRFW_3syn3gen5visit10visit_pathNtNtCs7oyfuZDlTKn_11yoke_derive7visitor11TypeVisitorEBN_, symObjAddr: 0xDE4, symBinAddr: 0x2963C, symSize: 0xDC }
  - { offset: 0x4EA60, size: 0x8, addend: 0x0, symName: __RINvNtNtCsATtFUPiRFW_3syn3gen5visit10visit_spanNtNtCs7oyfuZDlTKn_11yoke_derive7visitor11TypeVisitorEBN_, symObjAddr: 0xEC0, symBinAddr: 0x29718, symSize: 0x24 }
  - { offset: 0x4EAA2, size: 0x8, addend: 0x0, symName: __RINvNtNtCsATtFUPiRFW_3syn3gen5visit10visit_stmtNtNtCs7oyfuZDlTKn_11yoke_derive7visitor11TypeVisitorEBN_, symObjAddr: 0xEE4, symBinAddr: 0x2973C, symSize: 0x12C }
  - { offset: 0x4EB64, size: 0x8, addend: 0x0, symName: __RINvNtNtCsATtFUPiRFW_3syn3gen5visit10visit_typeNtNtCs7oyfuZDlTKn_11yoke_derive7visitor11TypeVisitorEBN_, symObjAddr: 0x1010, symBinAddr: 0x29868, symSize: 0x31C }
  - { offset: 0x4ED4E, size: 0x8, addend: 0x0, symName: __RINvNtNtCsATtFUPiRFW_3syn3gen5visit11visit_blockNtNtCs7oyfuZDlTKn_11yoke_derive7visitor11TypeVisitorEBO_, symObjAddr: 0x132C, symBinAddr: 0x29B84, symSize: 0x98 }
  - { offset: 0x4EDBC, size: 0x8, addend: 0x0, symName: __RINvNtNtCsATtFUPiRFW_3syn3gen5visit11visit_fieldNtNtCs7oyfuZDlTKn_11yoke_derive7visitor11TypeVisitorEBO_, symObjAddr: 0x13C4, symBinAddr: 0x29C1C, symSize: 0x118 }
  - { offset: 0x4EE40, size: 0x8, addend: 0x0, symName: __RINvNtNtCsATtFUPiRFW_3syn3gen5visit11visit_identNtNtCs7oyfuZDlTKn_11yoke_derive7visitor11TypeVisitorEBO_, symObjAddr: 0x14DC, symBinAddr: 0x29D34, symSize: 0x58 }
  - { offset: 0x4EE82, size: 0x8, addend: 0x0, symName: __RINvNtNtCsATtFUPiRFW_3syn3gen5visit11visit_indexNtNtCs7oyfuZDlTKn_11yoke_derive7visitor11TypeVisitorEBO_, symObjAddr: 0x1534, symBinAddr: 0x29D8C, symSize: 0x3C }
  - { offset: 0x4EEC4, size: 0x8, addend: 0x0, symName: __RINvNtNtCsATtFUPiRFW_3syn3gen5visit11visit_labelNtNtCs7oyfuZDlTKn_11yoke_derive7visitor11TypeVisitorEBO_, symObjAddr: 0x1570, symBinAddr: 0x29DC8, symSize: 0x3C }
  - { offset: 0x4EF06, size: 0x8, addend: 0x0, symName: __RINvNtNtCsATtFUPiRFW_3syn3gen5visit11visit_localNtNtCs7oyfuZDlTKn_11yoke_derive7visitor11TypeVisitorEBO_, symObjAddr: 0x15AC, symBinAddr: 0x29E04, symSize: 0x100 }
  - { offset: 0x4EF8A, size: 0x8, addend: 0x0, symName: __RINvNtNtCsATtFUPiRFW_3syn3gen5visit11visit_macroNtNtCs7oyfuZDlTKn_11yoke_derive7visitor11TypeVisitorEBO_, symObjAddr: 0x16AC, symBinAddr: 0x29F04, symSize: 0x50 }
  - { offset: 0x4EFCC, size: 0x8, addend: 0x0, symName: __RINvNtNtCsATtFUPiRFW_3syn3gen5visit11visit_qselfNtNtCs7oyfuZDlTKn_11yoke_derive7visitor11TypeVisitorEBO_, symObjAddr: 0x16FC, symBinAddr: 0x29F54, symSize: 0x40 }
  - { offset: 0x4F00E, size: 0x8, addend: 0x0, symName: __RINvNtNtCsATtFUPiRFW_3syn3gen5visit11visit_un_opNtNtCs7oyfuZDlTKn_11yoke_derive7visitor11TypeVisitorEBO_, symObjAddr: 0x173C, symBinAddr: 0x29F94, symSize: 0xA8 }
  - { offset: 0x4F050, size: 0x8, addend: 0x0, symName: __RINvNtNtCsATtFUPiRFW_3syn3gen5visit12visit_bin_opNtNtCs7oyfuZDlTKn_11yoke_derive7visitor11TypeVisitorEBP_, symObjAddr: 0x17E4, symBinAddr: 0x2A03C, symSize: 0x438 }
  - { offset: 0x4F092, size: 0x8, addend: 0x0, symName: __RINvNtNtCsATtFUPiRFW_3syn3gen5visit12visit_fieldsNtNtCs7oyfuZDlTKn_11yoke_derive7visitor11TypeVisitorEBP_, symObjAddr: 0x1C1C, symBinAddr: 0x2A474, symSize: 0xC4 }
  - { offset: 0x4F110, size: 0x8, addend: 0x0, symName: __RINvNtNtCsATtFUPiRFW_3syn3gen5visit12visit_fn_argNtNtCs7oyfuZDlTKn_11yoke_derive7visitor11TypeVisitorEBP_, symObjAddr: 0x1CE0, symBinAddr: 0x2A538, symSize: 0xA0 }
  - { offset: 0x4F186, size: 0x8, addend: 0x0, symName: __RINvNtNtCsATtFUPiRFW_3syn3gen5visit12visit_memberNtNtCs7oyfuZDlTKn_11yoke_derive7visitor11TypeVisitorEBP_, symObjAddr: 0x1D80, symBinAddr: 0x2A5D8, symSize: 0x98 }
  - { offset: 0x4F1FC, size: 0x8, addend: 0x0, symName: __RINvNtNtCsATtFUPiRFW_3syn3gen5visit12visit_pat_orNtNtCs7oyfuZDlTKn_11yoke_derive7visitor11TypeVisitorEBP_, symObjAddr: 0x1E18, symBinAddr: 0x2A670, symSize: 0x13C }
  - { offset: 0x4F2B5, size: 0x8, addend: 0x0, symName: __RINvNtNtCsATtFUPiRFW_3syn3gen5visit13visit_expr_ifNtNtCs7oyfuZDlTKn_11yoke_derive7visitor11TypeVisitorEBQ_, symObjAddr: 0x1F54, symBinAddr: 0x2A7AC, symSize: 0x114 }
  - { offset: 0x4F339, size: 0x8, addend: 0x0, symName: __RINvNtNtCsATtFUPiRFW_3syn3gen5visit13visit_item_fnNtNtCs7oyfuZDlTKn_11yoke_derive7visitor11TypeVisitorEBQ_, symObjAddr: 0x2068, symBinAddr: 0x2A8C0, symSize: 0xC4 }
  - { offset: 0x4F3A7, size: 0x8, addend: 0x0, symName: __RINvNtNtCsATtFUPiRFW_3syn3gen5visit13visit_lit_intNtNtCs7oyfuZDlTKn_11yoke_derive7visitor11TypeVisitorEBQ_, symObjAddr: 0x212C, symBinAddr: 0x2A984, symSize: 0x24 }
  - { offset: 0x4F3E9, size: 0x8, addend: 0x0, symName: __RINvNtNtCsATtFUPiRFW_3syn3gen5visit13visit_lit_strNtNtCs7oyfuZDlTKn_11yoke_derive7visitor11TypeVisitorEBQ_, symObjAddr: 0x2150, symBinAddr: 0x2A9A8, symSize: 0x24 }
  - { offset: 0x4F42B, size: 0x8, addend: 0x0, symName: __RINvNtNtCsATtFUPiRFW_3syn3gen5visit13visit_variantNtNtCs7oyfuZDlTKn_11yoke_derive7visitor11TypeVisitorEBQ_, symObjAddr: 0x2174, symBinAddr: 0x2A9CC, symSize: 0x10C }
  - { offset: 0x4F4AF, size: 0x8, addend: 0x0, symName: __RINvNtNtCsATtFUPiRFW_3syn3gen5visit14visit_expr_letNtNtCs7oyfuZDlTKn_11yoke_derive7visitor11TypeVisitorEBR_, symObjAddr: 0x2280, symBinAddr: 0x2AAD8, symSize: 0xBC }
  - { offset: 0x4F51D, size: 0x8, addend: 0x0, symName: __RINvNtNtCsATtFUPiRFW_3syn3gen5visit14visit_expr_litNtNtCs7oyfuZDlTKn_11yoke_derive7visitor11TypeVisitorEBR_, symObjAddr: 0x233C, symBinAddr: 0x2AB94, symSize: 0xA8 }
  - { offset: 0x4F58B, size: 0x8, addend: 0x0, symName: __RINvNtNtCsATtFUPiRFW_3syn3gen5visit14visit_expr_tryNtNtCs7oyfuZDlTKn_11yoke_derive7visitor11TypeVisitorEBR_, symObjAddr: 0x23E4, symBinAddr: 0x2AC3C, symSize: 0xAC }
  - { offset: 0x4F5F9, size: 0x8, addend: 0x0, symName: __RINvNtNtCsATtFUPiRFW_3syn3gen5visit14visit_genericsNtNtCs7oyfuZDlTKn_11yoke_derive7visitor11TypeVisitorEBR_, symObjAddr: 0x2490, symBinAddr: 0x2ACE8, symSize: 0x138 }
  - { offset: 0x4F69C, size: 0x8, addend: 0x0, symName: __RINvNtNtCsATtFUPiRFW_3syn3gen5visit14visit_item_modNtNtCs7oyfuZDlTKn_11yoke_derive7visitor11TypeVisitorEBR_, symObjAddr: 0x25C8, symBinAddr: 0x2AE20, symSize: 0x17C }
  - { offset: 0x4F74C, size: 0x8, addend: 0x0, symName: __RINvNtNtCsATtFUPiRFW_3syn3gen5visit14visit_item_useNtNtCs7oyfuZDlTKn_11yoke_derive7visitor11TypeVisitorEBR_, symObjAddr: 0x2744, symBinAddr: 0x2AF9C, symSize: 0xB8 }
  - { offset: 0x4F7BA, size: 0x8, addend: 0x0, symName: __RINvNtNtCsATtFUPiRFW_3syn3gen5visit14visit_lifetimeNtNtCs7oyfuZDlTKn_11yoke_derive7visitor11TypeVisitorEBR_, symObjAddr: 0x27FC, symBinAddr: 0x2B054, symSize: 0x50 }
  - { offset: 0x4F7FC, size: 0x8, addend: 0x0, symName: __RINvNtNtCsATtFUPiRFW_3syn3gen5visit14visit_lit_boolNtNtCs7oyfuZDlTKn_11yoke_derive7visitor11TypeVisitorEBR_, symObjAddr: 0x284C, symBinAddr: 0x2B0A4, symSize: 0x3C }
  - { offset: 0x4F83E, size: 0x8, addend: 0x0, symName: __RINvNtNtCsATtFUPiRFW_3syn3gen5visit14visit_lit_byteNtNtCs7oyfuZDlTKn_11yoke_derive7visitor11TypeVisitorEBR_, symObjAddr: 0x2888, symBinAddr: 0x2B0E0, symSize: 0x24 }
  - { offset: 0x4F880, size: 0x8, addend: 0x0, symName: __RINvNtNtCsATtFUPiRFW_3syn3gen5visit14visit_lit_charNtNtCs7oyfuZDlTKn_11yoke_derive7visitor11TypeVisitorEBR_, symObjAddr: 0x28AC, symBinAddr: 0x2B104, symSize: 0x24 }
  - { offset: 0x4F8C2, size: 0x8, addend: 0x0, symName: __RINvNtNtCsATtFUPiRFW_3syn3gen5visit14visit_lit_cstrNtNtCs7oyfuZDlTKn_11yoke_derive7visitor11TypeVisitorEBR_, symObjAddr: 0x28D0, symBinAddr: 0x2B128, symSize: 0x24 }
  - { offset: 0x4F904, size: 0x8, addend: 0x0, symName: __RINvNtNtCsATtFUPiRFW_3syn3gen5visit14visit_pat_restNtNtCs7oyfuZDlTKn_11yoke_derive7visitor11TypeVisitorEBR_, symObjAddr: 0x28F4, symBinAddr: 0x2B14C, symSize: 0x98 }
  - { offset: 0x4F972, size: 0x8, addend: 0x0, symName: __RINvNtNtCsATtFUPiRFW_3syn3gen5visit14visit_pat_typeNtNtCs7oyfuZDlTKn_11yoke_derive7visitor11TypeVisitorEBR_, symObjAddr: 0x298C, symBinAddr: 0x2B1E4, symSize: 0xBC }
  - { offset: 0x4F9E0, size: 0x8, addend: 0x0, symName: __RINvNtNtCsATtFUPiRFW_3syn3gen5visit14visit_pat_wildNtNtCs7oyfuZDlTKn_11yoke_derive7visitor11TypeVisitorEBR_, symObjAddr: 0x2A48, symBinAddr: 0x2B2A0, symSize: 0x98 }
  - { offset: 0x4FA4E, size: 0x8, addend: 0x0, symName: __RINvNtNtCsATtFUPiRFW_3syn3gen5visit14visit_receiverNtNtCs7oyfuZDlTKn_11yoke_derive7visitor11TypeVisitorEBR_, symObjAddr: 0x2AE0, symBinAddr: 0x2B338, symSize: 0x158 }
  - { offset: 0x4FAE8, size: 0x8, addend: 0x0, symName: __RINvNtNtCsATtFUPiRFW_3syn3gen5visit14visit_type_ptrNtNtCs7oyfuZDlTKn_11yoke_derive7visitor11TypeVisitorEBR_, symObjAddr: 0x2C38, symBinAddr: 0x2B490, symSize: 0x40 }
  - { offset: 0x4FB2A, size: 0x8, addend: 0x0, symName: __RINvNtNtCsATtFUPiRFW_3syn3gen5visit14visit_use_globNtNtCs7oyfuZDlTKn_11yoke_derive7visitor11TypeVisitorEBR_, symObjAddr: 0x2C78, symBinAddr: 0x2B4D0, symSize: 0x24 }
  - { offset: 0x4FB6C, size: 0x8, addend: 0x0, symName: __RINvNtNtCsATtFUPiRFW_3syn3gen5visit14visit_use_nameNtNtCs7oyfuZDlTKn_11yoke_derive7visitor11TypeVisitorEBR_, symObjAddr: 0x2C9C, symBinAddr: 0x2B4F4, symSize: 0x3C }
  - { offset: 0x4FBAE, size: 0x8, addend: 0x0, symName: __RINvNtNtCsATtFUPiRFW_3syn3gen5visit14visit_use_pathNtNtCs7oyfuZDlTKn_11yoke_derive7visitor11TypeVisitorEBR_, symObjAddr: 0x2CD8, symBinAddr: 0x2B530, symSize: 0x58 }
  - { offset: 0x4FBF0, size: 0x8, addend: 0x0, symName: __RINvNtNtCsATtFUPiRFW_3syn3gen5visit14visit_use_treeNtNtCs7oyfuZDlTKn_11yoke_derive7visitor11TypeVisitorEBR_, symObjAddr: 0x2D30, symBinAddr: 0x2B588, symSize: 0x15C }
  - { offset: 0x4FCC0, size: 0x8, addend: 0x0, symName: __RINvNtNtCsATtFUPiRFW_3syn3gen5visit14visit_variadicNtNtCs7oyfuZDlTKn_11yoke_derive7visitor11TypeVisitorEBR_, symObjAddr: 0x2E8C, symBinAddr: 0x2B6E4, symSize: 0xF4 }
  - { offset: 0x4FD44, size: 0x8, addend: 0x0, symName: __RINvNtNtCsATtFUPiRFW_3syn3gen5visit15visit_attributeNtNtCs7oyfuZDlTKn_11yoke_derive7visitor11TypeVisitorEBS_, symObjAddr: 0x2F80, symBinAddr: 0x2B7D8, symSize: 0x50 }
  - { offset: 0x4FD86, size: 0x8, addend: 0x0, symName: __RINvNtNtCsATtFUPiRFW_3syn3gen5visit15visit_data_enumNtNtCs7oyfuZDlTKn_11yoke_derive7visitor11TypeVisitorEBS_, symObjAddr: 0x2FD0, symBinAddr: 0x2B828, symSize: 0xDC }
  - { offset: 0x4FE13, size: 0x8, addend: 0x0, symName: __RINvNtNtCsATtFUPiRFW_3syn3gen5visit15visit_expr_callNtNtCs7oyfuZDlTKn_11yoke_derive7visitor11TypeVisitorEBS_, symObjAddr: 0x30AC, symBinAddr: 0x2B904, symSize: 0x150 }
  - { offset: 0x4FECC, size: 0x8, addend: 0x0, symName: __RINvNtNtCsATtFUPiRFW_3syn3gen5visit15visit_expr_castNtNtCs7oyfuZDlTKn_11yoke_derive7visitor11TypeVisitorEBS_, symObjAddr: 0x31FC, symBinAddr: 0x2BA54, symSize: 0xBC }
  - { offset: 0x4FF3A, size: 0x8, addend: 0x0, symName: __RINvNtNtCsATtFUPiRFW_3syn3gen5visit15visit_expr_loopNtNtCs7oyfuZDlTKn_11yoke_derive7visitor11TypeVisitorEBS_, symObjAddr: 0x32B8, symBinAddr: 0x2BB10, symSize: 0x100 }
  - { offset: 0x4FFBE, size: 0x8, addend: 0x0, symName: __RINvNtNtCsATtFUPiRFW_3syn3gen5visit15visit_expr_pathNtNtCs7oyfuZDlTKn_11yoke_derive7visitor11TypeVisitorEBS_, symObjAddr: 0x33B8, symBinAddr: 0x2BC10, symSize: 0x100 }
  - { offset: 0x50042, size: 0x8, addend: 0x0, symName: __RINvNtNtCsATtFUPiRFW_3syn3gen5visit15visit_field_patNtNtCs7oyfuZDlTKn_11yoke_derive7visitor11TypeVisitorEBS_, symObjAddr: 0x34B8, symBinAddr: 0x2BD10, symSize: 0xBC }
  - { offset: 0x500B0, size: 0x8, addend: 0x0, symName: __RINvNtNtCsATtFUPiRFW_3syn3gen5visit15visit_impl_itemNtNtCs7oyfuZDlTKn_11yoke_derive7visitor11TypeVisitorEBS_, symObjAddr: 0x3574, symBinAddr: 0x2BDCC, symSize: 0x15C }
  - { offset: 0x5016A, size: 0x8, addend: 0x0, symName: __RINvNtNtCsATtFUPiRFW_3syn3gen5visit15visit_item_enumNtNtCs7oyfuZDlTKn_11yoke_derive7visitor11TypeVisitorEBS_, symObjAddr: 0x36D0, symBinAddr: 0x2BF28, symSize: 0x16C }
  - { offset: 0x50223, size: 0x8, addend: 0x0, symName: __RINvNtNtCsATtFUPiRFW_3syn3gen5visit15visit_item_implNtNtCs7oyfuZDlTKn_11yoke_derive7visitor11TypeVisitorEBS_, symObjAddr: 0x383C, symBinAddr: 0x2C094, symSize: 0x174 }
  - { offset: 0x502D3, size: 0x8, addend: 0x0, symName: __RINvNtNtCsATtFUPiRFW_3syn3gen5visit15visit_item_typeNtNtCs7oyfuZDlTKn_11yoke_derive7visitor11TypeVisitorEBS_, symObjAddr: 0x39B0, symBinAddr: 0x2C208, symSize: 0xDC }
  - { offset: 0x50341, size: 0x8, addend: 0x0, symName: __RINvNtNtCsATtFUPiRFW_3syn3gen5visit15visit_lit_floatNtNtCs7oyfuZDlTKn_11yoke_derive7visitor11TypeVisitorEBS_, symObjAddr: 0x3A8C, symBinAddr: 0x2C2E4, symSize: 0x24 }
  - { offset: 0x50383, size: 0x8, addend: 0x0, symName: __RINvNtNtCsATtFUPiRFW_3syn3gen5visit15visit_meta_listNtNtCs7oyfuZDlTKn_11yoke_derive7visitor11TypeVisitorEBS_, symObjAddr: 0x3AB0, symBinAddr: 0x2C308, symSize: 0x50 }
  - { offset: 0x503C5, size: 0x8, addend: 0x0, symName: __RINvNtNtCsATtFUPiRFW_3syn3gen5visit15visit_pat_identNtNtCs7oyfuZDlTKn_11yoke_derive7visitor11TypeVisitorEBS_, symObjAddr: 0x3B00, symBinAddr: 0x2C358, symSize: 0x104 }
  - { offset: 0x50449, size: 0x8, addend: 0x0, symName: __RINvNtNtCsATtFUPiRFW_3syn3gen5visit15visit_pat_parenNtNtCs7oyfuZDlTKn_11yoke_derive7visitor11TypeVisitorEBS_, symObjAddr: 0x3C04, symBinAddr: 0x2C45C, symSize: 0xAC }
  - { offset: 0x504B7, size: 0x8, addend: 0x0, symName: __RINvNtNtCsATtFUPiRFW_3syn3gen5visit15visit_pat_sliceNtNtCs7oyfuZDlTKn_11yoke_derive7visitor11TypeVisitorEBS_, symObjAddr: 0x3CB0, symBinAddr: 0x2C508, symSize: 0x13C }
  - { offset: 0x50570, size: 0x8, addend: 0x0, symName: __RINvNtNtCsATtFUPiRFW_3syn3gen5visit15visit_pat_tupleNtNtCs7oyfuZDlTKn_11yoke_derive7visitor11TypeVisitorEBS_, symObjAddr: 0x3DEC, symBinAddr: 0x2C644, symSize: 0x13C }
  - { offset: 0x50629, size: 0x8, addend: 0x0, symName: __RINvNtNtCsATtFUPiRFW_3syn3gen5visit15visit_signatureNtNtCs7oyfuZDlTKn_11yoke_derive7visitor11TypeVisitorEBS_, symObjAddr: 0x3F28, symBinAddr: 0x2C780, symSize: 0x1AC }
  - { offset: 0x506EA, size: 0x8, addend: 0x0, symName: __RINvNtNtCsATtFUPiRFW_3syn3gen5visit15visit_type_pathNtNtCs7oyfuZDlTKn_11yoke_derive7visitor11TypeVisitorEBS_, symObjAddr: 0x40D4, symBinAddr: 0x2C92C, symSize: 0x94 }
  - { offset: 0x5074A, size: 0x8, addend: 0x0, symName: __RINvNtNtCsATtFUPiRFW_3syn3gen5visit15visit_use_groupNtNtCs7oyfuZDlTKn_11yoke_derive7visitor11TypeVisitorEBS_, symObjAddr: 0x4168, symBinAddr: 0x2C9C0, symSize: 0xDC }
  - { offset: 0x507D7, size: 0x8, addend: 0x0, symName: __RINvNtNtCsATtFUPiRFW_3syn3gen5visit16visit_assoc_typeNtNtCs7oyfuZDlTKn_11yoke_derive7visitor11TypeVisitorEBT_, symObjAddr: 0x4244, symBinAddr: 0x2CA9C, symSize: 0xA8 }
  - { offset: 0x50837, size: 0x8, addend: 0x0, symName: __RINvNtNtCsATtFUPiRFW_3syn3gen5visit16visit_attr_styleNtNtCs7oyfuZDlTKn_11yoke_derive7visitor11TypeVisitorEBT_, symObjAddr: 0x42EC, symBinAddr: 0x2CB44, symSize: 0x60 }
  - { offset: 0x50879, size: 0x8, addend: 0x0, symName: __RINvNtNtCsATtFUPiRFW_3syn3gen5visit16visit_constraintNtNtCs7oyfuZDlTKn_11yoke_derive7visitor11TypeVisitorEBT_, symObjAddr: 0x434C, symBinAddr: 0x2CBA4, symSize: 0x13C }
  - { offset: 0x50924, size: 0x8, addend: 0x0, symName: __RINvNtNtCsATtFUPiRFW_3syn3gen5visit16visit_data_unionNtNtCs7oyfuZDlTKn_11yoke_derive7visitor11TypeVisitorEBT_, symObjAddr: 0x4488, symBinAddr: 0x2CCE0, symSize: 0x3C }
  - { offset: 0x50966, size: 0x8, addend: 0x0, symName: __RINvNtNtCsATtFUPiRFW_3syn3gen5visit16visit_expr_arrayNtNtCs7oyfuZDlTKn_11yoke_derive7visitor11TypeVisitorEBT_, symObjAddr: 0x44C4, symBinAddr: 0x2CD1C, symSize: 0x13C }
  - { offset: 0x50A1F, size: 0x8, addend: 0x0, symName: __RINvNtNtCsATtFUPiRFW_3syn3gen5visit16visit_expr_asyncNtNtCs7oyfuZDlTKn_11yoke_derive7visitor11TypeVisitorEBT_, symObjAddr: 0x4600, symBinAddr: 0x2CE58, symSize: 0xA8 }
  - { offset: 0x50A8D, size: 0x8, addend: 0x0, symName: __RINvNtNtCsATtFUPiRFW_3syn3gen5visit16visit_expr_awaitNtNtCs7oyfuZDlTKn_11yoke_derive7visitor11TypeVisitorEBT_, symObjAddr: 0x46A8, symBinAddr: 0x2CF00, symSize: 0xAC }
  - { offset: 0x50AFB, size: 0x8, addend: 0x0, symName: __RINvNtNtCsATtFUPiRFW_3syn3gen5visit16visit_expr_blockNtNtCs7oyfuZDlTKn_11yoke_derive7visitor11TypeVisitorEBT_, symObjAddr: 0x4754, symBinAddr: 0x2CFAC, symSize: 0x100 }
  - { offset: 0x50B7F, size: 0x8, addend: 0x0, symName: __RINvNtNtCsATtFUPiRFW_3syn3gen5visit16visit_expr_breakNtNtCs7oyfuZDlTKn_11yoke_derive7visitor11TypeVisitorEBT_, symObjAddr: 0x4854, symBinAddr: 0x2D0AC, symSize: 0x148 }
  - { offset: 0x50C21, size: 0x8, addend: 0x0, symName: __RINvNtNtCsATtFUPiRFW_3syn3gen5visit16visit_expr_constNtNtCs7oyfuZDlTKn_11yoke_derive7visitor11TypeVisitorEBT_, symObjAddr: 0x499C, symBinAddr: 0x2D1F4, symSize: 0xA8 }
  - { offset: 0x50C8F, size: 0x8, addend: 0x0, symName: __RINvNtNtCsATtFUPiRFW_3syn3gen5visit16visit_expr_fieldNtNtCs7oyfuZDlTKn_11yoke_derive7visitor11TypeVisitorEBT_, symObjAddr: 0x4A44, symBinAddr: 0x2D29C, symSize: 0xBC }
  - { offset: 0x50CFD, size: 0x8, addend: 0x0, symName: __RINvNtNtCsATtFUPiRFW_3syn3gen5visit16visit_expr_groupNtNtCs7oyfuZDlTKn_11yoke_derive7visitor11TypeVisitorEBT_, symObjAddr: 0x4B00, symBinAddr: 0x2D358, symSize: 0xAC }
  - { offset: 0x50D6B, size: 0x8, addend: 0x0, symName: __RINvNtNtCsATtFUPiRFW_3syn3gen5visit16visit_expr_indexNtNtCs7oyfuZDlTKn_11yoke_derive7visitor11TypeVisitorEBT_, symObjAddr: 0x4BAC, symBinAddr: 0x2D404, symSize: 0xBC }
  - { offset: 0x50DD9, size: 0x8, addend: 0x0, symName: __RINvNtNtCsATtFUPiRFW_3syn3gen5visit16visit_expr_inferNtNtCs7oyfuZDlTKn_11yoke_derive7visitor11TypeVisitorEBT_, symObjAddr: 0x4C68, symBinAddr: 0x2D4C0, symSize: 0x98 }
  - { offset: 0x50E47, size: 0x8, addend: 0x0, symName: __RINvNtNtCsATtFUPiRFW_3syn3gen5visit16visit_expr_macroNtNtCs7oyfuZDlTKn_11yoke_derive7visitor11TypeVisitorEBT_, symObjAddr: 0x4D00, symBinAddr: 0x2D558, symSize: 0xA8 }
  - { offset: 0x50EB5, size: 0x8, addend: 0x0, symName: __RINvNtNtCsATtFUPiRFW_3syn3gen5visit16visit_expr_matchNtNtCs7oyfuZDlTKn_11yoke_derive7visitor11TypeVisitorEBT_, symObjAddr: 0x4DA8, symBinAddr: 0x2D600, symSize: 0x10C }
  - { offset: 0x50F4F, size: 0x8, addend: 0x0, symName: __RINvNtNtCsATtFUPiRFW_3syn3gen5visit16visit_expr_parenNtNtCs7oyfuZDlTKn_11yoke_derive7visitor11TypeVisitorEBT_, symObjAddr: 0x4EB4, symBinAddr: 0x2D70C, symSize: 0xAC }
  - { offset: 0x50FBD, size: 0x8, addend: 0x0, symName: __RINvNtNtCsATtFUPiRFW_3syn3gen5visit16visit_expr_rangeNtNtCs7oyfuZDlTKn_11yoke_derive7visitor11TypeVisitorEBT_, symObjAddr: 0x4F60, symBinAddr: 0x2D7B8, symSize: 0x15C }
  - { offset: 0x5105F, size: 0x8, addend: 0x0, symName: __RINvNtNtCsATtFUPiRFW_3syn3gen5visit16visit_expr_tupleNtNtCs7oyfuZDlTKn_11yoke_derive7visitor11TypeVisitorEBT_, symObjAddr: 0x50BC, symBinAddr: 0x2D914, symSize: 0x13C }
  - { offset: 0x51118, size: 0x8, addend: 0x0, symName: __RINvNtNtCsATtFUPiRFW_3syn3gen5visit16visit_expr_unaryNtNtCs7oyfuZDlTKn_11yoke_derive7visitor11TypeVisitorEBT_, symObjAddr: 0x51F8, symBinAddr: 0x2DA50, symSize: 0xBC }
  - { offset: 0x51186, size: 0x8, addend: 0x0, symName: __RINvNtNtCsATtFUPiRFW_3syn3gen5visit16visit_expr_whileNtNtCs7oyfuZDlTKn_11yoke_derive7visitor11TypeVisitorEBT_, symObjAddr: 0x52B4, symBinAddr: 0x2DB0C, symSize: 0x110 }
  - { offset: 0x5120A, size: 0x8, addend: 0x0, symName: __RINvNtNtCsATtFUPiRFW_3syn3gen5visit16visit_expr_yieldNtNtCs7oyfuZDlTKn_11yoke_derive7visitor11TypeVisitorEBT_, symObjAddr: 0x53C4, symBinAddr: 0x2DC1C, symSize: 0xF4 }
  - { offset: 0x5128E, size: 0x8, addend: 0x0, symName: __RINvNtNtCsATtFUPiRFW_3syn3gen5visit16visit_item_constNtNtCs7oyfuZDlTKn_11yoke_derive7visitor11TypeVisitorEBT_, symObjAddr: 0x54B8, symBinAddr: 0x2DD10, symSize: 0xEC }
  - { offset: 0x512FC, size: 0x8, addend: 0x0, symName: __RINvNtNtCsATtFUPiRFW_3syn3gen5visit16visit_item_macroNtNtCs7oyfuZDlTKn_11yoke_derive7visitor11TypeVisitorEBT_, symObjAddr: 0x55A4, symBinAddr: 0x2DDFC, symSize: 0x100 }
  - { offset: 0x51380, size: 0x8, addend: 0x0, symName: __RINvNtNtCsATtFUPiRFW_3syn3gen5visit16visit_item_traitNtNtCs7oyfuZDlTKn_11yoke_derive7visitor11TypeVisitorEBT_, symObjAddr: 0x56A4, symBinAddr: 0x2DEFC, symSize: 0x1E4 }
  - { offset: 0x51481, size: 0x8, addend: 0x0, symName: __RINvNtNtCsATtFUPiRFW_3syn3gen5visit16visit_item_unionNtNtCs7oyfuZDlTKn_11yoke_derive7visitor11TypeVisitorEBT_, symObjAddr: 0x5888, symBinAddr: 0x2E0E0, symSize: 0xD8 }
  - { offset: 0x514EF, size: 0x8, addend: 0x0, symName: __RINvNtNtCsATtFUPiRFW_3syn3gen5visit16visit_local_initNtNtCs7oyfuZDlTKn_11yoke_derive7visitor11TypeVisitorEBT_, symObjAddr: 0x5960, symBinAddr: 0x2E1B8, symSize: 0x98 }
  - { offset: 0x5154F, size: 0x8, addend: 0x0, symName: __RINvNtNtCsATtFUPiRFW_3syn3gen5visit16visit_pat_structNtNtCs7oyfuZDlTKn_11yoke_derive7visitor11TypeVisitorEBT_, symObjAddr: 0x59F8, symBinAddr: 0x2E250, symSize: 0x1FC }
  - { offset: 0x51634, size: 0x8, addend: 0x0, symName: __RINvNtNtCsATtFUPiRFW_3syn3gen5visit16visit_stmt_macroNtNtCs7oyfuZDlTKn_11yoke_derive7visitor11TypeVisitorEBT_, symObjAddr: 0x5BF4, symBinAddr: 0x2E44C, symSize: 0xA8 }
  - { offset: 0x516A2, size: 0x8, addend: 0x0, symName: __RINvNtNtCsATtFUPiRFW_3syn3gen5visit16visit_trait_itemNtNtCs7oyfuZDlTKn_11yoke_derive7visitor11TypeVisitorEBT_, symObjAddr: 0x5C9C, symBinAddr: 0x2E4F4, symSize: 0x15C }
  - { offset: 0x5175C, size: 0x8, addend: 0x0, symName: __RINvNtNtCsATtFUPiRFW_3syn3gen5visit16visit_type_arrayNtNtCs7oyfuZDlTKn_11yoke_derive7visitor11TypeVisitorEBT_, symObjAddr: 0x5DF8, symBinAddr: 0x2E650, symSize: 0x54 }
  - { offset: 0x5179E, size: 0x8, addend: 0x0, symName: __RINvNtNtCsATtFUPiRFW_3syn3gen5visit16visit_type_groupNtNtCs7oyfuZDlTKn_11yoke_derive7visitor11TypeVisitorEBT_, symObjAddr: 0x5E4C, symBinAddr: 0x2E6A4, symSize: 0x40 }
  - { offset: 0x517E0, size: 0x8, addend: 0x0, symName: __RINvNtNtCsATtFUPiRFW_3syn3gen5visit16visit_type_inferNtNtCs7oyfuZDlTKn_11yoke_derive7visitor11TypeVisitorEBT_, symObjAddr: 0x5E8C, symBinAddr: 0x2E6E4, symSize: 0x24 }
  - { offset: 0x51822, size: 0x8, addend: 0x0, symName: __RINvNtNtCsATtFUPiRFW_3syn3gen5visit16visit_type_macroNtNtCs7oyfuZDlTKn_11yoke_derive7visitor11TypeVisitorEBT_, symObjAddr: 0x5EB0, symBinAddr: 0x2E708, symSize: 0x3C }
  - { offset: 0x51864, size: 0x8, addend: 0x0, symName: __RINvNtNtCsATtFUPiRFW_3syn3gen5visit16visit_type_neverNtNtCs7oyfuZDlTKn_11yoke_derive7visitor11TypeVisitorEBT_, symObjAddr: 0x5EEC, symBinAddr: 0x2E744, symSize: 0x24 }
  - { offset: 0x518A6, size: 0x8, addend: 0x0, symName: __RINvNtNtCsATtFUPiRFW_3syn3gen5visit16visit_type_paramNtNtCs7oyfuZDlTKn_11yoke_derive7visitor11TypeVisitorEBT_, symObjAddr: 0x5F10, symBinAddr: 0x2E768, symSize: 0x198 }
  - { offset: 0x51975, size: 0x8, addend: 0x0, symName: __RINvNtNtCsATtFUPiRFW_3syn3gen5visit16visit_type_parenNtNtCs7oyfuZDlTKn_11yoke_derive7visitor11TypeVisitorEBT_, symObjAddr: 0x60A8, symBinAddr: 0x2E900, symSize: 0x40 }
  - { offset: 0x519B7, size: 0x8, addend: 0x0, symName: __RINvNtNtCsATtFUPiRFW_3syn3gen5visit16visit_type_sliceNtNtCs7oyfuZDlTKn_11yoke_derive7visitor11TypeVisitorEBT_, symObjAddr: 0x60E8, symBinAddr: 0x2E940, symSize: 0x40 }
  - { offset: 0x519F9, size: 0x8, addend: 0x0, symName: __RINvNtNtCsATtFUPiRFW_3syn3gen5visit16visit_type_tupleNtNtCs7oyfuZDlTKn_11yoke_derive7visitor11TypeVisitorEBT_, symObjAddr: 0x6128, symBinAddr: 0x2E980, symSize: 0xDC }
  - { offset: 0x51A86, size: 0x8, addend: 0x0, symName: __RINvNtNtCsATtFUPiRFW_3syn3gen5visit16visit_use_renameNtNtCs7oyfuZDlTKn_11yoke_derive7visitor11TypeVisitorEBT_, symObjAddr: 0x6204, symBinAddr: 0x2EA5C, symSize: 0x50 }
  - { offset: 0x51AC8, size: 0x8, addend: 0x0, symName: __RINvNtNtCsATtFUPiRFW_3syn3gen5visit16visit_visibilityNtNtCs7oyfuZDlTKn_11yoke_derive7visitor11TypeVisitorEBT_, symObjAddr: 0x6254, symBinAddr: 0x2EAAC, symSize: 0xC4 }
  - { offset: 0x51B28, size: 0x8, addend: 0x0, symName: __RINvNtNtCsATtFUPiRFW_3syn3gen5visit17visit_assoc_constNtNtCs7oyfuZDlTKn_11yoke_derive7visitor11TypeVisitorEBU_, symObjAddr: 0x6318, symBinAddr: 0x2EB70, symSize: 0xA8 }
  - { offset: 0x51B88, size: 0x8, addend: 0x0, symName: __RINvNtNtCsATtFUPiRFW_3syn3gen5visit17visit_bare_fn_argNtNtCs7oyfuZDlTKn_11yoke_derive7visitor11TypeVisitorEBU_, symObjAddr: 0x63C0, symBinAddr: 0x2EC18, symSize: 0xF8 }
  - { offset: 0x51C0C, size: 0x8, addend: 0x0, symName: __RINvNtNtCsATtFUPiRFW_3syn3gen5visit17visit_const_paramNtNtCs7oyfuZDlTKn_11yoke_derive7visitor11TypeVisitorEBU_, symObjAddr: 0x64B8, symBinAddr: 0x2ED10, symSize: 0x108 }
  - { offset: 0x51C90, size: 0x8, addend: 0x0, symName: __RINvNtNtCsATtFUPiRFW_3syn3gen5visit17visit_data_structNtNtCs7oyfuZDlTKn_11yoke_derive7visitor11TypeVisitorEBU_, symObjAddr: 0x65C0, symBinAddr: 0x2EE18, symSize: 0x3C }
  - { offset: 0x51CD2, size: 0x8, addend: 0x0, symName: __RINvNtNtCsATtFUPiRFW_3syn3gen5visit17visit_expr_assignNtNtCs7oyfuZDlTKn_11yoke_derive7visitor11TypeVisitorEBU_, symObjAddr: 0x65FC, symBinAddr: 0x2EE54, symSize: 0xBC }
  - { offset: 0x51D40, size: 0x8, addend: 0x0, symName: __RINvNtNtCsATtFUPiRFW_3syn3gen5visit17visit_expr_binaryNtNtCs7oyfuZDlTKn_11yoke_derive7visitor11TypeVisitorEBU_, symObjAddr: 0x66B8, symBinAddr: 0x2EF10, symSize: 0xCC }
  - { offset: 0x51DAE, size: 0x8, addend: 0x0, symName: __RINvNtNtCsATtFUPiRFW_3syn3gen5visit17visit_expr_repeatNtNtCs7oyfuZDlTKn_11yoke_derive7visitor11TypeVisitorEBU_, symObjAddr: 0x6784, symBinAddr: 0x2EFDC, symSize: 0xBC }
  - { offset: 0x51E1C, size: 0x8, addend: 0x0, symName: __RINvNtNtCsATtFUPiRFW_3syn3gen5visit17visit_expr_returnNtNtCs7oyfuZDlTKn_11yoke_derive7visitor11TypeVisitorEBU_, symObjAddr: 0x6840, symBinAddr: 0x2F098, symSize: 0xF4 }
  - { offset: 0x51EA0, size: 0x8, addend: 0x0, symName: __RINvNtNtCsATtFUPiRFW_3syn3gen5visit17visit_expr_structNtNtCs7oyfuZDlTKn_11yoke_derive7visitor11TypeVisitorEBU_, symObjAddr: 0x6934, symBinAddr: 0x2F18C, symSize: 0x1FC }
  - { offset: 0x51F85, size: 0x8, addend: 0x0, symName: __RINvNtNtCsATtFUPiRFW_3syn3gen5visit17visit_expr_unsafeNtNtCs7oyfuZDlTKn_11yoke_derive7visitor11TypeVisitorEBU_, symObjAddr: 0x6B30, symBinAddr: 0x2F388, symSize: 0xA8 }
  - { offset: 0x51FF3, size: 0x8, addend: 0x0, symName: __RINvNtNtCsATtFUPiRFW_3syn3gen5visit17visit_field_valueNtNtCs7oyfuZDlTKn_11yoke_derive7visitor11TypeVisitorEBU_, symObjAddr: 0x6BD8, symBinAddr: 0x2F430, symSize: 0xB0 }
  - { offset: 0x52061, size: 0x8, addend: 0x0, symName: __RINvNtNtCsATtFUPiRFW_3syn3gen5visit17visit_item_staticNtNtCs7oyfuZDlTKn_11yoke_derive7visitor11TypeVisitorEBU_, symObjAddr: 0x6C88, symBinAddr: 0x2F4E0, symSize: 0xEC }
  - { offset: 0x520CF, size: 0x8, addend: 0x0, symName: __RINvNtNtCsATtFUPiRFW_3syn3gen5visit17visit_item_structNtNtCs7oyfuZDlTKn_11yoke_derive7visitor11TypeVisitorEBU_, symObjAddr: 0x6D74, symBinAddr: 0x2F5CC, symSize: 0xD0 }
  - { offset: 0x5213D, size: 0x8, addend: 0x0, symName: __RINvNtNtCsATtFUPiRFW_3syn3gen5visit17visit_return_typeNtNtCs7oyfuZDlTKn_11yoke_derive7visitor11TypeVisitorEBU_, symObjAddr: 0x6E44, symBinAddr: 0x2F69C, symSize: 0x8C }
  - { offset: 0x521A5, size: 0x8, addend: 0x0, symName: __RINvNtNtCsATtFUPiRFW_3syn3gen5visit17visit_trait_boundNtNtCs7oyfuZDlTKn_11yoke_derive7visitor11TypeVisitorEBU_, symObjAddr: 0x6ED0, symBinAddr: 0x2F728, symSize: 0xA8 }
  - { offset: 0x52205, size: 0x8, addend: 0x0, symName: __RINvNtNtCsATtFUPiRFW_3syn3gen5visit18visit_derive_inputNtNtCs7oyfuZDlTKn_11yoke_derive7visitor11TypeVisitorEBV_, symObjAddr: 0x6F78, symBinAddr: 0x2F7D0, symSize: 0xD0 }
  - { offset: 0x52273, size: 0x8, addend: 0x0, symName: __RINvNtNtCsATtFUPiRFW_3syn3gen5visit18visit_expr_closureNtNtCs7oyfuZDlTKn_11yoke_derive7visitor11TypeVisitorEBV_, symObjAddr: 0x7048, symBinAddr: 0x2F8A0, symSize: 0x1B8 }
  - { offset: 0x52342, size: 0x8, addend: 0x0, symName: __RINvNtNtCsATtFUPiRFW_3syn3gen5visit18visit_fields_namedNtNtCs7oyfuZDlTKn_11yoke_derive7visitor11TypeVisitorEBV_, symObjAddr: 0x7200, symBinAddr: 0x2FA58, symSize: 0xDC }
  - { offset: 0x523CF, size: 0x8, addend: 0x0, symName: __RINvNtNtCsATtFUPiRFW_3syn3gen5visit18visit_foreign_itemNtNtCs7oyfuZDlTKn_11yoke_derive7visitor11TypeVisitorEBV_, symObjAddr: 0x72DC, symBinAddr: 0x2FB34, symSize: 0x15C }
  - { offset: 0x52489, size: 0x8, addend: 0x0, symName: __RINvNtNtCsATtFUPiRFW_3syn3gen5visit18visit_impl_item_fnNtNtCs7oyfuZDlTKn_11yoke_derive7visitor11TypeVisitorEBV_, symObjAddr: 0x7438, symBinAddr: 0x2FC90, symSize: 0xC0 }
  - { offset: 0x524F7, size: 0x8, addend: 0x0, symName: __RINvNtNtCsATtFUPiRFW_3syn3gen5visit18visit_lit_byte_strNtNtCs7oyfuZDlTKn_11yoke_derive7visitor11TypeVisitorEBV_, symObjAddr: 0x74F8, symBinAddr: 0x2FD50, symSize: 0x24 }
  - { offset: 0x52539, size: 0x8, addend: 0x0, symName: __RINvNtNtCsATtFUPiRFW_3syn3gen5visit18visit_path_segmentNtNtCs7oyfuZDlTKn_11yoke_derive7visitor11TypeVisitorEBV_, symObjAddr: 0x751C, symBinAddr: 0x2FD74, symSize: 0x50 }
  - { offset: 0x5257B, size: 0x8, addend: 0x0, symName: __RINvNtNtCsATtFUPiRFW_3syn3gen5visit18visit_range_limitsNtNtCs7oyfuZDlTKn_11yoke_derive7visitor11TypeVisitorEBV_, symObjAddr: 0x756C, symBinAddr: 0x2FDC4, symSize: 0x6C }
  - { offset: 0x525BD, size: 0x8, addend: 0x0, symName: __RINvNtNtCsATtFUPiRFW_3syn3gen5visit18visit_type_bare_fnNtNtCs7oyfuZDlTKn_11yoke_derive7visitor11TypeVisitorEBV_, symObjAddr: 0x75D8, symBinAddr: 0x2FE30, symSize: 0x1E0 }
  - { offset: 0x5269C, size: 0x8, addend: 0x0, symName: __RINvNtNtCsATtFUPiRFW_3syn3gen5visit18visit_where_clauseNtNtCs7oyfuZDlTKn_11yoke_derive7visitor11TypeVisitorEBV_, symObjAddr: 0x77B8, symBinAddr: 0x30010, symSize: 0xDC }
  - { offset: 0x52729, size: 0x8, addend: 0x0, symName: __RINvNtNtCsATtFUPiRFW_3syn3gen5visit19visit_bare_variadicNtNtCs7oyfuZDlTKn_11yoke_derive7visitor11TypeVisitorEBW_, symObjAddr: 0x7894, symBinAddr: 0x300EC, symSize: 0xF0 }
  - { offset: 0x527AD, size: 0x8, addend: 0x0, symName: __RINvNtNtCsATtFUPiRFW_3syn3gen5visit19visit_expr_continueNtNtCs7oyfuZDlTKn_11yoke_derive7visitor11TypeVisitorEBW_, symObjAddr: 0x7984, symBinAddr: 0x301DC, symSize: 0xF0 }
  - { offset: 0x52831, size: 0x8, addend: 0x0, symName: __RINvNtNtCsATtFUPiRFW_3syn3gen5visit19visit_expr_for_loopNtNtCs7oyfuZDlTKn_11yoke_derive7visitor11TypeVisitorEBW_, symObjAddr: 0x7A74, symBinAddr: 0x302CC, symSize: 0x120 }
  - { offset: 0x528B5, size: 0x8, addend: 0x0, symName: __RINvNtNtCsATtFUPiRFW_3syn3gen5visit19visit_expr_raw_addrNtNtCs7oyfuZDlTKn_11yoke_derive7visitor11TypeVisitorEBW_, symObjAddr: 0x7B94, symBinAddr: 0x303EC, symSize: 0xBC }
  - { offset: 0x52923, size: 0x8, addend: 0x0, symName: __RINvNtNtCsATtFUPiRFW_3syn3gen5visit19visit_generic_paramNtNtCs7oyfuZDlTKn_11yoke_derive7visitor11TypeVisitorEBW_, symObjAddr: 0x7C50, symBinAddr: 0x304A8, symSize: 0xE8 }
  - { offset: 0x529B7, size: 0x8, addend: 0x0, symName: __RINvNtNtCsATtFUPiRFW_3syn3gen5visit19visit_pat_referenceNtNtCs7oyfuZDlTKn_11yoke_derive7visitor11TypeVisitorEBW_, symObjAddr: 0x7D38, symBinAddr: 0x30590, symSize: 0xAC }
  - { offset: 0x52A25, size: 0x8, addend: 0x0, symName: __RINvNtNtCsATtFUPiRFW_3syn3gen5visit19visit_trait_item_fnNtNtCs7oyfuZDlTKn_11yoke_derive7visitor11TypeVisitorEBW_, symObjAddr: 0x7DE4, symBinAddr: 0x3063C, symSize: 0xFC }
  - { offset: 0x52AA9, size: 0x8, addend: 0x0, symName: __RINvNtNtCsATtFUPiRFW_3syn3gen5visit20visit_captured_paramNtNtCs7oyfuZDlTKn_11yoke_derive7visitor11TypeVisitorEBX_, symObjAddr: 0x7EE0, symBinAddr: 0x30738, symSize: 0x94 }
  - { offset: 0x52B1F, size: 0x8, addend: 0x0, symName: __RINvNtNtCsATtFUPiRFW_3syn3gen5visit20visit_expr_referenceNtNtCs7oyfuZDlTKn_11yoke_derive7visitor11TypeVisitorEBX_, symObjAddr: 0x7F74, symBinAddr: 0x307CC, symSize: 0xAC }
  - { offset: 0x52B8D, size: 0x8, addend: 0x0, symName: __RINvNtNtCsATtFUPiRFW_3syn3gen5visit20visit_expr_try_blockNtNtCs7oyfuZDlTKn_11yoke_derive7visitor11TypeVisitorEBX_, symObjAddr: 0x8020, symBinAddr: 0x30878, symSize: 0xA8 }
  - { offset: 0x52BFB, size: 0x8, addend: 0x0, symName: __RINvNtNtCsATtFUPiRFW_3syn3gen5visit20visit_fields_unnamedNtNtCs7oyfuZDlTKn_11yoke_derive7visitor11TypeVisitorEBX_, symObjAddr: 0x80C8, symBinAddr: 0x30920, symSize: 0xDC }
  - { offset: 0x52C88, size: 0x8, addend: 0x0, symName: __RINvNtNtCsATtFUPiRFW_3syn3gen5visit20visit_impl_item_typeNtNtCs7oyfuZDlTKn_11yoke_derive7visitor11TypeVisitorEBX_, symObjAddr: 0x81A4, symBinAddr: 0x309FC, symSize: 0xD0 }
  - { offset: 0x52CF6, size: 0x8, addend: 0x0, symName: __RINvNtNtCsATtFUPiRFW_3syn3gen5visit20visit_lifetime_paramNtNtCs7oyfuZDlTKn_11yoke_derive7visitor11TypeVisitorEBX_, symObjAddr: 0x8274, symBinAddr: 0x30ACC, symSize: 0x14C }
  - { offset: 0x52DAF, size: 0x8, addend: 0x0, symName: __RINvNtNtCsATtFUPiRFW_3syn3gen5visit20visit_path_argumentsNtNtCs7oyfuZDlTKn_11yoke_derive7visitor11TypeVisitorEBX_, symObjAddr: 0x83C0, symBinAddr: 0x30C18, symSize: 0xD4 }
  - { offset: 0x52E25, size: 0x8, addend: 0x0, symName: __RINvNtNtCsATtFUPiRFW_3syn3gen5visit20visit_predicate_typeNtNtCs7oyfuZDlTKn_11yoke_derive7visitor11TypeVisitorEBX_, symObjAddr: 0x8494, symBinAddr: 0x30CEC, symSize: 0x13C }
  - { offset: 0x52ED0, size: 0x8, addend: 0x0, symName: __RINvNtNtCsATtFUPiRFW_3syn3gen5visit20visit_type_referenceNtNtCs7oyfuZDlTKn_11yoke_derive7visitor11TypeVisitorEBX_, symObjAddr: 0x85D0, symBinAddr: 0x30E28, symSize: 0x98 }
  - { offset: 0x52F30, size: 0x8, addend: 0x0, symName: __RINvNtNtCsATtFUPiRFW_3syn3gen5visit20visit_vis_restrictedNtNtCs7oyfuZDlTKn_11yoke_derive7visitor11TypeVisitorEBX_, symObjAddr: 0x8668, symBinAddr: 0x30EC0, symSize: 0x40 }
  - { offset: 0x52F72, size: 0x8, addend: 0x0, symName: __RINvNtNtCsATtFUPiRFW_3syn3gen5visit21visit_bound_lifetimesNtNtCs7oyfuZDlTKn_11yoke_derive7visitor11TypeVisitorEBY_, symObjAddr: 0x86A8, symBinAddr: 0x30F00, symSize: 0xDC }
  - { offset: 0x52FFF, size: 0x8, addend: 0x0, symName: __RINvNtNtCsATtFUPiRFW_3syn3gen5visit21visit_foreign_item_fnNtNtCs7oyfuZDlTKn_11yoke_derive7visitor11TypeVisitorEBY_, symObjAddr: 0x8784, symBinAddr: 0x30FDC, symSize: 0xB0 }
  - { offset: 0x5306D, size: 0x8, addend: 0x0, symName: __RINvNtNtCsATtFUPiRFW_3syn3gen5visit21visit_impl_item_constNtNtCs7oyfuZDlTKn_11yoke_derive7visitor11TypeVisitorEBY_, symObjAddr: 0x8834, symBinAddr: 0x3108C, symSize: 0xE0 }
  - { offset: 0x530DB, size: 0x8, addend: 0x0, symName: __RINvNtNtCsATtFUPiRFW_3syn3gen5visit21visit_impl_item_macroNtNtCs7oyfuZDlTKn_11yoke_derive7visitor11TypeVisitorEBY_, symObjAddr: 0x8914, symBinAddr: 0x3116C, symSize: 0xA8 }
  - { offset: 0x53149, size: 0x8, addend: 0x0, symName: __RINvNtNtCsATtFUPiRFW_3syn3gen5visit21visit_macro_delimiterNtNtCs7oyfuZDlTKn_11yoke_derive7visitor11TypeVisitorEBY_, symObjAddr: 0x89BC, symBinAddr: 0x31214, symSize: 0xA8 }
  - { offset: 0x5318B, size: 0x8, addend: 0x0, symName: __RINvNtNtCsATtFUPiRFW_3syn3gen5visit21visit_meta_name_valueNtNtCs7oyfuZDlTKn_11yoke_derive7visitor11TypeVisitorEBY_, symObjAddr: 0x8A64, symBinAddr: 0x312BC, symSize: 0x50 }
  - { offset: 0x531CD, size: 0x8, addend: 0x0, symName: __RINvNtNtCsATtFUPiRFW_3syn3gen5visit21visit_precise_captureNtNtCs7oyfuZDlTKn_11yoke_derive7visitor11TypeVisitorEBY_, symObjAddr: 0x8AB4, symBinAddr: 0x3130C, symSize: 0xDC }
  - { offset: 0x5325A, size: 0x8, addend: 0x0, symName: __RINvNtNtCsATtFUPiRFW_3syn3gen5visit21visit_trait_item_typeNtNtCs7oyfuZDlTKn_11yoke_derive7visitor11TypeVisitorEBY_, symObjAddr: 0x8B90, symBinAddr: 0x313E8, symSize: 0x1AC }
  - { offset: 0x53329, size: 0x8, addend: 0x0, symName: __RINvNtNtCsATtFUPiRFW_3syn3gen5visit21visit_type_impl_traitNtNtCs7oyfuZDlTKn_11yoke_derive7visitor11TypeVisitorEBY_, symObjAddr: 0x8D3C, symBinAddr: 0x31594, symSize: 0xDC }
  - { offset: 0x533B6, size: 0x8, addend: 0x0, symName: __RINvNtNtCsATtFUPiRFW_3syn3gen5visit21visit_where_predicateNtNtCs7oyfuZDlTKn_11yoke_derive7visitor11TypeVisitorEBY_, symObjAddr: 0x8E18, symBinAddr: 0x31670, symSize: 0x98 }
  - { offset: 0x5342C, size: 0x8, addend: 0x0, symName: __RINvNtNtCsATtFUPiRFW_3syn3gen5visit22visit_expr_method_callNtNtCs7oyfuZDlTKn_11yoke_derive7visitor11TypeVisitorEBZ_, symObjAddr: 0x8EB0, symBinAddr: 0x31708, symSize: 0x1B8 }
  - { offset: 0x534FB, size: 0x8, addend: 0x0, symName: __RINvNtNtCsATtFUPiRFW_3syn3gen5visit22visit_field_mutabilityNtNtCs7oyfuZDlTKn_11yoke_derive7visitor11TypeVisitorEBZ_, symObjAddr: 0x9068, symBinAddr: 0x318C0, symSize: 0x24 }
  - { offset: 0x5353D, size: 0x8, addend: 0x0, symName: __RINvNtNtCsATtFUPiRFW_3syn3gen5visit22visit_generic_argumentNtNtCs7oyfuZDlTKn_11yoke_derive7visitor11TypeVisitorEBZ_, symObjAddr: 0x908C, symBinAddr: 0x318E4, symSize: 0x1A8 }
  - { offset: 0x5362B, size: 0x8, addend: 0x0, symName: __RINvNtNtCsATtFUPiRFW_3syn3gen5visit22visit_impl_restrictionNtNtCs7oyfuZDlTKn_11yoke_derive7visitor11TypeVisitorEBZ_, symObjAddr: 0x9234, symBinAddr: 0x31A8C, symSize: 0x10 }
  - { offset: 0x5366D, size: 0x8, addend: 0x0, symName: __RINvNtNtCsATtFUPiRFW_3syn3gen5visit22visit_item_foreign_modNtNtCs7oyfuZDlTKn_11yoke_derive7visitor11TypeVisitorEBZ_, symObjAddr: 0x9244, symBinAddr: 0x31A9C, symSize: 0x108 }
  - { offset: 0x53707, size: 0x8, addend: 0x0, symName: __RINvNtNtCsATtFUPiRFW_3syn3gen5visit22visit_item_trait_aliasNtNtCs7oyfuZDlTKn_11yoke_derive7visitor11TypeVisitorEBZ_, symObjAddr: 0x934C, symBinAddr: 0x31BA4, symSize: 0x16C }
  - { offset: 0x537C0, size: 0x8, addend: 0x0, symName: __RINvNtNtCsATtFUPiRFW_3syn3gen5visit22visit_pat_tuple_structNtNtCs7oyfuZDlTKn_11yoke_derive7visitor11TypeVisitorEBZ_, symObjAddr: 0x94B8, symBinAddr: 0x31D10, symSize: 0x1A4 }
  - { offset: 0x5388F, size: 0x8, addend: 0x0, symName: __RINvNtNtCsATtFUPiRFW_3syn3gen5visit22visit_trait_item_constNtNtCs7oyfuZDlTKn_11yoke_derive7visitor11TypeVisitorEBZ_, symObjAddr: 0x965C, symBinAddr: 0x31EB4, symSize: 0x11C }
  - { offset: 0x53913, size: 0x8, addend: 0x0, symName: __RINvNtNtCsATtFUPiRFW_3syn3gen5visit22visit_trait_item_macroNtNtCs7oyfuZDlTKn_11yoke_derive7visitor11TypeVisitorEBZ_, symObjAddr: 0x9778, symBinAddr: 0x31FD0, symSize: 0xA8 }
  - { offset: 0x53981, size: 0x8, addend: 0x0, symName: __RINvNtNtCsATtFUPiRFW_3syn3gen5visit22visit_type_param_boundNtNtCs7oyfuZDlTKn_11yoke_derive7visitor11TypeVisitorEBZ_, symObjAddr: 0x9820, symBinAddr: 0x32078, symSize: 0x120 }
  - { offset: 0x53A1D, size: 0x8, addend: 0x0, symName: __RINvNtNtCsATtFUPiRFW_3syn3gen5visit23visit_foreign_item_typeNtNtCs7oyfuZDlTKn_11yoke_derive7visitor11TypeVisitorEB10_, symObjAddr: 0x9940, symBinAddr: 0x32198, symSize: 0xC8 }
  - { offset: 0x53A8B, size: 0x8, addend: 0x0, symName: __RINvNtNtCsATtFUPiRFW_3syn3gen5visit23visit_item_extern_crateNtNtCs7oyfuZDlTKn_11yoke_derive7visitor11TypeVisitorEB10_, symObjAddr: 0x9A08, symBinAddr: 0x32260, symSize: 0x114 }
  - { offset: 0x53B0F, size: 0x8, addend: 0x0, symName: __RINvNtNtCsATtFUPiRFW_3syn3gen5visit23visit_static_mutabilityNtNtCs7oyfuZDlTKn_11yoke_derive7visitor11TypeVisitorEB10_, symObjAddr: 0x9B1C, symBinAddr: 0x32374, symSize: 0x60 }
  - { offset: 0x53B51, size: 0x8, addend: 0x0, symName: __RINvNtNtCsATtFUPiRFW_3syn3gen5visit23visit_type_trait_objectNtNtCs7oyfuZDlTKn_11yoke_derive7visitor11TypeVisitorEB10_, symObjAddr: 0x9B7C, symBinAddr: 0x323D4, symSize: 0xDC }
  - { offset: 0x53BDE, size: 0x8, addend: 0x0, symName: __RINvNtNtCsATtFUPiRFW_3syn3gen5visit24visit_foreign_item_macroNtNtCs7oyfuZDlTKn_11yoke_derive7visitor11TypeVisitorEB11_, symObjAddr: 0x9C58, symBinAddr: 0x324B0, symSize: 0xA8 }
  - { offset: 0x53C4C, size: 0x8, addend: 0x0, symName: __RINvNtNtCsATtFUPiRFW_3syn3gen5visit24visit_pointer_mutabilityNtNtCs7oyfuZDlTKn_11yoke_derive7visitor11TypeVisitorEB11_, symObjAddr: 0x9D00, symBinAddr: 0x32558, symSize: 0x6C }
  - { offset: 0x53C8E, size: 0x8, addend: 0x0, symName: __RINvNtNtCsATtFUPiRFW_3syn3gen5visit24visit_predicate_lifetimeNtNtCs7oyfuZDlTKn_11yoke_derive7visitor11TypeVisitorEB11_, symObjAddr: 0x9D6C, symBinAddr: 0x325C4, symSize: 0xE4 }
  - { offset: 0x53D1B, size: 0x8, addend: 0x0, symName: __RINvNtNtCsATtFUPiRFW_3syn3gen5visit25visit_foreign_item_staticNtNtCs7oyfuZDlTKn_11yoke_derive7visitor11TypeVisitorEB12_, symObjAddr: 0x9E50, symBinAddr: 0x326A8, symSize: 0xDC }
  - { offset: 0x53D89, size: 0x8, addend: 0x0, symName: __RINvNtNtCsATtFUPiRFW_3syn3gen5visit26visit_trait_bound_modifierNtNtCs7oyfuZDlTKn_11yoke_derive7visitor11TypeVisitorEB13_, symObjAddr: 0x9F2C, symBinAddr: 0x32784, symSize: 0x60 }
  - { offset: 0x53DCB, size: 0x8, addend: 0x0, symName: __RINvNtNtCsATtFUPiRFW_3syn3gen5visit37visit_parenthesized_generic_argumentsNtNtCs7oyfuZDlTKn_11yoke_derive7visitor11TypeVisitorEB1e_, symObjAddr: 0x9F8C, symBinAddr: 0x327E4, symSize: 0xEC }
  - { offset: 0x53E58, size: 0x8, addend: 0x0, symName: __RINvNtNtCsATtFUPiRFW_3syn3gen5visit39visit_angle_bracketed_generic_argumentsNtNtCs7oyfuZDlTKn_11yoke_derive7visitor11TypeVisitorEB1g_, symObjAddr: 0xA078, symBinAddr: 0x328D0, symSize: 0xDC }
  - { offset: 0x53EE5, size: 0x8, addend: 0x0, symName: __RINvNtNtCsATtFUPiRFW_3syn3gen5visit9visit_abiNtNtCs7oyfuZDlTKn_11yoke_derive7visitor11TypeVisitorEBL_, symObjAddr: 0xA154, symBinAddr: 0x329AC, symSize: 0x84 }
  - { offset: 0x53F45, size: 0x8, addend: 0x0, symName: __RINvNtNtCsATtFUPiRFW_3syn3gen5visit9visit_armNtNtCs7oyfuZDlTKn_11yoke_derive7visitor11TypeVisitorEBL_, symObjAddr: 0xA1D8, symBinAddr: 0x32A30, symSize: 0x114 }
  - { offset: 0x53FC9, size: 0x8, addend: 0x0, symName: __RINvNtNtCsATtFUPiRFW_3syn3gen5visit9visit_litNtNtCs7oyfuZDlTKn_11yoke_derive7visitor11TypeVisitorEBL_, symObjAddr: 0xA2EC, symBinAddr: 0x32B44, symSize: 0x264 }
  - { offset: 0x540FB, size: 0x8, addend: 0x0, symName: __RINvNtNtCsATtFUPiRFW_3syn3gen5visit9visit_patNtNtCs7oyfuZDlTKn_11yoke_derive7visitor11TypeVisitorEBL_, symObjAddr: 0xA550, symBinAddr: 0x32DA8, symSize: 0x384 }
  - { offset: 0x5F2A1, size: 0x8, addend: 0x0, symName: __RINvNtCsATtFUPiRFW_3syn10punctuated4foldNtNtB4_2ty4TypeNtNtB4_5token5CommaNtNvCs7oyfuZDlTKn_11yoke_derive16replace_lifetime15ReplaceLifetimeNvYB1a_NtNtNtB4_3gen4fold4Fold9fold_typeEB1e_, symObjAddr: 0x0, symBinAddr: 0x3312C, symSize: 0x2DC }
  - { offset: 0x5F5BD, size: 0x8, addend: 0x0, symName: __RNvXs1J_NtCsjLJ1XWNSM6u_10proc_macro6bridgeINtB6_11ExpnGlobalsNtNtB6_6client4SpanEINtNtB6_3rpc9DecodeMutuE6decodeCs7oyfuZDlTKn_11yoke_derive, symObjAddr: 0x83BC, symBinAddr: 0x3B4E8, symSize: 0xB0 }
  - { offset: 0x5F614, size: 0x8, addend: 0x0, symName: __RNvXs9_NtNtCsjLJ1XWNSM6u_10proc_macro6bridge3rpcTINtB7_11ExpnGlobalsNtNtB7_6client4SpanENtB16_11TokenStreamEINtB5_9DecodeMutuE6decodeCs7oyfuZDlTKn_11yoke_derive, symObjAddr: 0x846C, symBinAddr: 0x3B598, symSize: 0x84 }
  - { offset: 0x5FB6A, size: 0x8, addend: 0x0, symName: __RNvXsA_NtCs475r2uZUTuc_11proc_macro23impNtB5_19DeferredTokenStreamNtNtCs9f3LFPSIp77_4core5clone5Clone5cloneCs7oyfuZDlTKn_11yoke_derive, symObjAddr: 0x8874, symBinAddr: 0x3B9A0, symSize: 0x88 }
  - { offset: 0x5FB9C, size: 0x8, addend: 0x0, symName: __RNvXsF_NtCs475r2uZUTuc_11proc_macro23impNtB5_5IdentNtNtCs9f3LFPSIp77_4core5clone5Clone5cloneCs7oyfuZDlTKn_11yoke_derive, symObjAddr: 0x88FC, symBinAddr: 0x3BA28, symSize: 0x9C }
  - { offset: 0x5FC0C, size: 0x8, addend: 0x0, symName: __RNvXsz_NtCs475r2uZUTuc_11proc_macro23impNtB5_11TokenStreamNtNtCs9f3LFPSIp77_4core5clone5Clone5cloneCs7oyfuZDlTKn_11yoke_derive, symObjAddr: 0x8ED4, symBinAddr: 0x3C000, symSize: 0x98 }
  - { offset: 0x60BB4, size: 0x8, addend: 0x0, symName: __RNvXs0_NtNtCsdze8u8oDPro_5alloc3vec16in_place_collectINtNtNtNtCs9f3LFPSIp77_4core4iter8adapters3map3MapINtNtB7_9into_iter8IntoIterNtNtCsATtFUPiRFW_3syn4attr9AttributeENCINvNtNtB28_3gen4fold8fold_vecB24_NtNvCs7oyfuZDlTKn_11yoke_derive16replace_lifetime15ReplaceLifetimeNvYB3e_NtB2K_4Fold14fold_attributeE0EINtB5_18SpecInPlaceCollectB24_BP_E16collect_in_placeB3i_, symObjAddr: 0x6EE4, symBinAddr: 0x3A010, symSize: 0xC8 }
  - { offset: 0x60D03, size: 0x8, addend: 0x0, symName: __RNvXs0_NtNtCsdze8u8oDPro_5alloc3vec16in_place_collectINtNtNtNtCs9f3LFPSIp77_4core4iter8adapters3map3MapINtNtB7_9into_iter8IntoIterNtNtCsATtFUPiRFW_3syn4expr3ArmENCINvNtNtB28_3gen4fold8fold_vecB24_NtNvCs7oyfuZDlTKn_11yoke_derive16replace_lifetime15ReplaceLifetimeNvYB38_NtB2E_4Fold8fold_armE0EINtB5_18SpecInPlaceCollectB24_BP_E16collect_in_placeB3c_, symObjAddr: 0x6FAC, symBinAddr: 0x3A0D8, symSize: 0xC8 }
  - { offset: 0x60E52, size: 0x8, addend: 0x0, symName: __RNvXs0_NtNtCsdze8u8oDPro_5alloc3vec16in_place_collectINtNtNtNtCs9f3LFPSIp77_4core4iter8adapters3map3MapINtNtB7_9into_iter8IntoIterNtNtCsATtFUPiRFW_3syn4item11ForeignItemENCINvNtNtB28_3gen4fold8fold_vecB24_NtNvCs7oyfuZDlTKn_11yoke_derive16replace_lifetime15ReplaceLifetimeNvYB3h_NtB2N_4Fold17fold_foreign_itemE0EINtB5_18SpecInPlaceCollectB24_BP_E16collect_in_placeB3l_, symObjAddr: 0x7074, symBinAddr: 0x3A1A0, symSize: 0xC8 }
  - { offset: 0x60FA1, size: 0x8, addend: 0x0, symName: __RNvXs0_NtNtCsdze8u8oDPro_5alloc3vec16in_place_collectINtNtNtNtCs9f3LFPSIp77_4core4iter8adapters3map3MapINtNtB7_9into_iter8IntoIterNtNtCsATtFUPiRFW_3syn4item4ItemENCINvNtNtB28_3gen4fold8fold_vecB24_NtNvCs7oyfuZDlTKn_11yoke_derive16replace_lifetime15ReplaceLifetimeNvYB39_NtB2F_4Fold9fold_itemE0EINtB5_18SpecInPlaceCollectB24_BP_E16collect_in_placeB3d_, symObjAddr: 0x713C, symBinAddr: 0x3A268, symSize: 0xC8 }
  - { offset: 0x610F0, size: 0x8, addend: 0x0, symName: __RNvXs0_NtNtCsdze8u8oDPro_5alloc3vec16in_place_collectINtNtNtNtCs9f3LFPSIp77_4core4iter8adapters3map3MapINtNtB7_9into_iter8IntoIterNtNtCsATtFUPiRFW_3syn4item8ImplItemENCINvNtNtB28_3gen4fold8fold_vecB24_NtNvCs7oyfuZDlTKn_11yoke_derive16replace_lifetime15ReplaceLifetimeNvYB3d_NtB2J_4Fold14fold_impl_itemE0EINtB5_18SpecInPlaceCollectB24_BP_E16collect_in_placeB3h_, symObjAddr: 0x7204, symBinAddr: 0x3A330, symSize: 0xC8 }
  - { offset: 0x6123F, size: 0x8, addend: 0x0, symName: __RNvXs0_NtNtCsdze8u8oDPro_5alloc3vec16in_place_collectINtNtNtNtCs9f3LFPSIp77_4core4iter8adapters3map3MapINtNtB7_9into_iter8IntoIterNtNtCsATtFUPiRFW_3syn4item9TraitItemENCINvNtNtB28_3gen4fold8fold_vecB24_NtNvCs7oyfuZDlTKn_11yoke_derive16replace_lifetime15ReplaceLifetimeNvYB3e_NtB2K_4Fold15fold_trait_itemE0EINtB5_18SpecInPlaceCollectB24_BP_E16collect_in_placeB3i_, symObjAddr: 0x72CC, symBinAddr: 0x3A3F8, symSize: 0xC8 }
  - { offset: 0x6138E, size: 0x8, addend: 0x0, symName: __RNvXs0_NtNtCsdze8u8oDPro_5alloc3vec16in_place_collectINtNtNtNtCs9f3LFPSIp77_4core4iter8adapters3map3MapINtNtB7_9into_iter8IntoIterNtNtCsATtFUPiRFW_3syn4stmt4StmtENCINvNtNtB28_3gen4fold8fold_vecB24_NtNvCs7oyfuZDlTKn_11yoke_derive16replace_lifetime15ReplaceLifetimeNvYB39_NtB2F_4Fold9fold_stmtE0EINtB5_18SpecInPlaceCollectB24_BP_E16collect_in_placeB3d_, symObjAddr: 0x7394, symBinAddr: 0x3A4C0, symSize: 0xC8 }
  - { offset: 0x614DD, size: 0x8, addend: 0x0, symName: __RNvXs0_NtNtCsdze8u8oDPro_5alloc3vec16in_place_collectINtNtNtNtCs9f3LFPSIp77_4core4iter8adapters3map3MapINtNtB7_9into_iter8IntoIterTNtNtCsATtFUPiRFW_3syn2ty4TypeNtNtB29_5token5CommaEENCINvNtB29_10punctuated4foldB25_B2y_NtNvCs7oyfuZDlTKn_11yoke_derive16replace_lifetime15ReplaceLifetimeNvYB3u_NtNtNtB29_3gen4fold4Fold9fold_typeE0EINtB5_18SpecInPlaceCollectB24_BP_E16collect_in_placeB3y_, symObjAddr: 0x745C, symBinAddr: 0x3A588, symSize: 0xC8 }
  - { offset: 0x6162C, size: 0x8, addend: 0x0, symName: __RNvXs0_NtNtCsdze8u8oDPro_5alloc3vec16in_place_collectINtNtNtNtCs9f3LFPSIp77_4core4iter8adapters3map3MapINtNtB7_9into_iter8IntoIterTNtNtCsATtFUPiRFW_3syn2ty9BareFnArgNtNtB29_5token5CommaEENCINvNtB29_10punctuated4foldB25_B2D_NtNvCs7oyfuZDlTKn_11yoke_derive16replace_lifetime15ReplaceLifetimeNvYB3z_NtNtNtB29_3gen4fold4Fold16fold_bare_fn_argE0EINtB5_18SpecInPlaceCollectB24_BP_E16collect_in_placeB3D_, symObjAddr: 0x7524, symBinAddr: 0x3A650, symSize: 0xC8 }
  - { offset: 0x6177B, size: 0x8, addend: 0x0, symName: __RNvXs0_NtNtCsdze8u8oDPro_5alloc3vec16in_place_collectINtNtNtNtCs9f3LFPSIp77_4core4iter8adapters3map3MapINtNtB7_9into_iter8IntoIterTNtNtCsATtFUPiRFW_3syn3pat3PatNtNtB29_5token2OrEENCINvNtB29_10punctuated4foldB25_B2y_NtNvCs7oyfuZDlTKn_11yoke_derive16replace_lifetime15ReplaceLifetimeNvYB3r_NtNtNtB29_3gen4fold4Fold8fold_patE0EINtB5_18SpecInPlaceCollectB24_BP_E16collect_in_placeB3v_, symObjAddr: 0x75EC, symBinAddr: 0x3A718, symSize: 0xC8 }
  - { offset: 0x618CA, size: 0x8, addend: 0x0, symName: __RNvXs0_NtNtCsdze8u8oDPro_5alloc3vec16in_place_collectINtNtNtNtCs9f3LFPSIp77_4core4iter8adapters3map3MapINtNtB7_9into_iter8IntoIterTNtNtCsATtFUPiRFW_3syn3pat3PatNtNtB29_5token5CommaEENCINvNtB29_10punctuated4foldB25_B2y_NtNvCs7oyfuZDlTKn_11yoke_derive16replace_lifetime15ReplaceLifetimeNvYB3u_NtNtNtB29_3gen4fold4Fold8fold_patE0EINtB5_18SpecInPlaceCollectB24_BP_E16collect_in_placeB3y_, symObjAddr: 0x76B4, symBinAddr: 0x3A7E0, symSize: 0xC8 }
  - { offset: 0x61A19, size: 0x8, addend: 0x0, symName: __RNvXs0_NtNtCsdze8u8oDPro_5alloc3vec16in_place_collectINtNtNtNtCs9f3LFPSIp77_4core4iter8adapters3map3MapINtNtB7_9into_iter8IntoIterTNtNtCsATtFUPiRFW_3syn3pat8FieldPatNtNtB29_5token5CommaEENCINvNtB29_10punctuated4foldB25_B2D_NtNvCs7oyfuZDlTKn_11yoke_derive16replace_lifetime15ReplaceLifetimeNvYB3z_NtNtNtB29_3gen4fold4Fold14fold_field_patE0EINtB5_18SpecInPlaceCollectB24_BP_E16collect_in_placeB3D_, symObjAddr: 0x777C, symBinAddr: 0x3A8A8, symSize: 0xC8 }
  - { offset: 0x61B68, size: 0x8, addend: 0x0, symName: __RNvXs0_NtNtCsdze8u8oDPro_5alloc3vec16in_place_collectINtNtNtNtCs9f3LFPSIp77_4core4iter8adapters3map3MapINtNtB7_9into_iter8IntoIterTNtNtCsATtFUPiRFW_3syn4data5FieldNtNtB29_5token5CommaEENCINvNtB29_10punctuated4foldB25_B2B_NtNvCs7oyfuZDlTKn_11yoke_derive16replace_lifetime15ReplaceLifetimeNvYB3x_NtNtNtB29_3gen4fold4Fold10fold_fieldE0EINtB5_18SpecInPlaceCollectB24_BP_E16collect_in_placeB3B_, symObjAddr: 0x7844, symBinAddr: 0x3A970, symSize: 0xC8 }
  - { offset: 0x61CB7, size: 0x8, addend: 0x0, symName: __RNvXs0_NtNtCsdze8u8oDPro_5alloc3vec16in_place_collectINtNtNtNtCs9f3LFPSIp77_4core4iter8adapters3map3MapINtNtB7_9into_iter8IntoIterTNtNtCsATtFUPiRFW_3syn4data7VariantNtNtB29_5token5CommaEENCINvNtB29_10punctuated4foldB25_B2D_NtNvCs7oyfuZDlTKn_11yoke_derive16replace_lifetime15ReplaceLifetimeNvYB3z_NtNtNtB29_3gen4fold4Fold12fold_variantE0EINtB5_18SpecInPlaceCollectB24_BP_E16collect_in_placeB3D_, symObjAddr: 0x790C, symBinAddr: 0x3AA38, symSize: 0xC8 }
  - { offset: 0x61E06, size: 0x8, addend: 0x0, symName: __RNvXs0_NtNtCsdze8u8oDPro_5alloc3vec16in_place_collectINtNtNtNtCs9f3LFPSIp77_4core4iter8adapters3map3MapINtNtB7_9into_iter8IntoIterTNtNtCsATtFUPiRFW_3syn4expr10FieldValueNtNtB29_5token5CommaEENCINvNtB29_10punctuated4foldB25_B2H_NtNvCs7oyfuZDlTKn_11yoke_derive16replace_lifetime15ReplaceLifetimeNvYB3D_NtNtNtB29_3gen4fold4Fold16fold_field_valueE0EINtB5_18SpecInPlaceCollectB24_BP_E16collect_in_placeB3H_, symObjAddr: 0x79D4, symBinAddr: 0x3AB00, symSize: 0xC8 }
  - { offset: 0x61F55, size: 0x8, addend: 0x0, symName: __RNvXs0_NtNtCsdze8u8oDPro_5alloc3vec16in_place_collectINtNtNtNtCs9f3LFPSIp77_4core4iter8adapters3map3MapINtNtB7_9into_iter8IntoIterTNtNtCsATtFUPiRFW_3syn4expr4ExprNtNtB29_5token5CommaEENCINvNtB29_10punctuated4foldB25_B2A_NtNvCs7oyfuZDlTKn_11yoke_derive16replace_lifetime15ReplaceLifetimeNvYB3w_NtNtNtB29_3gen4fold4Fold9fold_exprE0EINtB5_18SpecInPlaceCollectB24_BP_E16collect_in_placeB3A_, symObjAddr: 0x7A9C, symBinAddr: 0x3ABC8, symSize: 0xC8 }
  - { offset: 0x620A4, size: 0x8, addend: 0x0, symName: __RNvXs0_NtNtCsdze8u8oDPro_5alloc3vec16in_place_collectINtNtNtNtCs9f3LFPSIp77_4core4iter8adapters3map3MapINtNtB7_9into_iter8IntoIterTNtNtCsATtFUPiRFW_3syn4item5FnArgNtNtB29_5token5CommaEENCINvNtB29_10punctuated4foldB25_B2B_NtNvCs7oyfuZDlTKn_11yoke_derive16replace_lifetime15ReplaceLifetimeNvYB3x_NtNtNtB29_3gen4fold4Fold11fold_fn_argE0EINtB5_18SpecInPlaceCollectB24_BP_E16collect_in_placeB3B_, symObjAddr: 0x7B64, symBinAddr: 0x3AC90, symSize: 0xC8 }
  - { offset: 0x621F3, size: 0x8, addend: 0x0, symName: __RNvXs0_NtNtCsdze8u8oDPro_5alloc3vec16in_place_collectINtNtNtNtCs9f3LFPSIp77_4core4iter8adapters3map3MapINtNtB7_9into_iter8IntoIterTNtNtCsATtFUPiRFW_3syn4item7UseTreeNtNtB29_5token5CommaEENCINvNtB29_10punctuated4foldB25_B2D_NtNvCs7oyfuZDlTKn_11yoke_derive16replace_lifetime15ReplaceLifetimeNvYB3z_NtNtNtB29_3gen4fold4Fold13fold_use_treeE0EINtB5_18SpecInPlaceCollectB24_BP_E16collect_in_placeB3D_, symObjAddr: 0x7C2C, symBinAddr: 0x3AD58, symSize: 0xC8 }
  - { offset: 0x62342, size: 0x8, addend: 0x0, symName: __RNvXs0_NtNtCsdze8u8oDPro_5alloc3vec16in_place_collectINtNtNtNtCs9f3LFPSIp77_4core4iter8adapters3map3MapINtNtB7_9into_iter8IntoIterTNtNtCsATtFUPiRFW_3syn4path11PathSegmentNtNtB29_5token7PathSepEENCINvNtB29_10punctuated4foldB25_B2I_NtNvCs7oyfuZDlTKn_11yoke_derive16replace_lifetime15ReplaceLifetimeNvYB3G_NtNtNtB29_3gen4fold4Fold17fold_path_segmentE0EINtB5_18SpecInPlaceCollectB24_BP_E16collect_in_placeB3K_, symObjAddr: 0x7CF4, symBinAddr: 0x3AE20, symSize: 0xC8 }
  - { offset: 0x62491, size: 0x8, addend: 0x0, symName: __RNvXs0_NtNtCsdze8u8oDPro_5alloc3vec16in_place_collectINtNtNtNtCs9f3LFPSIp77_4core4iter8adapters3map3MapINtNtB7_9into_iter8IntoIterTNtNtCsATtFUPiRFW_3syn4path15GenericArgumentNtNtB29_5token5CommaEENCINvNtB29_10punctuated4foldB25_B2M_NtNvCs7oyfuZDlTKn_11yoke_derive16replace_lifetime15ReplaceLifetimeNvYB3I_NtNtNtB29_3gen4fold4Fold21fold_generic_argumentE0EINtB5_18SpecInPlaceCollectB24_BP_E16collect_in_placeB3M_, symObjAddr: 0x7DBC, symBinAddr: 0x3AEE8, symSize: 0xC8 }
  - { offset: 0x625E0, size: 0x8, addend: 0x0, symName: __RNvXs0_NtNtCsdze8u8oDPro_5alloc3vec16in_place_collectINtNtNtNtCs9f3LFPSIp77_4core4iter8adapters3map3MapINtNtB7_9into_iter8IntoIterTNtNtCsATtFUPiRFW_3syn8generics12GenericParamNtNtB29_5token5CommaEENCINvNtB29_10punctuated4foldB25_B2N_NtNvCs7oyfuZDlTKn_11yoke_derive16replace_lifetime15ReplaceLifetimeNvYB3J_NtNtNtB29_3gen4fold4Fold18fold_generic_paramE0EINtB5_18SpecInPlaceCollectB24_BP_E16collect_in_placeB3N_, symObjAddr: 0x7E84, symBinAddr: 0x3AFB0, symSize: 0xC8 }
  - { offset: 0x6272F, size: 0x8, addend: 0x0, symName: __RNvXs0_NtNtCsdze8u8oDPro_5alloc3vec16in_place_collectINtNtNtNtCs9f3LFPSIp77_4core4iter8adapters3map3MapINtNtB7_9into_iter8IntoIterTNtNtCsATtFUPiRFW_3syn8generics13CapturedParamNtNtB29_5token5CommaEENCINvNtB29_10punctuated4foldB25_B2O_NtNvCs7oyfuZDlTKn_11yoke_derive16replace_lifetime15ReplaceLifetimeNvYB3K_NtNtNtB29_3gen4fold4Fold19fold_captured_paramE0EINtB5_18SpecInPlaceCollectB24_BP_E16collect_in_placeB3O_, symObjAddr: 0x7F4C, symBinAddr: 0x3B078, symSize: 0xC8 }
  - { offset: 0x6287E, size: 0x8, addend: 0x0, symName: __RNvXs0_NtNtCsdze8u8oDPro_5alloc3vec16in_place_collectINtNtNtNtCs9f3LFPSIp77_4core4iter8adapters3map3MapINtNtB7_9into_iter8IntoIterTNtNtCsATtFUPiRFW_3syn8generics14TypeParamBoundNtNtB29_5token4PlusEENCINvNtB29_10punctuated4foldB25_B2P_NtNvCs7oyfuZDlTKn_11yoke_derive16replace_lifetime15ReplaceLifetimeNvYB3K_NtNtNtB29_3gen4fold4Fold21fold_type_param_boundE0EINtB5_18SpecInPlaceCollectB24_BP_E16collect_in_placeB3O_, symObjAddr: 0x8014, symBinAddr: 0x3B140, symSize: 0xC8 }
  - { offset: 0x629CD, size: 0x8, addend: 0x0, symName: __RNvXs0_NtNtCsdze8u8oDPro_5alloc3vec16in_place_collectINtNtNtNtCs9f3LFPSIp77_4core4iter8adapters3map3MapINtNtB7_9into_iter8IntoIterTNtNtCsATtFUPiRFW_3syn8generics14WherePredicateNtNtB29_5token5CommaEENCINvNtB29_10punctuated4foldB25_B2P_NtNvCs7oyfuZDlTKn_11yoke_derive16replace_lifetime15ReplaceLifetimeNvYB3L_NtNtNtB29_3gen4fold4Fold20fold_where_predicateE0EINtB5_18SpecInPlaceCollectB24_BP_E16collect_in_placeB3P_, symObjAddr: 0x80DC, symBinAddr: 0x3B208, symSize: 0xC8 }
  - { offset: 0x62B1C, size: 0x8, addend: 0x0, symName: __RNvXs0_NtNtCsdze8u8oDPro_5alloc3vec16in_place_collectINtNtNtNtCs9f3LFPSIp77_4core4iter8adapters3map3MapINtNtB7_9into_iter8IntoIterTNtNtCsATtFUPiRFW_3syn8lifetime8LifetimeNtNtB29_5token4PlusEENCINvNtB29_10punctuated4foldB25_B2I_NtNvCs7oyfuZDlTKn_11yoke_derive16replace_lifetime15ReplaceLifetimeNvYB3D_NtNtNtB29_3gen4fold4Fold13fold_lifetimeE0EINtB5_18SpecInPlaceCollectB24_BP_E16collect_in_placeB3H_, symObjAddr: 0x81A4, symBinAddr: 0x3B2D0, symSize: 0xC8 }
  - { offset: 0x66406, size: 0x8, addend: 0x0, symName: __RINvNtCsATtFUPiRFW_3syn10punctuated4foldNtNtB4_2ty4TypeNtNtB4_5token5CommaNtNvCs7oyfuZDlTKn_11yoke_derive16replace_lifetime15ReplaceLifetimeNvYB1a_NtNtNtB4_3gen4fold4Fold9fold_typeEB1e_, symObjAddr: 0x0, symBinAddr: 0x3312C, symSize: 0x2DC }
  - { offset: 0x664AE, size: 0x8, addend: 0x0, symName: __RINvNtCsATtFUPiRFW_3syn10punctuated4foldNtNtB4_2ty9BareFnArgNtNtB4_5token5CommaNtNvCs7oyfuZDlTKn_11yoke_derive16replace_lifetime15ReplaceLifetimeNvYB1f_NtNtNtB4_3gen4fold4Fold16fold_bare_fn_argEB1j_, symObjAddr: 0x2DC, symBinAddr: 0x33408, symSize: 0x2E0 }
  - { offset: 0x66556, size: 0x8, addend: 0x0, symName: __RINvNtCsATtFUPiRFW_3syn10punctuated4foldNtNtB4_3pat3PatNtNtB4_5token2OrNtNvCs7oyfuZDlTKn_11yoke_derive16replace_lifetime15ReplaceLifetimeNvYB17_NtNtNtB4_3gen4fold4Fold8fold_patEB1b_, symObjAddr: 0x5BC, symBinAddr: 0x336E8, symSize: 0x2DC }
  - { offset: 0x665FE, size: 0x8, addend: 0x0, symName: __RINvNtCsATtFUPiRFW_3syn10punctuated4foldNtNtB4_3pat3PatNtNtB4_5token5CommaNtNvCs7oyfuZDlTKn_11yoke_derive16replace_lifetime15ReplaceLifetimeNvYB1a_NtNtNtB4_3gen4fold4Fold8fold_patEB1e_, symObjAddr: 0x898, symBinAddr: 0x339C4, symSize: 0x2DC }
  - { offset: 0x666A6, size: 0x8, addend: 0x0, symName: __RINvNtCsATtFUPiRFW_3syn10punctuated4foldNtNtB4_3pat8FieldPatNtNtB4_5token5CommaNtNvCs7oyfuZDlTKn_11yoke_derive16replace_lifetime15ReplaceLifetimeNvYB1f_NtNtNtB4_3gen4fold4Fold14fold_field_patEB1j_, symObjAddr: 0xB74, symBinAddr: 0x33CA0, symSize: 0x2DC }
  - { offset: 0x6674E, size: 0x8, addend: 0x0, symName: __RINvNtCsATtFUPiRFW_3syn10punctuated4foldNtNtB4_4data5FieldNtNtB4_5token5CommaNtNvCs7oyfuZDlTKn_11yoke_derive16replace_lifetime15ReplaceLifetimeNvYB1d_NtNtNtB4_3gen4fold4Fold10fold_fieldEB1h_, symObjAddr: 0xE50, symBinAddr: 0x33F7C, symSize: 0x2E0 }
  - { offset: 0x667F6, size: 0x8, addend: 0x0, symName: __RINvNtCsATtFUPiRFW_3syn10punctuated4foldNtNtB4_4data7VariantNtNtB4_5token5CommaNtNvCs7oyfuZDlTKn_11yoke_derive16replace_lifetime15ReplaceLifetimeNvYB1f_NtNtNtB4_3gen4fold4Fold12fold_variantEB1j_, symObjAddr: 0x1130, symBinAddr: 0x3425C, symSize: 0x2E0 }
  - { offset: 0x6689E, size: 0x8, addend: 0x0, symName: __RINvNtCsATtFUPiRFW_3syn10punctuated4foldNtNtB4_4expr10FieldValueNtNtB4_5token5CommaNtNvCs7oyfuZDlTKn_11yoke_derive16replace_lifetime15ReplaceLifetimeNvYB1j_NtNtNtB4_3gen4fold4Fold16fold_field_valueEB1n_, symObjAddr: 0x1410, symBinAddr: 0x3453C, symSize: 0x2DC }
  - { offset: 0x66946, size: 0x8, addend: 0x0, symName: __RINvNtCsATtFUPiRFW_3syn10punctuated4foldNtNtB4_4expr4ExprNtNtB4_5token5CommaNtNvCs7oyfuZDlTKn_11yoke_derive16replace_lifetime15ReplaceLifetimeNvYB1c_NtNtNtB4_3gen4fold4Fold9fold_exprEB1g_, symObjAddr: 0x16EC, symBinAddr: 0x34818, symSize: 0x2DC }
  - { offset: 0x669EE, size: 0x8, addend: 0x0, symName: __RINvNtCsATtFUPiRFW_3syn10punctuated4foldNtNtB4_4item5FnArgNtNtB4_5token5CommaNtNvCs7oyfuZDlTKn_11yoke_derive16replace_lifetime15ReplaceLifetimeNvYB1d_NtNtNtB4_3gen4fold4Fold11fold_fn_argEB1h_, symObjAddr: 0x19C8, symBinAddr: 0x34AF4, symSize: 0x2DC }
  - { offset: 0x66A96, size: 0x8, addend: 0x0, symName: __RINvNtCsATtFUPiRFW_3syn10punctuated4foldNtNtB4_4item7UseTreeNtNtB4_5token5CommaNtNvCs7oyfuZDlTKn_11yoke_derive16replace_lifetime15ReplaceLifetimeNvYB1f_NtNtNtB4_3gen4fold4Fold13fold_use_treeEB1j_, symObjAddr: 0x1CA4, symBinAddr: 0x34DD0, symSize: 0x2DC }
  - { offset: 0x66B3E, size: 0x8, addend: 0x0, symName: __RINvNtCsATtFUPiRFW_3syn10punctuated4foldNtNtB4_4path11PathSegmentNtNtB4_5token7PathSepNtNvCs7oyfuZDlTKn_11yoke_derive16replace_lifetime15ReplaceLifetimeNvYB1m_NtNtNtB4_3gen4fold4Fold17fold_path_segmentEB1q_, symObjAddr: 0x1F80, symBinAddr: 0x350AC, symSize: 0x2DC }
  - { offset: 0x66BE6, size: 0x8, addend: 0x0, symName: __RINvNtCsATtFUPiRFW_3syn10punctuated4foldNtNtB4_4path15GenericArgumentNtNtB4_5token5CommaNtNvCs7oyfuZDlTKn_11yoke_derive16replace_lifetime15ReplaceLifetimeNvYB1o_NtNtNtB4_3gen4fold4Fold21fold_generic_argumentEB1s_, symObjAddr: 0x225C, symBinAddr: 0x35388, symSize: 0x2E0 }
  - { offset: 0x66C8E, size: 0x8, addend: 0x0, symName: __RINvNtCsATtFUPiRFW_3syn10punctuated4foldNtNtB4_8generics12GenericParamNtNtB4_5token5CommaNtNvCs7oyfuZDlTKn_11yoke_derive16replace_lifetime15ReplaceLifetimeNvYB1p_NtNtNtB4_3gen4fold4Fold18fold_generic_paramEB1t_, symObjAddr: 0x253C, symBinAddr: 0x35668, symSize: 0x2E0 }
  - { offset: 0x66D36, size: 0x8, addend: 0x0, symName: __RINvNtCsATtFUPiRFW_3syn10punctuated4foldNtNtB4_8generics13CapturedParamNtNtB4_5token5CommaNtNvCs7oyfuZDlTKn_11yoke_derive16replace_lifetime15ReplaceLifetimeNvYB1q_NtNtNtB4_3gen4fold4Fold19fold_captured_paramEB1u_, symObjAddr: 0x281C, symBinAddr: 0x35948, symSize: 0x2DC }
  - { offset: 0x66DDE, size: 0x8, addend: 0x0, symName: __RINvNtCsATtFUPiRFW_3syn10punctuated4foldNtNtB4_8generics14TypeParamBoundNtNtB4_5token4PlusNtNvCs7oyfuZDlTKn_11yoke_derive16replace_lifetime15ReplaceLifetimeNvYB1q_NtNtNtB4_3gen4fold4Fold21fold_type_param_boundEB1u_, symObjAddr: 0x2AF8, symBinAddr: 0x35C24, symSize: 0x2DC }
  - { offset: 0x66E86, size: 0x8, addend: 0x0, symName: __RINvNtCsATtFUPiRFW_3syn10punctuated4foldNtNtB4_8generics14WherePredicateNtNtB4_5token5CommaNtNvCs7oyfuZDlTKn_11yoke_derive16replace_lifetime15ReplaceLifetimeNvYB1r_NtNtNtB4_3gen4fold4Fold20fold_where_predicateEB1v_, symObjAddr: 0x2DD4, symBinAddr: 0x35F00, symSize: 0x2E0 }
  - { offset: 0x66F2E, size: 0x8, addend: 0x0, symName: __RINvNtCsATtFUPiRFW_3syn10punctuated4foldNtNtB4_8lifetime8LifetimeNtNtB4_5token4PlusNtNvCs7oyfuZDlTKn_11yoke_derive16replace_lifetime15ReplaceLifetimeNvYB1j_NtNtNtB4_3gen4fold4Fold13fold_lifetimeEB1n_, symObjAddr: 0x30B4, symBinAddr: 0x361E0, symSize: 0x2D0 }
  - { offset: 0x66FDB, size: 0x8, addend: 0x0, symName: __RNCINvNtCsATtFUPiRFW_3syn10punctuated4foldNtNtB6_2ty4TypeNtNtB6_5token5CommaNtNvCs7oyfuZDlTKn_11yoke_derive16replace_lifetime15ReplaceLifetimeNvYB1c_NtNtNtB6_3gen4fold4Fold9fold_typeE0B1g_, symObjAddr: 0x3F94, symBinAddr: 0x370C0, symSize: 0xEC }
  - { offset: 0x67076, size: 0x8, addend: 0x0, symName: __RNCINvNtCsATtFUPiRFW_3syn10punctuated4foldNtNtB6_2ty9BareFnArgNtNtB6_5token5CommaNtNvCs7oyfuZDlTKn_11yoke_derive16replace_lifetime15ReplaceLifetimeNvYB1h_NtNtNtB6_3gen4fold4Fold16fold_bare_fn_argE0B1l_, symObjAddr: 0x4080, symBinAddr: 0x371AC, symSize: 0xEC }
  - { offset: 0x67110, size: 0x8, addend: 0x0, symName: __RNCINvNtCsATtFUPiRFW_3syn10punctuated4foldNtNtB6_3pat3PatNtNtB6_5token2OrNtNvCs7oyfuZDlTKn_11yoke_derive16replace_lifetime15ReplaceLifetimeNvYB19_NtNtNtB6_3gen4fold4Fold8fold_patE0B1d_, symObjAddr: 0x416C, symBinAddr: 0x37298, symSize: 0xEC }
  - { offset: 0x671AA, size: 0x8, addend: 0x0, symName: __RNCINvNtCsATtFUPiRFW_3syn10punctuated4foldNtNtB6_3pat3PatNtNtB6_5token5CommaNtNvCs7oyfuZDlTKn_11yoke_derive16replace_lifetime15ReplaceLifetimeNvYB1c_NtNtNtB6_3gen4fold4Fold8fold_patE0B1g_, symObjAddr: 0x4258, symBinAddr: 0x37384, symSize: 0xEC }
  - { offset: 0x67244, size: 0x8, addend: 0x0, symName: __RNCINvNtCsATtFUPiRFW_3syn10punctuated4foldNtNtB6_3pat8FieldPatNtNtB6_5token5CommaNtNvCs7oyfuZDlTKn_11yoke_derive16replace_lifetime15ReplaceLifetimeNvYB1h_NtNtNtB6_3gen4fold4Fold14fold_field_patE0B1l_, symObjAddr: 0x4344, symBinAddr: 0x37470, symSize: 0xEC }
  - { offset: 0x672DF, size: 0x8, addend: 0x0, symName: __RNCINvNtCsATtFUPiRFW_3syn10punctuated4foldNtNtB6_4data5FieldNtNtB6_5token5CommaNtNvCs7oyfuZDlTKn_11yoke_derive16replace_lifetime15ReplaceLifetimeNvYB1f_NtNtNtB6_3gen4fold4Fold10fold_fieldE0B1j_, symObjAddr: 0x4430, symBinAddr: 0x3755C, symSize: 0xF0 }
  - { offset: 0x67379, size: 0x8, addend: 0x0, symName: __RNCINvNtCsATtFUPiRFW_3syn10punctuated4foldNtNtB6_4data7VariantNtNtB6_5token5CommaNtNvCs7oyfuZDlTKn_11yoke_derive16replace_lifetime15ReplaceLifetimeNvYB1h_NtNtNtB6_3gen4fold4Fold12fold_variantE0B1l_, symObjAddr: 0x4520, symBinAddr: 0x3764C, symSize: 0xEC }
  - { offset: 0x67414, size: 0x8, addend: 0x0, symName: __RNCINvNtCsATtFUPiRFW_3syn10punctuated4foldNtNtB6_4expr10FieldValueNtNtB6_5token5CommaNtNvCs7oyfuZDlTKn_11yoke_derive16replace_lifetime15ReplaceLifetimeNvYB1l_NtNtNtB6_3gen4fold4Fold16fold_field_valueE0B1p_, symObjAddr: 0x460C, symBinAddr: 0x37738, symSize: 0xEC }
  - { offset: 0x674AE, size: 0x8, addend: 0x0, symName: __RNCINvNtCsATtFUPiRFW_3syn10punctuated4foldNtNtB6_4expr4ExprNtNtB6_5token5CommaNtNvCs7oyfuZDlTKn_11yoke_derive16replace_lifetime15ReplaceLifetimeNvYB1e_NtNtNtB6_3gen4fold4Fold9fold_exprE0B1i_, symObjAddr: 0x46F8, symBinAddr: 0x37824, symSize: 0xEC }
  - { offset: 0x67549, size: 0x8, addend: 0x0, symName: __RNCINvNtCsATtFUPiRFW_3syn10punctuated4foldNtNtB6_4item5FnArgNtNtB6_5token5CommaNtNvCs7oyfuZDlTKn_11yoke_derive16replace_lifetime15ReplaceLifetimeNvYB1f_NtNtNtB6_3gen4fold4Fold11fold_fn_argE0B1j_, symObjAddr: 0x47E4, symBinAddr: 0x37910, symSize: 0xEC }
  - { offset: 0x675E4, size: 0x8, addend: 0x0, symName: __RNCINvNtCsATtFUPiRFW_3syn10punctuated4foldNtNtB6_4item7UseTreeNtNtB6_5token5CommaNtNvCs7oyfuZDlTKn_11yoke_derive16replace_lifetime15ReplaceLifetimeNvYB1h_NtNtNtB6_3gen4fold4Fold13fold_use_treeE0B1l_, symObjAddr: 0x48D0, symBinAddr: 0x379FC, symSize: 0xEC }
  - { offset: 0x6767F, size: 0x8, addend: 0x0, symName: __RNCINvNtCsATtFUPiRFW_3syn10punctuated4foldNtNtB6_4path11PathSegmentNtNtB6_5token7PathSepNtNvCs7oyfuZDlTKn_11yoke_derive16replace_lifetime15ReplaceLifetimeNvYB1o_NtNtNtB6_3gen4fold4Fold17fold_path_segmentE0B1s_, symObjAddr: 0x49BC, symBinAddr: 0x37AE8, symSize: 0xEC }
  - { offset: 0x67719, size: 0x8, addend: 0x0, symName: __RNCINvNtCsATtFUPiRFW_3syn10punctuated4foldNtNtB6_4path15GenericArgumentNtNtB6_5token5CommaNtNvCs7oyfuZDlTKn_11yoke_derive16replace_lifetime15ReplaceLifetimeNvYB1q_NtNtNtB6_3gen4fold4Fold21fold_generic_argumentE0B1u_, symObjAddr: 0x4AA8, symBinAddr: 0x37BD4, symSize: 0xF0 }
  - { offset: 0x677B3, size: 0x8, addend: 0x0, symName: __RNCINvNtCsATtFUPiRFW_3syn10punctuated4foldNtNtB6_8generics12GenericParamNtNtB6_5token5CommaNtNvCs7oyfuZDlTKn_11yoke_derive16replace_lifetime15ReplaceLifetimeNvYB1r_NtNtNtB6_3gen4fold4Fold18fold_generic_paramE0B1v_, symObjAddr: 0x4B98, symBinAddr: 0x37CC4, symSize: 0xF0 }
  - { offset: 0x6784E, size: 0x8, addend: 0x0, symName: __RNCINvNtCsATtFUPiRFW_3syn10punctuated4foldNtNtB6_8generics13CapturedParamNtNtB6_5token5CommaNtNvCs7oyfuZDlTKn_11yoke_derive16replace_lifetime15ReplaceLifetimeNvYB1s_NtNtNtB6_3gen4fold4Fold19fold_captured_paramE0B1w_, symObjAddr: 0x4C88, symBinAddr: 0x37DB4, symSize: 0xE4 }
  - { offset: 0x678E8, size: 0x8, addend: 0x0, symName: __RNCINvNtCsATtFUPiRFW_3syn10punctuated4foldNtNtB6_8generics14TypeParamBoundNtNtB6_5token4PlusNtNvCs7oyfuZDlTKn_11yoke_derive16replace_lifetime15ReplaceLifetimeNvYB1s_NtNtNtB6_3gen4fold4Fold21fold_type_param_boundE0B1w_, symObjAddr: 0x4D6C, symBinAddr: 0x37E98, symSize: 0xEC }
  - { offset: 0x67982, size: 0x8, addend: 0x0, symName: __RNCINvNtCsATtFUPiRFW_3syn10punctuated4foldNtNtB6_8generics14WherePredicateNtNtB6_5token5CommaNtNvCs7oyfuZDlTKn_11yoke_derive16replace_lifetime15ReplaceLifetimeNvYB1t_NtNtNtB6_3gen4fold4Fold20fold_where_predicateE0B1x_, symObjAddr: 0x4E58, symBinAddr: 0x37F84, symSize: 0xF0 }
  - { offset: 0x67A1C, size: 0x8, addend: 0x0, symName: __RNCINvNtCsATtFUPiRFW_3syn10punctuated4foldNtNtB6_8lifetime8LifetimeNtNtB6_5token4PlusNtNvCs7oyfuZDlTKn_11yoke_derive16replace_lifetime15ReplaceLifetimeNvYB1l_NtNtNtB6_3gen4fold4Fold13fold_lifetimeE0B1p_, symObjAddr: 0x4F48, symBinAddr: 0x38074, symSize: 0xC0 }
  - { offset: 0x6D432, size: 0x8, addend: 0x0, symName: __RINvXs0_NtNtNtCs9f3LFPSIp77_4core4iter8adapters3mapINtB6_3MapINtNtB8_6cloned6ClonedINtNtNtBc_5slice4iter4IterNtCs475r2uZUTuc_11proc_macro25IdentEENCINvXs8_NtCscXJUXcj6jCz_9hashbrown3setINtB2t_7HashSetB1J_NtNtNtCs27l1GJC5rMQ_3std4hash6random11RandomStateEINtNtNtBa_6traits7collect6ExtendB1J_E6extendBX_E0ENtNtB49_8iterator8Iterator4folduNCINvNvB4S_8for_each4callTB1J_uENCINvXs1i_NtB2v_3mapINtB64_7HashMapB1J_uB3g_EIB45_B5N_E6extendBN_E0E0ECs7oyfuZDlTKn_11yoke_derive, symObjAddr: 0x3384, symBinAddr: 0x364B0, symSize: 0x34 }
  - { offset: 0x6D4A3, size: 0x8, addend: 0x0, symName: __RINvXs0_NtNtNtCs9f3LFPSIp77_4core4iter8adapters3mapINtB6_3MapINtNtNtBc_5slice4iter4IterNtCs475r2uZUTuc_11proc_macro25IdentENCNvCs7oyfuZDlTKn_11yoke_derive20yokeable_derive_impls0_0ENtNtNtBa_6traits8iterator8Iterator4folduNCINvNvB2T_8for_each4callNtNtCsATtFUPiRFW_3syn8generics14WherePredicateNCINvMsi_NtCsdze8u8oDPro_5alloc3vecINtB4P_3VecB3W_E14extend_trustedBN_E0E0EB21_, symObjAddr: 0x33B8, symBinAddr: 0x364E4, symSize: 0x44 }
  - { offset: 0x6D53B, size: 0x8, addend: 0x0, symName: __RINvXs0_NtNtNtCs9f3LFPSIp77_4core4iter8adapters3mapINtB6_3MapINtNtNtBc_5slice4iter4IterNtCs475r2uZUTuc_11proc_macro25IdentENCNvCs7oyfuZDlTKn_11yoke_derive20yokeable_derive_impls2_0ENtNtNtBa_6traits8iterator8Iterator4folduNCINvNvB2T_8for_each4callNtNtCsATtFUPiRFW_3syn8generics14WherePredicateNCINvMsi_NtCsdze8u8oDPro_5alloc3vecINtB4P_3VecB3W_E14extend_trustedBN_E0E0EB21_, symObjAddr: 0x33FC, symBinAddr: 0x36528, symSize: 0x44 }
  - { offset: 0x6D5D3, size: 0x8, addend: 0x0, symName: __RINvXs0_NtNtNtCs9f3LFPSIp77_4core4iter8adapters3mapINtB6_3MapINtNtNtBc_5slice4iter4IterNtNtCsATtFUPiRFW_3syn8generics9TypeParamENCNvCs7oyfuZDlTKn_11yoke_derive20yokeable_derive_impls_0ENtNtNtBa_6traits8iterator8Iterator4folduNCINvNvB2X_8for_each4callNtCs475r2uZUTuc_11proc_macro25IdentNCINvMsi_NtCsdze8u8oDPro_5alloc3vecINtB4I_3VecB40_E14extend_trustedBN_E0E0EB26_, symObjAddr: 0x3440, symBinAddr: 0x3656C, symSize: 0x44 }
  - { offset: 0x6D66B, size: 0x8, addend: 0x0, symName: __RINvXs0_NtNtNtCs9f3LFPSIp77_4core4iter8adapters3mapINtB6_3MapINtNtNtCsdze8u8oDPro_5alloc3vec9into_iter8IntoIterNtNtCsATtFUPiRFW_3syn4attr9AttributeENCINvNtNtB1P_3gen4fold8fold_vecB1L_NtNvCs7oyfuZDlTKn_11yoke_derive16replace_lifetime15ReplaceLifetimeNvYB2V_NtB2r_4Fold14fold_attributeE0ENtNtNtBa_6traits8iterator8Iterator8try_foldINtNtB12_13in_place_drop11InPlaceDropB1L_ENCINvNtB12_16in_place_collect24write_in_place_with_dropB1L_E0INtNtBc_6result6ResultB5h_zEEB2Z_, symObjAddr: 0x3484, symBinAddr: 0x365B0, symSize: 0x4C }
  - { offset: 0x6D6E9, size: 0x8, addend: 0x0, symName: __RINvXs0_NtNtNtCs9f3LFPSIp77_4core4iter8adapters3mapINtB6_3MapINtNtNtCsdze8u8oDPro_5alloc3vec9into_iter8IntoIterNtNtCsATtFUPiRFW_3syn4expr3ArmENCINvNtNtB1P_3gen4fold8fold_vecB1L_NtNvCs7oyfuZDlTKn_11yoke_derive16replace_lifetime15ReplaceLifetimeNvYB2P_NtB2l_4Fold8fold_armE0ENtNtNtBa_6traits8iterator8Iterator8try_foldINtNtB12_13in_place_drop11InPlaceDropB1L_ENCINvNtB12_16in_place_collect24write_in_place_with_dropB1L_E0INtNtBc_6result6ResultB54_zEEB2T_, symObjAddr: 0x34D0, symBinAddr: 0x365FC, symSize: 0x4C }
  - { offset: 0x6D767, size: 0x8, addend: 0x0, symName: __RINvXs0_NtNtNtCs9f3LFPSIp77_4core4iter8adapters3mapINtB6_3MapINtNtNtCsdze8u8oDPro_5alloc3vec9into_iter8IntoIterNtNtCsATtFUPiRFW_3syn4item11ForeignItemENCINvNtNtB1P_3gen4fold8fold_vecB1L_NtNvCs7oyfuZDlTKn_11yoke_derive16replace_lifetime15ReplaceLifetimeNvYB2Y_NtB2u_4Fold17fold_foreign_itemE0ENtNtNtBa_6traits8iterator8Iterator8try_foldINtNtB12_13in_place_drop11InPlaceDropB1L_ENCINvNtB12_16in_place_collect24write_in_place_with_dropB1L_E0INtNtBc_6result6ResultB5n_zEEB32_, symObjAddr: 0x351C, symBinAddr: 0x36648, symSize: 0x4C }
  - { offset: 0x6D7E5, size: 0x8, addend: 0x0, symName: __RINvXs0_NtNtNtCs9f3LFPSIp77_4core4iter8adapters3mapINtB6_3MapINtNtNtCsdze8u8oDPro_5alloc3vec9into_iter8IntoIterNtNtCsATtFUPiRFW_3syn4item4ItemENCINvNtNtB1P_3gen4fold8fold_vecB1L_NtNvCs7oyfuZDlTKn_11yoke_derive16replace_lifetime15ReplaceLifetimeNvYB2Q_NtB2m_4Fold9fold_itemE0ENtNtNtBa_6traits8iterator8Iterator8try_foldINtNtB12_13in_place_drop11InPlaceDropB1L_ENCINvNtB12_16in_place_collect24write_in_place_with_dropB1L_E0INtNtBc_6result6ResultB56_zEEB2U_, symObjAddr: 0x3568, symBinAddr: 0x36694, symSize: 0x4C }
  - { offset: 0x6D863, size: 0x8, addend: 0x0, symName: __RINvXs0_NtNtNtCs9f3LFPSIp77_4core4iter8adapters3mapINtB6_3MapINtNtNtCsdze8u8oDPro_5alloc3vec9into_iter8IntoIterNtNtCsATtFUPiRFW_3syn4item8ImplItemENCINvNtNtB1P_3gen4fold8fold_vecB1L_NtNvCs7oyfuZDlTKn_11yoke_derive16replace_lifetime15ReplaceLifetimeNvYB2U_NtB2q_4Fold14fold_impl_itemE0ENtNtNtBa_6traits8iterator8Iterator8try_foldINtNtB12_13in_place_drop11InPlaceDropB1L_ENCINvNtB12_16in_place_collect24write_in_place_with_dropB1L_E0INtNtBc_6result6ResultB5g_zEEB2Y_, symObjAddr: 0x35B4, symBinAddr: 0x366E0, symSize: 0x4C }
  - { offset: 0x6D8E1, size: 0x8, addend: 0x0, symName: __RINvXs0_NtNtNtCs9f3LFPSIp77_4core4iter8adapters3mapINtB6_3MapINtNtNtCsdze8u8oDPro_5alloc3vec9into_iter8IntoIterNtNtCsATtFUPiRFW_3syn4item9TraitItemENCINvNtNtB1P_3gen4fold8fold_vecB1L_NtNvCs7oyfuZDlTKn_11yoke_derive16replace_lifetime15ReplaceLifetimeNvYB2V_NtB2r_4Fold15fold_trait_itemE0ENtNtNtBa_6traits8iterator8Iterator8try_foldINtNtB12_13in_place_drop11InPlaceDropB1L_ENCINvNtB12_16in_place_collect24write_in_place_with_dropB1L_E0INtNtBc_6result6ResultB5i_zEEB2Z_, symObjAddr: 0x3600, symBinAddr: 0x3672C, symSize: 0x4C }
  - { offset: 0x6D95F, size: 0x8, addend: 0x0, symName: __RINvXs0_NtNtNtCs9f3LFPSIp77_4core4iter8adapters3mapINtB6_3MapINtNtNtCsdze8u8oDPro_5alloc3vec9into_iter8IntoIterNtNtCsATtFUPiRFW_3syn4stmt4StmtENCINvNtNtB1P_3gen4fold8fold_vecB1L_NtNvCs7oyfuZDlTKn_11yoke_derive16replace_lifetime15ReplaceLifetimeNvYB2Q_NtB2m_4Fold9fold_stmtE0ENtNtNtBa_6traits8iterator8Iterator8try_foldINtNtB12_13in_place_drop11InPlaceDropB1L_ENCINvNtB12_16in_place_collect24write_in_place_with_dropB1L_E0INtNtBc_6result6ResultB56_zEEB2U_, symObjAddr: 0x364C, symBinAddr: 0x36778, symSize: 0x4C }
  - { offset: 0x6D9DD, size: 0x8, addend: 0x0, symName: __RINvXs0_NtNtNtCs9f3LFPSIp77_4core4iter8adapters3mapINtB6_3MapINtNtNtCsdze8u8oDPro_5alloc3vec9into_iter8IntoIterTNtNtCsATtFUPiRFW_3syn2ty4TypeNtNtB1Q_5token5CommaEENCINvNtB1Q_10punctuated4foldB1M_B2f_NtNvCs7oyfuZDlTKn_11yoke_derive16replace_lifetime15ReplaceLifetimeNvYB3b_NtNtNtB1Q_3gen4fold4Fold9fold_typeE0ENtNtNtBa_6traits8iterator8Iterator8try_foldINtNtB12_13in_place_drop11InPlaceDropB1L_ENCINvNtB12_16in_place_collect24write_in_place_with_dropB1L_E0INtNtBc_6result6ResultB5E_zEEB3f_, symObjAddr: 0x3698, symBinAddr: 0x367C4, symSize: 0x4C }
  - { offset: 0x6DA5B, size: 0x8, addend: 0x0, symName: __RINvXs0_NtNtNtCs9f3LFPSIp77_4core4iter8adapters3mapINtB6_3MapINtNtNtCsdze8u8oDPro_5alloc3vec9into_iter8IntoIterTNtNtCsATtFUPiRFW_3syn2ty9BareFnArgNtNtB1Q_5token5CommaEENCINvNtB1Q_10punctuated4foldB1M_B2k_NtNvCs7oyfuZDlTKn_11yoke_derive16replace_lifetime15ReplaceLifetimeNvYB3g_NtNtNtB1Q_3gen4fold4Fold16fold_bare_fn_argE0ENtNtNtBa_6traits8iterator8Iterator8try_foldINtNtB12_13in_place_drop11InPlaceDropB1L_ENCINvNtB12_16in_place_collect24write_in_place_with_dropB1L_E0INtNtBc_6result6ResultB5R_zEEB3k_, symObjAddr: 0x36E4, symBinAddr: 0x36810, symSize: 0x4C }
  - { offset: 0x6DAD9, size: 0x8, addend: 0x0, symName: __RINvXs0_NtNtNtCs9f3LFPSIp77_4core4iter8adapters3mapINtB6_3MapINtNtNtCsdze8u8oDPro_5alloc3vec9into_iter8IntoIterTNtNtCsATtFUPiRFW_3syn3pat3PatNtNtB1Q_5token2OrEENCINvNtB1Q_10punctuated4foldB1M_B2f_NtNvCs7oyfuZDlTKn_11yoke_derive16replace_lifetime15ReplaceLifetimeNvYB38_NtNtNtB1Q_3gen4fold4Fold8fold_patE0ENtNtNtBa_6traits8iterator8Iterator8try_foldINtNtB12_13in_place_drop11InPlaceDropB1L_ENCINvNtB12_16in_place_collect24write_in_place_with_dropB1L_E0INtNtBc_6result6ResultB5A_zEEB3c_, symObjAddr: 0x3730, symBinAddr: 0x3685C, symSize: 0x4C }
  - { offset: 0x6DB57, size: 0x8, addend: 0x0, symName: __RINvXs0_NtNtNtCs9f3LFPSIp77_4core4iter8adapters3mapINtB6_3MapINtNtNtCsdze8u8oDPro_5alloc3vec9into_iter8IntoIterTNtNtCsATtFUPiRFW_3syn3pat3PatNtNtB1Q_5token5CommaEENCINvNtB1Q_10punctuated4foldB1M_B2f_NtNvCs7oyfuZDlTKn_11yoke_derive16replace_lifetime15ReplaceLifetimeNvYB3b_NtNtNtB1Q_3gen4fold4Fold8fold_patE0ENtNtNtBa_6traits8iterator8Iterator8try_foldINtNtB12_13in_place_drop11InPlaceDropB1L_ENCINvNtB12_16in_place_collect24write_in_place_with_dropB1L_E0INtNtBc_6result6ResultB5D_zEEB3f_, symObjAddr: 0x377C, symBinAddr: 0x368A8, symSize: 0x4C }
  - { offset: 0x6DBD5, size: 0x8, addend: 0x0, symName: __RINvXs0_NtNtNtCs9f3LFPSIp77_4core4iter8adapters3mapINtB6_3MapINtNtNtCsdze8u8oDPro_5alloc3vec9into_iter8IntoIterTNtNtCsATtFUPiRFW_3syn3pat8FieldPatNtNtB1Q_5token5CommaEENCINvNtB1Q_10punctuated4foldB1M_B2k_NtNvCs7oyfuZDlTKn_11yoke_derive16replace_lifetime15ReplaceLifetimeNvYB3g_NtNtNtB1Q_3gen4fold4Fold14fold_field_patE0ENtNtNtBa_6traits8iterator8Iterator8try_foldINtNtB12_13in_place_drop11InPlaceDropB1L_ENCINvNtB12_16in_place_collect24write_in_place_with_dropB1L_E0INtNtBc_6result6ResultB5P_zEEB3k_, symObjAddr: 0x37C8, symBinAddr: 0x368F4, symSize: 0x4C }
  - { offset: 0x6DC53, size: 0x8, addend: 0x0, symName: __RINvXs0_NtNtNtCs9f3LFPSIp77_4core4iter8adapters3mapINtB6_3MapINtNtNtCsdze8u8oDPro_5alloc3vec9into_iter8IntoIterTNtNtCsATtFUPiRFW_3syn4data5FieldNtNtB1Q_5token5CommaEENCINvNtB1Q_10punctuated4foldB1M_B2i_NtNvCs7oyfuZDlTKn_11yoke_derive16replace_lifetime15ReplaceLifetimeNvYB3e_NtNtNtB1Q_3gen4fold4Fold10fold_fieldE0ENtNtNtBa_6traits8iterator8Iterator8try_foldINtNtB12_13in_place_drop11InPlaceDropB1L_ENCINvNtB12_16in_place_collect24write_in_place_with_dropB1L_E0INtNtBc_6result6ResultB5J_zEEB3i_, symObjAddr: 0x3814, symBinAddr: 0x36940, symSize: 0x4C }
  - { offset: 0x6DCD1, size: 0x8, addend: 0x0, symName: __RINvXs0_NtNtNtCs9f3LFPSIp77_4core4iter8adapters3mapINtB6_3MapINtNtNtCsdze8u8oDPro_5alloc3vec9into_iter8IntoIterTNtNtCsATtFUPiRFW_3syn4data7VariantNtNtB1Q_5token5CommaEENCINvNtB1Q_10punctuated4foldB1M_B2k_NtNvCs7oyfuZDlTKn_11yoke_derive16replace_lifetime15ReplaceLifetimeNvYB3g_NtNtNtB1Q_3gen4fold4Fold12fold_variantE0ENtNtNtBa_6traits8iterator8Iterator8try_foldINtNtB12_13in_place_drop11InPlaceDropB1L_ENCINvNtB12_16in_place_collect24write_in_place_with_dropB1L_E0INtNtBc_6result6ResultB5N_zEEB3k_, symObjAddr: 0x3860, symBinAddr: 0x3698C, symSize: 0x4C }
  - { offset: 0x6DD4F, size: 0x8, addend: 0x0, symName: __RINvXs0_NtNtNtCs9f3LFPSIp77_4core4iter8adapters3mapINtB6_3MapINtNtNtCsdze8u8oDPro_5alloc3vec9into_iter8IntoIterTNtNtCsATtFUPiRFW_3syn4expr10FieldValueNtNtB1Q_5token5CommaEENCINvNtB1Q_10punctuated4foldB1M_B2o_NtNvCs7oyfuZDlTKn_11yoke_derive16replace_lifetime15ReplaceLifetimeNvYB3k_NtNtNtB1Q_3gen4fold4Fold16fold_field_valueE0ENtNtNtBa_6traits8iterator8Iterator8try_foldINtNtB12_13in_place_drop11InPlaceDropB1L_ENCINvNtB12_16in_place_collect24write_in_place_with_dropB1L_E0INtNtBc_6result6ResultB5V_zEEB3o_, symObjAddr: 0x38AC, symBinAddr: 0x369D8, symSize: 0x4C }
  - { offset: 0x6DDCD, size: 0x8, addend: 0x0, symName: __RINvXs0_NtNtNtCs9f3LFPSIp77_4core4iter8adapters3mapINtB6_3MapINtNtNtCsdze8u8oDPro_5alloc3vec9into_iter8IntoIterTNtNtCsATtFUPiRFW_3syn4expr4ExprNtNtB1Q_5token5CommaEENCINvNtB1Q_10punctuated4foldB1M_B2h_NtNvCs7oyfuZDlTKn_11yoke_derive16replace_lifetime15ReplaceLifetimeNvYB3d_NtNtNtB1Q_3gen4fold4Fold9fold_exprE0ENtNtNtBa_6traits8iterator8Iterator8try_foldINtNtB12_13in_place_drop11InPlaceDropB1L_ENCINvNtB12_16in_place_collect24write_in_place_with_dropB1L_E0INtNtBc_6result6ResultB5G_zEEB3h_, symObjAddr: 0x38F8, symBinAddr: 0x36A24, symSize: 0x4C }
  - { offset: 0x6DE4B, size: 0x8, addend: 0x0, symName: __RINvXs0_NtNtNtCs9f3LFPSIp77_4core4iter8adapters3mapINtB6_3MapINtNtNtCsdze8u8oDPro_5alloc3vec9into_iter8IntoIterTNtNtCsATtFUPiRFW_3syn4item5FnArgNtNtB1Q_5token5CommaEENCINvNtB1Q_10punctuated4foldB1M_B2i_NtNvCs7oyfuZDlTKn_11yoke_derive16replace_lifetime15ReplaceLifetimeNvYB3e_NtNtNtB1Q_3gen4fold4Fold11fold_fn_argE0ENtNtNtBa_6traits8iterator8Iterator8try_foldINtNtB12_13in_place_drop11InPlaceDropB1L_ENCINvNtB12_16in_place_collect24write_in_place_with_dropB1L_E0INtNtBc_6result6ResultB5K_zEEB3i_, symObjAddr: 0x3944, symBinAddr: 0x36A70, symSize: 0x4C }
  - { offset: 0x6DEC9, size: 0x8, addend: 0x0, symName: __RINvXs0_NtNtNtCs9f3LFPSIp77_4core4iter8adapters3mapINtB6_3MapINtNtNtCsdze8u8oDPro_5alloc3vec9into_iter8IntoIterTNtNtCsATtFUPiRFW_3syn4item7UseTreeNtNtB1Q_5token5CommaEENCINvNtB1Q_10punctuated4foldB1M_B2k_NtNvCs7oyfuZDlTKn_11yoke_derive16replace_lifetime15ReplaceLifetimeNvYB3g_NtNtNtB1Q_3gen4fold4Fold13fold_use_treeE0ENtNtNtBa_6traits8iterator8Iterator8try_foldINtNtB12_13in_place_drop11InPlaceDropB1L_ENCINvNtB12_16in_place_collect24write_in_place_with_dropB1L_E0INtNtBc_6result6ResultB5O_zEEB3k_, symObjAddr: 0x3990, symBinAddr: 0x36ABC, symSize: 0x4C }
  - { offset: 0x6DF47, size: 0x8, addend: 0x0, symName: __RINvXs0_NtNtNtCs9f3LFPSIp77_4core4iter8adapters3mapINtB6_3MapINtNtNtCsdze8u8oDPro_5alloc3vec9into_iter8IntoIterTNtNtCsATtFUPiRFW_3syn4path11PathSegmentNtNtB1Q_5token7PathSepEENCINvNtB1Q_10punctuated4foldB1M_B2p_NtNvCs7oyfuZDlTKn_11yoke_derive16replace_lifetime15ReplaceLifetimeNvYB3n_NtNtNtB1Q_3gen4fold4Fold17fold_path_segmentE0ENtNtNtBa_6traits8iterator8Iterator8try_foldINtNtB12_13in_place_drop11InPlaceDropB1L_ENCINvNtB12_16in_place_collect24write_in_place_with_dropB1L_E0INtNtBc_6result6ResultB5Z_zEEB3r_, symObjAddr: 0x39DC, symBinAddr: 0x36B08, symSize: 0x4C }
  - { offset: 0x6DFC5, size: 0x8, addend: 0x0, symName: __RINvXs0_NtNtNtCs9f3LFPSIp77_4core4iter8adapters3mapINtB6_3MapINtNtNtCsdze8u8oDPro_5alloc3vec9into_iter8IntoIterTNtNtCsATtFUPiRFW_3syn4path15GenericArgumentNtNtB1Q_5token5CommaEENCINvNtB1Q_10punctuated4foldB1M_B2t_NtNvCs7oyfuZDlTKn_11yoke_derive16replace_lifetime15ReplaceLifetimeNvYB3p_NtNtNtB1Q_3gen4fold4Fold21fold_generic_argumentE0ENtNtNtBa_6traits8iterator8Iterator8try_foldINtNtB12_13in_place_drop11InPlaceDropB1L_ENCINvNtB12_16in_place_collect24write_in_place_with_dropB1L_E0INtNtBc_6result6ResultB65_zEEB3t_, symObjAddr: 0x3A28, symBinAddr: 0x36B54, symSize: 0x4C }
  - { offset: 0x6E043, size: 0x8, addend: 0x0, symName: __RINvXs0_NtNtNtCs9f3LFPSIp77_4core4iter8adapters3mapINtB6_3MapINtNtNtCsdze8u8oDPro_5alloc3vec9into_iter8IntoIterTNtNtCsATtFUPiRFW_3syn8generics12GenericParamNtNtB1Q_5token5CommaEENCINvNtB1Q_10punctuated4foldB1M_B2u_NtNvCs7oyfuZDlTKn_11yoke_derive16replace_lifetime15ReplaceLifetimeNvYB3q_NtNtNtB1Q_3gen4fold4Fold18fold_generic_paramE0ENtNtNtBa_6traits8iterator8Iterator8try_foldINtNtB12_13in_place_drop11InPlaceDropB1L_ENCINvNtB12_16in_place_collect24write_in_place_with_dropB1L_E0INtNtBc_6result6ResultB63_zEEB3u_, symObjAddr: 0x3A74, symBinAddr: 0x36BA0, symSize: 0x4C }
  - { offset: 0x6E0C1, size: 0x8, addend: 0x0, symName: __RINvXs0_NtNtNtCs9f3LFPSIp77_4core4iter8adapters3mapINtB6_3MapINtNtNtCsdze8u8oDPro_5alloc3vec9into_iter8IntoIterTNtNtCsATtFUPiRFW_3syn8generics13CapturedParamNtNtB1Q_5token5CommaEENCINvNtB1Q_10punctuated4foldB1M_B2v_NtNvCs7oyfuZDlTKn_11yoke_derive16replace_lifetime15ReplaceLifetimeNvYB3r_NtNtNtB1Q_3gen4fold4Fold19fold_captured_paramE0ENtNtNtBa_6traits8iterator8Iterator8try_foldINtNtB12_13in_place_drop11InPlaceDropB1L_ENCINvNtB12_16in_place_collect24write_in_place_with_dropB1L_E0INtNtBc_6result6ResultB65_zEEB3v_, symObjAddr: 0x3AC0, symBinAddr: 0x36BEC, symSize: 0x4C }
  - { offset: 0x6E13F, size: 0x8, addend: 0x0, symName: __RINvXs0_NtNtNtCs9f3LFPSIp77_4core4iter8adapters3mapINtB6_3MapINtNtNtCsdze8u8oDPro_5alloc3vec9into_iter8IntoIterTNtNtCsATtFUPiRFW_3syn8generics14TypeParamBoundNtNtB1Q_5token4PlusEENCINvNtB1Q_10punctuated4foldB1M_B2w_NtNvCs7oyfuZDlTKn_11yoke_derive16replace_lifetime15ReplaceLifetimeNvYB3r_NtNtNtB1Q_3gen4fold4Fold21fold_type_param_boundE0ENtNtNtBa_6traits8iterator8Iterator8try_foldINtNtB12_13in_place_drop11InPlaceDropB1L_ENCINvNtB12_16in_place_collect24write_in_place_with_dropB1L_E0INtNtBc_6result6ResultB67_zEEB3v_, symObjAddr: 0x3B0C, symBinAddr: 0x36C38, symSize: 0x4C }
  - { offset: 0x6E1BD, size: 0x8, addend: 0x0, symName: __RINvXs0_NtNtNtCs9f3LFPSIp77_4core4iter8adapters3mapINtB6_3MapINtNtNtCsdze8u8oDPro_5alloc3vec9into_iter8IntoIterTNtNtCsATtFUPiRFW_3syn8generics14WherePredicateNtNtB1Q_5token5CommaEENCINvNtB1Q_10punctuated4foldB1M_B2w_NtNvCs7oyfuZDlTKn_11yoke_derive16replace_lifetime15ReplaceLifetimeNvYB3s_NtNtNtB1Q_3gen4fold4Fold20fold_where_predicateE0ENtNtNtBa_6traits8iterator8Iterator8try_foldINtNtB12_13in_place_drop11InPlaceDropB1L_ENCINvNtB12_16in_place_collect24write_in_place_with_dropB1L_E0INtNtBc_6result6ResultB67_zEEB3w_, symObjAddr: 0x3B58, symBinAddr: 0x36C84, symSize: 0x4C }
  - { offset: 0x6E23B, size: 0x8, addend: 0x0, symName: __RINvXs0_NtNtNtCs9f3LFPSIp77_4core4iter8adapters3mapINtB6_3MapINtNtNtCsdze8u8oDPro_5alloc3vec9into_iter8IntoIterTNtNtCsATtFUPiRFW_3syn8lifetime8LifetimeNtNtB1Q_5token4PlusEENCINvNtB1Q_10punctuated4foldB1M_B2p_NtNvCs7oyfuZDlTKn_11yoke_derive16replace_lifetime15ReplaceLifetimeNvYB3k_NtNtNtB1Q_3gen4fold4Fold13fold_lifetimeE0ENtNtNtBa_6traits8iterator8Iterator8try_foldINtNtB12_13in_place_drop11InPlaceDropB1L_ENCINvNtB12_16in_place_collect24write_in_place_with_dropB1L_E0INtNtBc_6result6ResultB5S_zEEB3o_, symObjAddr: 0x3BA4, symBinAddr: 0x36CD0, symSize: 0x4C }
  - { offset: 0x6E2B9, size: 0x8, addend: 0x0, symName: __RNvXs0_NtNtNtCs9f3LFPSIp77_4core4iter8adapters3mapINtB5_3MapINtNtB7_6cloned6ClonedINtNtNtBb_5slice4iter4IterNtCs475r2uZUTuc_11proc_macro25IdentEENCINvXs8_NtCscXJUXcj6jCz_9hashbrown3setINtB2s_7HashSetB1I_NtNtNtCs27l1GJC5rMQ_3std4hash6random11RandomStateEINtNtNtB9_6traits7collect6ExtendB1I_E6extendBW_E0ENtNtB48_8iterator8Iterator9size_hintCs7oyfuZDlTKn_11yoke_derive, symObjAddr: 0x826C, symBinAddr: 0x3B398, symSize: 0x24 }
  - { offset: 0x6E300, size: 0x8, addend: 0x0, symName: __RNvXs0_NtNtNtCs9f3LFPSIp77_4core4iter8adapters3mapINtB5_3MapINtNtNtBb_5slice4iter4IterNtCs475r2uZUTuc_11proc_macro25IdentENCNvCs7oyfuZDlTKn_11yoke_derive20yokeable_derive_impls0_0ENtNtNtB9_6traits8iterator8Iterator9size_hintB20_, symObjAddr: 0x8290, symBinAddr: 0x3B3BC, symSize: 0x24 }
  - { offset: 0x6E347, size: 0x8, addend: 0x0, symName: __RNvXs0_NtNtNtCs9f3LFPSIp77_4core4iter8adapters3mapINtB5_3MapINtNtNtBb_5slice4iter4IterNtCs475r2uZUTuc_11proc_macro25IdentENCNvCs7oyfuZDlTKn_11yoke_derive20yokeable_derive_impls2_0ENtNtNtB9_6traits8iterator8Iterator9size_hintB20_, symObjAddr: 0x82B4, symBinAddr: 0x3B3E0, symSize: 0x24 }
  - { offset: 0x6E38E, size: 0x8, addend: 0x0, symName: __RNvXs0_NtNtNtCs9f3LFPSIp77_4core4iter8adapters3mapINtB5_3MapINtNtNtBb_5slice4iter4IterNtNtCsATtFUPiRFW_3syn8generics9TypeParamENCNvCs7oyfuZDlTKn_11yoke_derive20yokeable_derive_impls_0ENtNtNtB9_6traits8iterator8Iterator9size_hintB25_, symObjAddr: 0x82D8, symBinAddr: 0x3B404, symSize: 0x24 }
  - { offset: 0x6E3D5, size: 0x8, addend: 0x0, symName: __RNvXs0_NtNtNtCs9f3LFPSIp77_4core4iter8adapters3mapINtB5_3MapNtNtCsATtFUPiRFW_3syn8generics10TypeParamsNCNvCs7oyfuZDlTKn_11yoke_derive20yokeable_derive_impl0ENtNtNtB9_6traits8iterator8Iterator4nextB1G_, symObjAddr: 0x82FC, symBinAddr: 0x3B428, symSize: 0x9C }
  - { offset: 0x6E44F, size: 0x8, addend: 0x0, symName: __RNvXs0_NtNtNtCs9f3LFPSIp77_4core4iter8adapters3mapINtB5_3MapNtNtCsATtFUPiRFW_3syn8generics10TypeParamsNCNvCs7oyfuZDlTKn_11yoke_derive20yokeable_derive_impl0ENtNtNtB9_6traits8iterator8Iterator9size_hintB1G_, symObjAddr: 0x8398, symBinAddr: 0x3B4C4, symSize: 0x24 }
  - { offset: 0x6E54A, size: 0x8, addend: 0x0, symName: __RNCINvNtNtNtCs9f3LFPSIp77_4core4iter8adapters3map8map_foldNtCs475r2uZUTuc_11proc_macro25IdentTBU_uEuNCINvXs8_NtCscXJUXcj6jCz_9hashbrown3setINtB1J_7HashSetBU_NtNtNtCs27l1GJC5rMQ_3std4hash6random11RandomStateEINtNtNtB8_6traits7collect6ExtendBU_E6extendINtNtB6_6cloned6ClonedINtNtNtBa_5slice4iter4IterBU_EEE0NCINvNvNtNtB3o_8iterator8Iterator8for_each4callB1t_NCINvXs1i_NtB1L_3mapINtB5S_7HashMapBU_uB2v_EIB3k_B1t_E6extendINtB4_3MapB40_B1A_EE0E0E0Cs7oyfuZDlTKn_11yoke_derive, symObjAddr: 0x6B84, symBinAddr: 0x39CB0, symSize: 0x9C }
  - { offset: 0x6E5CF, size: 0x8, addend: 0x0, symName: __RNCINvNtNtNtCs9f3LFPSIp77_4core4iter8adapters3map8map_foldRNtCs475r2uZUTuc_11proc_macro25IdentBV_uNvYBV_NtNtBa_5clone5Clone5cloneNCIB2_BV_TBV_uEuNCINvXs8_NtCscXJUXcj6jCz_9hashbrown3setINtB2s_7HashSetBV_NtNtNtCs27l1GJC5rMQ_3std4hash6random11RandomStateEINtNtNtB8_6traits7collect6ExtendBV_E6extendINtNtB6_6cloned6ClonedINtNtNtBa_5slice4iter4IterBV_EEE0NCINvNvNtNtB47_8iterator8Iterator8for_each4callB2c_NCINvXs1i_NtB2u_3mapINtB6B_7HashMapBV_uB3e_EIB43_B2c_E6extendINtB4_3MapB4J_B2j_EE0E0E0E0Cs7oyfuZDlTKn_11yoke_derive, symObjAddr: 0x6C20, symBinAddr: 0x39D4C, symSize: 0x8C }
  - { offset: 0x6E653, size: 0x8, addend: 0x0, symName: __RNCINvNtNtNtCs9f3LFPSIp77_4core4iter8adapters3map8map_foldRNtCs475r2uZUTuc_11proc_macro25IdentNtNtCsATtFUPiRFW_3syn8generics14WherePredicateuNCNvCs7oyfuZDlTKn_11yoke_derive20yokeable_derive_impls0_0NCINvNvNtNtNtB8_6traits8iterator8Iterator8for_each4callB1u_NCINvMsi_NtCsdze8u8oDPro_5alloc3vecINtB4g_3VecB1u_E14extend_trustedINtB4_3MapINtNtNtBa_5slice4iter4IterBV_EB2f_EE0E0E0B2j_, symObjAddr: 0x6CAC, symBinAddr: 0x39DD8, symSize: 0x9C }
  - { offset: 0x6E6D7, size: 0x8, addend: 0x0, symName: __RNCINvNtNtNtCs9f3LFPSIp77_4core4iter8adapters3map8map_foldRNtCs475r2uZUTuc_11proc_macro25IdentNtNtCsATtFUPiRFW_3syn8generics14WherePredicateuNCNvCs7oyfuZDlTKn_11yoke_derive20yokeable_derive_impls2_0NCINvNvNtNtNtB8_6traits8iterator8Iterator8for_each4callB1u_NCINvMsi_NtCsdze8u8oDPro_5alloc3vecINtB4g_3VecB1u_E14extend_trustedINtB4_3MapINtNtNtBa_5slice4iter4IterBV_EB2f_EE0E0E0B2j_, symObjAddr: 0x6D48, symBinAddr: 0x39E74, symSize: 0x9C }
  - { offset: 0x6E75B, size: 0x8, addend: 0x0, symName: __RNCINvNtNtNtCs9f3LFPSIp77_4core4iter8adapters3map8map_foldRNtNtCsATtFUPiRFW_3syn8generics9TypeParamNtCs475r2uZUTuc_11proc_macro25IdentuNCNvCs7oyfuZDlTKn_11yoke_derive20yokeable_derive_impls_0NCINvNvNtNtNtB8_6traits8iterator8Iterator8for_each4callB1z_NCINvMsi_NtCsdze8u8oDPro_5alloc3vecINtB49_3VecB1z_E14extend_trustedINtB4_3MapINtNtNtBa_5slice4iter4IterBV_EB29_EE0E0E0B2d_, symObjAddr: 0x6DE4, symBinAddr: 0x39F10, symSize: 0x8C }
  - { offset: 0x6E8AB, size: 0x8, addend: 0x0, symName: __RNCINvNtNtNtCs9f3LFPSIp77_4core4iter8adapters3map12map_try_foldNtNtCsATtFUPiRFW_3syn4attr9AttributeBZ_INtNtNtCsdze8u8oDPro_5alloc3vec13in_place_drop11InPlaceDropBZ_EINtNtBa_6result6ResultB1C_zENCINvNtNtB13_3gen4fold8fold_vecBZ_NtNvCs7oyfuZDlTKn_11yoke_derive16replace_lifetime15ReplaceLifetimeNvYB3D_NtB3a_4Fold14fold_attributeE0NCINvNtB1H_16in_place_collect24write_in_place_with_dropBZ_E0E0B3H_, symObjAddr: 0x5008, symBinAddr: 0x38134, symSize: 0x118 }
  - { offset: 0x6E93E, size: 0x8, addend: 0x0, symName: __RNCINvNtNtNtCs9f3LFPSIp77_4core4iter8adapters3map12map_try_foldNtNtCsATtFUPiRFW_3syn4expr3ArmBZ_INtNtNtCsdze8u8oDPro_5alloc3vec13in_place_drop11InPlaceDropBZ_EINtNtBa_6result6ResultB1w_zENCINvNtNtB13_3gen4fold8fold_vecBZ_NtNvCs7oyfuZDlTKn_11yoke_derive16replace_lifetime15ReplaceLifetimeNvYB3x_NtB34_4Fold8fold_armE0NCINvNtB1B_16in_place_collect24write_in_place_with_dropBZ_E0E0B3B_, symObjAddr: 0x5120, symBinAddr: 0x3824C, symSize: 0x118 }
  - { offset: 0x6E9D1, size: 0x8, addend: 0x0, symName: __RNCINvNtNtNtCs9f3LFPSIp77_4core4iter8adapters3map12map_try_foldNtNtCsATtFUPiRFW_3syn4item11ForeignItemBZ_INtNtNtCsdze8u8oDPro_5alloc3vec13in_place_drop11InPlaceDropBZ_EINtNtBa_6result6ResultB1F_zENCINvNtNtB13_3gen4fold8fold_vecBZ_NtNvCs7oyfuZDlTKn_11yoke_derive16replace_lifetime15ReplaceLifetimeNvYB3G_NtB3d_4Fold17fold_foreign_itemE0NCINvNtB1K_16in_place_collect24write_in_place_with_dropBZ_E0E0B3K_, symObjAddr: 0x5238, symBinAddr: 0x38364, symSize: 0x11C }
  - { offset: 0x6EA64, size: 0x8, addend: 0x0, symName: __RNCINvNtNtNtCs9f3LFPSIp77_4core4iter8adapters3map12map_try_foldNtNtCsATtFUPiRFW_3syn4item4ItemBZ_INtNtNtCsdze8u8oDPro_5alloc3vec13in_place_drop11InPlaceDropBZ_EINtNtBa_6result6ResultB1x_zENCINvNtNtB13_3gen4fold8fold_vecBZ_NtNvCs7oyfuZDlTKn_11yoke_derive16replace_lifetime15ReplaceLifetimeNvYB3y_NtB35_4Fold9fold_itemE0NCINvNtB1C_16in_place_collect24write_in_place_with_dropBZ_E0E0B3C_, symObjAddr: 0x5354, symBinAddr: 0x38480, symSize: 0x11C }
  - { offset: 0x6EAF7, size: 0x8, addend: 0x0, symName: __RNCINvNtNtNtCs9f3LFPSIp77_4core4iter8adapters3map12map_try_foldNtNtCsATtFUPiRFW_3syn4item8ImplItemBZ_INtNtNtCsdze8u8oDPro_5alloc3vec13in_place_drop11InPlaceDropBZ_EINtNtBa_6result6ResultB1B_zENCINvNtNtB13_3gen4fold8fold_vecBZ_NtNvCs7oyfuZDlTKn_11yoke_derive16replace_lifetime15ReplaceLifetimeNvYB3C_NtB39_4Fold14fold_impl_itemE0NCINvNtB1G_16in_place_collect24write_in_place_with_dropBZ_E0E0B3G_, symObjAddr: 0x5470, symBinAddr: 0x3859C, symSize: 0x11C }
  - { offset: 0x6EB8A, size: 0x8, addend: 0x0, symName: __RNCINvNtNtNtCs9f3LFPSIp77_4core4iter8adapters3map12map_try_foldNtNtCsATtFUPiRFW_3syn4item9TraitItemBZ_INtNtNtCsdze8u8oDPro_5alloc3vec13in_place_drop11InPlaceDropBZ_EINtNtBa_6result6ResultB1C_zENCINvNtNtB13_3gen4fold8fold_vecBZ_NtNvCs7oyfuZDlTKn_11yoke_derive16replace_lifetime15ReplaceLifetimeNvYB3D_NtB3a_4Fold15fold_trait_itemE0NCINvNtB1H_16in_place_collect24write_in_place_with_dropBZ_E0E0B3H_, symObjAddr: 0x558C, symBinAddr: 0x386B8, symSize: 0x11C }
  - { offset: 0x6EC1D, size: 0x8, addend: 0x0, symName: __RNCINvNtNtNtCs9f3LFPSIp77_4core4iter8adapters3map12map_try_foldNtNtCsATtFUPiRFW_3syn4stmt4StmtBZ_INtNtNtCsdze8u8oDPro_5alloc3vec13in_place_drop11InPlaceDropBZ_EINtNtBa_6result6ResultB1x_zENCINvNtNtB13_3gen4fold8fold_vecBZ_NtNvCs7oyfuZDlTKn_11yoke_derive16replace_lifetime15ReplaceLifetimeNvYB3y_NtB35_4Fold9fold_stmtE0NCINvNtB1C_16in_place_collect24write_in_place_with_dropBZ_E0E0B3C_, symObjAddr: 0x56A8, symBinAddr: 0x387D4, symSize: 0x11C }
  - { offset: 0x6ECB0, size: 0x8, addend: 0x0, symName: __RNCINvNtNtNtCs9f3LFPSIp77_4core4iter8adapters3map12map_try_foldTNtNtCsATtFUPiRFW_3syn2ty4TypeNtNtB14_5token5CommaEBZ_INtNtNtCsdze8u8oDPro_5alloc3vec13in_place_drop11InPlaceDropBZ_EINtNtBa_6result6ResultB1R_zENCINvNtB14_10punctuated4foldB10_B1t_NtNvCs7oyfuZDlTKn_11yoke_derive16replace_lifetime15ReplaceLifetimeNvYB3U_NtNtNtB14_3gen4fold4Fold9fold_typeE0NCINvNtB1W_16in_place_collect24write_in_place_with_dropBZ_E0E0B3Y_, symObjAddr: 0x57C4, symBinAddr: 0x388F0, symSize: 0x118 }
  - { offset: 0x6ED43, size: 0x8, addend: 0x0, symName: __RNCINvNtNtNtCs9f3LFPSIp77_4core4iter8adapters3map12map_try_foldTNtNtCsATtFUPiRFW_3syn2ty9BareFnArgNtNtB14_5token5CommaEBZ_INtNtNtCsdze8u8oDPro_5alloc3vec13in_place_drop11InPlaceDropBZ_EINtNtBa_6result6ResultB1W_zENCINvNtB14_10punctuated4foldB10_B1y_NtNvCs7oyfuZDlTKn_11yoke_derive16replace_lifetime15ReplaceLifetimeNvYB3Z_NtNtNtB14_3gen4fold4Fold16fold_bare_fn_argE0NCINvNtB21_16in_place_collect24write_in_place_with_dropBZ_E0E0B43_, symObjAddr: 0x58DC, symBinAddr: 0x38A08, symSize: 0x118 }
  - { offset: 0x6EDD6, size: 0x8, addend: 0x0, symName: __RNCINvNtNtNtCs9f3LFPSIp77_4core4iter8adapters3map12map_try_foldTNtNtCsATtFUPiRFW_3syn3pat3PatNtNtB14_5token2OrEBZ_INtNtNtCsdze8u8oDPro_5alloc3vec13in_place_drop11InPlaceDropBZ_EINtNtBa_6result6ResultB1O_zENCINvNtB14_10punctuated4foldB10_B1t_NtNvCs7oyfuZDlTKn_11yoke_derive16replace_lifetime15ReplaceLifetimeNvYB3R_NtNtNtB14_3gen4fold4Fold8fold_patE0NCINvNtB1T_16in_place_collect24write_in_place_with_dropBZ_E0E0B3V_, symObjAddr: 0x59F4, symBinAddr: 0x38B20, symSize: 0x118 }
  - { offset: 0x6EE69, size: 0x8, addend: 0x0, symName: __RNCINvNtNtNtCs9f3LFPSIp77_4core4iter8adapters3map12map_try_foldTNtNtCsATtFUPiRFW_3syn3pat3PatNtNtB14_5token5CommaEBZ_INtNtNtCsdze8u8oDPro_5alloc3vec13in_place_drop11InPlaceDropBZ_EINtNtBa_6result6ResultB1R_zENCINvNtB14_10punctuated4foldB10_B1t_NtNvCs7oyfuZDlTKn_11yoke_derive16replace_lifetime15ReplaceLifetimeNvYB3U_NtNtNtB14_3gen4fold4Fold8fold_patE0NCINvNtB1W_16in_place_collect24write_in_place_with_dropBZ_E0E0B3Y_, symObjAddr: 0x5B0C, symBinAddr: 0x38C38, symSize: 0x118 }
  - { offset: 0x6EEFC, size: 0x8, addend: 0x0, symName: __RNCINvNtNtNtCs9f3LFPSIp77_4core4iter8adapters3map12map_try_foldTNtNtCsATtFUPiRFW_3syn3pat8FieldPatNtNtB14_5token5CommaEBZ_INtNtNtCsdze8u8oDPro_5alloc3vec13in_place_drop11InPlaceDropBZ_EINtNtBa_6result6ResultB1W_zENCINvNtB14_10punctuated4foldB10_B1y_NtNvCs7oyfuZDlTKn_11yoke_derive16replace_lifetime15ReplaceLifetimeNvYB3Z_NtNtNtB14_3gen4fold4Fold14fold_field_patE0NCINvNtB21_16in_place_collect24write_in_place_with_dropBZ_E0E0B43_, symObjAddr: 0x5C24, symBinAddr: 0x38D50, symSize: 0x118 }
  - { offset: 0x6EF8F, size: 0x8, addend: 0x0, symName: __RNCINvNtNtNtCs9f3LFPSIp77_4core4iter8adapters3map12map_try_foldTNtNtCsATtFUPiRFW_3syn4data5FieldNtNtB14_5token5CommaEBZ_INtNtNtCsdze8u8oDPro_5alloc3vec13in_place_drop11InPlaceDropBZ_EINtNtBa_6result6ResultB1U_zENCINvNtB14_10punctuated4foldB10_B1w_NtNvCs7oyfuZDlTKn_11yoke_derive16replace_lifetime15ReplaceLifetimeNvYB3X_NtNtNtB14_3gen4fold4Fold10fold_fieldE0NCINvNtB1Z_16in_place_collect24write_in_place_with_dropBZ_E0E0B41_, symObjAddr: 0x5D3C, symBinAddr: 0x38E68, symSize: 0x11C }
  - { offset: 0x6F022, size: 0x8, addend: 0x0, symName: __RNCINvNtNtNtCs9f3LFPSIp77_4core4iter8adapters3map12map_try_foldTNtNtCsATtFUPiRFW_3syn4data7VariantNtNtB14_5token5CommaEBZ_INtNtNtCsdze8u8oDPro_5alloc3vec13in_place_drop11InPlaceDropBZ_EINtNtBa_6result6ResultB1W_zENCINvNtB14_10punctuated4foldB10_B1y_NtNvCs7oyfuZDlTKn_11yoke_derive16replace_lifetime15ReplaceLifetimeNvYB3Z_NtNtNtB14_3gen4fold4Fold12fold_variantE0NCINvNtB21_16in_place_collect24write_in_place_with_dropBZ_E0E0B43_, symObjAddr: 0x5E58, symBinAddr: 0x38F84, symSize: 0x118 }
  - { offset: 0x6F0B5, size: 0x8, addend: 0x0, symName: __RNCINvNtNtNtCs9f3LFPSIp77_4core4iter8adapters3map12map_try_foldTNtNtCsATtFUPiRFW_3syn4expr10FieldValueNtNtB14_5token5CommaEBZ_INtNtNtCsdze8u8oDPro_5alloc3vec13in_place_drop11InPlaceDropBZ_EINtNtBa_6result6ResultB20_zENCINvNtB14_10punctuated4foldB10_B1C_NtNvCs7oyfuZDlTKn_11yoke_derive16replace_lifetime15ReplaceLifetimeNvYB43_NtNtNtB14_3gen4fold4Fold16fold_field_valueE0NCINvNtB25_16in_place_collect24write_in_place_with_dropBZ_E0E0B47_, symObjAddr: 0x5F70, symBinAddr: 0x3909C, symSize: 0x118 }
  - { offset: 0x6F148, size: 0x8, addend: 0x0, symName: __RNCINvNtNtNtCs9f3LFPSIp77_4core4iter8adapters3map12map_try_foldTNtNtCsATtFUPiRFW_3syn4expr4ExprNtNtB14_5token5CommaEBZ_INtNtNtCsdze8u8oDPro_5alloc3vec13in_place_drop11InPlaceDropBZ_EINtNtBa_6result6ResultB1T_zENCINvNtB14_10punctuated4foldB10_B1v_NtNvCs7oyfuZDlTKn_11yoke_derive16replace_lifetime15ReplaceLifetimeNvYB3W_NtNtNtB14_3gen4fold4Fold9fold_exprE0NCINvNtB1Y_16in_place_collect24write_in_place_with_dropBZ_E0E0B40_, symObjAddr: 0x6088, symBinAddr: 0x391B4, symSize: 0x118 }
  - { offset: 0x6F1DB, size: 0x8, addend: 0x0, symName: __RNCINvNtNtNtCs9f3LFPSIp77_4core4iter8adapters3map12map_try_foldTNtNtCsATtFUPiRFW_3syn4item5FnArgNtNtB14_5token5CommaEBZ_INtNtNtCsdze8u8oDPro_5alloc3vec13in_place_drop11InPlaceDropBZ_EINtNtBa_6result6ResultB1U_zENCINvNtB14_10punctuated4foldB10_B1w_NtNvCs7oyfuZDlTKn_11yoke_derive16replace_lifetime15ReplaceLifetimeNvYB3X_NtNtNtB14_3gen4fold4Fold11fold_fn_argE0NCINvNtB1Z_16in_place_collect24write_in_place_with_dropBZ_E0E0B41_, symObjAddr: 0x61A0, symBinAddr: 0x392CC, symSize: 0x118 }
  - { offset: 0x6F26E, size: 0x8, addend: 0x0, symName: __RNCINvNtNtNtCs9f3LFPSIp77_4core4iter8adapters3map12map_try_foldTNtNtCsATtFUPiRFW_3syn4item7UseTreeNtNtB14_5token5CommaEBZ_INtNtNtCsdze8u8oDPro_5alloc3vec13in_place_drop11InPlaceDropBZ_EINtNtBa_6result6ResultB1W_zENCINvNtB14_10punctuated4foldB10_B1y_NtNvCs7oyfuZDlTKn_11yoke_derive16replace_lifetime15ReplaceLifetimeNvYB3Z_NtNtNtB14_3gen4fold4Fold13fold_use_treeE0NCINvNtB21_16in_place_collect24write_in_place_with_dropBZ_E0E0B43_, symObjAddr: 0x62B8, symBinAddr: 0x393E4, symSize: 0x118 }
  - { offset: 0x6F301, size: 0x8, addend: 0x0, symName: __RNCINvNtNtNtCs9f3LFPSIp77_4core4iter8adapters3map12map_try_foldTNtNtCsATtFUPiRFW_3syn4path11PathSegmentNtNtB14_5token7PathSepEBZ_INtNtNtCsdze8u8oDPro_5alloc3vec13in_place_drop11InPlaceDropBZ_EINtNtBa_6result6ResultB23_zENCINvNtB14_10punctuated4foldB10_B1D_NtNvCs7oyfuZDlTKn_11yoke_derive16replace_lifetime15ReplaceLifetimeNvYB46_NtNtNtB14_3gen4fold4Fold17fold_path_segmentE0NCINvNtB28_16in_place_collect24write_in_place_with_dropBZ_E0E0B4a_, symObjAddr: 0x63D0, symBinAddr: 0x394FC, symSize: 0x118 }
  - { offset: 0x6F394, size: 0x8, addend: 0x0, symName: __RNCINvNtNtNtCs9f3LFPSIp77_4core4iter8adapters3map12map_try_foldTNtNtCsATtFUPiRFW_3syn4path15GenericArgumentNtNtB14_5token5CommaEBZ_INtNtNtCsdze8u8oDPro_5alloc3vec13in_place_drop11InPlaceDropBZ_EINtNtBa_6result6ResultB25_zENCINvNtB14_10punctuated4foldB10_B1H_NtNvCs7oyfuZDlTKn_11yoke_derive16replace_lifetime15ReplaceLifetimeNvYB48_NtNtNtB14_3gen4fold4Fold21fold_generic_argumentE0NCINvNtB2a_16in_place_collect24write_in_place_with_dropBZ_E0E0B4c_, symObjAddr: 0x64E8, symBinAddr: 0x39614, symSize: 0x11C }
  - { offset: 0x6F427, size: 0x8, addend: 0x0, symName: __RNCINvNtNtNtCs9f3LFPSIp77_4core4iter8adapters3map12map_try_foldTNtNtCsATtFUPiRFW_3syn8generics12GenericParamNtNtB14_5token5CommaEBZ_INtNtNtCsdze8u8oDPro_5alloc3vec13in_place_drop11InPlaceDropBZ_EINtNtBa_6result6ResultB26_zENCINvNtB14_10punctuated4foldB10_B1I_NtNvCs7oyfuZDlTKn_11yoke_derive16replace_lifetime15ReplaceLifetimeNvYB49_NtNtNtB14_3gen4fold4Fold18fold_generic_paramE0NCINvNtB2b_16in_place_collect24write_in_place_with_dropBZ_E0E0B4d_, symObjAddr: 0x6604, symBinAddr: 0x39730, symSize: 0x11C }
  - { offset: 0x6F4BA, size: 0x8, addend: 0x0, symName: __RNCINvNtNtNtCs9f3LFPSIp77_4core4iter8adapters3map12map_try_foldTNtNtCsATtFUPiRFW_3syn8generics13CapturedParamNtNtB14_5token5CommaEBZ_INtNtNtCsdze8u8oDPro_5alloc3vec13in_place_drop11InPlaceDropBZ_EINtNtBa_6result6ResultB27_zENCINvNtB14_10punctuated4foldB10_B1J_NtNvCs7oyfuZDlTKn_11yoke_derive16replace_lifetime15ReplaceLifetimeNvYB4a_NtNtNtB14_3gen4fold4Fold19fold_captured_paramE0NCINvNtB2c_16in_place_collect24write_in_place_with_dropBZ_E0E0B4e_, symObjAddr: 0x6720, symBinAddr: 0x3984C, symSize: 0x118 }
  - { offset: 0x6F54D, size: 0x8, addend: 0x0, symName: __RNCINvNtNtNtCs9f3LFPSIp77_4core4iter8adapters3map12map_try_foldTNtNtCsATtFUPiRFW_3syn8generics14TypeParamBoundNtNtB14_5token4PlusEBZ_INtNtNtCsdze8u8oDPro_5alloc3vec13in_place_drop11InPlaceDropBZ_EINtNtBa_6result6ResultB27_zENCINvNtB14_10punctuated4foldB10_B1K_NtNvCs7oyfuZDlTKn_11yoke_derive16replace_lifetime15ReplaceLifetimeNvYB4a_NtNtNtB14_3gen4fold4Fold21fold_type_param_boundE0NCINvNtB2c_16in_place_collect24write_in_place_with_dropBZ_E0E0B4e_, symObjAddr: 0x6838, symBinAddr: 0x39964, symSize: 0x118 }
  - { offset: 0x6F5E0, size: 0x8, addend: 0x0, symName: __RNCINvNtNtNtCs9f3LFPSIp77_4core4iter8adapters3map12map_try_foldTNtNtCsATtFUPiRFW_3syn8generics14WherePredicateNtNtB14_5token5CommaEBZ_INtNtNtCsdze8u8oDPro_5alloc3vec13in_place_drop11InPlaceDropBZ_EINtNtBa_6result6ResultB28_zENCINvNtB14_10punctuated4foldB10_B1K_NtNvCs7oyfuZDlTKn_11yoke_derive16replace_lifetime15ReplaceLifetimeNvYB4b_NtNtNtB14_3gen4fold4Fold20fold_where_predicateE0NCINvNtB2d_16in_place_collect24write_in_place_with_dropBZ_E0E0B4f_, symObjAddr: 0x6950, symBinAddr: 0x39A7C, symSize: 0x11C }
  - { offset: 0x6F673, size: 0x8, addend: 0x0, symName: __RNCINvNtNtNtCs9f3LFPSIp77_4core4iter8adapters3map12map_try_foldTNtNtCsATtFUPiRFW_3syn8lifetime8LifetimeNtNtB14_5token4PlusEBZ_INtNtNtCsdze8u8oDPro_5alloc3vec13in_place_drop11InPlaceDropBZ_EINtNtBa_6result6ResultB20_zENCINvNtB14_10punctuated4foldB10_B1D_NtNvCs7oyfuZDlTKn_11yoke_derive16replace_lifetime15ReplaceLifetimeNvYB43_NtNtNtB14_3gen4fold4Fold13fold_lifetimeE0NCINvNtB25_16in_place_collect24write_in_place_with_dropBZ_E0E0B47_, symObjAddr: 0x6A6C, symBinAddr: 0x39B98, symSize: 0x118 }
  - { offset: 0x6F70C, size: 0x8, addend: 0x0, symName: __RNvXs9_NtNtNtCs9f3LFPSIp77_4core4iter8adapters3mapINtB5_3MapINtNtNtCsdze8u8oDPro_5alloc3vec9into_iter8IntoIterNtNtCsATtFUPiRFW_3syn4attr9AttributeENCINvNtNtB1O_3gen4fold8fold_vecB1K_NtNvCs7oyfuZDlTKn_11yoke_derive16replace_lifetime15ReplaceLifetimeNvYB2U_NtB2q_4Fold14fold_attributeE0ENtB7_10SourceIter8as_innerB2Y_, symObjAddr: 0x84F0, symBinAddr: 0x3B61C, symSize: 0x24 }
  - { offset: 0x6F74A, size: 0x8, addend: 0x0, symName: __RNvXs9_NtNtNtCs9f3LFPSIp77_4core4iter8adapters3mapINtB5_3MapINtNtNtCsdze8u8oDPro_5alloc3vec9into_iter8IntoIterNtNtCsATtFUPiRFW_3syn4expr3ArmENCINvNtNtB1O_3gen4fold8fold_vecB1K_NtNvCs7oyfuZDlTKn_11yoke_derive16replace_lifetime15ReplaceLifetimeNvYB2O_NtB2k_4Fold8fold_armE0ENtB7_10SourceIter8as_innerB2S_, symObjAddr: 0x8514, symBinAddr: 0x3B640, symSize: 0x24 }
  - { offset: 0x6F788, size: 0x8, addend: 0x0, symName: __RNvXs9_NtNtNtCs9f3LFPSIp77_4core4iter8adapters3mapINtB5_3MapINtNtNtCsdze8u8oDPro_5alloc3vec9into_iter8IntoIterNtNtCsATtFUPiRFW_3syn4item11ForeignItemENCINvNtNtB1O_3gen4fold8fold_vecB1K_NtNvCs7oyfuZDlTKn_11yoke_derive16replace_lifetime15ReplaceLifetimeNvYB2X_NtB2t_4Fold17fold_foreign_itemE0ENtB7_10SourceIter8as_innerB31_, symObjAddr: 0x8538, symBinAddr: 0x3B664, symSize: 0x24 }
  - { offset: 0x6F7C6, size: 0x8, addend: 0x0, symName: __RNvXs9_NtNtNtCs9f3LFPSIp77_4core4iter8adapters3mapINtB5_3MapINtNtNtCsdze8u8oDPro_5alloc3vec9into_iter8IntoIterNtNtCsATtFUPiRFW_3syn4item4ItemENCINvNtNtB1O_3gen4fold8fold_vecB1K_NtNvCs7oyfuZDlTKn_11yoke_derive16replace_lifetime15ReplaceLifetimeNvYB2P_NtB2l_4Fold9fold_itemE0ENtB7_10SourceIter8as_innerB2T_, symObjAddr: 0x855C, symBinAddr: 0x3B688, symSize: 0x24 }
  - { offset: 0x6F804, size: 0x8, addend: 0x0, symName: __RNvXs9_NtNtNtCs9f3LFPSIp77_4core4iter8adapters3mapINtB5_3MapINtNtNtCsdze8u8oDPro_5alloc3vec9into_iter8IntoIterNtNtCsATtFUPiRFW_3syn4item8ImplItemENCINvNtNtB1O_3gen4fold8fold_vecB1K_NtNvCs7oyfuZDlTKn_11yoke_derive16replace_lifetime15ReplaceLifetimeNvYB2T_NtB2p_4Fold14fold_impl_itemE0ENtB7_10SourceIter8as_innerB2X_, symObjAddr: 0x8580, symBinAddr: 0x3B6AC, symSize: 0x24 }
  - { offset: 0x6F842, size: 0x8, addend: 0x0, symName: __RNvXs9_NtNtNtCs9f3LFPSIp77_4core4iter8adapters3mapINtB5_3MapINtNtNtCsdze8u8oDPro_5alloc3vec9into_iter8IntoIterNtNtCsATtFUPiRFW_3syn4item9TraitItemENCINvNtNtB1O_3gen4fold8fold_vecB1K_NtNvCs7oyfuZDlTKn_11yoke_derive16replace_lifetime15ReplaceLifetimeNvYB2U_NtB2q_4Fold15fold_trait_itemE0ENtB7_10SourceIter8as_innerB2Y_, symObjAddr: 0x85A4, symBinAddr: 0x3B6D0, symSize: 0x24 }
  - { offset: 0x6F880, size: 0x8, addend: 0x0, symName: __RNvXs9_NtNtNtCs9f3LFPSIp77_4core4iter8adapters3mapINtB5_3MapINtNtNtCsdze8u8oDPro_5alloc3vec9into_iter8IntoIterNtNtCsATtFUPiRFW_3syn4stmt4StmtENCINvNtNtB1O_3gen4fold8fold_vecB1K_NtNvCs7oyfuZDlTKn_11yoke_derive16replace_lifetime15ReplaceLifetimeNvYB2P_NtB2l_4Fold9fold_stmtE0ENtB7_10SourceIter8as_innerB2T_, symObjAddr: 0x85C8, symBinAddr: 0x3B6F4, symSize: 0x24 }
  - { offset: 0x6F8BE, size: 0x8, addend: 0x0, symName: __RNvXs9_NtNtNtCs9f3LFPSIp77_4core4iter8adapters3mapINtB5_3MapINtNtNtCsdze8u8oDPro_5alloc3vec9into_iter8IntoIterTNtNtCsATtFUPiRFW_3syn2ty4TypeNtNtB1P_5token5CommaEENCINvNtB1P_10punctuated4foldB1L_B2e_NtNvCs7oyfuZDlTKn_11yoke_derive16replace_lifetime15ReplaceLifetimeNvYB3a_NtNtNtB1P_3gen4fold4Fold9fold_typeE0ENtB7_10SourceIter8as_innerB3e_, symObjAddr: 0x85EC, symBinAddr: 0x3B718, symSize: 0x24 }
  - { offset: 0x6F8FC, size: 0x8, addend: 0x0, symName: __RNvXs9_NtNtNtCs9f3LFPSIp77_4core4iter8adapters3mapINtB5_3MapINtNtNtCsdze8u8oDPro_5alloc3vec9into_iter8IntoIterTNtNtCsATtFUPiRFW_3syn2ty9BareFnArgNtNtB1P_5token5CommaEENCINvNtB1P_10punctuated4foldB1L_B2j_NtNvCs7oyfuZDlTKn_11yoke_derive16replace_lifetime15ReplaceLifetimeNvYB3f_NtNtNtB1P_3gen4fold4Fold16fold_bare_fn_argE0ENtB7_10SourceIter8as_innerB3j_, symObjAddr: 0x8610, symBinAddr: 0x3B73C, symSize: 0x24 }
  - { offset: 0x6F93A, size: 0x8, addend: 0x0, symName: __RNvXs9_NtNtNtCs9f3LFPSIp77_4core4iter8adapters3mapINtB5_3MapINtNtNtCsdze8u8oDPro_5alloc3vec9into_iter8IntoIterTNtNtCsATtFUPiRFW_3syn3pat3PatNtNtB1P_5token2OrEENCINvNtB1P_10punctuated4foldB1L_B2e_NtNvCs7oyfuZDlTKn_11yoke_derive16replace_lifetime15ReplaceLifetimeNvYB37_NtNtNtB1P_3gen4fold4Fold8fold_patE0ENtB7_10SourceIter8as_innerB3b_, symObjAddr: 0x8634, symBinAddr: 0x3B760, symSize: 0x24 }
  - { offset: 0x6F978, size: 0x8, addend: 0x0, symName: __RNvXs9_NtNtNtCs9f3LFPSIp77_4core4iter8adapters3mapINtB5_3MapINtNtNtCsdze8u8oDPro_5alloc3vec9into_iter8IntoIterTNtNtCsATtFUPiRFW_3syn3pat3PatNtNtB1P_5token5CommaEENCINvNtB1P_10punctuated4foldB1L_B2e_NtNvCs7oyfuZDlTKn_11yoke_derive16replace_lifetime15ReplaceLifetimeNvYB3a_NtNtNtB1P_3gen4fold4Fold8fold_patE0ENtB7_10SourceIter8as_innerB3e_, symObjAddr: 0x8658, symBinAddr: 0x3B784, symSize: 0x24 }
  - { offset: 0x6F9B6, size: 0x8, addend: 0x0, symName: __RNvXs9_NtNtNtCs9f3LFPSIp77_4core4iter8adapters3mapINtB5_3MapINtNtNtCsdze8u8oDPro_5alloc3vec9into_iter8IntoIterTNtNtCsATtFUPiRFW_3syn3pat8FieldPatNtNtB1P_5token5CommaEENCINvNtB1P_10punctuated4foldB1L_B2j_NtNvCs7oyfuZDlTKn_11yoke_derive16replace_lifetime15ReplaceLifetimeNvYB3f_NtNtNtB1P_3gen4fold4Fold14fold_field_patE0ENtB7_10SourceIter8as_innerB3j_, symObjAddr: 0x867C, symBinAddr: 0x3B7A8, symSize: 0x24 }
  - { offset: 0x6F9F4, size: 0x8, addend: 0x0, symName: __RNvXs9_NtNtNtCs9f3LFPSIp77_4core4iter8adapters3mapINtB5_3MapINtNtNtCsdze8u8oDPro_5alloc3vec9into_iter8IntoIterTNtNtCsATtFUPiRFW_3syn4data5FieldNtNtB1P_5token5CommaEENCINvNtB1P_10punctuated4foldB1L_B2h_NtNvCs7oyfuZDlTKn_11yoke_derive16replace_lifetime15ReplaceLifetimeNvYB3d_NtNtNtB1P_3gen4fold4Fold10fold_fieldE0ENtB7_10SourceIter8as_innerB3h_, symObjAddr: 0x86A0, symBinAddr: 0x3B7CC, symSize: 0x24 }
  - { offset: 0x6FA32, size: 0x8, addend: 0x0, symName: __RNvXs9_NtNtNtCs9f3LFPSIp77_4core4iter8adapters3mapINtB5_3MapINtNtNtCsdze8u8oDPro_5alloc3vec9into_iter8IntoIterTNtNtCsATtFUPiRFW_3syn4data7VariantNtNtB1P_5token5CommaEENCINvNtB1P_10punctuated4foldB1L_B2j_NtNvCs7oyfuZDlTKn_11yoke_derive16replace_lifetime15ReplaceLifetimeNvYB3f_NtNtNtB1P_3gen4fold4Fold12fold_variantE0ENtB7_10SourceIter8as_innerB3j_, symObjAddr: 0x86C4, symBinAddr: 0x3B7F0, symSize: 0x24 }
  - { offset: 0x6FA70, size: 0x8, addend: 0x0, symName: __RNvXs9_NtNtNtCs9f3LFPSIp77_4core4iter8adapters3mapINtB5_3MapINtNtNtCsdze8u8oDPro_5alloc3vec9into_iter8IntoIterTNtNtCsATtFUPiRFW_3syn4expr10FieldValueNtNtB1P_5token5CommaEENCINvNtB1P_10punctuated4foldB1L_B2n_NtNvCs7oyfuZDlTKn_11yoke_derive16replace_lifetime15ReplaceLifetimeNvYB3j_NtNtNtB1P_3gen4fold4Fold16fold_field_valueE0ENtB7_10SourceIter8as_innerB3n_, symObjAddr: 0x86E8, symBinAddr: 0x3B814, symSize: 0x24 }
  - { offset: 0x6FAAE, size: 0x8, addend: 0x0, symName: __RNvXs9_NtNtNtCs9f3LFPSIp77_4core4iter8adapters3mapINtB5_3MapINtNtNtCsdze8u8oDPro_5alloc3vec9into_iter8IntoIterTNtNtCsATtFUPiRFW_3syn4expr4ExprNtNtB1P_5token5CommaEENCINvNtB1P_10punctuated4foldB1L_B2g_NtNvCs7oyfuZDlTKn_11yoke_derive16replace_lifetime15ReplaceLifetimeNvYB3c_NtNtNtB1P_3gen4fold4Fold9fold_exprE0ENtB7_10SourceIter8as_innerB3g_, symObjAddr: 0x870C, symBinAddr: 0x3B838, symSize: 0x24 }
  - { offset: 0x6FAEC, size: 0x8, addend: 0x0, symName: __RNvXs9_NtNtNtCs9f3LFPSIp77_4core4iter8adapters3mapINtB5_3MapINtNtNtCsdze8u8oDPro_5alloc3vec9into_iter8IntoIterTNtNtCsATtFUPiRFW_3syn4item5FnArgNtNtB1P_5token5CommaEENCINvNtB1P_10punctuated4foldB1L_B2h_NtNvCs7oyfuZDlTKn_11yoke_derive16replace_lifetime15ReplaceLifetimeNvYB3d_NtNtNtB1P_3gen4fold4Fold11fold_fn_argE0ENtB7_10SourceIter8as_innerB3h_, symObjAddr: 0x8730, symBinAddr: 0x3B85C, symSize: 0x24 }
  - { offset: 0x6FB2A, size: 0x8, addend: 0x0, symName: __RNvXs9_NtNtNtCs9f3LFPSIp77_4core4iter8adapters3mapINtB5_3MapINtNtNtCsdze8u8oDPro_5alloc3vec9into_iter8IntoIterTNtNtCsATtFUPiRFW_3syn4item7UseTreeNtNtB1P_5token5CommaEENCINvNtB1P_10punctuated4foldB1L_B2j_NtNvCs7oyfuZDlTKn_11yoke_derive16replace_lifetime15ReplaceLifetimeNvYB3f_NtNtNtB1P_3gen4fold4Fold13fold_use_treeE0ENtB7_10SourceIter8as_innerB3j_, symObjAddr: 0x8754, symBinAddr: 0x3B880, symSize: 0x24 }
  - { offset: 0x6FB68, size: 0x8, addend: 0x0, symName: __RNvXs9_NtNtNtCs9f3LFPSIp77_4core4iter8adapters3mapINtB5_3MapINtNtNtCsdze8u8oDPro_5alloc3vec9into_iter8IntoIterTNtNtCsATtFUPiRFW_3syn4path11PathSegmentNtNtB1P_5token7PathSepEENCINvNtB1P_10punctuated4foldB1L_B2o_NtNvCs7oyfuZDlTKn_11yoke_derive16replace_lifetime15ReplaceLifetimeNvYB3m_NtNtNtB1P_3gen4fold4Fold17fold_path_segmentE0ENtB7_10SourceIter8as_innerB3q_, symObjAddr: 0x8778, symBinAddr: 0x3B8A4, symSize: 0x24 }
  - { offset: 0x6FBA6, size: 0x8, addend: 0x0, symName: __RNvXs9_NtNtNtCs9f3LFPSIp77_4core4iter8adapters3mapINtB5_3MapINtNtNtCsdze8u8oDPro_5alloc3vec9into_iter8IntoIterTNtNtCsATtFUPiRFW_3syn4path15GenericArgumentNtNtB1P_5token5CommaEENCINvNtB1P_10punctuated4foldB1L_B2s_NtNvCs7oyfuZDlTKn_11yoke_derive16replace_lifetime15ReplaceLifetimeNvYB3o_NtNtNtB1P_3gen4fold4Fold21fold_generic_argumentE0ENtB7_10SourceIter8as_innerB3s_, symObjAddr: 0x879C, symBinAddr: 0x3B8C8, symSize: 0x24 }
  - { offset: 0x6FBE4, size: 0x8, addend: 0x0, symName: __RNvXs9_NtNtNtCs9f3LFPSIp77_4core4iter8adapters3mapINtB5_3MapINtNtNtCsdze8u8oDPro_5alloc3vec9into_iter8IntoIterTNtNtCsATtFUPiRFW_3syn8generics12GenericParamNtNtB1P_5token5CommaEENCINvNtB1P_10punctuated4foldB1L_B2t_NtNvCs7oyfuZDlTKn_11yoke_derive16replace_lifetime15ReplaceLifetimeNvYB3p_NtNtNtB1P_3gen4fold4Fold18fold_generic_paramE0ENtB7_10SourceIter8as_innerB3t_, symObjAddr: 0x87C0, symBinAddr: 0x3B8EC, symSize: 0x24 }
  - { offset: 0x6FC22, size: 0x8, addend: 0x0, symName: __RNvXs9_NtNtNtCs9f3LFPSIp77_4core4iter8adapters3mapINtB5_3MapINtNtNtCsdze8u8oDPro_5alloc3vec9into_iter8IntoIterTNtNtCsATtFUPiRFW_3syn8generics13CapturedParamNtNtB1P_5token5CommaEENCINvNtB1P_10punctuated4foldB1L_B2u_NtNvCs7oyfuZDlTKn_11yoke_derive16replace_lifetime15ReplaceLifetimeNvYB3q_NtNtNtB1P_3gen4fold4Fold19fold_captured_paramE0ENtB7_10SourceIter8as_innerB3u_, symObjAddr: 0x87E4, symBinAddr: 0x3B910, symSize: 0x24 }
  - { offset: 0x6FC60, size: 0x8, addend: 0x0, symName: __RNvXs9_NtNtNtCs9f3LFPSIp77_4core4iter8adapters3mapINtB5_3MapINtNtNtCsdze8u8oDPro_5alloc3vec9into_iter8IntoIterTNtNtCsATtFUPiRFW_3syn8generics14TypeParamBoundNtNtB1P_5token4PlusEENCINvNtB1P_10punctuated4foldB1L_B2v_NtNvCs7oyfuZDlTKn_11yoke_derive16replace_lifetime15ReplaceLifetimeNvYB3q_NtNtNtB1P_3gen4fold4Fold21fold_type_param_boundE0ENtB7_10SourceIter8as_innerB3u_, symObjAddr: 0x8808, symBinAddr: 0x3B934, symSize: 0x24 }
  - { offset: 0x6FC9E, size: 0x8, addend: 0x0, symName: __RNvXs9_NtNtNtCs9f3LFPSIp77_4core4iter8adapters3mapINtB5_3MapINtNtNtCsdze8u8oDPro_5alloc3vec9into_iter8IntoIterTNtNtCsATtFUPiRFW_3syn8generics14WherePredicateNtNtB1P_5token5CommaEENCINvNtB1P_10punctuated4foldB1L_B2v_NtNvCs7oyfuZDlTKn_11yoke_derive16replace_lifetime15ReplaceLifetimeNvYB3r_NtNtNtB1P_3gen4fold4Fold20fold_where_predicateE0ENtB7_10SourceIter8as_innerB3v_, symObjAddr: 0x882C, symBinAddr: 0x3B958, symSize: 0x24 }
  - { offset: 0x6FCDC, size: 0x8, addend: 0x0, symName: __RNvXs9_NtNtNtCs9f3LFPSIp77_4core4iter8adapters3mapINtB5_3MapINtNtNtCsdze8u8oDPro_5alloc3vec9into_iter8IntoIterTNtNtCsATtFUPiRFW_3syn8lifetime8LifetimeNtNtB1P_5token4PlusEENCINvNtB1P_10punctuated4foldB1L_B2o_NtNvCs7oyfuZDlTKn_11yoke_derive16replace_lifetime15ReplaceLifetimeNvYB3j_NtNtNtB1P_3gen4fold4Fold13fold_lifetimeE0ENtB7_10SourceIter8as_innerB3n_, symObjAddr: 0x8850, symBinAddr: 0x3B97C, symSize: 0x24 }
  - { offset: 0x70432, size: 0x8, addend: 0x0, symName: __RINvYINtNtNtNtCs9f3LFPSIp77_4core4iter8adapters3map3MapINtNtB8_6cloned6ClonedINtNtNtBc_5slice4iter4IterNtCs475r2uZUTuc_11proc_macro25IdentEENCINvXs8_NtCscXJUXcj6jCz_9hashbrown3setINtB2n_7HashSetB1D_NtNtNtCs27l1GJC5rMQ_3std4hash6random11RandomStateEINtNtNtBa_6traits7collect6ExtendB1D_E6extendBR_E0ENtNtB43_8iterator8Iterator8for_eachNCINvXs1i_NtB2p_3mapINtB5v_7HashMapB1D_uB3a_EIB3Z_TB1D_uEE6extendB3_E0ECs7oyfuZDlTKn_11yoke_derive, symObjAddr: 0x3BF0, symBinAddr: 0x36D1C, symSize: 0x34 }
  - { offset: 0x7047D, size: 0x8, addend: 0x0, symName: __RINvYINtNtNtNtCs9f3LFPSIp77_4core4iter8adapters3map3MapINtNtNtBc_5slice4iter4IterNtCs475r2uZUTuc_11proc_macro25IdentENCNvCs7oyfuZDlTKn_11yoke_derive20yokeable_derive_impls0_0ENtNtNtBa_6traits8iterator8Iterator7collectINtNtCsdze8u8oDPro_5alloc3vec3VecNtNtCsATtFUPiRFW_3syn8generics14WherePredicateEEB1V_, symObjAddr: 0x3C24, symBinAddr: 0x36D50, symSize: 0x2C }
  - { offset: 0x704BD, size: 0x8, addend: 0x0, symName: __RINvYINtNtNtNtCs9f3LFPSIp77_4core4iter8adapters3map3MapINtNtNtBc_5slice4iter4IterNtCs475r2uZUTuc_11proc_macro25IdentENCNvCs7oyfuZDlTKn_11yoke_derive20yokeable_derive_impls0_0ENtNtNtBa_6traits8iterator8Iterator8for_eachNCINvMsi_NtCsdze8u8oDPro_5alloc3vecINtB3D_3VecNtNtCsATtFUPiRFW_3syn8generics14WherePredicateE14extend_trustedB3_E0EB1V_, symObjAddr: 0x3C50, symBinAddr: 0x36D7C, symSize: 0x44 }
  - { offset: 0x70528, size: 0x8, addend: 0x0, symName: __RINvYINtNtNtNtCs9f3LFPSIp77_4core4iter8adapters3map3MapINtNtNtBc_5slice4iter4IterNtCs475r2uZUTuc_11proc_macro25IdentENCNvCs7oyfuZDlTKn_11yoke_derive20yokeable_derive_impls2_0ENtNtNtBa_6traits8iterator8Iterator7collectINtNtCsdze8u8oDPro_5alloc3vec3VecNtNtCsATtFUPiRFW_3syn8generics14WherePredicateEEB1V_, symObjAddr: 0x3C94, symBinAddr: 0x36DC0, symSize: 0x2C }
  - { offset: 0x70568, size: 0x8, addend: 0x0, symName: __RINvYINtNtNtNtCs9f3LFPSIp77_4core4iter8adapters3map3MapINtNtNtBc_5slice4iter4IterNtCs475r2uZUTuc_11proc_macro25IdentENCNvCs7oyfuZDlTKn_11yoke_derive20yokeable_derive_impls2_0ENtNtNtBa_6traits8iterator8Iterator8for_eachNCINvMsi_NtCsdze8u8oDPro_5alloc3vecINtB3D_3VecNtNtCsATtFUPiRFW_3syn8generics14WherePredicateE14extend_trustedB3_E0EB1V_, symObjAddr: 0x3CC0, symBinAddr: 0x36DEC, symSize: 0x44 }
  - { offset: 0x705D3, size: 0x8, addend: 0x0, symName: __RINvYINtNtNtNtCs9f3LFPSIp77_4core4iter8adapters3map3MapINtNtNtBc_5slice4iter4IterNtNtCsATtFUPiRFW_3syn8generics9TypeParamENCNvCs7oyfuZDlTKn_11yoke_derive20yokeable_derive_impls_0ENtNtNtBa_6traits8iterator8Iterator7collectINtNtCsdze8u8oDPro_5alloc3vec3VecNtCs475r2uZUTuc_11proc_macro25IdentEEB20_, symObjAddr: 0x3D04, symBinAddr: 0x36E30, symSize: 0x2C }
  - { offset: 0x70613, size: 0x8, addend: 0x0, symName: __RINvYINtNtNtNtCs9f3LFPSIp77_4core4iter8adapters3map3MapINtNtNtBc_5slice4iter4IterNtNtCsATtFUPiRFW_3syn8generics9TypeParamENCNvCs7oyfuZDlTKn_11yoke_derive20yokeable_derive_impls_0ENtNtNtBa_6traits8iterator8Iterator8for_eachNCINvMsi_NtCsdze8u8oDPro_5alloc3vecINtB3H_3VecNtCs475r2uZUTuc_11proc_macro25IdentE14extend_trustedB3_E0EB20_, symObjAddr: 0x3D30, symBinAddr: 0x36E5C, symSize: 0x44 }
  - { offset: 0x7067E, size: 0x8, addend: 0x0, symName: __RINvYINtNtNtNtCs9f3LFPSIp77_4core4iter8adapters3map3MapINtNtNtCsdze8u8oDPro_5alloc3vec9into_iter8IntoIterNtNtCsATtFUPiRFW_3syn4attr9AttributeENCINvNtNtB1J_3gen4fold8fold_vecB1F_NtNvCs7oyfuZDlTKn_11yoke_derive16replace_lifetime15ReplaceLifetimeNvYB2P_NtB2l_4Fold14fold_attributeE0ENtNtNtBa_6traits8iterator8Iterator7collectINtBW_3VecB1F_EEB2T_, symObjAddr: 0x3D74, symBinAddr: 0x36EA0, symSize: 0x14 }
  - { offset: 0x706BF, size: 0x8, addend: 0x0, symName: __RINvYINtNtNtNtCs9f3LFPSIp77_4core4iter8adapters3map3MapINtNtNtCsdze8u8oDPro_5alloc3vec9into_iter8IntoIterNtNtCsATtFUPiRFW_3syn4expr3ArmENCINvNtNtB1J_3gen4fold8fold_vecB1F_NtNvCs7oyfuZDlTKn_11yoke_derive16replace_lifetime15ReplaceLifetimeNvYB2J_NtB2f_4Fold8fold_armE0ENtNtNtBa_6traits8iterator8Iterator7collectINtBW_3VecB1F_EEB2N_, symObjAddr: 0x3D88, symBinAddr: 0x36EB4, symSize: 0x14 }
  - { offset: 0x70700, size: 0x8, addend: 0x0, symName: __RINvYINtNtNtNtCs9f3LFPSIp77_4core4iter8adapters3map3MapINtNtNtCsdze8u8oDPro_5alloc3vec9into_iter8IntoIterNtNtCsATtFUPiRFW_3syn4item11ForeignItemENCINvNtNtB1J_3gen4fold8fold_vecB1F_NtNvCs7oyfuZDlTKn_11yoke_derive16replace_lifetime15ReplaceLifetimeNvYB2S_NtB2o_4Fold17fold_foreign_itemE0ENtNtNtBa_6traits8iterator8Iterator7collectINtBW_3VecB1F_EEB2W_, symObjAddr: 0x3D9C, symBinAddr: 0x36EC8, symSize: 0x14 }
  - { offset: 0x70741, size: 0x8, addend: 0x0, symName: __RINvYINtNtNtNtCs9f3LFPSIp77_4core4iter8adapters3map3MapINtNtNtCsdze8u8oDPro_5alloc3vec9into_iter8IntoIterNtNtCsATtFUPiRFW_3syn4item4ItemENCINvNtNtB1J_3gen4fold8fold_vecB1F_NtNvCs7oyfuZDlTKn_11yoke_derive16replace_lifetime15ReplaceLifetimeNvYB2K_NtB2g_4Fold9fold_itemE0ENtNtNtBa_6traits8iterator8Iterator7collectINtBW_3VecB1F_EEB2O_, symObjAddr: 0x3DB0, symBinAddr: 0x36EDC, symSize: 0x14 }
  - { offset: 0x70782, size: 0x8, addend: 0x0, symName: __RINvYINtNtNtNtCs9f3LFPSIp77_4core4iter8adapters3map3MapINtNtNtCsdze8u8oDPro_5alloc3vec9into_iter8IntoIterNtNtCsATtFUPiRFW_3syn4item8ImplItemENCINvNtNtB1J_3gen4fold8fold_vecB1F_NtNvCs7oyfuZDlTKn_11yoke_derive16replace_lifetime15ReplaceLifetimeNvYB2O_NtB2k_4Fold14fold_impl_itemE0ENtNtNtBa_6traits8iterator8Iterator7collectINtBW_3VecB1F_EEB2S_, symObjAddr: 0x3DC4, symBinAddr: 0x36EF0, symSize: 0x14 }
  - { offset: 0x707C3, size: 0x8, addend: 0x0, symName: __RINvYINtNtNtNtCs9f3LFPSIp77_4core4iter8adapters3map3MapINtNtNtCsdze8u8oDPro_5alloc3vec9into_iter8IntoIterNtNtCsATtFUPiRFW_3syn4item9TraitItemENCINvNtNtB1J_3gen4fold8fold_vecB1F_NtNvCs7oyfuZDlTKn_11yoke_derive16replace_lifetime15ReplaceLifetimeNvYB2P_NtB2l_4Fold15fold_trait_itemE0ENtNtNtBa_6traits8iterator8Iterator7collectINtBW_3VecB1F_EEB2T_, symObjAddr: 0x3DD8, symBinAddr: 0x36F04, symSize: 0x14 }
  - { offset: 0x70804, size: 0x8, addend: 0x0, symName: __RINvYINtNtNtNtCs9f3LFPSIp77_4core4iter8adapters3map3MapINtNtNtCsdze8u8oDPro_5alloc3vec9into_iter8IntoIterNtNtCsATtFUPiRFW_3syn4stmt4StmtENCINvNtNtB1J_3gen4fold8fold_vecB1F_NtNvCs7oyfuZDlTKn_11yoke_derive16replace_lifetime15ReplaceLifetimeNvYB2K_NtB2g_4Fold9fold_stmtE0ENtNtNtBa_6traits8iterator8Iterator7collectINtBW_3VecB1F_EEB2O_, symObjAddr: 0x3DEC, symBinAddr: 0x36F18, symSize: 0x14 }
  - { offset: 0x70845, size: 0x8, addend: 0x0, symName: __RINvYINtNtNtNtCs9f3LFPSIp77_4core4iter8adapters3map3MapINtNtNtCsdze8u8oDPro_5alloc3vec9into_iter8IntoIterTNtNtCsATtFUPiRFW_3syn2ty4TypeNtNtB1K_5token5CommaEENCINvNtB1K_10punctuated4foldB1G_B29_NtNvCs7oyfuZDlTKn_11yoke_derive16replace_lifetime15ReplaceLifetimeNvYB35_NtNtNtB1K_3gen4fold4Fold9fold_typeE0ENtNtNtBa_6traits8iterator8Iterator7collectINtBW_3VecB1F_EEB39_, symObjAddr: 0x3E00, symBinAddr: 0x36F2C, symSize: 0x14 }
  - { offset: 0x70886, size: 0x8, addend: 0x0, symName: __RINvYINtNtNtNtCs9f3LFPSIp77_4core4iter8adapters3map3MapINtNtNtCsdze8u8oDPro_5alloc3vec9into_iter8IntoIterTNtNtCsATtFUPiRFW_3syn2ty9BareFnArgNtNtB1K_5token5CommaEENCINvNtB1K_10punctuated4foldB1G_B2e_NtNvCs7oyfuZDlTKn_11yoke_derive16replace_lifetime15ReplaceLifetimeNvYB3a_NtNtNtB1K_3gen4fold4Fold16fold_bare_fn_argE0ENtNtNtBa_6traits8iterator8Iterator7collectINtBW_3VecB1F_EEB3e_, symObjAddr: 0x3E14, symBinAddr: 0x36F40, symSize: 0x14 }
  - { offset: 0x708C7, size: 0x8, addend: 0x0, symName: __RINvYINtNtNtNtCs9f3LFPSIp77_4core4iter8adapters3map3MapINtNtNtCsdze8u8oDPro_5alloc3vec9into_iter8IntoIterTNtNtCsATtFUPiRFW_3syn3pat3PatNtNtB1K_5token2OrEENCINvNtB1K_10punctuated4foldB1G_B29_NtNvCs7oyfuZDlTKn_11yoke_derive16replace_lifetime15ReplaceLifetimeNvYB32_NtNtNtB1K_3gen4fold4Fold8fold_patE0ENtNtNtBa_6traits8iterator8Iterator7collectINtBW_3VecB1F_EEB36_, symObjAddr: 0x3E28, symBinAddr: 0x36F54, symSize: 0x14 }
  - { offset: 0x70908, size: 0x8, addend: 0x0, symName: __RINvYINtNtNtNtCs9f3LFPSIp77_4core4iter8adapters3map3MapINtNtNtCsdze8u8oDPro_5alloc3vec9into_iter8IntoIterTNtNtCsATtFUPiRFW_3syn3pat3PatNtNtB1K_5token5CommaEENCINvNtB1K_10punctuated4foldB1G_B29_NtNvCs7oyfuZDlTKn_11yoke_derive16replace_lifetime15ReplaceLifetimeNvYB35_NtNtNtB1K_3gen4fold4Fold8fold_patE0ENtNtNtBa_6traits8iterator8Iterator7collectINtBW_3VecB1F_EEB39_, symObjAddr: 0x3E3C, symBinAddr: 0x36F68, symSize: 0x14 }
  - { offset: 0x70949, size: 0x8, addend: 0x0, symName: __RINvYINtNtNtNtCs9f3LFPSIp77_4core4iter8adapters3map3MapINtNtNtCsdze8u8oDPro_5alloc3vec9into_iter8IntoIterTNtNtCsATtFUPiRFW_3syn3pat8FieldPatNtNtB1K_5token5CommaEENCINvNtB1K_10punctuated4foldB1G_B2e_NtNvCs7oyfuZDlTKn_11yoke_derive16replace_lifetime15ReplaceLifetimeNvYB3a_NtNtNtB1K_3gen4fold4Fold14fold_field_patE0ENtNtNtBa_6traits8iterator8Iterator7collectINtBW_3VecB1F_EEB3e_, symObjAddr: 0x3E50, symBinAddr: 0x36F7C, symSize: 0x14 }
  - { offset: 0x7098A, size: 0x8, addend: 0x0, symName: __RINvYINtNtNtNtCs9f3LFPSIp77_4core4iter8adapters3map3MapINtNtNtCsdze8u8oDPro_5alloc3vec9into_iter8IntoIterTNtNtCsATtFUPiRFW_3syn4data5FieldNtNtB1K_5token5CommaEENCINvNtB1K_10punctuated4foldB1G_B2c_NtNvCs7oyfuZDlTKn_11yoke_derive16replace_lifetime15ReplaceLifetimeNvYB38_NtNtNtB1K_3gen4fold4Fold10fold_fieldE0ENtNtNtBa_6traits8iterator8Iterator7collectINtBW_3VecB1F_EEB3c_, symObjAddr: 0x3E64, symBinAddr: 0x36F90, symSize: 0x14 }
  - { offset: 0x709CB, size: 0x8, addend: 0x0, symName: __RINvYINtNtNtNtCs9f3LFPSIp77_4core4iter8adapters3map3MapINtNtNtCsdze8u8oDPro_5alloc3vec9into_iter8IntoIterTNtNtCsATtFUPiRFW_3syn4data7VariantNtNtB1K_5token5CommaEENCINvNtB1K_10punctuated4foldB1G_B2e_NtNvCs7oyfuZDlTKn_11yoke_derive16replace_lifetime15ReplaceLifetimeNvYB3a_NtNtNtB1K_3gen4fold4Fold12fold_variantE0ENtNtNtBa_6traits8iterator8Iterator7collectINtBW_3VecB1F_EEB3e_, symObjAddr: 0x3E78, symBinAddr: 0x36FA4, symSize: 0x14 }
  - { offset: 0x70A0C, size: 0x8, addend: 0x0, symName: __RINvYINtNtNtNtCs9f3LFPSIp77_4core4iter8adapters3map3MapINtNtNtCsdze8u8oDPro_5alloc3vec9into_iter8IntoIterTNtNtCsATtFUPiRFW_3syn4expr10FieldValueNtNtB1K_5token5CommaEENCINvNtB1K_10punctuated4foldB1G_B2i_NtNvCs7oyfuZDlTKn_11yoke_derive16replace_lifetime15ReplaceLifetimeNvYB3e_NtNtNtB1K_3gen4fold4Fold16fold_field_valueE0ENtNtNtBa_6traits8iterator8Iterator7collectINtBW_3VecB1F_EEB3i_, symObjAddr: 0x3E8C, symBinAddr: 0x36FB8, symSize: 0x14 }
  - { offset: 0x70A4D, size: 0x8, addend: 0x0, symName: __RINvYINtNtNtNtCs9f3LFPSIp77_4core4iter8adapters3map3MapINtNtNtCsdze8u8oDPro_5alloc3vec9into_iter8IntoIterTNtNtCsATtFUPiRFW_3syn4expr4ExprNtNtB1K_5token5CommaEENCINvNtB1K_10punctuated4foldB1G_B2b_NtNvCs7oyfuZDlTKn_11yoke_derive16replace_lifetime15ReplaceLifetimeNvYB37_NtNtNtB1K_3gen4fold4Fold9fold_exprE0ENtNtNtBa_6traits8iterator8Iterator7collectINtBW_3VecB1F_EEB3b_, symObjAddr: 0x3EA0, symBinAddr: 0x36FCC, symSize: 0x14 }
  - { offset: 0x70A8E, size: 0x8, addend: 0x0, symName: __RINvYINtNtNtNtCs9f3LFPSIp77_4core4iter8adapters3map3MapINtNtNtCsdze8u8oDPro_5alloc3vec9into_iter8IntoIterTNtNtCsATtFUPiRFW_3syn4item5FnArgNtNtB1K_5token5CommaEENCINvNtB1K_10punctuated4foldB1G_B2c_NtNvCs7oyfuZDlTKn_11yoke_derive16replace_lifetime15ReplaceLifetimeNvYB38_NtNtNtB1K_3gen4fold4Fold11fold_fn_argE0ENtNtNtBa_6traits8iterator8Iterator7collectINtBW_3VecB1F_EEB3c_, symObjAddr: 0x3EB4, symBinAddr: 0x36FE0, symSize: 0x14 }
  - { offset: 0x70ACF, size: 0x8, addend: 0x0, symName: __RINvYINtNtNtNtCs9f3LFPSIp77_4core4iter8adapters3map3MapINtNtNtCsdze8u8oDPro_5alloc3vec9into_iter8IntoIterTNtNtCsATtFUPiRFW_3syn4item7UseTreeNtNtB1K_5token5CommaEENCINvNtB1K_10punctuated4foldB1G_B2e_NtNvCs7oyfuZDlTKn_11yoke_derive16replace_lifetime15ReplaceLifetimeNvYB3a_NtNtNtB1K_3gen4fold4Fold13fold_use_treeE0ENtNtNtBa_6traits8iterator8Iterator7collectINtBW_3VecB1F_EEB3e_, symObjAddr: 0x3EC8, symBinAddr: 0x36FF4, symSize: 0x14 }
  - { offset: 0x70B10, size: 0x8, addend: 0x0, symName: __RINvYINtNtNtNtCs9f3LFPSIp77_4core4iter8adapters3map3MapINtNtNtCsdze8u8oDPro_5alloc3vec9into_iter8IntoIterTNtNtCsATtFUPiRFW_3syn4path11PathSegmentNtNtB1K_5token7PathSepEENCINvNtB1K_10punctuated4foldB1G_B2j_NtNvCs7oyfuZDlTKn_11yoke_derive16replace_lifetime15ReplaceLifetimeNvYB3h_NtNtNtB1K_3gen4fold4Fold17fold_path_segmentE0ENtNtNtBa_6traits8iterator8Iterator7collectINtBW_3VecB1F_EEB3l_, symObjAddr: 0x3EDC, symBinAddr: 0x37008, symSize: 0x14 }
  - { offset: 0x70B51, size: 0x8, addend: 0x0, symName: __RINvYINtNtNtNtCs9f3LFPSIp77_4core4iter8adapters3map3MapINtNtNtCsdze8u8oDPro_5alloc3vec9into_iter8IntoIterTNtNtCsATtFUPiRFW_3syn4path15GenericArgumentNtNtB1K_5token5CommaEENCINvNtB1K_10punctuated4foldB1G_B2n_NtNvCs7oyfuZDlTKn_11yoke_derive16replace_lifetime15ReplaceLifetimeNvYB3j_NtNtNtB1K_3gen4fold4Fold21fold_generic_argumentE0ENtNtNtBa_6traits8iterator8Iterator7collectINtBW_3VecB1F_EEB3n_, symObjAddr: 0x3EF0, symBinAddr: 0x3701C, symSize: 0x14 }
  - { offset: 0x70B92, size: 0x8, addend: 0x0, symName: __RINvYINtNtNtNtCs9f3LFPSIp77_4core4iter8adapters3map3MapINtNtNtCsdze8u8oDPro_5alloc3vec9into_iter8IntoIterTNtNtCsATtFUPiRFW_3syn8generics12GenericParamNtNtB1K_5token5CommaEENCINvNtB1K_10punctuated4foldB1G_B2o_NtNvCs7oyfuZDlTKn_11yoke_derive16replace_lifetime15ReplaceLifetimeNvYB3k_NtNtNtB1K_3gen4fold4Fold18fold_generic_paramE0ENtNtNtBa_6traits8iterator8Iterator7collectINtBW_3VecB1F_EEB3o_, symObjAddr: 0x3F04, symBinAddr: 0x37030, symSize: 0x14 }
  - { offset: 0x70BD3, size: 0x8, addend: 0x0, symName: __RINvYINtNtNtNtCs9f3LFPSIp77_4core4iter8adapters3map3MapINtNtNtCsdze8u8oDPro_5alloc3vec9into_iter8IntoIterTNtNtCsATtFUPiRFW_3syn8generics13CapturedParamNtNtB1K_5token5CommaEENCINvNtB1K_10punctuated4foldB1G_B2p_NtNvCs7oyfuZDlTKn_11yoke_derive16replace_lifetime15ReplaceLifetimeNvYB3l_NtNtNtB1K_3gen4fold4Fold19fold_captured_paramE0ENtNtNtBa_6traits8iterator8Iterator7collectINtBW_3VecB1F_EEB3p_, symObjAddr: 0x3F18, symBinAddr: 0x37044, symSize: 0x14 }
  - { offset: 0x70C14, size: 0x8, addend: 0x0, symName: __RINvYINtNtNtNtCs9f3LFPSIp77_4core4iter8adapters3map3MapINtNtNtCsdze8u8oDPro_5alloc3vec9into_iter8IntoIterTNtNtCsATtFUPiRFW_3syn8generics14TypeParamBoundNtNtB1K_5token4PlusEENCINvNtB1K_10punctuated4foldB1G_B2q_NtNvCs7oyfuZDlTKn_11yoke_derive16replace_lifetime15ReplaceLifetimeNvYB3l_NtNtNtB1K_3gen4fold4Fold21fold_type_param_boundE0ENtNtNtBa_6traits8iterator8Iterator7collectINtBW_3VecB1F_EEB3p_, symObjAddr: 0x3F2C, symBinAddr: 0x37058, symSize: 0x14 }
  - { offset: 0x70C55, size: 0x8, addend: 0x0, symName: __RINvYINtNtNtNtCs9f3LFPSIp77_4core4iter8adapters3map3MapINtNtNtCsdze8u8oDPro_5alloc3vec9into_iter8IntoIterTNtNtCsATtFUPiRFW_3syn8generics14WherePredicateNtNtB1K_5token5CommaEENCINvNtB1K_10punctuated4foldB1G_B2q_NtNvCs7oyfuZDlTKn_11yoke_derive16replace_lifetime15ReplaceLifetimeNvYB3m_NtNtNtB1K_3gen4fold4Fold20fold_where_predicateE0ENtNtNtBa_6traits8iterator8Iterator7collectINtBW_3VecB1F_EEB3q_, symObjAddr: 0x3F40, symBinAddr: 0x3706C, symSize: 0x14 }
  - { offset: 0x70C96, size: 0x8, addend: 0x0, symName: __RINvYINtNtNtNtCs9f3LFPSIp77_4core4iter8adapters3map3MapINtNtNtCsdze8u8oDPro_5alloc3vec9into_iter8IntoIterTNtNtCsATtFUPiRFW_3syn8lifetime8LifetimeNtNtB1K_5token4PlusEENCINvNtB1K_10punctuated4foldB1G_B2j_NtNvCs7oyfuZDlTKn_11yoke_derive16replace_lifetime15ReplaceLifetimeNvYB3e_NtNtNtB1K_3gen4fold4Fold13fold_lifetimeE0ENtNtNtBa_6traits8iterator8Iterator7collectINtBW_3VecB1F_EEB3i_, symObjAddr: 0x3F54, symBinAddr: 0x37080, symSize: 0x14 }
  - { offset: 0x70CD7, size: 0x8, addend: 0x0, symName: __RINvYINtNtNtNtCs9f3LFPSIp77_4core4iter8adapters3map3MapNtNtCsATtFUPiRFW_3syn8generics10TypeParamsNCNvCs7oyfuZDlTKn_11yoke_derive20yokeable_derive_impl0ENtNtNtBa_6traits8iterator8Iterator7collectINtNtCsdze8u8oDPro_5alloc3vec3VecNtBT_9TypeParamEEB1B_, symObjAddr: 0x3F68, symBinAddr: 0x37094, symSize: 0x2C }
  - { offset: 0x70D23, size: 0x8, addend: 0x0, symName: __RNvXs_NtNtNtCs9f3LFPSIp77_4core4iter6traits7collectINtNtNtB8_8adapters3map3MapINtNtBS_6cloned6ClonedINtNtNtBa_5slice4iter4IterNtCs475r2uZUTuc_11proc_macro25IdentEENCINvXs8_NtCscXJUXcj6jCz_9hashbrown3setINtB2K_7HashSetB20_NtNtNtCs27l1GJC5rMQ_3std4hash6random11RandomStateEINtB4_6ExtendB20_E6extendB1e_E0ENtB4_12IntoIterator9into_iterCs7oyfuZDlTKn_11yoke_derive, symObjAddr: 0x8998, symBinAddr: 0x3BAC4, symSize: 0x1C }
  - { offset: 0x70D5A, size: 0x8, addend: 0x0, symName: __RNvXs_NtNtNtCs9f3LFPSIp77_4core4iter6traits7collectINtNtNtB8_8adapters3map3MapINtNtNtBa_5slice4iter4IterNtCs475r2uZUTuc_11proc_macro25IdentENCNvCs7oyfuZDlTKn_11yoke_derive20yokeable_derive_impls0_0ENtB4_12IntoIterator9into_iterB2i_, symObjAddr: 0x89B4, symBinAddr: 0x3BAE0, symSize: 0x1C }
  - { offset: 0x70D91, size: 0x8, addend: 0x0, symName: __RNvXs_NtNtNtCs9f3LFPSIp77_4core4iter6traits7collectINtNtNtB8_8adapters3map3MapINtNtNtBa_5slice4iter4IterNtCs475r2uZUTuc_11proc_macro25IdentENCNvCs7oyfuZDlTKn_11yoke_derive20yokeable_derive_impls2_0ENtB4_12IntoIterator9into_iterB2i_, symObjAddr: 0x89D0, symBinAddr: 0x3BAFC, symSize: 0x1C }
  - { offset: 0x70DC8, size: 0x8, addend: 0x0, symName: __RNvXs_NtNtNtCs9f3LFPSIp77_4core4iter6traits7collectINtNtNtB8_8adapters3map3MapINtNtNtBa_5slice4iter4IterNtNtCsATtFUPiRFW_3syn8generics9TypeParamENCNvCs7oyfuZDlTKn_11yoke_derive20yokeable_derive_impls_0ENtB4_12IntoIterator9into_iterB2n_, symObjAddr: 0x89EC, symBinAddr: 0x3BB18, symSize: 0x1C }
  - { offset: 0x70DFF, size: 0x8, addend: 0x0, symName: __RNvXs_NtNtNtCs9f3LFPSIp77_4core4iter6traits7collectINtNtNtB8_8adapters3map3MapINtNtNtCsdze8u8oDPro_5alloc3vec9into_iter8IntoIterNtNtCsATtFUPiRFW_3syn4attr9AttributeENCINvNtNtB26_3gen4fold8fold_vecB22_NtNvCs7oyfuZDlTKn_11yoke_derive16replace_lifetime15ReplaceLifetimeNvYB3c_NtB2I_4Fold14fold_attributeE0ENtB4_12IntoIterator9into_iterB3g_, symObjAddr: 0x8A08, symBinAddr: 0x3BB34, symSize: 0x30 }
  - { offset: 0x70E37, size: 0x8, addend: 0x0, symName: __RNvXs_NtNtNtCs9f3LFPSIp77_4core4iter6traits7collectINtNtNtB8_8adapters3map3MapINtNtNtCsdze8u8oDPro_5alloc3vec9into_iter8IntoIterNtNtCsATtFUPiRFW_3syn4expr3ArmENCINvNtNtB26_3gen4fold8fold_vecB22_NtNvCs7oyfuZDlTKn_11yoke_derive16replace_lifetime15ReplaceLifetimeNvYB36_NtB2C_4Fold8fold_armE0ENtB4_12IntoIterator9into_iterB3a_, symObjAddr: 0x8A38, symBinAddr: 0x3BB64, symSize: 0x30 }
  - { offset: 0x70E6F, size: 0x8, addend: 0x0, symName: __RNvXs_NtNtNtCs9f3LFPSIp77_4core4iter6traits7collectINtNtNtB8_8adapters3map3MapINtNtNtCsdze8u8oDPro_5alloc3vec9into_iter8IntoIterNtNtCsATtFUPiRFW_3syn4item11ForeignItemENCINvNtNtB26_3gen4fold8fold_vecB22_NtNvCs7oyfuZDlTKn_11yoke_derive16replace_lifetime15ReplaceLifetimeNvYB3f_NtB2L_4Fold17fold_foreign_itemE0ENtB4_12IntoIterator9into_iterB3j_, symObjAddr: 0x8A68, symBinAddr: 0x3BB94, symSize: 0x30 }
  - { offset: 0x70EA7, size: 0x8, addend: 0x0, symName: __RNvXs_NtNtNtCs9f3LFPSIp77_4core4iter6traits7collectINtNtNtB8_8adapters3map3MapINtNtNtCsdze8u8oDPro_5alloc3vec9into_iter8IntoIterNtNtCsATtFUPiRFW_3syn4item4ItemENCINvNtNtB26_3gen4fold8fold_vecB22_NtNvCs7oyfuZDlTKn_11yoke_derive16replace_lifetime15ReplaceLifetimeNvYB37_NtB2D_4Fold9fold_itemE0ENtB4_12IntoIterator9into_iterB3b_, symObjAddr: 0x8A98, symBinAddr: 0x3BBC4, symSize: 0x30 }
  - { offset: 0x70EDF, size: 0x8, addend: 0x0, symName: __RNvXs_NtNtNtCs9f3LFPSIp77_4core4iter6traits7collectINtNtNtB8_8adapters3map3MapINtNtNtCsdze8u8oDPro_5alloc3vec9into_iter8IntoIterNtNtCsATtFUPiRFW_3syn4item8ImplItemENCINvNtNtB26_3gen4fold8fold_vecB22_NtNvCs7oyfuZDlTKn_11yoke_derive16replace_lifetime15ReplaceLifetimeNvYB3b_NtB2H_4Fold14fold_impl_itemE0ENtB4_12IntoIterator9into_iterB3f_, symObjAddr: 0x8AC8, symBinAddr: 0x3BBF4, symSize: 0x30 }
  - { offset: 0x70F17, size: 0x8, addend: 0x0, symName: __RNvXs_NtNtNtCs9f3LFPSIp77_4core4iter6traits7collectINtNtNtB8_8adapters3map3MapINtNtNtCsdze8u8oDPro_5alloc3vec9into_iter8IntoIterNtNtCsATtFUPiRFW_3syn4item9TraitItemENCINvNtNtB26_3gen4fold8fold_vecB22_NtNvCs7oyfuZDlTKn_11yoke_derive16replace_lifetime15ReplaceLifetimeNvYB3c_NtB2I_4Fold15fold_trait_itemE0ENtB4_12IntoIterator9into_iterB3g_, symObjAddr: 0x8AF8, symBinAddr: 0x3BC24, symSize: 0x30 }
  - { offset: 0x70F4F, size: 0x8, addend: 0x0, symName: __RNvXs_NtNtNtCs9f3LFPSIp77_4core4iter6traits7collectINtNtNtB8_8adapters3map3MapINtNtNtCsdze8u8oDPro_5alloc3vec9into_iter8IntoIterNtNtCsATtFUPiRFW_3syn4stmt4StmtENCINvNtNtB26_3gen4fold8fold_vecB22_NtNvCs7oyfuZDlTKn_11yoke_derive16replace_lifetime15ReplaceLifetimeNvYB37_NtB2D_4Fold9fold_stmtE0ENtB4_12IntoIterator9into_iterB3b_, symObjAddr: 0x8B28, symBinAddr: 0x3BC54, symSize: 0x30 }
  - { offset: 0x70F87, size: 0x8, addend: 0x0, symName: __RNvXs_NtNtNtCs9f3LFPSIp77_4core4iter6traits7collectINtNtNtB8_8adapters3map3MapINtNtNtCsdze8u8oDPro_5alloc3vec9into_iter8IntoIterTNtNtCsATtFUPiRFW_3syn2ty4TypeNtNtB27_5token5CommaEENCINvNtB27_10punctuated4foldB23_B2w_NtNvCs7oyfuZDlTKn_11yoke_derive16replace_lifetime15ReplaceLifetimeNvYB3s_NtNtNtB27_3gen4fold4Fold9fold_typeE0ENtB4_12IntoIterator9into_iterB3w_, symObjAddr: 0x8B58, symBinAddr: 0x3BC84, symSize: 0x30 }
  - { offset: 0x70FBF, size: 0x8, addend: 0x0, symName: __RNvXs_NtNtNtCs9f3LFPSIp77_4core4iter6traits7collectINtNtNtB8_8adapters3map3MapINtNtNtCsdze8u8oDPro_5alloc3vec9into_iter8IntoIterTNtNtCsATtFUPiRFW_3syn2ty9BareFnArgNtNtB27_5token5CommaEENCINvNtB27_10punctuated4foldB23_B2B_NtNvCs7oyfuZDlTKn_11yoke_derive16replace_lifetime15ReplaceLifetimeNvYB3x_NtNtNtB27_3gen4fold4Fold16fold_bare_fn_argE0ENtB4_12IntoIterator9into_iterB3B_, symObjAddr: 0x8B88, symBinAddr: 0x3BCB4, symSize: 0x30 }
  - { offset: 0x70FF7, size: 0x8, addend: 0x0, symName: __RNvXs_NtNtNtCs9f3LFPSIp77_4core4iter6traits7collectINtNtNtB8_8adapters3map3MapINtNtNtCsdze8u8oDPro_5alloc3vec9into_iter8IntoIterTNtNtCsATtFUPiRFW_3syn3pat3PatNtNtB27_5token2OrEENCINvNtB27_10punctuated4foldB23_B2w_NtNvCs7oyfuZDlTKn_11yoke_derive16replace_lifetime15ReplaceLifetimeNvYB3p_NtNtNtB27_3gen4fold4Fold8fold_patE0ENtB4_12IntoIterator9into_iterB3t_, symObjAddr: 0x8BB8, symBinAddr: 0x3BCE4, symSize: 0x30 }
  - { offset: 0x7102F, size: 0x8, addend: 0x0, symName: __RNvXs_NtNtNtCs9f3LFPSIp77_4core4iter6traits7collectINtNtNtB8_8adapters3map3MapINtNtNtCsdze8u8oDPro_5alloc3vec9into_iter8IntoIterTNtNtCsATtFUPiRFW_3syn3pat3PatNtNtB27_5token5CommaEENCINvNtB27_10punctuated4foldB23_B2w_NtNvCs7oyfuZDlTKn_11yoke_derive16replace_lifetime15ReplaceLifetimeNvYB3s_NtNtNtB27_3gen4fold4Fold8fold_patE0ENtB4_12IntoIterator9into_iterB3w_, symObjAddr: 0x8BE8, symBinAddr: 0x3BD14, symSize: 0x30 }
  - { offset: 0x71067, size: 0x8, addend: 0x0, symName: __RNvXs_NtNtNtCs9f3LFPSIp77_4core4iter6traits7collectINtNtNtB8_8adapters3map3MapINtNtNtCsdze8u8oDPro_5alloc3vec9into_iter8IntoIterTNtNtCsATtFUPiRFW_3syn3pat8FieldPatNtNtB27_5token5CommaEENCINvNtB27_10punctuated4foldB23_B2B_NtNvCs7oyfuZDlTKn_11yoke_derive16replace_lifetime15ReplaceLifetimeNvYB3x_NtNtNtB27_3gen4fold4Fold14fold_field_patE0ENtB4_12IntoIterator9into_iterB3B_, symObjAddr: 0x8C18, symBinAddr: 0x3BD44, symSize: 0x30 }
  - { offset: 0x7109F, size: 0x8, addend: 0x0, symName: __RNvXs_NtNtNtCs9f3LFPSIp77_4core4iter6traits7collectINtNtNtB8_8adapters3map3MapINtNtNtCsdze8u8oDPro_5alloc3vec9into_iter8IntoIterTNtNtCsATtFUPiRFW_3syn4data5FieldNtNtB27_5token5CommaEENCINvNtB27_10punctuated4foldB23_B2z_NtNvCs7oyfuZDlTKn_11yoke_derive16replace_lifetime15ReplaceLifetimeNvYB3v_NtNtNtB27_3gen4fold4Fold10fold_fieldE0ENtB4_12IntoIterator9into_iterB3z_, symObjAddr: 0x8C48, symBinAddr: 0x3BD74, symSize: 0x30 }
  - { offset: 0x710D7, size: 0x8, addend: 0x0, symName: __RNvXs_NtNtNtCs9f3LFPSIp77_4core4iter6traits7collectINtNtNtB8_8adapters3map3MapINtNtNtCsdze8u8oDPro_5alloc3vec9into_iter8IntoIterTNtNtCsATtFUPiRFW_3syn4data7VariantNtNtB27_5token5CommaEENCINvNtB27_10punctuated4foldB23_B2B_NtNvCs7oyfuZDlTKn_11yoke_derive16replace_lifetime15ReplaceLifetimeNvYB3x_NtNtNtB27_3gen4fold4Fold12fold_variantE0ENtB4_12IntoIterator9into_iterB3B_, symObjAddr: 0x8C78, symBinAddr: 0x3BDA4, symSize: 0x30 }
  - { offset: 0x7110F, size: 0x8, addend: 0x0, symName: __RNvXs_NtNtNtCs9f3LFPSIp77_4core4iter6traits7collectINtNtNtB8_8adapters3map3MapINtNtNtCsdze8u8oDPro_5alloc3vec9into_iter8IntoIterTNtNtCsATtFUPiRFW_3syn4expr10FieldValueNtNtB27_5token5CommaEENCINvNtB27_10punctuated4foldB23_B2F_NtNvCs7oyfuZDlTKn_11yoke_derive16replace_lifetime15ReplaceLifetimeNvYB3B_NtNtNtB27_3gen4fold4Fold16fold_field_valueE0ENtB4_12IntoIterator9into_iterB3F_, symObjAddr: 0x8CA8, symBinAddr: 0x3BDD4, symSize: 0x30 }
  - { offset: 0x71147, size: 0x8, addend: 0x0, symName: __RNvXs_NtNtNtCs9f3LFPSIp77_4core4iter6traits7collectINtNtNtB8_8adapters3map3MapINtNtNtCsdze8u8oDPro_5alloc3vec9into_iter8IntoIterTNtNtCsATtFUPiRFW_3syn4expr4ExprNtNtB27_5token5CommaEENCINvNtB27_10punctuated4foldB23_B2y_NtNvCs7oyfuZDlTKn_11yoke_derive16replace_lifetime15ReplaceLifetimeNvYB3u_NtNtNtB27_3gen4fold4Fold9fold_exprE0ENtB4_12IntoIterator9into_iterB3y_, symObjAddr: 0x8CD8, symBinAddr: 0x3BE04, symSize: 0x30 }
  - { offset: 0x7117F, size: 0x8, addend: 0x0, symName: __RNvXs_NtNtNtCs9f3LFPSIp77_4core4iter6traits7collectINtNtNtB8_8adapters3map3MapINtNtNtCsdze8u8oDPro_5alloc3vec9into_iter8IntoIterTNtNtCsATtFUPiRFW_3syn4item5FnArgNtNtB27_5token5CommaEENCINvNtB27_10punctuated4foldB23_B2z_NtNvCs7oyfuZDlTKn_11yoke_derive16replace_lifetime15ReplaceLifetimeNvYB3v_NtNtNtB27_3gen4fold4Fold11fold_fn_argE0ENtB4_12IntoIterator9into_iterB3z_, symObjAddr: 0x8D08, symBinAddr: 0x3BE34, symSize: 0x30 }
  - { offset: 0x711B7, size: 0x8, addend: 0x0, symName: __RNvXs_NtNtNtCs9f3LFPSIp77_4core4iter6traits7collectINtNtNtB8_8adapters3map3MapINtNtNtCsdze8u8oDPro_5alloc3vec9into_iter8IntoIterTNtNtCsATtFUPiRFW_3syn4item7UseTreeNtNtB27_5token5CommaEENCINvNtB27_10punctuated4foldB23_B2B_NtNvCs7oyfuZDlTKn_11yoke_derive16replace_lifetime15ReplaceLifetimeNvYB3x_NtNtNtB27_3gen4fold4Fold13fold_use_treeE0ENtB4_12IntoIterator9into_iterB3B_, symObjAddr: 0x8D38, symBinAddr: 0x3BE64, symSize: 0x30 }
  - { offset: 0x711EF, size: 0x8, addend: 0x0, symName: __RNvXs_NtNtNtCs9f3LFPSIp77_4core4iter6traits7collectINtNtNtB8_8adapters3map3MapINtNtNtCsdze8u8oDPro_5alloc3vec9into_iter8IntoIterTNtNtCsATtFUPiRFW_3syn4path11PathSegmentNtNtB27_5token7PathSepEENCINvNtB27_10punctuated4foldB23_B2G_NtNvCs7oyfuZDlTKn_11yoke_derive16replace_lifetime15ReplaceLifetimeNvYB3E_NtNtNtB27_3gen4fold4Fold17fold_path_segmentE0ENtB4_12IntoIterator9into_iterB3I_, symObjAddr: 0x8D68, symBinAddr: 0x3BE94, symSize: 0x30 }
  - { offset: 0x71227, size: 0x8, addend: 0x0, symName: __RNvXs_NtNtNtCs9f3LFPSIp77_4core4iter6traits7collectINtNtNtB8_8adapters3map3MapINtNtNtCsdze8u8oDPro_5alloc3vec9into_iter8IntoIterTNtNtCsATtFUPiRFW_3syn4path15GenericArgumentNtNtB27_5token5CommaEENCINvNtB27_10punctuated4foldB23_B2K_NtNvCs7oyfuZDlTKn_11yoke_derive16replace_lifetime15ReplaceLifetimeNvYB3G_NtNtNtB27_3gen4fold4Fold21fold_generic_argumentE0ENtB4_12IntoIterator9into_iterB3K_, symObjAddr: 0x8D98, symBinAddr: 0x3BEC4, symSize: 0x30 }
  - { offset: 0x7125F, size: 0x8, addend: 0x0, symName: __RNvXs_NtNtNtCs9f3LFPSIp77_4core4iter6traits7collectINtNtNtB8_8adapters3map3MapINtNtNtCsdze8u8oDPro_5alloc3vec9into_iter8IntoIterTNtNtCsATtFUPiRFW_3syn8generics12GenericParamNtNtB27_5token5CommaEENCINvNtB27_10punctuated4foldB23_B2L_NtNvCs7oyfuZDlTKn_11yoke_derive16replace_lifetime15ReplaceLifetimeNvYB3H_NtNtNtB27_3gen4fold4Fold18fold_generic_paramE0ENtB4_12IntoIterator9into_iterB3L_, symObjAddr: 0x8DC8, symBinAddr: 0x3BEF4, symSize: 0x30 }
  - { offset: 0x71297, size: 0x8, addend: 0x0, symName: __RNvXs_NtNtNtCs9f3LFPSIp77_4core4iter6traits7collectINtNtNtB8_8adapters3map3MapINtNtNtCsdze8u8oDPro_5alloc3vec9into_iter8IntoIterTNtNtCsATtFUPiRFW_3syn8generics13CapturedParamNtNtB27_5token5CommaEENCINvNtB27_10punctuated4foldB23_B2M_NtNvCs7oyfuZDlTKn_11yoke_derive16replace_lifetime15ReplaceLifetimeNvYB3I_NtNtNtB27_3gen4fold4Fold19fold_captured_paramE0ENtB4_12IntoIterator9into_iterB3M_, symObjAddr: 0x8DF8, symBinAddr: 0x3BF24, symSize: 0x30 }
  - { offset: 0x712CF, size: 0x8, addend: 0x0, symName: __RNvXs_NtNtNtCs9f3LFPSIp77_4core4iter6traits7collectINtNtNtB8_8adapters3map3MapINtNtNtCsdze8u8oDPro_5alloc3vec9into_iter8IntoIterTNtNtCsATtFUPiRFW_3syn8generics14TypeParamBoundNtNtB27_5token4PlusEENCINvNtB27_10punctuated4foldB23_B2N_NtNvCs7oyfuZDlTKn_11yoke_derive16replace_lifetime15ReplaceLifetimeNvYB3I_NtNtNtB27_3gen4fold4Fold21fold_type_param_boundE0ENtB4_12IntoIterator9into_iterB3M_, symObjAddr: 0x8E28, symBinAddr: 0x3BF54, symSize: 0x30 }
  - { offset: 0x71307, size: 0x8, addend: 0x0, symName: __RNvXs_NtNtNtCs9f3LFPSIp77_4core4iter6traits7collectINtNtNtB8_8adapters3map3MapINtNtNtCsdze8u8oDPro_5alloc3vec9into_iter8IntoIterTNtNtCsATtFUPiRFW_3syn8generics14WherePredicateNtNtB27_5token5CommaEENCINvNtB27_10punctuated4foldB23_B2N_NtNvCs7oyfuZDlTKn_11yoke_derive16replace_lifetime15ReplaceLifetimeNvYB3J_NtNtNtB27_3gen4fold4Fold20fold_where_predicateE0ENtB4_12IntoIterator9into_iterB3N_, symObjAddr: 0x8E58, symBinAddr: 0x3BF84, symSize: 0x30 }
  - { offset: 0x7133F, size: 0x8, addend: 0x0, symName: __RNvXs_NtNtNtCs9f3LFPSIp77_4core4iter6traits7collectINtNtNtB8_8adapters3map3MapINtNtNtCsdze8u8oDPro_5alloc3vec9into_iter8IntoIterTNtNtCsATtFUPiRFW_3syn8lifetime8LifetimeNtNtB27_5token4PlusEENCINvNtB27_10punctuated4foldB23_B2G_NtNvCs7oyfuZDlTKn_11yoke_derive16replace_lifetime15ReplaceLifetimeNvYB3B_NtNtNtB27_3gen4fold4Fold13fold_lifetimeE0ENtB4_12IntoIterator9into_iterB3F_, symObjAddr: 0x8E88, symBinAddr: 0x3BFB4, symSize: 0x30 }
  - { offset: 0x71377, size: 0x8, addend: 0x0, symName: __RNvXs_NtNtNtCs9f3LFPSIp77_4core4iter6traits7collectINtNtNtB8_8adapters3map3MapNtNtCsATtFUPiRFW_3syn8generics10TypeParamsNCNvCs7oyfuZDlTKn_11yoke_derive20yokeable_derive_impl0ENtB4_12IntoIterator9into_iterB1Y_, symObjAddr: 0x8EB8, symBinAddr: 0x3BFE4, symSize: 0x1C }
  - { offset: 0x7140C, size: 0x8, addend: 0x0, symName: __RNvNtNtNtCs9f3LFPSIp77_4core9core_arch10arm_shared4neon9vdup_n_u8Cs7oyfuZDlTKn_11yoke_derive, symObjAddr: 0x6E70, symBinAddr: 0x39F9C, symSize: 0x34 }
  - { offset: 0x71473, size: 0x8, addend: 0x0, symName: __RNvNtNtNtNtCs9f3LFPSIp77_4core9core_arch10arm_shared4neon9generated18vreinterpret_s8_u8Cs7oyfuZDlTKn_11yoke_derive, symObjAddr: 0x6EA4, symBinAddr: 0x39FD0, symSize: 0xC }
  - { offset: 0x714A1, size: 0x8, addend: 0x0, symName: __RNvNtNtNtNtCs9f3LFPSIp77_4core9core_arch10arm_shared4neon9generated19vreinterpret_u64_u8Cs7oyfuZDlTKn_11yoke_derive, symObjAddr: 0x6EB0, symBinAddr: 0x39FDC, symSize: 0xC }
  - { offset: 0x714CF, size: 0x8, addend: 0x0, symName: __RNvNtNtNtNtCs9f3LFPSIp77_4core9core_arch10arm_shared4neon9generated7vceq_u8Cs7oyfuZDlTKn_11yoke_derive, symObjAddr: 0x6EBC, symBinAddr: 0x39FE8, symSize: 0x14 }
  - { offset: 0x7150C, size: 0x8, addend: 0x0, symName: __RNvNtNtNtNtCs9f3LFPSIp77_4core9core_arch10arm_shared4neon9generated7vorr_u8Cs7oyfuZDlTKn_11yoke_derive, symObjAddr: 0x6ED0, symBinAddr: 0x39FFC, symSize: 0x14 }
  - { offset: 0x74AD3, size: 0x8, addend: 0x0, symName: __RINvMsi_NtCsdze8u8oDPro_5alloc3vecINtB6_3VecNtCs475r2uZUTuc_11proc_macro25IdentE14extend_trustedINtNtNtNtCs9f3LFPSIp77_4core4iter8adapters3map3MapINtNtNtB1F_5slice4iter4IterNtNtCsATtFUPiRFW_3syn8generics9TypeParamENCNvCs7oyfuZDlTKn_11yoke_derive20yokeable_derive_impls_0EEB3u_, symObjAddr: 0x0, symBinAddr: 0x3C098, symSize: 0x184 }
  - { offset: 0x7BC94, size: 0x8, addend: 0x0, symName: __RINvXsd_NtCsdze8u8oDPro_5alloc3vecINtB6_3VecNtCs475r2uZUTuc_11proc_macro25IdentEINtNtNtNtCs9f3LFPSIp77_4core4iter6traits7collect12FromIteratorBG_E9from_iterINtNtNtB1n_8adapters3map3MapINtNtNtB1p_5slice4iter4IterNtNtCsATtFUPiRFW_3syn8generics9TypeParamENCNvCs7oyfuZDlTKn_11yoke_derive20yokeable_derive_impls_0EEB46_, symObjAddr: 0x698, symBinAddr: 0x3C730, symSize: 0x38 }
  - { offset: 0x7BCD4, size: 0x8, addend: 0x0, symName: __RINvXsd_NtCsdze8u8oDPro_5alloc3vecINtB6_3VecNtNtCsATtFUPiRFW_3syn4attr9AttributeEINtNtNtNtCs9f3LFPSIp77_4core4iter6traits7collect12FromIteratorBG_E9from_iterINtNtNtB1o_8adapters3map3MapINtNtB6_9into_iter8IntoIterBG_ENCINvNtNtBK_3gen4fold8fold_vecBG_NtNvCs7oyfuZDlTKn_11yoke_derive16replace_lifetime15ReplaceLifetimeNvYB3Z_NtB3x_4Fold14fold_attributeE0EEB43_, symObjAddr: 0x6D0, symBinAddr: 0x3C768, symSize: 0x34 }
  - { offset: 0x7BD15, size: 0x8, addend: 0x0, symName: __RINvXsd_NtCsdze8u8oDPro_5alloc3vecINtB6_3VecNtNtCsATtFUPiRFW_3syn4expr3ArmEINtNtNtNtCs9f3LFPSIp77_4core4iter6traits7collect12FromIteratorBG_E9from_iterINtNtNtB1i_8adapters3map3MapINtNtB6_9into_iter8IntoIterBG_ENCINvNtNtBK_3gen4fold8fold_vecBG_NtNvCs7oyfuZDlTKn_11yoke_derive16replace_lifetime15ReplaceLifetimeNvYB3T_NtB3r_4Fold8fold_armE0EEB3X_, symObjAddr: 0x704, symBinAddr: 0x3C79C, symSize: 0x34 }
  - { offset: 0x7BD56, size: 0x8, addend: 0x0, symName: __RINvXsd_NtCsdze8u8oDPro_5alloc3vecINtB6_3VecNtNtCsATtFUPiRFW_3syn4item11ForeignItemEINtNtNtNtCs9f3LFPSIp77_4core4iter6traits7collect12FromIteratorBG_E9from_iterINtNtNtB1r_8adapters3map3MapINtNtB6_9into_iter8IntoIterBG_ENCINvNtNtBK_3gen4fold8fold_vecBG_NtNvCs7oyfuZDlTKn_11yoke_derive16replace_lifetime15ReplaceLifetimeNvYB42_NtB3A_4Fold17fold_foreign_itemE0EEB46_, symObjAddr: 0x738, symBinAddr: 0x3C7D0, symSize: 0x34 }
  - { offset: 0x7BD97, size: 0x8, addend: 0x0, symName: __RINvXsd_NtCsdze8u8oDPro_5alloc3vecINtB6_3VecNtNtCsATtFUPiRFW_3syn4item4ItemEINtNtNtNtCs9f3LFPSIp77_4core4iter6traits7collect12FromIteratorBG_E9from_iterINtNtNtB1j_8adapters3map3MapINtNtB6_9into_iter8IntoIterBG_ENCINvNtNtBK_3gen4fold8fold_vecBG_NtNvCs7oyfuZDlTKn_11yoke_derive16replace_lifetime15ReplaceLifetimeNvYB3U_NtB3s_4Fold9fold_itemE0EEB3Y_, symObjAddr: 0x76C, symBinAddr: 0x3C804, symSize: 0x34 }
  - { offset: 0x7BDD8, size: 0x8, addend: 0x0, symName: __RINvXsd_NtCsdze8u8oDPro_5alloc3vecINtB6_3VecNtNtCsATtFUPiRFW_3syn4item8ImplItemEINtNtNtNtCs9f3LFPSIp77_4core4iter6traits7collect12FromIteratorBG_E9from_iterINtNtNtB1n_8adapters3map3MapINtNtB6_9into_iter8IntoIterBG_ENCINvNtNtBK_3gen4fold8fold_vecBG_NtNvCs7oyfuZDlTKn_11yoke_derive16replace_lifetime15ReplaceLifetimeNvYB3Y_NtB3w_4Fold14fold_impl_itemE0EEB42_, symObjAddr: 0x7A0, symBinAddr: 0x3C838, symSize: 0x34 }
  - { offset: 0x7BE19, size: 0x8, addend: 0x0, symName: __RINvXsd_NtCsdze8u8oDPro_5alloc3vecINtB6_3VecNtNtCsATtFUPiRFW_3syn4item9TraitItemEINtNtNtNtCs9f3LFPSIp77_4core4iter6traits7collect12FromIteratorBG_E9from_iterINtNtNtB1o_8adapters3map3MapINtNtB6_9into_iter8IntoIterBG_ENCINvNtNtBK_3gen4fold8fold_vecBG_NtNvCs7oyfuZDlTKn_11yoke_derive16replace_lifetime15ReplaceLifetimeNvYB3Z_NtB3x_4Fold15fold_trait_itemE0EEB43_, symObjAddr: 0x7D4, symBinAddr: 0x3C86C, symSize: 0x34 }
  - { offset: 0x7BE5A, size: 0x8, addend: 0x0, symName: __RINvXsd_NtCsdze8u8oDPro_5alloc3vecINtB6_3VecNtNtCsATtFUPiRFW_3syn4stmt4StmtEINtNtNtNtCs9f3LFPSIp77_4core4iter6traits7collect12FromIteratorBG_E9from_iterINtNtNtB1j_8adapters3map3MapINtNtB6_9into_iter8IntoIterBG_ENCINvNtNtBK_3gen4fold8fold_vecBG_NtNvCs7oyfuZDlTKn_11yoke_derive16replace_lifetime15ReplaceLifetimeNvYB3U_NtB3s_4Fold9fold_stmtE0EEB3Y_, symObjAddr: 0x808, symBinAddr: 0x3C8A0, symSize: 0x34 }
  - { offset: 0x7BE9B, size: 0x8, addend: 0x0, symName: __RINvXsd_NtCsdze8u8oDPro_5alloc3vecINtB6_3VecNtNtCsATtFUPiRFW_3syn8generics14WherePredicateEINtNtNtNtCs9f3LFPSIp77_4core4iter6traits7collect12FromIteratorBG_E9from_iterINtNtNtB1y_8adapters3map3MapINtNtNtB1A_5slice4iter4IterNtCs475r2uZUTuc_11proc_macro25IdentENCNvCs7oyfuZDlTKn_11yoke_derive20yokeable_derive_impls0_0EEB4c_, symObjAddr: 0x83C, symBinAddr: 0x3C8D4, symSize: 0x38 }
  - { offset: 0x7BEDB, size: 0x8, addend: 0x0, symName: __RINvXsd_NtCsdze8u8oDPro_5alloc3vecINtB6_3VecNtNtCsATtFUPiRFW_3syn8generics14WherePredicateEINtNtNtNtCs9f3LFPSIp77_4core4iter6traits7collect12FromIteratorBG_E9from_iterINtNtNtB1y_8adapters3map3MapINtNtNtB1A_5slice4iter4IterNtCs475r2uZUTuc_11proc_macro25IdentENCNvCs7oyfuZDlTKn_11yoke_derive20yokeable_derive_impls2_0EEB4c_, symObjAddr: 0x874, symBinAddr: 0x3C90C, symSize: 0x38 }
  - { offset: 0x7BF1B, size: 0x8, addend: 0x0, symName: __RINvXsd_NtCsdze8u8oDPro_5alloc3vecINtB6_3VecNtNtCsATtFUPiRFW_3syn8generics9TypeParamEINtNtNtNtCs9f3LFPSIp77_4core4iter6traits7collect12FromIteratorBG_E9from_iterINtNtNtB1s_8adapters3map3MapNtBI_10TypeParamsNCNvCs7oyfuZDlTKn_11yoke_derive20yokeable_derive_impl0EEB3m_, symObjAddr: 0x8AC, symBinAddr: 0x3C944, symSize: 0x38 }
  - { offset: 0x7BF5B, size: 0x8, addend: 0x0, symName: __RINvXsd_NtCsdze8u8oDPro_5alloc3vecINtB6_3VecTNtNtCsATtFUPiRFW_3syn2ty4TypeNtNtBL_5token5CommaEEINtNtNtNtCs9f3LFPSIp77_4core4iter6traits7collect12FromIteratorBG_E9from_iterINtNtNtB1C_8adapters3map3MapINtNtB6_9into_iter8IntoIterBG_ENCINvNtBL_10punctuated4foldBH_B1a_NtNvCs7oyfuZDlTKn_11yoke_derive16replace_lifetime15ReplaceLifetimeNvYB4e_NtNtNtBL_3gen4fold4Fold9fold_typeE0EEB4i_, symObjAddr: 0x8E4, symBinAddr: 0x3C97C, symSize: 0x34 }
  - { offset: 0x7BF9C, size: 0x8, addend: 0x0, symName: __RINvXsd_NtCsdze8u8oDPro_5alloc3vecINtB6_3VecTNtNtCsATtFUPiRFW_3syn2ty9BareFnArgNtNtBL_5token5CommaEEINtNtNtNtCs9f3LFPSIp77_4core4iter6traits7collect12FromIteratorBG_E9from_iterINtNtNtB1H_8adapters3map3MapINtNtB6_9into_iter8IntoIterBG_ENCINvNtBL_10punctuated4foldBH_B1f_NtNvCs7oyfuZDlTKn_11yoke_derive16replace_lifetime15ReplaceLifetimeNvYB4j_NtNtNtBL_3gen4fold4Fold16fold_bare_fn_argE0EEB4n_, symObjAddr: 0x918, symBinAddr: 0x3C9B0, symSize: 0x34 }
  - { offset: 0x7BFDD, size: 0x8, addend: 0x0, symName: __RINvXsd_NtCsdze8u8oDPro_5alloc3vecINtB6_3VecTNtNtCsATtFUPiRFW_3syn3pat3PatNtNtBL_5token2OrEEINtNtNtNtCs9f3LFPSIp77_4core4iter6traits7collect12FromIteratorBG_E9from_iterINtNtNtB1z_8adapters3map3MapINtNtB6_9into_iter8IntoIterBG_ENCINvNtBL_10punctuated4foldBH_B1a_NtNvCs7oyfuZDlTKn_11yoke_derive16replace_lifetime15ReplaceLifetimeNvYB4b_NtNtNtBL_3gen4fold4Fold8fold_patE0EEB4f_, symObjAddr: 0x94C, symBinAddr: 0x3C9E4, symSize: 0x34 }
  - { offset: 0x7C01E, size: 0x8, addend: 0x0, symName: __RINvXsd_NtCsdze8u8oDPro_5alloc3vecINtB6_3VecTNtNtCsATtFUPiRFW_3syn3pat3PatNtNtBL_5token5CommaEEINtNtNtNtCs9f3LFPSIp77_4core4iter6traits7collect12FromIteratorBG_E9from_iterINtNtNtB1C_8adapters3map3MapINtNtB6_9into_iter8IntoIterBG_ENCINvNtBL_10punctuated4foldBH_B1a_NtNvCs7oyfuZDlTKn_11yoke_derive16replace_lifetime15ReplaceLifetimeNvYB4e_NtNtNtBL_3gen4fold4Fold8fold_patE0EEB4i_, symObjAddr: 0x980, symBinAddr: 0x3CA18, symSize: 0x34 }
  - { offset: 0x7C05F, size: 0x8, addend: 0x0, symName: __RINvXsd_NtCsdze8u8oDPro_5alloc3vecINtB6_3VecTNtNtCsATtFUPiRFW_3syn3pat8FieldPatNtNtBL_5token5CommaEEINtNtNtNtCs9f3LFPSIp77_4core4iter6traits7collect12FromIteratorBG_E9from_iterINtNtNtB1H_8adapters3map3MapINtNtB6_9into_iter8IntoIterBG_ENCINvNtBL_10punctuated4foldBH_B1f_NtNvCs7oyfuZDlTKn_11yoke_derive16replace_lifetime15ReplaceLifetimeNvYB4j_NtNtNtBL_3gen4fold4Fold14fold_field_patE0EEB4n_, symObjAddr: 0x9B4, symBinAddr: 0x3CA4C, symSize: 0x34 }
  - { offset: 0x7C0A0, size: 0x8, addend: 0x0, symName: __RINvXsd_NtCsdze8u8oDPro_5alloc3vecINtB6_3VecTNtNtCsATtFUPiRFW_3syn4data5FieldNtNtBL_5token5CommaEEINtNtNtNtCs9f3LFPSIp77_4core4iter6traits7collect12FromIteratorBG_E9from_iterINtNtNtB1F_8adapters3map3MapINtNtB6_9into_iter8IntoIterBG_ENCINvNtBL_10punctuated4foldBH_B1d_NtNvCs7oyfuZDlTKn_11yoke_derive16replace_lifetime15ReplaceLifetimeNvYB4h_NtNtNtBL_3gen4fold4Fold10fold_fieldE0EEB4l_, symObjAddr: 0x9E8, symBinAddr: 0x3CA80, symSize: 0x34 }
  - { offset: 0x7C0E1, size: 0x8, addend: 0x0, symName: __RINvXsd_NtCsdze8u8oDPro_5alloc3vecINtB6_3VecTNtNtCsATtFUPiRFW_3syn4data7VariantNtNtBL_5token5CommaEEINtNtNtNtCs9f3LFPSIp77_4core4iter6traits7collect12FromIteratorBG_E9from_iterINtNtNtB1H_8adapters3map3MapINtNtB6_9into_iter8IntoIterBG_ENCINvNtBL_10punctuated4foldBH_B1f_NtNvCs7oyfuZDlTKn_11yoke_derive16replace_lifetime15ReplaceLifetimeNvYB4j_NtNtNtBL_3gen4fold4Fold12fold_variantE0EEB4n_, symObjAddr: 0xA1C, symBinAddr: 0x3CAB4, symSize: 0x34 }
  - { offset: 0x7C122, size: 0x8, addend: 0x0, symName: __RINvXsd_NtCsdze8u8oDPro_5alloc3vecINtB6_3VecTNtNtCsATtFUPiRFW_3syn4expr10FieldValueNtNtBL_5token5CommaEEINtNtNtNtCs9f3LFPSIp77_4core4iter6traits7collect12FromIteratorBG_E9from_iterINtNtNtB1L_8adapters3map3MapINtNtB6_9into_iter8IntoIterBG_ENCINvNtBL_10punctuated4foldBH_B1j_NtNvCs7oyfuZDlTKn_11yoke_derive16replace_lifetime15ReplaceLifetimeNvYB4n_NtNtNtBL_3gen4fold4Fold16fold_field_valueE0EEB4r_, symObjAddr: 0xA50, symBinAddr: 0x3CAE8, symSize: 0x34 }
  - { offset: 0x7C163, size: 0x8, addend: 0x0, symName: __RINvXsd_NtCsdze8u8oDPro_5alloc3vecINtB6_3VecTNtNtCsATtFUPiRFW_3syn4expr4ExprNtNtBL_5token5CommaEEINtNtNtNtCs9f3LFPSIp77_4core4iter6traits7collect12FromIteratorBG_E9from_iterINtNtNtB1E_8adapters3map3MapINtNtB6_9into_iter8IntoIterBG_ENCINvNtBL_10punctuated4foldBH_B1c_NtNvCs7oyfuZDlTKn_11yoke_derive16replace_lifetime15ReplaceLifetimeNvYB4g_NtNtNtBL_3gen4fold4Fold9fold_exprE0EEB4k_, symObjAddr: 0xA84, symBinAddr: 0x3CB1C, symSize: 0x34 }
  - { offset: 0x7C1A4, size: 0x8, addend: 0x0, symName: __RINvXsd_NtCsdze8u8oDPro_5alloc3vecINtB6_3VecTNtNtCsATtFUPiRFW_3syn4item5FnArgNtNtBL_5token5CommaEEINtNtNtNtCs9f3LFPSIp77_4core4iter6traits7collect12FromIteratorBG_E9from_iterINtNtNtB1F_8adapters3map3MapINtNtB6_9into_iter8IntoIterBG_ENCINvNtBL_10punctuated4foldBH_B1d_NtNvCs7oyfuZDlTKn_11yoke_derive16replace_lifetime15ReplaceLifetimeNvYB4h_NtNtNtBL_3gen4fold4Fold11fold_fn_argE0EEB4l_, symObjAddr: 0xAB8, symBinAddr: 0x3CB50, symSize: 0x34 }
  - { offset: 0x7C1E5, size: 0x8, addend: 0x0, symName: __RINvXsd_NtCsdze8u8oDPro_5alloc3vecINtB6_3VecTNtNtCsATtFUPiRFW_3syn4item7UseTreeNtNtBL_5token5CommaEEINtNtNtNtCs9f3LFPSIp77_4core4iter6traits7collect12FromIteratorBG_E9from_iterINtNtNtB1H_8adapters3map3MapINtNtB6_9into_iter8IntoIterBG_ENCINvNtBL_10punctuated4foldBH_B1f_NtNvCs7oyfuZDlTKn_11yoke_derive16replace_lifetime15ReplaceLifetimeNvYB4j_NtNtNtBL_3gen4fold4Fold13fold_use_treeE0EEB4n_, symObjAddr: 0xAEC, symBinAddr: 0x3CB84, symSize: 0x34 }
  - { offset: 0x7C226, size: 0x8, addend: 0x0, symName: __RINvXsd_NtCsdze8u8oDPro_5alloc3vecINtB6_3VecTNtNtCsATtFUPiRFW_3syn4path11PathSegmentNtNtBL_5token7PathSepEEINtNtNtNtCs9f3LFPSIp77_4core4iter6traits7collect12FromIteratorBG_E9from_iterINtNtNtB1O_8adapters3map3MapINtNtB6_9into_iter8IntoIterBG_ENCINvNtBL_10punctuated4foldBH_B1k_NtNvCs7oyfuZDlTKn_11yoke_derive16replace_lifetime15ReplaceLifetimeNvYB4q_NtNtNtBL_3gen4fold4Fold17fold_path_segmentE0EEB4u_, symObjAddr: 0xB20, symBinAddr: 0x3CBB8, symSize: 0x34 }
  - { offset: 0x7C267, size: 0x8, addend: 0x0, symName: __RINvXsd_NtCsdze8u8oDPro_5alloc3vecINtB6_3VecTNtNtCsATtFUPiRFW_3syn4path15GenericArgumentNtNtBL_5token5CommaEEINtNtNtNtCs9f3LFPSIp77_4core4iter6traits7collect12FromIteratorBG_E9from_iterINtNtNtB1Q_8adapters3map3MapINtNtB6_9into_iter8IntoIterBG_ENCINvNtBL_10punctuated4foldBH_B1o_NtNvCs7oyfuZDlTKn_11yoke_derive16replace_lifetime15ReplaceLifetimeNvYB4s_NtNtNtBL_3gen4fold4Fold21fold_generic_argumentE0EEB4w_, symObjAddr: 0xB54, symBinAddr: 0x3CBEC, symSize: 0x34 }
  - { offset: 0x7C2A8, size: 0x8, addend: 0x0, symName: __RINvXsd_NtCsdze8u8oDPro_5alloc3vecINtB6_3VecTNtNtCsATtFUPiRFW_3syn8generics12GenericParamNtNtBL_5token5CommaEEINtNtNtNtCs9f3LFPSIp77_4core4iter6traits7collect12FromIteratorBG_E9from_iterINtNtNtB1R_8adapters3map3MapINtNtB6_9into_iter8IntoIterBG_ENCINvNtBL_10punctuated4foldBH_B1p_NtNvCs7oyfuZDlTKn_11yoke_derive16replace_lifetime15ReplaceLifetimeNvYB4t_NtNtNtBL_3gen4fold4Fold18fold_generic_paramE0EEB4x_, symObjAddr: 0xB88, symBinAddr: 0x3CC20, symSize: 0x34 }
  - { offset: 0x7C2E9, size: 0x8, addend: 0x0, symName: __RINvXsd_NtCsdze8u8oDPro_5alloc3vecINtB6_3VecTNtNtCsATtFUPiRFW_3syn8generics13CapturedParamNtNtBL_5token5CommaEEINtNtNtNtCs9f3LFPSIp77_4core4iter6traits7collect12FromIteratorBG_E9from_iterINtNtNtB1S_8adapters3map3MapINtNtB6_9into_iter8IntoIterBG_ENCINvNtBL_10punctuated4foldBH_B1q_NtNvCs7oyfuZDlTKn_11yoke_derive16replace_lifetime15ReplaceLifetimeNvYB4u_NtNtNtBL_3gen4fold4Fold19fold_captured_paramE0EEB4y_, symObjAddr: 0xBBC, symBinAddr: 0x3CC54, symSize: 0x34 }
  - { offset: 0x7C32A, size: 0x8, addend: 0x0, symName: __RINvXsd_NtCsdze8u8oDPro_5alloc3vecINtB6_3VecTNtNtCsATtFUPiRFW_3syn8generics14TypeParamBoundNtNtBL_5token4PlusEEINtNtNtNtCs9f3LFPSIp77_4core4iter6traits7collect12FromIteratorBG_E9from_iterINtNtNtB1S_8adapters3map3MapINtNtB6_9into_iter8IntoIterBG_ENCINvNtBL_10punctuated4foldBH_B1r_NtNvCs7oyfuZDlTKn_11yoke_derive16replace_lifetime15ReplaceLifetimeNvYB4u_NtNtNtBL_3gen4fold4Fold21fold_type_param_boundE0EEB4y_, symObjAddr: 0xBF0, symBinAddr: 0x3CC88, symSize: 0x34 }
  - { offset: 0x7C36B, size: 0x8, addend: 0x0, symName: __RINvXsd_NtCsdze8u8oDPro_5alloc3vecINtB6_3VecTNtNtCsATtFUPiRFW_3syn8generics14WherePredicateNtNtBL_5token5CommaEEINtNtNtNtCs9f3LFPSIp77_4core4iter6traits7collect12FromIteratorBG_E9from_iterINtNtNtB1T_8adapters3map3MapINtNtB6_9into_iter8IntoIterBG_ENCINvNtBL_10punctuated4foldBH_B1r_NtNvCs7oyfuZDlTKn_11yoke_derive16replace_lifetime15ReplaceLifetimeNvYB4v_NtNtNtBL_3gen4fold4Fold20fold_where_predicateE0EEB4z_, symObjAddr: 0xC24, symBinAddr: 0x3CCBC, symSize: 0x34 }
  - { offset: 0x7C3AC, size: 0x8, addend: 0x0, symName: __RINvXsd_NtCsdze8u8oDPro_5alloc3vecINtB6_3VecTNtNtCsATtFUPiRFW_3syn8lifetime8LifetimeNtNtBL_5token4PlusEEINtNtNtNtCs9f3LFPSIp77_4core4iter6traits7collect12FromIteratorBG_E9from_iterINtNtNtB1L_8adapters3map3MapINtNtB6_9into_iter8IntoIterBG_ENCINvNtBL_10punctuated4foldBH_B1k_NtNvCs7oyfuZDlTKn_11yoke_derive16replace_lifetime15ReplaceLifetimeNvYB4n_NtNtNtBL_3gen4fold4Fold13fold_lifetimeE0EEB4r_, symObjAddr: 0xC58, symBinAddr: 0x3CCF0, symSize: 0x34 }
  - { offset: 0x7C3F8, size: 0x8, addend: 0x0, symName: __RNCINvMsi_NtCsdze8u8oDPro_5alloc3vecINtB8_3VecNtCs475r2uZUTuc_11proc_macro25IdentE14extend_trustedINtNtNtNtCs9f3LFPSIp77_4core4iter8adapters3map3MapINtNtNtB1H_5slice4iter4IterNtNtCsATtFUPiRFW_3syn8generics9TypeParamENCNvCs7oyfuZDlTKn_11yoke_derive20yokeable_derive_impls_0EE0B3w_, symObjAddr: 0xC8C, symBinAddr: 0x3CD24, symSize: 0x6C }
  - { offset: 0x7C4E9, size: 0x8, addend: 0x0, symName: __RNCINvMsi_NtCsdze8u8oDPro_5alloc3vecINtB8_3VecNtNtCsATtFUPiRFW_3syn8generics14WherePredicateE14extend_trustedINtNtNtNtCs9f3LFPSIp77_4core4iter8adapters3map3MapINtNtNtB1S_5slice4iter4IterNtCs475r2uZUTuc_11proc_macro25IdentENCNvCs7oyfuZDlTKn_11yoke_derive20yokeable_derive_impls0_0EE0B3C_, symObjAddr: 0xCF8, symBinAddr: 0x3CD90, symSize: 0x78 }
  - { offset: 0x7C5DC, size: 0x8, addend: 0x0, symName: __RNCINvMsi_NtCsdze8u8oDPro_5alloc3vecINtB8_3VecNtNtCsATtFUPiRFW_3syn8generics14WherePredicateE14extend_trustedINtNtNtNtCs9f3LFPSIp77_4core4iter8adapters3map3MapINtNtNtB1S_5slice4iter4IterNtCs475r2uZUTuc_11proc_macro25IdentENCNvCs7oyfuZDlTKn_11yoke_derive20yokeable_derive_impls2_0EE0B3C_, symObjAddr: 0xD70, symBinAddr: 0x3CE08, symSize: 0x78 }
  - { offset: 0x7C6DB, size: 0x8, addend: 0x0, symName: __RNvXNtNtCsdze8u8oDPro_5alloc3vec11spec_extendINtB4_3VecNtNtCsATtFUPiRFW_3syn8generics9TypeParamEINtB2_10SpecExtendBR_INtNtNtNtCs9f3LFPSIp77_4core4iter8adapters3map3MapNtBT_10TypeParamsNCNvCs7oyfuZDlTKn_11yoke_derive20yokeable_derive_impl0EE11spec_extendB30_, symObjAddr: 0x112C, symBinAddr: 0x3D1C4, symSize: 0x34 }
  - { offset: 0x7C732, size: 0x8, addend: 0x0, symName: __RNvXs_NtNtCsdze8u8oDPro_5alloc3vec11spec_extendINtB6_3VecNtCs475r2uZUTuc_11proc_macro25IdentEINtB4_10SpecExtendBT_INtNtNtNtCs9f3LFPSIp77_4core4iter8adapters3map3MapINtNtNtB1X_5slice4iter4IterNtNtCsATtFUPiRFW_3syn8generics9TypeParamENCNvCs7oyfuZDlTKn_11yoke_derive20yokeable_derive_impls_0EE11spec_extendB3M_, symObjAddr: 0x1554, symBinAddr: 0x3D5EC, symSize: 0x34 }
  - { offset: 0x7C783, size: 0x8, addend: 0x0, symName: __RNvXs_NtNtCsdze8u8oDPro_5alloc3vec11spec_extendINtB6_3VecNtNtCsATtFUPiRFW_3syn8generics14WherePredicateEINtB4_10SpecExtendBT_INtNtNtNtCs9f3LFPSIp77_4core4iter8adapters3map3MapINtNtNtB28_5slice4iter4IterNtCs475r2uZUTuc_11proc_macro25IdentENCNvCs7oyfuZDlTKn_11yoke_derive20yokeable_derive_impls0_0EE11spec_extendB3S_, symObjAddr: 0x1588, symBinAddr: 0x3D620, symSize: 0x34 }
  - { offset: 0x7C7D4, size: 0x8, addend: 0x0, symName: __RNvXs_NtNtCsdze8u8oDPro_5alloc3vec11spec_extendINtB6_3VecNtNtCsATtFUPiRFW_3syn8generics14WherePredicateEINtB4_10SpecExtendBT_INtNtNtNtCs9f3LFPSIp77_4core4iter8adapters3map3MapINtNtNtB28_5slice4iter4IterNtCs475r2uZUTuc_11proc_macro25IdentENCNvCs7oyfuZDlTKn_11yoke_derive20yokeable_derive_impls2_0EE11spec_extendB3S_, symObjAddr: 0x15BC, symBinAddr: 0x3D654, symSize: 0x34 }
  - { offset: 0x7C831, size: 0x8, addend: 0x0, symName: __RNvXNtNtCsdze8u8oDPro_5alloc3vec14spec_from_iterINtB4_3VecNtCs475r2uZUTuc_11proc_macro25IdentEINtB2_12SpecFromIterBU_INtNtNtNtCs9f3LFPSIp77_4core4iter8adapters3map3MapINtNtNtB20_5slice4iter4IterNtNtCsATtFUPiRFW_3syn8generics9TypeParamENCNvCs7oyfuZDlTKn_11yoke_derive20yokeable_derive_impls_0EE9from_iterB3P_, symObjAddr: 0x1160, symBinAddr: 0x3D1F8, symSize: 0x2C }
  - { offset: 0x7C86F, size: 0x8, addend: 0x0, symName: __RNvXNtNtCsdze8u8oDPro_5alloc3vec14spec_from_iterINtB4_3VecNtNtCsATtFUPiRFW_3syn8generics14WherePredicateEINtB2_12SpecFromIterBU_INtNtNtNtCs9f3LFPSIp77_4core4iter8adapters3map3MapINtNtNtB2b_5slice4iter4IterNtCs475r2uZUTuc_11proc_macro25IdentENCNvCs7oyfuZDlTKn_11yoke_derive20yokeable_derive_impls0_0EE9from_iterB3V_, symObjAddr: 0x118C, symBinAddr: 0x3D224, symSize: 0x2C }
  - { offset: 0x7C8AD, size: 0x8, addend: 0x0, symName: __RNvXNtNtCsdze8u8oDPro_5alloc3vec14spec_from_iterINtB4_3VecNtNtCsATtFUPiRFW_3syn8generics14WherePredicateEINtB2_12SpecFromIterBU_INtNtNtNtCs9f3LFPSIp77_4core4iter8adapters3map3MapINtNtNtB2b_5slice4iter4IterNtCs475r2uZUTuc_11proc_macro25IdentENCNvCs7oyfuZDlTKn_11yoke_derive20yokeable_derive_impls2_0EE9from_iterB3V_, symObjAddr: 0x11B8, symBinAddr: 0x3D250, symSize: 0x2C }
  - { offset: 0x7C8EB, size: 0x8, addend: 0x0, symName: __RNvXNtNtCsdze8u8oDPro_5alloc3vec14spec_from_iterINtB4_3VecNtNtCsATtFUPiRFW_3syn8generics9TypeParamEINtB2_12SpecFromIterBU_INtNtNtNtCs9f3LFPSIp77_4core4iter8adapters3map3MapNtBW_10TypeParamsNCNvCs7oyfuZDlTKn_11yoke_derive20yokeable_derive_impl0EE9from_iterB35_, symObjAddr: 0x11E4, symBinAddr: 0x3D27C, symSize: 0x2C }
  - { offset: 0x7C935, size: 0x8, addend: 0x0, symName: __RNvXNtNtCsdze8u8oDPro_5alloc3vec21spec_from_iter_nestedINtB4_3VecNtNtCsATtFUPiRFW_3syn8generics9TypeParamEINtB2_18SpecFromIterNestedB11_INtNtNtNtCs9f3LFPSIp77_4core4iter8adapters3map3MapNtB13_10TypeParamsNCNvCs7oyfuZDlTKn_11yoke_derive20yokeable_derive_impl0EE9from_iterB3k_, symObjAddr: 0x1210, symBinAddr: 0x3D2A8, symSize: 0x254 }
  - { offset: 0x7CC4D, size: 0x8, addend: 0x0, symName: __RNvXs_NtNtCsdze8u8oDPro_5alloc3vec21spec_from_iter_nestedINtB6_3VecNtCs475r2uZUTuc_11proc_macro25IdentEINtB4_18SpecFromIterNestedB13_INtNtNtNtCs9f3LFPSIp77_4core4iter8adapters3map3MapINtNtNtB2g_5slice4iter4IterNtNtCsATtFUPiRFW_3syn8generics9TypeParamENCNvCs7oyfuZDlTKn_11yoke_derive20yokeable_derive_impls_0EE9from_iterB45_, symObjAddr: 0x19D8, symBinAddr: 0x3DA70, symSize: 0x160 }
  - { offset: 0x7CD23, size: 0x8, addend: 0x0, symName: __RNvXs_NtNtCsdze8u8oDPro_5alloc3vec21spec_from_iter_nestedINtB6_3VecNtNtCsATtFUPiRFW_3syn8generics14WherePredicateEINtB4_18SpecFromIterNestedB13_INtNtNtNtCs9f3LFPSIp77_4core4iter8adapters3map3MapINtNtNtB2r_5slice4iter4IterNtCs475r2uZUTuc_11proc_macro25IdentENCNvCs7oyfuZDlTKn_11yoke_derive20yokeable_derive_impls0_0EE9from_iterB4b_, symObjAddr: 0x1B38, symBinAddr: 0x3DBD0, symSize: 0x160 }
  - { offset: 0x7CDF9, size: 0x8, addend: 0x0, symName: __RNvXs_NtNtCsdze8u8oDPro_5alloc3vec21spec_from_iter_nestedINtB6_3VecNtNtCsATtFUPiRFW_3syn8generics14WherePredicateEINtB4_18SpecFromIterNestedB13_INtNtNtNtCs9f3LFPSIp77_4core4iter8adapters3map3MapINtNtNtB2r_5slice4iter4IterNtCs475r2uZUTuc_11proc_macro25IdentENCNvCs7oyfuZDlTKn_11yoke_derive20yokeable_derive_impls2_0EE9from_iterB4b_, symObjAddr: 0x1C98, symBinAddr: 0x3DD30, symSize: 0x160 }
  - { offset: 0x7CED6, size: 0x8, addend: 0x0, symName: __RNvXs6_NtCsdze8u8oDPro_5alloc3vecINtB5_3VecNtCs475r2uZUTuc_11proc_macro25IdentENtNtNtCs9f3LFPSIp77_4core3ops5deref5Deref5derefCs7oyfuZDlTKn_11yoke_derive, symObjAddr: 0x150C, symBinAddr: 0x3D5A4, symSize: 0x24 }
  - { offset: 0x7CF16, size: 0x8, addend: 0x0, symName: __RNvXs6_NtCsdze8u8oDPro_5alloc3vecINtB5_3VecNtNtCsATtFUPiRFW_3syn8generics9TypeParamENtNtNtCs9f3LFPSIp77_4core3ops5deref5Deref5derefCs7oyfuZDlTKn_11yoke_derive, symObjAddr: 0x1530, symBinAddr: 0x3D5C8, symSize: 0x24 }
  - { offset: 0x7CF61, size: 0x8, addend: 0x0, symName: __RNvXs_NtNtCsdze8u8oDPro_5alloc3vec16in_place_collectINtB6_3VecNtNtCsATtFUPiRFW_3syn4attr9AttributeEINtNtB6_14spec_from_iter12SpecFromIterBY_INtNtNtNtCs9f3LFPSIp77_4core4iter8adapters3map3MapINtNtB6_9into_iter8IntoIterBY_ENCINvNtNtB12_3gen4fold8fold_vecBY_NtNvCs7oyfuZDlTKn_11yoke_derive16replace_lifetime15ReplaceLifetimeNvYB45_NtB3C_4Fold14fold_attributeE0EE9from_iterB49_, symObjAddr: 0x15F0, symBinAddr: 0x3D688, symSize: 0x28 }
  - { offset: 0x7CFBD, size: 0x8, addend: 0x0, symName: __RNvXs_NtNtCsdze8u8oDPro_5alloc3vec16in_place_collectINtB6_3VecNtNtCsATtFUPiRFW_3syn4expr3ArmEINtNtB6_14spec_from_iter12SpecFromIterBY_INtNtNtNtCs9f3LFPSIp77_4core4iter8adapters3map3MapINtNtB6_9into_iter8IntoIterBY_ENCINvNtNtB12_3gen4fold8fold_vecBY_NtNvCs7oyfuZDlTKn_11yoke_derive16replace_lifetime15ReplaceLifetimeNvYB3Z_NtB3w_4Fold8fold_armE0EE9from_iterB43_, symObjAddr: 0x1618, symBinAddr: 0x3D6B0, symSize: 0x28 }
  - { offset: 0x7D019, size: 0x8, addend: 0x0, symName: __RNvXs_NtNtCsdze8u8oDPro_5alloc3vec16in_place_collectINtB6_3VecNtNtCsATtFUPiRFW_3syn4item11ForeignItemEINtNtB6_14spec_from_iter12SpecFromIterBY_INtNtNtNtCs9f3LFPSIp77_4core4iter8adapters3map3MapINtNtB6_9into_iter8IntoIterBY_ENCINvNtNtB12_3gen4fold8fold_vecBY_NtNvCs7oyfuZDlTKn_11yoke_derive16replace_lifetime15ReplaceLifetimeNvYB48_NtB3F_4Fold17fold_foreign_itemE0EE9from_iterB4c_, symObjAddr: 0x1640, symBinAddr: 0x3D6D8, symSize: 0x28 }
  - { offset: 0x7D075, size: 0x8, addend: 0x0, symName: __RNvXs_NtNtCsdze8u8oDPro_5alloc3vec16in_place_collectINtB6_3VecNtNtCsATtFUPiRFW_3syn4item4ItemEINtNtB6_14spec_from_iter12SpecFromIterBY_INtNtNtNtCs9f3LFPSIp77_4core4iter8adapters3map3MapINtNtB6_9into_iter8IntoIterBY_ENCINvNtNtB12_3gen4fold8fold_vecBY_NtNvCs7oyfuZDlTKn_11yoke_derive16replace_lifetime15ReplaceLifetimeNvYB40_NtB3x_4Fold9fold_itemE0EE9from_iterB44_, symObjAddr: 0x1668, symBinAddr: 0x3D700, symSize: 0x28 }
  - { offset: 0x7D0D1, size: 0x8, addend: 0x0, symName: __RNvXs_NtNtCsdze8u8oDPro_5alloc3vec16in_place_collectINtB6_3VecNtNtCsATtFUPiRFW_3syn4item8ImplItemEINtNtB6_14spec_from_iter12SpecFromIterBY_INtNtNtNtCs9f3LFPSIp77_4core4iter8adapters3map3MapINtNtB6_9into_iter8IntoIterBY_ENCINvNtNtB12_3gen4fold8fold_vecBY_NtNvCs7oyfuZDlTKn_11yoke_derive16replace_lifetime15ReplaceLifetimeNvYB44_NtB3B_4Fold14fold_impl_itemE0EE9from_iterB48_, symObjAddr: 0x1690, symBinAddr: 0x3D728, symSize: 0x28 }
  - { offset: 0x7D12D, size: 0x8, addend: 0x0, symName: __RNvXs_NtNtCsdze8u8oDPro_5alloc3vec16in_place_collectINtB6_3VecNtNtCsATtFUPiRFW_3syn4item9TraitItemEINtNtB6_14spec_from_iter12SpecFromIterBY_INtNtNtNtCs9f3LFPSIp77_4core4iter8adapters3map3MapINtNtB6_9into_iter8IntoIterBY_ENCINvNtNtB12_3gen4fold8fold_vecBY_NtNvCs7oyfuZDlTKn_11yoke_derive16replace_lifetime15ReplaceLifetimeNvYB45_NtB3C_4Fold15fold_trait_itemE0EE9from_iterB49_, symObjAddr: 0x16B8, symBinAddr: 0x3D750, symSize: 0x28 }
  - { offset: 0x7D189, size: 0x8, addend: 0x0, symName: __RNvXs_NtNtCsdze8u8oDPro_5alloc3vec16in_place_collectINtB6_3VecNtNtCsATtFUPiRFW_3syn4stmt4StmtEINtNtB6_14spec_from_iter12SpecFromIterBY_INtNtNtNtCs9f3LFPSIp77_4core4iter8adapters3map3MapINtNtB6_9into_iter8IntoIterBY_ENCINvNtNtB12_3gen4fold8fold_vecBY_NtNvCs7oyfuZDlTKn_11yoke_derive16replace_lifetime15ReplaceLifetimeNvYB40_NtB3x_4Fold9fold_stmtE0EE9from_iterB44_, symObjAddr: 0x16E0, symBinAddr: 0x3D778, symSize: 0x28 }
  - { offset: 0x7D1E5, size: 0x8, addend: 0x0, symName: __RNvXs_NtNtCsdze8u8oDPro_5alloc3vec16in_place_collectINtB6_3VecTNtNtCsATtFUPiRFW_3syn2ty4TypeNtNtB13_5token5CommaEEINtNtB6_14spec_from_iter12SpecFromIterBY_INtNtNtNtCs9f3LFPSIp77_4core4iter8adapters3map3MapINtNtB6_9into_iter8IntoIterBY_ENCINvNtB13_10punctuated4foldBZ_B1s_NtNvCs7oyfuZDlTKn_11yoke_derive16replace_lifetime15ReplaceLifetimeNvYB4l_NtNtNtB13_3gen4fold4Fold9fold_typeE0EE9from_iterB4p_, symObjAddr: 0x1708, symBinAddr: 0x3D7A0, symSize: 0x28 }
  - { offset: 0x7D241, size: 0x8, addend: 0x0, symName: __RNvXs_NtNtCsdze8u8oDPro_5alloc3vec16in_place_collectINtB6_3VecTNtNtCsATtFUPiRFW_3syn2ty9BareFnArgNtNtB13_5token5CommaEEINtNtB6_14spec_from_iter12SpecFromIterBY_INtNtNtNtCs9f3LFPSIp77_4core4iter8adapters3map3MapINtNtB6_9into_iter8IntoIterBY_ENCINvNtB13_10punctuated4foldBZ_B1x_NtNvCs7oyfuZDlTKn_11yoke_derive16replace_lifetime15ReplaceLifetimeNvYB4q_NtNtNtB13_3gen4fold4Fold16fold_bare_fn_argE0EE9from_iterB4u_, symObjAddr: 0x1730, symBinAddr: 0x3D7C8, symSize: 0x28 }
  - { offset: 0x7D29D, size: 0x8, addend: 0x0, symName: __RNvXs_NtNtCsdze8u8oDPro_5alloc3vec16in_place_collectINtB6_3VecTNtNtCsATtFUPiRFW_3syn3pat3PatNtNtB13_5token2OrEEINtNtB6_14spec_from_iter12SpecFromIterBY_INtNtNtNtCs9f3LFPSIp77_4core4iter8adapters3map3MapINtNtB6_9into_iter8IntoIterBY_ENCINvNtB13_10punctuated4foldBZ_B1s_NtNvCs7oyfuZDlTKn_11yoke_derive16replace_lifetime15ReplaceLifetimeNvYB4i_NtNtNtB13_3gen4fold4Fold8fold_patE0EE9from_iterB4m_, symObjAddr: 0x1758, symBinAddr: 0x3D7F0, symSize: 0x28 }
  - { offset: 0x7D2F9, size: 0x8, addend: 0x0, symName: __RNvXs_NtNtCsdze8u8oDPro_5alloc3vec16in_place_collectINtB6_3VecTNtNtCsATtFUPiRFW_3syn3pat3PatNtNtB13_5token5CommaEEINtNtB6_14spec_from_iter12SpecFromIterBY_INtNtNtNtCs9f3LFPSIp77_4core4iter8adapters3map3MapINtNtB6_9into_iter8IntoIterBY_ENCINvNtB13_10punctuated4foldBZ_B1s_NtNvCs7oyfuZDlTKn_11yoke_derive16replace_lifetime15ReplaceLifetimeNvYB4l_NtNtNtB13_3gen4fold4Fold8fold_patE0EE9from_iterB4p_, symObjAddr: 0x1780, symBinAddr: 0x3D818, symSize: 0x28 }
  - { offset: 0x7D355, size: 0x8, addend: 0x0, symName: __RNvXs_NtNtCsdze8u8oDPro_5alloc3vec16in_place_collectINtB6_3VecTNtNtCsATtFUPiRFW_3syn3pat8FieldPatNtNtB13_5token5CommaEEINtNtB6_14spec_from_iter12SpecFromIterBY_INtNtNtNtCs9f3LFPSIp77_4core4iter8adapters3map3MapINtNtB6_9into_iter8IntoIterBY_ENCINvNtB13_10punctuated4foldBZ_B1x_NtNvCs7oyfuZDlTKn_11yoke_derive16replace_lifetime15ReplaceLifetimeNvYB4q_NtNtNtB13_3gen4fold4Fold14fold_field_patE0EE9from_iterB4u_, symObjAddr: 0x17A8, symBinAddr: 0x3D840, symSize: 0x28 }
  - { offset: 0x7D3B1, size: 0x8, addend: 0x0, symName: __RNvXs_NtNtCsdze8u8oDPro_5alloc3vec16in_place_collectINtB6_3VecTNtNtCsATtFUPiRFW_3syn4data5FieldNtNtB13_5token5CommaEEINtNtB6_14spec_from_iter12SpecFromIterBY_INtNtNtNtCs9f3LFPSIp77_4core4iter8adapters3map3MapINtNtB6_9into_iter8IntoIterBY_ENCINvNtB13_10punctuated4foldBZ_B1v_NtNvCs7oyfuZDlTKn_11yoke_derive16replace_lifetime15ReplaceLifetimeNvYB4o_NtNtNtB13_3gen4fold4Fold10fold_fieldE0EE9from_iterB4s_, symObjAddr: 0x17D0, symBinAddr: 0x3D868, symSize: 0x28 }
  - { offset: 0x7D40D, size: 0x8, addend: 0x0, symName: __RNvXs_NtNtCsdze8u8oDPro_5alloc3vec16in_place_collectINtB6_3VecTNtNtCsATtFUPiRFW_3syn4data7VariantNtNtB13_5token5CommaEEINtNtB6_14spec_from_iter12SpecFromIterBY_INtNtNtNtCs9f3LFPSIp77_4core4iter8adapters3map3MapINtNtB6_9into_iter8IntoIterBY_ENCINvNtB13_10punctuated4foldBZ_B1x_NtNvCs7oyfuZDlTKn_11yoke_derive16replace_lifetime15ReplaceLifetimeNvYB4q_NtNtNtB13_3gen4fold4Fold12fold_variantE0EE9from_iterB4u_, symObjAddr: 0x17F8, symBinAddr: 0x3D890, symSize: 0x28 }
  - { offset: 0x7D469, size: 0x8, addend: 0x0, symName: __RNvXs_NtNtCsdze8u8oDPro_5alloc3vec16in_place_collectINtB6_3VecTNtNtCsATtFUPiRFW_3syn4expr10FieldValueNtNtB13_5token5CommaEEINtNtB6_14spec_from_iter12SpecFromIterBY_INtNtNtNtCs9f3LFPSIp77_4core4iter8adapters3map3MapINtNtB6_9into_iter8IntoIterBY_ENCINvNtB13_10punctuated4foldBZ_B1B_NtNvCs7oyfuZDlTKn_11yoke_derive16replace_lifetime15ReplaceLifetimeNvYB4u_NtNtNtB13_3gen4fold4Fold16fold_field_valueE0EE9from_iterB4y_, symObjAddr: 0x1820, symBinAddr: 0x3D8B8, symSize: 0x28 }
  - { offset: 0x7D4C5, size: 0x8, addend: 0x0, symName: __RNvXs_NtNtCsdze8u8oDPro_5alloc3vec16in_place_collectINtB6_3VecTNtNtCsATtFUPiRFW_3syn4expr4ExprNtNtB13_5token5CommaEEINtNtB6_14spec_from_iter12SpecFromIterBY_INtNtNtNtCs9f3LFPSIp77_4core4iter8adapters3map3MapINtNtB6_9into_iter8IntoIterBY_ENCINvNtB13_10punctuated4foldBZ_B1u_NtNvCs7oyfuZDlTKn_11yoke_derive16replace_lifetime15ReplaceLifetimeNvYB4n_NtNtNtB13_3gen4fold4Fold9fold_exprE0EE9from_iterB4r_, symObjAddr: 0x1848, symBinAddr: 0x3D8E0, symSize: 0x28 }
  - { offset: 0x7D521, size: 0x8, addend: 0x0, symName: __RNvXs_NtNtCsdze8u8oDPro_5alloc3vec16in_place_collectINtB6_3VecTNtNtCsATtFUPiRFW_3syn4item5FnArgNtNtB13_5token5CommaEEINtNtB6_14spec_from_iter12SpecFromIterBY_INtNtNtNtCs9f3LFPSIp77_4core4iter8adapters3map3MapINtNtB6_9into_iter8IntoIterBY_ENCINvNtB13_10punctuated4foldBZ_B1v_NtNvCs7oyfuZDlTKn_11yoke_derive16replace_lifetime15ReplaceLifetimeNvYB4o_NtNtNtB13_3gen4fold4Fold11fold_fn_argE0EE9from_iterB4s_, symObjAddr: 0x1870, symBinAddr: 0x3D908, symSize: 0x28 }
  - { offset: 0x7D57D, size: 0x8, addend: 0x0, symName: __RNvXs_NtNtCsdze8u8oDPro_5alloc3vec16in_place_collectINtB6_3VecTNtNtCsATtFUPiRFW_3syn4item7UseTreeNtNtB13_5token5CommaEEINtNtB6_14spec_from_iter12SpecFromIterBY_INtNtNtNtCs9f3LFPSIp77_4core4iter8adapters3map3MapINtNtB6_9into_iter8IntoIterBY_ENCINvNtB13_10punctuated4foldBZ_B1x_NtNvCs7oyfuZDlTKn_11yoke_derive16replace_lifetime15ReplaceLifetimeNvYB4q_NtNtNtB13_3gen4fold4Fold13fold_use_treeE0EE9from_iterB4u_, symObjAddr: 0x1898, symBinAddr: 0x3D930, symSize: 0x28 }
  - { offset: 0x7D5D9, size: 0x8, addend: 0x0, symName: __RNvXs_NtNtCsdze8u8oDPro_5alloc3vec16in_place_collectINtB6_3VecTNtNtCsATtFUPiRFW_3syn4path11PathSegmentNtNtB13_5token7PathSepEEINtNtB6_14spec_from_iter12SpecFromIterBY_INtNtNtNtCs9f3LFPSIp77_4core4iter8adapters3map3MapINtNtB6_9into_iter8IntoIterBY_ENCINvNtB13_10punctuated4foldBZ_B1C_NtNvCs7oyfuZDlTKn_11yoke_derive16replace_lifetime15ReplaceLifetimeNvYB4x_NtNtNtB13_3gen4fold4Fold17fold_path_segmentE0EE9from_iterB4B_, symObjAddr: 0x18C0, symBinAddr: 0x3D958, symSize: 0x28 }
  - { offset: 0x7D635, size: 0x8, addend: 0x0, symName: __RNvXs_NtNtCsdze8u8oDPro_5alloc3vec16in_place_collectINtB6_3VecTNtNtCsATtFUPiRFW_3syn4path15GenericArgumentNtNtB13_5token5CommaEEINtNtB6_14spec_from_iter12SpecFromIterBY_INtNtNtNtCs9f3LFPSIp77_4core4iter8adapters3map3MapINtNtB6_9into_iter8IntoIterBY_ENCINvNtB13_10punctuated4foldBZ_B1G_NtNvCs7oyfuZDlTKn_11yoke_derive16replace_lifetime15ReplaceLifetimeNvYB4z_NtNtNtB13_3gen4fold4Fold21fold_generic_argumentE0EE9from_iterB4D_, symObjAddr: 0x18E8, symBinAddr: 0x3D980, symSize: 0x28 }
  - { offset: 0x7D691, size: 0x8, addend: 0x0, symName: __RNvXs_NtNtCsdze8u8oDPro_5alloc3vec16in_place_collectINtB6_3VecTNtNtCsATtFUPiRFW_3syn8generics12GenericParamNtNtB13_5token5CommaEEINtNtB6_14spec_from_iter12SpecFromIterBY_INtNtNtNtCs9f3LFPSIp77_4core4iter8adapters3map3MapINtNtB6_9into_iter8IntoIterBY_ENCINvNtB13_10punctuated4foldBZ_B1H_NtNvCs7oyfuZDlTKn_11yoke_derive16replace_lifetime15ReplaceLifetimeNvYB4A_NtNtNtB13_3gen4fold4Fold18fold_generic_paramE0EE9from_iterB4E_, symObjAddr: 0x1910, symBinAddr: 0x3D9A8, symSize: 0x28 }
  - { offset: 0x7D6ED, size: 0x8, addend: 0x0, symName: __RNvXs_NtNtCsdze8u8oDPro_5alloc3vec16in_place_collectINtB6_3VecTNtNtCsATtFUPiRFW_3syn8generics13CapturedParamNtNtB13_5token5CommaEEINtNtB6_14spec_from_iter12SpecFromIterBY_INtNtNtNtCs9f3LFPSIp77_4core4iter8adapters3map3MapINtNtB6_9into_iter8IntoIterBY_ENCINvNtB13_10punctuated4foldBZ_B1I_NtNvCs7oyfuZDlTKn_11yoke_derive16replace_lifetime15ReplaceLifetimeNvYB4B_NtNtNtB13_3gen4fold4Fold19fold_captured_paramE0EE9from_iterB4F_, symObjAddr: 0x1938, symBinAddr: 0x3D9D0, symSize: 0x28 }
  - { offset: 0x7D749, size: 0x8, addend: 0x0, symName: __RNvXs_NtNtCsdze8u8oDPro_5alloc3vec16in_place_collectINtB6_3VecTNtNtCsATtFUPiRFW_3syn8generics14TypeParamBoundNtNtB13_5token4PlusEEINtNtB6_14spec_from_iter12SpecFromIterBY_INtNtNtNtCs9f3LFPSIp77_4core4iter8adapters3map3MapINtNtB6_9into_iter8IntoIterBY_ENCINvNtB13_10punctuated4foldBZ_B1J_NtNvCs7oyfuZDlTKn_11yoke_derive16replace_lifetime15ReplaceLifetimeNvYB4B_NtNtNtB13_3gen4fold4Fold21fold_type_param_boundE0EE9from_iterB4F_, symObjAddr: 0x1960, symBinAddr: 0x3D9F8, symSize: 0x28 }
  - { offset: 0x7D7A5, size: 0x8, addend: 0x0, symName: __RNvXs_NtNtCsdze8u8oDPro_5alloc3vec16in_place_collectINtB6_3VecTNtNtCsATtFUPiRFW_3syn8generics14WherePredicateNtNtB13_5token5CommaEEINtNtB6_14spec_from_iter12SpecFromIterBY_INtNtNtNtCs9f3LFPSIp77_4core4iter8adapters3map3MapINtNtB6_9into_iter8IntoIterBY_ENCINvNtB13_10punctuated4foldBZ_B1J_NtNvCs7oyfuZDlTKn_11yoke_derive16replace_lifetime15ReplaceLifetimeNvYB4C_NtNtNtB13_3gen4fold4Fold20fold_where_predicateE0EE9from_iterB4G_, symObjAddr: 0x1988, symBinAddr: 0x3DA20, symSize: 0x28 }
  - { offset: 0x7D801, size: 0x8, addend: 0x0, symName: __RNvXs_NtNtCsdze8u8oDPro_5alloc3vec16in_place_collectINtB6_3VecTNtNtCsATtFUPiRFW_3syn8lifetime8LifetimeNtNtB13_5token4PlusEEINtNtB6_14spec_from_iter12SpecFromIterBY_INtNtNtNtCs9f3LFPSIp77_4core4iter8adapters3map3MapINtNtB6_9into_iter8IntoIterBY_ENCINvNtB13_10punctuated4foldBZ_B1C_NtNvCs7oyfuZDlTKn_11yoke_derive16replace_lifetime15ReplaceLifetimeNvYB4u_NtNtNtB13_3gen4fold4Fold13fold_lifetimeE0EE9from_iterB4y_, symObjAddr: 0x19B0, symBinAddr: 0x3DA48, symSize: 0x28 }
  - { offset: 0x7D864, size: 0x8, addend: 0x0, symName: __RNvXse_NtCsdze8u8oDPro_5alloc3vecINtB5_3VecNtNtCsATtFUPiRFW_3syn4expr3ArmENtNtNtNtCs9f3LFPSIp77_4core4iter6traits7collect12IntoIterator9into_iterCs7oyfuZDlTKn_11yoke_derive, symObjAddr: 0x1DF8, symBinAddr: 0x3DE90, symSize: 0x100 }
  - { offset: 0x7DB33, size: 0x8, addend: 0x0, symName: __RNvXse_NtCsdze8u8oDPro_5alloc3vecINtB5_3VecNtNtCsATtFUPiRFW_3syn4item11ForeignItemENtNtNtNtCs9f3LFPSIp77_4core4iter6traits7collect12IntoIterator9into_iterCs7oyfuZDlTKn_11yoke_derive, symObjAddr: 0x1EF8, symBinAddr: 0x3DF90, symSize: 0x100 }
  - { offset: 0x7DE02, size: 0x8, addend: 0x0, symName: __RNvXse_NtCsdze8u8oDPro_5alloc3vecINtB5_3VecNtNtCsATtFUPiRFW_3syn4item4ItemENtNtNtNtCs9f3LFPSIp77_4core4iter6traits7collect12IntoIterator9into_iterCs7oyfuZDlTKn_11yoke_derive, symObjAddr: 0x1FF8, symBinAddr: 0x3E090, symSize: 0x100 }
  - { offset: 0x7E0D1, size: 0x8, addend: 0x0, symName: __RNvXse_NtCsdze8u8oDPro_5alloc3vecINtB5_3VecNtNtCsATtFUPiRFW_3syn4item8ImplItemENtNtNtNtCs9f3LFPSIp77_4core4iter6traits7collect12IntoIterator9into_iterCs7oyfuZDlTKn_11yoke_derive, symObjAddr: 0x20F8, symBinAddr: 0x3E190, symSize: 0x100 }
  - { offset: 0x7E3A0, size: 0x8, addend: 0x0, symName: __RNvXse_NtCsdze8u8oDPro_5alloc3vecINtB5_3VecNtNtCsATtFUPiRFW_3syn4item9TraitItemENtNtNtNtCs9f3LFPSIp77_4core4iter6traits7collect12IntoIterator9into_iterCs7oyfuZDlTKn_11yoke_derive, symObjAddr: 0x21F8, symBinAddr: 0x3E290, symSize: 0x100 }
  - { offset: 0x7E66F, size: 0x8, addend: 0x0, symName: __RNvXse_NtCsdze8u8oDPro_5alloc3vecINtB5_3VecNtNtCsATtFUPiRFW_3syn4stmt4StmtENtNtNtNtCs9f3LFPSIp77_4core4iter6traits7collect12IntoIterator9into_iterCs7oyfuZDlTKn_11yoke_derive, symObjAddr: 0x22F8, symBinAddr: 0x3E390, symSize: 0x100 }
  - { offset: 0x7E93E, size: 0x8, addend: 0x0, symName: __RNvXse_NtCsdze8u8oDPro_5alloc3vecINtB5_3VecTNtNtCsATtFUPiRFW_3syn2ty4TypeNtNtBK_5token5CommaEENtNtNtNtCs9f3LFPSIp77_4core4iter6traits7collect12IntoIterator9into_iterCs7oyfuZDlTKn_11yoke_derive, symObjAddr: 0x23F8, symBinAddr: 0x3E490, symSize: 0x100 }
  - { offset: 0x7EC0D, size: 0x8, addend: 0x0, symName: __RNvXse_NtCsdze8u8oDPro_5alloc3vecINtB5_3VecTNtNtCsATtFUPiRFW_3syn2ty9BareFnArgNtNtBK_5token5CommaEENtNtNtNtCs9f3LFPSIp77_4core4iter6traits7collect12IntoIterator9into_iterCs7oyfuZDlTKn_11yoke_derive, symObjAddr: 0x24F8, symBinAddr: 0x3E590, symSize: 0x100 }
  - { offset: 0x7EEDC, size: 0x8, addend: 0x0, symName: __RNvXse_NtCsdze8u8oDPro_5alloc3vecINtB5_3VecTNtNtCsATtFUPiRFW_3syn3pat3PatNtNtBK_5token2OrEENtNtNtNtCs9f3LFPSIp77_4core4iter6traits7collect12IntoIterator9into_iterCs7oyfuZDlTKn_11yoke_derive, symObjAddr: 0x25F8, symBinAddr: 0x3E690, symSize: 0x100 }
  - { offset: 0x7F1AB, size: 0x8, addend: 0x0, symName: __RNvXse_NtCsdze8u8oDPro_5alloc3vecINtB5_3VecTNtNtCsATtFUPiRFW_3syn3pat3PatNtNtBK_5token5CommaEENtNtNtNtCs9f3LFPSIp77_4core4iter6traits7collect12IntoIterator9into_iterCs7oyfuZDlTKn_11yoke_derive, symObjAddr: 0x26F8, symBinAddr: 0x3E790, symSize: 0x100 }
  - { offset: 0x7F47A, size: 0x8, addend: 0x0, symName: __RNvXse_NtCsdze8u8oDPro_5alloc3vecINtB5_3VecTNtNtCsATtFUPiRFW_3syn3pat8FieldPatNtNtBK_5token5CommaEENtNtNtNtCs9f3LFPSIp77_4core4iter6traits7collect12IntoIterator9into_iterCs7oyfuZDlTKn_11yoke_derive, symObjAddr: 0x27F8, symBinAddr: 0x3E890, symSize: 0x100 }
  - { offset: 0x7F749, size: 0x8, addend: 0x0, symName: __RNvXse_NtCsdze8u8oDPro_5alloc3vecINtB5_3VecTNtNtCsATtFUPiRFW_3syn4data7VariantNtNtBK_5token5CommaEENtNtNtNtCs9f3LFPSIp77_4core4iter6traits7collect12IntoIterator9into_iterCs7oyfuZDlTKn_11yoke_derive, symObjAddr: 0x28F8, symBinAddr: 0x3E990, symSize: 0x100 }
  - { offset: 0x7FA18, size: 0x8, addend: 0x0, symName: __RNvXse_NtCsdze8u8oDPro_5alloc3vecINtB5_3VecTNtNtCsATtFUPiRFW_3syn4expr10FieldValueNtNtBK_5token5CommaEENtNtNtNtCs9f3LFPSIp77_4core4iter6traits7collect12IntoIterator9into_iterCs7oyfuZDlTKn_11yoke_derive, symObjAddr: 0x29F8, symBinAddr: 0x3EA90, symSize: 0x100 }
  - { offset: 0x7FCE7, size: 0x8, addend: 0x0, symName: __RNvXse_NtCsdze8u8oDPro_5alloc3vecINtB5_3VecTNtNtCsATtFUPiRFW_3syn4expr4ExprNtNtBK_5token5CommaEENtNtNtNtCs9f3LFPSIp77_4core4iter6traits7collect12IntoIterator9into_iterCs7oyfuZDlTKn_11yoke_derive, symObjAddr: 0x2AF8, symBinAddr: 0x3EB90, symSize: 0x100 }
  - { offset: 0x7FFB6, size: 0x8, addend: 0x0, symName: __RNvXse_NtCsdze8u8oDPro_5alloc3vecINtB5_3VecTNtNtCsATtFUPiRFW_3syn4item5FnArgNtNtBK_5token5CommaEENtNtNtNtCs9f3LFPSIp77_4core4iter6traits7collect12IntoIterator9into_iterCs7oyfuZDlTKn_11yoke_derive, symObjAddr: 0x2BF8, symBinAddr: 0x3EC90, symSize: 0x100 }
  - { offset: 0x80285, size: 0x8, addend: 0x0, symName: __RNvXse_NtCsdze8u8oDPro_5alloc3vecINtB5_3VecTNtNtCsATtFUPiRFW_3syn4item7UseTreeNtNtBK_5token5CommaEENtNtNtNtCs9f3LFPSIp77_4core4iter6traits7collect12IntoIterator9into_iterCs7oyfuZDlTKn_11yoke_derive, symObjAddr: 0x2CF8, symBinAddr: 0x3ED90, symSize: 0x100 }
  - { offset: 0x80554, size: 0x8, addend: 0x0, symName: __RNvXse_NtCsdze8u8oDPro_5alloc3vecINtB5_3VecTNtNtCsATtFUPiRFW_3syn4path15GenericArgumentNtNtBK_5token5CommaEENtNtNtNtCs9f3LFPSIp77_4core4iter6traits7collect12IntoIterator9into_iterCs7oyfuZDlTKn_11yoke_derive, symObjAddr: 0x2DF8, symBinAddr: 0x3EE90, symSize: 0x100 }
  - { offset: 0x80823, size: 0x8, addend: 0x0, symName: __RNvXse_NtCsdze8u8oDPro_5alloc3vecINtB5_3VecTNtNtCsATtFUPiRFW_3syn8generics12GenericParamNtNtBK_5token5CommaEENtNtNtNtCs9f3LFPSIp77_4core4iter6traits7collect12IntoIterator9into_iterCs7oyfuZDlTKn_11yoke_derive, symObjAddr: 0x2EF8, symBinAddr: 0x3EF90, symSize: 0x100 }
  - { offset: 0x80AF2, size: 0x8, addend: 0x0, symName: __RNvXse_NtCsdze8u8oDPro_5alloc3vecINtB5_3VecTNtNtCsATtFUPiRFW_3syn8generics13CapturedParamNtNtBK_5token5CommaEENtNtNtNtCs9f3LFPSIp77_4core4iter6traits7collect12IntoIterator9into_iterCs7oyfuZDlTKn_11yoke_derive, symObjAddr: 0x2FF8, symBinAddr: 0x3F090, symSize: 0x100 }
  - { offset: 0x80DC1, size: 0x8, addend: 0x0, symName: __RNvXse_NtCsdze8u8oDPro_5alloc3vecINtB5_3VecTNtNtCsATtFUPiRFW_3syn8generics14WherePredicateNtNtBK_5token5CommaEENtNtNtNtCs9f3LFPSIp77_4core4iter6traits7collect12IntoIterator9into_iterCs7oyfuZDlTKn_11yoke_derive, symObjAddr: 0x30F8, symBinAddr: 0x3F190, symSize: 0x100 }
  - { offset: 0x81090, size: 0x8, addend: 0x0, symName: __RNvXse_NtCsdze8u8oDPro_5alloc3vecINtB5_3VecTNtNtCsATtFUPiRFW_3syn8lifetime8LifetimeNtNtBK_5token4PlusEENtNtNtNtCs9f3LFPSIp77_4core4iter6traits7collect12IntoIterator9into_iterCs7oyfuZDlTKn_11yoke_derive, symObjAddr: 0x31F8, symBinAddr: 0x3F290, symSize: 0x100 }
  - { offset: 0x81481, size: 0x8, addend: 0x0, symName: __RNvXsg_NtCsdze8u8oDPro_5alloc3vecQINtB5_3VecNtCsf2dEI6IRrE1_12synstructure11BindingInfoENtNtNtNtCs9f3LFPSIp77_4core4iter6traits7collect12IntoIterator9into_iterCs7oyfuZDlTKn_11yoke_derive, symObjAddr: 0x32F8, symBinAddr: 0x3F390, symSize: 0xBC }
  - { offset: 0x816EF, size: 0x8, addend: 0x0, symName: __RNvXsg_NtCsdze8u8oDPro_5alloc3vecQINtB5_3VecNtCsf2dEI6IRrE1_12synstructure11VariantInfoENtNtNtNtCs9f3LFPSIp77_4core4iter6traits7collect12IntoIterator9into_iterCs7oyfuZDlTKn_11yoke_derive, symObjAddr: 0x33B4, symBinAddr: 0x3F44C, symSize: 0xBC }
  - { offset: 0x819E6, size: 0x8, addend: 0x0, symName: __RNvXsn_NtCsdze8u8oDPro_5alloc3vecINtB5_3VecNtCs475r2uZUTuc_11proc_macro25IdentENtNtNtCs9f3LFPSIp77_4core3ops4drop4Drop4dropCs7oyfuZDlTKn_11yoke_derive, symObjAddr: 0x3470, symBinAddr: 0x3F508, symSize: 0x50 }
  - { offset: 0x81AF3, size: 0x8, addend: 0x0, symName: __RNvXsn_NtCsdze8u8oDPro_5alloc3vecINtB5_3VecNtNtCsATtFUPiRFW_3syn8generics9TypeParamENtNtNtCs9f3LFPSIp77_4core3ops4drop4Drop4dropCs7oyfuZDlTKn_11yoke_derive, symObjAddr: 0x34C0, symBinAddr: 0x3F558, symSize: 0x50 }
  - { offset: 0x895C0, size: 0x8, addend: 0x0, symName: __RINvMsi_NtCsdze8u8oDPro_5alloc3vecINtB6_3VecNtCs475r2uZUTuc_11proc_macro25IdentE14extend_trustedINtNtNtNtCs9f3LFPSIp77_4core4iter8adapters3map3MapINtNtNtB1F_5slice4iter4IterNtNtCsATtFUPiRFW_3syn8generics9TypeParamENCNvCs7oyfuZDlTKn_11yoke_derive20yokeable_derive_impls_0EEB3u_, symObjAddr: 0x0, symBinAddr: 0x3C098, symSize: 0x184 }
  - { offset: 0x89976, size: 0x8, addend: 0x0, symName: __RINvMsi_NtCsdze8u8oDPro_5alloc3vecINtB6_3VecNtNtCsATtFUPiRFW_3syn8generics14WherePredicateE14extend_trustedINtNtNtNtCs9f3LFPSIp77_4core4iter8adapters3map3MapINtNtNtB1Q_5slice4iter4IterNtCs475r2uZUTuc_11proc_macro25IdentENCNvCs7oyfuZDlTKn_11yoke_derive20yokeable_derive_impls0_0EEB3A_, symObjAddr: 0x184, symBinAddr: 0x3C21C, symSize: 0x184 }
  - { offset: 0x89CEB, size: 0x8, addend: 0x0, symName: __RINvMsi_NtCsdze8u8oDPro_5alloc3vecINtB6_3VecNtNtCsATtFUPiRFW_3syn8generics14WherePredicateE14extend_trustedINtNtNtNtCs9f3LFPSIp77_4core4iter8adapters3map3MapINtNtNtB1Q_5slice4iter4IterNtCs475r2uZUTuc_11proc_macro25IdentENCNvCs7oyfuZDlTKn_11yoke_derive20yokeable_derive_impls2_0EEB3A_, symObjAddr: 0x308, symBinAddr: 0x3C3A0, symSize: 0x184 }
  - { offset: 0x8A15E, size: 0x8, addend: 0x0, symName: __RINvMsi_NtCsdze8u8oDPro_5alloc3vecINtB6_3VecNtNtCsATtFUPiRFW_3syn8generics9TypeParamE16extend_desugaredINtNtNtNtCs9f3LFPSIp77_4core4iter8adapters3map3MapNtBI_10TypeParamsNCNvCs7oyfuZDlTKn_11yoke_derive20yokeable_derive_impl0EEB2M_, symObjAddr: 0x48C, symBinAddr: 0x3C524, symSize: 0x20C }
  - { offset: 0x8A5A4, size: 0x8, addend: 0x0, symName: __RNvMs_NtCsdze8u8oDPro_5alloc3vecINtB4_3VecNtCs475r2uZUTuc_11proc_macro25IdentE7reserveCs7oyfuZDlTKn_11yoke_derive, symObjAddr: 0xDE8, symBinAddr: 0x3CE80, symSize: 0xC4 }
  - { offset: 0x8A802, size: 0x8, addend: 0x0, symName: __RNvMs_NtCsdze8u8oDPro_5alloc3vecINtB4_3VecNtCs475r2uZUTuc_11proc_macro25IdentE8as_sliceCs7oyfuZDlTKn_11yoke_derive, symObjAddr: 0xEAC, symBinAddr: 0x3CF44, symSize: 0x7C }
  - { offset: 0x8AA14, size: 0x8, addend: 0x0, symName: __RNvMs_NtCsdze8u8oDPro_5alloc3vecINtB4_3VecNtNtCsATtFUPiRFW_3syn8generics14WherePredicateE7reserveCs7oyfuZDlTKn_11yoke_derive, symObjAddr: 0xF28, symBinAddr: 0x3CFC0, symSize: 0xC4 }
  - { offset: 0x8AC64, size: 0x8, addend: 0x0, symName: __RNvMs_NtCsdze8u8oDPro_5alloc3vecINtB4_3VecNtNtCsATtFUPiRFW_3syn8generics9TypeParamE7reserveCs7oyfuZDlTKn_11yoke_derive, symObjAddr: 0xFEC, symBinAddr: 0x3D084, symSize: 0xC4 }
  - { offset: 0x8AEB5, size: 0x8, addend: 0x0, symName: __RNvMs_NtCsdze8u8oDPro_5alloc3vecINtB4_3VecNtNtCsATtFUPiRFW_3syn8generics9TypeParamE8as_sliceCs7oyfuZDlTKn_11yoke_derive, symObjAddr: 0x10B0, symBinAddr: 0x3D148, symSize: 0x7C }
  - { offset: 0x8B1FA, size: 0x8, addend: 0x0, symName: __RNvXs4_NtNtCs62MdaZFMefA_5quote9___private3extINtNtCsdze8u8oDPro_5alloc3vec3VecNtCs475r2uZUTuc_11proc_macro25IdentENtB5_16RepAsIteratorExt15quote_into_iterCs7oyfuZDlTKn_11yoke_derive, symObjAddr: 0x1464, symBinAddr: 0x3D4FC, symSize: 0x38 }
  - { offset: 0x8B22F, size: 0x8, addend: 0x0, symName: __RNvXs4_NtNtCs62MdaZFMefA_5quote9___private3extINtNtCsdze8u8oDPro_5alloc3vec3VecNtNtCsATtFUPiRFW_3syn8generics14WherePredicateENtB5_16RepAsIteratorExt15quote_into_iterCs7oyfuZDlTKn_11yoke_derive, symObjAddr: 0x149C, symBinAddr: 0x3D534, symSize: 0x38 }
  - { offset: 0x8B264, size: 0x8, addend: 0x0, symName: __RNvXs4_NtNtCs62MdaZFMefA_5quote9___private3extINtNtCsdze8u8oDPro_5alloc3vec3VecNtNtCsATtFUPiRFW_3syn8generics9TypeParamENtB5_16RepAsIteratorExt15quote_into_iterCs7oyfuZDlTKn_11yoke_derive, symObjAddr: 0x14D4, symBinAddr: 0x3D56C, symSize: 0x38 }
  - { offset: 0x8E75F, size: 0x8, addend: 0x0, symName: __RNvXs1_NtNtNtCs9f3LFPSIp77_4core3ops8function5implsQNCNvCs7oyfuZDlTKn_11yoke_derive20yokeable_derive_impls3_0INtB7_5FnMutTRNtCsf2dEI6IRrE1_12synstructure11BindingInfoEE8call_mutBS_, symObjAddr: 0x0, symBinAddr: 0x3F5A8, symSize: 0x30 }
  - { offset: 0x8E781, size: 0x8, addend: 0x0, symName: ___rustc_proc_macro_decls_5625576cdcaaa841__, symObjAddr: 0xA310, symBinAddr: 0x448870, symSize: 0x0 }
  - { offset: 0x8E78F, size: 0x8, addend: 0x0, symName: __RNvCs7oyfuZDlTKn_11yoke_derive15yokeable_derive, symObjAddr: 0x2820, symBinAddr: 0x41DC8, symSize: 0x178 }
  - { offset: 0x8E804, size: 0x8, addend: 0x0, symName: __RNvCs7oyfuZDlTKn_11yoke_derive20yokeable_derive_impl, symObjAddr: 0x2998, symBinAddr: 0x41F40, symSize: 0x59F0 }
  - { offset: 0x8F63B, size: 0x8, addend: 0x0, symName: __RNCNvCs7oyfuZDlTKn_11yoke_derive20yokeable_derive_impl0B3_, symObjAddr: 0x8388, symBinAddr: 0x47930, symSize: 0xE0 }
  - { offset: 0x8F686, size: 0x8, addend: 0x0, symName: __RNCNvCs7oyfuZDlTKn_11yoke_derive20yokeable_derive_impls_0B3_, symObjAddr: 0x8468, symBinAddr: 0x47A10, symSize: 0x38 }
  - { offset: 0x8F6BC, size: 0x8, addend: 0x0, symName: __RNCNvCs7oyfuZDlTKn_11yoke_derive20yokeable_derive_impls0_0B3_, symObjAddr: 0x84A0, symBinAddr: 0x47A48, symSize: 0xCC }
  - { offset: 0x8F707, size: 0x8, addend: 0x0, symName: __RNCNvCs7oyfuZDlTKn_11yoke_derive20yokeable_derive_impls1_0B3_, symObjAddr: 0x856C, symBinAddr: 0x47B14, symSize: 0x1B0 }
  - { offset: 0x8F752, size: 0x8, addend: 0x0, symName: __RNCNvCs7oyfuZDlTKn_11yoke_derive20yokeable_derive_impls2_0B3_, symObjAddr: 0x871C, symBinAddr: 0x47CC4, symSize: 0xCC }
  - { offset: 0x8F79D, size: 0x8, addend: 0x0, symName: __RNCNvCs7oyfuZDlTKn_11yoke_derive20yokeable_derive_impls3_0B3_, symObjAddr: 0x87E8, symBinAddr: 0x47D90, symSize: 0x2C }
  - { offset: 0x8F7CF, size: 0x8, addend: 0x0, symName: __RNCNvCs7oyfuZDlTKn_11yoke_derive20yokeable_derive_impls4_0B3_, symObjAddr: 0x8814, symBinAddr: 0x47DBC, symSize: 0x4C }
  - { offset: 0x8F824, size: 0x8, addend: 0x0, symName: __RNCNCNvCs7oyfuZDlTKn_11yoke_derive20yokeable_derive_impls4_00B5_, symObjAddr: 0x8860, symBinAddr: 0x47E08, symSize: 0x744 }
  - { offset: 0x8F9EC, size: 0x8, addend: 0x0, symName: __RNCNvCs7oyfuZDlTKn_11yoke_derive20yokeable_derive_impls5_0B3_, symObjAddr: 0x8FA4, symBinAddr: 0x4854C, symSize: 0x38C }
  - { offset: 0x8FB0C, size: 0x8, addend: 0x0, symName: __RNvCs7oyfuZDlTKn_11yoke_derive9static_lt, symObjAddr: 0x9330, symBinAddr: 0x488D8, symSize: 0x4C }
  - { offset: 0x8FB29, size: 0x8, addend: 0x0, symName: __RNvCs7oyfuZDlTKn_11yoke_derive9custom_lt, symObjAddr: 0x937C, symBinAddr: 0x48924, symSize: 0x54 }
  - { offset: 0x8FB57, size: 0x8, addend: 0x0, symName: __RNvCs7oyfuZDlTKn_11yoke_derive16replace_lifetime, symObjAddr: 0x93D0, symBinAddr: 0x48978, symSize: 0x9C }
  - { offset: 0x8FB9F, size: 0x8, addend: 0x0, symName: __RNvXNvCs7oyfuZDlTKn_11yoke_derive16replace_lifetimeNtB2_15ReplaceLifetimeNtNtNtCsATtFUPiRFW_3syn3gen4fold4Fold13fold_lifetime, symObjAddr: 0x946C, symBinAddr: 0x48A14, symSize: 0x6C }
  - { offset: 0x92494, size: 0x8, addend: 0x0, symName: __RNvXs1_NtNtNtCs9f3LFPSIp77_4core3ops8function5implsQNCNvCs7oyfuZDlTKn_11yoke_derive20yokeable_derive_impls3_0INtB7_5FnMutTRNtCsf2dEI6IRrE1_12synstructure11BindingInfoEE8call_mutBS_, symObjAddr: 0x0, symBinAddr: 0x3F5A8, symSize: 0x30 }
  - { offset: 0x924E3, size: 0x8, addend: 0x0, symName: __RNvXs1_NtNtNtCs9f3LFPSIp77_4core3ops8function5implsQNCNvCs7oyfuZDlTKn_11yoke_derive20yokeable_derive_impls5_0INtB7_5FnMutTRNtCsf2dEI6IRrE1_12synstructure11BindingInfoEE8call_mutBS_, symObjAddr: 0x30, symBinAddr: 0x3F5D8, symSize: 0x30 }
  - { offset: 0x92538, size: 0x8, addend: 0x0, symName: __RNvXs2_NtNtNtCs9f3LFPSIp77_4core3ops8function5implsQNCNvCs7oyfuZDlTKn_11yoke_derive20yokeable_derive_impl0INtB7_6FnOnceTRNtNtCsATtFUPiRFW_3syn8generics9TypeParamEE9call_onceBS_, symObjAddr: 0x60, symBinAddr: 0x3F608, symSize: 0x2C }
  - { offset: 0x9300E, size: 0x8, addend: 0x0, symName: __RNvYNtNvCs7oyfuZDlTKn_11yoke_derive16replace_lifetime15ReplaceLifetimeNtNtNtCsATtFUPiRFW_3syn3gen4fold4Fold10fold_blockB6_, symObjAddr: 0x8C, symBinAddr: 0x3F634, symSize: 0x34 }
  - { offset: 0x93052, size: 0x8, addend: 0x0, symName: __RNvYNtNvCs7oyfuZDlTKn_11yoke_derive16replace_lifetime15ReplaceLifetimeNtNtNtCsATtFUPiRFW_3syn3gen4fold4Fold10fold_fieldB6_, symObjAddr: 0xC0, symBinAddr: 0x3F668, symSize: 0x34 }
  - { offset: 0x93099, size: 0x8, addend: 0x0, symName: __RNvYNtNvCs7oyfuZDlTKn_11yoke_derive16replace_lifetime15ReplaceLifetimeNtNtNtCsATtFUPiRFW_3syn3gen4fold4Fold10fold_identB6_, symObjAddr: 0xF4, symBinAddr: 0x3F69C, symSize: 0x34 }
  - { offset: 0x930E0, size: 0x8, addend: 0x0, symName: __RNvYNtNvCs7oyfuZDlTKn_11yoke_derive16replace_lifetime15ReplaceLifetimeNtNtNtCsATtFUPiRFW_3syn3gen4fold4Fold10fold_indexB6_, symObjAddr: 0x128, symBinAddr: 0x3F6D0, symSize: 0x3C }
  - { offset: 0x93126, size: 0x8, addend: 0x0, symName: __RNvYNtNvCs7oyfuZDlTKn_11yoke_derive16replace_lifetime15ReplaceLifetimeNtNtNtCsATtFUPiRFW_3syn3gen4fold4Fold10fold_labelB6_, symObjAddr: 0x164, symBinAddr: 0x3F70C, symSize: 0x34 }
  - { offset: 0x9316D, size: 0x8, addend: 0x0, symName: __RNvYNtNvCs7oyfuZDlTKn_11yoke_derive16replace_lifetime15ReplaceLifetimeNtNtNtCsATtFUPiRFW_3syn3gen4fold4Fold10fold_localB6_, symObjAddr: 0x198, symBinAddr: 0x3F740, symSize: 0x34 }
  - { offset: 0x931B4, size: 0x8, addend: 0x0, symName: __RNvYNtNvCs7oyfuZDlTKn_11yoke_derive16replace_lifetime15ReplaceLifetimeNtNtNtCsATtFUPiRFW_3syn3gen4fold4Fold10fold_macroB6_, symObjAddr: 0x1CC, symBinAddr: 0x3F774, symSize: 0x34 }
  - { offset: 0x931FB, size: 0x8, addend: 0x0, symName: __RNvYNtNvCs7oyfuZDlTKn_11yoke_derive16replace_lifetime15ReplaceLifetimeNtNtNtCsATtFUPiRFW_3syn3gen4fold4Fold10fold_qselfB6_, symObjAddr: 0x200, symBinAddr: 0x3F7A8, symSize: 0x34 }
  - { offset: 0x93242, size: 0x8, addend: 0x0, symName: __RNvYNtNvCs7oyfuZDlTKn_11yoke_derive16replace_lifetime15ReplaceLifetimeNtNtNtCsATtFUPiRFW_3syn3gen4fold4Fold10fold_un_opB6_, symObjAddr: 0x234, symBinAddr: 0x3F7DC, symSize: 0x64 }
  - { offset: 0x93288, size: 0x8, addend: 0x0, symName: __RNvYNtNvCs7oyfuZDlTKn_11yoke_derive16replace_lifetime15ReplaceLifetimeNtNtNtCsATtFUPiRFW_3syn3gen4fold4Fold11fold_bin_opB6_, symObjAddr: 0x298, symBinAddr: 0x3F840, symSize: 0x40 }
  - { offset: 0x932CC, size: 0x8, addend: 0x0, symName: __RNvYNtNvCs7oyfuZDlTKn_11yoke_derive16replace_lifetime15ReplaceLifetimeNtNtNtCsATtFUPiRFW_3syn3gen4fold4Fold11fold_fieldsB6_, symObjAddr: 0x2D8, symBinAddr: 0x3F880, symSize: 0x34 }
  - { offset: 0x93313, size: 0x8, addend: 0x0, symName: __RNvYNtNvCs7oyfuZDlTKn_11yoke_derive16replace_lifetime15ReplaceLifetimeNtNtNtCsATtFUPiRFW_3syn3gen4fold4Fold11fold_fn_argB6_, symObjAddr: 0x30C, symBinAddr: 0x3F8B4, symSize: 0x34 }
  - { offset: 0x9335A, size: 0x8, addend: 0x0, symName: __RNvYNtNvCs7oyfuZDlTKn_11yoke_derive16replace_lifetime15ReplaceLifetimeNtNtNtCsATtFUPiRFW_3syn3gen4fold4Fold11fold_memberB6_, symObjAddr: 0x340, symBinAddr: 0x3F8E8, symSize: 0x34 }
  - { offset: 0x933A1, size: 0x8, addend: 0x0, symName: __RNvYNtNvCs7oyfuZDlTKn_11yoke_derive16replace_lifetime15ReplaceLifetimeNtNtNtCsATtFUPiRFW_3syn3gen4fold4Fold11fold_pat_orB6_, symObjAddr: 0x374, symBinAddr: 0x3F91C, symSize: 0x34 }
  - { offset: 0x933E8, size: 0x8, addend: 0x0, symName: __RNvYNtNvCs7oyfuZDlTKn_11yoke_derive16replace_lifetime15ReplaceLifetimeNtNtNtCsATtFUPiRFW_3syn3gen4fold4Fold12fold_expr_ifB6_, symObjAddr: 0x3A8, symBinAddr: 0x3F950, symSize: 0x34 }
  - { offset: 0x9342C, size: 0x8, addend: 0x0, symName: __RNvYNtNvCs7oyfuZDlTKn_11yoke_derive16replace_lifetime15ReplaceLifetimeNtNtNtCsATtFUPiRFW_3syn3gen4fold4Fold12fold_item_fnB6_, symObjAddr: 0x3DC, symBinAddr: 0x3F984, symSize: 0x34 }
  - { offset: 0x93473, size: 0x8, addend: 0x0, symName: __RNvYNtNvCs7oyfuZDlTKn_11yoke_derive16replace_lifetime15ReplaceLifetimeNtNtNtCsATtFUPiRFW_3syn3gen4fold4Fold12fold_lit_intB6_, symObjAddr: 0x410, symBinAddr: 0x3F9B8, symSize: 0x3C }
  - { offset: 0x934B9, size: 0x8, addend: 0x0, symName: __RNvYNtNvCs7oyfuZDlTKn_11yoke_derive16replace_lifetime15ReplaceLifetimeNtNtNtCsATtFUPiRFW_3syn3gen4fold4Fold12fold_lit_strB6_, symObjAddr: 0x44C, symBinAddr: 0x3F9F4, symSize: 0x3C }
  - { offset: 0x934FF, size: 0x8, addend: 0x0, symName: __RNvYNtNvCs7oyfuZDlTKn_11yoke_derive16replace_lifetime15ReplaceLifetimeNtNtNtCsATtFUPiRFW_3syn3gen4fold4Fold12fold_variantB6_, symObjAddr: 0x488, symBinAddr: 0x3FA30, symSize: 0x34 }
  - { offset: 0x93546, size: 0x8, addend: 0x0, symName: __RNvYNtNvCs7oyfuZDlTKn_11yoke_derive16replace_lifetime15ReplaceLifetimeNtNtNtCsATtFUPiRFW_3syn3gen4fold4Fold13fold_expr_letB6_, symObjAddr: 0x4BC, symBinAddr: 0x3FA64, symSize: 0x34 }
  - { offset: 0x9358A, size: 0x8, addend: 0x0, symName: __RNvYNtNvCs7oyfuZDlTKn_11yoke_derive16replace_lifetime15ReplaceLifetimeNtNtNtCsATtFUPiRFW_3syn3gen4fold4Fold13fold_expr_litB6_, symObjAddr: 0x4F0, symBinAddr: 0x3FA98, symSize: 0x34 }
  - { offset: 0x935CE, size: 0x8, addend: 0x0, symName: __RNvYNtNvCs7oyfuZDlTKn_11yoke_derive16replace_lifetime15ReplaceLifetimeNtNtNtCsATtFUPiRFW_3syn3gen4fold4Fold13fold_expr_tryB6_, symObjAddr: 0x524, symBinAddr: 0x3FACC, symSize: 0x34 }
  - { offset: 0x93615, size: 0x8, addend: 0x0, symName: __RNvYNtNvCs7oyfuZDlTKn_11yoke_derive16replace_lifetime15ReplaceLifetimeNtNtNtCsATtFUPiRFW_3syn3gen4fold4Fold13fold_genericsB6_, symObjAddr: 0x558, symBinAddr: 0x3FB00, symSize: 0x34 }
  - { offset: 0x9365C, size: 0x8, addend: 0x0, symName: __RNvYNtNvCs7oyfuZDlTKn_11yoke_derive16replace_lifetime15ReplaceLifetimeNtNtNtCsATtFUPiRFW_3syn3gen4fold4Fold13fold_item_modB6_, symObjAddr: 0x58C, symBinAddr: 0x3FB34, symSize: 0x34 }
  - { offset: 0x936A3, size: 0x8, addend: 0x0, symName: __RNvYNtNvCs7oyfuZDlTKn_11yoke_derive16replace_lifetime15ReplaceLifetimeNtNtNtCsATtFUPiRFW_3syn3gen4fold4Fold13fold_item_useB6_, symObjAddr: 0x5C0, symBinAddr: 0x3FB68, symSize: 0x34 }
  - { offset: 0x936EA, size: 0x8, addend: 0x0, symName: __RNvYNtNvCs7oyfuZDlTKn_11yoke_derive16replace_lifetime15ReplaceLifetimeNtNtNtCsATtFUPiRFW_3syn3gen4fold4Fold13fold_lit_boolB6_, symObjAddr: 0x5F4, symBinAddr: 0x3FB9C, symSize: 0x40 }
  - { offset: 0x93730, size: 0x8, addend: 0x0, symName: __RNvYNtNvCs7oyfuZDlTKn_11yoke_derive16replace_lifetime15ReplaceLifetimeNtNtNtCsATtFUPiRFW_3syn3gen4fold4Fold13fold_lit_byteB6_, symObjAddr: 0x634, symBinAddr: 0x3FBDC, symSize: 0x3C }
  - { offset: 0x93776, size: 0x8, addend: 0x0, symName: __RNvYNtNvCs7oyfuZDlTKn_11yoke_derive16replace_lifetime15ReplaceLifetimeNtNtNtCsATtFUPiRFW_3syn3gen4fold4Fold13fold_lit_charB6_, symObjAddr: 0x670, symBinAddr: 0x3FC18, symSize: 0x3C }
  - { offset: 0x937BC, size: 0x8, addend: 0x0, symName: __RNvYNtNvCs7oyfuZDlTKn_11yoke_derive16replace_lifetime15ReplaceLifetimeNtNtNtCsATtFUPiRFW_3syn3gen4fold4Fold13fold_lit_cstrB6_, symObjAddr: 0x6AC, symBinAddr: 0x3FC54, symSize: 0x3C }
  - { offset: 0x93802, size: 0x8, addend: 0x0, symName: __RNvYNtNvCs7oyfuZDlTKn_11yoke_derive16replace_lifetime15ReplaceLifetimeNtNtNtCsATtFUPiRFW_3syn3gen4fold4Fold13fold_pat_restB6_, symObjAddr: 0x6E8, symBinAddr: 0x3FC90, symSize: 0x34 }
  - { offset: 0x93849, size: 0x8, addend: 0x0, symName: __RNvYNtNvCs7oyfuZDlTKn_11yoke_derive16replace_lifetime15ReplaceLifetimeNtNtNtCsATtFUPiRFW_3syn3gen4fold4Fold13fold_pat_typeB6_, symObjAddr: 0x71C, symBinAddr: 0x3FCC4, symSize: 0x34 }
  - { offset: 0x93890, size: 0x8, addend: 0x0, symName: __RNvYNtNvCs7oyfuZDlTKn_11yoke_derive16replace_lifetime15ReplaceLifetimeNtNtNtCsATtFUPiRFW_3syn3gen4fold4Fold13fold_pat_wildB6_, symObjAddr: 0x750, symBinAddr: 0x3FCF8, symSize: 0x34 }
  - { offset: 0x938D7, size: 0x8, addend: 0x0, symName: __RNvYNtNvCs7oyfuZDlTKn_11yoke_derive16replace_lifetime15ReplaceLifetimeNtNtNtCsATtFUPiRFW_3syn3gen4fold4Fold13fold_receiverB6_, symObjAddr: 0x784, symBinAddr: 0x3FD2C, symSize: 0x34 }
  - { offset: 0x9391E, size: 0x8, addend: 0x0, symName: __RNvYNtNvCs7oyfuZDlTKn_11yoke_derive16replace_lifetime15ReplaceLifetimeNtNtNtCsATtFUPiRFW_3syn3gen4fold4Fold13fold_type_ptrB6_, symObjAddr: 0x7B8, symBinAddr: 0x3FD60, symSize: 0x34 }
  - { offset: 0x93965, size: 0x8, addend: 0x0, symName: __RNvYNtNvCs7oyfuZDlTKn_11yoke_derive16replace_lifetime15ReplaceLifetimeNtNtNtCsATtFUPiRFW_3syn3gen4fold4Fold13fold_use_globB6_, symObjAddr: 0x7EC, symBinAddr: 0x3FD94, symSize: 0x5C }
  - { offset: 0x939AB, size: 0x8, addend: 0x0, symName: __RNvYNtNvCs7oyfuZDlTKn_11yoke_derive16replace_lifetime15ReplaceLifetimeNtNtNtCsATtFUPiRFW_3syn3gen4fold4Fold13fold_use_nameB6_, symObjAddr: 0x848, symBinAddr: 0x3FDF0, symSize: 0x34 }
  - { offset: 0x939F2, size: 0x8, addend: 0x0, symName: __RNvYNtNvCs7oyfuZDlTKn_11yoke_derive16replace_lifetime15ReplaceLifetimeNtNtNtCsATtFUPiRFW_3syn3gen4fold4Fold13fold_use_pathB6_, symObjAddr: 0x87C, symBinAddr: 0x3FE24, symSize: 0x34 }
  - { offset: 0x93A39, size: 0x8, addend: 0x0, symName: __RNvYNtNvCs7oyfuZDlTKn_11yoke_derive16replace_lifetime15ReplaceLifetimeNtNtNtCsATtFUPiRFW_3syn3gen4fold4Fold13fold_use_treeB6_, symObjAddr: 0x8B0, symBinAddr: 0x3FE58, symSize: 0x34 }
  - { offset: 0x93A80, size: 0x8, addend: 0x0, symName: __RNvYNtNvCs7oyfuZDlTKn_11yoke_derive16replace_lifetime15ReplaceLifetimeNtNtNtCsATtFUPiRFW_3syn3gen4fold4Fold13fold_variadicB6_, symObjAddr: 0x8E4, symBinAddr: 0x3FE8C, symSize: 0x34 }
  - { offset: 0x93AC7, size: 0x8, addend: 0x0, symName: __RNvYNtNvCs7oyfuZDlTKn_11yoke_derive16replace_lifetime15ReplaceLifetimeNtNtNtCsATtFUPiRFW_3syn3gen4fold4Fold14fold_attributeB6_, symObjAddr: 0x918, symBinAddr: 0x3FEC0, symSize: 0x34 }
  - { offset: 0x93B0B, size: 0x8, addend: 0x0, symName: __RNvYNtNvCs7oyfuZDlTKn_11yoke_derive16replace_lifetime15ReplaceLifetimeNtNtNtCsATtFUPiRFW_3syn3gen4fold4Fold14fold_data_enumB6_, symObjAddr: 0x94C, symBinAddr: 0x3FEF4, symSize: 0x34 }
  - { offset: 0x93B4F, size: 0x8, addend: 0x0, symName: __RNvYNtNvCs7oyfuZDlTKn_11yoke_derive16replace_lifetime15ReplaceLifetimeNtNtNtCsATtFUPiRFW_3syn3gen4fold4Fold14fold_expr_callB6_, symObjAddr: 0x980, symBinAddr: 0x3FF28, symSize: 0x34 }
  - { offset: 0x93B93, size: 0x8, addend: 0x0, symName: __RNvYNtNvCs7oyfuZDlTKn_11yoke_derive16replace_lifetime15ReplaceLifetimeNtNtNtCsATtFUPiRFW_3syn3gen4fold4Fold14fold_expr_castB6_, symObjAddr: 0x9B4, symBinAddr: 0x3FF5C, symSize: 0x34 }
  - { offset: 0x93BD7, size: 0x8, addend: 0x0, symName: __RNvYNtNvCs7oyfuZDlTKn_11yoke_derive16replace_lifetime15ReplaceLifetimeNtNtNtCsATtFUPiRFW_3syn3gen4fold4Fold14fold_expr_loopB6_, symObjAddr: 0x9E8, symBinAddr: 0x3FF90, symSize: 0x34 }
  - { offset: 0x93C1B, size: 0x8, addend: 0x0, symName: __RNvYNtNvCs7oyfuZDlTKn_11yoke_derive16replace_lifetime15ReplaceLifetimeNtNtNtCsATtFUPiRFW_3syn3gen4fold4Fold14fold_expr_pathB6_, symObjAddr: 0xA1C, symBinAddr: 0x3FFC4, symSize: 0x34 }
  - { offset: 0x93C62, size: 0x8, addend: 0x0, symName: __RNvYNtNvCs7oyfuZDlTKn_11yoke_derive16replace_lifetime15ReplaceLifetimeNtNtNtCsATtFUPiRFW_3syn3gen4fold4Fold14fold_field_patB6_, symObjAddr: 0xA50, symBinAddr: 0x3FFF8, symSize: 0x34 }
  - { offset: 0x93CA9, size: 0x8, addend: 0x0, symName: __RNvYNtNvCs7oyfuZDlTKn_11yoke_derive16replace_lifetime15ReplaceLifetimeNtNtNtCsATtFUPiRFW_3syn3gen4fold4Fold14fold_impl_itemB6_, symObjAddr: 0xA84, symBinAddr: 0x4002C, symSize: 0x34 }
  - { offset: 0x93CF0, size: 0x8, addend: 0x0, symName: __RNvYNtNvCs7oyfuZDlTKn_11yoke_derive16replace_lifetime15ReplaceLifetimeNtNtNtCsATtFUPiRFW_3syn3gen4fold4Fold14fold_item_enumB6_, symObjAddr: 0xAB8, symBinAddr: 0x40060, symSize: 0x34 }
  - { offset: 0x93D37, size: 0x8, addend: 0x0, symName: __RNvYNtNvCs7oyfuZDlTKn_11yoke_derive16replace_lifetime15ReplaceLifetimeNtNtNtCsATtFUPiRFW_3syn3gen4fold4Fold14fold_item_implB6_, symObjAddr: 0xAEC, symBinAddr: 0x40094, symSize: 0x34 }
  - { offset: 0x93D7E, size: 0x8, addend: 0x0, symName: __RNvYNtNvCs7oyfuZDlTKn_11yoke_derive16replace_lifetime15ReplaceLifetimeNtNtNtCsATtFUPiRFW_3syn3gen4fold4Fold14fold_item_typeB6_, symObjAddr: 0xB20, symBinAddr: 0x400C8, symSize: 0x34 }
  - { offset: 0x93DC5, size: 0x8, addend: 0x0, symName: __RNvYNtNvCs7oyfuZDlTKn_11yoke_derive16replace_lifetime15ReplaceLifetimeNtNtNtCsATtFUPiRFW_3syn3gen4fold4Fold14fold_lit_floatB6_, symObjAddr: 0xB54, symBinAddr: 0x400FC, symSize: 0x3C }
  - { offset: 0x93E0B, size: 0x8, addend: 0x0, symName: __RNvYNtNvCs7oyfuZDlTKn_11yoke_derive16replace_lifetime15ReplaceLifetimeNtNtNtCsATtFUPiRFW_3syn3gen4fold4Fold14fold_meta_listB6_, symObjAddr: 0xB90, symBinAddr: 0x40138, symSize: 0x34 }
  - { offset: 0x93E52, size: 0x8, addend: 0x0, symName: __RNvYNtNvCs7oyfuZDlTKn_11yoke_derive16replace_lifetime15ReplaceLifetimeNtNtNtCsATtFUPiRFW_3syn3gen4fold4Fold14fold_pat_identB6_, symObjAddr: 0xBC4, symBinAddr: 0x4016C, symSize: 0x34 }
  - { offset: 0x93E99, size: 0x8, addend: 0x0, symName: __RNvYNtNvCs7oyfuZDlTKn_11yoke_derive16replace_lifetime15ReplaceLifetimeNtNtNtCsATtFUPiRFW_3syn3gen4fold4Fold14fold_pat_parenB6_, symObjAddr: 0xBF8, symBinAddr: 0x401A0, symSize: 0x34 }
  - { offset: 0x93EE0, size: 0x8, addend: 0x0, symName: __RNvYNtNvCs7oyfuZDlTKn_11yoke_derive16replace_lifetime15ReplaceLifetimeNtNtNtCsATtFUPiRFW_3syn3gen4fold4Fold14fold_pat_sliceB6_, symObjAddr: 0xC2C, symBinAddr: 0x401D4, symSize: 0x34 }
  - { offset: 0x93F27, size: 0x8, addend: 0x0, symName: __RNvYNtNvCs7oyfuZDlTKn_11yoke_derive16replace_lifetime15ReplaceLifetimeNtNtNtCsATtFUPiRFW_3syn3gen4fold4Fold14fold_pat_tupleB6_, symObjAddr: 0xC60, symBinAddr: 0x40208, symSize: 0x34 }
  - { offset: 0x93F6E, size: 0x8, addend: 0x0, symName: __RNvYNtNvCs7oyfuZDlTKn_11yoke_derive16replace_lifetime15ReplaceLifetimeNtNtNtCsATtFUPiRFW_3syn3gen4fold4Fold14fold_signatureB6_, symObjAddr: 0xC94, symBinAddr: 0x4023C, symSize: 0x34 }
  - { offset: 0x93FB5, size: 0x8, addend: 0x0, symName: __RNvYNtNvCs7oyfuZDlTKn_11yoke_derive16replace_lifetime15ReplaceLifetimeNtNtNtCsATtFUPiRFW_3syn3gen4fold4Fold14fold_type_pathB6_, symObjAddr: 0xCC8, symBinAddr: 0x40270, symSize: 0x34 }
  - { offset: 0x93FFC, size: 0x8, addend: 0x0, symName: __RNvYNtNvCs7oyfuZDlTKn_11yoke_derive16replace_lifetime15ReplaceLifetimeNtNtNtCsATtFUPiRFW_3syn3gen4fold4Fold14fold_use_groupB6_, symObjAddr: 0xCFC, symBinAddr: 0x402A4, symSize: 0x34 }
  - { offset: 0x94043, size: 0x8, addend: 0x0, symName: __RNvYNtNvCs7oyfuZDlTKn_11yoke_derive16replace_lifetime15ReplaceLifetimeNtNtNtCsATtFUPiRFW_3syn3gen4fold4Fold15fold_assoc_typeB6_, symObjAddr: 0xD30, symBinAddr: 0x402D8, symSize: 0x34 }
  - { offset: 0x94087, size: 0x8, addend: 0x0, symName: __RNvYNtNvCs7oyfuZDlTKn_11yoke_derive16replace_lifetime15ReplaceLifetimeNtNtNtCsATtFUPiRFW_3syn3gen4fold4Fold15fold_attr_styleB6_, symObjAddr: 0xD64, symBinAddr: 0x4030C, symSize: 0x64 }
  - { offset: 0x940CA, size: 0x8, addend: 0x0, symName: __RNvYNtNvCs7oyfuZDlTKn_11yoke_derive16replace_lifetime15ReplaceLifetimeNtNtNtCsATtFUPiRFW_3syn3gen4fold4Fold15fold_attributesB6_, symObjAddr: 0xDC8, symBinAddr: 0x40370, symSize: 0x40 }
  - { offset: 0x9410E, size: 0x8, addend: 0x0, symName: __RNvYNtNvCs7oyfuZDlTKn_11yoke_derive16replace_lifetime15ReplaceLifetimeNtNtNtCsATtFUPiRFW_3syn3gen4fold4Fold15fold_constraintB6_, symObjAddr: 0xE08, symBinAddr: 0x403B0, symSize: 0x34 }
  - { offset: 0x94152, size: 0x8, addend: 0x0, symName: __RNvYNtNvCs7oyfuZDlTKn_11yoke_derive16replace_lifetime15ReplaceLifetimeNtNtNtCsATtFUPiRFW_3syn3gen4fold4Fold15fold_data_unionB6_, symObjAddr: 0xE3C, symBinAddr: 0x403E4, symSize: 0x34 }
  - { offset: 0x94196, size: 0x8, addend: 0x0, symName: __RNvYNtNvCs7oyfuZDlTKn_11yoke_derive16replace_lifetime15ReplaceLifetimeNtNtNtCsATtFUPiRFW_3syn3gen4fold4Fold15fold_expr_arrayB6_, symObjAddr: 0xE70, symBinAddr: 0x40418, symSize: 0x34 }
  - { offset: 0x941DA, size: 0x8, addend: 0x0, symName: __RNvYNtNvCs7oyfuZDlTKn_11yoke_derive16replace_lifetime15ReplaceLifetimeNtNtNtCsATtFUPiRFW_3syn3gen4fold4Fold15fold_expr_asyncB6_, symObjAddr: 0xEA4, symBinAddr: 0x4044C, symSize: 0x34 }
  - { offset: 0x9421E, size: 0x8, addend: 0x0, symName: __RNvYNtNvCs7oyfuZDlTKn_11yoke_derive16replace_lifetime15ReplaceLifetimeNtNtNtCsATtFUPiRFW_3syn3gen4fold4Fold15fold_expr_awaitB6_, symObjAddr: 0xED8, symBinAddr: 0x40480, symSize: 0x34 }
  - { offset: 0x94262, size: 0x8, addend: 0x0, symName: __RNvYNtNvCs7oyfuZDlTKn_11yoke_derive16replace_lifetime15ReplaceLifetimeNtNtNtCsATtFUPiRFW_3syn3gen4fold4Fold15fold_expr_blockB6_, symObjAddr: 0xF0C, symBinAddr: 0x404B4, symSize: 0x34 }
  - { offset: 0x942A6, size: 0x8, addend: 0x0, symName: __RNvYNtNvCs7oyfuZDlTKn_11yoke_derive16replace_lifetime15ReplaceLifetimeNtNtNtCsATtFUPiRFW_3syn3gen4fold4Fold15fold_expr_breakB6_, symObjAddr: 0xF40, symBinAddr: 0x404E8, symSize: 0x34 }
  - { offset: 0x942EA, size: 0x8, addend: 0x0, symName: __RNvYNtNvCs7oyfuZDlTKn_11yoke_derive16replace_lifetime15ReplaceLifetimeNtNtNtCsATtFUPiRFW_3syn3gen4fold4Fold15fold_expr_constB6_, symObjAddr: 0xF74, symBinAddr: 0x4051C, symSize: 0x34 }
  - { offset: 0x9432E, size: 0x8, addend: 0x0, symName: __RNvYNtNvCs7oyfuZDlTKn_11yoke_derive16replace_lifetime15ReplaceLifetimeNtNtNtCsATtFUPiRFW_3syn3gen4fold4Fold15fold_expr_fieldB6_, symObjAddr: 0xFA8, symBinAddr: 0x40550, symSize: 0x34 }
  - { offset: 0x94372, size: 0x8, addend: 0x0, symName: __RNvYNtNvCs7oyfuZDlTKn_11yoke_derive16replace_lifetime15ReplaceLifetimeNtNtNtCsATtFUPiRFW_3syn3gen4fold4Fold15fold_expr_groupB6_, symObjAddr: 0xFDC, symBinAddr: 0x40584, symSize: 0x34 }
  - { offset: 0x943B6, size: 0x8, addend: 0x0, symName: __RNvYNtNvCs7oyfuZDlTKn_11yoke_derive16replace_lifetime15ReplaceLifetimeNtNtNtCsATtFUPiRFW_3syn3gen4fold4Fold15fold_expr_indexB6_, symObjAddr: 0x1010, symBinAddr: 0x405B8, symSize: 0x34 }
  - { offset: 0x943FA, size: 0x8, addend: 0x0, symName: __RNvYNtNvCs7oyfuZDlTKn_11yoke_derive16replace_lifetime15ReplaceLifetimeNtNtNtCsATtFUPiRFW_3syn3gen4fold4Fold15fold_expr_inferB6_, symObjAddr: 0x1044, symBinAddr: 0x405EC, symSize: 0x34 }
  - { offset: 0x9443E, size: 0x8, addend: 0x0, symName: __RNvYNtNvCs7oyfuZDlTKn_11yoke_derive16replace_lifetime15ReplaceLifetimeNtNtNtCsATtFUPiRFW_3syn3gen4fold4Fold15fold_expr_macroB6_, symObjAddr: 0x1078, symBinAddr: 0x40620, symSize: 0x34 }
  - { offset: 0x94482, size: 0x8, addend: 0x0, symName: __RNvYNtNvCs7oyfuZDlTKn_11yoke_derive16replace_lifetime15ReplaceLifetimeNtNtNtCsATtFUPiRFW_3syn3gen4fold4Fold15fold_expr_matchB6_, symObjAddr: 0x10AC, symBinAddr: 0x40654, symSize: 0x34 }
  - { offset: 0x944C9, size: 0x8, addend: 0x0, symName: __RNvYNtNvCs7oyfuZDlTKn_11yoke_derive16replace_lifetime15ReplaceLifetimeNtNtNtCsATtFUPiRFW_3syn3gen4fold4Fold15fold_expr_parenB6_, symObjAddr: 0x10E0, symBinAddr: 0x40688, symSize: 0x34 }
  - { offset: 0x94510, size: 0x8, addend: 0x0, symName: __RNvYNtNvCs7oyfuZDlTKn_11yoke_derive16replace_lifetime15ReplaceLifetimeNtNtNtCsATtFUPiRFW_3syn3gen4fold4Fold15fold_expr_rangeB6_, symObjAddr: 0x1114, symBinAddr: 0x406BC, symSize: 0x34 }
  - { offset: 0x94557, size: 0x8, addend: 0x0, symName: __RNvYNtNvCs7oyfuZDlTKn_11yoke_derive16replace_lifetime15ReplaceLifetimeNtNtNtCsATtFUPiRFW_3syn3gen4fold4Fold15fold_expr_tupleB6_, symObjAddr: 0x1148, symBinAddr: 0x406F0, symSize: 0x34 }
  - { offset: 0x9459E, size: 0x8, addend: 0x0, symName: __RNvYNtNvCs7oyfuZDlTKn_11yoke_derive16replace_lifetime15ReplaceLifetimeNtNtNtCsATtFUPiRFW_3syn3gen4fold4Fold15fold_expr_unaryB6_, symObjAddr: 0x117C, symBinAddr: 0x40724, symSize: 0x34 }
  - { offset: 0x945E5, size: 0x8, addend: 0x0, symName: __RNvYNtNvCs7oyfuZDlTKn_11yoke_derive16replace_lifetime15ReplaceLifetimeNtNtNtCsATtFUPiRFW_3syn3gen4fold4Fold15fold_expr_whileB6_, symObjAddr: 0x11B0, symBinAddr: 0x40758, symSize: 0x34 }
  - { offset: 0x9462C, size: 0x8, addend: 0x0, symName: __RNvYNtNvCs7oyfuZDlTKn_11yoke_derive16replace_lifetime15ReplaceLifetimeNtNtNtCsATtFUPiRFW_3syn3gen4fold4Fold15fold_expr_yieldB6_, symObjAddr: 0x11E4, symBinAddr: 0x4078C, symSize: 0x34 }
  - { offset: 0x94673, size: 0x8, addend: 0x0, symName: __RNvYNtNvCs7oyfuZDlTKn_11yoke_derive16replace_lifetime15ReplaceLifetimeNtNtNtCsATtFUPiRFW_3syn3gen4fold4Fold15fold_item_constB6_, symObjAddr: 0x1218, symBinAddr: 0x407C0, symSize: 0x34 }
  - { offset: 0x946BA, size: 0x8, addend: 0x0, symName: __RNvYNtNvCs7oyfuZDlTKn_11yoke_derive16replace_lifetime15ReplaceLifetimeNtNtNtCsATtFUPiRFW_3syn3gen4fold4Fold15fold_item_macroB6_, symObjAddr: 0x124C, symBinAddr: 0x407F4, symSize: 0x34 }
  - { offset: 0x94701, size: 0x8, addend: 0x0, symName: __RNvYNtNvCs7oyfuZDlTKn_11yoke_derive16replace_lifetime15ReplaceLifetimeNtNtNtCsATtFUPiRFW_3syn3gen4fold4Fold15fold_item_traitB6_, symObjAddr: 0x1280, symBinAddr: 0x40828, symSize: 0x34 }
  - { offset: 0x94748, size: 0x8, addend: 0x0, symName: __RNvYNtNvCs7oyfuZDlTKn_11yoke_derive16replace_lifetime15ReplaceLifetimeNtNtNtCsATtFUPiRFW_3syn3gen4fold4Fold15fold_item_unionB6_, symObjAddr: 0x12B4, symBinAddr: 0x4085C, symSize: 0x34 }
  - { offset: 0x9478F, size: 0x8, addend: 0x0, symName: __RNvYNtNvCs7oyfuZDlTKn_11yoke_derive16replace_lifetime15ReplaceLifetimeNtNtNtCsATtFUPiRFW_3syn3gen4fold4Fold15fold_local_initB6_, symObjAddr: 0x12E8, symBinAddr: 0x40890, symSize: 0x34 }
  - { offset: 0x947D6, size: 0x8, addend: 0x0, symName: __RNvYNtNvCs7oyfuZDlTKn_11yoke_derive16replace_lifetime15ReplaceLifetimeNtNtNtCsATtFUPiRFW_3syn3gen4fold4Fold15fold_pat_structB6_, symObjAddr: 0x131C, symBinAddr: 0x408C4, symSize: 0x34 }
  - { offset: 0x9481D, size: 0x8, addend: 0x0, symName: __RNvYNtNvCs7oyfuZDlTKn_11yoke_derive16replace_lifetime15ReplaceLifetimeNtNtNtCsATtFUPiRFW_3syn3gen4fold4Fold15fold_stmt_macroB6_, symObjAddr: 0x1350, symBinAddr: 0x408F8, symSize: 0x34 }
  - { offset: 0x94864, size: 0x8, addend: 0x0, symName: __RNvYNtNvCs7oyfuZDlTKn_11yoke_derive16replace_lifetime15ReplaceLifetimeNtNtNtCsATtFUPiRFW_3syn3gen4fold4Fold15fold_trait_itemB6_, symObjAddr: 0x1384, symBinAddr: 0x4092C, symSize: 0x34 }
  - { offset: 0x948AB, size: 0x8, addend: 0x0, symName: __RNvYNtNvCs7oyfuZDlTKn_11yoke_derive16replace_lifetime15ReplaceLifetimeNtNtNtCsATtFUPiRFW_3syn3gen4fold4Fold15fold_type_arrayB6_, symObjAddr: 0x13B8, symBinAddr: 0x40960, symSize: 0x34 }
  - { offset: 0x948F2, size: 0x8, addend: 0x0, symName: __RNvYNtNvCs7oyfuZDlTKn_11yoke_derive16replace_lifetime15ReplaceLifetimeNtNtNtCsATtFUPiRFW_3syn3gen4fold4Fold15fold_type_groupB6_, symObjAddr: 0x13EC, symBinAddr: 0x40994, symSize: 0x40 }
  - { offset: 0x94938, size: 0x8, addend: 0x0, symName: __RNvYNtNvCs7oyfuZDlTKn_11yoke_derive16replace_lifetime15ReplaceLifetimeNtNtNtCsATtFUPiRFW_3syn3gen4fold4Fold15fold_type_inferB6_, symObjAddr: 0x142C, symBinAddr: 0x409D4, symSize: 0x5C }
  - { offset: 0x9497E, size: 0x8, addend: 0x0, symName: __RNvYNtNvCs7oyfuZDlTKn_11yoke_derive16replace_lifetime15ReplaceLifetimeNtNtNtCsATtFUPiRFW_3syn3gen4fold4Fold15fold_type_macroB6_, symObjAddr: 0x1488, symBinAddr: 0x40A30, symSize: 0x34 }
  - { offset: 0x949C5, size: 0x8, addend: 0x0, symName: __RNvYNtNvCs7oyfuZDlTKn_11yoke_derive16replace_lifetime15ReplaceLifetimeNtNtNtCsATtFUPiRFW_3syn3gen4fold4Fold15fold_type_neverB6_, symObjAddr: 0x14BC, symBinAddr: 0x40A64, symSize: 0x5C }
  - { offset: 0x94A0B, size: 0x8, addend: 0x0, symName: __RNvYNtNvCs7oyfuZDlTKn_11yoke_derive16replace_lifetime15ReplaceLifetimeNtNtNtCsATtFUPiRFW_3syn3gen4fold4Fold15fold_type_paramB6_, symObjAddr: 0x1518, symBinAddr: 0x40AC0, symSize: 0x34 }
  - { offset: 0x94A52, size: 0x8, addend: 0x0, symName: __RNvYNtNvCs7oyfuZDlTKn_11yoke_derive16replace_lifetime15ReplaceLifetimeNtNtNtCsATtFUPiRFW_3syn3gen4fold4Fold15fold_type_parenB6_, symObjAddr: 0x154C, symBinAddr: 0x40AF4, symSize: 0x34 }
  - { offset: 0x94A99, size: 0x8, addend: 0x0, symName: __RNvYNtNvCs7oyfuZDlTKn_11yoke_derive16replace_lifetime15ReplaceLifetimeNtNtNtCsATtFUPiRFW_3syn3gen4fold4Fold15fold_type_sliceB6_, symObjAddr: 0x1580, symBinAddr: 0x40B28, symSize: 0x34 }
  - { offset: 0x94AE0, size: 0x8, addend: 0x0, symName: __RNvYNtNvCs7oyfuZDlTKn_11yoke_derive16replace_lifetime15ReplaceLifetimeNtNtNtCsATtFUPiRFW_3syn3gen4fold4Fold15fold_type_tupleB6_, symObjAddr: 0x15B4, symBinAddr: 0x40B5C, symSize: 0x34 }
  - { offset: 0x94B27, size: 0x8, addend: 0x0, symName: __RNvYNtNvCs7oyfuZDlTKn_11yoke_derive16replace_lifetime15ReplaceLifetimeNtNtNtCsATtFUPiRFW_3syn3gen4fold4Fold15fold_use_renameB6_, symObjAddr: 0x15E8, symBinAddr: 0x40B90, symSize: 0x34 }
  - { offset: 0x94B6E, size: 0x8, addend: 0x0, symName: __RNvYNtNvCs7oyfuZDlTKn_11yoke_derive16replace_lifetime15ReplaceLifetimeNtNtNtCsATtFUPiRFW_3syn3gen4fold4Fold15fold_visibilityB6_, symObjAddr: 0x161C, symBinAddr: 0x40BC4, symSize: 0x34 }
  - { offset: 0x94BB5, size: 0x8, addend: 0x0, symName: __RNvYNtNvCs7oyfuZDlTKn_11yoke_derive16replace_lifetime15ReplaceLifetimeNtNtNtCsATtFUPiRFW_3syn3gen4fold4Fold16fold_assoc_constB6_, symObjAddr: 0x1650, symBinAddr: 0x40BF8, symSize: 0x34 }
  - { offset: 0x94BF9, size: 0x8, addend: 0x0, symName: __RNvYNtNvCs7oyfuZDlTKn_11yoke_derive16replace_lifetime15ReplaceLifetimeNtNtNtCsATtFUPiRFW_3syn3gen4fold4Fold16fold_bare_fn_argB6_, symObjAddr: 0x1684, symBinAddr: 0x40C2C, symSize: 0x34 }
  - { offset: 0x94C3D, size: 0x8, addend: 0x0, symName: __RNvYNtNvCs7oyfuZDlTKn_11yoke_derive16replace_lifetime15ReplaceLifetimeNtNtNtCsATtFUPiRFW_3syn3gen4fold4Fold16fold_const_paramB6_, symObjAddr: 0x16B8, symBinAddr: 0x40C60, symSize: 0x34 }
  - { offset: 0x94C81, size: 0x8, addend: 0x0, symName: __RNvYNtNvCs7oyfuZDlTKn_11yoke_derive16replace_lifetime15ReplaceLifetimeNtNtNtCsATtFUPiRFW_3syn3gen4fold4Fold16fold_data_structB6_, symObjAddr: 0x16EC, symBinAddr: 0x40C94, symSize: 0x34 }
  - { offset: 0x94CC5, size: 0x8, addend: 0x0, symName: __RNvYNtNvCs7oyfuZDlTKn_11yoke_derive16replace_lifetime15ReplaceLifetimeNtNtNtCsATtFUPiRFW_3syn3gen4fold4Fold16fold_expr_assignB6_, symObjAddr: 0x1720, symBinAddr: 0x40CC8, symSize: 0x34 }
  - { offset: 0x94D09, size: 0x8, addend: 0x0, symName: __RNvYNtNvCs7oyfuZDlTKn_11yoke_derive16replace_lifetime15ReplaceLifetimeNtNtNtCsATtFUPiRFW_3syn3gen4fold4Fold16fold_expr_binaryB6_, symObjAddr: 0x1754, symBinAddr: 0x40CFC, symSize: 0x34 }
  - { offset: 0x94D4D, size: 0x8, addend: 0x0, symName: __RNvYNtNvCs7oyfuZDlTKn_11yoke_derive16replace_lifetime15ReplaceLifetimeNtNtNtCsATtFUPiRFW_3syn3gen4fold4Fold16fold_expr_repeatB6_, symObjAddr: 0x1788, symBinAddr: 0x40D30, symSize: 0x34 }
  - { offset: 0x94D94, size: 0x8, addend: 0x0, symName: __RNvYNtNvCs7oyfuZDlTKn_11yoke_derive16replace_lifetime15ReplaceLifetimeNtNtNtCsATtFUPiRFW_3syn3gen4fold4Fold16fold_expr_returnB6_, symObjAddr: 0x17BC, symBinAddr: 0x40D64, symSize: 0x34 }
  - { offset: 0x94DDB, size: 0x8, addend: 0x0, symName: __RNvYNtNvCs7oyfuZDlTKn_11yoke_derive16replace_lifetime15ReplaceLifetimeNtNtNtCsATtFUPiRFW_3syn3gen4fold4Fold16fold_expr_structB6_, symObjAddr: 0x17F0, symBinAddr: 0x40D98, symSize: 0x34 }
  - { offset: 0x94E22, size: 0x8, addend: 0x0, symName: __RNvYNtNvCs7oyfuZDlTKn_11yoke_derive16replace_lifetime15ReplaceLifetimeNtNtNtCsATtFUPiRFW_3syn3gen4fold4Fold16fold_expr_unsafeB6_, symObjAddr: 0x1824, symBinAddr: 0x40DCC, symSize: 0x34 }
  - { offset: 0x94E69, size: 0x8, addend: 0x0, symName: __RNvYNtNvCs7oyfuZDlTKn_11yoke_derive16replace_lifetime15ReplaceLifetimeNtNtNtCsATtFUPiRFW_3syn3gen4fold4Fold16fold_field_valueB6_, symObjAddr: 0x1858, symBinAddr: 0x40E00, symSize: 0x34 }
  - { offset: 0x94EB0, size: 0x8, addend: 0x0, symName: __RNvYNtNvCs7oyfuZDlTKn_11yoke_derive16replace_lifetime15ReplaceLifetimeNtNtNtCsATtFUPiRFW_3syn3gen4fold4Fold16fold_item_staticB6_, symObjAddr: 0x188C, symBinAddr: 0x40E34, symSize: 0x34 }
  - { offset: 0x94EF7, size: 0x8, addend: 0x0, symName: __RNvYNtNvCs7oyfuZDlTKn_11yoke_derive16replace_lifetime15ReplaceLifetimeNtNtNtCsATtFUPiRFW_3syn3gen4fold4Fold16fold_item_structB6_, symObjAddr: 0x18C0, symBinAddr: 0x40E68, symSize: 0x34 }
  - { offset: 0x94F3E, size: 0x8, addend: 0x0, symName: __RNvYNtNvCs7oyfuZDlTKn_11yoke_derive16replace_lifetime15ReplaceLifetimeNtNtNtCsATtFUPiRFW_3syn3gen4fold4Fold16fold_return_typeB6_, symObjAddr: 0x18F4, symBinAddr: 0x40E9C, symSize: 0x34 }
  - { offset: 0x94F85, size: 0x8, addend: 0x0, symName: __RNvYNtNvCs7oyfuZDlTKn_11yoke_derive16replace_lifetime15ReplaceLifetimeNtNtNtCsATtFUPiRFW_3syn3gen4fold4Fold16fold_trait_boundB6_, symObjAddr: 0x1928, symBinAddr: 0x40ED0, symSize: 0x34 }
  - { offset: 0x94FCC, size: 0x8, addend: 0x0, symName: __RNvYNtNvCs7oyfuZDlTKn_11yoke_derive16replace_lifetime15ReplaceLifetimeNtNtNtCsATtFUPiRFW_3syn3gen4fold4Fold17fold_derive_inputB6_, symObjAddr: 0x195C, symBinAddr: 0x40F04, symSize: 0x34 }
  - { offset: 0x95010, size: 0x8, addend: 0x0, symName: __RNvYNtNvCs7oyfuZDlTKn_11yoke_derive16replace_lifetime15ReplaceLifetimeNtNtNtCsATtFUPiRFW_3syn3gen4fold4Fold17fold_expr_closureB6_, symObjAddr: 0x1990, symBinAddr: 0x40F38, symSize: 0x34 }
  - { offset: 0x95054, size: 0x8, addend: 0x0, symName: __RNvYNtNvCs7oyfuZDlTKn_11yoke_derive16replace_lifetime15ReplaceLifetimeNtNtNtCsATtFUPiRFW_3syn3gen4fold4Fold17fold_fields_namedB6_, symObjAddr: 0x19C4, symBinAddr: 0x40F6C, symSize: 0x34 }
  - { offset: 0x9509B, size: 0x8, addend: 0x0, symName: __RNvYNtNvCs7oyfuZDlTKn_11yoke_derive16replace_lifetime15ReplaceLifetimeNtNtNtCsATtFUPiRFW_3syn3gen4fold4Fold17fold_foreign_itemB6_, symObjAddr: 0x19F8, symBinAddr: 0x40FA0, symSize: 0x34 }
  - { offset: 0x950E2, size: 0x8, addend: 0x0, symName: __RNvYNtNvCs7oyfuZDlTKn_11yoke_derive16replace_lifetime15ReplaceLifetimeNtNtNtCsATtFUPiRFW_3syn3gen4fold4Fold17fold_impl_item_fnB6_, symObjAddr: 0x1A2C, symBinAddr: 0x40FD4, symSize: 0x34 }
  - { offset: 0x95129, size: 0x8, addend: 0x0, symName: __RNvYNtNvCs7oyfuZDlTKn_11yoke_derive16replace_lifetime15ReplaceLifetimeNtNtNtCsATtFUPiRFW_3syn3gen4fold4Fold17fold_lit_byte_strB6_, symObjAddr: 0x1A60, symBinAddr: 0x41008, symSize: 0x3C }
  - { offset: 0x9516F, size: 0x8, addend: 0x0, symName: __RNvYNtNvCs7oyfuZDlTKn_11yoke_derive16replace_lifetime15ReplaceLifetimeNtNtNtCsATtFUPiRFW_3syn3gen4fold4Fold17fold_path_segmentB6_, symObjAddr: 0x1A9C, symBinAddr: 0x41044, symSize: 0x34 }
  - { offset: 0x951B6, size: 0x8, addend: 0x0, symName: __RNvYNtNvCs7oyfuZDlTKn_11yoke_derive16replace_lifetime15ReplaceLifetimeNtNtNtCsATtFUPiRFW_3syn3gen4fold4Fold17fold_range_limitsB6_, symObjAddr: 0x1AD0, symBinAddr: 0x41078, symSize: 0x40 }
  - { offset: 0x951FD, size: 0x8, addend: 0x0, symName: __RNvYNtNvCs7oyfuZDlTKn_11yoke_derive16replace_lifetime15ReplaceLifetimeNtNtNtCsATtFUPiRFW_3syn3gen4fold4Fold17fold_type_bare_fnB6_, symObjAddr: 0x1B10, symBinAddr: 0x410B8, symSize: 0x34 }
  - { offset: 0x95244, size: 0x8, addend: 0x0, symName: __RNvYNtNvCs7oyfuZDlTKn_11yoke_derive16replace_lifetime15ReplaceLifetimeNtNtNtCsATtFUPiRFW_3syn3gen4fold4Fold17fold_where_clauseB6_, symObjAddr: 0x1B44, symBinAddr: 0x410EC, symSize: 0x34 }
  - { offset: 0x9528B, size: 0x8, addend: 0x0, symName: __RNvYNtNvCs7oyfuZDlTKn_11yoke_derive16replace_lifetime15ReplaceLifetimeNtNtNtCsATtFUPiRFW_3syn3gen4fold4Fold18fold_bare_variadicB6_, symObjAddr: 0x1B78, symBinAddr: 0x41120, symSize: 0x34 }
  - { offset: 0x952CF, size: 0x8, addend: 0x0, symName: __RNvYNtNvCs7oyfuZDlTKn_11yoke_derive16replace_lifetime15ReplaceLifetimeNtNtNtCsATtFUPiRFW_3syn3gen4fold4Fold18fold_expr_continueB6_, symObjAddr: 0x1BAC, symBinAddr: 0x41154, symSize: 0x34 }
  - { offset: 0x95313, size: 0x8, addend: 0x0, symName: __RNvYNtNvCs7oyfuZDlTKn_11yoke_derive16replace_lifetime15ReplaceLifetimeNtNtNtCsATtFUPiRFW_3syn3gen4fold4Fold18fold_expr_for_loopB6_, symObjAddr: 0x1BE0, symBinAddr: 0x41188, symSize: 0x34 }
  - { offset: 0x95357, size: 0x8, addend: 0x0, symName: __RNvYNtNvCs7oyfuZDlTKn_11yoke_derive16replace_lifetime15ReplaceLifetimeNtNtNtCsATtFUPiRFW_3syn3gen4fold4Fold18fold_expr_raw_addrB6_, symObjAddr: 0x1C14, symBinAddr: 0x411BC, symSize: 0x34 }
  - { offset: 0x9539E, size: 0x8, addend: 0x0, symName: __RNvYNtNvCs7oyfuZDlTKn_11yoke_derive16replace_lifetime15ReplaceLifetimeNtNtNtCsATtFUPiRFW_3syn3gen4fold4Fold18fold_generic_paramB6_, symObjAddr: 0x1C48, symBinAddr: 0x411F0, symSize: 0x34 }
  - { offset: 0x953E5, size: 0x8, addend: 0x0, symName: __RNvYNtNvCs7oyfuZDlTKn_11yoke_derive16replace_lifetime15ReplaceLifetimeNtNtNtCsATtFUPiRFW_3syn3gen4fold4Fold18fold_pat_referenceB6_, symObjAddr: 0x1C7C, symBinAddr: 0x41224, symSize: 0x34 }
  - { offset: 0x9542C, size: 0x8, addend: 0x0, symName: __RNvYNtNvCs7oyfuZDlTKn_11yoke_derive16replace_lifetime15ReplaceLifetimeNtNtNtCsATtFUPiRFW_3syn3gen4fold4Fold18fold_trait_item_fnB6_, symObjAddr: 0x1CB0, symBinAddr: 0x41258, symSize: 0x34 }
  - { offset: 0x95473, size: 0x8, addend: 0x0, symName: __RNvYNtNvCs7oyfuZDlTKn_11yoke_derive16replace_lifetime15ReplaceLifetimeNtNtNtCsATtFUPiRFW_3syn3gen4fold4Fold19fold_captured_paramB6_, symObjAddr: 0x1CE4, symBinAddr: 0x4128C, symSize: 0x34 }
  - { offset: 0x954B7, size: 0x8, addend: 0x0, symName: __RNvYNtNvCs7oyfuZDlTKn_11yoke_derive16replace_lifetime15ReplaceLifetimeNtNtNtCsATtFUPiRFW_3syn3gen4fold4Fold19fold_expr_referenceB6_, symObjAddr: 0x1D18, symBinAddr: 0x412C0, symSize: 0x34 }
  - { offset: 0x954FE, size: 0x8, addend: 0x0, symName: __RNvYNtNvCs7oyfuZDlTKn_11yoke_derive16replace_lifetime15ReplaceLifetimeNtNtNtCsATtFUPiRFW_3syn3gen4fold4Fold19fold_expr_try_blockB6_, symObjAddr: 0x1D4C, symBinAddr: 0x412F4, symSize: 0x34 }
  - { offset: 0x95545, size: 0x8, addend: 0x0, symName: __RNvYNtNvCs7oyfuZDlTKn_11yoke_derive16replace_lifetime15ReplaceLifetimeNtNtNtCsATtFUPiRFW_3syn3gen4fold4Fold19fold_fields_unnamedB6_, symObjAddr: 0x1D80, symBinAddr: 0x41328, symSize: 0x34 }
  - { offset: 0x9558C, size: 0x8, addend: 0x0, symName: __RNvYNtNvCs7oyfuZDlTKn_11yoke_derive16replace_lifetime15ReplaceLifetimeNtNtNtCsATtFUPiRFW_3syn3gen4fold4Fold19fold_impl_item_typeB6_, symObjAddr: 0x1DB4, symBinAddr: 0x4135C, symSize: 0x34 }
  - { offset: 0x955D3, size: 0x8, addend: 0x0, symName: __RNvYNtNvCs7oyfuZDlTKn_11yoke_derive16replace_lifetime15ReplaceLifetimeNtNtNtCsATtFUPiRFW_3syn3gen4fold4Fold19fold_lifetime_paramB6_, symObjAddr: 0x1DE8, symBinAddr: 0x41390, symSize: 0x34 }
  - { offset: 0x9561A, size: 0x8, addend: 0x0, symName: __RNvYNtNvCs7oyfuZDlTKn_11yoke_derive16replace_lifetime15ReplaceLifetimeNtNtNtCsATtFUPiRFW_3syn3gen4fold4Fold19fold_path_argumentsB6_, symObjAddr: 0x1E1C, symBinAddr: 0x413C4, symSize: 0x34 }
  - { offset: 0x95661, size: 0x8, addend: 0x0, symName: __RNvYNtNvCs7oyfuZDlTKn_11yoke_derive16replace_lifetime15ReplaceLifetimeNtNtNtCsATtFUPiRFW_3syn3gen4fold4Fold19fold_predicate_typeB6_, symObjAddr: 0x1E50, symBinAddr: 0x413F8, symSize: 0x34 }
  - { offset: 0x956A8, size: 0x8, addend: 0x0, symName: __RNvYNtNvCs7oyfuZDlTKn_11yoke_derive16replace_lifetime15ReplaceLifetimeNtNtNtCsATtFUPiRFW_3syn3gen4fold4Fold19fold_type_referenceB6_, symObjAddr: 0x1E84, symBinAddr: 0x4142C, symSize: 0x34 }
  - { offset: 0x956EF, size: 0x8, addend: 0x0, symName: __RNvYNtNvCs7oyfuZDlTKn_11yoke_derive16replace_lifetime15ReplaceLifetimeNtNtNtCsATtFUPiRFW_3syn3gen4fold4Fold19fold_vis_restrictedB6_, symObjAddr: 0x1EB8, symBinAddr: 0x41460, symSize: 0x34 }
  - { offset: 0x95736, size: 0x8, addend: 0x0, symName: __RNvYNtNvCs7oyfuZDlTKn_11yoke_derive16replace_lifetime15ReplaceLifetimeNtNtNtCsATtFUPiRFW_3syn3gen4fold4Fold20fold_bound_lifetimesB6_, symObjAddr: 0x1EEC, symBinAddr: 0x41494, symSize: 0x34 }
  - { offset: 0x9577A, size: 0x8, addend: 0x0, symName: __RNvYNtNvCs7oyfuZDlTKn_11yoke_derive16replace_lifetime15ReplaceLifetimeNtNtNtCsATtFUPiRFW_3syn3gen4fold4Fold20fold_foreign_item_fnB6_, symObjAddr: 0x1F20, symBinAddr: 0x414C8, symSize: 0x34 }
  - { offset: 0x957C1, size: 0x8, addend: 0x0, symName: __RNvYNtNvCs7oyfuZDlTKn_11yoke_derive16replace_lifetime15ReplaceLifetimeNtNtNtCsATtFUPiRFW_3syn3gen4fold4Fold20fold_impl_item_constB6_, symObjAddr: 0x1F54, symBinAddr: 0x414FC, symSize: 0x34 }
  - { offset: 0x95808, size: 0x8, addend: 0x0, symName: __RNvYNtNvCs7oyfuZDlTKn_11yoke_derive16replace_lifetime15ReplaceLifetimeNtNtNtCsATtFUPiRFW_3syn3gen4fold4Fold20fold_impl_item_macroB6_, symObjAddr: 0x1F88, symBinAddr: 0x41530, symSize: 0x34 }
  - { offset: 0x9584F, size: 0x8, addend: 0x0, symName: __RNvYNtNvCs7oyfuZDlTKn_11yoke_derive16replace_lifetime15ReplaceLifetimeNtNtNtCsATtFUPiRFW_3syn3gen4fold4Fold20fold_macro_delimiterB6_, symObjAddr: 0x1FBC, symBinAddr: 0x41564, symSize: 0x34 }
  - { offset: 0x95896, size: 0x8, addend: 0x0, symName: __RNvYNtNvCs7oyfuZDlTKn_11yoke_derive16replace_lifetime15ReplaceLifetimeNtNtNtCsATtFUPiRFW_3syn3gen4fold4Fold20fold_meta_name_valueB6_, symObjAddr: 0x1FF0, symBinAddr: 0x41598, symSize: 0x34 }
  - { offset: 0x958DD, size: 0x8, addend: 0x0, symName: __RNvYNtNvCs7oyfuZDlTKn_11yoke_derive16replace_lifetime15ReplaceLifetimeNtNtNtCsATtFUPiRFW_3syn3gen4fold4Fold20fold_precise_captureB6_, symObjAddr: 0x2024, symBinAddr: 0x415CC, symSize: 0x34 }
  - { offset: 0x95924, size: 0x8, addend: 0x0, symName: __RNvYNtNvCs7oyfuZDlTKn_11yoke_derive16replace_lifetime15ReplaceLifetimeNtNtNtCsATtFUPiRFW_3syn3gen4fold4Fold20fold_trait_item_typeB6_, symObjAddr: 0x2058, symBinAddr: 0x41600, symSize: 0x34 }
  - { offset: 0x9596B, size: 0x8, addend: 0x0, symName: __RNvYNtNvCs7oyfuZDlTKn_11yoke_derive16replace_lifetime15ReplaceLifetimeNtNtNtCsATtFUPiRFW_3syn3gen4fold4Fold20fold_type_impl_traitB6_, symObjAddr: 0x208C, symBinAddr: 0x41634, symSize: 0x34 }
  - { offset: 0x959B2, size: 0x8, addend: 0x0, symName: __RNvYNtNvCs7oyfuZDlTKn_11yoke_derive16replace_lifetime15ReplaceLifetimeNtNtNtCsATtFUPiRFW_3syn3gen4fold4Fold20fold_where_predicateB6_, symObjAddr: 0x20C0, symBinAddr: 0x41668, symSize: 0x34 }
  - { offset: 0x959F9, size: 0x8, addend: 0x0, symName: __RNvYNtNvCs7oyfuZDlTKn_11yoke_derive16replace_lifetime15ReplaceLifetimeNtNtNtCsATtFUPiRFW_3syn3gen4fold4Fold21fold_expr_method_callB6_, symObjAddr: 0x20F4, symBinAddr: 0x4169C, symSize: 0x34 }
  - { offset: 0x95A40, size: 0x8, addend: 0x0, symName: __RNvYNtNvCs7oyfuZDlTKn_11yoke_derive16replace_lifetime15ReplaceLifetimeNtNtNtCsATtFUPiRFW_3syn3gen4fold4Fold21fold_field_mutabilityB6_, symObjAddr: 0x2128, symBinAddr: 0x416D0, symSize: 0x34 }
  - { offset: 0x95A8D, size: 0x8, addend: 0x0, symName: __RNvYNtNvCs7oyfuZDlTKn_11yoke_derive16replace_lifetime15ReplaceLifetimeNtNtNtCsATtFUPiRFW_3syn3gen4fold4Fold21fold_generic_argumentB6_, symObjAddr: 0x215C, symBinAddr: 0x41704, symSize: 0x34 }
  - { offset: 0x95AD4, size: 0x8, addend: 0x0, symName: __RNvYNtNvCs7oyfuZDlTKn_11yoke_derive16replace_lifetime15ReplaceLifetimeNtNtNtCsATtFUPiRFW_3syn3gen4fold4Fold21fold_impl_restrictionB6_, symObjAddr: 0x2190, symBinAddr: 0x41738, symSize: 0x28 }
  - { offset: 0x95B21, size: 0x8, addend: 0x0, symName: __RNvYNtNvCs7oyfuZDlTKn_11yoke_derive16replace_lifetime15ReplaceLifetimeNtNtNtCsATtFUPiRFW_3syn3gen4fold4Fold21fold_item_foreign_modB6_, symObjAddr: 0x21B8, symBinAddr: 0x41760, symSize: 0x34 }
  - { offset: 0x95B68, size: 0x8, addend: 0x0, symName: __RNvYNtNvCs7oyfuZDlTKn_11yoke_derive16replace_lifetime15ReplaceLifetimeNtNtNtCsATtFUPiRFW_3syn3gen4fold4Fold21fold_item_trait_aliasB6_, symObjAddr: 0x21EC, symBinAddr: 0x41794, symSize: 0x34 }
  - { offset: 0x95BAF, size: 0x8, addend: 0x0, symName: __RNvYNtNvCs7oyfuZDlTKn_11yoke_derive16replace_lifetime15ReplaceLifetimeNtNtNtCsATtFUPiRFW_3syn3gen4fold4Fold21fold_pat_tuple_structB6_, symObjAddr: 0x2220, symBinAddr: 0x417C8, symSize: 0x34 }
  - { offset: 0x95BF6, size: 0x8, addend: 0x0, symName: __RNvYNtNvCs7oyfuZDlTKn_11yoke_derive16replace_lifetime15ReplaceLifetimeNtNtNtCsATtFUPiRFW_3syn3gen4fold4Fold21fold_trait_item_constB6_, symObjAddr: 0x2254, symBinAddr: 0x417FC, symSize: 0x34 }
  - { offset: 0x95C3D, size: 0x8, addend: 0x0, symName: __RNvYNtNvCs7oyfuZDlTKn_11yoke_derive16replace_lifetime15ReplaceLifetimeNtNtNtCsATtFUPiRFW_3syn3gen4fold4Fold21fold_trait_item_macroB6_, symObjAddr: 0x2288, symBinAddr: 0x41830, symSize: 0x34 }
  - { offset: 0x95C84, size: 0x8, addend: 0x0, symName: __RNvYNtNvCs7oyfuZDlTKn_11yoke_derive16replace_lifetime15ReplaceLifetimeNtNtNtCsATtFUPiRFW_3syn3gen4fold4Fold21fold_type_param_boundB6_, symObjAddr: 0x22BC, symBinAddr: 0x41864, symSize: 0x34 }
  - { offset: 0x95CCB, size: 0x8, addend: 0x0, symName: __RNvYNtNvCs7oyfuZDlTKn_11yoke_derive16replace_lifetime15ReplaceLifetimeNtNtNtCsATtFUPiRFW_3syn3gen4fold4Fold22fold_foreign_item_typeB6_, symObjAddr: 0x22F0, symBinAddr: 0x41898, symSize: 0x34 }
  - { offset: 0x95D12, size: 0x8, addend: 0x0, symName: __RNvYNtNvCs7oyfuZDlTKn_11yoke_derive16replace_lifetime15ReplaceLifetimeNtNtNtCsATtFUPiRFW_3syn3gen4fold4Fold22fold_item_extern_crateB6_, symObjAddr: 0x2324, symBinAddr: 0x418CC, symSize: 0x34 }
  - { offset: 0x95D59, size: 0x8, addend: 0x0, symName: __RNvYNtNvCs7oyfuZDlTKn_11yoke_derive16replace_lifetime15ReplaceLifetimeNtNtNtCsATtFUPiRFW_3syn3gen4fold4Fold22fold_static_mutabilityB6_, symObjAddr: 0x2358, symBinAddr: 0x41900, symSize: 0x3C }
  - { offset: 0x95D9F, size: 0x8, addend: 0x0, symName: __RNvYNtNvCs7oyfuZDlTKn_11yoke_derive16replace_lifetime15ReplaceLifetimeNtNtNtCsATtFUPiRFW_3syn3gen4fold4Fold22fold_type_trait_objectB6_, symObjAddr: 0x2394, symBinAddr: 0x4193C, symSize: 0x34 }
  - { offset: 0x95DE6, size: 0x8, addend: 0x0, symName: __RNvYNtNvCs7oyfuZDlTKn_11yoke_derive16replace_lifetime15ReplaceLifetimeNtNtNtCsATtFUPiRFW_3syn3gen4fold4Fold23fold_foreign_item_macroB6_, symObjAddr: 0x23C8, symBinAddr: 0x41970, symSize: 0x34 }
  - { offset: 0x95E2D, size: 0x8, addend: 0x0, symName: __RNvYNtNvCs7oyfuZDlTKn_11yoke_derive16replace_lifetime15ReplaceLifetimeNtNtNtCsATtFUPiRFW_3syn3gen4fold4Fold23fold_pointer_mutabilityB6_, symObjAddr: 0x23FC, symBinAddr: 0x419A4, symSize: 0x3C }
  - { offset: 0x95E73, size: 0x8, addend: 0x0, symName: __RNvYNtNvCs7oyfuZDlTKn_11yoke_derive16replace_lifetime15ReplaceLifetimeNtNtNtCsATtFUPiRFW_3syn3gen4fold4Fold23fold_predicate_lifetimeB6_, symObjAddr: 0x2438, symBinAddr: 0x419E0, symSize: 0x34 }
  - { offset: 0x95EBA, size: 0x8, addend: 0x0, symName: __RNvYNtNvCs7oyfuZDlTKn_11yoke_derive16replace_lifetime15ReplaceLifetimeNtNtNtCsATtFUPiRFW_3syn3gen4fold4Fold24fold_foreign_item_staticB6_, symObjAddr: 0x246C, symBinAddr: 0x41A14, symSize: 0x34 }
  - { offset: 0x95F01, size: 0x8, addend: 0x0, symName: __RNvYNtNvCs7oyfuZDlTKn_11yoke_derive16replace_lifetime15ReplaceLifetimeNtNtNtCsATtFUPiRFW_3syn3gen4fold4Fold25fold_trait_bound_modifierB6_, symObjAddr: 0x24A0, symBinAddr: 0x41A48, symSize: 0x64 }
  - { offset: 0x95F47, size: 0x8, addend: 0x0, symName: __RNvYNtNvCs7oyfuZDlTKn_11yoke_derive16replace_lifetime15ReplaceLifetimeNtNtNtCsATtFUPiRFW_3syn3gen4fold4Fold36fold_parenthesized_generic_argumentsB6_, symObjAddr: 0x2504, symBinAddr: 0x41AAC, symSize: 0x34 }
  - { offset: 0x95F8E, size: 0x8, addend: 0x0, symName: __RNvYNtNvCs7oyfuZDlTKn_11yoke_derive16replace_lifetime15ReplaceLifetimeNtNtNtCsATtFUPiRFW_3syn3gen4fold4Fold38fold_angle_bracketed_generic_argumentsB6_, symObjAddr: 0x2538, symBinAddr: 0x41AE0, symSize: 0x34 }
  - { offset: 0x95FD2, size: 0x8, addend: 0x0, symName: __RNvYNtNvCs7oyfuZDlTKn_11yoke_derive16replace_lifetime15ReplaceLifetimeNtNtNtCsATtFUPiRFW_3syn3gen4fold4Fold8fold_abiB6_, symObjAddr: 0x256C, symBinAddr: 0x41B14, symSize: 0x40 }
  - { offset: 0x96015, size: 0x8, addend: 0x0, symName: __RNvYNtNvCs7oyfuZDlTKn_11yoke_derive16replace_lifetime15ReplaceLifetimeNtNtNtCsATtFUPiRFW_3syn3gen4fold4Fold8fold_armB6_, symObjAddr: 0x25AC, symBinAddr: 0x41B54, symSize: 0x34 }
  - { offset: 0x96059, size: 0x8, addend: 0x0, symName: __RNvYNtNvCs7oyfuZDlTKn_11yoke_derive16replace_lifetime15ReplaceLifetimeNtNtNtCsATtFUPiRFW_3syn3gen4fold4Fold8fold_litB6_, symObjAddr: 0x25E0, symBinAddr: 0x41B88, symSize: 0x34 }
  - { offset: 0x960A0, size: 0x8, addend: 0x0, symName: __RNvYNtNvCs7oyfuZDlTKn_11yoke_derive16replace_lifetime15ReplaceLifetimeNtNtNtCsATtFUPiRFW_3syn3gen4fold4Fold8fold_patB6_, symObjAddr: 0x2614, symBinAddr: 0x41BBC, symSize: 0x34 }
  - { offset: 0x960E7, size: 0x8, addend: 0x0, symName: __RNvYNtNvCs7oyfuZDlTKn_11yoke_derive16replace_lifetime15ReplaceLifetimeNtNtNtCsATtFUPiRFW_3syn3gen4fold4Fold9fold_dataB6_, symObjAddr: 0x2648, symBinAddr: 0x41BF0, symSize: 0x34 }
  - { offset: 0x9612B, size: 0x8, addend: 0x0, symName: __RNvYNtNvCs7oyfuZDlTKn_11yoke_derive16replace_lifetime15ReplaceLifetimeNtNtNtCsATtFUPiRFW_3syn3gen4fold4Fold9fold_exprB6_, symObjAddr: 0x267C, symBinAddr: 0x41C24, symSize: 0x34 }
  - { offset: 0x9616F, size: 0x8, addend: 0x0, symName: __RNvYNtNvCs7oyfuZDlTKn_11yoke_derive16replace_lifetime15ReplaceLifetimeNtNtNtCsATtFUPiRFW_3syn3gen4fold4Fold9fold_fileB6_, symObjAddr: 0x26B0, symBinAddr: 0x41C58, symSize: 0x34 }
  - { offset: 0x961B6, size: 0x8, addend: 0x0, symName: __RNvYNtNvCs7oyfuZDlTKn_11yoke_derive16replace_lifetime15ReplaceLifetimeNtNtNtCsATtFUPiRFW_3syn3gen4fold4Fold9fold_itemB6_, symObjAddr: 0x26E4, symBinAddr: 0x41C8C, symSize: 0x34 }
  - { offset: 0x961FD, size: 0x8, addend: 0x0, symName: __RNvYNtNvCs7oyfuZDlTKn_11yoke_derive16replace_lifetime15ReplaceLifetimeNtNtNtCsATtFUPiRFW_3syn3gen4fold4Fold9fold_metaB6_, symObjAddr: 0x2718, symBinAddr: 0x41CC0, symSize: 0x34 }
  - { offset: 0x96244, size: 0x8, addend: 0x0, symName: __RNvYNtNvCs7oyfuZDlTKn_11yoke_derive16replace_lifetime15ReplaceLifetimeNtNtNtCsATtFUPiRFW_3syn3gen4fold4Fold9fold_pathB6_, symObjAddr: 0x274C, symBinAddr: 0x41CF4, symSize: 0x34 }
  - { offset: 0x9628B, size: 0x8, addend: 0x0, symName: __RNvYNtNvCs7oyfuZDlTKn_11yoke_derive16replace_lifetime15ReplaceLifetimeNtNtNtCsATtFUPiRFW_3syn3gen4fold4Fold9fold_spanB6_, symObjAddr: 0x2780, symBinAddr: 0x41D28, symSize: 0x38 }
  - { offset: 0x962D1, size: 0x8, addend: 0x0, symName: __RNvYNtNvCs7oyfuZDlTKn_11yoke_derive16replace_lifetime15ReplaceLifetimeNtNtNtCsATtFUPiRFW_3syn3gen4fold4Fold9fold_stmtB6_, symObjAddr: 0x27B8, symBinAddr: 0x41D60, symSize: 0x34 }
  - { offset: 0x96318, size: 0x8, addend: 0x0, symName: __RNvYNtNvCs7oyfuZDlTKn_11yoke_derive16replace_lifetime15ReplaceLifetimeNtNtNtCsATtFUPiRFW_3syn3gen4fold4Fold9fold_typeB6_, symObjAddr: 0x27EC, symBinAddr: 0x41D94, symSize: 0x34 }
  - { offset: 0x9CB4B, size: 0x8, addend: 0x0, symName: __RNvMNtNtCsdze8u8oDPro_5alloc3vec13in_place_dropINtB2_11InPlaceDropNtNtCsATtFUPiRFW_3syn4attr9AttributeE3lenCs7oyfuZDlTKn_11yoke_derive, symObjAddr: 0x0, symBinAddr: 0x48A80, symSize: 0x7C }
  - { offset: 0xA6D77, size: 0x8, addend: 0x0, symName: __RNvXs0_NtNtCsdze8u8oDPro_5alloc3vec13in_place_dropINtB5_24InPlaceDstDataSrcBufDropNtNtCsATtFUPiRFW_3syn4attr9AttributeB1i_ENtNtNtCs9f3LFPSIp77_4core3ops4drop4Drop4dropCs7oyfuZDlTKn_11yoke_derive, symObjAddr: 0xC1C, symBinAddr: 0x4969C, symSize: 0xB8 }
  - { offset: 0xA6EA0, size: 0x8, addend: 0x0, symName: __RNvXs0_NtNtCsdze8u8oDPro_5alloc3vec13in_place_dropINtB5_24InPlaceDstDataSrcBufDropNtNtCsATtFUPiRFW_3syn4expr3ArmB1i_ENtNtNtCs9f3LFPSIp77_4core3ops4drop4Drop4dropCs7oyfuZDlTKn_11yoke_derive, symObjAddr: 0xCD4, symBinAddr: 0x49754, symSize: 0xB8 }
  - { offset: 0xA6FC9, size: 0x8, addend: 0x0, symName: __RNvXs0_NtNtCsdze8u8oDPro_5alloc3vec13in_place_dropINtB5_24InPlaceDstDataSrcBufDropNtNtCsATtFUPiRFW_3syn4item11ForeignItemB1i_ENtNtNtCs9f3LFPSIp77_4core3ops4drop4Drop4dropCs7oyfuZDlTKn_11yoke_derive, symObjAddr: 0xD8C, symBinAddr: 0x4980C, symSize: 0xB8 }
  - { offset: 0xA70F2, size: 0x8, addend: 0x0, symName: __RNvXs0_NtNtCsdze8u8oDPro_5alloc3vec13in_place_dropINtB5_24InPlaceDstDataSrcBufDropNtNtCsATtFUPiRFW_3syn4item4ItemB1i_ENtNtNtCs9f3LFPSIp77_4core3ops4drop4Drop4dropCs7oyfuZDlTKn_11yoke_derive, symObjAddr: 0xE44, symBinAddr: 0x498C4, symSize: 0xB8 }
  - { offset: 0xA721B, size: 0x8, addend: 0x0, symName: __RNvXs0_NtNtCsdze8u8oDPro_5alloc3vec13in_place_dropINtB5_24InPlaceDstDataSrcBufDropNtNtCsATtFUPiRFW_3syn4item8ImplItemB1i_ENtNtNtCs9f3LFPSIp77_4core3ops4drop4Drop4dropCs7oyfuZDlTKn_11yoke_derive, symObjAddr: 0xEFC, symBinAddr: 0x4997C, symSize: 0xB8 }
  - { offset: 0xA7344, size: 0x8, addend: 0x0, symName: __RNvXs0_NtNtCsdze8u8oDPro_5alloc3vec13in_place_dropINtB5_24InPlaceDstDataSrcBufDropNtNtCsATtFUPiRFW_3syn4item9TraitItemB1i_ENtNtNtCs9f3LFPSIp77_4core3ops4drop4Drop4dropCs7oyfuZDlTKn_11yoke_derive, symObjAddr: 0xFB4, symBinAddr: 0x49A34, symSize: 0xB8 }
  - { offset: 0xA746D, size: 0x8, addend: 0x0, symName: __RNvXs0_NtNtCsdze8u8oDPro_5alloc3vec13in_place_dropINtB5_24InPlaceDstDataSrcBufDropNtNtCsATtFUPiRFW_3syn4stmt4StmtB1i_ENtNtNtCs9f3LFPSIp77_4core3ops4drop4Drop4dropCs7oyfuZDlTKn_11yoke_derive, symObjAddr: 0x106C, symBinAddr: 0x49AEC, symSize: 0xB8 }
  - { offset: 0xA7596, size: 0x8, addend: 0x0, symName: __RNvXs0_NtNtCsdze8u8oDPro_5alloc3vec13in_place_dropINtB5_24InPlaceDstDataSrcBufDropTNtNtCsATtFUPiRFW_3syn2ty4TypeNtNtB1n_5token5CommaEB1i_ENtNtNtCs9f3LFPSIp77_4core3ops4drop4Drop4dropCs7oyfuZDlTKn_11yoke_derive, symObjAddr: 0x1124, symBinAddr: 0x49BA4, symSize: 0xB8 }
  - { offset: 0xA76BF, size: 0x8, addend: 0x0, symName: __RNvXs0_NtNtCsdze8u8oDPro_5alloc3vec13in_place_dropINtB5_24InPlaceDstDataSrcBufDropTNtNtCsATtFUPiRFW_3syn2ty9BareFnArgNtNtB1n_5token5CommaEB1i_ENtNtNtCs9f3LFPSIp77_4core3ops4drop4Drop4dropCs7oyfuZDlTKn_11yoke_derive, symObjAddr: 0x11DC, symBinAddr: 0x49C5C, symSize: 0xB8 }
  - { offset: 0xA77E8, size: 0x8, addend: 0x0, symName: __RNvXs0_NtNtCsdze8u8oDPro_5alloc3vec13in_place_dropINtB5_24InPlaceDstDataSrcBufDropTNtNtCsATtFUPiRFW_3syn3pat3PatNtNtB1n_5token2OrEB1i_ENtNtNtCs9f3LFPSIp77_4core3ops4drop4Drop4dropCs7oyfuZDlTKn_11yoke_derive, symObjAddr: 0x1294, symBinAddr: 0x49D14, symSize: 0xB8 }
  - { offset: 0xA7911, size: 0x8, addend: 0x0, symName: __RNvXs0_NtNtCsdze8u8oDPro_5alloc3vec13in_place_dropINtB5_24InPlaceDstDataSrcBufDropTNtNtCsATtFUPiRFW_3syn3pat3PatNtNtB1n_5token5CommaEB1i_ENtNtNtCs9f3LFPSIp77_4core3ops4drop4Drop4dropCs7oyfuZDlTKn_11yoke_derive, symObjAddr: 0x134C, symBinAddr: 0x49DCC, symSize: 0xB8 }
  - { offset: 0xA7A3A, size: 0x8, addend: 0x0, symName: __RNvXs0_NtNtCsdze8u8oDPro_5alloc3vec13in_place_dropINtB5_24InPlaceDstDataSrcBufDropTNtNtCsATtFUPiRFW_3syn3pat8FieldPatNtNtB1n_5token5CommaEB1i_ENtNtNtCs9f3LFPSIp77_4core3ops4drop4Drop4dropCs7oyfuZDlTKn_11yoke_derive, symObjAddr: 0x1404, symBinAddr: 0x49E84, symSize: 0xB8 }
  - { offset: 0xA7B63, size: 0x8, addend: 0x0, symName: __RNvXs0_NtNtCsdze8u8oDPro_5alloc3vec13in_place_dropINtB5_24InPlaceDstDataSrcBufDropTNtNtCsATtFUPiRFW_3syn4data5FieldNtNtB1n_5token5CommaEB1i_ENtNtNtCs9f3LFPSIp77_4core3ops4drop4Drop4dropCs7oyfuZDlTKn_11yoke_derive, symObjAddr: 0x14BC, symBinAddr: 0x49F3C, symSize: 0xB8 }
  - { offset: 0xA7C8C, size: 0x8, addend: 0x0, symName: __RNvXs0_NtNtCsdze8u8oDPro_5alloc3vec13in_place_dropINtB5_24InPlaceDstDataSrcBufDropTNtNtCsATtFUPiRFW_3syn4data7VariantNtNtB1n_5token5CommaEB1i_ENtNtNtCs9f3LFPSIp77_4core3ops4drop4Drop4dropCs7oyfuZDlTKn_11yoke_derive, symObjAddr: 0x1574, symBinAddr: 0x49FF4, symSize: 0xB8 }
  - { offset: 0xA7DB5, size: 0x8, addend: 0x0, symName: __RNvXs0_NtNtCsdze8u8oDPro_5alloc3vec13in_place_dropINtB5_24InPlaceDstDataSrcBufDropTNtNtCsATtFUPiRFW_3syn4expr10FieldValueNtNtB1n_5token5CommaEB1i_ENtNtNtCs9f3LFPSIp77_4core3ops4drop4Drop4dropCs7oyfuZDlTKn_11yoke_derive, symObjAddr: 0x162C, symBinAddr: 0x4A0AC, symSize: 0xB8 }
  - { offset: 0xA7EDE, size: 0x8, addend: 0x0, symName: __RNvXs0_NtNtCsdze8u8oDPro_5alloc3vec13in_place_dropINtB5_24InPlaceDstDataSrcBufDropTNtNtCsATtFUPiRFW_3syn4expr4ExprNtNtB1n_5token5CommaEB1i_ENtNtNtCs9f3LFPSIp77_4core3ops4drop4Drop4dropCs7oyfuZDlTKn_11yoke_derive, symObjAddr: 0x16E4, symBinAddr: 0x4A164, symSize: 0xB8 }
  - { offset: 0xA8007, size: 0x8, addend: 0x0, symName: __RNvXs0_NtNtCsdze8u8oDPro_5alloc3vec13in_place_dropINtB5_24InPlaceDstDataSrcBufDropTNtNtCsATtFUPiRFW_3syn4item5FnArgNtNtB1n_5token5CommaEB1i_ENtNtNtCs9f3LFPSIp77_4core3ops4drop4Drop4dropCs7oyfuZDlTKn_11yoke_derive, symObjAddr: 0x179C, symBinAddr: 0x4A21C, symSize: 0xB8 }
  - { offset: 0xA8130, size: 0x8, addend: 0x0, symName: __RNvXs0_NtNtCsdze8u8oDPro_5alloc3vec13in_place_dropINtB5_24InPlaceDstDataSrcBufDropTNtNtCsATtFUPiRFW_3syn4item7UseTreeNtNtB1n_5token5CommaEB1i_ENtNtNtCs9f3LFPSIp77_4core3ops4drop4Drop4dropCs7oyfuZDlTKn_11yoke_derive, symObjAddr: 0x1854, symBinAddr: 0x4A2D4, symSize: 0xB8 }
  - { offset: 0xA8259, size: 0x8, addend: 0x0, symName: __RNvXs0_NtNtCsdze8u8oDPro_5alloc3vec13in_place_dropINtB5_24InPlaceDstDataSrcBufDropTNtNtCsATtFUPiRFW_3syn4path11PathSegmentNtNtB1n_5token7PathSepEB1i_ENtNtNtCs9f3LFPSIp77_4core3ops4drop4Drop4dropCs7oyfuZDlTKn_11yoke_derive, symObjAddr: 0x190C, symBinAddr: 0x4A38C, symSize: 0xB8 }
  - { offset: 0xA8382, size: 0x8, addend: 0x0, symName: __RNvXs0_NtNtCsdze8u8oDPro_5alloc3vec13in_place_dropINtB5_24InPlaceDstDataSrcBufDropTNtNtCsATtFUPiRFW_3syn4path15GenericArgumentNtNtB1n_5token5CommaEB1i_ENtNtNtCs9f3LFPSIp77_4core3ops4drop4Drop4dropCs7oyfuZDlTKn_11yoke_derive, symObjAddr: 0x19C4, symBinAddr: 0x4A444, symSize: 0xB8 }
  - { offset: 0xA84AB, size: 0x8, addend: 0x0, symName: __RNvXs0_NtNtCsdze8u8oDPro_5alloc3vec13in_place_dropINtB5_24InPlaceDstDataSrcBufDropTNtNtCsATtFUPiRFW_3syn8generics12GenericParamNtNtB1n_5token5CommaEB1i_ENtNtNtCs9f3LFPSIp77_4core3ops4drop4Drop4dropCs7oyfuZDlTKn_11yoke_derive, symObjAddr: 0x1A7C, symBinAddr: 0x4A4FC, symSize: 0xB8 }
  - { offset: 0xA85D4, size: 0x8, addend: 0x0, symName: __RNvXs0_NtNtCsdze8u8oDPro_5alloc3vec13in_place_dropINtB5_24InPlaceDstDataSrcBufDropTNtNtCsATtFUPiRFW_3syn8generics13CapturedParamNtNtB1n_5token5CommaEB1i_ENtNtNtCs9f3LFPSIp77_4core3ops4drop4Drop4dropCs7oyfuZDlTKn_11yoke_derive, symObjAddr: 0x1B34, symBinAddr: 0x4A5B4, symSize: 0xB8 }
  - { offset: 0xA86FD, size: 0x8, addend: 0x0, symName: __RNvXs0_NtNtCsdze8u8oDPro_5alloc3vec13in_place_dropINtB5_24InPlaceDstDataSrcBufDropTNtNtCsATtFUPiRFW_3syn8generics14TypeParamBoundNtNtB1n_5token4PlusEB1i_ENtNtNtCs9f3LFPSIp77_4core3ops4drop4Drop4dropCs7oyfuZDlTKn_11yoke_derive, symObjAddr: 0x1BEC, symBinAddr: 0x4A66C, symSize: 0xB8 }
  - { offset: 0xA8826, size: 0x8, addend: 0x0, symName: __RNvXs0_NtNtCsdze8u8oDPro_5alloc3vec13in_place_dropINtB5_24InPlaceDstDataSrcBufDropTNtNtCsATtFUPiRFW_3syn8generics14WherePredicateNtNtB1n_5token5CommaEB1i_ENtNtNtCs9f3LFPSIp77_4core3ops4drop4Drop4dropCs7oyfuZDlTKn_11yoke_derive, symObjAddr: 0x1CA4, symBinAddr: 0x4A724, symSize: 0xB8 }
  - { offset: 0xA894F, size: 0x8, addend: 0x0, symName: __RNvXs0_NtNtCsdze8u8oDPro_5alloc3vec13in_place_dropINtB5_24InPlaceDstDataSrcBufDropTNtNtCsATtFUPiRFW_3syn8lifetime8LifetimeNtNtB1n_5token4PlusEB1i_ENtNtNtCs9f3LFPSIp77_4core3ops4drop4Drop4dropCs7oyfuZDlTKn_11yoke_derive, symObjAddr: 0x1D5C, symBinAddr: 0x4A7DC, symSize: 0xB8 }
  - { offset: 0xA8A7E, size: 0x8, addend: 0x0, symName: __RNvXs_NtNtCsdze8u8oDPro_5alloc3vec13in_place_dropINtB4_11InPlaceDropNtNtCsATtFUPiRFW_3syn4attr9AttributeENtNtNtCs9f3LFPSIp77_4core3ops4drop4Drop4dropCs7oyfuZDlTKn_11yoke_derive, symObjAddr: 0x1E14, symBinAddr: 0x4A894, symSize: 0x68 }
  - { offset: 0xA8AD4, size: 0x8, addend: 0x0, symName: __RNvXs_NtNtCsdze8u8oDPro_5alloc3vec13in_place_dropINtB4_11InPlaceDropNtNtCsATtFUPiRFW_3syn4expr3ArmENtNtNtCs9f3LFPSIp77_4core3ops4drop4Drop4dropCs7oyfuZDlTKn_11yoke_derive, symObjAddr: 0x1E7C, symBinAddr: 0x4A8FC, symSize: 0x68 }
  - { offset: 0xA8B2A, size: 0x8, addend: 0x0, symName: __RNvXs_NtNtCsdze8u8oDPro_5alloc3vec13in_place_dropINtB4_11InPlaceDropNtNtCsATtFUPiRFW_3syn4item11ForeignItemENtNtNtCs9f3LFPSIp77_4core3ops4drop4Drop4dropCs7oyfuZDlTKn_11yoke_derive, symObjAddr: 0x1EE4, symBinAddr: 0x4A964, symSize: 0x68 }
  - { offset: 0xA8B80, size: 0x8, addend: 0x0, symName: __RNvXs_NtNtCsdze8u8oDPro_5alloc3vec13in_place_dropINtB4_11InPlaceDropNtNtCsATtFUPiRFW_3syn4item4ItemENtNtNtCs9f3LFPSIp77_4core3ops4drop4Drop4dropCs7oyfuZDlTKn_11yoke_derive, symObjAddr: 0x1F4C, symBinAddr: 0x4A9CC, symSize: 0x68 }
  - { offset: 0xA8BD6, size: 0x8, addend: 0x0, symName: __RNvXs_NtNtCsdze8u8oDPro_5alloc3vec13in_place_dropINtB4_11InPlaceDropNtNtCsATtFUPiRFW_3syn4item8ImplItemENtNtNtCs9f3LFPSIp77_4core3ops4drop4Drop4dropCs7oyfuZDlTKn_11yoke_derive, symObjAddr: 0x1FB4, symBinAddr: 0x4AA34, symSize: 0x68 }
  - { offset: 0xA8C2C, size: 0x8, addend: 0x0, symName: __RNvXs_NtNtCsdze8u8oDPro_5alloc3vec13in_place_dropINtB4_11InPlaceDropNtNtCsATtFUPiRFW_3syn4item9TraitItemENtNtNtCs9f3LFPSIp77_4core3ops4drop4Drop4dropCs7oyfuZDlTKn_11yoke_derive, symObjAddr: 0x201C, symBinAddr: 0x4AA9C, symSize: 0x68 }
  - { offset: 0xA8C82, size: 0x8, addend: 0x0, symName: __RNvXs_NtNtCsdze8u8oDPro_5alloc3vec13in_place_dropINtB4_11InPlaceDropNtNtCsATtFUPiRFW_3syn4stmt4StmtENtNtNtCs9f3LFPSIp77_4core3ops4drop4Drop4dropCs7oyfuZDlTKn_11yoke_derive, symObjAddr: 0x2084, symBinAddr: 0x4AB04, symSize: 0x68 }
  - { offset: 0xA8CD8, size: 0x8, addend: 0x0, symName: __RNvXs_NtNtCsdze8u8oDPro_5alloc3vec13in_place_dropINtB4_11InPlaceDropTNtNtCsATtFUPiRFW_3syn2ty4TypeNtNtB19_5token5CommaEENtNtNtCs9f3LFPSIp77_4core3ops4drop4Drop4dropCs7oyfuZDlTKn_11yoke_derive, symObjAddr: 0x20EC, symBinAddr: 0x4AB6C, symSize: 0x68 }
  - { offset: 0xA8D2E, size: 0x8, addend: 0x0, symName: __RNvXs_NtNtCsdze8u8oDPro_5alloc3vec13in_place_dropINtB4_11InPlaceDropTNtNtCsATtFUPiRFW_3syn2ty9BareFnArgNtNtB19_5token5CommaEENtNtNtCs9f3LFPSIp77_4core3ops4drop4Drop4dropCs7oyfuZDlTKn_11yoke_derive, symObjAddr: 0x2154, symBinAddr: 0x4ABD4, symSize: 0x68 }
  - { offset: 0xA8D84, size: 0x8, addend: 0x0, symName: __RNvXs_NtNtCsdze8u8oDPro_5alloc3vec13in_place_dropINtB4_11InPlaceDropTNtNtCsATtFUPiRFW_3syn3pat3PatNtNtB19_5token2OrEENtNtNtCs9f3LFPSIp77_4core3ops4drop4Drop4dropCs7oyfuZDlTKn_11yoke_derive, symObjAddr: 0x21BC, symBinAddr: 0x4AC3C, symSize: 0x68 }
  - { offset: 0xA8DDA, size: 0x8, addend: 0x0, symName: __RNvXs_NtNtCsdze8u8oDPro_5alloc3vec13in_place_dropINtB4_11InPlaceDropTNtNtCsATtFUPiRFW_3syn3pat3PatNtNtB19_5token5CommaEENtNtNtCs9f3LFPSIp77_4core3ops4drop4Drop4dropCs7oyfuZDlTKn_11yoke_derive, symObjAddr: 0x2224, symBinAddr: 0x4ACA4, symSize: 0x68 }
  - { offset: 0xA8E30, size: 0x8, addend: 0x0, symName: __RNvXs_NtNtCsdze8u8oDPro_5alloc3vec13in_place_dropINtB4_11InPlaceDropTNtNtCsATtFUPiRFW_3syn3pat8FieldPatNtNtB19_5token5CommaEENtNtNtCs9f3LFPSIp77_4core3ops4drop4Drop4dropCs7oyfuZDlTKn_11yoke_derive, symObjAddr: 0x228C, symBinAddr: 0x4AD0C, symSize: 0x68 }
  - { offset: 0xA8E86, size: 0x8, addend: 0x0, symName: __RNvXs_NtNtCsdze8u8oDPro_5alloc3vec13in_place_dropINtB4_11InPlaceDropTNtNtCsATtFUPiRFW_3syn4data5FieldNtNtB19_5token5CommaEENtNtNtCs9f3LFPSIp77_4core3ops4drop4Drop4dropCs7oyfuZDlTKn_11yoke_derive, symObjAddr: 0x22F4, symBinAddr: 0x4AD74, symSize: 0x68 }
  - { offset: 0xA8EDC, size: 0x8, addend: 0x0, symName: __RNvXs_NtNtCsdze8u8oDPro_5alloc3vec13in_place_dropINtB4_11InPlaceDropTNtNtCsATtFUPiRFW_3syn4data7VariantNtNtB19_5token5CommaEENtNtNtCs9f3LFPSIp77_4core3ops4drop4Drop4dropCs7oyfuZDlTKn_11yoke_derive, symObjAddr: 0x235C, symBinAddr: 0x4ADDC, symSize: 0x68 }
  - { offset: 0xA8F32, size: 0x8, addend: 0x0, symName: __RNvXs_NtNtCsdze8u8oDPro_5alloc3vec13in_place_dropINtB4_11InPlaceDropTNtNtCsATtFUPiRFW_3syn4expr10FieldValueNtNtB19_5token5CommaEENtNtNtCs9f3LFPSIp77_4core3ops4drop4Drop4dropCs7oyfuZDlTKn_11yoke_derive, symObjAddr: 0x23C4, symBinAddr: 0x4AE44, symSize: 0x68 }
  - { offset: 0xA8F88, size: 0x8, addend: 0x0, symName: __RNvXs_NtNtCsdze8u8oDPro_5alloc3vec13in_place_dropINtB4_11InPlaceDropTNtNtCsATtFUPiRFW_3syn4expr4ExprNtNtB19_5token5CommaEENtNtNtCs9f3LFPSIp77_4core3ops4drop4Drop4dropCs7oyfuZDlTKn_11yoke_derive, symObjAddr: 0x242C, symBinAddr: 0x4AEAC, symSize: 0x68 }
  - { offset: 0xA8FDE, size: 0x8, addend: 0x0, symName: __RNvXs_NtNtCsdze8u8oDPro_5alloc3vec13in_place_dropINtB4_11InPlaceDropTNtNtCsATtFUPiRFW_3syn4item5FnArgNtNtB19_5token5CommaEENtNtNtCs9f3LFPSIp77_4core3ops4drop4Drop4dropCs7oyfuZDlTKn_11yoke_derive, symObjAddr: 0x2494, symBinAddr: 0x4AF14, symSize: 0x68 }
  - { offset: 0xA9034, size: 0x8, addend: 0x0, symName: __RNvXs_NtNtCsdze8u8oDPro_5alloc3vec13in_place_dropINtB4_11InPlaceDropTNtNtCsATtFUPiRFW_3syn4item7UseTreeNtNtB19_5token5CommaEENtNtNtCs9f3LFPSIp77_4core3ops4drop4Drop4dropCs7oyfuZDlTKn_11yoke_derive, symObjAddr: 0x24FC, symBinAddr: 0x4AF7C, symSize: 0x68 }
  - { offset: 0xA908A, size: 0x8, addend: 0x0, symName: __RNvXs_NtNtCsdze8u8oDPro_5alloc3vec13in_place_dropINtB4_11InPlaceDropTNtNtCsATtFUPiRFW_3syn4path11PathSegmentNtNtB19_5token7PathSepEENtNtNtCs9f3LFPSIp77_4core3ops4drop4Drop4dropCs7oyfuZDlTKn_11yoke_derive, symObjAddr: 0x2564, symBinAddr: 0x4AFE4, symSize: 0x68 }
  - { offset: 0xA90E0, size: 0x8, addend: 0x0, symName: __RNvXs_NtNtCsdze8u8oDPro_5alloc3vec13in_place_dropINtB4_11InPlaceDropTNtNtCsATtFUPiRFW_3syn4path15GenericArgumentNtNtB19_5token5CommaEENtNtNtCs9f3LFPSIp77_4core3ops4drop4Drop4dropCs7oyfuZDlTKn_11yoke_derive, symObjAddr: 0x25CC, symBinAddr: 0x4B04C, symSize: 0x68 }
  - { offset: 0xA9136, size: 0x8, addend: 0x0, symName: __RNvXs_NtNtCsdze8u8oDPro_5alloc3vec13in_place_dropINtB4_11InPlaceDropTNtNtCsATtFUPiRFW_3syn8generics12GenericParamNtNtB19_5token5CommaEENtNtNtCs9f3LFPSIp77_4core3ops4drop4Drop4dropCs7oyfuZDlTKn_11yoke_derive, symObjAddr: 0x2634, symBinAddr: 0x4B0B4, symSize: 0x68 }
  - { offset: 0xA918C, size: 0x8, addend: 0x0, symName: __RNvXs_NtNtCsdze8u8oDPro_5alloc3vec13in_place_dropINtB4_11InPlaceDropTNtNtCsATtFUPiRFW_3syn8generics13CapturedParamNtNtB19_5token5CommaEENtNtNtCs9f3LFPSIp77_4core3ops4drop4Drop4dropCs7oyfuZDlTKn_11yoke_derive, symObjAddr: 0x269C, symBinAddr: 0x4B11C, symSize: 0x68 }
  - { offset: 0xA91E2, size: 0x8, addend: 0x0, symName: __RNvXs_NtNtCsdze8u8oDPro_5alloc3vec13in_place_dropINtB4_11InPlaceDropTNtNtCsATtFUPiRFW_3syn8generics14TypeParamBoundNtNtB19_5token4PlusEENtNtNtCs9f3LFPSIp77_4core3ops4drop4Drop4dropCs7oyfuZDlTKn_11yoke_derive, symObjAddr: 0x2704, symBinAddr: 0x4B184, symSize: 0x68 }
  - { offset: 0xA9238, size: 0x8, addend: 0x0, symName: __RNvXs_NtNtCsdze8u8oDPro_5alloc3vec13in_place_dropINtB4_11InPlaceDropTNtNtCsATtFUPiRFW_3syn8generics14WherePredicateNtNtB19_5token5CommaEENtNtNtCs9f3LFPSIp77_4core3ops4drop4Drop4dropCs7oyfuZDlTKn_11yoke_derive, symObjAddr: 0x276C, symBinAddr: 0x4B1EC, symSize: 0x68 }
  - { offset: 0xA928E, size: 0x8, addend: 0x0, symName: __RNvXs_NtNtCsdze8u8oDPro_5alloc3vec13in_place_dropINtB4_11InPlaceDropTNtNtCsATtFUPiRFW_3syn8lifetime8LifetimeNtNtB19_5token4PlusEENtNtNtCs9f3LFPSIp77_4core3ops4drop4Drop4dropCs7oyfuZDlTKn_11yoke_derive, symObjAddr: 0x27D4, symBinAddr: 0x4B254, symSize: 0x68 }
  - { offset: 0xAAD58, size: 0x8, addend: 0x0, symName: __RNvMNtNtCsdze8u8oDPro_5alloc3vec13in_place_dropINtB2_11InPlaceDropNtNtCsATtFUPiRFW_3syn4attr9AttributeE3lenCs7oyfuZDlTKn_11yoke_derive, symObjAddr: 0x0, symBinAddr: 0x48A80, symSize: 0x7C }
  - { offset: 0xAAE20, size: 0x8, addend: 0x0, symName: __RNvMNtNtCsdze8u8oDPro_5alloc3vec13in_place_dropINtB2_11InPlaceDropNtNtCsATtFUPiRFW_3syn4expr3ArmE3lenCs7oyfuZDlTKn_11yoke_derive, symObjAddr: 0x7C, symBinAddr: 0x48AFC, symSize: 0x7C }
  - { offset: 0xAAEE8, size: 0x8, addend: 0x0, symName: __RNvMNtNtCsdze8u8oDPro_5alloc3vec13in_place_dropINtB2_11InPlaceDropNtNtCsATtFUPiRFW_3syn4item11ForeignItemE3lenCs7oyfuZDlTKn_11yoke_derive, symObjAddr: 0xF8, symBinAddr: 0x48B78, symSize: 0x7C }
  - { offset: 0xAAFB0, size: 0x8, addend: 0x0, symName: __RNvMNtNtCsdze8u8oDPro_5alloc3vec13in_place_dropINtB2_11InPlaceDropNtNtCsATtFUPiRFW_3syn4item4ItemE3lenCs7oyfuZDlTKn_11yoke_derive, symObjAddr: 0x174, symBinAddr: 0x48BF4, symSize: 0x7C }
  - { offset: 0xAB078, size: 0x8, addend: 0x0, symName: __RNvMNtNtCsdze8u8oDPro_5alloc3vec13in_place_dropINtB2_11InPlaceDropNtNtCsATtFUPiRFW_3syn4item8ImplItemE3lenCs7oyfuZDlTKn_11yoke_derive, symObjAddr: 0x1F0, symBinAddr: 0x48C70, symSize: 0x7C }
  - { offset: 0xAB140, size: 0x8, addend: 0x0, symName: __RNvMNtNtCsdze8u8oDPro_5alloc3vec13in_place_dropINtB2_11InPlaceDropNtNtCsATtFUPiRFW_3syn4item9TraitItemE3lenCs7oyfuZDlTKn_11yoke_derive, symObjAddr: 0x26C, symBinAddr: 0x48CEC, symSize: 0x7C }
  - { offset: 0xAB208, size: 0x8, addend: 0x0, symName: __RNvMNtNtCsdze8u8oDPro_5alloc3vec13in_place_dropINtB2_11InPlaceDropNtNtCsATtFUPiRFW_3syn4stmt4StmtE3lenCs7oyfuZDlTKn_11yoke_derive, symObjAddr: 0x2E8, symBinAddr: 0x48D68, symSize: 0x7C }
  - { offset: 0xAB2D0, size: 0x8, addend: 0x0, symName: __RNvMNtNtCsdze8u8oDPro_5alloc3vec13in_place_dropINtB2_11InPlaceDropTNtNtCsATtFUPiRFW_3syn2ty4TypeNtNtB17_5token5CommaEE3lenCs7oyfuZDlTKn_11yoke_derive, symObjAddr: 0x364, symBinAddr: 0x48DE4, symSize: 0x7C }
  - { offset: 0xAB398, size: 0x8, addend: 0x0, symName: __RNvMNtNtCsdze8u8oDPro_5alloc3vec13in_place_dropINtB2_11InPlaceDropTNtNtCsATtFUPiRFW_3syn2ty9BareFnArgNtNtB17_5token5CommaEE3lenCs7oyfuZDlTKn_11yoke_derive, symObjAddr: 0x3E0, symBinAddr: 0x48E60, symSize: 0x7C }
  - { offset: 0xAB460, size: 0x8, addend: 0x0, symName: __RNvMNtNtCsdze8u8oDPro_5alloc3vec13in_place_dropINtB2_11InPlaceDropTNtNtCsATtFUPiRFW_3syn3pat3PatNtNtB17_5token2OrEE3lenCs7oyfuZDlTKn_11yoke_derive, symObjAddr: 0x45C, symBinAddr: 0x48EDC, symSize: 0x7C }
  - { offset: 0xAB528, size: 0x8, addend: 0x0, symName: __RNvMNtNtCsdze8u8oDPro_5alloc3vec13in_place_dropINtB2_11InPlaceDropTNtNtCsATtFUPiRFW_3syn3pat3PatNtNtB17_5token5CommaEE3lenCs7oyfuZDlTKn_11yoke_derive, symObjAddr: 0x4D8, symBinAddr: 0x48F58, symSize: 0x7C }
  - { offset: 0xAB5F0, size: 0x8, addend: 0x0, symName: __RNvMNtNtCsdze8u8oDPro_5alloc3vec13in_place_dropINtB2_11InPlaceDropTNtNtCsATtFUPiRFW_3syn3pat8FieldPatNtNtB17_5token5CommaEE3lenCs7oyfuZDlTKn_11yoke_derive, symObjAddr: 0x554, symBinAddr: 0x48FD4, symSize: 0x7C }
  - { offset: 0xAB6B8, size: 0x8, addend: 0x0, symName: __RNvMNtNtCsdze8u8oDPro_5alloc3vec13in_place_dropINtB2_11InPlaceDropTNtNtCsATtFUPiRFW_3syn4data5FieldNtNtB17_5token5CommaEE3lenCs7oyfuZDlTKn_11yoke_derive, symObjAddr: 0x5D0, symBinAddr: 0x49050, symSize: 0x7C }
  - { offset: 0xAB780, size: 0x8, addend: 0x0, symName: __RNvMNtNtCsdze8u8oDPro_5alloc3vec13in_place_dropINtB2_11InPlaceDropTNtNtCsATtFUPiRFW_3syn4data7VariantNtNtB17_5token5CommaEE3lenCs7oyfuZDlTKn_11yoke_derive, symObjAddr: 0x64C, symBinAddr: 0x490CC, symSize: 0x7C }
  - { offset: 0xAB848, size: 0x8, addend: 0x0, symName: __RNvMNtNtCsdze8u8oDPro_5alloc3vec13in_place_dropINtB2_11InPlaceDropTNtNtCsATtFUPiRFW_3syn4expr10FieldValueNtNtB17_5token5CommaEE3lenCs7oyfuZDlTKn_11yoke_derive, symObjAddr: 0x6C8, symBinAddr: 0x49148, symSize: 0x7C }
  - { offset: 0xAB910, size: 0x8, addend: 0x0, symName: __RNvMNtNtCsdze8u8oDPro_5alloc3vec13in_place_dropINtB2_11InPlaceDropTNtNtCsATtFUPiRFW_3syn4expr4ExprNtNtB17_5token5CommaEE3lenCs7oyfuZDlTKn_11yoke_derive, symObjAddr: 0x744, symBinAddr: 0x491C4, symSize: 0x7C }
  - { offset: 0xAB9D8, size: 0x8, addend: 0x0, symName: __RNvMNtNtCsdze8u8oDPro_5alloc3vec13in_place_dropINtB2_11InPlaceDropTNtNtCsATtFUPiRFW_3syn4item5FnArgNtNtB17_5token5CommaEE3lenCs7oyfuZDlTKn_11yoke_derive, symObjAddr: 0x7C0, symBinAddr: 0x49240, symSize: 0x7C }
  - { offset: 0xABAA0, size: 0x8, addend: 0x0, symName: __RNvMNtNtCsdze8u8oDPro_5alloc3vec13in_place_dropINtB2_11InPlaceDropTNtNtCsATtFUPiRFW_3syn4item7UseTreeNtNtB17_5token5CommaEE3lenCs7oyfuZDlTKn_11yoke_derive, symObjAddr: 0x83C, symBinAddr: 0x492BC, symSize: 0x7C }
  - { offset: 0xABB68, size: 0x8, addend: 0x0, symName: __RNvMNtNtCsdze8u8oDPro_5alloc3vec13in_place_dropINtB2_11InPlaceDropTNtNtCsATtFUPiRFW_3syn4path11PathSegmentNtNtB17_5token7PathSepEE3lenCs7oyfuZDlTKn_11yoke_derive, symObjAddr: 0x8B8, symBinAddr: 0x49338, symSize: 0x7C }
  - { offset: 0xABC30, size: 0x8, addend: 0x0, symName: __RNvMNtNtCsdze8u8oDPro_5alloc3vec13in_place_dropINtB2_11InPlaceDropTNtNtCsATtFUPiRFW_3syn4path15GenericArgumentNtNtB17_5token5CommaEE3lenCs7oyfuZDlTKn_11yoke_derive, symObjAddr: 0x934, symBinAddr: 0x493B4, symSize: 0x7C }
  - { offset: 0xABCF8, size: 0x8, addend: 0x0, symName: __RNvMNtNtCsdze8u8oDPro_5alloc3vec13in_place_dropINtB2_11InPlaceDropTNtNtCsATtFUPiRFW_3syn8generics12GenericParamNtNtB17_5token5CommaEE3lenCs7oyfuZDlTKn_11yoke_derive, symObjAddr: 0x9B0, symBinAddr: 0x49430, symSize: 0x7C }
  - { offset: 0xABDC0, size: 0x8, addend: 0x0, symName: __RNvMNtNtCsdze8u8oDPro_5alloc3vec13in_place_dropINtB2_11InPlaceDropTNtNtCsATtFUPiRFW_3syn8generics13CapturedParamNtNtB17_5token5CommaEE3lenCs7oyfuZDlTKn_11yoke_derive, symObjAddr: 0xA2C, symBinAddr: 0x494AC, symSize: 0x7C }
  - { offset: 0xABE88, size: 0x8, addend: 0x0, symName: __RNvMNtNtCsdze8u8oDPro_5alloc3vec13in_place_dropINtB2_11InPlaceDropTNtNtCsATtFUPiRFW_3syn8generics14TypeParamBoundNtNtB17_5token4PlusEE3lenCs7oyfuZDlTKn_11yoke_derive, symObjAddr: 0xAA8, symBinAddr: 0x49528, symSize: 0x7C }
  - { offset: 0xABF50, size: 0x8, addend: 0x0, symName: __RNvMNtNtCsdze8u8oDPro_5alloc3vec13in_place_dropINtB2_11InPlaceDropTNtNtCsATtFUPiRFW_3syn8generics14WherePredicateNtNtB17_5token5CommaEE3lenCs7oyfuZDlTKn_11yoke_derive, symObjAddr: 0xB24, symBinAddr: 0x495A4, symSize: 0x7C }
  - { offset: 0xAC018, size: 0x8, addend: 0x0, symName: __RNvMNtNtCsdze8u8oDPro_5alloc3vec13in_place_dropINtB2_11InPlaceDropTNtNtCsATtFUPiRFW_3syn8lifetime8LifetimeNtNtB17_5token4PlusEE3lenCs7oyfuZDlTKn_11yoke_derive, symObjAddr: 0xBA0, symBinAddr: 0x49620, symSize: 0x7C }
  - { offset: 0xADCAC, size: 0x8, addend: 0x0, symName: __RINvMs6_NtCscXJUXcj6jCz_9hashbrown3rawINtB6_8RawTableTNtCs475r2uZUTuc_11proc_macro25IdentuEE14reserve_rehashNCINvNtB8_3map11make_hasherBQ_uNtNtNtCs27l1GJC5rMQ_3std4hash6random11RandomStateE0ECs7oyfuZDlTKn_11yoke_derive, symObjAddr: 0x0, symBinAddr: 0x2FE9D0, symSize: 0x928 }
  - { offset: 0xADCE8, size: 0x8, addend: 0x0, symName: __RNCINvMs6_NtCscXJUXcj6jCz_9hashbrown3rawINtB8_8RawTableTNtCs475r2uZUTuc_11proc_macro25IdentuEE14reserve_rehashNCINvNtBa_3map11make_hasherBS_uNtNtNtCs27l1GJC5rMQ_3std4hash6random11RandomStateE0E0Cs7oyfuZDlTKn_11yoke_derive, symObjAddr: 0x127C, symBinAddr: 0x4BC10, symSize: 0xC4 }
  - { offset: 0xADEB1, size: 0x8, addend: 0x0, symName: __RNCINvMs6_NtCscXJUXcj6jCz_9hashbrown3rawINtB8_8RawTableTNtCs475r2uZUTuc_11proc_macro25IdentuEE14reserve_rehashNCINvNtBa_3map11make_hasherBS_uNtNtNtCs27l1GJC5rMQ_3std4hash6random11RandomStateE0Es_0Cs7oyfuZDlTKn_11yoke_derive, symObjAddr: 0x1340, symBinAddr: 0x4BCD4, symSize: 0x30 }
  - { offset: 0xADF0E, size: 0x8, addend: 0x0, symName: __RNCINvMs6_NtCscXJUXcj6jCz_9hashbrown3rawINtB8_8RawTableTNtCs475r2uZUTuc_11proc_macro25IdentuEE24find_or_find_insert_slotNCINvNtBa_3map14equivalent_keyBS_BS_uE0NCINvB1Z_11make_hasherBS_uNtNtNtCs27l1GJC5rMQ_3std4hash6random11RandomStateE0E0Cs7oyfuZDlTKn_11yoke_derive, symObjAddr: 0x1370, symBinAddr: 0x4BD04, symSize: 0xC8 }
  - { offset: 0xAE0E9, size: 0x8, addend: 0x0, symName: __RNCINvMs6_NtCscXJUXcj6jCz_9hashbrown3rawINtB8_8RawTableTNtCs475r2uZUTuc_11proc_macro25IdentuEE4findNCINvNtBa_3map14equivalent_keyBS_BS_uE0E0Cs7oyfuZDlTKn_11yoke_derive, symObjAddr: 0x1438, symBinAddr: 0x4BDCC, symSize: 0xC8 }
  - { offset: 0xAF07A, size: 0x8, addend: 0x0, symName: __RNvXsg_NtCscXJUXcj6jCz_9hashbrown3rawINtB5_8RawTableTNtCs475r2uZUTuc_11proc_macro25IdentuEENtNtNtCs9f3LFPSIp77_4core3ops4drop4Drop4dropCs7oyfuZDlTKn_11yoke_derive, symObjAddr: 0x2824, symBinAddr: 0x4D1B8, symSize: 0x3C }
  - { offset: 0xB1B69, size: 0x8, addend: 0x0, symName: __RINvMs6_NtCscXJUXcj6jCz_9hashbrown3rawINtB6_8RawTableTNtCs475r2uZUTuc_11proc_macro25IdentuEE14reserve_rehashNCINvNtB8_3map11make_hasherBQ_uNtNtNtCs27l1GJC5rMQ_3std4hash6random11RandomStateE0ECs7oyfuZDlTKn_11yoke_derive, symObjAddr: 0x0, symBinAddr: 0x2FE9D0, symSize: 0x928 }
  - { offset: 0xB2756, size: 0x8, addend: 0x0, symName: __RINvMs6_NtCscXJUXcj6jCz_9hashbrown3rawINtB6_8RawTableTNtCs475r2uZUTuc_11proc_macro25IdentuEE24find_or_find_insert_slotNCINvNtB8_3map14equivalent_keyBQ_BQ_uE0NCINvB1X_11make_hasherBQ_uNtNtNtCs27l1GJC5rMQ_3std4hash6random11RandomStateE0ECs7oyfuZDlTKn_11yoke_derive, symObjAddr: 0x928, symBinAddr: 0x4B2BC, symSize: 0x140 }
  - { offset: 0xB2D1B, size: 0x8, addend: 0x0, symName: __RINvMs6_NtCscXJUXcj6jCz_9hashbrown3rawINtB6_8RawTableTNtCs475r2uZUTuc_11proc_macro25IdentuEE4findNCINvNtB8_3map14equivalent_keyBQ_BQ_uE0ECs7oyfuZDlTKn_11yoke_derive, symObjAddr: 0xA68, symBinAddr: 0x4B3FC, symSize: 0x350 }
  - { offset: 0xB31F2, size: 0x8, addend: 0x0, symName: __RINvMs6_NtCscXJUXcj6jCz_9hashbrown3rawINtB6_8RawTableTNtCs475r2uZUTuc_11proc_macro25IdentuEE7reserveNCINvNtB8_3map11make_hasherBQ_uNtNtNtCs27l1GJC5rMQ_3std4hash6random11RandomStateE0ECs7oyfuZDlTKn_11yoke_derive, symObjAddr: 0xDB8, symBinAddr: 0x4B74C, symSize: 0xCC }
  - { offset: 0xB33C4, size: 0x8, addend: 0x0, symName: __RINvMsa_NtCscXJUXcj6jCz_9hashbrown3rawNtB6_13RawTableInner13drop_elementsTNtCs475r2uZUTuc_11proc_macro25IdentuEECs7oyfuZDlTKn_11yoke_derive, symObjAddr: 0xE84, symBinAddr: 0x4B818, symSize: 0x174 }
  - { offset: 0xB3739, size: 0x8, addend: 0x0, symName: __RINvMsa_NtCscXJUXcj6jCz_9hashbrown3rawNtB6_13RawTableInner16drop_inner_tableTNtCs475r2uZUTuc_11proc_macro25IdentuENtNtCsdze8u8oDPro_5alloc5alloc6GlobalECs7oyfuZDlTKn_11yoke_derive, symObjAddr: 0xFF8, symBinAddr: 0x4B98C, symSize: 0xBC }
  - { offset: 0xB3A09, size: 0x8, addend: 0x0, symName: __RINvMsi_NtCscXJUXcj6jCz_9hashbrown3rawINtB6_12RawIterRangeTNtCs475r2uZUTuc_11proc_macro25IdentuEE9next_implKb0_ECs7oyfuZDlTKn_11yoke_derive, symObjAddr: 0x10B4, symBinAddr: 0x4BA48, symSize: 0x1C8 }
  - { offset: 0xB4094, size: 0x8, addend: 0x0, symName: __RNvMs1_NtCscXJUXcj6jCz_9hashbrown3rawNtB5_11TableLayout20calculate_layout_forCs7oyfuZDlTKn_11yoke_derive, symObjAddr: 0x1500, symBinAddr: 0x4BE94, symSize: 0x224 }
  - { offset: 0xB453C, size: 0x8, addend: 0x0, symName: __RNvMs6_NtCscXJUXcj6jCz_9hashbrown3rawINtB5_8RawTableTNtCs475r2uZUTuc_11proc_macro25IdentuEE14insert_in_slotCs7oyfuZDlTKn_11yoke_derive, symObjAddr: 0x1724, symBinAddr: 0x4C0B8, symSize: 0x188 }
  - { offset: 0xB4AED, size: 0x8, addend: 0x0, symName: __RNvMsa_NtCscXJUXcj6jCz_9hashbrown3rawNtB5_13RawTableInner15fix_insert_slotCs7oyfuZDlTKn_11yoke_derive, symObjAddr: 0x18AC, symBinAddr: 0x4C240, symSize: 0x118 }
  - { offset: 0xB4F69, size: 0x8, addend: 0x0, symName: __RNvMsa_NtCscXJUXcj6jCz_9hashbrown3rawNtB5_13RawTableInner15rehash_in_placeCs7oyfuZDlTKn_11yoke_derive, symObjAddr: 0x19C4, symBinAddr: 0x4C358, symSize: 0x574 }
  - { offset: 0xB5A8B, size: 0x8, addend: 0x0, symName: __RNvMsa_NtCscXJUXcj6jCz_9hashbrown3rawNtB5_13RawTableInner16find_insert_slotCs7oyfuZDlTKn_11yoke_derive, symObjAddr: 0x1F38, symBinAddr: 0x4C8CC, symSize: 0x168 }
  - { offset: 0xB5DE3, size: 0x8, addend: 0x0, symName: __RNvMsa_NtCscXJUXcj6jCz_9hashbrown3rawNtB5_13RawTableInner23prepare_rehash_in_placeCs7oyfuZDlTKn_11yoke_derive, symObjAddr: 0x20A0, symBinAddr: 0x4CA34, symSize: 0x25C }
  - { offset: 0xB6499, size: 0x8, addend: 0x0, symName: __RNvMsa_NtCscXJUXcj6jCz_9hashbrown3rawNtB5_13RawTableInner25find_insert_slot_in_groupCs7oyfuZDlTKn_11yoke_derive, symObjAddr: 0x22FC, symBinAddr: 0x4CC90, symSize: 0x184 }
  - { offset: 0xB675A, size: 0x8, addend: 0x0, symName: __RNvMsa_NtCscXJUXcj6jCz_9hashbrown3rawNtB5_13RawTableInner30find_or_find_insert_slot_innerCs7oyfuZDlTKn_11yoke_derive, symObjAddr: 0x2480, symBinAddr: 0x4CE14, symSize: 0x300 }
  - { offset: 0xB6B32, size: 0x8, addend: 0x0, symName: __RNvMsi_NtCscXJUXcj6jCz_9hashbrown3rawINtB5_12RawIterRangeTNtCs475r2uZUTuc_11proc_macro25IdentuEE3newCs7oyfuZDlTKn_11yoke_derive, symObjAddr: 0x2780, symBinAddr: 0x4D114, symSize: 0xA4 }
  - { offset: 0xB6D16, size: 0x8, addend: 0x0, symName: __RINvNtCs9f3LFPSIp77_4core9panicking13panic_displayNtNtCsATtFUPiRFW_3syn5error5ErrorECs7oyfuZDlTKn_11yoke_derive, symObjAddr: 0x0, symBinAddr: 0x4D1F4, symSize: 0x98 }
  - { offset: 0xB7919, size: 0x8, addend: 0x0, symName: __RNvNvMNtNtCs9f3LFPSIp77_4core3ptr9const_ptrPp7sub_ptr18precondition_checkCs7oyfuZDlTKn_11yoke_derive, symObjAddr: 0x1584, symBinAddr: 0x4E778, symSize: 0x40 }
  - { offset: 0xBA8A6, size: 0x8, addend: 0x0, symName: __RINvNtCs9f3LFPSIp77_4core9panicking13panic_displayNtNtCsATtFUPiRFW_3syn5error5ErrorECs7oyfuZDlTKn_11yoke_derive, symObjAddr: 0x0, symBinAddr: 0x4D1F4, symSize: 0x98 }
  - { offset: 0xBAC25, size: 0x8, addend: 0x0, symName: __RINvXs2U_NtNtCs9f3LFPSIp77_4core5slice4iterINtB7_4IterNtCs475r2uZUTuc_11proc_macro25IdentENtNtNtNtBb_4iter6traits8iterator8Iterator4folduNCINvNtNtB1w_8adapters3map8map_foldRBQ_BQ_uNvYBQ_NtNtBb_5clone5Clone5cloneNCIB2e_BQ_TBQ_uEuNCINvXs8_NtCscXJUXcj6jCz_9hashbrown3setINtB3N_7HashSetBQ_NtNtNtCs27l1GJC5rMQ_3std4hash6random11RandomStateEINtNtB1u_7collect6ExtendBQ_E6extendINtNtB2i_6cloned6ClonedBF_EE0NCINvNvB1q_8for_each4callB3x_NCINvXs1i_NtB3P_3mapINtB72_7HashMapBQ_uB4z_EIB5o_B3x_E6extendINtB2g_3MapB5W_B3E_EE0E0E0E0ECs7oyfuZDlTKn_11yoke_derive, symObjAddr: 0x428, symBinAddr: 0x4D61C, symSize: 0x1D4 }
  - { offset: 0xBAE06, size: 0x8, addend: 0x0, symName: __RINvXs2U_NtNtCs9f3LFPSIp77_4core5slice4iterINtB7_4IterNtCs475r2uZUTuc_11proc_macro25IdentENtNtNtNtBb_4iter6traits8iterator8Iterator4folduNCINvNtNtB1w_8adapters3map8map_foldRBQ_NtNtCsATtFUPiRFW_3syn8generics14WherePredicateuNCNvCs7oyfuZDlTKn_11yoke_derive20yokeable_derive_impls0_0NCINvNvB1q_8for_each4callB2O_NCINvMsi_NtCsdze8u8oDPro_5alloc3vecINtB56_3VecB2O_E14extend_trustedINtB2g_3MapBF_B3z_EE0E0E0EB3D_, symObjAddr: 0x5FC, symBinAddr: 0x4D7F0, symSize: 0x200 }
  - { offset: 0xBAFE8, size: 0x8, addend: 0x0, symName: __RINvXs2U_NtNtCs9f3LFPSIp77_4core5slice4iterINtB7_4IterNtCs475r2uZUTuc_11proc_macro25IdentENtNtNtNtBb_4iter6traits8iterator8Iterator4folduNCINvNtNtB1w_8adapters3map8map_foldRBQ_NtNtCsATtFUPiRFW_3syn8generics14WherePredicateuNCNvCs7oyfuZDlTKn_11yoke_derive20yokeable_derive_impls2_0NCINvNvB1q_8for_each4callB2O_NCINvMsi_NtCsdze8u8oDPro_5alloc3vecINtB56_3VecB2O_E14extend_trustedINtB2g_3MapBF_B3z_EE0E0E0EB3D_, symObjAddr: 0x7FC, symBinAddr: 0x4D9F0, symSize: 0x200 }
  - { offset: 0xBB1CA, size: 0x8, addend: 0x0, symName: __RINvXs2U_NtNtCs9f3LFPSIp77_4core5slice4iterINtB7_4IterNtNtCsATtFUPiRFW_3syn4attr9AttributeENtNtNtNtBb_4iter6traits8iterator8Iterator3anyNCNvCs7oyfuZDlTKn_11yoke_derive20yokeable_derive_impls1_0EB2e_, symObjAddr: 0x9FC, symBinAddr: 0x4DBF0, symSize: 0xB0 }
  - { offset: 0xBB22F, size: 0x8, addend: 0x0, symName: __RINvXs2U_NtNtCs9f3LFPSIp77_4core5slice4iterINtB7_4IterNtNtCsATtFUPiRFW_3syn8generics9TypeParamENtNtNtNtBb_4iter6traits8iterator8Iterator4folduNCINvNtNtB1B_8adapters3map8map_foldRBQ_NtCs475r2uZUTuc_11proc_macro25IdentuNCNvCs7oyfuZDlTKn_11yoke_derive20yokeable_derive_impls_0NCINvNvB1v_8for_each4callB2T_NCINvMsi_NtCsdze8u8oDPro_5alloc3vecINtB4Z_3VecB2T_E14extend_trustedINtB2l_3MapBF_B3t_EE0E0E0EB3x_, symObjAddr: 0xAAC, symBinAddr: 0x4DCA0, symSize: 0x200 }
  - { offset: 0xBB411, size: 0x8, addend: 0x0, symName: __RNvXs2U_NtNtCs9f3LFPSIp77_4core5slice4iterINtB6_4IterNtCs475r2uZUTuc_11proc_macro25IdentENtNtNtNtBa_4iter6traits8iterator8Iterator4nextCs7oyfuZDlTKn_11yoke_derive, symObjAddr: 0x18F8, symBinAddr: 0x4EAEC, symSize: 0xCC }
  - { offset: 0xBB572, size: 0x8, addend: 0x0, symName: __RNvXs2U_NtNtCs9f3LFPSIp77_4core5slice4iterINtB6_4IterNtCs475r2uZUTuc_11proc_macro25IdentENtNtNtNtBa_4iter6traits8iterator8Iterator9size_hintCs7oyfuZDlTKn_11yoke_derive, symObjAddr: 0x19C4, symBinAddr: 0x4EBB8, symSize: 0xC0 }
  - { offset: 0xBB657, size: 0x8, addend: 0x0, symName: __RNvXs2U_NtNtCs9f3LFPSIp77_4core5slice4iterINtB6_4IterNtNtCsATtFUPiRFW_3syn8generics9TypeParamENtNtNtNtBa_4iter6traits8iterator8Iterator4nextCs7oyfuZDlTKn_11yoke_derive, symObjAddr: 0x1A84, symBinAddr: 0x4EC78, symSize: 0xCC }
  - { offset: 0xBB7B8, size: 0x8, addend: 0x0, symName: __RNvXs2U_NtNtCs9f3LFPSIp77_4core5slice4iterINtB6_4IterNtNtCsATtFUPiRFW_3syn8generics9TypeParamENtNtNtNtBa_4iter6traits8iterator8Iterator9size_hintCs7oyfuZDlTKn_11yoke_derive, symObjAddr: 0x1B50, symBinAddr: 0x4ED44, symSize: 0xC0 }
  - { offset: 0xBBA92, size: 0x8, addend: 0x0, symName: __RNvXs32_NtNtCs9f3LFPSIp77_4core5slice4iterINtB6_7IterMutNtCsf2dEI6IRrE1_12synstructure11BindingInfoENtNtNtNtBa_4iter6traits8iterator8Iterator4nextCs7oyfuZDlTKn_11yoke_derive, symObjAddr: 0x1C78, symBinAddr: 0x4EE6C, symSize: 0xCC }
  - { offset: 0xBBBD5, size: 0x8, addend: 0x0, symName: __RNvXs32_NtNtCs9f3LFPSIp77_4core5slice4iterINtB6_7IterMutNtCsf2dEI6IRrE1_12synstructure11VariantInfoENtNtNtNtBa_4iter6traits8iterator8Iterator4nextCs7oyfuZDlTKn_11yoke_derive, symObjAddr: 0x1D44, symBinAddr: 0x4EF38, symSize: 0xCC }
  - { offset: 0xBC1AF, size: 0x8, addend: 0x0, symName: __RINvXs_NtNtNtCs9f3LFPSIp77_4core4iter8adapters6clonedINtB5_6ClonedINtNtNtBb_5slice4iter4IterNtCs475r2uZUTuc_11proc_macro25IdentEENtNtNtB9_6traits8iterator8Iterator4folduNCINvNtB7_3map8map_foldB1s_TB1s_uEuNCINvXs8_NtCscXJUXcj6jCz_9hashbrown3setINtB3p_7HashSetB1s_NtNtNtCs27l1GJC5rMQ_3std4hash6random11RandomStateEINtNtB27_7collect6ExtendB1s_E6extendBP_E0NCINvNvB23_8for_each4callB38_NCINvXs1i_NtB3r_3mapINtB6i_7HashMapB1s_uB4c_EIB51_B38_E6extendINtB2M_3MapBP_B3g_EE0E0E0ECs7oyfuZDlTKn_11yoke_derive, symObjAddr: 0xCAC, symBinAddr: 0x4DEA0, symSize: 0xB8 }
  - { offset: 0xBC244, size: 0x8, addend: 0x0, symName: __RNvXs_NtNtNtCs9f3LFPSIp77_4core4iter8adapters6clonedINtB4_6ClonedINtNtNtBa_5slice4iter4IterNtCs475r2uZUTuc_11proc_macro25IdentEENtNtNtB8_6traits8iterator8Iterator9size_hintCs7oyfuZDlTKn_11yoke_derive, symObjAddr: 0x1EE0, symBinAddr: 0x4F0D4, symSize: 0x24 }
  - { offset: 0xBC2CF, size: 0x8, addend: 0x0, symName: __RNCINvNvNtNtNtNtCs9f3LFPSIp77_4core4iter6traits8iterator8Iterator8for_each4callNtCs475r2uZUTuc_11proc_macro25IdentNCINvMsi_NtCsdze8u8oDPro_5alloc3vecINtB1X_3VecB1f_E14extend_trustedINtNtNtBc_8adapters3map3MapINtNtNtBe_5slice4iter4IterNtNtCsATtFUPiRFW_3syn8generics9TypeParamENCNvCs7oyfuZDlTKn_11yoke_derive20yokeable_derive_impls_0EE0E0B4t_, symObjAddr: 0x1244, symBinAddr: 0x4E438, symSize: 0x3C }
  - { offset: 0xBC328, size: 0x8, addend: 0x0, symName: __RNCINvNvNtNtNtNtCs9f3LFPSIp77_4core4iter6traits8iterator8Iterator8for_each4callNtNtCsATtFUPiRFW_3syn8generics14WherePredicateNCINvMsi_NtCsdze8u8oDPro_5alloc3vecINtB28_3VecB1f_E14extend_trustedINtNtNtBc_8adapters3map3MapINtNtNtBe_5slice4iter4IterNtCs475r2uZUTuc_11proc_macro25IdentENCNvCs7oyfuZDlTKn_11yoke_derive20yokeable_derive_impls0_0EE0E0B4z_, symObjAddr: 0x1280, symBinAddr: 0x4E474, symSize: 0x48 }
  - { offset: 0xBC381, size: 0x8, addend: 0x0, symName: __RNCINvNvNtNtNtNtCs9f3LFPSIp77_4core4iter6traits8iterator8Iterator8for_each4callNtNtCsATtFUPiRFW_3syn8generics14WherePredicateNCINvMsi_NtCsdze8u8oDPro_5alloc3vecINtB28_3VecB1f_E14extend_trustedINtNtNtBc_8adapters3map3MapINtNtNtBe_5slice4iter4IterNtCs475r2uZUTuc_11proc_macro25IdentENCNvCs7oyfuZDlTKn_11yoke_derive20yokeable_derive_impls2_0EE0E0B4z_, symObjAddr: 0x12C8, symBinAddr: 0x4E4BC, symSize: 0x48 }
  - { offset: 0xBC3DA, size: 0x8, addend: 0x0, symName: __RNCINvNvNtNtNtNtCs9f3LFPSIp77_4core4iter6traits8iterator8Iterator8for_each4callTNtCs475r2uZUTuc_11proc_macro25IdentuENCINvXs1i_NtCscXJUXcj6jCz_9hashbrown3mapINtB21_7HashMapB1g_uNtNtNtCs27l1GJC5rMQ_3std4hash6random11RandomStateEINtNtBa_7collect6ExtendB1f_E6extendINtNtNtBc_8adapters3map3MapINtNtB4h_6cloned6ClonedINtNtNtBe_5slice4iter4IterB1g_EENCINvXs8_NtB23_3setINtB5F_7HashSetB1g_B2P_EIB3E_B1g_E6extendB4D_E0EE0E0Cs7oyfuZDlTKn_11yoke_derive, symObjAddr: 0x1310, symBinAddr: 0x4E504, symSize: 0x3C }
  - { offset: 0xBC46E, size: 0x8, addend: 0x0, symName: __RINvYINtNtNtCs9f3LFPSIp77_4core5slice4iter4IterNtCs475r2uZUTuc_11proc_macro25IdentENtNtNtNtBa_4iter6traits8iterator8Iterator3mapBJ_NvYBJ_NtNtBa_5clone5Clone5cloneECs7oyfuZDlTKn_11yoke_derive, symObjAddr: 0xD64, symBinAddr: 0x4DF58, symSize: 0x1C }
  - { offset: 0xBC4C6, size: 0x8, addend: 0x0, symName: __RINvYINtNtNtCs9f3LFPSIp77_4core5slice4iter4IterNtCs475r2uZUTuc_11proc_macro25IdentENtNtNtNtBa_4iter6traits8iterator8Iterator3mapNtNtCsATtFUPiRFW_3syn8generics14WherePredicateNCNvCs7oyfuZDlTKn_11yoke_derive20yokeable_derive_impls0_0EB2Q_, symObjAddr: 0xD80, symBinAddr: 0x4DF74, symSize: 0x1C }
  - { offset: 0xBC51E, size: 0x8, addend: 0x0, symName: __RINvYINtNtNtCs9f3LFPSIp77_4core5slice4iter4IterNtCs475r2uZUTuc_11proc_macro25IdentENtNtNtNtBa_4iter6traits8iterator8Iterator3mapNtNtCsATtFUPiRFW_3syn8generics14WherePredicateNCNvCs7oyfuZDlTKn_11yoke_derive20yokeable_derive_impls2_0EB2Q_, symObjAddr: 0xD9C, symBinAddr: 0x4DF90, symSize: 0x1C }
  - { offset: 0xBC576, size: 0x8, addend: 0x0, symName: __RINvYINtNtNtCs9f3LFPSIp77_4core5slice4iter4IterNtCs475r2uZUTuc_11proc_macro25IdentENtNtNtNtBa_4iter6traits8iterator8Iterator6clonedBJ_ECs7oyfuZDlTKn_11yoke_derive, symObjAddr: 0xDB8, symBinAddr: 0x4DFAC, symSize: 0x1C }
  - { offset: 0xBC5B6, size: 0x8, addend: 0x0, symName: __RINvYINtNtNtCs9f3LFPSIp77_4core5slice4iter4IterNtNtCsATtFUPiRFW_3syn8generics9TypeParamENtNtNtNtBa_4iter6traits8iterator8Iterator3mapNtCs475r2uZUTuc_11proc_macro25IdentNCNvCs7oyfuZDlTKn_11yoke_derive20yokeable_derive_impls_0EB2K_, symObjAddr: 0xDD4, symBinAddr: 0x4DFC8, symSize: 0x1C }
  - { offset: 0xBC60E, size: 0x8, addend: 0x0, symName: __RINvYINtNtNtNtCs9f3LFPSIp77_4core4iter8adapters6cloned6ClonedINtNtNtBc_5slice4iter4IterNtCs475r2uZUTuc_11proc_macro25IdentEENtNtNtBa_6traits8iterator8Iterator3mapTB1n_uENCINvXs8_NtCscXJUXcj6jCz_9hashbrown3setINtB2Q_7HashSetB1n_NtNtNtCs27l1GJC5rMQ_3std4hash6random11RandomStateEINtNtB22_7collect6ExtendB1n_E6extendB3_E0ECs7oyfuZDlTKn_11yoke_derive, symObjAddr: 0xDF0, symBinAddr: 0x4DFE4, symSize: 0x1C }
  - { offset: 0xBC666, size: 0x8, addend: 0x0, symName: __RINvYINtNtNtNtCs9f3LFPSIp77_4core4iter8adapters6cloned6ClonedINtNtNtBc_5slice4iter4IterNtCs475r2uZUTuc_11proc_macro25IdentEENtNtNtBa_6traits8iterator8Iterator7collectINtNtNtNtCs27l1GJC5rMQ_3std11collections4hash3set7HashSetB1n_EECs7oyfuZDlTKn_11yoke_derive, symObjAddr: 0xE0C, symBinAddr: 0x4E000, symSize: 0x2C }
  - { offset: 0xBC6B2, size: 0x8, addend: 0x0, symName: __RNvXs_NtNtNtCs9f3LFPSIp77_4core4iter6traits7collectINtNtNtB8_8adapters6cloned6ClonedINtNtNtBa_5slice4iter4IterNtCs475r2uZUTuc_11proc_macro25IdentEENtB4_12IntoIterator9into_iterCs7oyfuZDlTKn_11yoke_derive, symObjAddr: 0x1EC4, symBinAddr: 0x4F0B8, symSize: 0x1C }
  - { offset: 0xBC713, size: 0x8, addend: 0x0, symName: __RNvNtCs9f3LFPSIp77_4core10intrinsics6likelyCs7oyfuZDlTKn_11yoke_derive, symObjAddr: 0x1494, symBinAddr: 0x4E688, symSize: 0x10 }
  - { offset: 0xBC741, size: 0x8, addend: 0x0, symName: __RNvNtCs9f3LFPSIp77_4core10intrinsics8unlikelyCs7oyfuZDlTKn_11yoke_derive, symObjAddr: 0x14A4, symBinAddr: 0x4E698, symSize: 0x10 }
  - { offset: 0xBC774, size: 0x8, addend: 0x0, symName: __RNvNvNtCs9f3LFPSIp77_4core10intrinsics19copy_nonoverlapping18precondition_checkCs7oyfuZDlTKn_11yoke_derive, symObjAddr: 0x1614, symBinAddr: 0x4E808, symSize: 0x1EC }
  - { offset: 0xBCA28, size: 0x8, addend: 0x0, symName: __RNvNtNtNtNtCs9f3LFPSIp77_4core9core_arch7aarch644neon9generated8vcgez_s8Cs7oyfuZDlTKn_11yoke_derive, symObjAddr: 0x14B4, symBinAddr: 0x4E6A8, symSize: 0x68 }
  - { offset: 0xBCACA, size: 0x8, addend: 0x0, symName: __RNvNtNtNtNtCs9f3LFPSIp77_4core9core_arch7aarch644neon9generated8vcltz_s8Cs7oyfuZDlTKn_11yoke_derive, symObjAddr: 0x151C, symBinAddr: 0x4E710, symSize: 0x68 }
  - { offset: 0xBCBBA, size: 0x8, addend: 0x0, symName: __RNvNvMNtNtCs9f3LFPSIp77_4core5alloc6layoutNtB4_6Layout25from_size_align_unchecked18precondition_checkCs7oyfuZDlTKn_11yoke_derive, symObjAddr: 0x15C4, symBinAddr: 0x4E7B8, symSize: 0x50 }
  - { offset: 0xBCC62, size: 0x8, addend: 0x0, symName: __RNvNvNtCs9f3LFPSIp77_4core9ub_checks17is_nonoverlapping7runtimeCs7oyfuZDlTKn_11yoke_derive, symObjAddr: 0x1800, symBinAddr: 0x4E9F4, symSize: 0xE4 }
  - { offset: 0xBD011, size: 0x8, addend: 0x0, symName: __RNCINvNtNtCsjLJ1XWNSM6u_10proc_macro6bridge6client10run_clientNtB4_11TokenStreamINtNtCs9f3LFPSIp77_4core6option6OptionBY_ENCNCINvMs7_B4_INtB4_6ClientNtB8_11TokenStreamB2n_E7expand1NvCs7oyfuZDlTKn_11yoke_derive15yokeable_deriveE00E0B2U_, symObjAddr: 0xE68, symBinAddr: 0x4E05C, symSize: 0x3DC }
  - { offset: 0xBD570, size: 0x8, addend: 0x0, symName: __RNCNCINvNtNtCsjLJ1XWNSM6u_10proc_macro6bridge6client10run_clientNtB6_11TokenStreamINtNtCs9f3LFPSIp77_4core6option6OptionB10_ENCNCINvMs7_B6_INtB6_6ClientNtBa_11TokenStreamB2q_E7expand1NvCs7oyfuZDlTKn_11yoke_derive15yokeable_deriveE00E00B2X_, symObjAddr: 0x137C, symBinAddr: 0x4E570, symSize: 0x28 }
  - { offset: 0xBD60B, size: 0x8, addend: 0x0, symName: __RNCNCINvMs7_NtNtCsjLJ1XWNSM6u_10proc_macro6bridge6clientINtBa_6ClientNtBe_11TokenStreamB15_E7expand1NvCs7oyfuZDlTKn_11yoke_derive15yokeable_deriveE00B1C_, symObjAddr: 0x134C, symBinAddr: 0x4E540, symSize: 0x30 }
  - { offset: 0xBD653, size: 0x8, addend: 0x0, symName: __RNCINvMs7_NtNtCsjLJ1XWNSM6u_10proc_macro6bridge6clientINtB8_6ClientNtBc_11TokenStreamB13_E7expand1NvCs7oyfuZDlTKn_11yoke_derive15yokeable_deriveE0B1A_, symObjAddr: 0xE38, symBinAddr: 0x4E02C, symSize: 0x30 }
  - { offset: 0xBD6D1, size: 0x8, addend: 0x0, symName: __RINvNtNtCsjLJ1XWNSM6u_10proc_macro6bridge6client10run_clientNtB2_11TokenStreamINtNtCs9f3LFPSIp77_4core6option6OptionBW_ENCNCINvMs7_B2_INtB2_6ClientNtB6_11TokenStreamB2l_E7expand1NvCs7oyfuZDlTKn_11yoke_derive15yokeable_deriveE00EB2S_, symObjAddr: 0x98, symBinAddr: 0x4D28C, symSize: 0x21C }
  - { offset: 0xBD8C2, size: 0x8, addend: 0x0, symName: __RINvNtNtNtCsjLJ1XWNSM6u_10proc_macro6bridge6client5state3setINtNtCs9f3LFPSIp77_4core6option6OptionNtB4_11TokenStreamENCNCINvB4_10run_clientB1y_BW_NCNCINvMs7_B4_INtB4_6ClientNtB8_11TokenStreamB2L_E7expand1NvCs7oyfuZDlTKn_11yoke_derive15yokeable_deriveE00E00EB3i_, symObjAddr: 0x2B4, symBinAddr: 0x4D4A8, symSize: 0x128 }
  - { offset: 0xBD9C0, size: 0x8, addend: 0x0, symName: __RNCNkNvNtNtNtCsjLJ1XWNSM6u_10proc_macro6bridge6client5state12BRIDGE_STATE0s_0Cs7oyfuZDlTKn_11yoke_derive, symObjAddr: 0x13A4, symBinAddr: 0x4E598, symSize: 0x34 }
  - { offset: 0xBDA64, size: 0x8, addend: 0x0, symName: __RNvXsh_NtNtCsjLJ1XWNSM6u_10proc_macro6bridge6clientNtB5_11TokenStreamINtNtB7_3rpc6EncodeuE6encodeCs7oyfuZDlTKn_11yoke_derive, symObjAddr: 0x200C, symBinAddr: 0x4F200, symSize: 0x50 }
  - { offset: 0xBDB7E, size: 0x8, addend: 0x0, symName: __RNvXsk_NtNtCsjLJ1XWNSM6u_10proc_macro6bridge6clientNtB5_11TokenStreamINtNtB7_3rpc9DecodeMutuE6decodeCs7oyfuZDlTKn_11yoke_derive, symObjAddr: 0x205C, symBinAddr: 0x4F250, symSize: 0x2C }
  - { offset: 0xBDBC7, size: 0x8, addend: 0x0, symName: __RNvXsr_NtNtCsjLJ1XWNSM6u_10proc_macro6bridge6clientNtB5_4SpanINtNtB7_3rpc9DecodeMutuE6decodeCs7oyfuZDlTKn_11yoke_derive, symObjAddr: 0x22DC, symBinAddr: 0x4F4D0, symSize: 0x2C }
  - { offset: 0xBDE24, size: 0x8, addend: 0x0, symName: __RNvXNtNtCsjLJ1XWNSM6u_10proc_macro6bridge3rpcuINtB2_6EncodeuE6encodeCs7oyfuZDlTKn_11yoke_derive, symObjAddr: 0x18E4, symBinAddr: 0x4EAD8, symSize: 0x14 }
  - { offset: 0xBDEAB, size: 0x8, addend: 0x0, symName: __RNvXsa_NtNtCsjLJ1XWNSM6u_10proc_macro6bridge3rpcRShINtB5_6EncodeuE6encodeCs7oyfuZDlTKn_11yoke_derive, symObjAddr: 0x1F04, symBinAddr: 0x4F0F8, symSize: 0xD0 }
  - { offset: 0xBDFB6, size: 0x8, addend: 0x0, symName: __RNvXsc_NtNtCsjLJ1XWNSM6u_10proc_macro6bridge3rpcReINtB5_6EncodeuE6encodeCs7oyfuZDlTKn_11yoke_derive, symObjAddr: 0x1FD4, symBinAddr: 0x4F1C8, symSize: 0x38 }
  - { offset: 0xBE078, size: 0x8, addend: 0x0, symName: __RNvXsl_NtNtCsjLJ1XWNSM6u_10proc_macro6bridge3rpcNtB5_12PanicMessageINtB5_6EncodeuE6encodeCs7oyfuZDlTKn_11yoke_derive, symObjAddr: 0x2088, symBinAddr: 0x4F27C, symSize: 0x140 }
  - { offset: 0xBE2C0, size: 0x8, addend: 0x0, symName: __RNvXso_NtNtCsjLJ1XWNSM6u_10proc_macro6bridge3rpcmINtB5_9DecodeMutuE6decodeCs7oyfuZDlTKn_11yoke_derive, symObjAddr: 0x21C8, symBinAddr: 0x4F3BC, symSize: 0x114 }
  - { offset: 0xBE4BA, size: 0x8, addend: 0x0, symName: __RINvNvNtNtCsjLJ1XWNSM6u_10proc_macro6bridge14selfless_reify31reify_to_extern_c_fn_hrt_bridge7wrapperNtNtB6_6buffer6BufferNCINvMs7_NtB6_6clientINtB24_6ClientNtB8_11TokenStreamB2u_E7expand1NvCs7oyfuZDlTKn_11yoke_derive15yokeable_deriveE0EB31_, symObjAddr: 0x3DC, symBinAddr: 0x4D5D0, symSize: 0x4C }
  - { offset: 0xC3D09, size: 0x8, addend: 0x0, symName: __RNvYNtNtCs7oyfuZDlTKn_11yoke_derive7visitor11TypeVisitorNtNtNtCsATtFUPiRFW_3syn3gen5visit5Visit10visit_dataB6_, symObjAddr: 0x2308, symBinAddr: 0x4F4FC, symSize: 0x3C }
  - { offset: 0xC3D48, size: 0x8, addend: 0x0, symName: __RNvYNtNtCs7oyfuZDlTKn_11yoke_derive7visitor11TypeVisitorNtNtNtCsATtFUPiRFW_3syn3gen5visit5Visit10visit_exprB6_, symObjAddr: 0x2344, symBinAddr: 0x4F538, symSize: 0x3C }
  - { offset: 0xC3D87, size: 0x8, addend: 0x0, symName: __RNvYNtNtCs7oyfuZDlTKn_11yoke_derive7visitor11TypeVisitorNtNtNtCsATtFUPiRFW_3syn3gen5visit5Visit10visit_fileB6_, symObjAddr: 0x2380, symBinAddr: 0x4F574, symSize: 0x3C }
  - { offset: 0xC3DC9, size: 0x8, addend: 0x0, symName: __RNvYNtNtCs7oyfuZDlTKn_11yoke_derive7visitor11TypeVisitorNtNtNtCsATtFUPiRFW_3syn3gen5visit5Visit10visit_itemB6_, symObjAddr: 0x23BC, symBinAddr: 0x4F5B0, symSize: 0x3C }
  - { offset: 0xC3E0B, size: 0x8, addend: 0x0, symName: __RNvYNtNtCs7oyfuZDlTKn_11yoke_derive7visitor11TypeVisitorNtNtNtCsATtFUPiRFW_3syn3gen5visit5Visit10visit_metaB6_, symObjAddr: 0x23F8, symBinAddr: 0x4F5EC, symSize: 0x3C }
  - { offset: 0xC3E4D, size: 0x8, addend: 0x0, symName: __RNvYNtNtCs7oyfuZDlTKn_11yoke_derive7visitor11TypeVisitorNtNtNtCsATtFUPiRFW_3syn3gen5visit5Visit10visit_pathB6_, symObjAddr: 0x2434, symBinAddr: 0x4F628, symSize: 0x3C }
  - { offset: 0xC3E8F, size: 0x8, addend: 0x0, symName: __RNvYNtNtCs7oyfuZDlTKn_11yoke_derive7visitor11TypeVisitorNtNtNtCsATtFUPiRFW_3syn3gen5visit5Visit10visit_spanB6_, symObjAddr: 0x2470, symBinAddr: 0x4F664, symSize: 0x3C }
  - { offset: 0xC3ED1, size: 0x8, addend: 0x0, symName: __RNvYNtNtCs7oyfuZDlTKn_11yoke_derive7visitor11TypeVisitorNtNtNtCsATtFUPiRFW_3syn3gen5visit5Visit10visit_stmtB6_, symObjAddr: 0x24AC, symBinAddr: 0x4F6A0, symSize: 0x3C }
  - { offset: 0xC3F13, size: 0x8, addend: 0x0, symName: __RNvYNtNtCs7oyfuZDlTKn_11yoke_derive7visitor11TypeVisitorNtNtNtCsATtFUPiRFW_3syn3gen5visit5Visit10visit_typeB6_, symObjAddr: 0x24E8, symBinAddr: 0x4F6DC, symSize: 0x3C }
  - { offset: 0xC3F55, size: 0x8, addend: 0x0, symName: __RNvYNtNtCs7oyfuZDlTKn_11yoke_derive7visitor11TypeVisitorNtNtNtCsATtFUPiRFW_3syn3gen5visit5Visit11visit_blockB6_, symObjAddr: 0x2524, symBinAddr: 0x4F718, symSize: 0x3C }
  - { offset: 0xC3F94, size: 0x8, addend: 0x0, symName: __RNvYNtNtCs7oyfuZDlTKn_11yoke_derive7visitor11TypeVisitorNtNtNtCsATtFUPiRFW_3syn3gen5visit5Visit11visit_fieldB6_, symObjAddr: 0x2560, symBinAddr: 0x4F754, symSize: 0x3C }
  - { offset: 0xC3FD6, size: 0x8, addend: 0x0, symName: __RNvYNtNtCs7oyfuZDlTKn_11yoke_derive7visitor11TypeVisitorNtNtNtCsATtFUPiRFW_3syn3gen5visit5Visit11visit_identB6_, symObjAddr: 0x259C, symBinAddr: 0x4F790, symSize: 0x3C }
  - { offset: 0xC4018, size: 0x8, addend: 0x0, symName: __RNvYNtNtCs7oyfuZDlTKn_11yoke_derive7visitor11TypeVisitorNtNtNtCsATtFUPiRFW_3syn3gen5visit5Visit11visit_indexB6_, symObjAddr: 0x25D8, symBinAddr: 0x4F7CC, symSize: 0x3C }
  - { offset: 0xC405A, size: 0x8, addend: 0x0, symName: __RNvYNtNtCs7oyfuZDlTKn_11yoke_derive7visitor11TypeVisitorNtNtNtCsATtFUPiRFW_3syn3gen5visit5Visit11visit_labelB6_, symObjAddr: 0x2614, symBinAddr: 0x4F808, symSize: 0x3C }
  - { offset: 0xC409C, size: 0x8, addend: 0x0, symName: __RNvYNtNtCs7oyfuZDlTKn_11yoke_derive7visitor11TypeVisitorNtNtNtCsATtFUPiRFW_3syn3gen5visit5Visit11visit_localB6_, symObjAddr: 0x2650, symBinAddr: 0x4F844, symSize: 0x3C }
  - { offset: 0xC40DE, size: 0x8, addend: 0x0, symName: __RNvYNtNtCs7oyfuZDlTKn_11yoke_derive7visitor11TypeVisitorNtNtNtCsATtFUPiRFW_3syn3gen5visit5Visit11visit_macroB6_, symObjAddr: 0x268C, symBinAddr: 0x4F880, symSize: 0x3C }
  - { offset: 0xC4120, size: 0x8, addend: 0x0, symName: __RNvYNtNtCs7oyfuZDlTKn_11yoke_derive7visitor11TypeVisitorNtNtNtCsATtFUPiRFW_3syn3gen5visit5Visit11visit_qselfB6_, symObjAddr: 0x26C8, symBinAddr: 0x4F8BC, symSize: 0x3C }
  - { offset: 0xC4162, size: 0x8, addend: 0x0, symName: __RNvYNtNtCs7oyfuZDlTKn_11yoke_derive7visitor11TypeVisitorNtNtNtCsATtFUPiRFW_3syn3gen5visit5Visit11visit_un_opB6_, symObjAddr: 0x2704, symBinAddr: 0x4F8F8, symSize: 0x3C }
  - { offset: 0xC41A4, size: 0x8, addend: 0x0, symName: __RNvYNtNtCs7oyfuZDlTKn_11yoke_derive7visitor11TypeVisitorNtNtNtCsATtFUPiRFW_3syn3gen5visit5Visit12visit_bin_opB6_, symObjAddr: 0x2740, symBinAddr: 0x4F934, symSize: 0x3C }
  - { offset: 0xC41E3, size: 0x8, addend: 0x0, symName: __RNvYNtNtCs7oyfuZDlTKn_11yoke_derive7visitor11TypeVisitorNtNtNtCsATtFUPiRFW_3syn3gen5visit5Visit12visit_fieldsB6_, symObjAddr: 0x277C, symBinAddr: 0x4F970, symSize: 0x3C }
  - { offset: 0xC4225, size: 0x8, addend: 0x0, symName: __RNvYNtNtCs7oyfuZDlTKn_11yoke_derive7visitor11TypeVisitorNtNtNtCsATtFUPiRFW_3syn3gen5visit5Visit12visit_fn_argB6_, symObjAddr: 0x27B8, symBinAddr: 0x4F9AC, symSize: 0x3C }
  - { offset: 0xC4267, size: 0x8, addend: 0x0, symName: __RNvYNtNtCs7oyfuZDlTKn_11yoke_derive7visitor11TypeVisitorNtNtNtCsATtFUPiRFW_3syn3gen5visit5Visit12visit_memberB6_, symObjAddr: 0x27F4, symBinAddr: 0x4F9E8, symSize: 0x3C }
  - { offset: 0xC42A9, size: 0x8, addend: 0x0, symName: __RNvYNtNtCs7oyfuZDlTKn_11yoke_derive7visitor11TypeVisitorNtNtNtCsATtFUPiRFW_3syn3gen5visit5Visit12visit_pat_orB6_, symObjAddr: 0x2830, symBinAddr: 0x4FA24, symSize: 0x3C }
  - { offset: 0xC42EB, size: 0x8, addend: 0x0, symName: __RNvYNtNtCs7oyfuZDlTKn_11yoke_derive7visitor11TypeVisitorNtNtNtCsATtFUPiRFW_3syn3gen5visit5Visit13visit_expr_ifB6_, symObjAddr: 0x286C, symBinAddr: 0x4FA60, symSize: 0x3C }
  - { offset: 0xC432A, size: 0x8, addend: 0x0, symName: __RNvYNtNtCs7oyfuZDlTKn_11yoke_derive7visitor11TypeVisitorNtNtNtCsATtFUPiRFW_3syn3gen5visit5Visit13visit_item_fnB6_, symObjAddr: 0x28A8, symBinAddr: 0x4FA9C, symSize: 0x3C }
  - { offset: 0xC436C, size: 0x8, addend: 0x0, symName: __RNvYNtNtCs7oyfuZDlTKn_11yoke_derive7visitor11TypeVisitorNtNtNtCsATtFUPiRFW_3syn3gen5visit5Visit13visit_lit_intB6_, symObjAddr: 0x28E4, symBinAddr: 0x4FAD8, symSize: 0x3C }
  - { offset: 0xC43AE, size: 0x8, addend: 0x0, symName: __RNvYNtNtCs7oyfuZDlTKn_11yoke_derive7visitor11TypeVisitorNtNtNtCsATtFUPiRFW_3syn3gen5visit5Visit13visit_lit_strB6_, symObjAddr: 0x2920, symBinAddr: 0x4FB14, symSize: 0x3C }
  - { offset: 0xC43F0, size: 0x8, addend: 0x0, symName: __RNvYNtNtCs7oyfuZDlTKn_11yoke_derive7visitor11TypeVisitorNtNtNtCsATtFUPiRFW_3syn3gen5visit5Visit13visit_variantB6_, symObjAddr: 0x295C, symBinAddr: 0x4FB50, symSize: 0x3C }
  - { offset: 0xC4432, size: 0x8, addend: 0x0, symName: __RNvYNtNtCs7oyfuZDlTKn_11yoke_derive7visitor11TypeVisitorNtNtNtCsATtFUPiRFW_3syn3gen5visit5Visit14visit_expr_letB6_, symObjAddr: 0x2998, symBinAddr: 0x4FB8C, symSize: 0x3C }
  - { offset: 0xC4471, size: 0x8, addend: 0x0, symName: __RNvYNtNtCs7oyfuZDlTKn_11yoke_derive7visitor11TypeVisitorNtNtNtCsATtFUPiRFW_3syn3gen5visit5Visit14visit_expr_litB6_, symObjAddr: 0x29D4, symBinAddr: 0x4FBC8, symSize: 0x3C }
  - { offset: 0xC44B0, size: 0x8, addend: 0x0, symName: __RNvYNtNtCs7oyfuZDlTKn_11yoke_derive7visitor11TypeVisitorNtNtNtCsATtFUPiRFW_3syn3gen5visit5Visit14visit_expr_tryB6_, symObjAddr: 0x2A10, symBinAddr: 0x4FC04, symSize: 0x3C }
  - { offset: 0xC44F2, size: 0x8, addend: 0x0, symName: __RNvYNtNtCs7oyfuZDlTKn_11yoke_derive7visitor11TypeVisitorNtNtNtCsATtFUPiRFW_3syn3gen5visit5Visit14visit_genericsB6_, symObjAddr: 0x2A4C, symBinAddr: 0x4FC40, symSize: 0x3C }
  - { offset: 0xC4534, size: 0x8, addend: 0x0, symName: __RNvYNtNtCs7oyfuZDlTKn_11yoke_derive7visitor11TypeVisitorNtNtNtCsATtFUPiRFW_3syn3gen5visit5Visit14visit_item_modB6_, symObjAddr: 0x2A88, symBinAddr: 0x4FC7C, symSize: 0x3C }
  - { offset: 0xC4576, size: 0x8, addend: 0x0, symName: __RNvYNtNtCs7oyfuZDlTKn_11yoke_derive7visitor11TypeVisitorNtNtNtCsATtFUPiRFW_3syn3gen5visit5Visit14visit_item_useB6_, symObjAddr: 0x2AC4, symBinAddr: 0x4FCB8, symSize: 0x3C }
  - { offset: 0xC45B8, size: 0x8, addend: 0x0, symName: __RNvYNtNtCs7oyfuZDlTKn_11yoke_derive7visitor11TypeVisitorNtNtNtCsATtFUPiRFW_3syn3gen5visit5Visit14visit_lit_boolB6_, symObjAddr: 0x2B00, symBinAddr: 0x4FCF4, symSize: 0x3C }
  - { offset: 0xC45FA, size: 0x8, addend: 0x0, symName: __RNvYNtNtCs7oyfuZDlTKn_11yoke_derive7visitor11TypeVisitorNtNtNtCsATtFUPiRFW_3syn3gen5visit5Visit14visit_lit_byteB6_, symObjAddr: 0x2B3C, symBinAddr: 0x4FD30, symSize: 0x3C }
  - { offset: 0xC463C, size: 0x8, addend: 0x0, symName: __RNvYNtNtCs7oyfuZDlTKn_11yoke_derive7visitor11TypeVisitorNtNtNtCsATtFUPiRFW_3syn3gen5visit5Visit14visit_lit_charB6_, symObjAddr: 0x2B78, symBinAddr: 0x4FD6C, symSize: 0x3C }
  - { offset: 0xC467E, size: 0x8, addend: 0x0, symName: __RNvYNtNtCs7oyfuZDlTKn_11yoke_derive7visitor11TypeVisitorNtNtNtCsATtFUPiRFW_3syn3gen5visit5Visit14visit_lit_cstrB6_, symObjAddr: 0x2BB4, symBinAddr: 0x4FDA8, symSize: 0x3C }
  - { offset: 0xC46C0, size: 0x8, addend: 0x0, symName: __RNvYNtNtCs7oyfuZDlTKn_11yoke_derive7visitor11TypeVisitorNtNtNtCsATtFUPiRFW_3syn3gen5visit5Visit14visit_pat_restB6_, symObjAddr: 0x2BF0, symBinAddr: 0x4FDE4, symSize: 0x3C }
  - { offset: 0xC4702, size: 0x8, addend: 0x0, symName: __RNvYNtNtCs7oyfuZDlTKn_11yoke_derive7visitor11TypeVisitorNtNtNtCsATtFUPiRFW_3syn3gen5visit5Visit14visit_pat_typeB6_, symObjAddr: 0x2C2C, symBinAddr: 0x4FE20, symSize: 0x3C }
  - { offset: 0xC4744, size: 0x8, addend: 0x0, symName: __RNvYNtNtCs7oyfuZDlTKn_11yoke_derive7visitor11TypeVisitorNtNtNtCsATtFUPiRFW_3syn3gen5visit5Visit14visit_pat_wildB6_, symObjAddr: 0x2C68, symBinAddr: 0x4FE5C, symSize: 0x3C }
  - { offset: 0xC4786, size: 0x8, addend: 0x0, symName: __RNvYNtNtCs7oyfuZDlTKn_11yoke_derive7visitor11TypeVisitorNtNtNtCsATtFUPiRFW_3syn3gen5visit5Visit14visit_receiverB6_, symObjAddr: 0x2CA4, symBinAddr: 0x4FE98, symSize: 0x3C }
  - { offset: 0xC47C8, size: 0x8, addend: 0x0, symName: __RNvYNtNtCs7oyfuZDlTKn_11yoke_derive7visitor11TypeVisitorNtNtNtCsATtFUPiRFW_3syn3gen5visit5Visit14visit_type_ptrB6_, symObjAddr: 0x2CE0, symBinAddr: 0x4FED4, symSize: 0x3C }
  - { offset: 0xC480A, size: 0x8, addend: 0x0, symName: __RNvYNtNtCs7oyfuZDlTKn_11yoke_derive7visitor11TypeVisitorNtNtNtCsATtFUPiRFW_3syn3gen5visit5Visit14visit_use_globB6_, symObjAddr: 0x2D1C, symBinAddr: 0x4FF10, symSize: 0x3C }
  - { offset: 0xC484C, size: 0x8, addend: 0x0, symName: __RNvYNtNtCs7oyfuZDlTKn_11yoke_derive7visitor11TypeVisitorNtNtNtCsATtFUPiRFW_3syn3gen5visit5Visit14visit_use_nameB6_, symObjAddr: 0x2D58, symBinAddr: 0x4FF4C, symSize: 0x3C }
  - { offset: 0xC488E, size: 0x8, addend: 0x0, symName: __RNvYNtNtCs7oyfuZDlTKn_11yoke_derive7visitor11TypeVisitorNtNtNtCsATtFUPiRFW_3syn3gen5visit5Visit14visit_use_pathB6_, symObjAddr: 0x2D94, symBinAddr: 0x4FF88, symSize: 0x3C }
  - { offset: 0xC48D0, size: 0x8, addend: 0x0, symName: __RNvYNtNtCs7oyfuZDlTKn_11yoke_derive7visitor11TypeVisitorNtNtNtCsATtFUPiRFW_3syn3gen5visit5Visit14visit_use_treeB6_, symObjAddr: 0x2DD0, symBinAddr: 0x4FFC4, symSize: 0x3C }
  - { offset: 0xC4912, size: 0x8, addend: 0x0, symName: __RNvYNtNtCs7oyfuZDlTKn_11yoke_derive7visitor11TypeVisitorNtNtNtCsATtFUPiRFW_3syn3gen5visit5Visit14visit_variadicB6_, symObjAddr: 0x2E0C, symBinAddr: 0x50000, symSize: 0x3C }
  - { offset: 0xC4954, size: 0x8, addend: 0x0, symName: __RNvYNtNtCs7oyfuZDlTKn_11yoke_derive7visitor11TypeVisitorNtNtNtCsATtFUPiRFW_3syn3gen5visit5Visit15visit_attributeB6_, symObjAddr: 0x2E48, symBinAddr: 0x5003C, symSize: 0x3C }
  - { offset: 0xC4993, size: 0x8, addend: 0x0, symName: __RNvYNtNtCs7oyfuZDlTKn_11yoke_derive7visitor11TypeVisitorNtNtNtCsATtFUPiRFW_3syn3gen5visit5Visit15visit_data_enumB6_, symObjAddr: 0x2E84, symBinAddr: 0x50078, symSize: 0x3C }
  - { offset: 0xC49D2, size: 0x8, addend: 0x0, symName: __RNvYNtNtCs7oyfuZDlTKn_11yoke_derive7visitor11TypeVisitorNtNtNtCsATtFUPiRFW_3syn3gen5visit5Visit15visit_expr_callB6_, symObjAddr: 0x2EC0, symBinAddr: 0x500B4, symSize: 0x3C }
  - { offset: 0xC4A11, size: 0x8, addend: 0x0, symName: __RNvYNtNtCs7oyfuZDlTKn_11yoke_derive7visitor11TypeVisitorNtNtNtCsATtFUPiRFW_3syn3gen5visit5Visit15visit_expr_castB6_, symObjAddr: 0x2EFC, symBinAddr: 0x500F0, symSize: 0x3C }
  - { offset: 0xC4A50, size: 0x8, addend: 0x0, symName: __RNvYNtNtCs7oyfuZDlTKn_11yoke_derive7visitor11TypeVisitorNtNtNtCsATtFUPiRFW_3syn3gen5visit5Visit15visit_expr_loopB6_, symObjAddr: 0x2F38, symBinAddr: 0x5012C, symSize: 0x3C }
  - { offset: 0xC4A8F, size: 0x8, addend: 0x0, symName: __RNvYNtNtCs7oyfuZDlTKn_11yoke_derive7visitor11TypeVisitorNtNtNtCsATtFUPiRFW_3syn3gen5visit5Visit15visit_expr_pathB6_, symObjAddr: 0x2F74, symBinAddr: 0x50168, symSize: 0x3C }
  - { offset: 0xC4AD1, size: 0x8, addend: 0x0, symName: __RNvYNtNtCs7oyfuZDlTKn_11yoke_derive7visitor11TypeVisitorNtNtNtCsATtFUPiRFW_3syn3gen5visit5Visit15visit_field_patB6_, symObjAddr: 0x2FB0, symBinAddr: 0x501A4, symSize: 0x3C }
  - { offset: 0xC4B13, size: 0x8, addend: 0x0, symName: __RNvYNtNtCs7oyfuZDlTKn_11yoke_derive7visitor11TypeVisitorNtNtNtCsATtFUPiRFW_3syn3gen5visit5Visit15visit_impl_itemB6_, symObjAddr: 0x2FEC, symBinAddr: 0x501E0, symSize: 0x3C }
  - { offset: 0xC4B55, size: 0x8, addend: 0x0, symName: __RNvYNtNtCs7oyfuZDlTKn_11yoke_derive7visitor11TypeVisitorNtNtNtCsATtFUPiRFW_3syn3gen5visit5Visit15visit_item_enumB6_, symObjAddr: 0x3028, symBinAddr: 0x5021C, symSize: 0x3C }
  - { offset: 0xC4B97, size: 0x8, addend: 0x0, symName: __RNvYNtNtCs7oyfuZDlTKn_11yoke_derive7visitor11TypeVisitorNtNtNtCsATtFUPiRFW_3syn3gen5visit5Visit15visit_item_implB6_, symObjAddr: 0x3064, symBinAddr: 0x50258, symSize: 0x3C }
  - { offset: 0xC4BD9, size: 0x8, addend: 0x0, symName: __RNvYNtNtCs7oyfuZDlTKn_11yoke_derive7visitor11TypeVisitorNtNtNtCsATtFUPiRFW_3syn3gen5visit5Visit15visit_item_typeB6_, symObjAddr: 0x30A0, symBinAddr: 0x50294, symSize: 0x3C }
  - { offset: 0xC4C1B, size: 0x8, addend: 0x0, symName: __RNvYNtNtCs7oyfuZDlTKn_11yoke_derive7visitor11TypeVisitorNtNtNtCsATtFUPiRFW_3syn3gen5visit5Visit15visit_lit_floatB6_, symObjAddr: 0x30DC, symBinAddr: 0x502D0, symSize: 0x3C }
  - { offset: 0xC4C5D, size: 0x8, addend: 0x0, symName: __RNvYNtNtCs7oyfuZDlTKn_11yoke_derive7visitor11TypeVisitorNtNtNtCsATtFUPiRFW_3syn3gen5visit5Visit15visit_meta_listB6_, symObjAddr: 0x3118, symBinAddr: 0x5030C, symSize: 0x3C }
  - { offset: 0xC4C9F, size: 0x8, addend: 0x0, symName: __RNvYNtNtCs7oyfuZDlTKn_11yoke_derive7visitor11TypeVisitorNtNtNtCsATtFUPiRFW_3syn3gen5visit5Visit15visit_pat_identB6_, symObjAddr: 0x3154, symBinAddr: 0x50348, symSize: 0x3C }
  - { offset: 0xC4CE1, size: 0x8, addend: 0x0, symName: __RNvYNtNtCs7oyfuZDlTKn_11yoke_derive7visitor11TypeVisitorNtNtNtCsATtFUPiRFW_3syn3gen5visit5Visit15visit_pat_parenB6_, symObjAddr: 0x3190, symBinAddr: 0x50384, symSize: 0x3C }
  - { offset: 0xC4D23, size: 0x8, addend: 0x0, symName: __RNvYNtNtCs7oyfuZDlTKn_11yoke_derive7visitor11TypeVisitorNtNtNtCsATtFUPiRFW_3syn3gen5visit5Visit15visit_pat_sliceB6_, symObjAddr: 0x31CC, symBinAddr: 0x503C0, symSize: 0x3C }
  - { offset: 0xC4D65, size: 0x8, addend: 0x0, symName: __RNvYNtNtCs7oyfuZDlTKn_11yoke_derive7visitor11TypeVisitorNtNtNtCsATtFUPiRFW_3syn3gen5visit5Visit15visit_pat_tupleB6_, symObjAddr: 0x3208, symBinAddr: 0x503FC, symSize: 0x3C }
  - { offset: 0xC4DA7, size: 0x8, addend: 0x0, symName: __RNvYNtNtCs7oyfuZDlTKn_11yoke_derive7visitor11TypeVisitorNtNtNtCsATtFUPiRFW_3syn3gen5visit5Visit15visit_signatureB6_, symObjAddr: 0x3244, symBinAddr: 0x50438, symSize: 0x3C }
  - { offset: 0xC4DE9, size: 0x8, addend: 0x0, symName: __RNvYNtNtCs7oyfuZDlTKn_11yoke_derive7visitor11TypeVisitorNtNtNtCsATtFUPiRFW_3syn3gen5visit5Visit15visit_use_groupB6_, symObjAddr: 0x3280, symBinAddr: 0x50474, symSize: 0x3C }
  - { offset: 0xC4E2B, size: 0x8, addend: 0x0, symName: __RNvYNtNtCs7oyfuZDlTKn_11yoke_derive7visitor11TypeVisitorNtNtNtCsATtFUPiRFW_3syn3gen5visit5Visit16visit_assoc_typeB6_, symObjAddr: 0x32BC, symBinAddr: 0x504B0, symSize: 0x3C }
  - { offset: 0xC4E6A, size: 0x8, addend: 0x0, symName: __RNvYNtNtCs7oyfuZDlTKn_11yoke_derive7visitor11TypeVisitorNtNtNtCsATtFUPiRFW_3syn3gen5visit5Visit16visit_attr_styleB6_, symObjAddr: 0x32F8, symBinAddr: 0x504EC, symSize: 0x3C }
  - { offset: 0xC4EA9, size: 0x8, addend: 0x0, symName: __RNvYNtNtCs7oyfuZDlTKn_11yoke_derive7visitor11TypeVisitorNtNtNtCsATtFUPiRFW_3syn3gen5visit5Visit16visit_constraintB6_, symObjAddr: 0x3334, symBinAddr: 0x50528, symSize: 0x3C }
  - { offset: 0xC4EE8, size: 0x8, addend: 0x0, symName: __RNvYNtNtCs7oyfuZDlTKn_11yoke_derive7visitor11TypeVisitorNtNtNtCsATtFUPiRFW_3syn3gen5visit5Visit16visit_data_unionB6_, symObjAddr: 0x3370, symBinAddr: 0x50564, symSize: 0x3C }
  - { offset: 0xC4F27, size: 0x8, addend: 0x0, symName: __RNvYNtNtCs7oyfuZDlTKn_11yoke_derive7visitor11TypeVisitorNtNtNtCsATtFUPiRFW_3syn3gen5visit5Visit16visit_expr_arrayB6_, symObjAddr: 0x33AC, symBinAddr: 0x505A0, symSize: 0x3C }
  - { offset: 0xC4F66, size: 0x8, addend: 0x0, symName: __RNvYNtNtCs7oyfuZDlTKn_11yoke_derive7visitor11TypeVisitorNtNtNtCsATtFUPiRFW_3syn3gen5visit5Visit16visit_expr_asyncB6_, symObjAddr: 0x33E8, symBinAddr: 0x505DC, symSize: 0x3C }
  - { offset: 0xC4FA5, size: 0x8, addend: 0x0, symName: __RNvYNtNtCs7oyfuZDlTKn_11yoke_derive7visitor11TypeVisitorNtNtNtCsATtFUPiRFW_3syn3gen5visit5Visit16visit_expr_awaitB6_, symObjAddr: 0x3424, symBinAddr: 0x50618, symSize: 0x3C }
  - { offset: 0xC4FE4, size: 0x8, addend: 0x0, symName: __RNvYNtNtCs7oyfuZDlTKn_11yoke_derive7visitor11TypeVisitorNtNtNtCsATtFUPiRFW_3syn3gen5visit5Visit16visit_expr_blockB6_, symObjAddr: 0x3460, symBinAddr: 0x50654, symSize: 0x3C }
  - { offset: 0xC5023, size: 0x8, addend: 0x0, symName: __RNvYNtNtCs7oyfuZDlTKn_11yoke_derive7visitor11TypeVisitorNtNtNtCsATtFUPiRFW_3syn3gen5visit5Visit16visit_expr_breakB6_, symObjAddr: 0x349C, symBinAddr: 0x50690, symSize: 0x3C }
  - { offset: 0xC5062, size: 0x8, addend: 0x0, symName: __RNvYNtNtCs7oyfuZDlTKn_11yoke_derive7visitor11TypeVisitorNtNtNtCsATtFUPiRFW_3syn3gen5visit5Visit16visit_expr_constB6_, symObjAddr: 0x34D8, symBinAddr: 0x506CC, symSize: 0x3C }
  - { offset: 0xC50A1, size: 0x8, addend: 0x0, symName: __RNvYNtNtCs7oyfuZDlTKn_11yoke_derive7visitor11TypeVisitorNtNtNtCsATtFUPiRFW_3syn3gen5visit5Visit16visit_expr_fieldB6_, symObjAddr: 0x3514, symBinAddr: 0x50708, symSize: 0x3C }
  - { offset: 0xC50E0, size: 0x8, addend: 0x0, symName: __RNvYNtNtCs7oyfuZDlTKn_11yoke_derive7visitor11TypeVisitorNtNtNtCsATtFUPiRFW_3syn3gen5visit5Visit16visit_expr_groupB6_, symObjAddr: 0x3550, symBinAddr: 0x50744, symSize: 0x3C }
  - { offset: 0xC511F, size: 0x8, addend: 0x0, symName: __RNvYNtNtCs7oyfuZDlTKn_11yoke_derive7visitor11TypeVisitorNtNtNtCsATtFUPiRFW_3syn3gen5visit5Visit16visit_expr_indexB6_, symObjAddr: 0x358C, symBinAddr: 0x50780, symSize: 0x3C }
  - { offset: 0xC515E, size: 0x8, addend: 0x0, symName: __RNvYNtNtCs7oyfuZDlTKn_11yoke_derive7visitor11TypeVisitorNtNtNtCsATtFUPiRFW_3syn3gen5visit5Visit16visit_expr_inferB6_, symObjAddr: 0x35C8, symBinAddr: 0x507BC, symSize: 0x3C }
  - { offset: 0xC519D, size: 0x8, addend: 0x0, symName: __RNvYNtNtCs7oyfuZDlTKn_11yoke_derive7visitor11TypeVisitorNtNtNtCsATtFUPiRFW_3syn3gen5visit5Visit16visit_expr_macroB6_, symObjAddr: 0x3604, symBinAddr: 0x507F8, symSize: 0x3C }
  - { offset: 0xC51DC, size: 0x8, addend: 0x0, symName: __RNvYNtNtCs7oyfuZDlTKn_11yoke_derive7visitor11TypeVisitorNtNtNtCsATtFUPiRFW_3syn3gen5visit5Visit16visit_expr_matchB6_, symObjAddr: 0x3640, symBinAddr: 0x50834, symSize: 0x3C }
  - { offset: 0xC521B, size: 0x8, addend: 0x0, symName: __RNvYNtNtCs7oyfuZDlTKn_11yoke_derive7visitor11TypeVisitorNtNtNtCsATtFUPiRFW_3syn3gen5visit5Visit16visit_expr_parenB6_, symObjAddr: 0x367C, symBinAddr: 0x50870, symSize: 0x3C }
  - { offset: 0xC525D, size: 0x8, addend: 0x0, symName: __RNvYNtNtCs7oyfuZDlTKn_11yoke_derive7visitor11TypeVisitorNtNtNtCsATtFUPiRFW_3syn3gen5visit5Visit16visit_expr_rangeB6_, symObjAddr: 0x36B8, symBinAddr: 0x508AC, symSize: 0x3C }
  - { offset: 0xC529F, size: 0x8, addend: 0x0, symName: __RNvYNtNtCs7oyfuZDlTKn_11yoke_derive7visitor11TypeVisitorNtNtNtCsATtFUPiRFW_3syn3gen5visit5Visit16visit_expr_tupleB6_, symObjAddr: 0x36F4, symBinAddr: 0x508E8, symSize: 0x3C }
  - { offset: 0xC52E1, size: 0x8, addend: 0x0, symName: __RNvYNtNtCs7oyfuZDlTKn_11yoke_derive7visitor11TypeVisitorNtNtNtCsATtFUPiRFW_3syn3gen5visit5Visit16visit_expr_unaryB6_, symObjAddr: 0x3730, symBinAddr: 0x50924, symSize: 0x3C }
  - { offset: 0xC5323, size: 0x8, addend: 0x0, symName: __RNvYNtNtCs7oyfuZDlTKn_11yoke_derive7visitor11TypeVisitorNtNtNtCsATtFUPiRFW_3syn3gen5visit5Visit16visit_expr_whileB6_, symObjAddr: 0x376C, symBinAddr: 0x50960, symSize: 0x3C }
  - { offset: 0xC5365, size: 0x8, addend: 0x0, symName: __RNvYNtNtCs7oyfuZDlTKn_11yoke_derive7visitor11TypeVisitorNtNtNtCsATtFUPiRFW_3syn3gen5visit5Visit16visit_expr_yieldB6_, symObjAddr: 0x37A8, symBinAddr: 0x5099C, symSize: 0x3C }
  - { offset: 0xC53A7, size: 0x8, addend: 0x0, symName: __RNvYNtNtCs7oyfuZDlTKn_11yoke_derive7visitor11TypeVisitorNtNtNtCsATtFUPiRFW_3syn3gen5visit5Visit16visit_item_constB6_, symObjAddr: 0x37E4, symBinAddr: 0x509D8, symSize: 0x3C }
  - { offset: 0xC53E9, size: 0x8, addend: 0x0, symName: __RNvYNtNtCs7oyfuZDlTKn_11yoke_derive7visitor11TypeVisitorNtNtNtCsATtFUPiRFW_3syn3gen5visit5Visit16visit_item_macroB6_, symObjAddr: 0x3820, symBinAddr: 0x50A14, symSize: 0x3C }
  - { offset: 0xC542B, size: 0x8, addend: 0x0, symName: __RNvYNtNtCs7oyfuZDlTKn_11yoke_derive7visitor11TypeVisitorNtNtNtCsATtFUPiRFW_3syn3gen5visit5Visit16visit_item_traitB6_, symObjAddr: 0x385C, symBinAddr: 0x50A50, symSize: 0x3C }
  - { offset: 0xC546D, size: 0x8, addend: 0x0, symName: __RNvYNtNtCs7oyfuZDlTKn_11yoke_derive7visitor11TypeVisitorNtNtNtCsATtFUPiRFW_3syn3gen5visit5Visit16visit_item_unionB6_, symObjAddr: 0x3898, symBinAddr: 0x50A8C, symSize: 0x3C }
  - { offset: 0xC54AF, size: 0x8, addend: 0x0, symName: __RNvYNtNtCs7oyfuZDlTKn_11yoke_derive7visitor11TypeVisitorNtNtNtCsATtFUPiRFW_3syn3gen5visit5Visit16visit_local_initB6_, symObjAddr: 0x38D4, symBinAddr: 0x50AC8, symSize: 0x3C }
  - { offset: 0xC54F1, size: 0x8, addend: 0x0, symName: __RNvYNtNtCs7oyfuZDlTKn_11yoke_derive7visitor11TypeVisitorNtNtNtCsATtFUPiRFW_3syn3gen5visit5Visit16visit_pat_structB6_, symObjAddr: 0x3910, symBinAddr: 0x50B04, symSize: 0x3C }
  - { offset: 0xC5533, size: 0x8, addend: 0x0, symName: __RNvYNtNtCs7oyfuZDlTKn_11yoke_derive7visitor11TypeVisitorNtNtNtCsATtFUPiRFW_3syn3gen5visit5Visit16visit_stmt_macroB6_, symObjAddr: 0x394C, symBinAddr: 0x50B40, symSize: 0x3C }
  - { offset: 0xC5575, size: 0x8, addend: 0x0, symName: __RNvYNtNtCs7oyfuZDlTKn_11yoke_derive7visitor11TypeVisitorNtNtNtCsATtFUPiRFW_3syn3gen5visit5Visit16visit_trait_itemB6_, symObjAddr: 0x3988, symBinAddr: 0x50B7C, symSize: 0x3C }
  - { offset: 0xC55B7, size: 0x8, addend: 0x0, symName: __RNvYNtNtCs7oyfuZDlTKn_11yoke_derive7visitor11TypeVisitorNtNtNtCsATtFUPiRFW_3syn3gen5visit5Visit16visit_type_arrayB6_, symObjAddr: 0x39C4, symBinAddr: 0x50BB8, symSize: 0x3C }
  - { offset: 0xC55F9, size: 0x8, addend: 0x0, symName: __RNvYNtNtCs7oyfuZDlTKn_11yoke_derive7visitor11TypeVisitorNtNtNtCsATtFUPiRFW_3syn3gen5visit5Visit16visit_type_groupB6_, symObjAddr: 0x3A00, symBinAddr: 0x50BF4, symSize: 0x3C }
  - { offset: 0xC563B, size: 0x8, addend: 0x0, symName: __RNvYNtNtCs7oyfuZDlTKn_11yoke_derive7visitor11TypeVisitorNtNtNtCsATtFUPiRFW_3syn3gen5visit5Visit16visit_type_inferB6_, symObjAddr: 0x3A3C, symBinAddr: 0x50C30, symSize: 0x3C }
  - { offset: 0xC567D, size: 0x8, addend: 0x0, symName: __RNvYNtNtCs7oyfuZDlTKn_11yoke_derive7visitor11TypeVisitorNtNtNtCsATtFUPiRFW_3syn3gen5visit5Visit16visit_type_macroB6_, symObjAddr: 0x3A78, symBinAddr: 0x50C6C, symSize: 0x3C }
  - { offset: 0xC56BF, size: 0x8, addend: 0x0, symName: __RNvYNtNtCs7oyfuZDlTKn_11yoke_derive7visitor11TypeVisitorNtNtNtCsATtFUPiRFW_3syn3gen5visit5Visit16visit_type_neverB6_, symObjAddr: 0x3AB4, symBinAddr: 0x50CA8, symSize: 0x3C }
  - { offset: 0xC5701, size: 0x8, addend: 0x0, symName: __RNvYNtNtCs7oyfuZDlTKn_11yoke_derive7visitor11TypeVisitorNtNtNtCsATtFUPiRFW_3syn3gen5visit5Visit16visit_type_paramB6_, symObjAddr: 0x3AF0, symBinAddr: 0x50CE4, symSize: 0x3C }
  - { offset: 0xC5743, size: 0x8, addend: 0x0, symName: __RNvYNtNtCs7oyfuZDlTKn_11yoke_derive7visitor11TypeVisitorNtNtNtCsATtFUPiRFW_3syn3gen5visit5Visit16visit_type_parenB6_, symObjAddr: 0x3B2C, symBinAddr: 0x50D20, symSize: 0x3C }
  - { offset: 0xC5785, size: 0x8, addend: 0x0, symName: __RNvYNtNtCs7oyfuZDlTKn_11yoke_derive7visitor11TypeVisitorNtNtNtCsATtFUPiRFW_3syn3gen5visit5Visit16visit_type_sliceB6_, symObjAddr: 0x3B68, symBinAddr: 0x50D5C, symSize: 0x3C }
  - { offset: 0xC57C7, size: 0x8, addend: 0x0, symName: __RNvYNtNtCs7oyfuZDlTKn_11yoke_derive7visitor11TypeVisitorNtNtNtCsATtFUPiRFW_3syn3gen5visit5Visit16visit_type_tupleB6_, symObjAddr: 0x3BA4, symBinAddr: 0x50D98, symSize: 0x3C }
  - { offset: 0xC5809, size: 0x8, addend: 0x0, symName: __RNvYNtNtCs7oyfuZDlTKn_11yoke_derive7visitor11TypeVisitorNtNtNtCsATtFUPiRFW_3syn3gen5visit5Visit16visit_use_renameB6_, symObjAddr: 0x3BE0, symBinAddr: 0x50DD4, symSize: 0x3C }
  - { offset: 0xC584B, size: 0x8, addend: 0x0, symName: __RNvYNtNtCs7oyfuZDlTKn_11yoke_derive7visitor11TypeVisitorNtNtNtCsATtFUPiRFW_3syn3gen5visit5Visit16visit_visibilityB6_, symObjAddr: 0x3C1C, symBinAddr: 0x50E10, symSize: 0x3C }
  - { offset: 0xC588D, size: 0x8, addend: 0x0, symName: __RNvYNtNtCs7oyfuZDlTKn_11yoke_derive7visitor11TypeVisitorNtNtNtCsATtFUPiRFW_3syn3gen5visit5Visit17visit_assoc_constB6_, symObjAddr: 0x3C58, symBinAddr: 0x50E4C, symSize: 0x3C }
  - { offset: 0xC58CC, size: 0x8, addend: 0x0, symName: __RNvYNtNtCs7oyfuZDlTKn_11yoke_derive7visitor11TypeVisitorNtNtNtCsATtFUPiRFW_3syn3gen5visit5Visit17visit_bare_fn_argB6_, symObjAddr: 0x3C94, symBinAddr: 0x50E88, symSize: 0x3C }
  - { offset: 0xC590B, size: 0x8, addend: 0x0, symName: __RNvYNtNtCs7oyfuZDlTKn_11yoke_derive7visitor11TypeVisitorNtNtNtCsATtFUPiRFW_3syn3gen5visit5Visit17visit_const_paramB6_, symObjAddr: 0x3CD0, symBinAddr: 0x50EC4, symSize: 0x3C }
  - { offset: 0xC594A, size: 0x8, addend: 0x0, symName: __RNvYNtNtCs7oyfuZDlTKn_11yoke_derive7visitor11TypeVisitorNtNtNtCsATtFUPiRFW_3syn3gen5visit5Visit17visit_data_structB6_, symObjAddr: 0x3D0C, symBinAddr: 0x50F00, symSize: 0x3C }
  - { offset: 0xC5989, size: 0x8, addend: 0x0, symName: __RNvYNtNtCs7oyfuZDlTKn_11yoke_derive7visitor11TypeVisitorNtNtNtCsATtFUPiRFW_3syn3gen5visit5Visit17visit_expr_assignB6_, symObjAddr: 0x3D48, symBinAddr: 0x50F3C, symSize: 0x3C }
  - { offset: 0xC59C8, size: 0x8, addend: 0x0, symName: __RNvYNtNtCs7oyfuZDlTKn_11yoke_derive7visitor11TypeVisitorNtNtNtCsATtFUPiRFW_3syn3gen5visit5Visit17visit_expr_binaryB6_, symObjAddr: 0x3D84, symBinAddr: 0x50F78, symSize: 0x3C }
  - { offset: 0xC5A07, size: 0x8, addend: 0x0, symName: __RNvYNtNtCs7oyfuZDlTKn_11yoke_derive7visitor11TypeVisitorNtNtNtCsATtFUPiRFW_3syn3gen5visit5Visit17visit_expr_repeatB6_, symObjAddr: 0x3DC0, symBinAddr: 0x50FB4, symSize: 0x3C }
  - { offset: 0xC5A49, size: 0x8, addend: 0x0, symName: __RNvYNtNtCs7oyfuZDlTKn_11yoke_derive7visitor11TypeVisitorNtNtNtCsATtFUPiRFW_3syn3gen5visit5Visit17visit_expr_returnB6_, symObjAddr: 0x3DFC, symBinAddr: 0x50FF0, symSize: 0x3C }
  - { offset: 0xC5A8B, size: 0x8, addend: 0x0, symName: __RNvYNtNtCs7oyfuZDlTKn_11yoke_derive7visitor11TypeVisitorNtNtNtCsATtFUPiRFW_3syn3gen5visit5Visit17visit_expr_structB6_, symObjAddr: 0x3E38, symBinAddr: 0x5102C, symSize: 0x3C }
  - { offset: 0xC5ACD, size: 0x8, addend: 0x0, symName: __RNvYNtNtCs7oyfuZDlTKn_11yoke_derive7visitor11TypeVisitorNtNtNtCsATtFUPiRFW_3syn3gen5visit5Visit17visit_expr_unsafeB6_, symObjAddr: 0x3E74, symBinAddr: 0x51068, symSize: 0x3C }
  - { offset: 0xC5B0F, size: 0x8, addend: 0x0, symName: __RNvYNtNtCs7oyfuZDlTKn_11yoke_derive7visitor11TypeVisitorNtNtNtCsATtFUPiRFW_3syn3gen5visit5Visit17visit_field_valueB6_, symObjAddr: 0x3EB0, symBinAddr: 0x510A4, symSize: 0x3C }
  - { offset: 0xC5B51, size: 0x8, addend: 0x0, symName: __RNvYNtNtCs7oyfuZDlTKn_11yoke_derive7visitor11TypeVisitorNtNtNtCsATtFUPiRFW_3syn3gen5visit5Visit17visit_item_staticB6_, symObjAddr: 0x3EEC, symBinAddr: 0x510E0, symSize: 0x3C }
  - { offset: 0xC5B93, size: 0x8, addend: 0x0, symName: __RNvYNtNtCs7oyfuZDlTKn_11yoke_derive7visitor11TypeVisitorNtNtNtCsATtFUPiRFW_3syn3gen5visit5Visit17visit_item_structB6_, symObjAddr: 0x3F28, symBinAddr: 0x5111C, symSize: 0x3C }
  - { offset: 0xC5BD5, size: 0x8, addend: 0x0, symName: __RNvYNtNtCs7oyfuZDlTKn_11yoke_derive7visitor11TypeVisitorNtNtNtCsATtFUPiRFW_3syn3gen5visit5Visit17visit_return_typeB6_, symObjAddr: 0x3F64, symBinAddr: 0x51158, symSize: 0x3C }
  - { offset: 0xC5C17, size: 0x8, addend: 0x0, symName: __RNvYNtNtCs7oyfuZDlTKn_11yoke_derive7visitor11TypeVisitorNtNtNtCsATtFUPiRFW_3syn3gen5visit5Visit17visit_trait_boundB6_, symObjAddr: 0x3FA0, symBinAddr: 0x51194, symSize: 0x3C }
  - { offset: 0xC5C59, size: 0x8, addend: 0x0, symName: __RNvYNtNtCs7oyfuZDlTKn_11yoke_derive7visitor11TypeVisitorNtNtNtCsATtFUPiRFW_3syn3gen5visit5Visit18visit_derive_inputB6_, symObjAddr: 0x3FDC, symBinAddr: 0x511D0, symSize: 0x3C }
  - { offset: 0xC5C98, size: 0x8, addend: 0x0, symName: __RNvYNtNtCs7oyfuZDlTKn_11yoke_derive7visitor11TypeVisitorNtNtNtCsATtFUPiRFW_3syn3gen5visit5Visit18visit_expr_closureB6_, symObjAddr: 0x4018, symBinAddr: 0x5120C, symSize: 0x3C }
  - { offset: 0xC5CD7, size: 0x8, addend: 0x0, symName: __RNvYNtNtCs7oyfuZDlTKn_11yoke_derive7visitor11TypeVisitorNtNtNtCsATtFUPiRFW_3syn3gen5visit5Visit18visit_fields_namedB6_, symObjAddr: 0x4054, symBinAddr: 0x51248, symSize: 0x3C }
  - { offset: 0xC5D19, size: 0x8, addend: 0x0, symName: __RNvYNtNtCs7oyfuZDlTKn_11yoke_derive7visitor11TypeVisitorNtNtNtCsATtFUPiRFW_3syn3gen5visit5Visit18visit_foreign_itemB6_, symObjAddr: 0x4090, symBinAddr: 0x51284, symSize: 0x3C }
  - { offset: 0xC5D5B, size: 0x8, addend: 0x0, symName: __RNvYNtNtCs7oyfuZDlTKn_11yoke_derive7visitor11TypeVisitorNtNtNtCsATtFUPiRFW_3syn3gen5visit5Visit18visit_impl_item_fnB6_, symObjAddr: 0x40CC, symBinAddr: 0x512C0, symSize: 0x3C }
  - { offset: 0xC5D9D, size: 0x8, addend: 0x0, symName: __RNvYNtNtCs7oyfuZDlTKn_11yoke_derive7visitor11TypeVisitorNtNtNtCsATtFUPiRFW_3syn3gen5visit5Visit18visit_lit_byte_strB6_, symObjAddr: 0x4108, symBinAddr: 0x512FC, symSize: 0x3C }
  - { offset: 0xC5DDF, size: 0x8, addend: 0x0, symName: __RNvYNtNtCs7oyfuZDlTKn_11yoke_derive7visitor11TypeVisitorNtNtNtCsATtFUPiRFW_3syn3gen5visit5Visit18visit_path_segmentB6_, symObjAddr: 0x4144, symBinAddr: 0x51338, symSize: 0x3C }
  - { offset: 0xC5E21, size: 0x8, addend: 0x0, symName: __RNvYNtNtCs7oyfuZDlTKn_11yoke_derive7visitor11TypeVisitorNtNtNtCsATtFUPiRFW_3syn3gen5visit5Visit18visit_range_limitsB6_, symObjAddr: 0x4180, symBinAddr: 0x51374, symSize: 0x3C }
  - { offset: 0xC5E63, size: 0x8, addend: 0x0, symName: __RNvYNtNtCs7oyfuZDlTKn_11yoke_derive7visitor11TypeVisitorNtNtNtCsATtFUPiRFW_3syn3gen5visit5Visit18visit_type_bare_fnB6_, symObjAddr: 0x41BC, symBinAddr: 0x513B0, symSize: 0x3C }
  - { offset: 0xC5EA5, size: 0x8, addend: 0x0, symName: __RNvYNtNtCs7oyfuZDlTKn_11yoke_derive7visitor11TypeVisitorNtNtNtCsATtFUPiRFW_3syn3gen5visit5Visit18visit_where_clauseB6_, symObjAddr: 0x41F8, symBinAddr: 0x513EC, symSize: 0x3C }
  - { offset: 0xC5EE7, size: 0x8, addend: 0x0, symName: __RNvYNtNtCs7oyfuZDlTKn_11yoke_derive7visitor11TypeVisitorNtNtNtCsATtFUPiRFW_3syn3gen5visit5Visit19visit_bare_variadicB6_, symObjAddr: 0x4234, symBinAddr: 0x51428, symSize: 0x3C }
  - { offset: 0xC5F26, size: 0x8, addend: 0x0, symName: __RNvYNtNtCs7oyfuZDlTKn_11yoke_derive7visitor11TypeVisitorNtNtNtCsATtFUPiRFW_3syn3gen5visit5Visit19visit_expr_continueB6_, symObjAddr: 0x4270, symBinAddr: 0x51464, symSize: 0x3C }
  - { offset: 0xC5F65, size: 0x8, addend: 0x0, symName: __RNvYNtNtCs7oyfuZDlTKn_11yoke_derive7visitor11TypeVisitorNtNtNtCsATtFUPiRFW_3syn3gen5visit5Visit19visit_expr_for_loopB6_, symObjAddr: 0x42AC, symBinAddr: 0x514A0, symSize: 0x3C }
  - { offset: 0xC5FA4, size: 0x8, addend: 0x0, symName: __RNvYNtNtCs7oyfuZDlTKn_11yoke_derive7visitor11TypeVisitorNtNtNtCsATtFUPiRFW_3syn3gen5visit5Visit19visit_expr_raw_addrB6_, symObjAddr: 0x42E8, symBinAddr: 0x514DC, symSize: 0x3C }
  - { offset: 0xC5FE6, size: 0x8, addend: 0x0, symName: __RNvYNtNtCs7oyfuZDlTKn_11yoke_derive7visitor11TypeVisitorNtNtNtCsATtFUPiRFW_3syn3gen5visit5Visit19visit_generic_paramB6_, symObjAddr: 0x4324, symBinAddr: 0x51518, symSize: 0x3C }
  - { offset: 0xC6028, size: 0x8, addend: 0x0, symName: __RNvYNtNtCs7oyfuZDlTKn_11yoke_derive7visitor11TypeVisitorNtNtNtCsATtFUPiRFW_3syn3gen5visit5Visit19visit_pat_referenceB6_, symObjAddr: 0x4360, symBinAddr: 0x51554, symSize: 0x3C }
  - { offset: 0xC606A, size: 0x8, addend: 0x0, symName: __RNvYNtNtCs7oyfuZDlTKn_11yoke_derive7visitor11TypeVisitorNtNtNtCsATtFUPiRFW_3syn3gen5visit5Visit19visit_trait_item_fnB6_, symObjAddr: 0x439C, symBinAddr: 0x51590, symSize: 0x3C }
  - { offset: 0xC60AC, size: 0x8, addend: 0x0, symName: __RNvYNtNtCs7oyfuZDlTKn_11yoke_derive7visitor11TypeVisitorNtNtNtCsATtFUPiRFW_3syn3gen5visit5Visit20visit_captured_paramB6_, symObjAddr: 0x43D8, symBinAddr: 0x515CC, symSize: 0x3C }
  - { offset: 0xC60EB, size: 0x8, addend: 0x0, symName: __RNvYNtNtCs7oyfuZDlTKn_11yoke_derive7visitor11TypeVisitorNtNtNtCsATtFUPiRFW_3syn3gen5visit5Visit20visit_expr_referenceB6_, symObjAddr: 0x4414, symBinAddr: 0x51608, symSize: 0x3C }
  - { offset: 0xC612D, size: 0x8, addend: 0x0, symName: __RNvYNtNtCs7oyfuZDlTKn_11yoke_derive7visitor11TypeVisitorNtNtNtCsATtFUPiRFW_3syn3gen5visit5Visit20visit_expr_try_blockB6_, symObjAddr: 0x4450, symBinAddr: 0x51644, symSize: 0x3C }
  - { offset: 0xC616F, size: 0x8, addend: 0x0, symName: __RNvYNtNtCs7oyfuZDlTKn_11yoke_derive7visitor11TypeVisitorNtNtNtCsATtFUPiRFW_3syn3gen5visit5Visit20visit_fields_unnamedB6_, symObjAddr: 0x448C, symBinAddr: 0x51680, symSize: 0x3C }
  - { offset: 0xC61B1, size: 0x8, addend: 0x0, symName: __RNvYNtNtCs7oyfuZDlTKn_11yoke_derive7visitor11TypeVisitorNtNtNtCsATtFUPiRFW_3syn3gen5visit5Visit20visit_impl_item_typeB6_, symObjAddr: 0x44C8, symBinAddr: 0x516BC, symSize: 0x3C }
  - { offset: 0xC61F3, size: 0x8, addend: 0x0, symName: __RNvYNtNtCs7oyfuZDlTKn_11yoke_derive7visitor11TypeVisitorNtNtNtCsATtFUPiRFW_3syn3gen5visit5Visit20visit_lifetime_paramB6_, symObjAddr: 0x4504, symBinAddr: 0x516F8, symSize: 0x3C }
  - { offset: 0xC6235, size: 0x8, addend: 0x0, symName: __RNvYNtNtCs7oyfuZDlTKn_11yoke_derive7visitor11TypeVisitorNtNtNtCsATtFUPiRFW_3syn3gen5visit5Visit20visit_path_argumentsB6_, symObjAddr: 0x4540, symBinAddr: 0x51734, symSize: 0x3C }
  - { offset: 0xC6277, size: 0x8, addend: 0x0, symName: __RNvYNtNtCs7oyfuZDlTKn_11yoke_derive7visitor11TypeVisitorNtNtNtCsATtFUPiRFW_3syn3gen5visit5Visit20visit_predicate_typeB6_, symObjAddr: 0x457C, symBinAddr: 0x51770, symSize: 0x3C }
  - { offset: 0xC62B9, size: 0x8, addend: 0x0, symName: __RNvYNtNtCs7oyfuZDlTKn_11yoke_derive7visitor11TypeVisitorNtNtNtCsATtFUPiRFW_3syn3gen5visit5Visit20visit_type_referenceB6_, symObjAddr: 0x45B8, symBinAddr: 0x517AC, symSize: 0x3C }
  - { offset: 0xC62FB, size: 0x8, addend: 0x0, symName: __RNvYNtNtCs7oyfuZDlTKn_11yoke_derive7visitor11TypeVisitorNtNtNtCsATtFUPiRFW_3syn3gen5visit5Visit20visit_vis_restrictedB6_, symObjAddr: 0x45F4, symBinAddr: 0x517E8, symSize: 0x3C }
  - { offset: 0xC633D, size: 0x8, addend: 0x0, symName: __RNvYNtNtCs7oyfuZDlTKn_11yoke_derive7visitor11TypeVisitorNtNtNtCsATtFUPiRFW_3syn3gen5visit5Visit21visit_bound_lifetimesB6_, symObjAddr: 0x4630, symBinAddr: 0x51824, symSize: 0x3C }
  - { offset: 0xC637C, size: 0x8, addend: 0x0, symName: __RNvYNtNtCs7oyfuZDlTKn_11yoke_derive7visitor11TypeVisitorNtNtNtCsATtFUPiRFW_3syn3gen5visit5Visit21visit_foreign_item_fnB6_, symObjAddr: 0x466C, symBinAddr: 0x51860, symSize: 0x3C }
  - { offset: 0xC63BE, size: 0x8, addend: 0x0, symName: __RNvYNtNtCs7oyfuZDlTKn_11yoke_derive7visitor11TypeVisitorNtNtNtCsATtFUPiRFW_3syn3gen5visit5Visit21visit_impl_item_constB6_, symObjAddr: 0x46A8, symBinAddr: 0x5189C, symSize: 0x3C }
  - { offset: 0xC6400, size: 0x8, addend: 0x0, symName: __RNvYNtNtCs7oyfuZDlTKn_11yoke_derive7visitor11TypeVisitorNtNtNtCsATtFUPiRFW_3syn3gen5visit5Visit21visit_impl_item_macroB6_, symObjAddr: 0x46E4, symBinAddr: 0x518D8, symSize: 0x3C }
  - { offset: 0xC6442, size: 0x8, addend: 0x0, symName: __RNvYNtNtCs7oyfuZDlTKn_11yoke_derive7visitor11TypeVisitorNtNtNtCsATtFUPiRFW_3syn3gen5visit5Visit21visit_macro_delimiterB6_, symObjAddr: 0x4720, symBinAddr: 0x51914, symSize: 0x3C }
  - { offset: 0xC6484, size: 0x8, addend: 0x0, symName: __RNvYNtNtCs7oyfuZDlTKn_11yoke_derive7visitor11TypeVisitorNtNtNtCsATtFUPiRFW_3syn3gen5visit5Visit21visit_meta_name_valueB6_, symObjAddr: 0x475C, symBinAddr: 0x51950, symSize: 0x3C }
  - { offset: 0xC64C6, size: 0x8, addend: 0x0, symName: __RNvYNtNtCs7oyfuZDlTKn_11yoke_derive7visitor11TypeVisitorNtNtNtCsATtFUPiRFW_3syn3gen5visit5Visit21visit_precise_captureB6_, symObjAddr: 0x4798, symBinAddr: 0x5198C, symSize: 0x3C }
  - { offset: 0xC6508, size: 0x8, addend: 0x0, symName: __RNvYNtNtCs7oyfuZDlTKn_11yoke_derive7visitor11TypeVisitorNtNtNtCsATtFUPiRFW_3syn3gen5visit5Visit21visit_trait_item_typeB6_, symObjAddr: 0x47D4, symBinAddr: 0x519C8, symSize: 0x3C }
  - { offset: 0xC654A, size: 0x8, addend: 0x0, symName: __RNvYNtNtCs7oyfuZDlTKn_11yoke_derive7visitor11TypeVisitorNtNtNtCsATtFUPiRFW_3syn3gen5visit5Visit21visit_type_impl_traitB6_, symObjAddr: 0x4810, symBinAddr: 0x51A04, symSize: 0x3C }
  - { offset: 0xC658C, size: 0x8, addend: 0x0, symName: __RNvYNtNtCs7oyfuZDlTKn_11yoke_derive7visitor11TypeVisitorNtNtNtCsATtFUPiRFW_3syn3gen5visit5Visit21visit_where_predicateB6_, symObjAddr: 0x484C, symBinAddr: 0x51A40, symSize: 0x3C }
  - { offset: 0xC65CE, size: 0x8, addend: 0x0, symName: __RNvYNtNtCs7oyfuZDlTKn_11yoke_derive7visitor11TypeVisitorNtNtNtCsATtFUPiRFW_3syn3gen5visit5Visit22visit_expr_method_callB6_, symObjAddr: 0x4888, symBinAddr: 0x51A7C, symSize: 0x3C }
  - { offset: 0xC660D, size: 0x8, addend: 0x0, symName: __RNvYNtNtCs7oyfuZDlTKn_11yoke_derive7visitor11TypeVisitorNtNtNtCsATtFUPiRFW_3syn3gen5visit5Visit22visit_field_mutabilityB6_, symObjAddr: 0x48C4, symBinAddr: 0x51AB8, symSize: 0x3C }
  - { offset: 0xC664F, size: 0x8, addend: 0x0, symName: __RNvYNtNtCs7oyfuZDlTKn_11yoke_derive7visitor11TypeVisitorNtNtNtCsATtFUPiRFW_3syn3gen5visit5Visit22visit_generic_argumentB6_, symObjAddr: 0x4900, symBinAddr: 0x51AF4, symSize: 0x3C }
  - { offset: 0xC6691, size: 0x8, addend: 0x0, symName: __RNvYNtNtCs7oyfuZDlTKn_11yoke_derive7visitor11TypeVisitorNtNtNtCsATtFUPiRFW_3syn3gen5visit5Visit22visit_impl_restrictionB6_, symObjAddr: 0x493C, symBinAddr: 0x51B30, symSize: 0x3C }
  - { offset: 0xC66D3, size: 0x8, addend: 0x0, symName: __RNvYNtNtCs7oyfuZDlTKn_11yoke_derive7visitor11TypeVisitorNtNtNtCsATtFUPiRFW_3syn3gen5visit5Visit22visit_item_foreign_modB6_, symObjAddr: 0x4978, symBinAddr: 0x51B6C, symSize: 0x3C }
  - { offset: 0xC6715, size: 0x8, addend: 0x0, symName: __RNvYNtNtCs7oyfuZDlTKn_11yoke_derive7visitor11TypeVisitorNtNtNtCsATtFUPiRFW_3syn3gen5visit5Visit22visit_item_trait_aliasB6_, symObjAddr: 0x49B4, symBinAddr: 0x51BA8, symSize: 0x3C }
  - { offset: 0xC6757, size: 0x8, addend: 0x0, symName: __RNvYNtNtCs7oyfuZDlTKn_11yoke_derive7visitor11TypeVisitorNtNtNtCsATtFUPiRFW_3syn3gen5visit5Visit22visit_pat_tuple_structB6_, symObjAddr: 0x49F0, symBinAddr: 0x51BE4, symSize: 0x3C }
  - { offset: 0xC6799, size: 0x8, addend: 0x0, symName: __RNvYNtNtCs7oyfuZDlTKn_11yoke_derive7visitor11TypeVisitorNtNtNtCsATtFUPiRFW_3syn3gen5visit5Visit22visit_trait_item_constB6_, symObjAddr: 0x4A2C, symBinAddr: 0x51C20, symSize: 0x3C }
  - { offset: 0xC67DB, size: 0x8, addend: 0x0, symName: __RNvYNtNtCs7oyfuZDlTKn_11yoke_derive7visitor11TypeVisitorNtNtNtCsATtFUPiRFW_3syn3gen5visit5Visit22visit_trait_item_macroB6_, symObjAddr: 0x4A68, symBinAddr: 0x51C5C, symSize: 0x3C }
  - { offset: 0xC681D, size: 0x8, addend: 0x0, symName: __RNvYNtNtCs7oyfuZDlTKn_11yoke_derive7visitor11TypeVisitorNtNtNtCsATtFUPiRFW_3syn3gen5visit5Visit22visit_type_param_boundB6_, symObjAddr: 0x4AA4, symBinAddr: 0x51C98, symSize: 0x3C }
  - { offset: 0xC685F, size: 0x8, addend: 0x0, symName: __RNvYNtNtCs7oyfuZDlTKn_11yoke_derive7visitor11TypeVisitorNtNtNtCsATtFUPiRFW_3syn3gen5visit5Visit23visit_foreign_item_typeB6_, symObjAddr: 0x4AE0, symBinAddr: 0x51CD4, symSize: 0x3C }
  - { offset: 0xC68A1, size: 0x8, addend: 0x0, symName: __RNvYNtNtCs7oyfuZDlTKn_11yoke_derive7visitor11TypeVisitorNtNtNtCsATtFUPiRFW_3syn3gen5visit5Visit23visit_item_extern_crateB6_, symObjAddr: 0x4B1C, symBinAddr: 0x51D10, symSize: 0x3C }
  - { offset: 0xC68E3, size: 0x8, addend: 0x0, symName: __RNvYNtNtCs7oyfuZDlTKn_11yoke_derive7visitor11TypeVisitorNtNtNtCsATtFUPiRFW_3syn3gen5visit5Visit23visit_static_mutabilityB6_, symObjAddr: 0x4B58, symBinAddr: 0x51D4C, symSize: 0x3C }
  - { offset: 0xC6925, size: 0x8, addend: 0x0, symName: __RNvYNtNtCs7oyfuZDlTKn_11yoke_derive7visitor11TypeVisitorNtNtNtCsATtFUPiRFW_3syn3gen5visit5Visit23visit_type_trait_objectB6_, symObjAddr: 0x4B94, symBinAddr: 0x51D88, symSize: 0x3C }
  - { offset: 0xC6967, size: 0x8, addend: 0x0, symName: __RNvYNtNtCs7oyfuZDlTKn_11yoke_derive7visitor11TypeVisitorNtNtNtCsATtFUPiRFW_3syn3gen5visit5Visit24visit_foreign_item_macroB6_, symObjAddr: 0x4BD0, symBinAddr: 0x51DC4, symSize: 0x3C }
  - { offset: 0xC69A9, size: 0x8, addend: 0x0, symName: __RNvYNtNtCs7oyfuZDlTKn_11yoke_derive7visitor11TypeVisitorNtNtNtCsATtFUPiRFW_3syn3gen5visit5Visit24visit_pointer_mutabilityB6_, symObjAddr: 0x4C0C, symBinAddr: 0x51E00, symSize: 0x3C }
  - { offset: 0xC69EB, size: 0x8, addend: 0x0, symName: __RNvYNtNtCs7oyfuZDlTKn_11yoke_derive7visitor11TypeVisitorNtNtNtCsATtFUPiRFW_3syn3gen5visit5Visit24visit_predicate_lifetimeB6_, symObjAddr: 0x4C48, symBinAddr: 0x51E3C, symSize: 0x3C }
  - { offset: 0xC6A2D, size: 0x8, addend: 0x0, symName: __RNvYNtNtCs7oyfuZDlTKn_11yoke_derive7visitor11TypeVisitorNtNtNtCsATtFUPiRFW_3syn3gen5visit5Visit25visit_foreign_item_staticB6_, symObjAddr: 0x4C84, symBinAddr: 0x51E78, symSize: 0x3C }
  - { offset: 0xC6A6F, size: 0x8, addend: 0x0, symName: __RNvYNtNtCs7oyfuZDlTKn_11yoke_derive7visitor11TypeVisitorNtNtNtCsATtFUPiRFW_3syn3gen5visit5Visit26visit_trait_bound_modifierB6_, symObjAddr: 0x4CC0, symBinAddr: 0x51EB4, symSize: 0x3C }
  - { offset: 0xC6AB1, size: 0x8, addend: 0x0, symName: __RNvYNtNtCs7oyfuZDlTKn_11yoke_derive7visitor11TypeVisitorNtNtNtCsATtFUPiRFW_3syn3gen5visit5Visit37visit_parenthesized_generic_argumentsB6_, symObjAddr: 0x4CFC, symBinAddr: 0x51EF0, symSize: 0x3C }
  - { offset: 0xC6AF3, size: 0x8, addend: 0x0, symName: __RNvYNtNtCs7oyfuZDlTKn_11yoke_derive7visitor11TypeVisitorNtNtNtCsATtFUPiRFW_3syn3gen5visit5Visit39visit_angle_bracketed_generic_argumentsB6_, symObjAddr: 0x4D38, symBinAddr: 0x51F2C, symSize: 0x3C }
  - { offset: 0xC6B32, size: 0x8, addend: 0x0, symName: __RNvYNtNtCs7oyfuZDlTKn_11yoke_derive7visitor11TypeVisitorNtNtNtCsATtFUPiRFW_3syn3gen5visit5Visit9visit_abiB6_, symObjAddr: 0x4D74, symBinAddr: 0x51F68, symSize: 0x3C }
  - { offset: 0xC6B71, size: 0x8, addend: 0x0, symName: __RNvYNtNtCs7oyfuZDlTKn_11yoke_derive7visitor11TypeVisitorNtNtNtCsATtFUPiRFW_3syn3gen5visit5Visit9visit_armB6_, symObjAddr: 0x4DB0, symBinAddr: 0x51FA4, symSize: 0x3C }
  - { offset: 0xC6BB0, size: 0x8, addend: 0x0, symName: __RNvYNtNtCs7oyfuZDlTKn_11yoke_derive7visitor11TypeVisitorNtNtNtCsATtFUPiRFW_3syn3gen5visit5Visit9visit_litB6_, symObjAddr: 0x4DEC, symBinAddr: 0x51FE0, symSize: 0x3C }
  - { offset: 0xC6BF2, size: 0x8, addend: 0x0, symName: __RNvYNtNtCs7oyfuZDlTKn_11yoke_derive7visitor11TypeVisitorNtNtNtCsATtFUPiRFW_3syn3gen5visit5Visit9visit_patB6_, symObjAddr: 0x4E28, symBinAddr: 0x5201C, symSize: 0x3C }
  - { offset: 0xC7DED, size: 0x8, addend: 0x0, symName: __RNvXs2_NtCsdze8u8oDPro_5alloc7raw_vecINtB5_6RawVecNtCs475r2uZUTuc_11proc_macro25IdentENtNtNtCs9f3LFPSIp77_4core3ops4drop4Drop4dropCs7oyfuZDlTKn_11yoke_derive, symObjAddr: 0x1C10, symBinAddr: 0x4EE04, symSize: 0x34 }
  - { offset: 0xC7E29, size: 0x8, addend: 0x0, symName: __RNvXs2_NtCsdze8u8oDPro_5alloc7raw_vecINtB5_6RawVecNtNtCsATtFUPiRFW_3syn8generics9TypeParamENtNtNtCs9f3LFPSIp77_4core3ops4drop4Drop4dropCs7oyfuZDlTKn_11yoke_derive, symObjAddr: 0x1C44, symBinAddr: 0x4EE38, symSize: 0x34 }
  - { offset: 0xC8EE5, size: 0x8, addend: 0x0, symName: __RNvMs4_NtNtCs9f3LFPSIp77_4core5slice4iterINtB5_4IterNtCs475r2uZUTuc_11proc_macro25IdentE3newCs7oyfuZDlTKn_11yoke_derive, symObjAddr: 0x13D8, symBinAddr: 0x4E5CC, symSize: 0x58 }
  - { offset: 0xC9079, size: 0x8, addend: 0x0, symName: __RNvMs4_NtNtCs9f3LFPSIp77_4core5slice4iterINtB5_4IterNtNtCsATtFUPiRFW_3syn8generics9TypeParamE3newCs7oyfuZDlTKn_11yoke_derive, symObjAddr: 0x1430, symBinAddr: 0x4E624, symSize: 0x58 }
  - { offset: 0xC9187, size: 0x8, addend: 0x0, symName: __RNvMsa_NtNtCsjLJ1XWNSM6u_10proc_macro6bridge6clientNtB5_14HandleCounters3getCs7oyfuZDlTKn_11yoke_derive, symObjAddr: 0x1488, symBinAddr: 0x4E67C, symSize: 0xC }
  - { offset: 0xC96EC, size: 0x8, addend: 0x0, symName: __RNvXs4_NtCs62MdaZFMefA_5quote9___privateINtB5_9RepInterpRNtCs475r2uZUTuc_11proc_macro25IdentENtNtB7_9to_tokens8ToTokens9to_tokensCs7oyfuZDlTKn_11yoke_derive, symObjAddr: 0x1E10, symBinAddr: 0x4F004, symSize: 0x3C }
  - { offset: 0xC972B, size: 0x8, addend: 0x0, symName: __RNvXs4_NtCs62MdaZFMefA_5quote9___privateINtB5_9RepInterpRNtNtCsATtFUPiRFW_3syn8generics14WherePredicateENtNtB7_9to_tokens8ToTokens9to_tokensCs7oyfuZDlTKn_11yoke_derive, symObjAddr: 0x1E4C, symBinAddr: 0x4F040, symSize: 0x3C }
  - { offset: 0xC976A, size: 0x8, addend: 0x0, symName: __RNvXs4_NtCs62MdaZFMefA_5quote9___privateINtB5_9RepInterpRNtNtCsATtFUPiRFW_3syn8generics9TypeParamENtNtB7_9to_tokens8ToTokens9to_tokensCs7oyfuZDlTKn_11yoke_derive, symObjAddr: 0x1E88, symBinAddr: 0x4F07C, symSize: 0x3C }
  - { offset: 0xC9A32, size: 0x8, addend: 0x0, symName: __RNvXNtCs7oyfuZDlTKn_11yoke_derive7visitorNtB2_11TypeVisitorNtNtNtCsATtFUPiRFW_3syn3gen5visit5Visit14visit_lifetime, symObjAddr: 0x4E64, symBinAddr: 0x52058, symSize: 0x8C }
  - { offset: 0xC9A68, size: 0x8, addend: 0x0, symName: __RNvXNtCs7oyfuZDlTKn_11yoke_derive7visitorNtB2_11TypeVisitorNtNtNtCsATtFUPiRFW_3syn3gen5visit5Visit15visit_type_path, symObjAddr: 0x4EF0, symBinAddr: 0x520E4, symSize: 0xE0 }
  - { offset: 0xC9AB4, size: 0x8, addend: 0x0, symName: __RNvNtCs7oyfuZDlTKn_11yoke_derive7visitor25check_type_for_parameters, symObjAddr: 0x4FD0, symBinAddr: 0x521C4, symSize: 0x68 }
  - { offset: 0xCA5C9, size: 0x8, addend: 0x0, symName: __RINvMs0_NtCs9f3LFPSIp77_4core3fmtNtB6_9Arguments6new_v1Kj3_Kj2_ECs7oyfuZDlTKn_11yoke_derive, symObjAddr: 0x0, symBinAddr: 0x52280, symSize: 0x54 }
  - { offset: 0xCCA3B, size: 0x8, addend: 0x0, symName: __RNvNvMs1_NtNtCs9f3LFPSIp77_4core3ptr8non_nullINtB7_7NonNullpE13new_unchecked18precondition_checkCs7oyfuZDlTKn_11yoke_derive, symObjAddr: 0x4990, symBinAddr: 0x56BE8, symSize: 0x40 }
  - { offset: 0xCD387, size: 0x8, addend: 0x0, symName: __RINvNtCs9f3LFPSIp77_4core3ptr13drop_in_placeDNtNtB4_5error5ErrorNtNtB4_6marker4SendNtB12_4SyncEL_ECs7oyfuZDlTKn_11yoke_derive, symObjAddr: 0x152C, symBinAddr: 0x537AC, symSize: 0x48 }
  - { offset: 0xCD3B6, size: 0x8, addend: 0x0, symName: __RINvNtCs9f3LFPSIp77_4core3ptr13drop_in_placeINtNtB4_4cell10UnsafeCellNtNtNtCsjLJ1XWNSM6u_10proc_macro6bridge6client6BridgeEECs7oyfuZDlTKn_11yoke_derive, symObjAddr: 0x1574, symBinAddr: 0x537F4, symSize: 0x24 }
  - { offset: 0xCD3E5, size: 0x8, addend: 0x0, symName: __RINvNtCs9f3LFPSIp77_4core3ptr13drop_in_placeINtNtB4_4cell7RefCellNtNtNtCsjLJ1XWNSM6u_10proc_macro6bridge6client6BridgeEECs7oyfuZDlTKn_11yoke_derive, symObjAddr: 0x1598, symBinAddr: 0x53818, symSize: 0x24 }
  - { offset: 0xCD414, size: 0x8, addend: 0x0, symName: __RINvNtCs9f3LFPSIp77_4core3ptr13drop_in_placeINtNtB4_6option6OptionNtNtCsATtFUPiRFW_3syn8generics9TypeParamEECs7oyfuZDlTKn_11yoke_derive, symObjAddr: 0x15BC, symBinAddr: 0x5383C, symSize: 0x44 }
  - { offset: 0xCD443, size: 0x8, addend: 0x0, symName: __RINvNtCs9f3LFPSIp77_4core3ptr13drop_in_placeINtNtB4_6result6ResultNtCs475r2uZUTuc_11proc_macro25IdentNtNtCsATtFUPiRFW_3syn5error5ErrorEECs7oyfuZDlTKn_11yoke_derive, symObjAddr: 0x1600, symBinAddr: 0x53880, symSize: 0x50 }
  - { offset: 0xCD472, size: 0x8, addend: 0x0, symName: __RINvNtCs9f3LFPSIp77_4core3ptr13drop_in_placeINtNtCscXJUXcj6jCz_9hashbrown3map7HashMapNtCs475r2uZUTuc_11proc_macro25IdentuNtNtNtCs27l1GJC5rMQ_3std4hash6random11RandomStateEECs7oyfuZDlTKn_11yoke_derive, symObjAddr: 0x1650, symBinAddr: 0x538D0, symSize: 0x24 }
  - { offset: 0xCD4A1, size: 0x8, addend: 0x0, symName: __RINvNtCs9f3LFPSIp77_4core3ptr13drop_in_placeINtNtCscXJUXcj6jCz_9hashbrown3raw8RawTableTNtCs475r2uZUTuc_11proc_macro25IdentuEEECs7oyfuZDlTKn_11yoke_derive, symObjAddr: 0x1674, symBinAddr: 0x538F4, symSize: 0x24 }
  - { offset: 0xCD4D0, size: 0x8, addend: 0x0, symName: __RINvNtCs9f3LFPSIp77_4core3ptr13drop_in_placeINtNtCscXJUXcj6jCz_9hashbrown3set7HashSetNtCs475r2uZUTuc_11proc_macro25IdentNtNtNtCs27l1GJC5rMQ_3std4hash6random11RandomStateEECs7oyfuZDlTKn_11yoke_derive, symObjAddr: 0x1698, symBinAddr: 0x53918, symSize: 0x24 }
  - { offset: 0xCD4FF, size: 0x8, addend: 0x0, symName: __RINvNtCs9f3LFPSIp77_4core3ptr13drop_in_placeINtNtCsdze8u8oDPro_5alloc3vec3VecNtCs475r2uZUTuc_11proc_macro25IdentEECs7oyfuZDlTKn_11yoke_derive, symObjAddr: 0x16BC, symBinAddr: 0x5393C, symSize: 0x5C }
  - { offset: 0xCD52E, size: 0x8, addend: 0x0, symName: __RINvNtCs9f3LFPSIp77_4core3ptr13drop_in_placeINtNtCsdze8u8oDPro_5alloc3vec3VecNtNtCsATtFUPiRFW_3syn8generics9TypeParamEECs7oyfuZDlTKn_11yoke_derive, symObjAddr: 0x1718, symBinAddr: 0x53998, symSize: 0x5C }
  - { offset: 0xCD55D, size: 0x8, addend: 0x0, symName: __RINvNtCs9f3LFPSIp77_4core3ptr13drop_in_placeINtNtCsdze8u8oDPro_5alloc5boxed3BoxDNtNtB4_5error5ErrorNtNtB4_6marker4SendNtB1B_4SyncEL_EECs7oyfuZDlTKn_11yoke_derive, symObjAddr: 0x1774, symBinAddr: 0x539F4, symSize: 0x80 }
  - { offset: 0xCD58C, size: 0x8, addend: 0x0, symName: __RINvNtCs9f3LFPSIp77_4core3ptr13drop_in_placeINtNtCsdze8u8oDPro_5alloc5boxed3BoxNtNtNtCs27l1GJC5rMQ_3std2io5error6CustomEECs7oyfuZDlTKn_11yoke_derive, symObjAddr: 0x17F4, symBinAddr: 0x53A74, symSize: 0x60 }
  - { offset: 0xCD5BB, size: 0x8, addend: 0x0, symName: __RINvNtCs9f3LFPSIp77_4core3ptr13drop_in_placeINtNtCsdze8u8oDPro_5alloc7raw_vec6RawVecNtCs475r2uZUTuc_11proc_macro25IdentEECs7oyfuZDlTKn_11yoke_derive, symObjAddr: 0x1854, symBinAddr: 0x53AD4, symSize: 0x24 }
  - { offset: 0xCD5EA, size: 0x8, addend: 0x0, symName: __RINvNtCs9f3LFPSIp77_4core3ptr13drop_in_placeINtNtCsdze8u8oDPro_5alloc7raw_vec6RawVecNtNtCsATtFUPiRFW_3syn8generics9TypeParamEECs7oyfuZDlTKn_11yoke_derive, symObjAddr: 0x1878, symBinAddr: 0x53AF8, symSize: 0x24 }
  - { offset: 0xCD619, size: 0x8, addend: 0x0, symName: __RINvNtCs9f3LFPSIp77_4core3ptr13drop_in_placeINtNtNtCs27l1GJC5rMQ_3std2io5error9ErrorDataINtNtCsdze8u8oDPro_5alloc5boxed3BoxNtBJ_6CustomEEECs7oyfuZDlTKn_11yoke_derive, symObjAddr: 0x189C, symBinAddr: 0x53B1C, symSize: 0x48 }
  - { offset: 0xCD648, size: 0x8, addend: 0x0, symName: __RINvNtCs9f3LFPSIp77_4core3ptr13drop_in_placeINtNtNtCsdze8u8oDPro_5alloc3vec13in_place_drop11InPlaceDropNtNtCsATtFUPiRFW_3syn4attr9AttributeEECs7oyfuZDlTKn_11yoke_derive, symObjAddr: 0x18E4, symBinAddr: 0x53B64, symSize: 0x24 }
  - { offset: 0xCD677, size: 0x8, addend: 0x0, symName: __RINvNtCs9f3LFPSIp77_4core3ptr13drop_in_placeINtNtNtCsdze8u8oDPro_5alloc3vec13in_place_drop11InPlaceDropNtNtCsATtFUPiRFW_3syn4expr3ArmEECs7oyfuZDlTKn_11yoke_derive, symObjAddr: 0x1908, symBinAddr: 0x53B88, symSize: 0x24 }
  - { offset: 0xCD6A6, size: 0x8, addend: 0x0, symName: __RINvNtCs9f3LFPSIp77_4core3ptr13drop_in_placeINtNtNtCsdze8u8oDPro_5alloc3vec13in_place_drop11InPlaceDropNtNtCsATtFUPiRFW_3syn4item11ForeignItemEECs7oyfuZDlTKn_11yoke_derive, symObjAddr: 0x192C, symBinAddr: 0x53BAC, symSize: 0x24 }
  - { offset: 0xCD6D5, size: 0x8, addend: 0x0, symName: __RINvNtCs9f3LFPSIp77_4core3ptr13drop_in_placeINtNtNtCsdze8u8oDPro_5alloc3vec13in_place_drop11InPlaceDropNtNtCsATtFUPiRFW_3syn4item4ItemEECs7oyfuZDlTKn_11yoke_derive, symObjAddr: 0x1950, symBinAddr: 0x53BD0, symSize: 0x24 }
  - { offset: 0xCD704, size: 0x8, addend: 0x0, symName: __RINvNtCs9f3LFPSIp77_4core3ptr13drop_in_placeINtNtNtCsdze8u8oDPro_5alloc3vec13in_place_drop11InPlaceDropNtNtCsATtFUPiRFW_3syn4item8ImplItemEECs7oyfuZDlTKn_11yoke_derive, symObjAddr: 0x1974, symBinAddr: 0x53BF4, symSize: 0x24 }
  - { offset: 0xCD733, size: 0x8, addend: 0x0, symName: __RINvNtCs9f3LFPSIp77_4core3ptr13drop_in_placeINtNtNtCsdze8u8oDPro_5alloc3vec13in_place_drop11InPlaceDropNtNtCsATtFUPiRFW_3syn4item9TraitItemEECs7oyfuZDlTKn_11yoke_derive, symObjAddr: 0x1998, symBinAddr: 0x53C18, symSize: 0x24 }
  - { offset: 0xCD762, size: 0x8, addend: 0x0, symName: __RINvNtCs9f3LFPSIp77_4core3ptr13drop_in_placeINtNtNtCsdze8u8oDPro_5alloc3vec13in_place_drop11InPlaceDropNtNtCsATtFUPiRFW_3syn4stmt4StmtEECs7oyfuZDlTKn_11yoke_derive, symObjAddr: 0x19BC, symBinAddr: 0x53C3C, symSize: 0x24 }
  - { offset: 0xCD791, size: 0x8, addend: 0x0, symName: __RINvNtCs9f3LFPSIp77_4core3ptr13drop_in_placeINtNtNtCsdze8u8oDPro_5alloc3vec13in_place_drop11InPlaceDropTNtNtCsATtFUPiRFW_3syn2ty4TypeNtNtB1I_5token5CommaEEECs7oyfuZDlTKn_11yoke_derive, symObjAddr: 0x19E0, symBinAddr: 0x53C60, symSize: 0x24 }
  - { offset: 0xCD7C0, size: 0x8, addend: 0x0, symName: __RINvNtCs9f3LFPSIp77_4core3ptr13drop_in_placeINtNtNtCsdze8u8oDPro_5alloc3vec13in_place_drop11InPlaceDropTNtNtCsATtFUPiRFW_3syn2ty9BareFnArgNtNtB1I_5token5CommaEEECs7oyfuZDlTKn_11yoke_derive, symObjAddr: 0x1A04, symBinAddr: 0x53C84, symSize: 0x24 }
  - { offset: 0xCD7EF, size: 0x8, addend: 0x0, symName: __RINvNtCs9f3LFPSIp77_4core3ptr13drop_in_placeINtNtNtCsdze8u8oDPro_5alloc3vec13in_place_drop11InPlaceDropTNtNtCsATtFUPiRFW_3syn3pat3PatNtNtB1I_5token2OrEEECs7oyfuZDlTKn_11yoke_derive, symObjAddr: 0x1A28, symBinAddr: 0x53CA8, symSize: 0x24 }
  - { offset: 0xCD81E, size: 0x8, addend: 0x0, symName: __RINvNtCs9f3LFPSIp77_4core3ptr13drop_in_placeINtNtNtCsdze8u8oDPro_5alloc3vec13in_place_drop11InPlaceDropTNtNtCsATtFUPiRFW_3syn3pat3PatNtNtB1I_5token5CommaEEECs7oyfuZDlTKn_11yoke_derive, symObjAddr: 0x1A4C, symBinAddr: 0x53CCC, symSize: 0x24 }
  - { offset: 0xCD84D, size: 0x8, addend: 0x0, symName: __RINvNtCs9f3LFPSIp77_4core3ptr13drop_in_placeINtNtNtCsdze8u8oDPro_5alloc3vec13in_place_drop11InPlaceDropTNtNtCsATtFUPiRFW_3syn3pat8FieldPatNtNtB1I_5token5CommaEEECs7oyfuZDlTKn_11yoke_derive, symObjAddr: 0x1A70, symBinAddr: 0x53CF0, symSize: 0x24 }
  - { offset: 0xCD87C, size: 0x8, addend: 0x0, symName: __RINvNtCs9f3LFPSIp77_4core3ptr13drop_in_placeINtNtNtCsdze8u8oDPro_5alloc3vec13in_place_drop11InPlaceDropTNtNtCsATtFUPiRFW_3syn4data5FieldNtNtB1I_5token5CommaEEECs7oyfuZDlTKn_11yoke_derive, symObjAddr: 0x1A94, symBinAddr: 0x53D14, symSize: 0x24 }
  - { offset: 0xCD8AB, size: 0x8, addend: 0x0, symName: __RINvNtCs9f3LFPSIp77_4core3ptr13drop_in_placeINtNtNtCsdze8u8oDPro_5alloc3vec13in_place_drop11InPlaceDropTNtNtCsATtFUPiRFW_3syn4data7VariantNtNtB1I_5token5CommaEEECs7oyfuZDlTKn_11yoke_derive, symObjAddr: 0x1AB8, symBinAddr: 0x53D38, symSize: 0x24 }
  - { offset: 0xCD8DA, size: 0x8, addend: 0x0, symName: __RINvNtCs9f3LFPSIp77_4core3ptr13drop_in_placeINtNtNtCsdze8u8oDPro_5alloc3vec13in_place_drop11InPlaceDropTNtNtCsATtFUPiRFW_3syn4expr10FieldValueNtNtB1I_5token5CommaEEECs7oyfuZDlTKn_11yoke_derive, symObjAddr: 0x1ADC, symBinAddr: 0x53D5C, symSize: 0x24 }
  - { offset: 0xCD909, size: 0x8, addend: 0x0, symName: __RINvNtCs9f3LFPSIp77_4core3ptr13drop_in_placeINtNtNtCsdze8u8oDPro_5alloc3vec13in_place_drop11InPlaceDropTNtNtCsATtFUPiRFW_3syn4expr4ExprNtNtB1I_5token5CommaEEECs7oyfuZDlTKn_11yoke_derive, symObjAddr: 0x1B00, symBinAddr: 0x53D80, symSize: 0x24 }
